; Listing generated by Microsoft (R) Optimizing Compiler Version 15.00.30729.01 

	TITLE	c:\home\public\Desktop\projects\cipherShed\src\Common\BootEncryption.cpp
	.686P
	.XMM
	include listing.inc
	.model	flat

INCLUDELIB LIBCMT
INCLUDELIB OLDNAMES

PUBLIC	??_C@_07KJLOKDKB@TypeLib?$AA@			; `string'
PUBLIC	??_C@_08KEKAJNJI@Software?$AA@			; `string'
PUBLIC	??_C@_06FDHFNJBJ@SYSTEM?$AA@			; `string'
PUBLIC	??_C@_08LOPHEHKG@SECURITY?$AA@			; `string'
PUBLIC	??_C@_03DDIMFGBA@SAM?$AA@			; `string'
PUBLIC	??_C@_04IHBFOLAC@Mime?$AA@			; `string'
PUBLIC	??_C@_08PPIOJEA@Hardware?$AA@			; `string'
PUBLIC	??_C@_09JKPGEJCH@Interface?$AA@			; `string'
PUBLIC	??_C@_08PICKODJL@FileType?$AA@			; `string'
PUBLIC	??_C@_0BF@HDDNNDFH@Component?5Categories?$AA@	; `string'
PUBLIC	??_C@_05GIBEAPNE@CLSID?$AA@			; `string'
PUBLIC	??_C@_05PDIKPLII@AppID?$AA@			; `string'
PUBLIC	??_C@_06JBKGCNBB@Delete?$AA@			; `string'
PUBLIC	??_C@_08KAAPDIAN@NoRemove?$AA@			; `string'
PUBLIC	??_C@_0M@DBGDLGLL@ForceRemove?$AA@		; `string'
PUBLIC	??_C@_03LAIAPFCB@Val?$AA@			; `string'
PUBLIC	??_C@_01HMGJMAIH@B?$AA@				; `string'
PUBLIC	??_C@_01CKDDGHAB@D?$AA@				; `string'
PUBLIC	??_C@_01PLPBNMEI@M?$AA@				; `string'
PUBLIC	??_C@_01CPLAODJH@S?$AA@				; `string'
PUBLIC	??_C@_0P@GHFPNOJB@bad?5allocation?$AA@		; `string'
PUBLIC	?_pAtlAutoThreadModule@ATL@@3PAUIAtlAutoThreadModule@1@A ; ATL::_pAtlAutoThreadModule
PUBLIC	?ElevatedComInstanceThreadId@Elevator@CipherShed@@1KA ; CipherShed::Elevator::ElevatedComInstanceThreadId
PUBLIC	?ElevatedComInstance@Elevator@CipherShed@@1PAUICipherShedMainCom@@A ; CipherShed::Elevator::ElevatedComInstance
PUBLIC	?_Value@?$_Is_swap_move@U_Swap_move_tag@std@@@std@@2_NB ; std::_Is_swap_move<std::_Swap_move_tag>::_Value
PUBLIC	?value@?$integral_constant@_N$0A@@tr1@std@@2_NB	; std::tr1::integral_constant<bool,0>::value
PUBLIC	?value@?$integral_constant@_N$00@tr1@std@@2_NB	; std::tr1::integral_constant<bool,1>::value
PUBLIC	?collate@?$_Locbase@H@std@@2HB			; std::_Locbase<int>::collate
PUBLIC	?ctype@?$_Locbase@H@std@@2HB			; std::_Locbase<int>::ctype
PUBLIC	?monetary@?$_Locbase@H@std@@2HB			; std::_Locbase<int>::monetary
PUBLIC	?numeric@?$_Locbase@H@std@@2HB			; std::_Locbase<int>::numeric
PUBLIC	?time@?$_Locbase@H@std@@2HB			; std::_Locbase<int>::time
PUBLIC	?messages@?$_Locbase@H@std@@2HB			; std::_Locbase<int>::messages
PUBLIC	?all@?$_Locbase@H@std@@2HB			; std::_Locbase<int>::all
PUBLIC	?none@?$_Locbase@H@std@@2HB			; std::_Locbase<int>::none
PUBLIC	?table_size@?$ctype@D@std@@2IB			; std::ctype<char>::table_size
PUBLIC	?skipws@?$_Iosb@H@std@@2W4_Fmtflags@12@B	; std::_Iosb<int>::skipws
PUBLIC	?unitbuf@?$_Iosb@H@std@@2W4_Fmtflags@12@B	; std::_Iosb<int>::unitbuf
PUBLIC	?uppercase@?$_Iosb@H@std@@2W4_Fmtflags@12@B	; std::_Iosb<int>::uppercase
PUBLIC	?showbase@?$_Iosb@H@std@@2W4_Fmtflags@12@B	; std::_Iosb<int>::showbase
PUBLIC	?showpoint@?$_Iosb@H@std@@2W4_Fmtflags@12@B	; std::_Iosb<int>::showpoint
PUBLIC	?showpos@?$_Iosb@H@std@@2W4_Fmtflags@12@B	; std::_Iosb<int>::showpos
PUBLIC	?left@?$_Iosb@H@std@@2W4_Fmtflags@12@B		; std::_Iosb<int>::left
PUBLIC	?right@?$_Iosb@H@std@@2W4_Fmtflags@12@B		; std::_Iosb<int>::right
PUBLIC	?internal@?$_Iosb@H@std@@2W4_Fmtflags@12@B	; std::_Iosb<int>::internal
PUBLIC	?dec@?$_Iosb@H@std@@2W4_Fmtflags@12@B		; std::_Iosb<int>::dec
PUBLIC	?oct@?$_Iosb@H@std@@2W4_Fmtflags@12@B		; std::_Iosb<int>::oct
PUBLIC	?hex@?$_Iosb@H@std@@2W4_Fmtflags@12@B		; std::_Iosb<int>::hex
PUBLIC	?scientific@?$_Iosb@H@std@@2W4_Fmtflags@12@B	; std::_Iosb<int>::scientific
PUBLIC	?fixed@?$_Iosb@H@std@@2W4_Fmtflags@12@B		; std::_Iosb<int>::fixed
PUBLIC	?hexfloat@?$_Iosb@H@std@@2W4_Fmtflags@12@B	; std::_Iosb<int>::hexfloat
PUBLIC	?boolalpha@?$_Iosb@H@std@@2W4_Fmtflags@12@B	; std::_Iosb<int>::boolalpha
PUBLIC	?_Stdio@?$_Iosb@H@std@@2W4_Fmtflags@12@B	; std::_Iosb<int>::_Stdio
PUBLIC	?adjustfield@?$_Iosb@H@std@@2W4_Fmtflags@12@B	; std::_Iosb<int>::adjustfield
PUBLIC	?basefield@?$_Iosb@H@std@@2W4_Fmtflags@12@B	; std::_Iosb<int>::basefield
PUBLIC	?floatfield@?$_Iosb@H@std@@2W4_Fmtflags@12@B	; std::_Iosb<int>::floatfield
PUBLIC	?goodbit@?$_Iosb@H@std@@2W4_Iostate@12@B	; std::_Iosb<int>::goodbit
PUBLIC	?eofbit@?$_Iosb@H@std@@2W4_Iostate@12@B		; std::_Iosb<int>::eofbit
PUBLIC	?failbit@?$_Iosb@H@std@@2W4_Iostate@12@B	; std::_Iosb<int>::failbit
PUBLIC	?badbit@?$_Iosb@H@std@@2W4_Iostate@12@B		; std::_Iosb<int>::badbit
PUBLIC	?_Hardfail@?$_Iosb@H@std@@2W4_Iostate@12@B	; std::_Iosb<int>::_Hardfail
PUBLIC	?in@?$_Iosb@H@std@@2W4_Openmode@12@B		; std::_Iosb<int>::in
PUBLIC	?out@?$_Iosb@H@std@@2W4_Openmode@12@B		; std::_Iosb<int>::out
PUBLIC	?ate@?$_Iosb@H@std@@2W4_Openmode@12@B		; std::_Iosb<int>::ate
PUBLIC	?app@?$_Iosb@H@std@@2W4_Openmode@12@B		; std::_Iosb<int>::app
PUBLIC	?trunc@?$_Iosb@H@std@@2W4_Openmode@12@B		; std::_Iosb<int>::trunc
PUBLIC	?_Nocreate@?$_Iosb@H@std@@2W4_Openmode@12@B	; std::_Iosb<int>::_Nocreate
PUBLIC	?_Noreplace@?$_Iosb@H@std@@2W4_Openmode@12@B	; std::_Iosb<int>::_Noreplace
PUBLIC	?binary@?$_Iosb@H@std@@2W4_Openmode@12@B	; std::_Iosb<int>::binary
PUBLIC	?beg@?$_Iosb@H@std@@2W4_Seekdir@12@B		; std::_Iosb<int>::beg
PUBLIC	?cur@?$_Iosb@H@std@@2W4_Seekdir@12@B		; std::_Iosb<int>::cur
PUBLIC	?end@?$_Iosb@H@std@@2W4_Seekdir@12@B		; std::_Iosb<int>::end
PUBLIC	?_Min@?$AtlLimits@H@ATL@@2HB			; ATL::AtlLimits<int>::_Min
PUBLIC	?_Max@?$AtlLimits@H@ATL@@2HB			; ATL::AtlLimits<int>::_Max
PUBLIC	?_Min@?$AtlLimits@I@ATL@@2IB			; ATL::AtlLimits<unsigned int>::_Min
PUBLIC	?_Max@?$AtlLimits@I@ATL@@2IB			; ATL::AtlLimits<unsigned int>::_Max
PUBLIC	?_Min@?$AtlLimits@J@ATL@@2JB			; ATL::AtlLimits<long>::_Min
PUBLIC	?_Max@?$AtlLimits@J@ATL@@2JB			; ATL::AtlLimits<long>::_Max
PUBLIC	?_Min@?$AtlLimits@K@ATL@@2KB			; ATL::AtlLimits<unsigned long>::_Min
PUBLIC	?_Max@?$AtlLimits@K@ATL@@2KB			; ATL::AtlLimits<unsigned long>::_Max
PUBLIC	?_Min@?$AtlLimits@_J@ATL@@2_JB			; ATL::AtlLimits<__int64>::_Min
PUBLIC	?_Max@?$AtlLimits@_J@ATL@@2_JB			; ATL::AtlLimits<__int64>::_Max
PUBLIC	?_Min@?$AtlLimits@_K@ATL@@2_KB			; ATL::AtlLimits<unsigned __int64>::_Min
PUBLIC	?_Max@?$AtlLimits@_K@ATL@@2_KB			; ATL::AtlLimits<unsigned __int64>::_Max
PUBLIC	?m_bInitFailed@CAtlBaseModule@ATL@@2_NA		; ATL::CAtlBaseModule::m_bInitFailed
PUBLIC	?VT@?$CVarTypeInfo@D@ATL@@2GB			; ATL::CVarTypeInfo<char>::VT
PUBLIC	?pmField@?$CVarTypeInfo@D@ATL@@2QQtagVARIANT@@DQ3@ ; ATL::CVarTypeInfo<char>::pmField
PUBLIC	?VT@?$CVarTypeInfo@E@ATL@@2GB			; ATL::CVarTypeInfo<unsigned char>::VT
PUBLIC	?pmField@?$CVarTypeInfo@E@ATL@@2QQtagVARIANT@@EQ3@ ; ATL::CVarTypeInfo<unsigned char>::pmField
PUBLIC	?VT@?$CVarTypeInfo@PAD@ATL@@2GB			; ATL::CVarTypeInfo<char *>::VT
PUBLIC	?pmField@?$CVarTypeInfo@PAD@ATL@@2QQtagVARIANT@@PADQ3@ ; ATL::CVarTypeInfo<char *>::pmField
PUBLIC	?VT@?$CVarTypeInfo@PAE@ATL@@2GB			; ATL::CVarTypeInfo<unsigned char *>::VT
PUBLIC	?pmField@?$CVarTypeInfo@PAE@ATL@@2QQtagVARIANT@@PAEQ3@ ; ATL::CVarTypeInfo<unsigned char *>::pmField
PUBLIC	?VT@?$CVarTypeInfo@F@ATL@@2GB			; ATL::CVarTypeInfo<short>::VT
PUBLIC	?pmField@?$CVarTypeInfo@F@ATL@@2QQtagVARIANT@@FQ3@ ; ATL::CVarTypeInfo<short>::pmField
PUBLIC	?VT@?$CVarTypeInfo@PAF@ATL@@2GB			; ATL::CVarTypeInfo<short *>::VT
PUBLIC	?pmField@?$CVarTypeInfo@PAF@ATL@@2QQtagVARIANT@@PAFQ3@ ; ATL::CVarTypeInfo<short *>::pmField
PUBLIC	?VT@?$CVarTypeInfo@G@ATL@@2GB			; ATL::CVarTypeInfo<unsigned short>::VT
PUBLIC	?pmField@?$CVarTypeInfo@G@ATL@@2QQtagVARIANT@@GQ3@ ; ATL::CVarTypeInfo<unsigned short>::pmField
PUBLIC	?VT@?$CVarTypeInfo@PAG@ATL@@2GB			; ATL::CVarTypeInfo<unsigned short *>::VT
PUBLIC	?pmField@?$CVarTypeInfo@PAG@ATL@@2QQtagVARIANT@@PAGQ3@ ; ATL::CVarTypeInfo<unsigned short *>::pmField
PUBLIC	?VT@?$CVarTypeInfo@H@ATL@@2GB			; ATL::CVarTypeInfo<int>::VT
PUBLIC	?pmField@?$CVarTypeInfo@H@ATL@@2QQtagVARIANT@@HQ3@ ; ATL::CVarTypeInfo<int>::pmField
PUBLIC	?VT@?$CVarTypeInfo@PAH@ATL@@2GB			; ATL::CVarTypeInfo<int *>::VT
PUBLIC	?pmField@?$CVarTypeInfo@PAH@ATL@@2QQtagVARIANT@@PAHQ3@ ; ATL::CVarTypeInfo<int *>::pmField
PUBLIC	?VT@?$CVarTypeInfo@I@ATL@@2GB			; ATL::CVarTypeInfo<unsigned int>::VT
PUBLIC	?pmField@?$CVarTypeInfo@I@ATL@@2QQtagVARIANT@@IQ3@ ; ATL::CVarTypeInfo<unsigned int>::pmField
PUBLIC	?VT@?$CVarTypeInfo@PAI@ATL@@2GB			; ATL::CVarTypeInfo<unsigned int *>::VT
PUBLIC	?pmField@?$CVarTypeInfo@PAI@ATL@@2QQtagVARIANT@@PAIQ3@ ; ATL::CVarTypeInfo<unsigned int *>::pmField
PUBLIC	?VT@?$CVarTypeInfo@J@ATL@@2GB			; ATL::CVarTypeInfo<long>::VT
PUBLIC	?pmField@?$CVarTypeInfo@J@ATL@@2QQtagVARIANT@@JQ3@ ; ATL::CVarTypeInfo<long>::pmField
PUBLIC	?VT@?$CVarTypeInfo@PAJ@ATL@@2GB			; ATL::CVarTypeInfo<long *>::VT
PUBLIC	?pmField@?$CVarTypeInfo@PAJ@ATL@@2QQtagVARIANT@@PAJQ3@ ; ATL::CVarTypeInfo<long *>::pmField
PUBLIC	?VT@?$CVarTypeInfo@K@ATL@@2GB			; ATL::CVarTypeInfo<unsigned long>::VT
PUBLIC	?pmField@?$CVarTypeInfo@K@ATL@@2QQtagVARIANT@@KQ3@ ; ATL::CVarTypeInfo<unsigned long>::pmField
PUBLIC	?VT@?$CVarTypeInfo@PAK@ATL@@2GB			; ATL::CVarTypeInfo<unsigned long *>::VT
PUBLIC	?pmField@?$CVarTypeInfo@PAK@ATL@@2QQtagVARIANT@@PAKQ3@ ; ATL::CVarTypeInfo<unsigned long *>::pmField
PUBLIC	?VT@?$CVarTypeInfo@_J@ATL@@2GB			; ATL::CVarTypeInfo<__int64>::VT
PUBLIC	?pmField@?$CVarTypeInfo@_J@ATL@@2QQtagVARIANT@@_JQ3@ ; ATL::CVarTypeInfo<__int64>::pmField
PUBLIC	?VT@?$CVarTypeInfo@PA_J@ATL@@2GB		; ATL::CVarTypeInfo<__int64 *>::VT
PUBLIC	?pmField@?$CVarTypeInfo@PA_J@ATL@@2QQtagVARIANT@@PA_JQ3@ ; ATL::CVarTypeInfo<__int64 *>::pmField
PUBLIC	?VT@?$CVarTypeInfo@_K@ATL@@2GB			; ATL::CVarTypeInfo<unsigned __int64>::VT
PUBLIC	?pmField@?$CVarTypeInfo@_K@ATL@@2QQtagVARIANT@@_KQ3@ ; ATL::CVarTypeInfo<unsigned __int64>::pmField
PUBLIC	?VT@?$CVarTypeInfo@PA_K@ATL@@2GB		; ATL::CVarTypeInfo<unsigned __int64 *>::VT
PUBLIC	?pmField@?$CVarTypeInfo@PA_K@ATL@@2QQtagVARIANT@@PA_KQ3@ ; ATL::CVarTypeInfo<unsigned __int64 *>::pmField
PUBLIC	?VT@?$CVarTypeInfo@M@ATL@@2GB			; ATL::CVarTypeInfo<float>::VT
PUBLIC	?pmField@?$CVarTypeInfo@M@ATL@@2QQtagVARIANT@@MQ3@ ; ATL::CVarTypeInfo<float>::pmField
PUBLIC	?VT@?$CVarTypeInfo@PAM@ATL@@2GB			; ATL::CVarTypeInfo<float *>::VT
PUBLIC	?pmField@?$CVarTypeInfo@PAM@ATL@@2QQtagVARIANT@@PAMQ3@ ; ATL::CVarTypeInfo<float *>::pmField
PUBLIC	?VT@?$CVarTypeInfo@N@ATL@@2GB			; ATL::CVarTypeInfo<double>::VT
PUBLIC	?pmField@?$CVarTypeInfo@N@ATL@@2QQtagVARIANT@@NQ3@ ; ATL::CVarTypeInfo<double>::pmField
PUBLIC	?VT@?$CVarTypeInfo@PAN@ATL@@2GB			; ATL::CVarTypeInfo<double *>::VT
PUBLIC	?pmField@?$CVarTypeInfo@PAN@ATL@@2QQtagVARIANT@@PANQ3@ ; ATL::CVarTypeInfo<double *>::pmField
PUBLIC	?VT@?$CVarTypeInfo@UtagVARIANT@@@ATL@@2GB	; ATL::CVarTypeInfo<tagVARIANT>::VT
PUBLIC	?VT@?$CVarTypeInfo@PA_W@ATL@@2GB		; ATL::CVarTypeInfo<wchar_t *>::VT
PUBLIC	?pmField@?$CVarTypeInfo@PA_W@ATL@@2QQtagVARIANT@@PA_WQ3@ ; ATL::CVarTypeInfo<wchar_t *>::pmField
PUBLIC	?VT@?$CVarTypeInfo@PAPA_W@ATL@@2GB		; ATL::CVarTypeInfo<wchar_t * *>::VT
PUBLIC	?pmField@?$CVarTypeInfo@PAPA_W@ATL@@2QQtagVARIANT@@PAPA_WQ3@ ; ATL::CVarTypeInfo<wchar_t * *>::pmField
PUBLIC	?VT@?$CVarTypeInfo@PAUIUnknown@@@ATL@@2GB	; ATL::CVarTypeInfo<IUnknown *>::VT
PUBLIC	?pmField@?$CVarTypeInfo@PAUIUnknown@@@ATL@@2QQtagVARIANT@@PAUIUnknown@@Q3@ ; ATL::CVarTypeInfo<IUnknown *>::pmField
PUBLIC	?VT@?$CVarTypeInfo@PAPAUIUnknown@@@ATL@@2GB	; ATL::CVarTypeInfo<IUnknown * *>::VT
PUBLIC	?pmField@?$CVarTypeInfo@PAPAUIUnknown@@@ATL@@2QQtagVARIANT@@PAPAUIUnknown@@Q3@ ; ATL::CVarTypeInfo<IUnknown * *>::pmField
PUBLIC	?VT@?$CVarTypeInfo@PAUIDispatch@@@ATL@@2GB	; ATL::CVarTypeInfo<IDispatch *>::VT
PUBLIC	?pmField@?$CVarTypeInfo@PAUIDispatch@@@ATL@@2QQtagVARIANT@@PAUIDispatch@@Q3@ ; ATL::CVarTypeInfo<IDispatch *>::pmField
PUBLIC	?VT@?$CVarTypeInfo@PAPAUIDispatch@@@ATL@@2GB	; ATL::CVarTypeInfo<IDispatch * *>::VT
PUBLIC	?pmField@?$CVarTypeInfo@PAPAUIDispatch@@@ATL@@2QQtagVARIANT@@PAPAUIDispatch@@Q3@ ; ATL::CVarTypeInfo<IDispatch * *>::pmField
PUBLIC	?VT@?$CVarTypeInfo@TtagCY@@@ATL@@2GB		; ATL::CVarTypeInfo<tagCY>::VT
PUBLIC	?pmField@?$CVarTypeInfo@TtagCY@@@ATL@@2QQtagVARIANT@@TtagCY@@Q3@ ; ATL::CVarTypeInfo<tagCY>::pmField
PUBLIC	?VT@?$CVarTypeInfo@PATtagCY@@@ATL@@2GB		; ATL::CVarTypeInfo<tagCY *>::VT
PUBLIC	?pmField@?$CVarTypeInfo@PATtagCY@@@ATL@@2QQtagVARIANT@@PATtagCY@@Q3@ ; ATL::CVarTypeInfo<tagCY *>::pmField
PUBLIC	_LIBID_ATLLib
PUBLIC	_CLSID_Registrar
PUBLIC	_IID_IRegistrar
PUBLIC	_IID_IAxWinHostWindow
PUBLIC	_IID_IAxWinAmbientDispatch
PUBLIC	_IID_IInternalConnection
PUBLIC	_IID_IDocHostUIHandlerDispatch
PUBLIC	_IID_IAxWinHostWindowLic
PUBLIC	_IID_IAxWinAmbientDispatchEx
PUBLIC	___pobjMapEntryFirst
PUBLIC	___pobjMapEntryLast
PUBLIC	?_pPerfRegFunc@ATL@@3P6AJPAUHINSTANCE__@@@ZA	; ATL::_pPerfRegFunc
PUBLIC	?_pPerfUnRegFunc@ATL@@3P6AJXZA			; ATL::_pPerfUnRegFunc
PUBLIC	?_AtlRegisterPerUser@ATL@@3_NA			; ATL::_AtlRegisterPerUser
PUBLIC	?_pAtlModule@ATL@@3PAVCAtlModule@1@A		; ATL::_pAtlModule
PUBLIC	?m_libid@CAtlModule@ATL@@2U_GUID@@A		; ATL::CAtlModule::m_libid
PUBLIC	?_pModule@ATL@@3PAVCComModule@1@A		; ATL::_pModule
PUBLIC	?ATL_CREATE_OBJECT@CComApartment@ATL@@2IA	; ATL::CComApartment::ATL_CREATE_OBJECT
PUBLIC	?MAX_VALUE@CRegParser@ATL@@1HB			; ATL::CRegParser::MAX_VALUE
PUBLIC	?MAX_TYPE@CRegParser@ATL@@1HB			; ATL::CRegParser::MAX_TYPE
PUBLIC	?rgszNeverDelete@CRegParser@ATL@@1QBQBDB	; ATL::CRegParser::rgszNeverDelete
PUBLIC	?cbNeverDelete@CRegParser@ATL@@1HB		; ATL::CRegParser::cbNeverDelete
PUBLIC	?RescueIsoImageSize@BootEncryption@CipherShed@@1IB ; CipherShed::BootEncryption::RescueIsoImageSize
PUBLIC	?ReferenceCount@Elevator@CipherShed@@1HA	; CipherShed::Elevator::ReferenceCount
;	COMDAT ?_pAtlAutoThreadModule@ATL@@3PAUIAtlAutoThreadModule@1@A
_BSS	SEGMENT
?_pAtlAutoThreadModule@ATL@@3PAUIAtlAutoThreadModule@1@A DD 01H DUP (?) ; ATL::_pAtlAutoThreadModule
_BSS	ENDS
_BSS	SEGMENT
?ElevatedComInstanceThreadId@Elevator@CipherShed@@1KA DD 01H DUP (?) ; CipherShed::Elevator::ElevatedComInstanceThreadId
?ElevatedComInstance@Elevator@CipherShed@@1PAUICipherShedMainCom@@A DD 01H DUP (?) ; CipherShed::Elevator::ElevatedComInstance
_BSS	ENDS
;	COMDAT ?m_bInitFailed@CAtlBaseModule@ATL@@2_NA
_BSS	SEGMENT
?m_bInitFailed@CAtlBaseModule@ATL@@2_NA DB 01H DUP (?)	; ATL::CAtlBaseModule::m_bInitFailed
_BSS	ENDS
;	COMDAT ?_pPerfRegFunc@ATL@@3P6AJPAUHINSTANCE__@@@ZA
_BSS	SEGMENT
?_pPerfRegFunc@ATL@@3P6AJPAUHINSTANCE__@@@ZA DD 01H DUP (?) ; ATL::_pPerfRegFunc
_BSS	ENDS
;	COMDAT ?_pPerfUnRegFunc@ATL@@3P6AJXZA
_BSS	SEGMENT
?_pPerfUnRegFunc@ATL@@3P6AJXZA DD 01H DUP (?)		; ATL::_pPerfUnRegFunc
_BSS	ENDS
;	COMDAT ?_AtlRegisterPerUser@ATL@@3_NA
_BSS	SEGMENT
?_AtlRegisterPerUser@ATL@@3_NA DB 01H DUP (?)		; ATL::_AtlRegisterPerUser
_BSS	ENDS
;	COMDAT ?_pAtlModule@ATL@@3PAVCAtlModule@1@A
_BSS	SEGMENT
?_pAtlModule@ATL@@3PAVCAtlModule@1@A DD 01H DUP (?)	; ATL::_pAtlModule
_BSS	ENDS
;	COMDAT ?m_libid@CAtlModule@ATL@@2U_GUID@@A
_BSS	SEGMENT
?m_libid@CAtlModule@ATL@@2U_GUID@@A DB 010H DUP (?)	; ATL::CAtlModule::m_libid
_BSS	ENDS
;	COMDAT ?_pModule@ATL@@3PAVCComModule@1@A
_BSS	SEGMENT
?_pModule@ATL@@3PAVCComModule@1@A DD 01H DUP (?)	; ATL::_pModule
_BSS	ENDS
;	COMDAT ?ATL_CREATE_OBJECT@CComApartment@ATL@@2IA
_BSS	SEGMENT
?ATL_CREATE_OBJECT@CComApartment@ATL@@2IA DD 01H DUP (?) ; ATL::CComApartment::ATL_CREATE_OBJECT
_BSS	ENDS
_BSS	SEGMENT
?ReferenceCount@Elevator@CipherShed@@1HA DD 01H DUP (?)	; CipherShed::Elevator::ReferenceCount
_BSS	ENDS
;	COMDAT ?RescueIsoImageSize@BootEncryption@CipherShed@@1IB
CONST	SEGMENT
?RescueIsoImageSize@BootEncryption@CipherShed@@1IB DD 01c0000H ; CipherShed::BootEncryption::RescueIsoImageSize
CONST	ENDS
;	COMDAT ?cbNeverDelete@CRegParser@ATL@@1HB
CONST	SEGMENT
?cbNeverDelete@CRegParser@ATL@@1HB DD 0cH		; ATL::CRegParser::cbNeverDelete
CONST	ENDS
;	COMDAT ?rgszNeverDelete@CRegParser@ATL@@1QBQBDB
CONST	SEGMENT
?rgszNeverDelete@CRegParser@ATL@@1QBQBDB DD FLAT:??_C@_05PDIKPLII@AppID?$AA@ ; ATL::CRegParser::rgszNeverDelete
	DD	FLAT:??_C@_05GIBEAPNE@CLSID?$AA@
	DD	FLAT:??_C@_0BF@HDDNNDFH@Component?5Categories?$AA@
	DD	FLAT:??_C@_08PICKODJL@FileType?$AA@
	DD	FLAT:??_C@_09JKPGEJCH@Interface?$AA@
	DD	FLAT:??_C@_08PPIOJEA@Hardware?$AA@
	DD	FLAT:??_C@_04IHBFOLAC@Mime?$AA@
	DD	FLAT:??_C@_03DDIMFGBA@SAM?$AA@
	DD	FLAT:??_C@_08LOPHEHKG@SECURITY?$AA@
	DD	FLAT:??_C@_06FDHFNJBJ@SYSTEM?$AA@
	DD	FLAT:??_C@_08KEKAJNJI@Software?$AA@
	DD	FLAT:??_C@_07KJLOKDKB@TypeLib?$AA@
CONST	ENDS
;	COMDAT ??_C@_07KJLOKDKB@TypeLib?$AA@
CONST	SEGMENT
??_C@_07KJLOKDKB@TypeLib?$AA@ DB 'TypeLib', 00H		; `string'
CONST	ENDS
;	COMDAT ??_C@_08KEKAJNJI@Software?$AA@
CONST	SEGMENT
??_C@_08KEKAJNJI@Software?$AA@ DB 'Software', 00H	; `string'
CONST	ENDS
;	COMDAT ??_C@_06FDHFNJBJ@SYSTEM?$AA@
CONST	SEGMENT
??_C@_06FDHFNJBJ@SYSTEM?$AA@ DB 'SYSTEM', 00H		; `string'
CONST	ENDS
;	COMDAT ??_C@_08LOPHEHKG@SECURITY?$AA@
CONST	SEGMENT
??_C@_08LOPHEHKG@SECURITY?$AA@ DB 'SECURITY', 00H	; `string'
CONST	ENDS
;	COMDAT ??_C@_03DDIMFGBA@SAM?$AA@
CONST	SEGMENT
??_C@_03DDIMFGBA@SAM?$AA@ DB 'SAM', 00H			; `string'
CONST	ENDS
;	COMDAT ??_C@_04IHBFOLAC@Mime?$AA@
CONST	SEGMENT
??_C@_04IHBFOLAC@Mime?$AA@ DB 'Mime', 00H		; `string'
CONST	ENDS
;	COMDAT ??_C@_08PPIOJEA@Hardware?$AA@
CONST	SEGMENT
??_C@_08PPIOJEA@Hardware?$AA@ DB 'Hardware', 00H	; `string'
CONST	ENDS
;	COMDAT ??_C@_09JKPGEJCH@Interface?$AA@
CONST	SEGMENT
??_C@_09JKPGEJCH@Interface?$AA@ DB 'Interface', 00H	; `string'
CONST	ENDS
;	COMDAT ??_C@_08PICKODJL@FileType?$AA@
CONST	SEGMENT
??_C@_08PICKODJL@FileType?$AA@ DB 'FileType', 00H	; `string'
CONST	ENDS
;	COMDAT ??_C@_0BF@HDDNNDFH@Component?5Categories?$AA@
CONST	SEGMENT
??_C@_0BF@HDDNNDFH@Component?5Categories?$AA@ DB 'Component Categories', 00H ; `string'
CONST	ENDS
;	COMDAT ??_C@_05GIBEAPNE@CLSID?$AA@
CONST	SEGMENT
??_C@_05GIBEAPNE@CLSID?$AA@ DB 'CLSID', 00H		; `string'
CONST	ENDS
;	COMDAT ??_C@_05PDIKPLII@AppID?$AA@
CONST	SEGMENT
??_C@_05PDIKPLII@AppID?$AA@ DB 'AppID', 00H		; `string'
CONST	ENDS
;	COMDAT ?MAX_TYPE@CRegParser@ATL@@1HB
CONST	SEGMENT
?MAX_TYPE@CRegParser@ATL@@1HB DD 01000H			; ATL::CRegParser::MAX_TYPE
CONST	ENDS
;	COMDAT ?MAX_VALUE@CRegParser@ATL@@1HB
CONST	SEGMENT
?MAX_VALUE@CRegParser@ATL@@1HB DD 01000H		; ATL::CRegParser::MAX_VALUE
CONST	ENDS
;	COMDAT ??_C@_06JBKGCNBB@Delete?$AA@
CONST	SEGMENT
??_C@_06JBKGCNBB@Delete?$AA@ DB 'Delete', 00H		; `string'
CONST	ENDS
;	COMDAT ??_C@_08KAAPDIAN@NoRemove?$AA@
CONST	SEGMENT
??_C@_08KAAPDIAN@NoRemove?$AA@ DB 'NoRemove', 00H	; `string'
CONST	ENDS
;	COMDAT ??_C@_0M@DBGDLGLL@ForceRemove?$AA@
CONST	SEGMENT
??_C@_0M@DBGDLGLL@ForceRemove?$AA@ DB 'ForceRemove', 00H ; `string'
CONST	ENDS
;	COMDAT ??_C@_03LAIAPFCB@Val?$AA@
CONST	SEGMENT
??_C@_03LAIAPFCB@Val?$AA@ DB 'Val', 00H			; `string'
CONST	ENDS
;	COMDAT ??_C@_01HMGJMAIH@B?$AA@
CONST	SEGMENT
??_C@_01HMGJMAIH@B?$AA@ DB 'B', 00H			; `string'
CONST	ENDS
;	COMDAT ??_C@_01CKDDGHAB@D?$AA@
CONST	SEGMENT
??_C@_01CKDDGHAB@D?$AA@ DB 'D', 00H			; `string'
CONST	ENDS
;	COMDAT ??_C@_01PLPBNMEI@M?$AA@
CONST	SEGMENT
??_C@_01PLPBNMEI@M?$AA@ DB 'M', 00H			; `string'
CONST	ENDS
CONST	SEGMENT
_szStringVal DD	FLAT:??_C@_01CPLAODJH@S?$AA@
_multiszStringVal DD FLAT:??_C@_01PLPBNMEI@M?$AA@
_szDwordVal DD	FLAT:??_C@_01CKDDGHAB@D?$AA@
_szBinaryVal DD	FLAT:??_C@_01HMGJMAIH@B?$AA@
_szValToken DD	FLAT:??_C@_03LAIAPFCB@Val?$AA@
_szForceRemove DD FLAT:??_C@_0M@DBGDLGLL@ForceRemove?$AA@
_szNoRemove DD	FLAT:??_C@_08KAAPDIAN@NoRemove?$AA@
_szDelete DD	FLAT:??_C@_06JBKGCNBB@Delete?$AA@
CONST	ENDS
;	COMDAT ??_C@_01CPLAODJH@S?$AA@
CONST	SEGMENT
??_C@_01CPLAODJH@S?$AA@ DB 'S', 00H			; `string'
CONST	ENDS
;	COMDAT ___pobjMapEntryLast
ATL$__z	SEGMENT
___pobjMapEntryLast DD 00H
ATL$__z	ENDS
;	COMDAT ___pobjMapEntryFirst
ATL$__a	SEGMENT
___pobjMapEntryFirst DD 00H
ATL$__a	ENDS
;	COMDAT _IID_IAxWinAmbientDispatchEx
CONST	SEGMENT
_IID_IAxWinAmbientDispatchEx DD 0b2d0778bH
	DW	0ac99H
	DW	04c58H
	DB	0a5H
	DB	0c8H
	DB	0e7H
	DB	072H
	DB	04eH
	DB	053H
	DB	016H
	DB	0b5H
CONST	ENDS
;	COMDAT _IID_IAxWinHostWindowLic
CONST	SEGMENT
_IID_IAxWinHostWindowLic DD 03935bda8H
	DW	04ed9H
	DW	0495cH
	DB	086H
	DB	050H
	DB	0e0H
	DB	01fH
	DB	0c1H
	DB	0e3H
	DB	08aH
	DB	04bH
CONST	ENDS
;	COMDAT _IID_IDocHostUIHandlerDispatch
CONST	SEGMENT
_IID_IDocHostUIHandlerDispatch DD 0425b5af0H
	DW	065f1H
	DW	011d1H
	DB	096H
	DB	011H
	DB	00H
	DB	00H
	DB	0f8H
	DB	01eH
	DB	0dH
	DB	0dH
CONST	ENDS
;	COMDAT _IID_IInternalConnection
CONST	SEGMENT
_IID_IInternalConnection DD 072ad0770H
	DW	06a9fH
	DW	011d1H
	DB	0bcH
	DB	0ecH
	DB	00H
	DB	060H
	DB	08H
	DB	08fH
	DB	044H
	DB	04eH
CONST	ENDS
;	COMDAT _IID_IAxWinAmbientDispatch
CONST	SEGMENT
_IID_IAxWinAmbientDispatch DD 0b6ea2051H
	DW	048aH
	DW	011d1H
	DB	082H
	DB	0b9H
	DB	00H
	DB	0c0H
	DB	04fH
	DB	0b9H
	DB	094H
	DB	02eH
CONST	ENDS
;	COMDAT _IID_IAxWinHostWindow
CONST	SEGMENT
_IID_IAxWinHostWindow DD 0b6ea2050H
	DW	048aH
	DW	011d1H
	DB	082H
	DB	0b9H
	DB	00H
	DB	0c0H
	DB	04fH
	DB	0b9H
	DB	094H
	DB	02eH
CONST	ENDS
;	COMDAT _IID_IRegistrar
CONST	SEGMENT
_IID_IRegistrar DD 044ec053bH
	DW	0400fH
	DW	011d0H
	DB	09dH
	DB	0cdH
	DB	00H
	DB	0a0H
	DB	0c9H
	DB	03H
	DB	091H
	DB	0d3H
CONST	ENDS
;	COMDAT _CLSID_Registrar
CONST	SEGMENT
_CLSID_Registrar DD 044ec053aH
	DW	0400fH
	DW	011d0H
	DB	09dH
	DB	0cdH
	DB	00H
	DB	0a0H
	DB	0c9H
	DB	03H
	DB	091H
	DB	0d3H
CONST	ENDS
;	COMDAT _LIBID_ATLLib
CONST	SEGMENT
_LIBID_ATLLib DD 044ec0535H
	DW	0400fH
	DW	011d0H
	DB	09dH
	DB	0cdH
	DB	00H
	DB	0a0H
	DB	0c9H
	DB	03H
	DB	091H
	DB	0d3H
CONST	ENDS
;	COMDAT ?pmField@?$CVarTypeInfo@PATtagCY@@@ATL@@2QQtagVARIANT@@PATtagCY@@Q3@
CONST	SEGMENT
?pmField@?$CVarTypeInfo@PATtagCY@@@ATL@@2QQtagVARIANT@@PATtagCY@@Q3@ DD 08H ; ATL::CVarTypeInfo<tagCY *>::pmField
CONST	ENDS
;	COMDAT ?VT@?$CVarTypeInfo@PATtagCY@@@ATL@@2GB
CONST	SEGMENT
?VT@?$CVarTypeInfo@PATtagCY@@@ATL@@2GB DW 04006H	; ATL::CVarTypeInfo<tagCY *>::VT
CONST	ENDS
;	COMDAT ?pmField@?$CVarTypeInfo@TtagCY@@@ATL@@2QQtagVARIANT@@TtagCY@@Q3@
CONST	SEGMENT
?pmField@?$CVarTypeInfo@TtagCY@@@ATL@@2QQtagVARIANT@@TtagCY@@Q3@ DD 08H ; ATL::CVarTypeInfo<tagCY>::pmField
CONST	ENDS
;	COMDAT ?VT@?$CVarTypeInfo@TtagCY@@@ATL@@2GB
CONST	SEGMENT
?VT@?$CVarTypeInfo@TtagCY@@@ATL@@2GB DW 06H		; ATL::CVarTypeInfo<tagCY>::VT
CONST	ENDS
;	COMDAT ?pmField@?$CVarTypeInfo@PAPAUIDispatch@@@ATL@@2QQtagVARIANT@@PAPAUIDispatch@@Q3@
CONST	SEGMENT
?pmField@?$CVarTypeInfo@PAPAUIDispatch@@@ATL@@2QQtagVARIANT@@PAPAUIDispatch@@Q3@ DD 08H ; ATL::CVarTypeInfo<IDispatch * *>::pmField
CONST	ENDS
;	COMDAT ?VT@?$CVarTypeInfo@PAPAUIDispatch@@@ATL@@2GB
CONST	SEGMENT
?VT@?$CVarTypeInfo@PAPAUIDispatch@@@ATL@@2GB DW 04009H	; ATL::CVarTypeInfo<IDispatch * *>::VT
CONST	ENDS
;	COMDAT ?pmField@?$CVarTypeInfo@PAUIDispatch@@@ATL@@2QQtagVARIANT@@PAUIDispatch@@Q3@
CONST	SEGMENT
?pmField@?$CVarTypeInfo@PAUIDispatch@@@ATL@@2QQtagVARIANT@@PAUIDispatch@@Q3@ DD 08H ; ATL::CVarTypeInfo<IDispatch *>::pmField
CONST	ENDS
;	COMDAT ?VT@?$CVarTypeInfo@PAUIDispatch@@@ATL@@2GB
CONST	SEGMENT
?VT@?$CVarTypeInfo@PAUIDispatch@@@ATL@@2GB DW 09H	; ATL::CVarTypeInfo<IDispatch *>::VT
CONST	ENDS
;	COMDAT ?pmField@?$CVarTypeInfo@PAPAUIUnknown@@@ATL@@2QQtagVARIANT@@PAPAUIUnknown@@Q3@
CONST	SEGMENT
?pmField@?$CVarTypeInfo@PAPAUIUnknown@@@ATL@@2QQtagVARIANT@@PAPAUIUnknown@@Q3@ DD 08H ; ATL::CVarTypeInfo<IUnknown * *>::pmField
CONST	ENDS
;	COMDAT ?VT@?$CVarTypeInfo@PAPAUIUnknown@@@ATL@@2GB
CONST	SEGMENT
?VT@?$CVarTypeInfo@PAPAUIUnknown@@@ATL@@2GB DW 0400dH	; ATL::CVarTypeInfo<IUnknown * *>::VT
CONST	ENDS
;	COMDAT ?pmField@?$CVarTypeInfo@PAUIUnknown@@@ATL@@2QQtagVARIANT@@PAUIUnknown@@Q3@
CONST	SEGMENT
?pmField@?$CVarTypeInfo@PAUIUnknown@@@ATL@@2QQtagVARIANT@@PAUIUnknown@@Q3@ DD 08H ; ATL::CVarTypeInfo<IUnknown *>::pmField
CONST	ENDS
;	COMDAT ?VT@?$CVarTypeInfo@PAUIUnknown@@@ATL@@2GB
CONST	SEGMENT
?VT@?$CVarTypeInfo@PAUIUnknown@@@ATL@@2GB DW 0dH	; ATL::CVarTypeInfo<IUnknown *>::VT
CONST	ENDS
;	COMDAT ?pmField@?$CVarTypeInfo@PAPA_W@ATL@@2QQtagVARIANT@@PAPA_WQ3@
CONST	SEGMENT
?pmField@?$CVarTypeInfo@PAPA_W@ATL@@2QQtagVARIANT@@PAPA_WQ3@ DD 08H ; ATL::CVarTypeInfo<wchar_t * *>::pmField
CONST	ENDS
;	COMDAT ?VT@?$CVarTypeInfo@PAPA_W@ATL@@2GB
CONST	SEGMENT
?VT@?$CVarTypeInfo@PAPA_W@ATL@@2GB DW 04008H		; ATL::CVarTypeInfo<wchar_t * *>::VT
CONST	ENDS
;	COMDAT ?pmField@?$CVarTypeInfo@PA_W@ATL@@2QQtagVARIANT@@PA_WQ3@
CONST	SEGMENT
?pmField@?$CVarTypeInfo@PA_W@ATL@@2QQtagVARIANT@@PA_WQ3@ DD 08H ; ATL::CVarTypeInfo<wchar_t *>::pmField
CONST	ENDS
;	COMDAT ?VT@?$CVarTypeInfo@PA_W@ATL@@2GB
CONST	SEGMENT
?VT@?$CVarTypeInfo@PA_W@ATL@@2GB DW 08H			; ATL::CVarTypeInfo<wchar_t *>::VT
CONST	ENDS
;	COMDAT ?VT@?$CVarTypeInfo@UtagVARIANT@@@ATL@@2GB
CONST	SEGMENT
?VT@?$CVarTypeInfo@UtagVARIANT@@@ATL@@2GB DW 0cH	; ATL::CVarTypeInfo<tagVARIANT>::VT
CONST	ENDS
;	COMDAT ?pmField@?$CVarTypeInfo@PAN@ATL@@2QQtagVARIANT@@PANQ3@
CONST	SEGMENT
?pmField@?$CVarTypeInfo@PAN@ATL@@2QQtagVARIANT@@PANQ3@ DD 08H ; ATL::CVarTypeInfo<double *>::pmField
CONST	ENDS
;	COMDAT ?VT@?$CVarTypeInfo@PAN@ATL@@2GB
CONST	SEGMENT
?VT@?$CVarTypeInfo@PAN@ATL@@2GB DW 04005H		; ATL::CVarTypeInfo<double *>::VT
CONST	ENDS
;	COMDAT ?pmField@?$CVarTypeInfo@N@ATL@@2QQtagVARIANT@@NQ3@
CONST	SEGMENT
?pmField@?$CVarTypeInfo@N@ATL@@2QQtagVARIANT@@NQ3@ DD 08H ; ATL::CVarTypeInfo<double>::pmField
CONST	ENDS
;	COMDAT ?VT@?$CVarTypeInfo@N@ATL@@2GB
CONST	SEGMENT
?VT@?$CVarTypeInfo@N@ATL@@2GB DW 05H			; ATL::CVarTypeInfo<double>::VT
CONST	ENDS
;	COMDAT ?pmField@?$CVarTypeInfo@PAM@ATL@@2QQtagVARIANT@@PAMQ3@
CONST	SEGMENT
?pmField@?$CVarTypeInfo@PAM@ATL@@2QQtagVARIANT@@PAMQ3@ DD 08H ; ATL::CVarTypeInfo<float *>::pmField
CONST	ENDS
;	COMDAT ?VT@?$CVarTypeInfo@PAM@ATL@@2GB
CONST	SEGMENT
?VT@?$CVarTypeInfo@PAM@ATL@@2GB DW 04004H		; ATL::CVarTypeInfo<float *>::VT
CONST	ENDS
;	COMDAT ?pmField@?$CVarTypeInfo@M@ATL@@2QQtagVARIANT@@MQ3@
CONST	SEGMENT
?pmField@?$CVarTypeInfo@M@ATL@@2QQtagVARIANT@@MQ3@ DD 08H ; ATL::CVarTypeInfo<float>::pmField
CONST	ENDS
;	COMDAT ?VT@?$CVarTypeInfo@M@ATL@@2GB
CONST	SEGMENT
?VT@?$CVarTypeInfo@M@ATL@@2GB DW 04H			; ATL::CVarTypeInfo<float>::VT
CONST	ENDS
;	COMDAT ?pmField@?$CVarTypeInfo@PA_K@ATL@@2QQtagVARIANT@@PA_KQ3@
CONST	SEGMENT
?pmField@?$CVarTypeInfo@PA_K@ATL@@2QQtagVARIANT@@PA_KQ3@ DD 08H ; ATL::CVarTypeInfo<unsigned __int64 *>::pmField
CONST	ENDS
;	COMDAT ?VT@?$CVarTypeInfo@PA_K@ATL@@2GB
CONST	SEGMENT
?VT@?$CVarTypeInfo@PA_K@ATL@@2GB DW 04015H		; ATL::CVarTypeInfo<unsigned __int64 *>::VT
CONST	ENDS
;	COMDAT ?pmField@?$CVarTypeInfo@_K@ATL@@2QQtagVARIANT@@_KQ3@
CONST	SEGMENT
?pmField@?$CVarTypeInfo@_K@ATL@@2QQtagVARIANT@@_KQ3@ DD 08H ; ATL::CVarTypeInfo<unsigned __int64>::pmField
CONST	ENDS
;	COMDAT ?VT@?$CVarTypeInfo@_K@ATL@@2GB
CONST	SEGMENT
?VT@?$CVarTypeInfo@_K@ATL@@2GB DW 015H			; ATL::CVarTypeInfo<unsigned __int64>::VT
CONST	ENDS
;	COMDAT ?pmField@?$CVarTypeInfo@PA_J@ATL@@2QQtagVARIANT@@PA_JQ3@
CONST	SEGMENT
?pmField@?$CVarTypeInfo@PA_J@ATL@@2QQtagVARIANT@@PA_JQ3@ DD 08H ; ATL::CVarTypeInfo<__int64 *>::pmField
CONST	ENDS
;	COMDAT ?VT@?$CVarTypeInfo@PA_J@ATL@@2GB
CONST	SEGMENT
?VT@?$CVarTypeInfo@PA_J@ATL@@2GB DW 04014H		; ATL::CVarTypeInfo<__int64 *>::VT
CONST	ENDS
;	COMDAT ?pmField@?$CVarTypeInfo@_J@ATL@@2QQtagVARIANT@@_JQ3@
CONST	SEGMENT
?pmField@?$CVarTypeInfo@_J@ATL@@2QQtagVARIANT@@_JQ3@ DD 08H ; ATL::CVarTypeInfo<__int64>::pmField
CONST	ENDS
;	COMDAT ?VT@?$CVarTypeInfo@_J@ATL@@2GB
CONST	SEGMENT
?VT@?$CVarTypeInfo@_J@ATL@@2GB DW 014H			; ATL::CVarTypeInfo<__int64>::VT
CONST	ENDS
;	COMDAT ?pmField@?$CVarTypeInfo@PAK@ATL@@2QQtagVARIANT@@PAKQ3@
CONST	SEGMENT
?pmField@?$CVarTypeInfo@PAK@ATL@@2QQtagVARIANT@@PAKQ3@ DD 08H ; ATL::CVarTypeInfo<unsigned long *>::pmField
CONST	ENDS
;	COMDAT ?VT@?$CVarTypeInfo@PAK@ATL@@2GB
CONST	SEGMENT
?VT@?$CVarTypeInfo@PAK@ATL@@2GB DW 04013H		; ATL::CVarTypeInfo<unsigned long *>::VT
CONST	ENDS
;	COMDAT ?pmField@?$CVarTypeInfo@K@ATL@@2QQtagVARIANT@@KQ3@
CONST	SEGMENT
?pmField@?$CVarTypeInfo@K@ATL@@2QQtagVARIANT@@KQ3@ DD 08H ; ATL::CVarTypeInfo<unsigned long>::pmField
CONST	ENDS
;	COMDAT ?VT@?$CVarTypeInfo@K@ATL@@2GB
CONST	SEGMENT
?VT@?$CVarTypeInfo@K@ATL@@2GB DW 013H			; ATL::CVarTypeInfo<unsigned long>::VT
CONST	ENDS
;	COMDAT ?pmField@?$CVarTypeInfo@PAJ@ATL@@2QQtagVARIANT@@PAJQ3@
CONST	SEGMENT
?pmField@?$CVarTypeInfo@PAJ@ATL@@2QQtagVARIANT@@PAJQ3@ DD 08H ; ATL::CVarTypeInfo<long *>::pmField
CONST	ENDS
;	COMDAT ?VT@?$CVarTypeInfo@PAJ@ATL@@2GB
CONST	SEGMENT
?VT@?$CVarTypeInfo@PAJ@ATL@@2GB DW 04003H		; ATL::CVarTypeInfo<long *>::VT
CONST	ENDS
;	COMDAT ?pmField@?$CVarTypeInfo@J@ATL@@2QQtagVARIANT@@JQ3@
CONST	SEGMENT
?pmField@?$CVarTypeInfo@J@ATL@@2QQtagVARIANT@@JQ3@ DD 08H ; ATL::CVarTypeInfo<long>::pmField
CONST	ENDS
;	COMDAT ?VT@?$CVarTypeInfo@J@ATL@@2GB
CONST	SEGMENT
?VT@?$CVarTypeInfo@J@ATL@@2GB DW 03H			; ATL::CVarTypeInfo<long>::VT
CONST	ENDS
;	COMDAT ?pmField@?$CVarTypeInfo@PAI@ATL@@2QQtagVARIANT@@PAIQ3@
CONST	SEGMENT
?pmField@?$CVarTypeInfo@PAI@ATL@@2QQtagVARIANT@@PAIQ3@ DD 08H ; ATL::CVarTypeInfo<unsigned int *>::pmField
CONST	ENDS
;	COMDAT ?VT@?$CVarTypeInfo@PAI@ATL@@2GB
CONST	SEGMENT
?VT@?$CVarTypeInfo@PAI@ATL@@2GB DW 04013H		; ATL::CVarTypeInfo<unsigned int *>::VT
CONST	ENDS
;	COMDAT ?pmField@?$CVarTypeInfo@I@ATL@@2QQtagVARIANT@@IQ3@
CONST	SEGMENT
?pmField@?$CVarTypeInfo@I@ATL@@2QQtagVARIANT@@IQ3@ DD 08H ; ATL::CVarTypeInfo<unsigned int>::pmField
CONST	ENDS
;	COMDAT ?VT@?$CVarTypeInfo@I@ATL@@2GB
CONST	SEGMENT
?VT@?$CVarTypeInfo@I@ATL@@2GB DW 013H			; ATL::CVarTypeInfo<unsigned int>::VT
CONST	ENDS
;	COMDAT ?pmField@?$CVarTypeInfo@PAH@ATL@@2QQtagVARIANT@@PAHQ3@
CONST	SEGMENT
?pmField@?$CVarTypeInfo@PAH@ATL@@2QQtagVARIANT@@PAHQ3@ DD 08H ; ATL::CVarTypeInfo<int *>::pmField
CONST	ENDS
;	COMDAT ?VT@?$CVarTypeInfo@PAH@ATL@@2GB
CONST	SEGMENT
?VT@?$CVarTypeInfo@PAH@ATL@@2GB DW 04003H		; ATL::CVarTypeInfo<int *>::VT
CONST	ENDS
;	COMDAT ?pmField@?$CVarTypeInfo@H@ATL@@2QQtagVARIANT@@HQ3@
CONST	SEGMENT
?pmField@?$CVarTypeInfo@H@ATL@@2QQtagVARIANT@@HQ3@ DD 08H ; ATL::CVarTypeInfo<int>::pmField
CONST	ENDS
;	COMDAT ?VT@?$CVarTypeInfo@H@ATL@@2GB
CONST	SEGMENT
?VT@?$CVarTypeInfo@H@ATL@@2GB DW 03H			; ATL::CVarTypeInfo<int>::VT
CONST	ENDS
;	COMDAT ?pmField@?$CVarTypeInfo@PAG@ATL@@2QQtagVARIANT@@PAGQ3@
CONST	SEGMENT
?pmField@?$CVarTypeInfo@PAG@ATL@@2QQtagVARIANT@@PAGQ3@ DD 08H ; ATL::CVarTypeInfo<unsigned short *>::pmField
CONST	ENDS
;	COMDAT ?VT@?$CVarTypeInfo@PAG@ATL@@2GB
CONST	SEGMENT
?VT@?$CVarTypeInfo@PAG@ATL@@2GB DW 04012H		; ATL::CVarTypeInfo<unsigned short *>::VT
CONST	ENDS
;	COMDAT ?pmField@?$CVarTypeInfo@G@ATL@@2QQtagVARIANT@@GQ3@
CONST	SEGMENT
?pmField@?$CVarTypeInfo@G@ATL@@2QQtagVARIANT@@GQ3@ DD 08H ; ATL::CVarTypeInfo<unsigned short>::pmField
CONST	ENDS
;	COMDAT ?VT@?$CVarTypeInfo@G@ATL@@2GB
CONST	SEGMENT
?VT@?$CVarTypeInfo@G@ATL@@2GB DW 012H			; ATL::CVarTypeInfo<unsigned short>::VT
CONST	ENDS
;	COMDAT ?pmField@?$CVarTypeInfo@PAF@ATL@@2QQtagVARIANT@@PAFQ3@
CONST	SEGMENT
?pmField@?$CVarTypeInfo@PAF@ATL@@2QQtagVARIANT@@PAFQ3@ DD 08H ; ATL::CVarTypeInfo<short *>::pmField
CONST	ENDS
;	COMDAT ?VT@?$CVarTypeInfo@PAF@ATL@@2GB
CONST	SEGMENT
?VT@?$CVarTypeInfo@PAF@ATL@@2GB DW 04002H		; ATL::CVarTypeInfo<short *>::VT
CONST	ENDS
;	COMDAT ?pmField@?$CVarTypeInfo@F@ATL@@2QQtagVARIANT@@FQ3@
CONST	SEGMENT
?pmField@?$CVarTypeInfo@F@ATL@@2QQtagVARIANT@@FQ3@ DD 08H ; ATL::CVarTypeInfo<short>::pmField
CONST	ENDS
;	COMDAT ?VT@?$CVarTypeInfo@F@ATL@@2GB
CONST	SEGMENT
?VT@?$CVarTypeInfo@F@ATL@@2GB DW 02H			; ATL::CVarTypeInfo<short>::VT
CONST	ENDS
;	COMDAT ?pmField@?$CVarTypeInfo@PAE@ATL@@2QQtagVARIANT@@PAEQ3@
CONST	SEGMENT
?pmField@?$CVarTypeInfo@PAE@ATL@@2QQtagVARIANT@@PAEQ3@ DD 08H ; ATL::CVarTypeInfo<unsigned char *>::pmField
CONST	ENDS
;	COMDAT ?VT@?$CVarTypeInfo@PAE@ATL@@2GB
CONST	SEGMENT
?VT@?$CVarTypeInfo@PAE@ATL@@2GB DW 04011H		; ATL::CVarTypeInfo<unsigned char *>::VT
CONST	ENDS
;	COMDAT ?pmField@?$CVarTypeInfo@PAD@ATL@@2QQtagVARIANT@@PADQ3@
CONST	SEGMENT
?pmField@?$CVarTypeInfo@PAD@ATL@@2QQtagVARIANT@@PADQ3@ DD 08H ; ATL::CVarTypeInfo<char *>::pmField
CONST	ENDS
;	COMDAT ?VT@?$CVarTypeInfo@PAD@ATL@@2GB
CONST	SEGMENT
?VT@?$CVarTypeInfo@PAD@ATL@@2GB DW 04010H		; ATL::CVarTypeInfo<char *>::VT
CONST	ENDS
;	COMDAT ?pmField@?$CVarTypeInfo@E@ATL@@2QQtagVARIANT@@EQ3@
CONST	SEGMENT
?pmField@?$CVarTypeInfo@E@ATL@@2QQtagVARIANT@@EQ3@ DD 08H ; ATL::CVarTypeInfo<unsigned char>::pmField
CONST	ENDS
;	COMDAT ?VT@?$CVarTypeInfo@E@ATL@@2GB
CONST	SEGMENT
?VT@?$CVarTypeInfo@E@ATL@@2GB DW 011H			; ATL::CVarTypeInfo<unsigned char>::VT
CONST	ENDS
;	COMDAT ?pmField@?$CVarTypeInfo@D@ATL@@2QQtagVARIANT@@DQ3@
CONST	SEGMENT
?pmField@?$CVarTypeInfo@D@ATL@@2QQtagVARIANT@@DQ3@ DD 08H ; ATL::CVarTypeInfo<char>::pmField
CONST	ENDS
;	COMDAT ?VT@?$CVarTypeInfo@D@ATL@@2GB
CONST	SEGMENT
?VT@?$CVarTypeInfo@D@ATL@@2GB DW 010H			; ATL::CVarTypeInfo<char>::VT
CONST	ENDS
;	COMDAT ?_Max@?$AtlLimits@_K@ATL@@2_KB
CONST	SEGMENT
?_Max@?$AtlLimits@_K@ATL@@2_KB DQ ffffffffffffffffH	; ATL::AtlLimits<unsigned __int64>::_Max
CONST	ENDS
;	COMDAT ?_Min@?$AtlLimits@_K@ATL@@2_KB
CONST	SEGMENT
?_Min@?$AtlLimits@_K@ATL@@2_KB DQ 0000000000000000H	; ATL::AtlLimits<unsigned __int64>::_Min
CONST	ENDS
;	COMDAT ?_Max@?$AtlLimits@_J@ATL@@2_JB
CONST	SEGMENT
?_Max@?$AtlLimits@_J@ATL@@2_JB DQ 7fffffffffffffffH	; ATL::AtlLimits<__int64>::_Max
CONST	ENDS
;	COMDAT ?_Min@?$AtlLimits@_J@ATL@@2_JB
CONST	SEGMENT
?_Min@?$AtlLimits@_J@ATL@@2_JB DQ 8000000000000000H	; ATL::AtlLimits<__int64>::_Min
CONST	ENDS
;	COMDAT ?_Max@?$AtlLimits@K@ATL@@2KB
CONST	SEGMENT
?_Max@?$AtlLimits@K@ATL@@2KB DD 0ffffffffH		; ATL::AtlLimits<unsigned long>::_Max
CONST	ENDS
;	COMDAT ?_Min@?$AtlLimits@K@ATL@@2KB
CONST	SEGMENT
?_Min@?$AtlLimits@K@ATL@@2KB DD 00H			; ATL::AtlLimits<unsigned long>::_Min
CONST	ENDS
;	COMDAT ?_Max@?$AtlLimits@J@ATL@@2JB
CONST	SEGMENT
?_Max@?$AtlLimits@J@ATL@@2JB DD 07fffffffH		; ATL::AtlLimits<long>::_Max
CONST	ENDS
;	COMDAT ?_Min@?$AtlLimits@J@ATL@@2JB
CONST	SEGMENT
?_Min@?$AtlLimits@J@ATL@@2JB DD 080000000H		; ATL::AtlLimits<long>::_Min
CONST	ENDS
;	COMDAT ?_Max@?$AtlLimits@I@ATL@@2IB
CONST	SEGMENT
?_Max@?$AtlLimits@I@ATL@@2IB DD 0ffffffffH		; ATL::AtlLimits<unsigned int>::_Max
CONST	ENDS
;	COMDAT ?_Min@?$AtlLimits@I@ATL@@2IB
CONST	SEGMENT
?_Min@?$AtlLimits@I@ATL@@2IB DD 00H			; ATL::AtlLimits<unsigned int>::_Min
CONST	ENDS
;	COMDAT ?_Max@?$AtlLimits@H@ATL@@2HB
CONST	SEGMENT
?_Max@?$AtlLimits@H@ATL@@2HB DD 07fffffffH		; ATL::AtlLimits<int>::_Max
CONST	ENDS
;	COMDAT ?_Min@?$AtlLimits@H@ATL@@2HB
CONST	SEGMENT
?_Min@?$AtlLimits@H@ATL@@2HB DD 080000000H		; ATL::AtlLimits<int>::_Min
CONST	ENDS
;	COMDAT ?end@?$_Iosb@H@std@@2W4_Seekdir@12@B
CONST	SEGMENT
?end@?$_Iosb@H@std@@2W4_Seekdir@12@B DD 02H		; std::_Iosb<int>::end
CONST	ENDS
;	COMDAT ?cur@?$_Iosb@H@std@@2W4_Seekdir@12@B
CONST	SEGMENT
?cur@?$_Iosb@H@std@@2W4_Seekdir@12@B DD 01H		; std::_Iosb<int>::cur
CONST	ENDS
;	COMDAT ?beg@?$_Iosb@H@std@@2W4_Seekdir@12@B
CONST	SEGMENT
?beg@?$_Iosb@H@std@@2W4_Seekdir@12@B DD 00H		; std::_Iosb<int>::beg
CONST	ENDS
;	COMDAT ?binary@?$_Iosb@H@std@@2W4_Openmode@12@B
CONST	SEGMENT
?binary@?$_Iosb@H@std@@2W4_Openmode@12@B DD 020H	; std::_Iosb<int>::binary
CONST	ENDS
;	COMDAT ?_Noreplace@?$_Iosb@H@std@@2W4_Openmode@12@B
CONST	SEGMENT
?_Noreplace@?$_Iosb@H@std@@2W4_Openmode@12@B DD 080H	; std::_Iosb<int>::_Noreplace
CONST	ENDS
;	COMDAT ?_Nocreate@?$_Iosb@H@std@@2W4_Openmode@12@B
CONST	SEGMENT
?_Nocreate@?$_Iosb@H@std@@2W4_Openmode@12@B DD 040H	; std::_Iosb<int>::_Nocreate
CONST	ENDS
;	COMDAT ?trunc@?$_Iosb@H@std@@2W4_Openmode@12@B
CONST	SEGMENT
?trunc@?$_Iosb@H@std@@2W4_Openmode@12@B DD 010H		; std::_Iosb<int>::trunc
CONST	ENDS
;	COMDAT ?app@?$_Iosb@H@std@@2W4_Openmode@12@B
CONST	SEGMENT
?app@?$_Iosb@H@std@@2W4_Openmode@12@B DD 08H		; std::_Iosb<int>::app
CONST	ENDS
;	COMDAT ?ate@?$_Iosb@H@std@@2W4_Openmode@12@B
CONST	SEGMENT
?ate@?$_Iosb@H@std@@2W4_Openmode@12@B DD 04H		; std::_Iosb<int>::ate
CONST	ENDS
;	COMDAT ?out@?$_Iosb@H@std@@2W4_Openmode@12@B
CONST	SEGMENT
?out@?$_Iosb@H@std@@2W4_Openmode@12@B DD 02H		; std::_Iosb<int>::out
CONST	ENDS
;	COMDAT ?in@?$_Iosb@H@std@@2W4_Openmode@12@B
CONST	SEGMENT
?in@?$_Iosb@H@std@@2W4_Openmode@12@B DD 01H		; std::_Iosb<int>::in
CONST	ENDS
;	COMDAT ?_Hardfail@?$_Iosb@H@std@@2W4_Iostate@12@B
CONST	SEGMENT
?_Hardfail@?$_Iosb@H@std@@2W4_Iostate@12@B DD 010H	; std::_Iosb<int>::_Hardfail
CONST	ENDS
;	COMDAT ?badbit@?$_Iosb@H@std@@2W4_Iostate@12@B
CONST	SEGMENT
?badbit@?$_Iosb@H@std@@2W4_Iostate@12@B DD 04H		; std::_Iosb<int>::badbit
CONST	ENDS
;	COMDAT ?failbit@?$_Iosb@H@std@@2W4_Iostate@12@B
CONST	SEGMENT
?failbit@?$_Iosb@H@std@@2W4_Iostate@12@B DD 02H		; std::_Iosb<int>::failbit
CONST	ENDS
;	COMDAT ?eofbit@?$_Iosb@H@std@@2W4_Iostate@12@B
CONST	SEGMENT
?eofbit@?$_Iosb@H@std@@2W4_Iostate@12@B DD 01H		; std::_Iosb<int>::eofbit
CONST	ENDS
;	COMDAT ?goodbit@?$_Iosb@H@std@@2W4_Iostate@12@B
CONST	SEGMENT
?goodbit@?$_Iosb@H@std@@2W4_Iostate@12@B DD 00H		; std::_Iosb<int>::goodbit
CONST	ENDS
;	COMDAT ?floatfield@?$_Iosb@H@std@@2W4_Fmtflags@12@B
CONST	SEGMENT
?floatfield@?$_Iosb@H@std@@2W4_Fmtflags@12@B DD 03000H	; std::_Iosb<int>::floatfield
CONST	ENDS
;	COMDAT ?basefield@?$_Iosb@H@std@@2W4_Fmtflags@12@B
CONST	SEGMENT
?basefield@?$_Iosb@H@std@@2W4_Fmtflags@12@B DD 0e00H	; std::_Iosb<int>::basefield
CONST	ENDS
;	COMDAT ?adjustfield@?$_Iosb@H@std@@2W4_Fmtflags@12@B
CONST	SEGMENT
?adjustfield@?$_Iosb@H@std@@2W4_Fmtflags@12@B DD 01c0H	; std::_Iosb<int>::adjustfield
CONST	ENDS
;	COMDAT ?_Stdio@?$_Iosb@H@std@@2W4_Fmtflags@12@B
CONST	SEGMENT
?_Stdio@?$_Iosb@H@std@@2W4_Fmtflags@12@B DD 08000H	; std::_Iosb<int>::_Stdio
CONST	ENDS
;	COMDAT ?boolalpha@?$_Iosb@H@std@@2W4_Fmtflags@12@B
CONST	SEGMENT
?boolalpha@?$_Iosb@H@std@@2W4_Fmtflags@12@B DD 04000H	; std::_Iosb<int>::boolalpha
CONST	ENDS
;	COMDAT ?hexfloat@?$_Iosb@H@std@@2W4_Fmtflags@12@B
CONST	SEGMENT
?hexfloat@?$_Iosb@H@std@@2W4_Fmtflags@12@B DD 03000H	; std::_Iosb<int>::hexfloat
CONST	ENDS
;	COMDAT ?fixed@?$_Iosb@H@std@@2W4_Fmtflags@12@B
CONST	SEGMENT
?fixed@?$_Iosb@H@std@@2W4_Fmtflags@12@B DD 02000H	; std::_Iosb<int>::fixed
CONST	ENDS
;	COMDAT ?scientific@?$_Iosb@H@std@@2W4_Fmtflags@12@B
CONST	SEGMENT
?scientific@?$_Iosb@H@std@@2W4_Fmtflags@12@B DD 01000H	; std::_Iosb<int>::scientific
CONST	ENDS
;	COMDAT ?hex@?$_Iosb@H@std@@2W4_Fmtflags@12@B
CONST	SEGMENT
?hex@?$_Iosb@H@std@@2W4_Fmtflags@12@B DD 0800H		; std::_Iosb<int>::hex
CONST	ENDS
;	COMDAT ?oct@?$_Iosb@H@std@@2W4_Fmtflags@12@B
CONST	SEGMENT
?oct@?$_Iosb@H@std@@2W4_Fmtflags@12@B DD 0400H		; std::_Iosb<int>::oct
CONST	ENDS
;	COMDAT ?dec@?$_Iosb@H@std@@2W4_Fmtflags@12@B
CONST	SEGMENT
?dec@?$_Iosb@H@std@@2W4_Fmtflags@12@B DD 0200H		; std::_Iosb<int>::dec
CONST	ENDS
;	COMDAT ?internal@?$_Iosb@H@std@@2W4_Fmtflags@12@B
CONST	SEGMENT
?internal@?$_Iosb@H@std@@2W4_Fmtflags@12@B DD 0100H	; std::_Iosb<int>::internal
CONST	ENDS
;	COMDAT ?right@?$_Iosb@H@std@@2W4_Fmtflags@12@B
CONST	SEGMENT
?right@?$_Iosb@H@std@@2W4_Fmtflags@12@B DD 080H		; std::_Iosb<int>::right
CONST	ENDS
;	COMDAT ?left@?$_Iosb@H@std@@2W4_Fmtflags@12@B
CONST	SEGMENT
?left@?$_Iosb@H@std@@2W4_Fmtflags@12@B DD 040H		; std::_Iosb<int>::left
CONST	ENDS
;	COMDAT ?showpos@?$_Iosb@H@std@@2W4_Fmtflags@12@B
CONST	SEGMENT
?showpos@?$_Iosb@H@std@@2W4_Fmtflags@12@B DD 020H	; std::_Iosb<int>::showpos
CONST	ENDS
;	COMDAT ?showpoint@?$_Iosb@H@std@@2W4_Fmtflags@12@B
CONST	SEGMENT
?showpoint@?$_Iosb@H@std@@2W4_Fmtflags@12@B DD 010H	; std::_Iosb<int>::showpoint
CONST	ENDS
;	COMDAT ?showbase@?$_Iosb@H@std@@2W4_Fmtflags@12@B
CONST	SEGMENT
?showbase@?$_Iosb@H@std@@2W4_Fmtflags@12@B DD 08H	; std::_Iosb<int>::showbase
CONST	ENDS
;	COMDAT ?uppercase@?$_Iosb@H@std@@2W4_Fmtflags@12@B
CONST	SEGMENT
?uppercase@?$_Iosb@H@std@@2W4_Fmtflags@12@B DD 04H	; std::_Iosb<int>::uppercase
CONST	ENDS
;	COMDAT ?unitbuf@?$_Iosb@H@std@@2W4_Fmtflags@12@B
CONST	SEGMENT
?unitbuf@?$_Iosb@H@std@@2W4_Fmtflags@12@B DD 02H	; std::_Iosb<int>::unitbuf
CONST	ENDS
;	COMDAT ?skipws@?$_Iosb@H@std@@2W4_Fmtflags@12@B
CONST	SEGMENT
?skipws@?$_Iosb@H@std@@2W4_Fmtflags@12@B DD 01H		; std::_Iosb<int>::skipws
CONST	ENDS
;	COMDAT ?table_size@?$ctype@D@std@@2IB
CONST	SEGMENT
?table_size@?$ctype@D@std@@2IB DD 0100H			; std::ctype<char>::table_size
CONST	ENDS
;	COMDAT ?none@?$_Locbase@H@std@@2HB
CONST	SEGMENT
?none@?$_Locbase@H@std@@2HB DD 00H			; std::_Locbase<int>::none
CONST	ENDS
;	COMDAT ?all@?$_Locbase@H@std@@2HB
CONST	SEGMENT
?all@?$_Locbase@H@std@@2HB DD 03fH			; std::_Locbase<int>::all
CONST	ENDS
;	COMDAT ?messages@?$_Locbase@H@std@@2HB
CONST	SEGMENT
?messages@?$_Locbase@H@std@@2HB DD 020H			; std::_Locbase<int>::messages
CONST	ENDS
;	COMDAT ?time@?$_Locbase@H@std@@2HB
CONST	SEGMENT
?time@?$_Locbase@H@std@@2HB DD 010H			; std::_Locbase<int>::time
CONST	ENDS
;	COMDAT ?numeric@?$_Locbase@H@std@@2HB
CONST	SEGMENT
?numeric@?$_Locbase@H@std@@2HB DD 08H			; std::_Locbase<int>::numeric
CONST	ENDS
;	COMDAT ?monetary@?$_Locbase@H@std@@2HB
CONST	SEGMENT
?monetary@?$_Locbase@H@std@@2HB DD 04H			; std::_Locbase<int>::monetary
CONST	ENDS
;	COMDAT ?ctype@?$_Locbase@H@std@@2HB
CONST	SEGMENT
?ctype@?$_Locbase@H@std@@2HB DD 02H			; std::_Locbase<int>::ctype
CONST	ENDS
;	COMDAT ?collate@?$_Locbase@H@std@@2HB
CONST	SEGMENT
?collate@?$_Locbase@H@std@@2HB DD 01H			; std::_Locbase<int>::collate
CONST	ENDS
;	COMDAT ?value@?$integral_constant@_N$00@tr1@std@@2_NB
CONST	SEGMENT
?value@?$integral_constant@_N$00@tr1@std@@2_NB DB 01H	; std::tr1::integral_constant<bool,1>::value
CONST	ENDS
;	COMDAT ?value@?$integral_constant@_N$0A@@tr1@std@@2_NB
CONST	SEGMENT
?value@?$integral_constant@_N$0A@@tr1@std@@2_NB DB 00H	; std::tr1::integral_constant<bool,0>::value
CONST	ENDS
;	COMDAT ?_Value@?$_Is_swap_move@U_Swap_move_tag@std@@@std@@2_NB
CONST	SEGMENT
?_Value@?$_Is_swap_move@U_Swap_move_tag@std@@@std@@2_NB DB 01H ; std::_Is_swap_move<std::_Swap_move_tag>::_Value
CONST	ENDS
_DATA	SEGMENT
__bad_alloc_Message DD FLAT:??_C@_0P@GHFPNOJB@bad?5allocation?$AA@
_DATA	ENDS
;	COMDAT ??_C@_0P@GHFPNOJB@bad?5allocation?$AA@
CONST	SEGMENT
??_C@_0P@GHFPNOJB@bad?5allocation?$AA@ DB 'bad allocation', 00H ; `string'
CONST	ENDS
PUBLIC	_RtlSecureZeroMemory
; Function compile flags: /Ogtpy
; File c:\program files\microsoft sdks\windows\v7.1\include\winnt.h
;	COMDAT _RtlSecureZeroMemory
_TEXT	SEGMENT
_ptr$ = 8						; size = 4
_cnt$ = 12						; size = 4
_RtlSecureZeroMemory PROC				; COMDAT

; 13070:     volatile char *vptr = (volatile char *)ptr;
; 13071: 
; 13072: #if defined(_M_AMD64)
; 13073: 
; 13074:         __stosb((PBYTE )((DWORD64)vptr), 0, cnt);
; 13075: 
; 13076: #else
; 13077: 
; 13078:     while (cnt) {

  00000	8b 54 24 08	 mov	 edx, DWORD PTR _cnt$[esp-4]
  00004	8b 44 24 04	 mov	 eax, DWORD PTR _ptr$[esp-4]
  00008	8b c8		 mov	 ecx, eax
  0000a	85 d2		 test	 edx, edx
  0000c	74 0b		 je	 SHORT $LN1@RtlSecureZ
  0000e	8b ff		 npad	 2
$LL2@RtlSecureZ:

; 13079:         *vptr = 0;

  00010	c6 01 00	 mov	 BYTE PTR [ecx], 0

; 13080:         vptr++;

  00013	41		 inc	 ecx

; 13081:         cnt--;

  00014	83 ea 01	 sub	 edx, 1
  00017	75 f7		 jne	 SHORT $LL2@RtlSecureZ
$LN1@RtlSecureZ:

; 13082:     }
; 13083: 
; 13084: #endif
; 13085: 
; 13086:     return ptr;
; 13087: }

  00019	c3		 ret	 0
_RtlSecureZeroMemory ENDP
_TEXT	ENDS
PUBLIC	??_7bad_alloc@std@@6B@				; std::bad_alloc::`vftable'
PUBLIC	??0bad_alloc@std@@QAE@PBD@Z			; std::bad_alloc::bad_alloc
PUBLIC	??_R4bad_alloc@std@@6B@				; std::bad_alloc::`RTTI Complete Object Locator'
PUBLIC	??_R0?AVbad_alloc@std@@@8			; std::bad_alloc `RTTI Type Descriptor'
PUBLIC	??_R3bad_alloc@std@@8				; std::bad_alloc::`RTTI Class Hierarchy Descriptor'
PUBLIC	??_R2bad_alloc@std@@8				; std::bad_alloc::`RTTI Base Class Array'
PUBLIC	??_R1A@?0A@EA@bad_alloc@std@@8			; std::bad_alloc::`RTTI Base Class Descriptor at (0,-1,0,64)'
PUBLIC	??_R1A@?0A@EA@exception@std@@8			; std::exception::`RTTI Base Class Descriptor at (0,-1,0,64)'
PUBLIC	??_R0?AVexception@std@@@8			; std::exception `RTTI Type Descriptor'
PUBLIC	??_R3exception@std@@8				; std::exception::`RTTI Class Hierarchy Descriptor'
PUBLIC	??_R2exception@std@@8				; std::exception::`RTTI Base Class Array'
EXTRN	??0exception@std@@QAE@ABQBD@Z:PROC		; std::exception::exception
EXTRN	??_7type_info@@6B@:QWORD			; type_info::`vftable'
EXTRN	??_Ebad_alloc@std@@UAEPAXI@Z:PROC		; std::bad_alloc::`vector deleting destructor'
EXTRN	?what@exception@std@@UBEPBDXZ:PROC		; std::exception::what
;	COMDAT ??_R2exception@std@@8
; File c:\program files (x86)\microsoft visual studio 9.0\vc\include\exception
rdata$r	SEGMENT
??_R2exception@std@@8 DD FLAT:??_R1A@?0A@EA@exception@std@@8 ; std::exception::`RTTI Base Class Array'
rdata$r	ENDS
;	COMDAT ??_R3exception@std@@8
rdata$r	SEGMENT
??_R3exception@std@@8 DD 00H				; std::exception::`RTTI Class Hierarchy Descriptor'
	DD	00H
	DD	01H
	DD	FLAT:??_R2exception@std@@8
rdata$r	ENDS
;	COMDAT ??_R0?AVexception@std@@@8
_DATA	SEGMENT
??_R0?AVexception@std@@@8 DD FLAT:??_7type_info@@6B@	; std::exception `RTTI Type Descriptor'
	DD	00H
	DB	'.?AVexception@std@@', 00H
_DATA	ENDS
;	COMDAT ??_R1A@?0A@EA@exception@std@@8
rdata$r	SEGMENT
??_R1A@?0A@EA@exception@std@@8 DD FLAT:??_R0?AVexception@std@@@8 ; std::exception::`RTTI Base Class Descriptor at (0,-1,0,64)'
	DD	00H
	DD	00H
	DD	0ffffffffH
	DD	00H
	DD	040H
	DD	FLAT:??_R3exception@std@@8
rdata$r	ENDS
;	COMDAT ??_R1A@?0A@EA@bad_alloc@std@@8
rdata$r	SEGMENT
??_R1A@?0A@EA@bad_alloc@std@@8 DD FLAT:??_R0?AVbad_alloc@std@@@8 ; std::bad_alloc::`RTTI Base Class Descriptor at (0,-1,0,64)'
	DD	01H
	DD	00H
	DD	0ffffffffH
	DD	00H
	DD	040H
	DD	FLAT:??_R3bad_alloc@std@@8
rdata$r	ENDS
;	COMDAT ??_R2bad_alloc@std@@8
rdata$r	SEGMENT
??_R2bad_alloc@std@@8 DD FLAT:??_R1A@?0A@EA@bad_alloc@std@@8 ; std::bad_alloc::`RTTI Base Class Array'
	DD	FLAT:??_R1A@?0A@EA@exception@std@@8
rdata$r	ENDS
;	COMDAT ??_R3bad_alloc@std@@8
rdata$r	SEGMENT
??_R3bad_alloc@std@@8 DD 00H				; std::bad_alloc::`RTTI Class Hierarchy Descriptor'
	DD	00H
	DD	02H
	DD	FLAT:??_R2bad_alloc@std@@8
rdata$r	ENDS
;	COMDAT ??_R0?AVbad_alloc@std@@@8
_DATA	SEGMENT
??_R0?AVbad_alloc@std@@@8 DD FLAT:??_7type_info@@6B@	; std::bad_alloc `RTTI Type Descriptor'
	DD	00H
	DB	'.?AVbad_alloc@std@@', 00H
_DATA	ENDS
;	COMDAT ??_R4bad_alloc@std@@6B@
rdata$r	SEGMENT
??_R4bad_alloc@std@@6B@ DD 00H				; std::bad_alloc::`RTTI Complete Object Locator'
	DD	00H
	DD	00H
	DD	FLAT:??_R0?AVbad_alloc@std@@@8
	DD	FLAT:??_R3bad_alloc@std@@8
rdata$r	ENDS
;	COMDAT ??_7bad_alloc@std@@6B@
CONST	SEGMENT
??_7bad_alloc@std@@6B@ DD FLAT:??_R4bad_alloc@std@@6B@	; std::bad_alloc::`vftable'
	DD	FLAT:??_Ebad_alloc@std@@UAEPAXI@Z
	DD	FLAT:?what@exception@std@@UBEPBDXZ
; Function compile flags: /Ogtpy
CONST	ENDS
;	COMDAT ??0bad_alloc@std@@QAE@PBD@Z
_TEXT	SEGMENT
__Message$ = 8						; size = 4
??0bad_alloc@std@@QAE@PBD@Z PROC			; std::bad_alloc::bad_alloc, COMDAT
; _this$ = ecx

; 371  : 		{	// construct from message string

  00000	56		 push	 esi
  00001	8d 44 24 08	 lea	 eax, DWORD PTR __Message$[esp]
  00005	50		 push	 eax
  00006	8b f1		 mov	 esi, ecx
  00008	e8 00 00 00 00	 call	 ??0exception@std@@QAE@ABQBD@Z ; std::exception::exception
  0000d	c7 06 00 00 00
	00		 mov	 DWORD PTR [esi], OFFSET ??_7bad_alloc@std@@6B@

; 372  : 		}

  00013	8b c6		 mov	 eax, esi
  00015	5e		 pop	 esi
  00016	c2 04 00	 ret	 4
??0bad_alloc@std@@QAE@PBD@Z ENDP			; std::bad_alloc::bad_alloc
_TEXT	ENDS
PUBLIC	??0bad_alloc@std@@QAE@XZ			; std::bad_alloc::bad_alloc
EXTRN	??0exception@std@@QAE@ABQBDH@Z:PROC		; std::exception::exception
; Function compile flags: /Ogtpy
;	COMDAT ??0bad_alloc@std@@QAE@XZ
_TEXT	SEGMENT
??0bad_alloc@std@@QAE@XZ PROC				; std::bad_alloc::bad_alloc, COMDAT
; _this$ = ecx

; 376  : 		{	// construct from message string with no memory allocation

  00000	56		 push	 esi
  00001	6a 01		 push	 1
  00003	68 00 00 00 00	 push	 OFFSET __bad_alloc_Message
  00008	8b f1		 mov	 esi, ecx
  0000a	e8 00 00 00 00	 call	 ??0exception@std@@QAE@ABQBDH@Z ; std::exception::exception
  0000f	c7 06 00 00 00
	00		 mov	 DWORD PTR [esi], OFFSET ??_7bad_alloc@std@@6B@

; 377  : 		}

  00015	8b c6		 mov	 eax, esi
  00017	5e		 pop	 esi
  00018	c3		 ret	 0
??0bad_alloc@std@@QAE@XZ ENDP				; std::bad_alloc::bad_alloc
_TEXT	ENDS
PUBLIC	??1bad_alloc@std@@UAE@XZ			; std::bad_alloc::~bad_alloc
EXTRN	??1exception@std@@UAE@XZ:PROC			; std::exception::~exception
; Function compile flags: /Ogtpy
;	COMDAT ??1bad_alloc@std@@UAE@XZ
_TEXT	SEGMENT
??1bad_alloc@std@@UAE@XZ PROC				; std::bad_alloc::~bad_alloc, COMDAT
; _this$ = ecx

; 380  : 		{	// destroy the object

  00000	c7 01 00 00 00
	00		 mov	 DWORD PTR [ecx], OFFSET ??_7bad_alloc@std@@6B@

; 381  : 		}

  00006	e9 00 00 00 00	 jmp	 ??1exception@std@@UAE@XZ ; std::exception::~exception
??1bad_alloc@std@@UAE@XZ ENDP				; std::bad_alloc::~bad_alloc
_TEXT	ENDS
EXTRN	??3@YAXPAX@Z:PROC				; operator delete
; Function compile flags: /Ogtpy
;	COMDAT ??_Gbad_alloc@std@@UAEPAXI@Z
_TEXT	SEGMENT
___flags$ = 8						; size = 4
??_Gbad_alloc@std@@UAEPAXI@Z PROC			; std::bad_alloc::`scalar deleting destructor', COMDAT
; _this$ = ecx
  00000	56		 push	 esi
  00001	8b f1		 mov	 esi, ecx
  00003	c7 06 00 00 00
	00		 mov	 DWORD PTR [esi], OFFSET ??_7bad_alloc@std@@6B@
  00009	e8 00 00 00 00	 call	 ??1exception@std@@UAE@XZ ; std::exception::~exception
  0000e	f6 44 24 08 01	 test	 BYTE PTR ___flags$[esp], 1
  00013	74 09		 je	 SHORT $LN6@scalar
  00015	56		 push	 esi
  00016	e8 00 00 00 00	 call	 ??3@YAXPAX@Z		; operator delete
  0001b	83 c4 04	 add	 esp, 4
$LN6@scalar:
  0001e	8b c6		 mov	 eax, esi
  00020	5e		 pop	 esi
  00021	c2 04 00	 ret	 4
??_Gbad_alloc@std@@UAEPAXI@Z ENDP			; std::bad_alloc::`scalar deleting destructor'
_TEXT	ENDS
PUBLIC	??2@YAPAXIPAX@Z					; operator new
; Function compile flags: /Ogtpy
; File c:\program files (x86)\microsoft visual studio 9.0\vc\include\new
;	COMDAT ??2@YAPAXIPAX@Z
_TEXT	SEGMENT
___formal$ = 8						; size = 4
__Where$ = 12						; size = 4
??2@YAPAXIPAX@Z PROC					; operator new, COMDAT

; 59   : 	return (_Where);

  00000	8b 44 24 08	 mov	 eax, DWORD PTR __Where$[esp-4]

; 60   : 	}

  00004	c3		 ret	 0
??2@YAPAXIPAX@Z ENDP					; operator new
_TEXT	ENDS
PUBLIC	??3@YAXPAX0@Z					; operator delete
; Function compile flags: /Ogtpy
;	COMDAT ??3@YAXPAX0@Z
_TEXT	SEGMENT
___formal$ = 8						; size = 4
___formal$ = 12						; size = 4
??3@YAXPAX0@Z PROC					; operator delete, COMDAT

; 64   : 	}

  00000	c3		 ret	 0
??3@YAXPAX0@Z ENDP					; operator delete
_TEXT	ENDS
PUBLIC	_wmemcpy_s
EXTRN	_memcpy_s:PROC
; Function compile flags: /Ogtpy
; File c:\program files (x86)\microsoft visual studio 9.0\vc\include\wchar.h
;	COMDAT _wmemcpy_s
_TEXT	SEGMENT
__S1$ = 8						; size = 4
__N1$ = 12						; size = 4
__S2$ = 16						; size = 4
__N$ = 20						; size = 4
_wmemcpy_s PROC						; COMDAT

; 1232 : #pragma warning( push )
; 1233 : #pragma warning( disable : 6386 )
; 1234 :             return memcpy_s(_S1, _N1*sizeof(wchar_t), _S2, _N*sizeof(wchar_t));

  00000	8b 44 24 10	 mov	 eax, DWORD PTR __N$[esp-4]
  00004	8d 0c 00	 lea	 ecx, DWORD PTR [eax+eax]
  00007	89 4c 24 10	 mov	 DWORD PTR __N$[esp-4], ecx
  0000b	8b 44 24 08	 mov	 eax, DWORD PTR __N1$[esp-4]
  0000f	8d 0c 00	 lea	 ecx, DWORD PTR [eax+eax]
  00012	89 4c 24 08	 mov	 DWORD PTR __N1$[esp-4], ecx
  00016	e9 00 00 00 00	 jmp	 _memcpy_s
_wmemcpy_s ENDP
_TEXT	ENDS
PUBLIC	_wmemmove_s
EXTRN	_memmove_s:PROC
; Function compile flags: /Ogtpy
;	COMDAT _wmemmove_s
_TEXT	SEGMENT
__S1$ = 8						; size = 4
__N1$ = 12						; size = 4
__S2$ = 16						; size = 4
__N$ = 20						; size = 4
_wmemmove_s PROC					; COMDAT

; 1252 : #pragma warning( push )
; 1253 : #pragma warning( disable : 6386 )
; 1254 :             return memmove_s(_S1, _N1*sizeof(wchar_t), _S2, _N*sizeof(wchar_t));

  00000	8b 44 24 10	 mov	 eax, DWORD PTR __N$[esp-4]
  00004	8d 0c 00	 lea	 ecx, DWORD PTR [eax+eax]
  00007	89 4c 24 10	 mov	 DWORD PTR __N$[esp-4], ecx
  0000b	8b 44 24 08	 mov	 eax, DWORD PTR __N1$[esp-4]
  0000f	8d 0c 00	 lea	 ecx, DWORD PTR [eax+eax]
  00012	89 4c 24 08	 mov	 DWORD PTR __N1$[esp-4], ecx
  00016	e9 00 00 00 00	 jmp	 _memmove_s
_wmemmove_s ENDP
_TEXT	ENDS
PUBLIC	?assign@?$char_traits@_W@std@@SAXAA_WAB_W@Z	; std::char_traits<wchar_t>::assign
; Function compile flags: /Ogtpy
; File c:\program files (x86)\microsoft visual studio 9.0\vc\include\iosfwd
;	COMDAT ?assign@?$char_traits@_W@std@@SAXAA_WAB_W@Z
_TEXT	SEGMENT
__Left$ = 8						; size = 4
__Right$ = 12						; size = 4
?assign@?$char_traits@_W@std@@SAXAA_WAB_W@Z PROC	; std::char_traits<wchar_t>::assign, COMDAT

; 310  : 		_Left = _Right;

  00000	8b 44 24 08	 mov	 eax, DWORD PTR __Right$[esp-4]
  00004	66 8b 08	 mov	 cx, WORD PTR [eax]
  00007	8b 54 24 04	 mov	 edx, DWORD PTR __Left$[esp-4]
  0000b	66 89 0a	 mov	 WORD PTR [edx], cx

; 311  : 		}

  0000e	c3		 ret	 0
?assign@?$char_traits@_W@std@@SAXAA_WAB_W@Z ENDP	; std::char_traits<wchar_t>::assign
_TEXT	ENDS
PUBLIC	?length@?$char_traits@_W@std@@SAIPB_W@Z		; std::char_traits<wchar_t>::length
; Function compile flags: /Ogtpy
;	COMDAT ?length@?$char_traits@_W@std@@SAIPB_W@Z
_TEXT	SEGMENT
__First$ = 8						; size = 4
?length@?$char_traits@_W@std@@SAIPB_W@Z PROC		; std::char_traits<wchar_t>::length, COMDAT

; 333  : //		_DEBUG_POINTER(_First);
; 334  : 		return (::wcslen(_First));

  00000	8b 44 24 04	 mov	 eax, DWORD PTR __First$[esp-4]
  00004	8d 50 02	 lea	 edx, DWORD PTR [eax+2]
$LL3@length:
  00007	66 8b 08	 mov	 cx, WORD PTR [eax]
  0000a	83 c0 02	 add	 eax, 2
  0000d	66 85 c9	 test	 cx, cx
  00010	75 f5		 jne	 SHORT $LL3@length
  00012	2b c2		 sub	 eax, edx
  00014	d1 f8		 sar	 eax, 1

; 335  : 		}

  00016	c3		 ret	 0
?length@?$char_traits@_W@std@@SAIPB_W@Z ENDP		; std::char_traits<wchar_t>::length
_TEXT	ENDS
PUBLIC	?_Copy_s@?$char_traits@_W@std@@SAPA_WPA_WIPB_WI@Z ; std::char_traits<wchar_t>::_Copy_s
; Function compile flags: /Ogtpy
;	COMDAT ?_Copy_s@?$char_traits@_W@std@@SAPA_WPA_WIPB_WI@Z
_TEXT	SEGMENT
__First1$ = 8						; size = 4
__Size_in_words$ = 12					; size = 4
__First2$ = 16						; size = 4
__Count$ = 20						; size = 4
?_Copy_s@?$char_traits@_W@std@@SAPA_WPA_WIPB_WI@Z PROC	; std::char_traits<wchar_t>::_Copy_s, COMDAT

; 348  : //		_DEBUG_POINTER(_First1);
; 349  : //		_DEBUG_POINTER(_First2);
; 350  : 		_CRT_SECURE_WMEMCPY(_First1, _Size_in_words, _First2, _Count);

  00000	8b 44 24 10	 mov	 eax, DWORD PTR __Count$[esp-4]
  00004	8b 54 24 0c	 mov	 edx, DWORD PTR __First2$[esp-4]
  00008	56		 push	 esi
  00009	8b 74 24 08	 mov	 esi, DWORD PTR __First1$[esp]
  0000d	8d 0c 00	 lea	 ecx, DWORD PTR [eax+eax]
  00010	8b 44 24 0c	 mov	 eax, DWORD PTR __Size_in_words$[esp]
  00014	51		 push	 ecx
  00015	52		 push	 edx
  00016	8d 0c 00	 lea	 ecx, DWORD PTR [eax+eax]
  00019	51		 push	 ecx
  0001a	56		 push	 esi
  0001b	e8 00 00 00 00	 call	 _memcpy_s
  00020	83 c4 10	 add	 esp, 16			; 00000010H

; 351  : 		return _First1;

  00023	8b c6		 mov	 eax, esi
  00025	5e		 pop	 esi

; 352  : 		}

  00026	c3		 ret	 0
?_Copy_s@?$char_traits@_W@std@@SAPA_WPA_WIPB_WI@Z ENDP	; std::char_traits<wchar_t>::_Copy_s
_TEXT	ENDS
PUBLIC	?_Move_s@?$char_traits@_W@std@@SAPA_WPA_WIPB_WI@Z ; std::char_traits<wchar_t>::_Move_s
; Function compile flags: /Ogtpy
;	COMDAT ?_Move_s@?$char_traits@_W@std@@SAPA_WPA_WIPB_WI@Z
_TEXT	SEGMENT
__First1$ = 8						; size = 4
__Size_in_words$ = 12					; size = 4
__First2$ = 16						; size = 4
__Count$ = 20						; size = 4
?_Move_s@?$char_traits@_W@std@@SAPA_WPA_WIPB_WI@Z PROC	; std::char_traits<wchar_t>::_Move_s, COMDAT

; 372  : //		_DEBUG_POINTER(_First1);
; 373  : //		_DEBUG_POINTER(_First2);
; 374  : 		_CRT_SECURE_WMEMMOVE(_First1, _Size_in_words, _First2, _Count);

  00000	8b 44 24 10	 mov	 eax, DWORD PTR __Count$[esp-4]
  00004	8b 54 24 0c	 mov	 edx, DWORD PTR __First2$[esp-4]
  00008	56		 push	 esi
  00009	8b 74 24 08	 mov	 esi, DWORD PTR __First1$[esp]
  0000d	8d 0c 00	 lea	 ecx, DWORD PTR [eax+eax]
  00010	8b 44 24 0c	 mov	 eax, DWORD PTR __Size_in_words$[esp]
  00014	51		 push	 ecx
  00015	52		 push	 edx
  00016	8d 0c 00	 lea	 ecx, DWORD PTR [eax+eax]
  00019	51		 push	 ecx
  0001a	56		 push	 esi
  0001b	e8 00 00 00 00	 call	 _memmove_s
  00020	83 c4 10	 add	 esp, 16			; 00000010H

; 375  : 		return (_Elem *)_First1;

  00023	8b c6		 mov	 eax, esi
  00025	5e		 pop	 esi

; 376  : 		}

  00026	c3		 ret	 0
?_Move_s@?$char_traits@_W@std@@SAPA_WPA_WIPB_WI@Z ENDP	; std::char_traits<wchar_t>::_Move_s
_TEXT	ENDS
PUBLIC	?to_int_type@?$char_traits@_W@std@@SAGAB_W@Z	; std::char_traits<wchar_t>::to_int_type
; Function compile flags: /Ogtpy
;	COMDAT ?to_int_type@?$char_traits@_W@std@@SAGAB_W@Z
_TEXT	SEGMENT
__Ch$ = 8						; size = 4
?to_int_type@?$char_traits@_W@std@@SAGAB_W@Z PROC	; std::char_traits<wchar_t>::to_int_type, COMDAT

; 391  : 		return (_Ch);

  00000	8b 44 24 04	 mov	 eax, DWORD PTR __Ch$[esp-4]
  00004	66 8b 00	 mov	 ax, WORD PTR [eax]

; 392  : 		}

  00007	c3		 ret	 0
?to_int_type@?$char_traits@_W@std@@SAGAB_W@Z ENDP	; std::char_traits<wchar_t>::to_int_type
_TEXT	ENDS
PUBLIC	?eq_int_type@?$char_traits@_W@std@@SA_NABG0@Z	; std::char_traits<wchar_t>::eq_int_type
; Function compile flags: /Ogtpy
;	COMDAT ?eq_int_type@?$char_traits@_W@std@@SA_NABG0@Z
_TEXT	SEGMENT
__Left$ = 8						; size = 4
__Right$ = 12						; size = 4
?eq_int_type@?$char_traits@_W@std@@SA_NABG0@Z PROC	; std::char_traits<wchar_t>::eq_int_type, COMDAT

; 397  : 		return (_Left == _Right);

  00000	8b 44 24 04	 mov	 eax, DWORD PTR __Left$[esp-4]
  00004	66 8b 08	 mov	 cx, WORD PTR [eax]
  00007	8b 54 24 08	 mov	 edx, DWORD PTR __Right$[esp-4]
  0000b	33 c0		 xor	 eax, eax
  0000d	66 3b 0a	 cmp	 cx, WORD PTR [edx]
  00010	0f 94 c0	 sete	 al

; 398  : 		}

  00013	c3		 ret	 0
?eq_int_type@?$char_traits@_W@std@@SA_NABG0@Z ENDP	; std::char_traits<wchar_t>::eq_int_type
_TEXT	ENDS
PUBLIC	?eof@?$char_traits@_W@std@@SAGXZ		; std::char_traits<wchar_t>::eof
; Function compile flags: /Ogtpy
;	COMDAT ?eof@?$char_traits@_W@std@@SAGXZ
_TEXT	SEGMENT
?eof@?$char_traits@_W@std@@SAGXZ PROC			; std::char_traits<wchar_t>::eof, COMDAT

; 402  : 		return (WEOF);

  00000	b8 ff ff 00 00	 mov	 eax, 65535		; 0000ffffH

; 403  : 		}

  00005	c3		 ret	 0
?eof@?$char_traits@_W@std@@SAGXZ ENDP			; std::char_traits<wchar_t>::eof
_TEXT	ENDS
PUBLIC	?assign@?$char_traits@D@std@@SAXAADABD@Z	; std::char_traits<char>::assign
; Function compile flags: /Ogtpy
;	COMDAT ?assign@?$char_traits@D@std@@SAXAADABD@Z
_TEXT	SEGMENT
__Left$ = 8						; size = 4
__Right$ = 12						; size = 4
?assign@?$char_traits@D@std@@SAXAADABD@Z PROC		; std::char_traits<char>::assign, COMDAT

; 425  : 		_Left = _Right;

  00000	8b 44 24 08	 mov	 eax, DWORD PTR __Right$[esp-4]
  00004	8a 08		 mov	 cl, BYTE PTR [eax]
  00006	8b 54 24 04	 mov	 edx, DWORD PTR __Left$[esp-4]
  0000a	88 0a		 mov	 BYTE PTR [edx], cl

; 426  : 		}

  0000c	c3		 ret	 0
?assign@?$char_traits@D@std@@SAXAADABD@Z ENDP		; std::char_traits<char>::assign
_TEXT	ENDS
PUBLIC	?eq@?$char_traits@D@std@@SA_NABD0@Z		; std::char_traits<char>::eq
; Function compile flags: /Ogtpy
;	COMDAT ?eq@?$char_traits@D@std@@SA_NABD0@Z
_TEXT	SEGMENT
__Left$ = 8						; size = 4
__Right$ = 12						; size = 4
?eq@?$char_traits@D@std@@SA_NABD0@Z PROC		; std::char_traits<char>::eq, COMDAT

; 430  : 		return (_Left == _Right);

  00000	8b 44 24 04	 mov	 eax, DWORD PTR __Left$[esp-4]
  00004	8a 08		 mov	 cl, BYTE PTR [eax]
  00006	8b 54 24 08	 mov	 edx, DWORD PTR __Right$[esp-4]
  0000a	33 c0		 xor	 eax, eax
  0000c	3a 0a		 cmp	 cl, BYTE PTR [edx]
  0000e	0f 94 c0	 sete	 al

; 431  : 		}

  00011	c3		 ret	 0
?eq@?$char_traits@D@std@@SA_NABD0@Z ENDP		; std::char_traits<char>::eq
_TEXT	ENDS
PUBLIC	?compare@?$char_traits@D@std@@SAHPBD0I@Z	; std::char_traits<char>::compare
; Function compile flags: /Ogtpy
;	COMDAT ?compare@?$char_traits@D@std@@SAHPBD0I@Z
_TEXT	SEGMENT
__First1$ = 8						; size = 4
__First2$ = 12						; size = 4
__Count$ = 16						; size = 4
?compare@?$char_traits@D@std@@SAHPBD0I@Z PROC		; std::char_traits<char>::compare, COMDAT

; 441  : //		_DEBUG_POINTER(_First1);
; 442  : //		_DEBUG_POINTER(_First2);
; 443  : 		return (::memcmp(_First1, _First2, _Count));

  00000	8b 4c 24 08	 mov	 ecx, DWORD PTR __First2$[esp-4]
  00004	8b 54 24 04	 mov	 edx, DWORD PTR __First1$[esp-4]
  00008	56		 push	 esi
  00009	8b 74 24 10	 mov	 esi, DWORD PTR __Count$[esp]
  0000d	57		 push	 edi
  0000e	83 fe 04	 cmp	 esi, 4
  00011	72 14		 jb	 SHORT $LN11@compare
$LL4@compare:
  00013	8b 02		 mov	 eax, DWORD PTR [edx]
  00015	3b 01		 cmp	 eax, DWORD PTR [ecx]
  00017	75 12		 jne	 SHORT $LN5@compare
  00019	83 ee 04	 sub	 esi, 4
  0001c	83 c1 04	 add	 ecx, 4
  0001f	83 c2 04	 add	 edx, 4
  00022	83 fe 04	 cmp	 esi, 4
  00025	73 ec		 jae	 SHORT $LL4@compare
$LN11@compare:
  00027	85 f6		 test	 esi, esi
  00029	74 44		 je	 SHORT $LN6@compare
$LN5@compare:
  0002b	0f b6 02	 movzx	 eax, BYTE PTR [edx]
  0002e	0f b6 39	 movzx	 edi, BYTE PTR [ecx]
  00031	2b c7		 sub	 eax, edi
  00033	75 31		 jne	 SHORT $LN7@compare
  00035	83 fe 01	 cmp	 esi, 1
  00038	76 35		 jbe	 SHORT $LN6@compare
  0003a	0f b6 42 01	 movzx	 eax, BYTE PTR [edx+1]
  0003e	0f b6 79 01	 movzx	 edi, BYTE PTR [ecx+1]
  00042	2b c7		 sub	 eax, edi
  00044	75 20		 jne	 SHORT $LN7@compare
  00046	83 fe 02	 cmp	 esi, 2
  00049	76 24		 jbe	 SHORT $LN6@compare
  0004b	0f b6 42 02	 movzx	 eax, BYTE PTR [edx+2]
  0004f	0f b6 79 02	 movzx	 edi, BYTE PTR [ecx+2]
  00053	2b c7		 sub	 eax, edi
  00055	75 0f		 jne	 SHORT $LN7@compare
  00057	83 fe 03	 cmp	 esi, 3
  0005a	76 13		 jbe	 SHORT $LN6@compare
  0005c	0f b6 42 03	 movzx	 eax, BYTE PTR [edx+3]
  00060	0f b6 49 03	 movzx	 ecx, BYTE PTR [ecx+3]
  00064	2b c1		 sub	 eax, ecx
$LN7@compare:
  00066	c1 f8 1f	 sar	 eax, 31			; 0000001fH
  00069	5f		 pop	 edi
  0006a	83 c8 01	 or	 eax, 1
  0006d	5e		 pop	 esi

; 444  : 		}

  0006e	c3		 ret	 0
$LN6@compare:
  0006f	5f		 pop	 edi

; 441  : //		_DEBUG_POINTER(_First1);
; 442  : //		_DEBUG_POINTER(_First2);
; 443  : 		return (::memcmp(_First1, _First2, _Count));

  00070	33 c0		 xor	 eax, eax
  00072	5e		 pop	 esi

; 444  : 		}

  00073	c3		 ret	 0
?compare@?$char_traits@D@std@@SAHPBD0I@Z ENDP		; std::char_traits<char>::compare
_TEXT	ENDS
PUBLIC	?length@?$char_traits@D@std@@SAIPBD@Z		; std::char_traits<char>::length
; Function compile flags: /Ogtpy
;	COMDAT ?length@?$char_traits@D@std@@SAIPBD@Z
_TEXT	SEGMENT
__First$ = 8						; size = 4
?length@?$char_traits@D@std@@SAIPBD@Z PROC		; std::char_traits<char>::length, COMDAT

; 448  : //		_DEBUG_POINTER(_First);
; 449  : 		return (::strlen(_First));

  00000	8b 44 24 04	 mov	 eax, DWORD PTR __First$[esp-4]
  00004	8d 50 01	 lea	 edx, DWORD PTR [eax+1]
$LL3@length@2:
  00007	8a 08		 mov	 cl, BYTE PTR [eax]
  00009	40		 inc	 eax
  0000a	84 c9		 test	 cl, cl
  0000c	75 f9		 jne	 SHORT $LL3@length@2
  0000e	2b c2		 sub	 eax, edx

; 450  : 		}

  00010	c3		 ret	 0
?length@?$char_traits@D@std@@SAIPBD@Z ENDP		; std::char_traits<char>::length
_TEXT	ENDS
PUBLIC	?_Copy_s@?$char_traits@D@std@@SAPADPADIPBDI@Z	; std::char_traits<char>::_Copy_s
; Function compile flags: /Ogtpy
;	COMDAT ?_Copy_s@?$char_traits@D@std@@SAPADPADIPBDI@Z
_TEXT	SEGMENT
__First1$ = 8						; size = 4
__Size_in_bytes$ = 12					; size = 4
__First2$ = 16						; size = 4
__Count$ = 20						; size = 4
?_Copy_s@?$char_traits@D@std@@SAPADPADIPBDI@Z PROC	; std::char_traits<char>::_Copy_s, COMDAT

; 463  : //		_DEBUG_POINTER(_First1);
; 464  : //		_DEBUG_POINTER(_First2);
; 465  : 		_CRT_SECURE_MEMCPY(_First1, _Size_in_bytes, _First2, _Count);

  00000	8b 44 24 10	 mov	 eax, DWORD PTR __Count$[esp-4]
  00004	8b 4c 24 0c	 mov	 ecx, DWORD PTR __First2$[esp-4]
  00008	8b 54 24 08	 mov	 edx, DWORD PTR __Size_in_bytes$[esp-4]
  0000c	56		 push	 esi
  0000d	8b 74 24 08	 mov	 esi, DWORD PTR __First1$[esp]
  00011	50		 push	 eax
  00012	51		 push	 ecx
  00013	52		 push	 edx
  00014	56		 push	 esi
  00015	e8 00 00 00 00	 call	 _memcpy_s
  0001a	83 c4 10	 add	 esp, 16			; 00000010H

; 466  : 		return _First1;

  0001d	8b c6		 mov	 eax, esi
  0001f	5e		 pop	 esi

; 467  : 		}

  00020	c3		 ret	 0
?_Copy_s@?$char_traits@D@std@@SAPADPADIPBDI@Z ENDP	; std::char_traits<char>::_Copy_s
_TEXT	ENDS
PUBLIC	?find@?$char_traits@D@std@@SAPBDPBDIABD@Z	; std::char_traits<char>::find
EXTRN	_memchr:PROC
; Function compile flags: /Ogtpy
;	COMDAT ?find@?$char_traits@D@std@@SAPBDPBDIABD@Z
_TEXT	SEGMENT
__First$ = 8						; size = 4
__Count$ = 12						; size = 4
__Ch$ = 16						; size = 4
?find@?$char_traits@D@std@@SAPBDPBDIABD@Z PROC		; std::char_traits<char>::find, COMDAT

; 472  : //		_DEBUG_POINTER(_First);
; 473  : 		return ((const _Elem *)::memchr(_First, _Ch, _Count));

  00000	8b 4c 24 0c	 mov	 ecx, DWORD PTR __Ch$[esp-4]
  00004	8b 44 24 08	 mov	 eax, DWORD PTR __Count$[esp-4]
  00008	0f be 11	 movsx	 edx, BYTE PTR [ecx]
  0000b	50		 push	 eax
  0000c	8b 44 24 08	 mov	 eax, DWORD PTR __First$[esp]
  00010	52		 push	 edx
  00011	50		 push	 eax
  00012	e8 00 00 00 00	 call	 _memchr
  00017	83 c4 0c	 add	 esp, 12			; 0000000cH

; 474  : 		}

  0001a	c3		 ret	 0
?find@?$char_traits@D@std@@SAPBDPBDIABD@Z ENDP		; std::char_traits<char>::find
_TEXT	ENDS
PUBLIC	?_Move_s@?$char_traits@D@std@@SAPADPADIPBDI@Z	; std::char_traits<char>::_Move_s
; Function compile flags: /Ogtpy
;	COMDAT ?_Move_s@?$char_traits@D@std@@SAPADPADIPBDI@Z
_TEXT	SEGMENT
__First1$ = 8						; size = 4
__Size_in_bytes$ = 12					; size = 4
__First2$ = 16						; size = 4
__Count$ = 20						; size = 4
?_Move_s@?$char_traits@D@std@@SAPADPADIPBDI@Z PROC	; std::char_traits<char>::_Move_s, COMDAT

; 487  : //		_DEBUG_POINTER(_First1);
; 488  : //		_DEBUG_POINTER(_First2);
; 489  : 		_CRT_SECURE_MEMMOVE(_First1, _Size_in_bytes, _First2, _Count);

  00000	8b 44 24 10	 mov	 eax, DWORD PTR __Count$[esp-4]
  00004	8b 4c 24 0c	 mov	 ecx, DWORD PTR __First2$[esp-4]
  00008	8b 54 24 08	 mov	 edx, DWORD PTR __Size_in_bytes$[esp-4]
  0000c	56		 push	 esi
  0000d	8b 74 24 08	 mov	 esi, DWORD PTR __First1$[esp]
  00011	50		 push	 eax
  00012	51		 push	 ecx
  00013	52		 push	 edx
  00014	56		 push	 esi
  00015	e8 00 00 00 00	 call	 _memmove_s
  0001a	83 c4 10	 add	 esp, 16			; 00000010H

; 490  : 		return _First1;

  0001d	8b c6		 mov	 eax, esi
  0001f	5e		 pop	 esi

; 491  : 		}

  00020	c3		 ret	 0
?_Move_s@?$char_traits@D@std@@SAPADPADIPBDI@Z ENDP	; std::char_traits<char>::_Move_s
_TEXT	ENDS
PUBLIC	?assign@?$char_traits@D@std@@SAPADPADID@Z	; std::char_traits<char>::assign
EXTRN	_memset:PROC
; Function compile flags: /Ogtpy
;	COMDAT ?assign@?$char_traits@D@std@@SAPADPADID@Z
_TEXT	SEGMENT
__First$ = 8						; size = 4
__Count$ = 12						; size = 4
__Ch$ = 16						; size = 1
?assign@?$char_traits@D@std@@SAPADPADID@Z PROC		; std::char_traits<char>::assign, COMDAT

; 495  : //		_DEBUG_POINTER(_First);
; 496  : 		return ((_Elem *)::memset(_First, _Ch, _Count));

  00000	8b 44 24 08	 mov	 eax, DWORD PTR __Count$[esp-4]
  00004	0f be 4c 24 0c	 movsx	 ecx, BYTE PTR __Ch$[esp-4]
  00009	8b 54 24 04	 mov	 edx, DWORD PTR __First$[esp-4]
  0000d	50		 push	 eax
  0000e	51		 push	 ecx
  0000f	52		 push	 edx
  00010	e8 00 00 00 00	 call	 _memset
  00015	83 c4 0c	 add	 esp, 12			; 0000000cH

; 497  : 		}

  00018	c3		 ret	 0
?assign@?$char_traits@D@std@@SAPADPADID@Z ENDP		; std::char_traits<char>::assign
_TEXT	ENDS
PUBLIC	?to_int_type@?$char_traits@D@std@@SAHABD@Z	; std::char_traits<char>::to_int_type
; Function compile flags: /Ogtpy
;	COMDAT ?to_int_type@?$char_traits@D@std@@SAHABD@Z
_TEXT	SEGMENT
__Ch$ = 8						; size = 4
?to_int_type@?$char_traits@D@std@@SAHABD@Z PROC		; std::char_traits<char>::to_int_type, COMDAT

; 506  : 		return ((unsigned char)_Ch);

  00000	8b 44 24 04	 mov	 eax, DWORD PTR __Ch$[esp-4]
  00004	0f b6 00	 movzx	 eax, BYTE PTR [eax]

; 507  : 		}

  00007	c3		 ret	 0
?to_int_type@?$char_traits@D@std@@SAHABD@Z ENDP		; std::char_traits<char>::to_int_type
_TEXT	ENDS
PUBLIC	?eq_int_type@?$char_traits@D@std@@SA_NABH0@Z	; std::char_traits<char>::eq_int_type
; Function compile flags: /Ogtpy
;	COMDAT ?eq_int_type@?$char_traits@D@std@@SA_NABH0@Z
_TEXT	SEGMENT
__Left$ = 8						; size = 4
__Right$ = 12						; size = 4
?eq_int_type@?$char_traits@D@std@@SA_NABH0@Z PROC	; std::char_traits<char>::eq_int_type, COMDAT

; 512  : 		return (_Left == _Right);

  00000	8b 44 24 04	 mov	 eax, DWORD PTR __Left$[esp-4]
  00004	8b 08		 mov	 ecx, DWORD PTR [eax]
  00006	8b 54 24 08	 mov	 edx, DWORD PTR __Right$[esp-4]
  0000a	33 c0		 xor	 eax, eax
  0000c	3b 0a		 cmp	 ecx, DWORD PTR [edx]
  0000e	0f 94 c0	 sete	 al

; 513  : 		}

  00011	c3		 ret	 0
?eq_int_type@?$char_traits@D@std@@SA_NABH0@Z ENDP	; std::char_traits<char>::eq_int_type
_TEXT	ENDS
PUBLIC	?eof@?$char_traits@D@std@@SAHXZ			; std::char_traits<char>::eof
; Function compile flags: /Ogtpy
;	COMDAT ?eof@?$char_traits@D@std@@SAHXZ
_TEXT	SEGMENT
?eof@?$char_traits@D@std@@SAHXZ PROC			; std::char_traits<char>::eof, COMDAT

; 517  : 		return (EOF);

  00000	83 c8 ff	 or	 eax, -1

; 518  : 		}

  00003	c3		 ret	 0
?eof@?$char_traits@D@std@@SAHXZ ENDP			; std::char_traits<char>::eof
_TEXT	ENDS
PUBLIC	??0_Aux_cont@std@@QAE@QBV_Container_base_aux@1@@Z ; std::_Aux_cont::_Aux_cont
; Function compile flags: /Ogtpy
; File c:\program files (x86)\microsoft visual studio 9.0\vc\include\xutility
;	COMDAT ??0_Aux_cont@std@@QAE@QBV_Container_base_aux@1@@Z
_TEXT	SEGMENT
__Pcont$ = 8						; size = 4
??0_Aux_cont@std@@QAE@QBV_Container_base_aux@1@@Z PROC	; std::_Aux_cont::_Aux_cont, COMDAT
; _this$ = ecx

; 364  : 	explicit _Aux_cont(const _Container_base_aux * const _Pcont)

  00000	8b c1		 mov	 eax, ecx
  00002	8b 4c 24 04	 mov	 ecx, DWORD PTR __Pcont$[esp-4]
  00006	89 08		 mov	 DWORD PTR [eax], ecx
  00008	c2 04 00	 ret	 4
??0_Aux_cont@std@@QAE@QBV_Container_base_aux@1@@Z ENDP	; std::_Aux_cont::_Aux_cont
_TEXT	ENDS
PUBLIC	?_Getcont@_Aux_cont@std@@QBEPBV_Container_base_aux@2@XZ ; std::_Aux_cont::_Getcont
; Function compile flags: /Ogtpy
;	COMDAT ?_Getcont@_Aux_cont@std@@QBEPBV_Container_base_aux@2@XZ
_TEXT	SEGMENT
?_Getcont@_Aux_cont@std@@QBEPBV_Container_base_aux@2@XZ PROC ; std::_Aux_cont::_Getcont, COMDAT
; _this$ = ecx

; 369  : 		return _Mycontainer;

  00000	8b 01		 mov	 eax, DWORD PTR [ecx]

; 370  : 		}

  00002	c3		 ret	 0
?_Getcont@_Aux_cont@std@@QBEPBV_Container_base_aux@2@XZ ENDP ; std::_Aux_cont::_Getcont
_TEXT	ENDS
PUBLIC	??0_Container_base_aux@std@@QAE@XZ		; std::_Container_base_aux::_Container_base_aux
; Function compile flags: /Ogtpy
;	COMDAT ??0_Container_base_aux@std@@QAE@XZ
_TEXT	SEGMENT
??0_Container_base_aux@std@@QAE@XZ PROC			; std::_Container_base_aux::_Container_base_aux, COMDAT
; _this$ = ecx

; 379  : 	_Container_base_aux()

  00000	8b c1		 mov	 eax, ecx

; 380  : 		{
; 381  : 		// Do nothing: _Container_base_aux_alloc_real() will construct the aux object.
; 382  : 		}

  00002	c3		 ret	 0
??0_Container_base_aux@std@@QAE@XZ ENDP			; std::_Container_base_aux::_Container_base_aux
_TEXT	ENDS
PUBLIC	??1_Container_base_aux@std@@QAE@XZ		; std::_Container_base_aux::~_Container_base_aux
; Function compile flags: /Ogtpy
;	COMDAT ??1_Container_base_aux@std@@QAE@XZ
_TEXT	SEGMENT
??1_Container_base_aux@std@@QAE@XZ PROC			; std::_Container_base_aux::~_Container_base_aux, COMDAT
; _this$ = ecx

; 403  : 		// Do nothing: ~_Container_base_aux_alloc_real() previously destroyed the aux object.
; 404  : 		}

  00000	c3		 ret	 0
??1_Container_base_aux@std@@QAE@XZ ENDP			; std::_Container_base_aux::~_Container_base_aux
_TEXT	ENDS
PUBLIC	??0_Iterator_base_aux@std@@QAE@XZ		; std::_Iterator_base_aux::_Iterator_base_aux
; Function compile flags: /Ogtpy
;	COMDAT ??0_Iterator_base_aux@std@@QAE@XZ
_TEXT	SEGMENT
??0_Iterator_base_aux@std@@QAE@XZ PROC			; std::_Iterator_base_aux::_Iterator_base_aux, COMDAT
; _this$ = ecx

; 448  : 	_Iterator_base_aux()

  00000	8b c1		 mov	 eax, ecx
  00002	c7 00 00 00 00
	00		 mov	 DWORD PTR [eax], 0
  00008	c3		 ret	 0
??0_Iterator_base_aux@std@@QAE@XZ ENDP			; std::_Iterator_base_aux::_Iterator_base_aux
_TEXT	ENDS
PUBLIC	?_Set_container@_Iterator_base_aux@std@@QAEXQBV_Container_base_aux@2@@Z ; std::_Iterator_base_aux::_Set_container
; Function compile flags: /Ogtpy
;	COMDAT ?_Set_container@_Iterator_base_aux@std@@QAEXQBV_Container_base_aux@2@@Z
_TEXT	SEGMENT
__Pcont$ = 8						; size = 4
?_Set_container@_Iterator_base_aux@std@@QAEXQBV_Container_base_aux@2@@Z PROC ; std::_Iterator_base_aux::_Set_container, COMDAT
; _this$ = ecx

; 453  : 		_Myaux = _Pcont->_Myownedaux;

  00000	8b 44 24 04	 mov	 eax, DWORD PTR __Pcont$[esp-4]
  00004	8b 10		 mov	 edx, DWORD PTR [eax]
  00006	89 11		 mov	 DWORD PTR [ecx], edx

; 454  : 		}

  00008	c2 04 00	 ret	 4
?_Set_container@_Iterator_base_aux@std@@QAEXQBV_Container_base_aux@2@@Z ENDP ; std::_Iterator_base_aux::_Set_container
_TEXT	ENDS
PUBLIC	?_Getmycont@_Iterator_base_aux@std@@QBEPBV_Container_base_aux@2@XZ ; std::_Iterator_base_aux::_Getmycont
; Function compile flags: /Ogtpy
;	COMDAT ?_Getmycont@_Iterator_base_aux@std@@QBEPBV_Container_base_aux@2@XZ
_TEXT	SEGMENT
?_Getmycont@_Iterator_base_aux@std@@QBEPBV_Container_base_aux@2@XZ PROC ; std::_Iterator_base_aux::_Getmycont, COMDAT
; _this$ = ecx

; 458  : 		return _Myaux ? _Myaux->_Getcont() : 0;

  00000	8b 01		 mov	 eax, DWORD PTR [ecx]
  00002	85 c0		 test	 eax, eax
  00004	74 03		 je	 SHORT $LN3@Getmycont
  00006	8b 00		 mov	 eax, DWORD PTR [eax]

; 459  : 		}

  00008	c3		 ret	 0
$LN3@Getmycont:

; 458  : 		return _Myaux ? _Myaux->_Getcont() : 0;

  00009	33 c0		 xor	 eax, eax

; 459  : 		}

  0000b	c3		 ret	 0
?_Getmycont@_Iterator_base_aux@std@@QBEPBV_Container_base_aux@2@XZ ENDP ; std::_Iterator_base_aux::_Getmycont
_TEXT	ENDS
PUBLIC	?_Same_container@_Iterator_base_aux@std@@QBE_NABV12@@Z ; std::_Iterator_base_aux::_Same_container
; Function compile flags: /Ogtpy
;	COMDAT ?_Same_container@_Iterator_base_aux@std@@QBE_NABV12@@Z
_TEXT	SEGMENT
__Other$ = 8						; size = 4
?_Same_container@_Iterator_base_aux@std@@QBE_NABV12@@Z PROC ; std::_Iterator_base_aux::_Same_container, COMDAT
; _this$ = ecx

; 463  : 		return _Myaux == _Other._Myaux;

  00000	8b 01		 mov	 eax, DWORD PTR [ecx]
  00002	8b 54 24 04	 mov	 edx, DWORD PTR __Other$[esp-4]
  00006	33 c9		 xor	 ecx, ecx
  00008	3b 02		 cmp	 eax, DWORD PTR [edx]
  0000a	0f 94 c1	 sete	 cl
  0000d	8a c1		 mov	 al, cl

; 464  : 		}

  0000f	c2 04 00	 ret	 4
?_Same_container@_Iterator_base_aux@std@@QBE_NABV12@@Z ENDP ; std::_Iterator_base_aux::_Same_container
_TEXT	ENDS
PUBLIC	?_Has_container@_Iterator_base_aux@std@@QBE_NXZ	; std::_Iterator_base_aux::_Has_container
; Function compile flags: /Ogtpy
;	COMDAT ?_Has_container@_Iterator_base_aux@std@@QBE_NXZ
_TEXT	SEGMENT
?_Has_container@_Iterator_base_aux@std@@QBE_NXZ PROC	; std::_Iterator_base_aux::_Has_container, COMDAT
; _this$ = ecx

; 468  : 		return _Myaux != 0;

  00000	33 c0		 xor	 eax, eax
  00002	39 01		 cmp	 DWORD PTR [ecx], eax
  00004	0f 95 c0	 setne	 al

; 469  : 		}

  00007	c3		 ret	 0
?_Has_container@_Iterator_base_aux@std@@QBE_NXZ ENDP	; std::_Iterator_base_aux::_Has_container
_TEXT	ENDS
PUBLIC	??0_Iterator_base_secure@std@@QAE@XZ		; std::_Iterator_base_secure::_Iterator_base_secure
; Function compile flags: /Ogtpy
;	COMDAT ??0_Iterator_base_secure@std@@QAE@XZ
_TEXT	SEGMENT
??0_Iterator_base_secure@std@@QAE@XZ PROC		; std::_Iterator_base_secure::_Iterator_base_secure, COMDAT
; _this$ = ecx

; 567  : 		{

  00000	8b c1		 mov	 eax, ecx
  00002	c7 00 00 00 00
	00		 mov	 DWORD PTR [eax], 0

; 568  : 		}

  00008	c3		 ret	 0
??0_Iterator_base_secure@std@@QAE@XZ ENDP		; std::_Iterator_base_secure::_Iterator_base_secure
_TEXT	ENDS
PUBLIC	?_Same_container@_Iterator_base_secure@std@@QBE_NABV12@@Z ; std::_Iterator_base_secure::_Same_container
; Function compile flags: /Ogtpy
;	COMDAT ?_Same_container@_Iterator_base_secure@std@@QBE_NABV12@@Z
_TEXT	SEGMENT
__Other$ = 8						; size = 4
?_Same_container@_Iterator_base_secure@std@@QBE_NABV12@@Z PROC ; std::_Iterator_base_secure::_Same_container, COMDAT
; _this$ = ecx

; 577  : 		return _Mycont == _Other._Mycont;

  00000	8b 01		 mov	 eax, DWORD PTR [ecx]
  00002	8b 54 24 04	 mov	 edx, DWORD PTR __Other$[esp-4]
  00006	33 c9		 xor	 ecx, ecx
  00008	3b 02		 cmp	 eax, DWORD PTR [edx]
  0000a	0f 94 c1	 sete	 cl
  0000d	8a c1		 mov	 al, cl

; 578  : 		}

  0000f	c2 04 00	 ret	 4
?_Same_container@_Iterator_base_secure@std@@QBE_NABV12@@Z ENDP ; std::_Iterator_base_secure::_Same_container
_TEXT	ENDS
PUBLIC	?_Has_container@_Iterator_base_secure@std@@QBE_NXZ ; std::_Iterator_base_secure::_Has_container
; Function compile flags: /Ogtpy
;	COMDAT ?_Has_container@_Iterator_base_secure@std@@QBE_NXZ
_TEXT	SEGMENT
?_Has_container@_Iterator_base_secure@std@@QBE_NXZ PROC	; std::_Iterator_base_secure::_Has_container, COMDAT
; _this$ = ecx

; 582  : 		return _Mycont != 0;

  00000	33 c0		 xor	 eax, eax
  00002	39 01		 cmp	 DWORD PTR [ecx], eax
  00004	0f 95 c0	 setne	 al

; 583  : 		}

  00007	c3		 ret	 0
?_Has_container@_Iterator_base_secure@std@@QBE_NXZ ENDP	; std::_Iterator_base_secure::_Has_container
_TEXT	ENDS
PUBLIC	?_Getctype@_Locinfo@std@@QBE?AU_Ctypevec@@XZ	; std::_Locinfo::_Getctype
EXTRN	__Getctype:PROC
; Function compile flags: /Ogtpy
; File c:\program files (x86)\microsoft visual studio 9.0\vc\include\xlocinfo
;	COMDAT ?_Getctype@_Locinfo@std@@QBE?AU_Ctypevec@@XZ
_TEXT	SEGMENT
$T157293 = -16						; size = 16
___$ReturnUdt$ = 8					; size = 4
?_Getctype@_Locinfo@std@@QBE?AU_Ctypevec@@XZ PROC	; std::_Locinfo::_Getctype, COMDAT
; _this$ = ecx

; 123  : 		{	// return ctype stuff

  00000	83 ec 10	 sub	 esp, 16			; 00000010H

; 124  : 		return (::_Getctype());

  00003	8d 04 24	 lea	 eax, DWORD PTR $T157293[esp+16]
  00006	50		 push	 eax
  00007	e8 00 00 00 00	 call	 __Getctype
  0000c	8b 4c 24 18	 mov	 ecx, DWORD PTR ___$ReturnUdt$[esp+16]
  00010	8b 10		 mov	 edx, DWORD PTR [eax]
  00012	89 11		 mov	 DWORD PTR [ecx], edx
  00014	8b 50 04	 mov	 edx, DWORD PTR [eax+4]
  00017	89 51 04	 mov	 DWORD PTR [ecx+4], edx
  0001a	8b 50 08	 mov	 edx, DWORD PTR [eax+8]
  0001d	8b 40 0c	 mov	 eax, DWORD PTR [eax+12]
  00020	89 51 08	 mov	 DWORD PTR [ecx+8], edx
  00023	89 41 0c	 mov	 DWORD PTR [ecx+12], eax
  00026	8b c1		 mov	 eax, ecx

; 125  : 		}

  00028	83 c4 14	 add	 esp, 20			; 00000014H
  0002b	c2 04 00	 ret	 4
?_Getctype@_Locinfo@std@@QBE?AU_Ctypevec@@XZ ENDP	; std::_Locinfo::_Getctype
_TEXT	ENDS
PUBLIC	?_Getcvt@_Locinfo@std@@QBE?AU_Cvtvec@@XZ	; std::_Locinfo::_Getcvt
EXTRN	__Getcvt:PROC
; Function compile flags: /Ogtpy
;	COMDAT ?_Getcvt@_Locinfo@std@@QBE?AU_Cvtvec@@XZ
_TEXT	SEGMENT
___$ReturnUdt$ = 8					; size = 4
?_Getcvt@_Locinfo@std@@QBE?AU_Cvtvec@@XZ PROC		; std::_Locinfo::_Getcvt, COMDAT
; _this$ = ecx

; 129  : 		return (::_Getcvt());

  00000	e8 00 00 00 00	 call	 __Getcvt
  00005	8b c8		 mov	 ecx, eax
  00007	8b 44 24 04	 mov	 eax, DWORD PTR ___$ReturnUdt$[esp-4]
  0000b	89 08		 mov	 DWORD PTR [eax], ecx
  0000d	89 50 04	 mov	 DWORD PTR [eax+4], edx

; 130  : 		}

  00010	c2 04 00	 ret	 4
?_Getcvt@_Locinfo@std@@QBE?AU_Cvtvec@@XZ ENDP		; std::_Locinfo::_Getcvt
_TEXT	ENDS
PUBLIC	??0id@locale@std@@QAE@I@Z			; std::locale::id::id
; Function compile flags: /Ogtpy
; File c:\program files (x86)\microsoft visual studio 9.0\vc\include\xlocale
;	COMDAT ??0id@locale@std@@QAE@I@Z
_TEXT	SEGMENT
__Val$ = 8						; size = 4
??0id@locale@std@@QAE@I@Z PROC				; std::locale::id::id, COMDAT
; _this$ = ecx

; 73   : 			{	// construct with specified stamp value

  00000	8b c1		 mov	 eax, ecx
  00002	8b 4c 24 04	 mov	 ecx, DWORD PTR __Val$[esp-4]
  00006	89 08		 mov	 DWORD PTR [eax], ecx

; 74   : 			}

  00008	c2 04 00	 ret	 4
??0id@locale@std@@QAE@I@Z ENDP				; std::locale::id::id
_TEXT	ENDS
PUBLIC	??Bid@locale@std@@QAEIXZ			; std::locale::id::operator unsigned int
EXTRN	??1_Lockit@std@@QAE@XZ:PROC			; std::_Lockit::~_Lockit
EXTRN	?_Id_cnt@id@locale@std@@0HA:DWORD		; std::locale::id::_Id_cnt
EXTRN	??0_Lockit@std@@QAE@H@Z:PROC			; std::_Lockit::_Lockit
; Function compile flags: /Ogtpy
;	COMDAT ??Bid@locale@std@@QAEIXZ
_TEXT	SEGMENT
__Lock$106981 = -4					; size = 4
??Bid@locale@std@@QAEIXZ PROC				; std::locale::id::operator unsigned int, COMDAT
; _this$ = ecx

; 77   : 			{	// get stamp, with lazy allocation

  00000	51		 push	 ecx
  00001	56		 push	 esi
  00002	8b f1		 mov	 esi, ecx

; 78   : 			if (_Id == 0)

  00004	83 3e 00	 cmp	 DWORD PTR [esi], 0
  00007	75 26		 jne	 SHORT $LN6@operator

; 79   : 				{	// still zero, allocate stamp
; 80   : 				_BEGIN_LOCK(_LOCK_LOCALE)

  00009	6a 00		 push	 0
  0000b	8d 4c 24 08	 lea	 ecx, DWORD PTR __Lock$106981[esp+12]
  0000f	e8 00 00 00 00	 call	 ??0_Lockit@std@@QAE@H@Z	; std::_Lockit::_Lockit

; 81   : 					if (_Id == 0)

  00014	83 3e 00	 cmp	 DWORD PTR [esi], 0
  00017	75 0d		 jne	 SHORT $LN1@operator

; 82   : 						_Id = ++_Id_cnt;

  00019	a1 00 00 00 00	 mov	 eax, DWORD PTR ?_Id_cnt@id@locale@std@@0HA ; std::locale::id::_Id_cnt
  0001e	40		 inc	 eax
  0001f	a3 00 00 00 00	 mov	 DWORD PTR ?_Id_cnt@id@locale@std@@0HA, eax ; std::locale::id::_Id_cnt
  00024	89 06		 mov	 DWORD PTR [esi], eax
$LN1@operator:

; 83   : 				_END_LOCK()

  00026	8d 4c 24 04	 lea	 ecx, DWORD PTR __Lock$106981[esp+8]
  0002a	e8 00 00 00 00	 call	 ??1_Lockit@std@@QAE@XZ	; std::_Lockit::~_Lockit
$LN6@operator:

; 84   : 				}
; 85   : 			return (_Id);

  0002f	8b 06		 mov	 eax, DWORD PTR [esi]
  00031	5e		 pop	 esi

; 86   : 			}

  00032	59		 pop	 ecx
  00033	c3		 ret	 0
??Bid@locale@std@@QAEIXZ ENDP				; std::locale::id::operator unsigned int
_TEXT	ENDS
PUBLIC	?_Incref@facet@locale@std@@QAEXXZ		; std::locale::facet::_Incref
; Function compile flags: /Ogtpy
;	COMDAT ?_Incref@facet@locale@std@@QAEXXZ
_TEXT	SEGMENT
__Lock$106987 = -4					; size = 4
?_Incref@facet@locale@std@@QAEXXZ PROC			; std::locale::facet::_Incref, COMDAT
; _this$ = ecx

; 117  : 			{	// safely increment the reference count

  00000	51		 push	 ecx
  00001	56		 push	 esi
  00002	8b f1		 mov	 esi, ecx

; 118  : 			_BEGIN_LOCK(_LOCK_LOCALE)

  00004	6a 00		 push	 0
  00006	8d 4c 24 08	 lea	 ecx, DWORD PTR __Lock$106987[esp+12]
  0000a	e8 00 00 00 00	 call	 ??0_Lockit@std@@QAE@H@Z	; std::_Lockit::_Lockit

; 119  : 				if (_Refs < (size_t)(-1))

  0000f	8b 46 04	 mov	 eax, DWORD PTR [esi+4]
  00012	83 f8 ff	 cmp	 eax, -1
  00015	73 04		 jae	 SHORT $LN1@Incref

; 120  : 					++_Refs;

  00017	40		 inc	 eax
  00018	89 46 04	 mov	 DWORD PTR [esi+4], eax
$LN1@Incref:

; 121  : 			_END_LOCK()

  0001b	8d 4c 24 04	 lea	 ecx, DWORD PTR __Lock$106987[esp+8]
  0001f	e8 00 00 00 00	 call	 ??1_Lockit@std@@QAE@XZ	; std::_Lockit::~_Lockit
  00024	5e		 pop	 esi

; 122  : 			}

  00025	59		 pop	 ecx
  00026	c3		 ret	 0
?_Incref@facet@locale@std@@QAEXXZ ENDP			; std::locale::facet::_Incref
_TEXT	ENDS
PUBLIC	?_Decref@facet@locale@std@@QAEPAV123@XZ		; std::locale::facet::_Decref
; Function compile flags: /Ogtpy
;	COMDAT ?_Decref@facet@locale@std@@QAEPAV123@XZ
_TEXT	SEGMENT
__Lock$106992 = -4					; size = 4
?_Decref@facet@locale@std@@QAEPAV123@XZ PROC		; std::locale::facet::_Decref, COMDAT
; _this$ = ecx

; 125  : 			{	// safely decrement the reference count, return this when dead

  00000	51		 push	 ecx
  00001	56		 push	 esi
  00002	57		 push	 edi
  00003	8b f9		 mov	 edi, ecx

; 126  : 			_BEGIN_LOCK(_LOCK_LOCALE)

  00005	6a 00		 push	 0
  00007	8d 4c 24 0c	 lea	 ecx, DWORD PTR __Lock$106992[esp+16]
  0000b	e8 00 00 00 00	 call	 ??0_Lockit@std@@QAE@H@Z	; std::_Lockit::_Lockit

; 127  : 				if (0 < _Refs && _Refs < (size_t)(-1))

  00010	8b 47 04	 mov	 eax, DWORD PTR [edi+4]
  00013	85 c0		 test	 eax, eax
  00015	76 09		 jbe	 SHORT $LN1@Decref
  00017	83 f8 ff	 cmp	 eax, -1
  0001a	73 04		 jae	 SHORT $LN1@Decref

; 128  : 					--_Refs;

  0001c	48		 dec	 eax
  0001d	89 47 04	 mov	 DWORD PTR [edi+4], eax
$LN1@Decref:

; 129  : 				return (_Refs == 0 ? this : 0);

  00020	8b 77 04	 mov	 esi, DWORD PTR [edi+4]
  00023	f7 de		 neg	 esi
  00025	1b f6		 sbb	 esi, esi
  00027	f7 d6		 not	 esi
  00029	8d 4c 24 08	 lea	 ecx, DWORD PTR __Lock$106992[esp+12]
  0002d	23 f7		 and	 esi, edi
  0002f	e8 00 00 00 00	 call	 ??1_Lockit@std@@QAE@XZ	; std::_Lockit::~_Lockit
  00034	5f		 pop	 edi
  00035	8b c6		 mov	 eax, esi
  00037	5e		 pop	 esi

; 130  : 			_END_LOCK()
; 131  : 			}

  00038	59		 pop	 ecx
  00039	c3		 ret	 0
?_Decref@facet@locale@std@@QAEPAV123@XZ ENDP		; std::locale::facet::_Decref
_TEXT	ENDS
PUBLIC	?_Register@facet@locale@std@@QAEXXZ		; std::locale::facet::_Register
EXTRN	?facet_Register@facet@locale@std@@CAXPAV123@@Z:PROC ; std::locale::facet::facet_Register
; Function compile flags: /Ogtpy
;	COMDAT ?_Register@facet@locale@std@@QAEXXZ
_TEXT	SEGMENT
?_Register@facet@locale@std@@QAEXXZ PROC		; std::locale::facet::_Register, COMDAT
; _this$ = ecx

; 135  : #if defined(_M_CEE)
; 136  : 			facet_Register_m(this);
; 137  : #else
; 138  : 			facet_Register(this);

  00000	51		 push	 ecx
  00001	e8 00 00 00 00	 call	 ?facet_Register@facet@locale@std@@CAXPAV123@@Z ; std::locale::facet::facet_Register
  00006	59		 pop	 ecx

; 139  : #endif
; 140  : 			}

  00007	c3		 ret	 0
?_Register@facet@locale@std@@QAEXXZ ENDP		; std::locale::facet::_Register
_TEXT	ENDS
PUBLIC	??_7facet@locale@std@@6B@			; std::locale::facet::`vftable'
PUBLIC	??1facet@locale@std@@UAE@XZ			; std::locale::facet::~facet
PUBLIC	??_R4facet@locale@std@@6B@			; std::locale::facet::`RTTI Complete Object Locator'
PUBLIC	??_R0?AVfacet@locale@std@@@8			; std::locale::facet `RTTI Type Descriptor'
PUBLIC	??_R3facet@locale@std@@8			; std::locale::facet::`RTTI Class Hierarchy Descriptor'
PUBLIC	??_R2facet@locale@std@@8			; std::locale::facet::`RTTI Base Class Array'
PUBLIC	??_R1A@?0A@EA@facet@locale@std@@8		; std::locale::facet::`RTTI Base Class Descriptor at (0,-1,0,64)'
EXTRN	??_Efacet@locale@std@@UAEPAXI@Z:PROC		; std::locale::facet::`vector deleting destructor'
;	COMDAT ??_R1A@?0A@EA@facet@locale@std@@8
rdata$r	SEGMENT
??_R1A@?0A@EA@facet@locale@std@@8 DD FLAT:??_R0?AVfacet@locale@std@@@8 ; std::locale::facet::`RTTI Base Class Descriptor at (0,-1,0,64)'
	DD	00H
	DD	00H
	DD	0ffffffffH
	DD	00H
	DD	040H
	DD	FLAT:??_R3facet@locale@std@@8
rdata$r	ENDS
;	COMDAT ??_R2facet@locale@std@@8
rdata$r	SEGMENT
??_R2facet@locale@std@@8 DD FLAT:??_R1A@?0A@EA@facet@locale@std@@8 ; std::locale::facet::`RTTI Base Class Array'
rdata$r	ENDS
;	COMDAT ??_R3facet@locale@std@@8
rdata$r	SEGMENT
??_R3facet@locale@std@@8 DD 00H				; std::locale::facet::`RTTI Class Hierarchy Descriptor'
	DD	00H
	DD	01H
	DD	FLAT:??_R2facet@locale@std@@8
rdata$r	ENDS
;	COMDAT ??_R0?AVfacet@locale@std@@@8
_DATA	SEGMENT
??_R0?AVfacet@locale@std@@@8 DD FLAT:??_7type_info@@6B@	; std::locale::facet `RTTI Type Descriptor'
	DD	00H
	DB	'.?AVfacet@locale@std@@', 00H
_DATA	ENDS
;	COMDAT ??_R4facet@locale@std@@6B@
rdata$r	SEGMENT
??_R4facet@locale@std@@6B@ DD 00H			; std::locale::facet::`RTTI Complete Object Locator'
	DD	00H
	DD	00H
	DD	FLAT:??_R0?AVfacet@locale@std@@@8
	DD	FLAT:??_R3facet@locale@std@@8
rdata$r	ENDS
;	COMDAT ??_7facet@locale@std@@6B@
CONST	SEGMENT
??_7facet@locale@std@@6B@ DD FLAT:??_R4facet@locale@std@@6B@ ; std::locale::facet::`vftable'
	DD	FLAT:??_Efacet@locale@std@@UAEPAXI@Z
; Function compile flags: /Ogtpy
CONST	ENDS
;	COMDAT ??1facet@locale@std@@UAE@XZ
_TEXT	SEGMENT
??1facet@locale@std@@UAE@XZ PROC			; std::locale::facet::~facet, COMDAT
; _this$ = ecx

; 170  : 			{	// destroy the object

  00000	c7 01 00 00 00
	00		 mov	 DWORD PTR [ecx], OFFSET ??_7facet@locale@std@@6B@

; 171  : 			}

  00006	c3		 ret	 0
??1facet@locale@std@@UAE@XZ ENDP			; std::locale::facet::~facet
_TEXT	ENDS
PUBLIC	??0facet@locale@std@@IAE@I@Z			; std::locale::facet::facet
; Function compile flags: /Ogtpy
;	COMDAT ??0facet@locale@std@@IAE@I@Z
_TEXT	SEGMENT
__Initrefs$ = 8						; size = 4
??0facet@locale@std@@IAE@I@Z PROC			; std::locale::facet::facet, COMDAT
; _this$ = ecx

; 176  : 			{	// construct with initial reference count

  00000	8b c1		 mov	 eax, ecx
  00002	8b 4c 24 04	 mov	 ecx, DWORD PTR __Initrefs$[esp-4]
  00006	c7 00 00 00 00
	00		 mov	 DWORD PTR [eax], OFFSET ??_7facet@locale@std@@6B@
  0000c	89 48 04	 mov	 DWORD PTR [eax+4], ecx

; 177  : 			}

  0000f	c2 04 00	 ret	 4
??0facet@locale@std@@IAE@I@Z ENDP			; std::locale::facet::facet
_TEXT	ENDS
PUBLIC	??0locale@std@@QAE@XZ				; std::locale::locale
EXTRN	?_Getgloballocale@locale@std@@CAPAV_Locimp@12@XZ:PROC ; std::locale::_Getgloballocale
EXTRN	?_Init@locale@std@@CAPAV_Locimp@12@XZ:PROC	; std::locale::_Init
; Function compile flags: /Ogtpy
;	COMDAT ??0locale@std@@QAE@XZ
_TEXT	SEGMENT
__Lock$157320 = -4					; size = 4
??0locale@std@@QAE@XZ PROC				; std::locale::locale, COMDAT
; _this$ = ecx

; 324  : 		{	// construct from current locale

  00000	51		 push	 ecx
  00001	56		 push	 esi
  00002	57		 push	 edi
  00003	8b f9		 mov	 edi, ecx
  00005	e8 00 00 00 00	 call	 ?_Init@locale@std@@CAPAV_Locimp@12@XZ ; std::locale::_Init
  0000a	89 07		 mov	 DWORD PTR [edi], eax

; 325  : 		_Getgloballocale()->_Incref();

  0000c	e8 00 00 00 00	 call	 ?_Getgloballocale@locale@std@@CAPAV_Locimp@12@XZ ; std::locale::_Getgloballocale
  00011	6a 00		 push	 0
  00013	8d 4c 24 0c	 lea	 ecx, DWORD PTR __Lock$157320[esp+16]
  00017	8b f0		 mov	 esi, eax
  00019	e8 00 00 00 00	 call	 ??0_Lockit@std@@QAE@H@Z	; std::_Lockit::_Lockit
  0001e	8b 46 04	 mov	 eax, DWORD PTR [esi+4]
  00021	83 f8 ff	 cmp	 eax, -1
  00024	73 04		 jae	 SHORT $LN3@locale
  00026	40		 inc	 eax
  00027	89 46 04	 mov	 DWORD PTR [esi+4], eax
$LN3@locale:
  0002a	8d 4c 24 08	 lea	 ecx, DWORD PTR __Lock$157320[esp+12]
  0002e	e8 00 00 00 00	 call	 ??1_Lockit@std@@QAE@XZ	; std::_Lockit::~_Lockit

; 326  : 		}

  00033	8b c7		 mov	 eax, edi
  00035	5f		 pop	 edi
  00036	5e		 pop	 esi
  00037	59		 pop	 ecx
  00038	c3		 ret	 0
??0locale@std@@QAE@XZ ENDP				; std::locale::locale
_TEXT	ENDS
PUBLIC	??0locale@std@@QAE@ABV01@@Z			; std::locale::locale
; Function compile flags: /Ogtpy
;	COMDAT ??0locale@std@@QAE@ABV01@@Z
_TEXT	SEGMENT
__Lock$157328 = 8					; size = 4
__Right$ = 8						; size = 4
??0locale@std@@QAE@ABV01@@Z PROC			; std::locale::locale, COMDAT
; _this$ = ecx

; 334  : 		{	// construct by copying

  00000	8b 44 24 04	 mov	 eax, DWORD PTR __Right$[esp-4]
  00004	56		 push	 esi
  00005	8b 30		 mov	 esi, DWORD PTR [eax]
  00007	57		 push	 edi
  00008	8b f9		 mov	 edi, ecx

; 335  : 		_Ptr->_Incref();

  0000a	6a 00		 push	 0
  0000c	8d 4c 24 10	 lea	 ecx, DWORD PTR __Lock$157328[esp+8]
  00010	89 37		 mov	 DWORD PTR [edi], esi
  00012	e8 00 00 00 00	 call	 ??0_Lockit@std@@QAE@H@Z	; std::_Lockit::_Lockit
  00017	8b 46 04	 mov	 eax, DWORD PTR [esi+4]
  0001a	83 f8 ff	 cmp	 eax, -1
  0001d	73 04		 jae	 SHORT $LN3@locale@2
  0001f	40		 inc	 eax
  00020	89 46 04	 mov	 DWORD PTR [esi+4], eax
$LN3@locale@2:
  00023	8d 4c 24 0c	 lea	 ecx, DWORD PTR __Lock$157328[esp+4]
  00027	e8 00 00 00 00	 call	 ??1_Lockit@std@@QAE@XZ	; std::_Lockit::~_Lockit

; 336  : 		}

  0002c	8b c7		 mov	 eax, edi
  0002e	5f		 pop	 edi
  0002f	5e		 pop	 esi
  00030	c2 04 00	 ret	 4
??0locale@std@@QAE@ABV01@@Z ENDP			; std::locale::locale
_TEXT	ENDS
PUBLIC	??1locale@std@@QAE@XZ				; std::locale::~locale
; Function compile flags: /Ogtpy
;	COMDAT ??1locale@std@@QAE@XZ
_TEXT	SEGMENT
__Lock$157341 = -4					; size = 4
??1locale@std@@QAE@XZ PROC				; std::locale::~locale, COMDAT
; _this$ = ecx

; 390  : 		{	// destroy the object

  00000	51		 push	 ecx
  00001	57		 push	 edi

; 391  : 		if (_Ptr != 0)

  00002	8b 39		 mov	 edi, DWORD PTR [ecx]
  00004	85 ff		 test	 edi, edi
  00006	74 3f		 je	 SHORT $LN4@locale@3

; 392  : 			_DELETE_CRT(_Ptr->_Decref());

  00008	6a 00		 push	 0
  0000a	8d 4c 24 08	 lea	 ecx, DWORD PTR __Lock$157341[esp+12]
  0000e	e8 00 00 00 00	 call	 ??0_Lockit@std@@QAE@H@Z	; std::_Lockit::_Lockit
  00013	8b 47 04	 mov	 eax, DWORD PTR [edi+4]
  00016	85 c0		 test	 eax, eax
  00018	76 09		 jbe	 SHORT $LN6@locale@3
  0001a	83 f8 ff	 cmp	 eax, -1
  0001d	73 04		 jae	 SHORT $LN6@locale@3
  0001f	48		 dec	 eax
  00020	89 47 04	 mov	 DWORD PTR [edi+4], eax
$LN6@locale@3:
  00023	56		 push	 esi
  00024	8b 77 04	 mov	 esi, DWORD PTR [edi+4]
  00027	f7 de		 neg	 esi
  00029	1b f6		 sbb	 esi, esi
  0002b	f7 d6		 not	 esi
  0002d	8d 4c 24 08	 lea	 ecx, DWORD PTR __Lock$157341[esp+12]
  00031	23 f7		 and	 esi, edi
  00033	e8 00 00 00 00	 call	 ??1_Lockit@std@@QAE@XZ	; std::_Lockit::~_Lockit
  00038	85 f6		 test	 esi, esi
  0003a	74 0a		 je	 SHORT $LN9@locale@3
  0003c	8b 06		 mov	 eax, DWORD PTR [esi]
  0003e	8b 10		 mov	 edx, DWORD PTR [eax]
  00040	6a 01		 push	 1
  00042	8b ce		 mov	 ecx, esi
  00044	ff d2		 call	 edx
$LN9@locale@3:
  00046	5e		 pop	 esi
$LN4@locale@3:
  00047	5f		 pop	 edi

; 393  : 		}

  00048	59		 pop	 ecx
  00049	c3		 ret	 0
??1locale@std@@QAE@XZ ENDP				; std::locale::~locale
_TEXT	ENDS
PUBLIC	?_Getfacet@locale@std@@QBEPBVfacet@12@I@Z	; std::locale::_Getfacet
; Function compile flags: /Ogtpy
;	COMDAT ?_Getfacet@locale@std@@QBEPBVfacet@12@I@Z
_TEXT	SEGMENT
__Id$ = 8						; size = 4
?_Getfacet@locale@std@@QBEPBVfacet@12@I@Z PROC		; std::locale::_Getfacet, COMDAT
; _this$ = ecx

; 413  : 		const facet *_Facptr = _Id < _Ptr->_Facetcount
; 414  : 			? _Ptr->_Facetvec[_Id] : 0;	// null if id off end

  00000	8b 09		 mov	 ecx, DWORD PTR [ecx]
  00002	56		 push	 esi
  00003	8b 74 24 08	 mov	 esi, DWORD PTR __Id$[esp]
  00007	3b 71 0c	 cmp	 esi, DWORD PTR [ecx+12]
  0000a	73 24		 jae	 SHORT $LN6@Getfacet
  0000c	8b 41 08	 mov	 eax, DWORD PTR [ecx+8]
  0000f	8b 04 b0	 mov	 eax, DWORD PTR [eax+esi*4]

; 415  : 		if (_Facptr != 0 || !_Ptr->_Xparent)

  00012	85 c0		 test	 eax, eax
  00014	75 20		 jne	 SHORT $LN1@Getfacet
$LN10@Getfacet:
  00016	80 79 14 00	 cmp	 BYTE PTR [ecx+20], 0
  0001a	74 1a		 je	 SHORT $LN1@Getfacet

; 416  : 			return (_Facptr);	// found facet or not transparent, return pointer
; 417  : 		else
; 418  : 			{	// look in current locale
; 419  : 			locale::_Locimp *_Ptr = _Getgloballocale();

  0001c	e8 00 00 00 00	 call	 ?_Getgloballocale@locale@std@@CAPAV_Locimp@12@XZ ; std::locale::_Getgloballocale

; 420  : 			return (_Id < _Ptr->_Facetcount
; 421  : 				? _Ptr->_Facetvec[_Id]	// get from current locale
; 422  : 				: 0);	// no entry in current locale

  00021	3b 70 0c	 cmp	 esi, DWORD PTR [eax+12]
  00024	73 0e		 jae	 SHORT $LN8@Getfacet
  00026	8b 48 08	 mov	 ecx, DWORD PTR [eax+8]
  00029	8b 04 b1	 mov	 eax, DWORD PTR [ecx+esi*4]
  0002c	5e		 pop	 esi

; 423  : 			}
; 424  : 		}

  0002d	c2 04 00	 ret	 4
$LN6@Getfacet:

; 413  : 		const facet *_Facptr = _Id < _Ptr->_Facetcount
; 414  : 			? _Ptr->_Facetvec[_Id] : 0;	// null if id off end

  00030	33 c0		 xor	 eax, eax

; 415  : 		if (_Facptr != 0 || !_Ptr->_Xparent)

  00032	eb e2		 jmp	 SHORT $LN10@Getfacet
$LN8@Getfacet:

; 420  : 			return (_Id < _Ptr->_Facetcount
; 421  : 				? _Ptr->_Facetvec[_Id]	// get from current locale
; 422  : 				: 0);	// no entry in current locale

  00034	33 c0		 xor	 eax, eax
$LN1@Getfacet:
  00036	5e		 pop	 esi

; 423  : 			}
; 424  : 		}

  00037	c2 04 00	 ret	 4
?_Getfacet@locale@std@@QBEPBVfacet@12@I@Z ENDP		; std::locale::_Getfacet
; Function compile flags: /Ogtpy
_TEXT	ENDS
;	COMDAT ??_Gfacet@locale@std@@UAEPAXI@Z
_TEXT	SEGMENT
___flags$ = 8						; size = 4
??_Gfacet@locale@std@@UAEPAXI@Z PROC			; std::locale::facet::`scalar deleting destructor', COMDAT
; _this$ = ecx
  00000	f6 44 24 04 01	 test	 BYTE PTR ___flags$[esp-4], 1
  00005	56		 push	 esi
  00006	8b f1		 mov	 esi, ecx
  00008	c7 06 00 00 00
	00		 mov	 DWORD PTR [esi], OFFSET ??_7facet@locale@std@@6B@
  0000e	74 09		 je	 SHORT $LN6@scalar@2
  00010	56		 push	 esi
  00011	e8 00 00 00 00	 call	 ??3@YAXPAX@Z		; operator delete
  00016	83 c4 04	 add	 esp, 4
$LN6@scalar@2:
  00019	8b c6		 mov	 eax, esi
  0001b	5e		 pop	 esi
  0001c	c2 04 00	 ret	 4
??_Gfacet@locale@std@@UAEPAXI@Z ENDP			; std::locale::facet::`scalar deleting destructor'
_TEXT	ENDS
PUBLIC	??_7ctype_base@std@@6B@				; std::ctype_base::`vftable'
PUBLIC	??0ctype_base@std@@QAE@I@Z			; std::ctype_base::ctype_base
PUBLIC	??_R4ctype_base@std@@6B@			; std::ctype_base::`RTTI Complete Object Locator'
PUBLIC	??_R0?AUctype_base@std@@@8			; std::ctype_base `RTTI Type Descriptor'
PUBLIC	??_R3ctype_base@std@@8				; std::ctype_base::`RTTI Class Hierarchy Descriptor'
PUBLIC	??_R2ctype_base@std@@8				; std::ctype_base::`RTTI Base Class Array'
PUBLIC	??_R1A@?0A@EA@ctype_base@std@@8			; std::ctype_base::`RTTI Base Class Descriptor at (0,-1,0,64)'
EXTRN	??_Ectype_base@std@@UAEPAXI@Z:PROC		; std::ctype_base::`vector deleting destructor'
;	COMDAT ??_R1A@?0A@EA@ctype_base@std@@8
rdata$r	SEGMENT
??_R1A@?0A@EA@ctype_base@std@@8 DD FLAT:??_R0?AUctype_base@std@@@8 ; std::ctype_base::`RTTI Base Class Descriptor at (0,-1,0,64)'
	DD	01H
	DD	00H
	DD	0ffffffffH
	DD	00H
	DD	040H
	DD	FLAT:??_R3ctype_base@std@@8
rdata$r	ENDS
;	COMDAT ??_R2ctype_base@std@@8
rdata$r	SEGMENT
??_R2ctype_base@std@@8 DD FLAT:??_R1A@?0A@EA@ctype_base@std@@8 ; std::ctype_base::`RTTI Base Class Array'
	DD	FLAT:??_R1A@?0A@EA@facet@locale@std@@8
rdata$r	ENDS
;	COMDAT ??_R3ctype_base@std@@8
rdata$r	SEGMENT
??_R3ctype_base@std@@8 DD 00H				; std::ctype_base::`RTTI Class Hierarchy Descriptor'
	DD	00H
	DD	02H
	DD	FLAT:??_R2ctype_base@std@@8
rdata$r	ENDS
;	COMDAT ??_R0?AUctype_base@std@@@8
_DATA	SEGMENT
??_R0?AUctype_base@std@@@8 DD FLAT:??_7type_info@@6B@	; std::ctype_base `RTTI Type Descriptor'
	DD	00H
	DB	'.?AUctype_base@std@@', 00H
_DATA	ENDS
;	COMDAT ??_R4ctype_base@std@@6B@
rdata$r	SEGMENT
??_R4ctype_base@std@@6B@ DD 00H				; std::ctype_base::`RTTI Complete Object Locator'
	DD	00H
	DD	00H
	DD	FLAT:??_R0?AUctype_base@std@@@8
	DD	FLAT:??_R3ctype_base@std@@8
rdata$r	ENDS
;	COMDAT ??_7ctype_base@std@@6B@
CONST	SEGMENT
??_7ctype_base@std@@6B@ DD FLAT:??_R4ctype_base@std@@6B@ ; std::ctype_base::`vftable'
	DD	FLAT:??_Ectype_base@std@@UAEPAXI@Z
; Function compile flags: /Ogtpy
CONST	ENDS
;	COMDAT ??0ctype_base@std@@QAE@I@Z
_TEXT	SEGMENT
__Refs$ = 8						; size = 4
??0ctype_base@std@@QAE@I@Z PROC				; std::ctype_base::ctype_base, COMDAT
; _this$ = ecx

; 1358 : 		{	// default constructor

  00000	8b c1		 mov	 eax, ecx
  00002	8b 4c 24 04	 mov	 ecx, DWORD PTR __Refs$[esp-4]
  00006	89 48 04	 mov	 DWORD PTR [eax+4], ecx
  00009	c7 00 00 00 00
	00		 mov	 DWORD PTR [eax], OFFSET ??_7ctype_base@std@@6B@

; 1359 : 		}

  0000f	c2 04 00	 ret	 4
??0ctype_base@std@@QAE@I@Z ENDP				; std::ctype_base::ctype_base
_TEXT	ENDS
PUBLIC	??1ctype_base@std@@UAE@XZ			; std::ctype_base::~ctype_base
; Function compile flags: /Ogtpy
;	COMDAT ??1ctype_base@std@@UAE@XZ
_TEXT	SEGMENT
??1ctype_base@std@@UAE@XZ PROC				; std::ctype_base::~ctype_base, COMDAT
; _this$ = ecx

; 1363 : 		}

  00000	c7 01 00 00 00
	00		 mov	 DWORD PTR [ecx], OFFSET ??_7facet@locale@std@@6B@
  00006	c3		 ret	 0
??1ctype_base@std@@UAE@XZ ENDP				; std::ctype_base::~ctype_base
; Function compile flags: /Ogtpy
_TEXT	ENDS
;	COMDAT ??_Gctype_base@std@@UAEPAXI@Z
_TEXT	SEGMENT
___flags$ = 8						; size = 4
??_Gctype_base@std@@UAEPAXI@Z PROC			; std::ctype_base::`scalar deleting destructor', COMDAT
; _this$ = ecx
  00000	f6 44 24 04 01	 test	 BYTE PTR ___flags$[esp-4], 1
  00005	56		 push	 esi
  00006	8b f1		 mov	 esi, ecx
  00008	c7 06 00 00 00
	00		 mov	 DWORD PTR [esi], OFFSET ??_7facet@locale@std@@6B@
  0000e	74 09		 je	 SHORT $LN8@scalar@3
  00010	56		 push	 esi
  00011	e8 00 00 00 00	 call	 ??3@YAXPAX@Z		; operator delete
  00016	83 c4 04	 add	 esp, 4
$LN8@scalar@3:
  00019	8b c6		 mov	 eax, esi
  0001b	5e		 pop	 esi
  0001c	c2 04 00	 ret	 4
??_Gctype_base@std@@UAEPAXI@Z ENDP			; std::ctype_base::`scalar deleting destructor'
_TEXT	ENDS
PUBLIC	?widen@?$ctype@D@std@@QBEDD@Z			; std::ctype<char>::widen
; Function compile flags: /Ogtpy
;	COMDAT ?widen@?$ctype@D@std@@QBEDD@Z
_TEXT	SEGMENT
__Byte$ = 8						; size = 1
?widen@?$ctype@D@std@@QBEDD@Z PROC			; std::ctype<char>::widen, COMDAT
; _this$ = ecx

; 1716 : 		return (do_widen(_Byte));

  00000	8b 01		 mov	 eax, DWORD PTR [ecx]
  00002	8b 40 18	 mov	 eax, DWORD PTR [eax+24]
  00005	ff e0		 jmp	 eax
?widen@?$ctype@D@std@@QBEDD@Z ENDP			; std::ctype<char>::widen
_TEXT	ENDS
PUBLIC	?_Init@?$ctype@D@std@@IAEXABV_Locinfo@2@@Z	; std::ctype<char>::_Init
; Function compile flags: /Ogtpy
;	COMDAT ?_Init@?$ctype@D@std@@IAEXABV_Locinfo@2@@Z
_TEXT	SEGMENT
$T157395 = -16						; size = 16
__Lobj$ = 8						; size = 4
?_Init@?$ctype@D@std@@IAEXABV_Locinfo@2@@Z PROC		; std::ctype<char>::_Init, COMDAT
; _this$ = ecx

; 1807 : 		{	// initialize from _Lobj

  00000	83 ec 10	 sub	 esp, 16			; 00000010H
  00003	56		 push	 esi

; 1808 : 		_Ctype = _Lobj._Getctype();

  00004	8d 44 24 04	 lea	 eax, DWORD PTR $T157395[esp+20]
  00008	50		 push	 eax
  00009	8b f1		 mov	 esi, ecx
  0000b	e8 00 00 00 00	 call	 __Getctype
  00010	8b 08		 mov	 ecx, DWORD PTR [eax]
  00012	89 4e 08	 mov	 DWORD PTR [esi+8], ecx
  00015	8b 50 04	 mov	 edx, DWORD PTR [eax+4]
  00018	89 56 0c	 mov	 DWORD PTR [esi+12], edx
  0001b	8b 48 08	 mov	 ecx, DWORD PTR [eax+8]
  0001e	89 4e 10	 mov	 DWORD PTR [esi+16], ecx
  00021	8b 50 0c	 mov	 edx, DWORD PTR [eax+12]
  00024	83 c4 04	 add	 esp, 4
  00027	89 56 14	 mov	 DWORD PTR [esi+20], edx
  0002a	5e		 pop	 esi

; 1809 : 		}

  0002b	83 c4 10	 add	 esp, 16			; 00000010H
  0002e	c2 04 00	 ret	 4
?_Init@?$ctype@D@std@@IAEXABV_Locinfo@2@@Z ENDP		; std::ctype<char>::_Init
_TEXT	ENDS
PUBLIC	?widen@?$ctype@_W@std@@QBE_WD@Z			; std::ctype<wchar_t>::widen
; Function compile flags: /Ogtpy
;	COMDAT ?widen@?$ctype@_W@std@@QBE_WD@Z
_TEXT	SEGMENT
__Byte$ = 8						; size = 1
?widen@?$ctype@_W@std@@QBE_WD@Z PROC			; std::ctype<wchar_t>::widen, COMDAT
; _this$ = ecx

; 1965 : 		return (do_widen(_Byte));

  00000	8b 01		 mov	 eax, DWORD PTR [ecx]
  00002	8b 40 28	 mov	 eax, DWORD PTR [eax+40]
  00005	ff e0		 jmp	 eax
?widen@?$ctype@_W@std@@QBE_WD@Z ENDP			; std::ctype<wchar_t>::widen
_TEXT	ENDS
PUBLIC	?_Init@?$ctype@_W@std@@IAEXABV_Locinfo@2@@Z	; std::ctype<wchar_t>::_Init
; Function compile flags: /Ogtpy
;	COMDAT ?_Init@?$ctype@_W@std@@IAEXABV_Locinfo@2@@Z
_TEXT	SEGMENT
$T157409 = -16						; size = 16
__Lobj$ = 8						; size = 4
?_Init@?$ctype@_W@std@@IAEXABV_Locinfo@2@@Z PROC	; std::ctype<wchar_t>::_Init, COMDAT
; _this$ = ecx

; 2047 : 		{	// initialize from _Lobj

  00000	83 ec 10	 sub	 esp, 16			; 00000010H
  00003	56		 push	 esi

; 2048 : 		_Ctype = _Lobj._Getctype();

  00004	8d 44 24 04	 lea	 eax, DWORD PTR $T157409[esp+20]
  00008	50		 push	 eax
  00009	8b f1		 mov	 esi, ecx
  0000b	e8 00 00 00 00	 call	 __Getctype
  00010	8b 08		 mov	 ecx, DWORD PTR [eax]
  00012	89 4e 08	 mov	 DWORD PTR [esi+8], ecx
  00015	8b 50 04	 mov	 edx, DWORD PTR [eax+4]
  00018	89 56 0c	 mov	 DWORD PTR [esi+12], edx
  0001b	8b 48 08	 mov	 ecx, DWORD PTR [eax+8]
  0001e	89 4e 10	 mov	 DWORD PTR [esi+16], ecx
  00021	8b 50 0c	 mov	 edx, DWORD PTR [eax+12]
  00024	83 c4 04	 add	 esp, 4
  00027	89 56 14	 mov	 DWORD PTR [esi+20], edx

; 2049 : 		_Cvt = _Lobj._Getcvt();

  0002a	e8 00 00 00 00	 call	 __Getcvt
  0002f	89 46 18	 mov	 DWORD PTR [esi+24], eax
  00032	89 56 1c	 mov	 DWORD PTR [esi+28], edx
  00035	5e		 pop	 esi

; 2050 : 		}

  00036	83 c4 10	 add	 esp, 16			; 00000010H
  00039	c2 04 00	 ret	 4
?_Init@?$ctype@_W@std@@IAEXABV_Locinfo@2@@Z ENDP	; std::ctype<wchar_t>::_Init
_TEXT	ENDS
PUBLIC	?rdstate@ios_base@std@@QBEHXZ			; std::ios_base::rdstate
; Function compile flags: /Ogtpy
; File c:\program files (x86)\microsoft visual studio 9.0\vc\include\xiosbase
;	COMDAT ?rdstate@ios_base@std@@QBEHXZ
_TEXT	SEGMENT
?rdstate@ios_base@std@@QBEHXZ PROC			; std::ios_base::rdstate, COMDAT
; _this$ = ecx

; 311  : 		return (_Mystate);

  00000	8b 41 08	 mov	 eax, DWORD PTR [ecx+8]

; 312  : 		}

  00003	c3		 ret	 0
?rdstate@ios_base@std@@QBEHXZ ENDP			; std::ios_base::rdstate
_TEXT	ENDS
PUBLIC	?good@ios_base@std@@QBE_NXZ			; std::ios_base::good
; Function compile flags: /Ogtpy
;	COMDAT ?good@ios_base@std@@QBE_NXZ
_TEXT	SEGMENT
?good@ios_base@std@@QBE_NXZ PROC			; std::ios_base::good, COMDAT
; _this$ = ecx

; 334  : 		return (rdstate() == goodbit);

  00000	33 c0		 xor	 eax, eax
  00002	39 41 08	 cmp	 DWORD PTR [ecx+8], eax
  00005	0f 94 c0	 sete	 al

; 335  : 		}

  00008	c3		 ret	 0
?good@ios_base@std@@QBE_NXZ ENDP			; std::ios_base::good
_TEXT	ENDS
PUBLIC	?fail@ios_base@std@@QBE_NXZ			; std::ios_base::fail
; Function compile flags: /Ogtpy
;	COMDAT ?fail@ios_base@std@@QBE_NXZ
_TEXT	SEGMENT
?fail@ios_base@std@@QBE_NXZ PROC			; std::ios_base::fail, COMDAT
; _this$ = ecx

; 344  : 		return (((int)rdstate()
; 345  : 			& ((int)badbit | (int)failbit)) != 0);

  00000	f6 41 08 06	 test	 BYTE PTR [ecx+8], 6
  00004	b8 00 00 00 00	 mov	 eax, 0
  00009	0f 95 c0	 setne	 al

; 346  : 		}

  0000c	c3		 ret	 0
?fail@ios_base@std@@QBE_NXZ ENDP			; std::ios_base::fail
_TEXT	ENDS
PUBLIC	?flags@ios_base@std@@QBEHXZ			; std::ios_base::flags
; Function compile flags: /Ogtpy
;	COMDAT ?flags@ios_base@std@@QBEHXZ
_TEXT	SEGMENT
?flags@ios_base@std@@QBEHXZ PROC			; std::ios_base::flags, COMDAT
; _this$ = ecx

; 374  : 		return (_Fmtfl);

  00000	8b 41 10	 mov	 eax, DWORD PTR [ecx+16]

; 375  : 		}

  00003	c3		 ret	 0
?flags@ios_base@std@@QBEHXZ ENDP			; std::ios_base::flags
_TEXT	ENDS
PUBLIC	?width@ios_base@std@@QBEHXZ			; std::ios_base::width
; Function compile flags: /Ogtpy
;	COMDAT ?width@ios_base@std@@QBEHXZ
_TEXT	SEGMENT
?width@ios_base@std@@QBEHXZ PROC			; std::ios_base::width, COMDAT
; _this$ = ecx

; 419  : 		return (_Wide);

  00000	8b 41 18	 mov	 eax, DWORD PTR [ecx+24]

; 420  : 		}

  00003	c3		 ret	 0
?width@ios_base@std@@QBEHXZ ENDP			; std::ios_base::width
_TEXT	ENDS
PUBLIC	?width@ios_base@std@@QAEHH@Z			; std::ios_base::width
; Function compile flags: /Ogtpy
;	COMDAT ?width@ios_base@std@@QAEHH@Z
_TEXT	SEGMENT
__Newwidth$ = 8						; size = 4
?width@ios_base@std@@QAEHH@Z PROC			; std::ios_base::width, COMDAT
; _this$ = ecx

; 424  : 		streamsize _Oldwidth = _Wide;
; 425  : 		_Wide = _Newwidth;

  00000	8b 54 24 04	 mov	 edx, DWORD PTR __Newwidth$[esp-4]
  00004	8b 41 18	 mov	 eax, DWORD PTR [ecx+24]
  00007	89 51 18	 mov	 DWORD PTR [ecx+24], edx

; 426  : 		return (_Oldwidth);
; 427  : 		}

  0000a	c2 04 00	 ret	 4
?width@ios_base@std@@QAEHH@Z ENDP			; std::ios_base::width
_TEXT	ENDS
PUBLIC	?getloc@ios_base@std@@QBE?AVlocale@2@XZ		; std::ios_base::getloc
; Function compile flags: /Ogtpy
;	COMDAT ?getloc@ios_base@std@@QBE?AVlocale@2@XZ
_TEXT	SEGMENT
$T157438 = -4						; size = 4
__Lock$157451 = 8					; size = 4
___$ReturnUdt$ = 8					; size = 4
?getloc@ios_base@std@@QBE?AVlocale@2@XZ PROC		; std::ios_base::getloc, COMDAT
; _this$ = ecx

; 430  : 		{	// get locale

  00000	51		 push	 ecx

; 431  : 		return (*_Ploc);

  00001	8b 41 24	 mov	 eax, DWORD PTR [ecx+36]
  00004	56		 push	 esi
  00005	8b 30		 mov	 esi, DWORD PTR [eax]
  00007	57		 push	 edi
  00008	8b 7c 24 10	 mov	 edi, DWORD PTR ___$ReturnUdt$[esp+8]
  0000c	6a 00		 push	 0
  0000e	8d 4c 24 14	 lea	 ecx, DWORD PTR __Lock$157451[esp+12]
  00012	c7 44 24 0c 00
	00 00 00	 mov	 DWORD PTR $T157438[esp+16], 0
  0001a	89 37		 mov	 DWORD PTR [edi], esi
  0001c	e8 00 00 00 00	 call	 ??0_Lockit@std@@QAE@H@Z	; std::_Lockit::_Lockit
  00021	8b 46 04	 mov	 eax, DWORD PTR [esi+4]
  00024	83 f8 ff	 cmp	 eax, -1
  00027	73 04		 jae	 SHORT $LN7@getloc
  00029	40		 inc	 eax
  0002a	89 46 04	 mov	 DWORD PTR [esi+4], eax
$LN7@getloc:
  0002d	8d 4c 24 10	 lea	 ecx, DWORD PTR __Lock$157451[esp+8]
  00031	e8 00 00 00 00	 call	 ??1_Lockit@std@@QAE@XZ	; std::_Lockit::~_Lockit
  00036	8b c7		 mov	 eax, edi
  00038	5f		 pop	 edi
  00039	5e		 pop	 esi

; 432  : 		}

  0003a	59		 pop	 ecx
  0003b	c2 04 00	 ret	 4
?getloc@ios_base@std@@QBE?AVlocale@2@XZ ENDP		; std::ios_base::getloc
_TEXT	ENDS
PUBLIC	??_7ios_base@std@@6B@				; std::ios_base::`vftable'
PUBLIC	??1ios_base@std@@UAE@XZ				; std::ios_base::~ios_base
PUBLIC	??_R4ios_base@std@@6B@				; std::ios_base::`RTTI Complete Object Locator'
PUBLIC	??_R0?AVios_base@std@@@8			; std::ios_base `RTTI Type Descriptor'
PUBLIC	??_R3ios_base@std@@8				; std::ios_base::`RTTI Class Hierarchy Descriptor'
PUBLIC	??_R2ios_base@std@@8				; std::ios_base::`RTTI Base Class Array'
PUBLIC	??_R1A@?0A@EA@ios_base@std@@8			; std::ios_base::`RTTI Base Class Descriptor at (0,-1,0,64)'
PUBLIC	??_R13?0A@EA@?$_Iosb@H@std@@8			; std::_Iosb<int>::`RTTI Base Class Descriptor at (4,-1,0,64)'
PUBLIC	??_R0?AV?$_Iosb@H@std@@@8			; std::_Iosb<int> `RTTI Type Descriptor'
PUBLIC	??_R3?$_Iosb@H@std@@8				; std::_Iosb<int>::`RTTI Class Hierarchy Descriptor'
PUBLIC	??_R2?$_Iosb@H@std@@8				; std::_Iosb<int>::`RTTI Base Class Array'
PUBLIC	??_R1A@?0A@EA@?$_Iosb@H@std@@8			; std::_Iosb<int>::`RTTI Base Class Descriptor at (0,-1,0,64)'
EXTRN	?_Ios_base_dtor@ios_base@std@@CAXPAV12@@Z:PROC	; std::ios_base::_Ios_base_dtor
EXTRN	??_Eios_base@std@@UAEPAXI@Z:PROC		; std::ios_base::`vector deleting destructor'
;	COMDAT ??_R1A@?0A@EA@?$_Iosb@H@std@@8
rdata$r	SEGMENT
??_R1A@?0A@EA@?$_Iosb@H@std@@8 DD FLAT:??_R0?AV?$_Iosb@H@std@@@8 ; std::_Iosb<int>::`RTTI Base Class Descriptor at (0,-1,0,64)'
	DD	00H
	DD	00H
	DD	0ffffffffH
	DD	00H
	DD	040H
	DD	FLAT:??_R3?$_Iosb@H@std@@8
rdata$r	ENDS
;	COMDAT ??_R2?$_Iosb@H@std@@8
rdata$r	SEGMENT
??_R2?$_Iosb@H@std@@8 DD FLAT:??_R1A@?0A@EA@?$_Iosb@H@std@@8 ; std::_Iosb<int>::`RTTI Base Class Array'
rdata$r	ENDS
;	COMDAT ??_R3?$_Iosb@H@std@@8
rdata$r	SEGMENT
??_R3?$_Iosb@H@std@@8 DD 00H				; std::_Iosb<int>::`RTTI Class Hierarchy Descriptor'
	DD	00H
	DD	01H
	DD	FLAT:??_R2?$_Iosb@H@std@@8
rdata$r	ENDS
;	COMDAT ??_R0?AV?$_Iosb@H@std@@@8
_DATA	SEGMENT
??_R0?AV?$_Iosb@H@std@@@8 DD FLAT:??_7type_info@@6B@	; std::_Iosb<int> `RTTI Type Descriptor'
	DD	00H
	DB	'.?AV?$_Iosb@H@std@@', 00H
_DATA	ENDS
;	COMDAT ??_R13?0A@EA@?$_Iosb@H@std@@8
rdata$r	SEGMENT
??_R13?0A@EA@?$_Iosb@H@std@@8 DD FLAT:??_R0?AV?$_Iosb@H@std@@@8 ; std::_Iosb<int>::`RTTI Base Class Descriptor at (4,-1,0,64)'
	DD	00H
	DD	04H
	DD	0ffffffffH
	DD	00H
	DD	040H
	DD	FLAT:??_R3?$_Iosb@H@std@@8
rdata$r	ENDS
;	COMDAT ??_R1A@?0A@EA@ios_base@std@@8
rdata$r	SEGMENT
??_R1A@?0A@EA@ios_base@std@@8 DD FLAT:??_R0?AVios_base@std@@@8 ; std::ios_base::`RTTI Base Class Descriptor at (0,-1,0,64)'
	DD	01H
	DD	00H
	DD	0ffffffffH
	DD	00H
	DD	040H
	DD	FLAT:??_R3ios_base@std@@8
rdata$r	ENDS
;	COMDAT ??_R2ios_base@std@@8
rdata$r	SEGMENT
??_R2ios_base@std@@8 DD FLAT:??_R1A@?0A@EA@ios_base@std@@8 ; std::ios_base::`RTTI Base Class Array'
	DD	FLAT:??_R13?0A@EA@?$_Iosb@H@std@@8
rdata$r	ENDS
;	COMDAT ??_R3ios_base@std@@8
rdata$r	SEGMENT
??_R3ios_base@std@@8 DD 00H				; std::ios_base::`RTTI Class Hierarchy Descriptor'
	DD	00H
	DD	02H
	DD	FLAT:??_R2ios_base@std@@8
rdata$r	ENDS
;	COMDAT ??_R0?AVios_base@std@@@8
_DATA	SEGMENT
??_R0?AVios_base@std@@@8 DD FLAT:??_7type_info@@6B@	; std::ios_base `RTTI Type Descriptor'
	DD	00H
	DB	'.?AVios_base@std@@', 00H
_DATA	ENDS
;	COMDAT ??_R4ios_base@std@@6B@
rdata$r	SEGMENT
??_R4ios_base@std@@6B@ DD 00H				; std::ios_base::`RTTI Complete Object Locator'
	DD	00H
	DD	00H
	DD	FLAT:??_R0?AVios_base@std@@@8
	DD	FLAT:??_R3ios_base@std@@8
rdata$r	ENDS
;	COMDAT ??_7ios_base@std@@6B@
CONST	SEGMENT
??_7ios_base@std@@6B@ DD FLAT:??_R4ios_base@std@@6B@	; std::ios_base::`vftable'
	DD	FLAT:??_Eios_base@std@@UAEPAXI@Z
; Function compile flags: /Ogtpy
CONST	ENDS
;	COMDAT ??1ios_base@std@@UAE@XZ
_TEXT	SEGMENT
??1ios_base@std@@UAE@XZ PROC				; std::ios_base::~ios_base, COMDAT
; _this$ = ecx

; 494  :         _Ios_base_dtor(this);

  00000	51		 push	 ecx
  00001	c7 01 00 00 00
	00		 mov	 DWORD PTR [ecx], OFFSET ??_7ios_base@std@@6B@
  00007	e8 00 00 00 00	 call	 ?_Ios_base_dtor@ios_base@std@@CAXPAV12@@Z ; std::ios_base::_Ios_base_dtor
  0000c	59		 pop	 ecx

; 495  :         }

  0000d	c3		 ret	 0
??1ios_base@std@@UAE@XZ ENDP				; std::ios_base::~ios_base
_TEXT	ENDS
PUBLIC	??0ios_base@std@@IAE@XZ				; std::ios_base::ios_base
; Function compile flags: /Ogtpy
;	COMDAT ??0ios_base@std@@IAE@XZ
_TEXT	SEGMENT
??0ios_base@std@@IAE@XZ PROC				; std::ios_base::ios_base, COMDAT
; _this$ = ecx

; 510  : 	__CLR_OR_THIS_CALL ios_base()

  00000	8b c1		 mov	 eax, ecx
  00002	c7 00 00 00 00
	00		 mov	 DWORD PTR [eax], OFFSET ??_7ios_base@std@@6B@

; 511  : 		{	// default constructor
; 512  : 		}

  00008	c3		 ret	 0
??0ios_base@std@@IAE@XZ ENDP				; std::ios_base::ios_base
; Function compile flags: /Ogtpy
_TEXT	ENDS
;	COMDAT ??_Gios_base@std@@UAEPAXI@Z
_TEXT	SEGMENT
___flags$ = 8						; size = 4
??_Gios_base@std@@UAEPAXI@Z PROC			; std::ios_base::`scalar deleting destructor', COMDAT
; _this$ = ecx
  00000	56		 push	 esi
  00001	8b f1		 mov	 esi, ecx
  00003	56		 push	 esi
  00004	c7 06 00 00 00
	00		 mov	 DWORD PTR [esi], OFFSET ??_7ios_base@std@@6B@
  0000a	e8 00 00 00 00	 call	 ?_Ios_base_dtor@ios_base@std@@CAXPAV12@@Z ; std::ios_base::_Ios_base_dtor
  0000f	83 c4 04	 add	 esp, 4
  00012	f6 44 24 08 01	 test	 BYTE PTR ___flags$[esp], 1
  00017	74 09		 je	 SHORT $LN6@scalar@4
  00019	56		 push	 esi
  0001a	e8 00 00 00 00	 call	 ??3@YAXPAX@Z		; operator delete
  0001f	83 c4 04	 add	 esp, 4
$LN6@scalar@4:
  00022	8b c6		 mov	 eax, esi
  00024	5e		 pop	 esi
  00025	c2 04 00	 ret	 4
??_Gios_base@std@@UAEPAXI@Z ENDP			; std::ios_base::`scalar deleting destructor'
_TEXT	ENDS
PUBLIC	??_7Container@ForEach@CipherShed@@6B@		; CipherShed::ForEach::Container::`vftable'
PUBLIC	??0Container@ForEach@CipherShed@@QAE@XZ		; CipherShed::ForEach::Container::Container
PUBLIC	??_R4Container@ForEach@CipherShed@@6B@		; CipherShed::ForEach::Container::`RTTI Complete Object Locator'
PUBLIC	??_R0?AUContainer@ForEach@CipherShed@@@8	; CipherShed::ForEach::Container `RTTI Type Descriptor'
PUBLIC	??_R3Container@ForEach@CipherShed@@8		; CipherShed::ForEach::Container::`RTTI Class Hierarchy Descriptor'
PUBLIC	??_R2Container@ForEach@CipherShed@@8		; CipherShed::ForEach::Container::`RTTI Base Class Array'
PUBLIC	??_R1A@?0A@EA@Container@ForEach@CipherShed@@8	; CipherShed::ForEach::Container::`RTTI Base Class Descriptor at (0,-1,0,64)'
EXTRN	??_EContainer@ForEach@CipherShed@@UAEPAXI@Z:PROC ; CipherShed::ForEach::Container::`vector deleting destructor'
EXTRN	__purecall:PROC
;	COMDAT ??_R1A@?0A@EA@Container@ForEach@CipherShed@@8
; File c:\home\public\desktop\projects\ciphershed\src\platform\foreach.h
rdata$r	SEGMENT
??_R1A@?0A@EA@Container@ForEach@CipherShed@@8 DD FLAT:??_R0?AUContainer@ForEach@CipherShed@@@8 ; CipherShed::ForEach::Container::`RTTI Base Class Descriptor at (0,-1,0,64)'
	DD	00H
	DD	00H
	DD	0ffffffffH
	DD	00H
	DD	040H
	DD	FLAT:??_R3Container@ForEach@CipherShed@@8
rdata$r	ENDS
;	COMDAT ??_R2Container@ForEach@CipherShed@@8
rdata$r	SEGMENT
??_R2Container@ForEach@CipherShed@@8 DD FLAT:??_R1A@?0A@EA@Container@ForEach@CipherShed@@8 ; CipherShed::ForEach::Container::`RTTI Base Class Array'
rdata$r	ENDS
;	COMDAT ??_R3Container@ForEach@CipherShed@@8
rdata$r	SEGMENT
??_R3Container@ForEach@CipherShed@@8 DD 00H		; CipherShed::ForEach::Container::`RTTI Class Hierarchy Descriptor'
	DD	00H
	DD	01H
	DD	FLAT:??_R2Container@ForEach@CipherShed@@8
rdata$r	ENDS
;	COMDAT ??_R0?AUContainer@ForEach@CipherShed@@@8
_DATA	SEGMENT
??_R0?AUContainer@ForEach@CipherShed@@@8 DD FLAT:??_7type_info@@6B@ ; CipherShed::ForEach::Container `RTTI Type Descriptor'
	DD	00H
	DB	'.?AUContainer@ForEach@CipherShed@@', 00H
_DATA	ENDS
;	COMDAT ??_R4Container@ForEach@CipherShed@@6B@
rdata$r	SEGMENT
??_R4Container@ForEach@CipherShed@@6B@ DD 00H		; CipherShed::ForEach::Container::`RTTI Complete Object Locator'
	DD	00H
	DD	00H
	DD	FLAT:??_R0?AUContainer@ForEach@CipherShed@@@8
	DD	FLAT:??_R3Container@ForEach@CipherShed@@8
rdata$r	ENDS
;	COMDAT ??_7Container@ForEach@CipherShed@@6B@
CONST	SEGMENT
??_7Container@ForEach@CipherShed@@6B@ DD FLAT:??_R4Container@ForEach@CipherShed@@6B@ ; CipherShed::ForEach::Container::`vftable'
	DD	FLAT:??_EContainer@ForEach@CipherShed@@UAEPAXI@Z
	DD	FLAT:__purecall
	DD	FLAT:__purecall
; Function compile flags: /Ogtpy
CONST	ENDS
;	COMDAT ??0Container@ForEach@CipherShed@@QAE@XZ
_TEXT	SEGMENT
??0Container@ForEach@CipherShed@@QAE@XZ PROC		; CipherShed::ForEach::Container::Container, COMDAT
; _this$ = ecx

; 19   : 			Container () : InnerContinue (true), InnerEndCondition (false) { }

  00000	8b c1		 mov	 eax, ecx
  00002	c7 00 00 00 00
	00		 mov	 DWORD PTR [eax], OFFSET ??_7Container@ForEach@CipherShed@@6B@
  00008	c6 40 04 01	 mov	 BYTE PTR [eax+4], 1
  0000c	c6 40 05 00	 mov	 BYTE PTR [eax+5], 0
  00010	c3		 ret	 0
??0Container@ForEach@CipherShed@@QAE@XZ ENDP		; CipherShed::ForEach::Container::Container
_TEXT	ENDS
PUBLIC	??1Container@ForEach@CipherShed@@UAE@XZ		; CipherShed::ForEach::Container::~Container
; Function compile flags: /Ogtpy
;	COMDAT ??1Container@ForEach@CipherShed@@UAE@XZ
_TEXT	SEGMENT
??1Container@ForEach@CipherShed@@UAE@XZ PROC		; CipherShed::ForEach::Container::~Container, COMDAT
; _this$ = ecx

; 20   : 			virtual ~Container () { }

  00000	c7 01 00 00 00
	00		 mov	 DWORD PTR [ecx], OFFSET ??_7Container@ForEach@CipherShed@@6B@
  00006	c3		 ret	 0
??1Container@ForEach@CipherShed@@UAE@XZ ENDP		; CipherShed::ForEach::Container::~Container
_TEXT	ENDS
PUBLIC	?Continue@Container@ForEach@CipherShed@@QBEXXZ	; CipherShed::ForEach::Container::Continue
; Function compile flags: /Ogtpy
;	COMDAT ?Continue@Container@ForEach@CipherShed@@QBEXXZ
_TEXT	SEGMENT
?Continue@Container@ForEach@CipherShed@@QBEXXZ PROC	; CipherShed::ForEach::Container::Continue, COMDAT
; _this$ = ecx

; 22   : 			void Continue () const { InnerContinue = true; }

  00000	c6 41 04 01	 mov	 BYTE PTR [ecx+4], 1
  00004	c3		 ret	 0
?Continue@Container@ForEach@CipherShed@@QBEXXZ ENDP	; CipherShed::ForEach::Container::Continue
_TEXT	ENDS
PUBLIC	?InnerIsNotEnd@Container@ForEach@CipherShed@@QBE_NXZ ; CipherShed::ForEach::Container::InnerIsNotEnd
; Function compile flags: /Ogtpy
;	COMDAT ?InnerIsNotEnd@Container@ForEach@CipherShed@@QBE_NXZ
_TEXT	SEGMENT
?InnerIsNotEnd@Container@ForEach@CipherShed@@QBE_NXZ PROC ; CipherShed::ForEach::Container::InnerIsNotEnd, COMDAT
; _this$ = ecx

; 23   : 			bool InnerIsNotEnd () const { return InnerEndCondition = !InnerEndCondition; }

  00000	80 79 05 00	 cmp	 BYTE PTR [ecx+5], 0
  00004	0f 94 c0	 sete	 al
  00007	88 41 05	 mov	 BYTE PTR [ecx+5], al
  0000a	c3		 ret	 0
?InnerIsNotEnd@Container@ForEach@CipherShed@@QBE_NXZ ENDP ; CipherShed::ForEach::Container::InnerIsNotEnd
; Function compile flags: /Ogtpy
_TEXT	ENDS
;	COMDAT ??_GContainer@ForEach@CipherShed@@UAEPAXI@Z
_TEXT	SEGMENT
___flags$ = 8						; size = 4
??_GContainer@ForEach@CipherShed@@UAEPAXI@Z PROC	; CipherShed::ForEach::Container::`scalar deleting destructor', COMDAT
; _this$ = ecx
  00000	f6 44 24 04 01	 test	 BYTE PTR ___flags$[esp-4], 1
  00005	56		 push	 esi
  00006	8b f1		 mov	 esi, ecx
  00008	c7 06 00 00 00
	00		 mov	 DWORD PTR [esi], OFFSET ??_7Container@ForEach@CipherShed@@6B@
  0000e	74 09		 je	 SHORT $LN6@scalar@5
  00010	56		 push	 esi
  00011	e8 00 00 00 00	 call	 ??3@YAXPAX@Z		; operator delete
  00016	83 c4 04	 add	 esp, 4
$LN6@scalar@5:
  00019	8b c6		 mov	 eax, esi
  0001b	5e		 pop	 esi
  0001c	c2 04 00	 ret	 4
??_GContainer@ForEach@CipherShed@@UAEPAXI@Z ENDP	; CipherShed::ForEach::Container::`scalar deleting destructor'
_TEXT	ENDS
PUBLIC	??_7Thank_you@Define_the_symbol__ATL_MIXED@@6B@	; Define_the_symbol__ATL_MIXED::Thank_you::`vftable'
PUBLIC	??0Thank_you@Define_the_symbol__ATL_MIXED@@QAE@XZ ; Define_the_symbol__ATL_MIXED::Thank_you::Thank_you
PUBLIC	??_R4Thank_you@Define_the_symbol__ATL_MIXED@@6B@ ; Define_the_symbol__ATL_MIXED::Thank_you::`RTTI Complete Object Locator'
PUBLIC	??_R0?AUThank_you@Define_the_symbol__ATL_MIXED@@@8 ; Define_the_symbol__ATL_MIXED::Thank_you `RTTI Type Descriptor'
PUBLIC	??_R3Thank_you@Define_the_symbol__ATL_MIXED@@8	; Define_the_symbol__ATL_MIXED::Thank_you::`RTTI Class Hierarchy Descriptor'
PUBLIC	??_R2Thank_you@Define_the_symbol__ATL_MIXED@@8	; Define_the_symbol__ATL_MIXED::Thank_you::`RTTI Base Class Array'
PUBLIC	??_R1A@?0A@EA@Thank_you@Define_the_symbol__ATL_MIXED@@8 ; Define_the_symbol__ATL_MIXED::Thank_you::`RTTI Base Class Descriptor at (0,-1,0,64)'
PUBLIC	?one@Thank_you@Define_the_symbol__ATL_MIXED@@UAEXXZ ; Define_the_symbol__ATL_MIXED::Thank_you::one
;	COMDAT ??_R1A@?0A@EA@Thank_you@Define_the_symbol__ATL_MIXED@@8
rdata$r	SEGMENT
??_R1A@?0A@EA@Thank_you@Define_the_symbol__ATL_MIXED@@8 DD FLAT:??_R0?AUThank_you@Define_the_symbol__ATL_MIXED@@@8 ; Define_the_symbol__ATL_MIXED::Thank_you::`RTTI Base Class Descriptor at (0,-1,0,64)'
	DD	00H
	DD	00H
	DD	0ffffffffH
	DD	00H
	DD	040H
	DD	FLAT:??_R3Thank_you@Define_the_symbol__ATL_MIXED@@8
rdata$r	ENDS
;	COMDAT ??_R2Thank_you@Define_the_symbol__ATL_MIXED@@8
rdata$r	SEGMENT
??_R2Thank_you@Define_the_symbol__ATL_MIXED@@8 DD FLAT:??_R1A@?0A@EA@Thank_you@Define_the_symbol__ATL_MIXED@@8 ; Define_the_symbol__ATL_MIXED::Thank_you::`RTTI Base Class Array'
rdata$r	ENDS
;	COMDAT ??_R3Thank_you@Define_the_symbol__ATL_MIXED@@8
rdata$r	SEGMENT
??_R3Thank_you@Define_the_symbol__ATL_MIXED@@8 DD 00H	; Define_the_symbol__ATL_MIXED::Thank_you::`RTTI Class Hierarchy Descriptor'
	DD	00H
	DD	01H
	DD	FLAT:??_R2Thank_you@Define_the_symbol__ATL_MIXED@@8
rdata$r	ENDS
;	COMDAT ??_R0?AUThank_you@Define_the_symbol__ATL_MIXED@@@8
_DATA	SEGMENT
??_R0?AUThank_you@Define_the_symbol__ATL_MIXED@@@8 DD FLAT:??_7type_info@@6B@ ; Define_the_symbol__ATL_MIXED::Thank_you `RTTI Type Descriptor'
	DD	00H
	DB	'.?AUThank_you@Define_the_symbol__ATL_MIXED@@', 00H
_DATA	ENDS
;	COMDAT ??_R4Thank_you@Define_the_symbol__ATL_MIXED@@6B@
rdata$r	SEGMENT
??_R4Thank_you@Define_the_symbol__ATL_MIXED@@6B@ DD 00H	; Define_the_symbol__ATL_MIXED::Thank_you::`RTTI Complete Object Locator'
	DD	00H
	DD	00H
	DD	FLAT:??_R0?AUThank_you@Define_the_symbol__ATL_MIXED@@@8
	DD	FLAT:??_R3Thank_you@Define_the_symbol__ATL_MIXED@@8
rdata$r	ENDS
;	COMDAT ??_7Thank_you@Define_the_symbol__ATL_MIXED@@6B@
CONST	SEGMENT
??_7Thank_you@Define_the_symbol__ATL_MIXED@@6B@ DD FLAT:??_R4Thank_you@Define_the_symbol__ATL_MIXED@@6B@ ; Define_the_symbol__ATL_MIXED::Thank_you::`vftable'
	DD	FLAT:?one@Thank_you@Define_the_symbol__ATL_MIXED@@UAEXXZ
; Function compile flags: /Ogtpy
CONST	ENDS
;	COMDAT ??0Thank_you@Define_the_symbol__ATL_MIXED@@QAE@XZ
_TEXT	SEGMENT
??0Thank_you@Define_the_symbol__ATL_MIXED@@QAE@XZ PROC	; Define_the_symbol__ATL_MIXED::Thank_you::Thank_you, COMDAT
; _this$ = ecx
  00000	8b c1		 mov	 eax, ecx
  00002	c7 00 00 00 00
	00		 mov	 DWORD PTR [eax], OFFSET ??_7Thank_you@Define_the_symbol__ATL_MIXED@@6B@
  00008	c3		 ret	 0
??0Thank_you@Define_the_symbol__ATL_MIXED@@QAE@XZ ENDP	; Define_the_symbol__ATL_MIXED::Thank_you::Thank_you
; Function compile flags: /Ogtpy
; File c:\program files (x86)\microsoft visual studio 9.0\vc\atlmfc\include\atldef.h
_TEXT	ENDS
;	COMDAT ?one@Thank_you@Define_the_symbol__ATL_MIXED@@UAEXXZ
_TEXT	SEGMENT
?one@Thank_you@Define_the_symbol__ATL_MIXED@@UAEXXZ PROC ; Define_the_symbol__ATL_MIXED::Thank_you::one, COMDAT
; _this$ = ecx

; 80   : 	struct Thank_you { virtual void one(){} };

  00000	c3		 ret	 0
?one@Thank_you@Define_the_symbol__ATL_MIXED@@UAEXXZ ENDP ; Define_the_symbol__ATL_MIXED::Thank_you::one
_TEXT	ENDS
PUBLIC	?Free@CCRTAllocator@ATL@@SAXPAX@Z		; ATL::CCRTAllocator::Free
EXTRN	_free:PROC
; Function compile flags: /Ogtpy
; File c:\program files (x86)\microsoft visual studio 9.0\vc\atlmfc\include\atlalloc.h
;	COMDAT ?Free@CCRTAllocator@ATL@@SAXPAX@Z
_TEXT	SEGMENT
_p$ = 8							; size = 4
?Free@CCRTAllocator@ATL@@SAXPAX@Z PROC			; ATL::CCRTAllocator::Free, COMDAT

; 248  : 		free(p);

  00000	e9 00 00 00 00	 jmp	 _free
?Free@CCRTAllocator@ATL@@SAXPAX@Z ENDP			; ATL::CCRTAllocator::Free
_TEXT	ENDS
PUBLIC	?_AtlGetConversionACP@ATL@@YGIXZ		; ATL::_AtlGetConversionACP
; Function compile flags: /Ogtpy
; File c:\program files (x86)\microsoft visual studio 9.0\vc\atlmfc\include\atlconv.h
;	COMDAT ?_AtlGetConversionACP@ATL@@YGIXZ
_TEXT	SEGMENT
?_AtlGetConversionACP@ATL@@YGIXZ PROC			; ATL::_AtlGetConversionACP, COMDAT

; 104  : #ifdef _CONVERSION_DONT_USE_THREAD_LOCALE
; 105  : 	return CP_ACP;
; 106  : #else
; 107  : 	return CP_THREAD_ACP;

  00000	b8 03 00 00 00	 mov	 eax, 3

; 108  : #endif
; 109  : }

  00005	c3		 ret	 0
?_AtlGetConversionACP@ATL@@YGIXZ ENDP			; ATL::_AtlGetConversionACP
_TEXT	ENDS
PUBLIC	??0CAtlException@ATL@@QAE@J@Z			; ATL::CAtlException::CAtlException
; Function compile flags: /Ogtpy
; File c:\program files (x86)\microsoft visual studio 9.0\vc\atlmfc\include\atlexcept.h
;	COMDAT ??0CAtlException@ATL@@QAE@J@Z
_TEXT	SEGMENT
_hr$ = 8						; size = 4
??0CAtlException@ATL@@QAE@J@Z PROC			; ATL::CAtlException::CAtlException, COMDAT
; _this$ = ecx

; 42   : 	{

  00000	8b c1		 mov	 eax, ecx
  00002	8b 4c 24 04	 mov	 ecx, DWORD PTR _hr$[esp-4]
  00006	89 08		 mov	 DWORD PTR [eax], ecx

; 43   : 	}

  00008	c2 04 00	 ret	 4
??0CAtlException@ATL@@QAE@J@Z ENDP			; ATL::CAtlException::CAtlException
_TEXT	ENDS
PUBLIC	__TI1?AVCAtlException@ATL@@
PUBLIC	?AtlThrowImpl@ATL@@YGXJ@Z			; ATL::AtlThrowImpl
PUBLIC	__CTA1?AVCAtlException@ATL@@
PUBLIC	__CT??_R0?AVCAtlException@ATL@@@84
PUBLIC	??_R0?AVCAtlException@ATL@@@8			; ATL::CAtlException `RTTI Type Descriptor'
EXTRN	__CxxThrowException@8:PROC
;	COMDAT ??_R0?AVCAtlException@ATL@@@8
_DATA	SEGMENT
??_R0?AVCAtlException@ATL@@@8 DD FLAT:??_7type_info@@6B@ ; ATL::CAtlException `RTTI Type Descriptor'
	DD	00H
	DB	'.?AVCAtlException@ATL@@', 00H
_DATA	ENDS
;	COMDAT __CT??_R0?AVCAtlException@ATL@@@84
xdata$x	SEGMENT
__CT??_R0?AVCAtlException@ATL@@@84 DD 00H
	DD	FLAT:??_R0?AVCAtlException@ATL@@@8
	DD	00H
	DD	0ffffffffH
	ORG $+4
	DD	04H
	DD	00H
xdata$x	ENDS
;	COMDAT __CTA1?AVCAtlException@ATL@@
xdata$x	SEGMENT
__CTA1?AVCAtlException@ATL@@ DD 01H
	DD	FLAT:__CT??_R0?AVCAtlException@ATL@@@84
xdata$x	ENDS
;	COMDAT __TI1?AVCAtlException@ATL@@
xdata$x	SEGMENT
__TI1?AVCAtlException@ATL@@ DD 00H
	DD	00H
	DD	00H
	DD	FLAT:__CTA1?AVCAtlException@ATL@@
; Function compile flags: /Ogtpy
xdata$x	ENDS
;	COMDAT ?AtlThrowImpl@ATL@@YGXJ@Z
_TEXT	SEGMENT
$T157492 = 8						; size = 4
_hr$ = 8						; size = 4
?AtlThrowImpl@ATL@@YGXJ@Z PROC				; ATL::AtlThrowImpl, COMDAT

; 64   : 	ATLTRACE(atlTraceException, 0, _T("AtlThrow: hr = 0x%x\n"), hr );
; 65   : #ifdef _AFX
; 66   : 	if( hr == E_OUTOFMEMORY )
; 67   : 	{
; 68   : 		AfxThrowMemoryException();
; 69   : 	}
; 70   : 	else
; 71   : 	{
; 72   : 		AfxThrowOleException( hr );
; 73   : 	}
; 74   : #else
; 75   : 	throw CAtlException( hr );

  00000	8b 44 24 04	 mov	 eax, DWORD PTR _hr$[esp-4]
  00004	68 00 00 00 00	 push	 OFFSET __TI1?AVCAtlException@ATL@@
  00009	8d 4c 24 08	 lea	 ecx, DWORD PTR $T157492[esp]
  0000d	51		 push	 ecx
  0000e	89 44 24 0c	 mov	 DWORD PTR $T157492[esp+4], eax
  00012	e8 00 00 00 00	 call	 __CxxThrowException@8
$LN5@AtlThrowIm:
  00017	cc		 int	 3
?AtlThrowImpl@ATL@@YGXJ@Z ENDP				; ATL::AtlThrowImpl
_TEXT	ENDS
PUBLIC	?AtlCrtErrorCheck@ATL@@YAHH@Z			; ATL::AtlCrtErrorCheck
; Function compile flags: /Ogtpy
; File c:\program files (x86)\microsoft visual studio 9.0\vc\atlmfc\include\atlchecked.h
;	COMDAT ?AtlCrtErrorCheck@ATL@@YAHH@Z
_TEXT	SEGMENT
_nError$ = 8						; size = 4
?AtlCrtErrorCheck@ATL@@YAHH@Z PROC			; ATL::AtlCrtErrorCheck, COMDAT

; 32   : 	switch(nError)

  00000	8b 44 24 04	 mov	 eax, DWORD PTR _nError$[esp-4]
  00004	83 f8 50	 cmp	 eax, 80			; 00000050H
  00007	77 22		 ja	 SHORT $LN1@AtlCrtErro
  00009	0f b6 88 00 00
	00 00		 movzx	 ecx, BYTE PTR $LN9@AtlCrtErro[eax]
  00010	ff 24 8d 00 00
	00 00		 jmp	 DWORD PTR $LN11@AtlCrtErro[ecx*4]
$LN4@AtlCrtErro:

; 33   : 	{
; 34   : 	case ENOMEM:
; 35   : 		AtlThrow(E_OUTOFMEMORY);

  00017	68 0e 00 07 80	 push	 -2147024882		; 8007000eH
  0001c	e8 00 00 00 00	 call	 ?AtlThrowImpl@ATL@@YGXJ@Z ; ATL::AtlThrowImpl
$LN3@AtlCrtErro:

; 36   : 		break;
; 37   : 	case EINVAL:
; 38   : 	case ERANGE:
; 39   : 		AtlThrow(E_INVALIDARG);

  00021	68 57 00 07 80	 push	 -2147024809		; 80070057H
  00026	e8 00 00 00 00	 call	 ?AtlThrowImpl@ATL@@YGXJ@Z ; ATL::AtlThrowImpl
$LN1@AtlCrtErro:

; 40   : 		break;
; 41   : 	case 0:
; 42   : 	case STRUNCATE:
; 43   : 		break;
; 44   : 	default:
; 45   : 		AtlThrow(E_FAIL);

  0002b	68 05 40 00 80	 push	 -2147467259		; 80004005H
  00030	e8 00 00 00 00	 call	 ?AtlThrowImpl@ATL@@YGXJ@Z ; ATL::AtlThrowImpl
$LN7@AtlCrtErro:

; 46   : 		break;
; 47   : 	}
; 48   : 	return nError;
; 49   : }

  00035	c3		 ret	 0
$LN10@AtlCrtErro:
  00036	8b ff		 npad	 2
$LN11@AtlCrtErro:
  00038	00 00 00 00	 DD	 $LN7@AtlCrtErro
  0003c	00 00 00 00	 DD	 $LN4@AtlCrtErro
  00040	00 00 00 00	 DD	 $LN3@AtlCrtErro
  00044	00 00 00 00	 DD	 $LN1@AtlCrtErro
$LN9@AtlCrtErro:
  00048	00		 DB	 0
  00049	03		 DB	 3
  0004a	03		 DB	 3
  0004b	03		 DB	 3
  0004c	03		 DB	 3
  0004d	03		 DB	 3
  0004e	03		 DB	 3
  0004f	03		 DB	 3
  00050	03		 DB	 3
  00051	03		 DB	 3
  00052	03		 DB	 3
  00053	03		 DB	 3
  00054	01		 DB	 1
  00055	03		 DB	 3
  00056	03		 DB	 3
  00057	03		 DB	 3
  00058	03		 DB	 3
  00059	03		 DB	 3
  0005a	03		 DB	 3
  0005b	03		 DB	 3
  0005c	03		 DB	 3
  0005d	03		 DB	 3
  0005e	02		 DB	 2
  0005f	03		 DB	 3
  00060	03		 DB	 3
  00061	03		 DB	 3
  00062	03		 DB	 3
  00063	03		 DB	 3
  00064	03		 DB	 3
  00065	03		 DB	 3
  00066	03		 DB	 3
  00067	03		 DB	 3
  00068	03		 DB	 3
  00069	03		 DB	 3
  0006a	02		 DB	 2
  0006b	03		 DB	 3
  0006c	03		 DB	 3
  0006d	03		 DB	 3
  0006e	03		 DB	 3
  0006f	03		 DB	 3
  00070	03		 DB	 3
  00071	03		 DB	 3
  00072	03		 DB	 3
  00073	03		 DB	 3
  00074	03		 DB	 3
  00075	03		 DB	 3
  00076	03		 DB	 3
  00077	03		 DB	 3
  00078	03		 DB	 3
  00079	03		 DB	 3
  0007a	03		 DB	 3
  0007b	03		 DB	 3
  0007c	03		 DB	 3
  0007d	03		 DB	 3
  0007e	03		 DB	 3
  0007f	03		 DB	 3
  00080	03		 DB	 3
  00081	03		 DB	 3
  00082	03		 DB	 3
  00083	03		 DB	 3
  00084	03		 DB	 3
  00085	03		 DB	 3
  00086	03		 DB	 3
  00087	03		 DB	 3
  00088	03		 DB	 3
  00089	03		 DB	 3
  0008a	03		 DB	 3
  0008b	03		 DB	 3
  0008c	03		 DB	 3
  0008d	03		 DB	 3
  0008e	03		 DB	 3
  0008f	03		 DB	 3
  00090	03		 DB	 3
  00091	03		 DB	 3
  00092	03		 DB	 3
  00093	03		 DB	 3
  00094	03		 DB	 3
  00095	03		 DB	 3
  00096	03		 DB	 3
  00097	03		 DB	 3
  00098	00		 DB	 0
?AtlCrtErrorCheck@ATL@@YAHH@Z ENDP			; ATL::AtlCrtErrorCheck
_TEXT	ENDS
PUBLIC	?memcpy_s@Checked@ATL@@YAXPAXIPBXI@Z		; ATL::Checked::memcpy_s
; Function compile flags: /Ogtpy
;	COMDAT ?memcpy_s@Checked@ATL@@YAXPAXIPBXI@Z
_TEXT	SEGMENT
__S1$ = 8						; size = 4
__S1max$ = 12						; size = 4
__S2$ = 16						; size = 4
__N$ = 20						; size = 4
?memcpy_s@Checked@ATL@@YAXPAXIPBXI@Z PROC		; ATL::Checked::memcpy_s, COMDAT

; 65   : 	ATLMFC_CRT_ERRORCHECK(::memcpy_s(_S1, _S1max, _S2, _N));

  00000	8b 44 24 10	 mov	 eax, DWORD PTR __N$[esp-4]
  00004	8b 4c 24 0c	 mov	 ecx, DWORD PTR __S2$[esp-4]
  00008	8b 54 24 08	 mov	 edx, DWORD PTR __S1max$[esp-4]
  0000c	50		 push	 eax
  0000d	8b 44 24 08	 mov	 eax, DWORD PTR __S1$[esp]
  00011	51		 push	 ecx
  00012	52		 push	 edx
  00013	50		 push	 eax
  00014	e8 00 00 00 00	 call	 _memcpy_s
  00019	50		 push	 eax
  0001a	e8 00 00 00 00	 call	 ?AtlCrtErrorCheck@ATL@@YAHH@Z ; ATL::AtlCrtErrorCheck
  0001f	83 c4 14	 add	 esp, 20			; 00000014H

; 66   : }

  00022	c3		 ret	 0
?memcpy_s@Checked@ATL@@YAXPAXIPBXI@Z ENDP		; ATL::Checked::memcpy_s
_TEXT	ENDS
PUBLIC	??0CComBSTR@ATL@@QAE@XZ				; ATL::CComBSTR::CComBSTR
; Function compile flags: /Ogtpy
; File c:\program files (x86)\microsoft visual studio 9.0\vc\atlmfc\include\atlcomcli.h
;	COMDAT ??0CComBSTR@ATL@@QAE@XZ
_TEXT	SEGMENT
??0CComBSTR@ATL@@QAE@XZ PROC				; ATL::CComBSTR::CComBSTR, COMDAT
; _this$ = ecx

; 591  : 	CComBSTR() throw()

  00000	8b c1		 mov	 eax, ecx

; 592  : 	{
; 593  : 		m_str = NULL;

  00002	c7 00 00 00 00
	00		 mov	 DWORD PTR [eax], 0

; 594  : 	}

  00008	c3		 ret	 0
??0CComBSTR@ATL@@QAE@XZ ENDP				; ATL::CComBSTR::CComBSTR
_TEXT	ENDS
PUBLIC	?ByteLength@CComBSTR@ATL@@QBEIXZ		; ATL::CComBSTR::ByteLength
EXTRN	__imp__SysStringByteLen@4:PROC
; Function compile flags: /Ogtpy
;	COMDAT ?ByteLength@CComBSTR@ATL@@QBEIXZ
_TEXT	SEGMENT
?ByteLength@CComBSTR@ATL@@QBEIXZ PROC			; ATL::CComBSTR::ByteLength, COMDAT
; _this$ = ecx

; 706  :         return ::SysStringByteLen(m_str);

  00000	8b 01		 mov	 eax, DWORD PTR [ecx]
  00002	50		 push	 eax
  00003	ff 15 00 00 00
	00		 call	 DWORD PTR __imp__SysStringByteLen@4

; 707  : 	}

  00009	c3		 ret	 0
?ByteLength@CComBSTR@ATL@@QBEIXZ ENDP			; ATL::CComBSTR::ByteLength
_TEXT	ENDS
PUBLIC	??BCComBSTR@ATL@@QBEPA_WXZ			; ATL::CComBSTR::operator wchar_t *
; Function compile flags: /Ogtpy
;	COMDAT ??BCComBSTR@ATL@@QBEPA_WXZ
_TEXT	SEGMENT
??BCComBSTR@ATL@@QBEPA_WXZ PROC				; ATL::CComBSTR::operator wchar_t *, COMDAT
; _this$ = ecx

; 711  : 		return m_str;

  00000	8b 01		 mov	 eax, DWORD PTR [ecx]

; 712  : 	}

  00002	c3		 ret	 0
??BCComBSTR@ATL@@QBEPA_WXZ ENDP				; ATL::CComBSTR::operator wchar_t *
_TEXT	ENDS
PUBLIC	??ICComBSTR@ATL@@QAEPAPA_WXZ			; ATL::CComBSTR::operator&
; Function compile flags: /Ogtpy
;	COMDAT ??ICComBSTR@ATL@@QAEPAPA_WXZ
_TEXT	SEGMENT
??ICComBSTR@ATL@@QAEPAPA_WXZ PROC			; ATL::CComBSTR::operator&, COMDAT
; _this$ = ecx

; 722  : 	{

  00000	8b c1		 mov	 eax, ecx

; 723  : #ifndef ATL_NO_CCOMBSTR_ADDRESS_OF_ASSERT
; 724  : #pragma warning(push)
; 725  : #pragma warning(disable:4068)
; 726  : #pragma prefast(push)
; 727  : #pragma prefast(disable:325, "We are deliberately checking if this has already been allocated")
; 728  : 		ATLASSERT(!*this);
; 729  : #pragma prefast(pop)
; 730  : #pragma warning(pop)
; 731  : #endif
; 732  : 		return &m_str;
; 733  : 	}

  00002	c3		 ret	 0
??ICComBSTR@ATL@@QAEPAPA_WXZ ENDP			; ATL::CComBSTR::operator&
_TEXT	ENDS
PUBLIC	??7CComBSTR@ATL@@QBE_NXZ			; ATL::CComBSTR::operator!
; Function compile flags: /Ogtpy
;	COMDAT ??7CComBSTR@ATL@@QBE_NXZ
_TEXT	SEGMENT
??7CComBSTR@ATL@@QBE_NXZ PROC				; ATL::CComBSTR::operator!, COMDAT
; _this$ = ecx

; 823  : #pragma warning(push)
; 824  : #pragma warning(disable:4068)
; 825  : #pragma prefast(push)
; 826  : #pragma prefast(disable:325, "The semantics of this function are about allocation, not content")
; 827  : 		return (m_str == NULL);

  00000	33 c0		 xor	 eax, eax
  00002	39 01		 cmp	 DWORD PTR [ecx], eax
  00004	0f 94 c0	 sete	 al

; 828  : #pragma prefast(pop)
; 829  : #pragma warning(pop)
; 830  : 	}

  00007	c3		 ret	 0
??7CComBSTR@ATL@@QBE_NXZ ENDP				; ATL::CComBSTR::operator!
_TEXT	ENDS
PUBLIC	?AppendBytes@CComBSTR@ATL@@QAEJPBDH@Z		; ATL::CComBSTR::AppendBytes
EXTRN	__imp__SysFreeString@4:PROC
EXTRN	__imp__SysAllocStringByteLen@8:PROC
; Function compile flags: /Ogtpy
;	COMDAT ?AppendBytes@CComBSTR@ATL@@QAEJPBDH@Z
_TEXT	SEGMENT
_lpsz$ = 8						; size = 4
_nLen$ = 12						; size = 4
?AppendBytes@CComBSTR@ATL@@QAEJPBDH@Z PROC		; ATL::CComBSTR::AppendBytes, COMDAT
; _this$ = ecx

; 912  : 		if (lpsz == NULL || nLen == 0)

  00000	83 7c 24 04 00	 cmp	 DWORD PTR _lpsz$[esp-4], 0
  00005	53		 push	 ebx
  00006	57		 push	 edi
  00007	8b d9		 mov	 ebx, ecx
  00009	74 7c		 je	 SHORT $LN3@AppendByte
  0000b	8b 7c 24 10	 mov	 edi, DWORD PTR _nLen$[esp+4]
  0000f	85 ff		 test	 edi, edi
  00011	74 74		 je	 SHORT $LN3@AppendByte

; 914  : 		int n1 = ByteLength();

  00013	8b 03		 mov	 eax, DWORD PTR [ebx]
  00015	55		 push	 ebp
  00016	50		 push	 eax
  00017	ff 15 00 00 00
	00		 call	 DWORD PTR __imp__SysStringByteLen@4
  0001d	8b e8		 mov	 ebp, eax

; 915  : 		if (n1+nLen < n1)

  0001f	8d 04 2f	 lea	 eax, DWORD PTR [edi+ebp]
  00022	3b c5		 cmp	 eax, ebp
  00024	7d 0b		 jge	 SHORT $LN2@AppendByte
  00026	5d		 pop	 ebp
  00027	5f		 pop	 edi

; 916  : 			return E_OUTOFMEMORY;

  00028	b8 0e 00 07 80	 mov	 eax, -2147024882	; 8007000eH
  0002d	5b		 pop	 ebx

; 929  : 	}

  0002e	c2 08 00	 ret	 8
$LN2@AppendByte:
  00031	56		 push	 esi

; 917  : 		BSTR b;
; 918  : 		b = ::SysAllocStringByteLen(NULL, n1+nLen);

  00032	50		 push	 eax
  00033	6a 00		 push	 0
  00035	ff 15 00 00 00
	00		 call	 DWORD PTR __imp__SysAllocStringByteLen@8
  0003b	8b f0		 mov	 esi, eax

; 919  : 		if (b == NULL)

  0003d	85 f6		 test	 esi, esi
  0003f	75 0c		 jne	 SHORT $LN1@AppendByte
  00041	5e		 pop	 esi
  00042	5d		 pop	 ebp
  00043	5f		 pop	 edi

; 920  :         {
; 921  : 			return E_OUTOFMEMORY;

  00044	b8 0e 00 07 80	 mov	 eax, -2147024882	; 8007000eH
  00049	5b		 pop	 ebx

; 929  : 	}

  0004a	c2 08 00	 ret	 8
$LN1@AppendByte:

; 922  :         }
; 923  : 		Checked::memcpy_s(b, n1+nLen, m_str, n1);

  0004d	8b 0b		 mov	 ecx, DWORD PTR [ebx]
  0004f	55		 push	 ebp
  00050	51		 push	 ecx
  00051	8d 04 2f	 lea	 eax, DWORD PTR [edi+ebp]
  00054	50		 push	 eax
  00055	56		 push	 esi
  00056	e8 00 00 00 00	 call	 ?memcpy_s@Checked@ATL@@YAXPAXIPBXI@Z ; ATL::Checked::memcpy_s

; 924  : 		Checked::memcpy_s(((char*)b)+n1, nLen, lpsz, nLen);

  0005b	8b 54 24 24	 mov	 edx, DWORD PTR _lpsz$[esp+28]
  0005f	57		 push	 edi
  00060	52		 push	 edx
  00061	03 ee		 add	 ebp, esi
  00063	57		 push	 edi
  00064	55		 push	 ebp
  00065	e8 00 00 00 00	 call	 ?memcpy_s@Checked@ATL@@YAXPAXIPBXI@Z ; ATL::Checked::memcpy_s

; 925  : 		*((OLECHAR*)(((char*)b)+n1+nLen)) = NULL;

  0006a	33 c0		 xor	 eax, eax
  0006c	66 89 04 2f	 mov	 WORD PTR [edi+ebp], ax

; 926  : 		SysFreeString(m_str);

  00070	8b 0b		 mov	 ecx, DWORD PTR [ebx]
  00072	83 c4 20	 add	 esp, 32			; 00000020H
  00075	51		 push	 ecx
  00076	ff 15 00 00 00
	00		 call	 DWORD PTR __imp__SysFreeString@4

; 927  : 		m_str = b;

  0007c	89 33		 mov	 DWORD PTR [ebx], esi
  0007e	5e		 pop	 esi
  0007f	5d		 pop	 ebp
  00080	5f		 pop	 edi

; 928  : 		return S_OK;

  00081	33 c0		 xor	 eax, eax
  00083	5b		 pop	 ebx

; 929  : 	}

  00084	c2 08 00	 ret	 8
$LN3@AppendByte:
  00087	5f		 pop	 edi

; 913  : 			return S_OK;

  00088	33 c0		 xor	 eax, eax
  0008a	5b		 pop	 ebx

; 929  : 	}

  0008b	c2 08 00	 ret	 8
?AppendBytes@CComBSTR@ATL@@QAEJPBDH@Z ENDP		; ATL::CComBSTR::AppendBytes
_TEXT	ENDS
PUBLIC	??1CComBSTR@ATL@@QAE@XZ				; ATL::CComBSTR::~CComBSTR
; Function compile flags: /Ogtpy
;	COMDAT ??1CComBSTR@ATL@@QAE@XZ
_TEXT	SEGMENT
??1CComBSTR@ATL@@QAE@XZ PROC				; ATL::CComBSTR::~CComBSTR, COMDAT
; _this$ = ecx

; 1455 : 		::SysFreeString(m_str);

  00000	8b 01		 mov	 eax, DWORD PTR [ecx]
  00002	50		 push	 eax
  00003	ff 15 00 00 00
	00		 call	 DWORD PTR __imp__SysFreeString@4

; 1456 : 	}

  00009	c3		 ret	 0
??1CComBSTR@ATL@@QAE@XZ ENDP				; ATL::CComBSTR::~CComBSTR
_TEXT	ENDS
PUBLIC	??_7Exception@CipherShed@@6B@			; CipherShed::Exception::`vftable'
PUBLIC	??0Exception@CipherShed@@QAE@XZ			; CipherShed::Exception::Exception
PUBLIC	??_R4Exception@CipherShed@@6B@			; CipherShed::Exception::`RTTI Complete Object Locator'
PUBLIC	??_R0?AUException@CipherShed@@@8		; CipherShed::Exception `RTTI Type Descriptor'
PUBLIC	??_R3Exception@CipherShed@@8			; CipherShed::Exception::`RTTI Class Hierarchy Descriptor'
PUBLIC	??_R2Exception@CipherShed@@8			; CipherShed::Exception::`RTTI Base Class Array'
PUBLIC	??_R1A@?0A@EA@Exception@CipherShed@@8		; CipherShed::Exception::`RTTI Base Class Descriptor at (0,-1,0,64)'
;	COMDAT ??_R1A@?0A@EA@Exception@CipherShed@@8
rdata$r	SEGMENT
??_R1A@?0A@EA@Exception@CipherShed@@8 DD FLAT:??_R0?AUException@CipherShed@@@8 ; CipherShed::Exception::`RTTI Base Class Descriptor at (0,-1,0,64)'
	DD	00H
	DD	00H
	DD	0ffffffffH
	DD	00H
	DD	040H
	DD	FLAT:??_R3Exception@CipherShed@@8
rdata$r	ENDS
;	COMDAT ??_R2Exception@CipherShed@@8
rdata$r	SEGMENT
??_R2Exception@CipherShed@@8 DD FLAT:??_R1A@?0A@EA@Exception@CipherShed@@8 ; CipherShed::Exception::`RTTI Base Class Array'
rdata$r	ENDS
;	COMDAT ??_R3Exception@CipherShed@@8
rdata$r	SEGMENT
??_R3Exception@CipherShed@@8 DD 00H			; CipherShed::Exception::`RTTI Class Hierarchy Descriptor'
	DD	00H
	DD	01H
	DD	FLAT:??_R2Exception@CipherShed@@8
rdata$r	ENDS
;	COMDAT ??_R0?AUException@CipherShed@@@8
_DATA	SEGMENT
??_R0?AUException@CipherShed@@@8 DD FLAT:??_7type_info@@6B@ ; CipherShed::Exception `RTTI Type Descriptor'
	DD	00H
	DB	'.?AUException@CipherShed@@', 00H
_DATA	ENDS
;	COMDAT ??_R4Exception@CipherShed@@6B@
rdata$r	SEGMENT
??_R4Exception@CipherShed@@6B@ DD 00H			; CipherShed::Exception::`RTTI Complete Object Locator'
	DD	00H
	DD	00H
	DD	FLAT:??_R0?AUException@CipherShed@@@8
	DD	FLAT:??_R3Exception@CipherShed@@8
rdata$r	ENDS
;	COMDAT ??_7Exception@CipherShed@@6B@
CONST	SEGMENT
??_7Exception@CipherShed@@6B@ DD FLAT:??_R4Exception@CipherShed@@6B@ ; CipherShed::Exception::`vftable'
	DD	FLAT:__purecall
; Function compile flags: /Ogtpy
CONST	ENDS
;	COMDAT ??0Exception@CipherShed@@QAE@XZ
_TEXT	SEGMENT
??0Exception@CipherShed@@QAE@XZ PROC			; CipherShed::Exception::Exception, COMDAT
; _this$ = ecx
  00000	8b c1		 mov	 eax, ecx
  00002	c7 00 00 00 00
	00		 mov	 DWORD PTR [eax], OFFSET ??_7Exception@CipherShed@@6B@
  00008	c3		 ret	 0
??0Exception@CipherShed@@QAE@XZ ENDP			; CipherShed::Exception::Exception
_TEXT	ENDS
PUBLIC	??_7ParameterIncorrect@CipherShed@@6B@		; CipherShed::ParameterIncorrect::`vftable'
PUBLIC	??0ParameterIncorrect@CipherShed@@QAE@PBD@Z	; CipherShed::ParameterIncorrect::ParameterIncorrect
PUBLIC	??_R4ParameterIncorrect@CipherShed@@6B@		; CipherShed::ParameterIncorrect::`RTTI Complete Object Locator'
PUBLIC	??_R0?AUParameterIncorrect@CipherShed@@@8	; CipherShed::ParameterIncorrect `RTTI Type Descriptor'
PUBLIC	??_R3ParameterIncorrect@CipherShed@@8		; CipherShed::ParameterIncorrect::`RTTI Class Hierarchy Descriptor'
PUBLIC	??_R2ParameterIncorrect@CipherShed@@8		; CipherShed::ParameterIncorrect::`RTTI Base Class Array'
PUBLIC	??_R1A@?0A@EA@ParameterIncorrect@CipherShed@@8	; CipherShed::ParameterIncorrect::`RTTI Base Class Descriptor at (0,-1,0,64)'
PUBLIC	?Show@ParameterIncorrect@CipherShed@@UBEXPAUHWND__@@@Z ; CipherShed::ParameterIncorrect::Show
;	COMDAT ??_R1A@?0A@EA@ParameterIncorrect@CipherShed@@8
; File c:\home\public\desktop\projects\ciphershed\src\common\exception.h
rdata$r	SEGMENT
??_R1A@?0A@EA@ParameterIncorrect@CipherShed@@8 DD FLAT:??_R0?AUParameterIncorrect@CipherShed@@@8 ; CipherShed::ParameterIncorrect::`RTTI Base Class Descriptor at (0,-1,0,64)'
	DD	01H
	DD	00H
	DD	0ffffffffH
	DD	00H
	DD	040H
	DD	FLAT:??_R3ParameterIncorrect@CipherShed@@8
rdata$r	ENDS
;	COMDAT ??_R2ParameterIncorrect@CipherShed@@8
rdata$r	SEGMENT
??_R2ParameterIncorrect@CipherShed@@8 DD FLAT:??_R1A@?0A@EA@ParameterIncorrect@CipherShed@@8 ; CipherShed::ParameterIncorrect::`RTTI Base Class Array'
	DD	FLAT:??_R1A@?0A@EA@Exception@CipherShed@@8
rdata$r	ENDS
;	COMDAT ??_R3ParameterIncorrect@CipherShed@@8
rdata$r	SEGMENT
??_R3ParameterIncorrect@CipherShed@@8 DD 00H		; CipherShed::ParameterIncorrect::`RTTI Class Hierarchy Descriptor'
	DD	00H
	DD	02H
	DD	FLAT:??_R2ParameterIncorrect@CipherShed@@8
rdata$r	ENDS
;	COMDAT ??_R0?AUParameterIncorrect@CipherShed@@@8
_DATA	SEGMENT
??_R0?AUParameterIncorrect@CipherShed@@@8 DD FLAT:??_7type_info@@6B@ ; CipherShed::ParameterIncorrect `RTTI Type Descriptor'
	DD	00H
	DB	'.?AUParameterIncorrect@CipherShed@@', 00H
_DATA	ENDS
;	COMDAT ??_R4ParameterIncorrect@CipherShed@@6B@
rdata$r	SEGMENT
??_R4ParameterIncorrect@CipherShed@@6B@ DD 00H		; CipherShed::ParameterIncorrect::`RTTI Complete Object Locator'
	DD	00H
	DD	00H
	DD	FLAT:??_R0?AUParameterIncorrect@CipherShed@@@8
	DD	FLAT:??_R3ParameterIncorrect@CipherShed@@8
rdata$r	ENDS
;	COMDAT ??_7ParameterIncorrect@CipherShed@@6B@
CONST	SEGMENT
??_7ParameterIncorrect@CipherShed@@6B@ DD FLAT:??_R4ParameterIncorrect@CipherShed@@6B@ ; CipherShed::ParameterIncorrect::`vftable'
	DD	FLAT:?Show@ParameterIncorrect@CipherShed@@UBEXPAUHWND__@@@Z
; Function compile flags: /Ogtpy
CONST	ENDS
;	COMDAT ??0ParameterIncorrect@CipherShed@@QAE@PBD@Z
_TEXT	SEGMENT
_srcPos$ = 8						; size = 4
??0ParameterIncorrect@CipherShed@@QAE@PBD@Z PROC	; CipherShed::ParameterIncorrect::ParameterIncorrect, COMDAT
; _this$ = ecx

; 54   : 		ParameterIncorrect (const char *srcPos) : SrcPos (srcPos) { }

  00000	8b c1		 mov	 eax, ecx
  00002	8b 4c 24 04	 mov	 ecx, DWORD PTR _srcPos$[esp-4]
  00006	c7 00 00 00 00
	00		 mov	 DWORD PTR [eax], OFFSET ??_7ParameterIncorrect@CipherShed@@6B@
  0000c	89 48 04	 mov	 DWORD PTR [eax+4], ecx
  0000f	c2 04 00	 ret	 4
??0ParameterIncorrect@CipherShed@@QAE@PBD@Z ENDP	; CipherShed::ParameterIncorrect::ParameterIncorrect
_TEXT	ENDS
PUBLIC	??_7TimeOut@CipherShed@@6B@			; CipherShed::TimeOut::`vftable'
PUBLIC	??0TimeOut@CipherShed@@QAE@PBD@Z		; CipherShed::TimeOut::TimeOut
PUBLIC	??_R4TimeOut@CipherShed@@6B@			; CipherShed::TimeOut::`RTTI Complete Object Locator'
PUBLIC	??_R0?AUTimeOut@CipherShed@@@8			; CipherShed::TimeOut `RTTI Type Descriptor'
PUBLIC	??_R3TimeOut@CipherShed@@8			; CipherShed::TimeOut::`RTTI Class Hierarchy Descriptor'
PUBLIC	??_R2TimeOut@CipherShed@@8			; CipherShed::TimeOut::`RTTI Base Class Array'
PUBLIC	??_R1A@?0A@EA@TimeOut@CipherShed@@8		; CipherShed::TimeOut::`RTTI Base Class Descriptor at (0,-1,0,64)'
PUBLIC	?Show@TimeOut@CipherShed@@UBEXPAUHWND__@@@Z	; CipherShed::TimeOut::Show
;	COMDAT ??_R1A@?0A@EA@TimeOut@CipherShed@@8
rdata$r	SEGMENT
??_R1A@?0A@EA@TimeOut@CipherShed@@8 DD FLAT:??_R0?AUTimeOut@CipherShed@@@8 ; CipherShed::TimeOut::`RTTI Base Class Descriptor at (0,-1,0,64)'
	DD	01H
	DD	00H
	DD	0ffffffffH
	DD	00H
	DD	040H
	DD	FLAT:??_R3TimeOut@CipherShed@@8
rdata$r	ENDS
;	COMDAT ??_R2TimeOut@CipherShed@@8
rdata$r	SEGMENT
??_R2TimeOut@CipherShed@@8 DD FLAT:??_R1A@?0A@EA@TimeOut@CipherShed@@8 ; CipherShed::TimeOut::`RTTI Base Class Array'
	DD	FLAT:??_R1A@?0A@EA@Exception@CipherShed@@8
rdata$r	ENDS
;	COMDAT ??_R3TimeOut@CipherShed@@8
rdata$r	SEGMENT
??_R3TimeOut@CipherShed@@8 DD 00H			; CipherShed::TimeOut::`RTTI Class Hierarchy Descriptor'
	DD	00H
	DD	02H
	DD	FLAT:??_R2TimeOut@CipherShed@@8
rdata$r	ENDS
;	COMDAT ??_R0?AUTimeOut@CipherShed@@@8
_DATA	SEGMENT
??_R0?AUTimeOut@CipherShed@@@8 DD FLAT:??_7type_info@@6B@ ; CipherShed::TimeOut `RTTI Type Descriptor'
	DD	00H
	DB	'.?AUTimeOut@CipherShed@@', 00H
_DATA	ENDS
;	COMDAT ??_R4TimeOut@CipherShed@@6B@
rdata$r	SEGMENT
??_R4TimeOut@CipherShed@@6B@ DD 00H			; CipherShed::TimeOut::`RTTI Complete Object Locator'
	DD	00H
	DD	00H
	DD	FLAT:??_R0?AUTimeOut@CipherShed@@@8
	DD	FLAT:??_R3TimeOut@CipherShed@@8
rdata$r	ENDS
;	COMDAT ??_7TimeOut@CipherShed@@6B@
CONST	SEGMENT
??_7TimeOut@CipherShed@@6B@ DD FLAT:??_R4TimeOut@CipherShed@@6B@ ; CipherShed::TimeOut::`vftable'
	DD	FLAT:?Show@TimeOut@CipherShed@@UBEXPAUHWND__@@@Z
; Function compile flags: /Ogtpy
CONST	ENDS
;	COMDAT ??0TimeOut@CipherShed@@QAE@PBD@Z
_TEXT	SEGMENT
_srcPos$ = 8						; size = 4
??0TimeOut@CipherShed@@QAE@PBD@Z PROC			; CipherShed::TimeOut::TimeOut, COMDAT
; _this$ = ecx

; 67   : 		TimeOut (const char *srcPos) { }

  00000	8b c1		 mov	 eax, ecx
  00002	c7 00 00 00 00
	00		 mov	 DWORD PTR [eax], OFFSET ??_7TimeOut@CipherShed@@6B@
  00008	c2 04 00	 ret	 4
??0TimeOut@CipherShed@@QAE@PBD@Z ENDP			; CipherShed::TimeOut::TimeOut
_TEXT	ENDS
PUBLIC	??_C@_1BA@BKONPLFM@?$AAT?$AAi?$AAm?$AAe?$AAo?$AAu?$AAt?$AA?$AA@ ; `string'
EXTRN	_ErrorDirect:PROC
;	COMDAT ??_C@_1BA@BKONPLFM@?$AAT?$AAi?$AAm?$AAe?$AAo?$AAu?$AAt?$AA?$AA@
CONST	SEGMENT
??_C@_1BA@BKONPLFM@?$AAT?$AAi?$AAm?$AAe?$AAo?$AAu?$AAt?$AA?$AA@ DB 'T', 00H
	DB	'i', 00H, 'm', 00H, 'e', 00H, 'o', 00H, 'u', 00H, 't', 00H, 00H
	DB	00H						; `string'
; Function compile flags: /Ogtpy
CONST	ENDS
;	COMDAT ?Show@TimeOut@CipherShed@@UBEXPAUHWND__@@@Z
_TEXT	SEGMENT
_parent$ = 8						; size = 4
?Show@TimeOut@CipherShed@@UBEXPAUHWND__@@@Z PROC	; CipherShed::TimeOut::Show, COMDAT
; _this$ = ecx

; 68   : 		void Show (HWND parent) const { ErrorDirect (L"Timeout"); }

  00000	68 00 00 00 00	 push	 OFFSET ??_C@_1BA@BKONPLFM@?$AAT?$AAi?$AAm?$AAe?$AAo?$AAu?$AAt?$AA?$AA@
  00005	e8 00 00 00 00	 call	 _ErrorDirect
  0000a	59		 pop	 ecx
  0000b	c2 04 00	 ret	 4
?Show@TimeOut@CipherShed@@UBEXPAUHWND__@@@Z ENDP	; CipherShed::TimeOut::Show
_TEXT	ENDS
PUBLIC	??_7UserAbort@CipherShed@@6B@			; CipherShed::UserAbort::`vftable'
PUBLIC	??0UserAbort@CipherShed@@QAE@PBD@Z		; CipherShed::UserAbort::UserAbort
PUBLIC	??_R4UserAbort@CipherShed@@6B@			; CipherShed::UserAbort::`RTTI Complete Object Locator'
PUBLIC	??_R0?AUUserAbort@CipherShed@@@8		; CipherShed::UserAbort `RTTI Type Descriptor'
PUBLIC	??_R3UserAbort@CipherShed@@8			; CipherShed::UserAbort::`RTTI Class Hierarchy Descriptor'
PUBLIC	??_R2UserAbort@CipherShed@@8			; CipherShed::UserAbort::`RTTI Base Class Array'
PUBLIC	??_R1A@?0A@EA@UserAbort@CipherShed@@8		; CipherShed::UserAbort::`RTTI Base Class Descriptor at (0,-1,0,64)'
PUBLIC	?Show@UserAbort@CipherShed@@UBEXPAUHWND__@@@Z	; CipherShed::UserAbort::Show
;	COMDAT ??_R1A@?0A@EA@UserAbort@CipherShed@@8
rdata$r	SEGMENT
??_R1A@?0A@EA@UserAbort@CipherShed@@8 DD FLAT:??_R0?AUUserAbort@CipherShed@@@8 ; CipherShed::UserAbort::`RTTI Base Class Descriptor at (0,-1,0,64)'
	DD	01H
	DD	00H
	DD	0ffffffffH
	DD	00H
	DD	040H
	DD	FLAT:??_R3UserAbort@CipherShed@@8
rdata$r	ENDS
;	COMDAT ??_R2UserAbort@CipherShed@@8
rdata$r	SEGMENT
??_R2UserAbort@CipherShed@@8 DD FLAT:??_R1A@?0A@EA@UserAbort@CipherShed@@8 ; CipherShed::UserAbort::`RTTI Base Class Array'
	DD	FLAT:??_R1A@?0A@EA@Exception@CipherShed@@8
rdata$r	ENDS
;	COMDAT ??_R3UserAbort@CipherShed@@8
rdata$r	SEGMENT
??_R3UserAbort@CipherShed@@8 DD 00H			; CipherShed::UserAbort::`RTTI Class Hierarchy Descriptor'
	DD	00H
	DD	02H
	DD	FLAT:??_R2UserAbort@CipherShed@@8
rdata$r	ENDS
;	COMDAT ??_R0?AUUserAbort@CipherShed@@@8
_DATA	SEGMENT
??_R0?AUUserAbort@CipherShed@@@8 DD FLAT:??_7type_info@@6B@ ; CipherShed::UserAbort `RTTI Type Descriptor'
	DD	00H
	DB	'.?AUUserAbort@CipherShed@@', 00H
_DATA	ENDS
;	COMDAT ??_R4UserAbort@CipherShed@@6B@
rdata$r	SEGMENT
??_R4UserAbort@CipherShed@@6B@ DD 00H			; CipherShed::UserAbort::`RTTI Complete Object Locator'
	DD	00H
	DD	00H
	DD	FLAT:??_R0?AUUserAbort@CipherShed@@@8
	DD	FLAT:??_R3UserAbort@CipherShed@@8
rdata$r	ENDS
;	COMDAT ??_7UserAbort@CipherShed@@6B@
CONST	SEGMENT
??_7UserAbort@CipherShed@@6B@ DD FLAT:??_R4UserAbort@CipherShed@@6B@ ; CipherShed::UserAbort::`vftable'
	DD	FLAT:?Show@UserAbort@CipherShed@@UBEXPAUHWND__@@@Z
; Function compile flags: /Ogtpy
CONST	ENDS
;	COMDAT ??0UserAbort@CipherShed@@QAE@PBD@Z
_TEXT	SEGMENT
_srcPos$ = 8						; size = 4
??0UserAbort@CipherShed@@QAE@PBD@Z PROC			; CipherShed::UserAbort::UserAbort, COMDAT
; _this$ = ecx

; 73   : 		UserAbort (const char *srcPos) { }

  00000	8b c1		 mov	 eax, ecx
  00002	c7 00 00 00 00
	00		 mov	 DWORD PTR [eax], OFFSET ??_7UserAbort@CipherShed@@6B@
  00008	c2 04 00	 ret	 4
??0UserAbort@CipherShed@@QAE@PBD@Z ENDP			; CipherShed::UserAbort::UserAbort
; Function compile flags: /Ogtpy
_TEXT	ENDS
;	COMDAT ?Show@UserAbort@CipherShed@@UBEXPAUHWND__@@@Z
_TEXT	SEGMENT
_parent$ = 8						; size = 4
?Show@UserAbort@CipherShed@@UBEXPAUHWND__@@@Z PROC	; CipherShed::UserAbort::Show, COMDAT
; _this$ = ecx

; 74   : 		void Show (HWND parent) const { }

  00000	c2 04 00	 ret	 4
?Show@UserAbort@CipherShed@@UBEXPAUHWND__@@@Z ENDP	; CipherShed::UserAbort::Show
_TEXT	ENDS
PUBLIC	__TI2?AVbad_alloc@std@@
PUBLIC	??0Buffer@CipherShed@@QAE@I@Z			; CipherShed::Buffer::Buffer
PUBLIC	__CTA2?AVbad_alloc@std@@
PUBLIC	__CT??_R0?AVbad_alloc@std@@@8??0bad_alloc@std@@QAE@ABV01@@Z12
PUBLIC	??0bad_alloc@std@@QAE@ABV01@@Z			; std::bad_alloc::bad_alloc
PUBLIC	__CT??_R0?AVexception@std@@@8??0exception@std@@QAE@ABV01@@Z12
EXTRN	??_U@YAPAXI@Z:PROC				; operator new[]
EXTRN	??0exception@std@@QAE@ABV01@@Z:PROC		; std::exception::exception
;	COMDAT __CT??_R0?AVexception@std@@@8??0exception@std@@QAE@ABV01@@Z12
; File c:\program files (x86)\microsoft visual studio 9.0\vc\include\exception
xdata$x	SEGMENT
__CT??_R0?AVexception@std@@@8??0exception@std@@QAE@ABV01@@Z12 DD 00H
	DD	FLAT:??_R0?AVexception@std@@@8
	DD	00H
	DD	0ffffffffH
	ORG $+4
	DD	0cH
	DD	FLAT:??0exception@std@@QAE@ABV01@@Z
xdata$x	ENDS
;	COMDAT __CT??_R0?AVbad_alloc@std@@@8??0bad_alloc@std@@QAE@ABV01@@Z12
xdata$x	SEGMENT
__CT??_R0?AVbad_alloc@std@@@8??0bad_alloc@std@@QAE@ABV01@@Z12 DD 00H
	DD	FLAT:??_R0?AVbad_alloc@std@@@8
	DD	00H
	DD	0ffffffffH
	ORG $+4
	DD	0cH
	DD	FLAT:??0bad_alloc@std@@QAE@ABV01@@Z
xdata$x	ENDS
;	COMDAT __CTA2?AVbad_alloc@std@@
xdata$x	SEGMENT
__CTA2?AVbad_alloc@std@@ DD 02H
	DD	FLAT:__CT??_R0?AVbad_alloc@std@@@8??0bad_alloc@std@@QAE@ABV01@@Z12
	DD	FLAT:__CT??_R0?AVexception@std@@@8??0exception@std@@QAE@ABV01@@Z12
xdata$x	ENDS
;	COMDAT __TI2?AVbad_alloc@std@@
xdata$x	SEGMENT
__TI2?AVbad_alloc@std@@ DD 00H
	DD	FLAT:??1bad_alloc@std@@UAE@XZ
	DD	00H
	DD	FLAT:__CTA2?AVbad_alloc@std@@
; Function compile flags: /Ogtpy
; File c:\home\public\desktop\projects\ciphershed\src\common\bootencryption.h
xdata$x	ENDS
;	COMDAT ??0Buffer@CipherShed@@QAE@I@Z
_TEXT	SEGMENT
$T157549 = -12						; size = 12
_size$ = 8						; size = 4
??0Buffer@CipherShed@@QAE@I@Z PROC			; CipherShed::Buffer::Buffer, COMDAT
; _this$ = ecx

; 55   : 		{

  00000	8b 44 24 04	 mov	 eax, DWORD PTR _size$[esp-4]
  00004	83 ec 0c	 sub	 esp, 12			; 0000000cH
  00007	56		 push	 esi
  00008	8b f1		 mov	 esi, ecx

; 56   : 			DataPtr = new byte[size];

  0000a	50		 push	 eax
  0000b	89 46 04	 mov	 DWORD PTR [esi+4], eax
  0000e	e8 00 00 00 00	 call	 ??_U@YAPAXI@Z		; operator new[]
  00013	83 c4 04	 add	 esp, 4
  00016	89 06		 mov	 DWORD PTR [esi], eax

; 57   : 			if (!DataPtr)

  00018	85 c0		 test	 eax, eax
  0001a	75 27		 jne	 SHORT $LN1@Buffer

; 58   : 				throw bad_alloc();

  0001c	6a 01		 push	 1
  0001e	68 00 00 00 00	 push	 OFFSET __bad_alloc_Message
  00023	8d 4c 24 0c	 lea	 ecx, DWORD PTR $T157549[esp+24]
  00027	e8 00 00 00 00	 call	 ??0exception@std@@QAE@ABQBDH@Z ; std::exception::exception
  0002c	68 00 00 00 00	 push	 OFFSET __TI2?AVbad_alloc@std@@
  00031	8d 44 24 08	 lea	 eax, DWORD PTR $T157549[esp+20]
  00035	50		 push	 eax
  00036	c7 44 24 0c 00
	00 00 00	 mov	 DWORD PTR $T157549[esp+24], OFFSET ??_7bad_alloc@std@@6B@
  0003e	e8 00 00 00 00	 call	 __CxxThrowException@8
$LN1@Buffer:

; 59   : 		}

  00043	8b c6		 mov	 eax, esi
  00045	5e		 pop	 esi
  00046	83 c4 0c	 add	 esp, 12			; 0000000cH
  00049	c2 04 00	 ret	 4
$LN6@Buffer:
??0Buffer@CipherShed@@QAE@I@Z ENDP			; CipherShed::Buffer::Buffer
_TEXT	ENDS
PUBLIC	??1Buffer@CipherShed@@QAE@XZ			; CipherShed::Buffer::~Buffer
EXTRN	??_V@YAXPAX@Z:PROC				; operator delete[]
; Function compile flags: /Ogtpy
;	COMDAT ??1Buffer@CipherShed@@QAE@XZ
_TEXT	SEGMENT
??1Buffer@CipherShed@@QAE@XZ PROC			; CipherShed::Buffer::~Buffer, COMDAT
; _this$ = ecx

; 61   : 		~Buffer () { delete[] DataPtr; }

  00000	8b 01		 mov	 eax, DWORD PTR [ecx]
  00002	50		 push	 eax
  00003	e8 00 00 00 00	 call	 ??_V@YAXPAX@Z		; operator delete[]
  00008	59		 pop	 ecx
  00009	c3		 ret	 0
??1Buffer@CipherShed@@QAE@XZ ENDP			; CipherShed::Buffer::~Buffer
_TEXT	ENDS
PUBLIC	?Ptr@Buffer@CipherShed@@QBEPAEXZ		; CipherShed::Buffer::Ptr
; Function compile flags: /Ogtpy
;	COMDAT ?Ptr@Buffer@CipherShed@@QBEPAEXZ
_TEXT	SEGMENT
?Ptr@Buffer@CipherShed@@QBEPAEXZ PROC			; CipherShed::Buffer::Ptr, COMDAT
; _this$ = ecx

; 62   : 		byte *Ptr () const { return DataPtr; }

  00000	8b 01		 mov	 eax, DWORD PTR [ecx]
  00002	c3		 ret	 0
?Ptr@Buffer@CipherShed@@QBEPAEXZ ENDP			; CipherShed::Buffer::Ptr
_TEXT	ENDS
PUBLIC	?Size@Buffer@CipherShed@@QBEIXZ			; CipherShed::Buffer::Size
; Function compile flags: /Ogtpy
;	COMDAT ?Size@Buffer@CipherShed@@QBEIXZ
_TEXT	SEGMENT
?Size@Buffer@CipherShed@@QBEIXZ PROC			; CipherShed::Buffer::Size, COMDAT
; _this$ = ecx

; 63   : 		size_t Size () const { return DataSize; }

  00000	8b 41 04	 mov	 eax, DWORD PTR [ecx+4]
  00003	c3		 ret	 0
?Size@Buffer@CipherShed@@QBEIXZ ENDP			; CipherShed::Buffer::Size
; Function compile flags: /Ogtpy
_TEXT	ENDS
;	COMDAT ??0bad_alloc@std@@QAE@ABV01@@Z
_TEXT	SEGMENT
___that$ = 8						; size = 4
??0bad_alloc@std@@QAE@ABV01@@Z PROC			; std::bad_alloc::bad_alloc, COMDAT
; _this$ = ecx
  00000	8b 44 24 04	 mov	 eax, DWORD PTR ___that$[esp-4]
  00004	56		 push	 esi
  00005	50		 push	 eax
  00006	8b f1		 mov	 esi, ecx
  00008	e8 00 00 00 00	 call	 ??0exception@std@@QAE@ABV01@@Z ; std::exception::exception
  0000d	c7 06 00 00 00
	00		 mov	 DWORD PTR [esi], OFFSET ??_7bad_alloc@std@@6B@
  00013	8b c6		 mov	 eax, esi
  00015	5e		 pop	 esi
  00016	c2 04 00	 ret	 4
??0bad_alloc@std@@QAE@ABV01@@Z ENDP			; std::bad_alloc::bad_alloc
_TEXT	ENDS
PUBLIC	?AddReference@Elevator@CipherShed@@SAXXZ	; CipherShed::Elevator::AddReference
; Function compile flags: /Ogtpy
; File c:\home\public\desktop\projects\ciphershed\src\common\bootencryption.cpp
;	COMDAT ?AddReference@Elevator@CipherShed@@SAXXZ
_TEXT	SEGMENT
?AddReference@Elevator@CipherShed@@SAXXZ PROC		; CipherShed::Elevator::AddReference, COMDAT

; 45   : 			++ReferenceCount;

  00000	ff 05 00 00 00
	00		 inc	 DWORD PTR ?ReferenceCount@Elevator@CipherShed@@1HA ; CipherShed::Elevator::ReferenceCount

; 46   : 		}

  00006	c3		 ret	 0
?AddReference@Elevator@CipherShed@@SAXXZ ENDP		; CipherShed::Elevator::AddReference
_TEXT	ENDS
PUBLIC	?Release@Elevator@CipherShed@@SAXXZ		; CipherShed::Elevator::Release
EXTRN	__imp__CoUninitialize@0:PROC
; Function compile flags: /Ogtpy
;	COMDAT ?Release@Elevator@CipherShed@@SAXXZ
_TEXT	SEGMENT
?Release@Elevator@CipherShed@@SAXXZ PROC		; CipherShed::Elevator::Release, COMDAT

; 164  : 			if (--ReferenceCount == 0 && ElevatedComInstance)

  00000	83 2d 00 00 00
	00 01		 sub	 DWORD PTR ?ReferenceCount@Elevator@CipherShed@@1HA, 1 ; CipherShed::Elevator::ReferenceCount
  00007	75 21		 jne	 SHORT $LN1@Release
  00009	a1 00 00 00 00	 mov	 eax, DWORD PTR ?ElevatedComInstance@Elevator@CipherShed@@1PAUICipherShedMainCom@@A ; CipherShed::Elevator::ElevatedComInstance
  0000e	85 c0		 test	 eax, eax
  00010	74 18		 je	 SHORT $LN1@Release

; 165  : 			{
; 166  : 				ElevatedComInstance->Release();

  00012	8b 08		 mov	 ecx, DWORD PTR [eax]
  00014	8b 51 08	 mov	 edx, DWORD PTR [ecx+8]
  00017	50		 push	 eax
  00018	ff d2		 call	 edx

; 167  : 				ElevatedComInstance = nullptr;

  0001a	c7 05 00 00 00
	00 00 00 00 00	 mov	 DWORD PTR ?ElevatedComInstance@Elevator@CipherShed@@1PAUICipherShedMainCom@@A, 0 ; CipherShed::Elevator::ElevatedComInstance

; 168  : 				CoUninitialize ();

  00024	ff 25 00 00 00
	00		 jmp	 DWORD PTR __imp__CoUninitialize@0
$LN1@Release:

; 169  : 			}
; 170  : 		}

  0002a	c3		 ret	 0
?Release@Elevator@CipherShed@@SAXXZ ENDP		; CipherShed::Elevator::Release
_TEXT	ENDS
PUBLIC	?Close@File@CipherShed@@QAEXXZ			; CipherShed::File::Close
EXTRN	__imp__CloseHandle@4:PROC
; Function compile flags: /Ogtpy
;	COMDAT ?Close@File@CipherShed@@QAEXXZ
_TEXT	SEGMENT
?Close@File@CipherShed@@QAEXXZ PROC			; CipherShed::File::Close, COMDAT
; _this$ = ecx

; 260  : 	{

  00000	56		 push	 esi
  00001	8b f1		 mov	 esi, ecx

; 261  : 		if (FileOpen)

  00003	80 7e 01 00	 cmp	 BYTE PTR [esi+1], 0
  00007	74 13		 je	 SHORT $LN2@Close

; 262  : 		{
; 263  : 			if (!Elevated)

  00009	80 3e 00	 cmp	 BYTE PTR [esi], 0
  0000c	75 0a		 jne	 SHORT $LN1@Close

; 264  : 				CloseHandle (Handle);

  0000e	8b 46 10	 mov	 eax, DWORD PTR [esi+16]
  00011	50		 push	 eax
  00012	ff 15 00 00 00
	00		 call	 DWORD PTR __imp__CloseHandle@4
$LN1@Close:

; 265  : 
; 266  : 			FileOpen = false;

  00018	c6 46 01 00	 mov	 BYTE PTR [esi+1], 0
$LN2@Close:
  0001c	5e		 pop	 esi

; 267  : 		}
; 268  : 	}

  0001d	c3		 ret	 0
?Close@File@CipherShed@@QAEXXZ ENDP			; CipherShed::File::Close
; Function compile flags: /Ogtpy
_TEXT	ENDS
;	COMDAT ??0Finally551@?8??SetDriverServiceStartType@BootEncryption@CipherShed@@QAEXK@Z@QAE@PAUSC_HANDLE__@@@Z
_TEXT	SEGMENT
??0Finally551@?8??SetDriverServiceStartType@BootEncryption@CipherShed@@QAEXK@Z@QAE@PAUSC_HANDLE__@@@Z PROC ; `CipherShed::BootEncryption::SetDriverServiceStartType'::`9'::Finally551::Finally551, COMDAT
; _this$ = eax
; _a$ = ecx

; 551  : 		finally_do_arg (SC_HANDLE, serviceManager, { CloseServiceHandle (finally_arg); });

  00000	89 08		 mov	 DWORD PTR [eax], ecx
  00002	c3		 ret	 0
??0Finally551@?8??SetDriverServiceStartType@BootEncryption@CipherShed@@QAEXK@Z@QAE@PAUSC_HANDLE__@@@Z ENDP ; `CipherShed::BootEncryption::SetDriverServiceStartType'::`9'::Finally551::Finally551
_TEXT	ENDS
EXTRN	__imp__CloseServiceHandle@4:PROC
; Function compile flags: /Ogtpy
;	COMDAT ??1Finally551@?8??SetDriverServiceStartType@BootEncryption@CipherShed@@QAEXK@Z@QAE@XZ
_TEXT	SEGMENT
??1Finally551@?8??SetDriverServiceStartType@BootEncryption@CipherShed@@QAEXK@Z@QAE@XZ PROC ; `CipherShed::BootEncryption::SetDriverServiceStartType'::`9'::Finally551::~Finally551, COMDAT
; _this$ = eax

; 551  : 		finally_do_arg (SC_HANDLE, serviceManager, { CloseServiceHandle (finally_arg); });

  00000	8b 08		 mov	 ecx, DWORD PTR [eax]
  00002	51		 push	 ecx
  00003	ff 15 00 00 00
	00		 call	 DWORD PTR __imp__CloseServiceHandle@4
  00009	c3		 ret	 0
??1Finally551@?8??SetDriverServiceStartType@BootEncryption@CipherShed@@QAEXK@Z@QAE@XZ ENDP ; `CipherShed::BootEncryption::SetDriverServiceStartType'::`9'::Finally551::~Finally551
; Function compile flags: /Ogtpy
_TEXT	ENDS
;	COMDAT ??0Finally556@?O@??SetDriverServiceStartType@BootEncryption@CipherShed@@QAEXK@Z@QAE@PAUSC_HANDLE__@@@Z
_TEXT	SEGMENT
??0Finally556@?O@??SetDriverServiceStartType@BootEncryption@CipherShed@@QAEXK@Z@QAE@PAUSC_HANDLE__@@@Z PROC ; `CipherShed::BootEncryption::SetDriverServiceStartType'::`14'::Finally556::Finally556, COMDAT
; _this$ = eax
; _a$ = ecx

; 556  : 		finally_do_arg (SC_HANDLE, service, { CloseServiceHandle (finally_arg); });

  00000	89 08		 mov	 DWORD PTR [eax], ecx
  00002	c3		 ret	 0
??0Finally556@?O@??SetDriverServiceStartType@BootEncryption@CipherShed@@QAEXK@Z@QAE@PAUSC_HANDLE__@@@Z ENDP ; `CipherShed::BootEncryption::SetDriverServiceStartType'::`14'::Finally556::Finally556
; Function compile flags: /Ogtpy
_TEXT	ENDS
;	COMDAT ??1Finally556@?O@??SetDriverServiceStartType@BootEncryption@CipherShed@@QAEXK@Z@QAE@XZ
_TEXT	SEGMENT
??1Finally556@?O@??SetDriverServiceStartType@BootEncryption@CipherShed@@QAEXK@Z@QAE@XZ PROC ; `CipherShed::BootEncryption::SetDriverServiceStartType'::`14'::Finally556::~Finally556, COMDAT
; _this$ = eax

; 556  : 		finally_do_arg (SC_HANDLE, service, { CloseServiceHandle (finally_arg); });

  00000	8b 08		 mov	 ecx, DWORD PTR [eax]
  00002	51		 push	 ecx
  00003	ff 15 00 00 00
	00		 call	 DWORD PTR __imp__CloseServiceHandle@4
  00009	c3		 ret	 0
??1Finally556@?O@??SetDriverServiceStartType@BootEncryption@CipherShed@@QAEXK@Z@QAE@XZ ENDP ; `CipherShed::BootEncryption::SetDriverServiceStartType'::`14'::Finally556::~Finally556
_TEXT	ENDS
PUBLIC	?InvalidateCachedSysDriveProperties@BootEncryption@CipherShed@@QAEXXZ ; CipherShed::BootEncryption::InvalidateCachedSysDriveProperties
; Function compile flags: /Ogtpy
;	COMDAT ?InvalidateCachedSysDriveProperties@BootEncryption@CipherShed@@QAEXXZ
_TEXT	SEGMENT
?InvalidateCachedSysDriveProperties@BootEncryption@CipherShed@@QAEXXZ PROC ; CipherShed::BootEncryption::InvalidateCachedSysDriveProperties, COMDAT
; _this$ = ecx

; 614  : 		DriveConfigValid = false;

  00000	32 c0		 xor	 al, al
  00002	88 81 14 06 00
	00		 mov	 BYTE PTR [ecx+1556], al

; 615  : 		RealSystemDriveSizeValid = false;

  00008	88 81 15 06 00
	00		 mov	 BYTE PTR [ecx+1557], al

; 616  : 	}

  0000e	c3		 ret	 0
?InvalidateCachedSysDriveProperties@BootEncryption@CipherShed@@QAEXXZ ENDP ; CipherShed::BootEncryption::InvalidateCachedSysDriveProperties
_TEXT	ENDS
PUBLIC	__$ArrayPad$
PUBLIC	?IsBootLoaderOnDrive@BootEncryption@CipherShed@@QAE_NPAD@Z ; CipherShed::BootEncryption::IsBootLoaderOnDrive
EXTRN	__imp__DeviceIoControl@32:PROC
EXTRN	_hDriver:DWORD
EXTRN	_ToUNICODE:PROC
EXTRN	___security_cookie:DWORD
EXTRN	@__security_check_cookie@4:PROC
; Function compile flags: /Ogtpy
;	COMDAT ?IsBootLoaderOnDrive@BootEncryption@CipherShed@@QAE_NPAD@Z
_TEXT	SEGMENT
_dwResult$149102 = -544					; size = 4
_openTestStruct$149101 = -540				; size = 536
__$ArrayPad$ = -4					; size = 4
_devicePath$ = 8					; size = 4
?IsBootLoaderOnDrive@BootEncryption@CipherShed@@QAE_NPAD@Z PROC ; CipherShed::BootEncryption::IsBootLoaderOnDrive, COMDAT
; _this$ = ecx

; 731  : 	{

  00000	81 ec 20 02 00
	00		 sub	 esp, 544		; 00000220H
  00006	a1 00 00 00 00	 mov	 eax, DWORD PTR ___security_cookie
  0000b	33 c4		 xor	 eax, esp
  0000d	89 84 24 1c 02
	00 00		 mov	 DWORD PTR __$ArrayPad$[esp+544], eax

; 732  : 		try 
; 733  : 		{
; 734  : 			OPEN_TEST_STRUCT openTestStruct;
; 735  : 			memset (&openTestStruct, 0, sizeof (openTestStruct));

  00014	68 18 02 00 00	 push	 536			; 00000218H
  00019	8d 44 24 08	 lea	 eax, DWORD PTR _openTestStruct$149101[esp+548]
  0001d	6a 00		 push	 0
  0001f	50		 push	 eax
  00020	e8 00 00 00 00	 call	 _memset

; 736  : 			DWORD dwResult;
; 737  : 
; 738  : 			strcpy ((char *) &openTestStruct.wszFileName[0], devicePath);

  00025	8b 84 24 30 02
	00 00		 mov	 eax, DWORD PTR _devicePath$[esp+552]
  0002c	8d 54 24 10	 lea	 edx, DWORD PTR _openTestStruct$149101[esp+556]
  00030	83 c4 0c	 add	 esp, 12			; 0000000cH
  00033	2b d0		 sub	 edx, eax
$LL4@IsBootLoad:
  00035	8a 08		 mov	 cl, BYTE PTR [eax]
  00037	88 0c 02	 mov	 BYTE PTR [edx+eax], cl
  0003a	40		 inc	 eax
  0003b	84 c9		 test	 cl, cl
  0003d	75 f6		 jne	 SHORT $LL4@IsBootLoad

; 739  : 			ToUNICODE ((char *) &openTestStruct.wszFileName[0]);

  0003f	8d 4c 24 04	 lea	 ecx, DWORD PTR _openTestStruct$149101[esp+544]
  00043	51		 push	 ecx
  00044	e8 00 00 00 00	 call	 _ToUNICODE
  00049	83 c4 04	 add	 esp, 4

; 740  : 
; 741  : 			openTestStruct.bDetectTCBootLoader = TRUE;
; 742  : 
; 743  : 			return (DeviceIoControl (hDriver, TC_IOCTL_OPEN_TEST,
; 744  : 				   &openTestStruct, sizeof (OPEN_TEST_STRUCT),
; 745  : 				   &openTestStruct, sizeof (OPEN_TEST_STRUCT),
; 746  : 				   &dwResult, NULL) && openTestStruct.TCBootLoaderDetected);

  0004c	6a 00		 push	 0
  0004e	8d 54 24 04	 lea	 edx, DWORD PTR _dwResult$149102[esp+548]
  00052	52		 push	 edx
  00053	8b 15 00 00 00
	00		 mov	 edx, DWORD PTR _hDriver
  00059	68 18 02 00 00	 push	 536			; 00000218H
  0005e	8d 44 24 10	 lea	 eax, DWORD PTR _openTestStruct$149101[esp+556]
  00062	50		 push	 eax
  00063	68 18 02 00 00	 push	 536			; 00000218H
  00068	8b c8		 mov	 ecx, eax
  0006a	51		 push	 ecx
  0006b	68 34 20 22 00	 push	 2236468			; 00222034H
  00070	52		 push	 edx
  00071	c7 84 24 2c 02
	00 00 01 00 00
	00		 mov	 DWORD PTR _openTestStruct$149101[esp+1096], 1
  0007c	ff 15 00 00 00
	00		 call	 DWORD PTR __imp__DeviceIoControl@32
  00082	85 c0		 test	 eax, eax
  00084	74 26		 je	 SHORT $LN5@IsBootLoad
  00086	83 bc 24 10 02
	00 00 00	 cmp	 DWORD PTR _openTestStruct$149101[esp+1068], 0
  0008e	74 1c		 je	 SHORT $LN5@IsBootLoad
  00090	b8 01 00 00 00	 mov	 eax, 1

; 747  : 		}
; 748  : 		catch (...)
; 749  : 		{
; 750  : 			return false;
; 751  : 		}
; 752  : 	}

  00095	8b 8c 24 1c 02
	00 00		 mov	 ecx, DWORD PTR __$ArrayPad$[esp+544]
  0009c	33 cc		 xor	 ecx, esp
  0009e	e8 00 00 00 00	 call	 @__security_check_cookie@4
  000a3	81 c4 20 02 00
	00		 add	 esp, 544		; 00000220H
  000a9	c2 04 00	 ret	 4
$LN5@IsBootLoad:
  000ac	8b 8c 24 1c 02
	00 00		 mov	 ecx, DWORD PTR __$ArrayPad$[esp+544]
  000b3	33 cc		 xor	 ecx, esp
  000b5	33 c0		 xor	 eax, eax
  000b7	e8 00 00 00 00	 call	 @__security_check_cookie@4
  000bc	81 c4 20 02 00
	00		 add	 esp, 544		; 00000220H
  000c2	c2 04 00	 ret	 4
?IsBootLoaderOnDrive@BootEncryption@CipherShed@@QAE_NPAD@Z ENDP ; CipherShed::BootEncryption::IsBootLoaderOnDrive
_TEXT	ENDS
PUBLIC	?GetChecksum@BootEncryption@CipherShed@@IAEIPAEI@Z ; CipherShed::BootEncryption::GetChecksum
; Function compile flags: /Ogtpy
;	COMDAT ?GetChecksum@BootEncryption@CipherShed@@IAEIPAEI@Z
_TEXT	SEGMENT
_data$ = 8						; size = 4
_size$ = 12						; size = 4
?GetChecksum@BootEncryption@CipherShed@@IAEIPAEI@Z PROC	; CipherShed::BootEncryption::GetChecksum, COMDAT
; _this$ = ecx

; 949  : 		uint32 sum = 0;
; 950  : 
; 951  : 		while (size-- > 0)

  00000	8b 4c 24 08	 mov	 ecx, DWORD PTR _size$[esp-4]
  00004	33 c0		 xor	 eax, eax
  00006	85 c9		 test	 ecx, ecx
  00008	76 14		 jbe	 SHORT $LN6@GetChecksu
  0000a	8b 54 24 04	 mov	 edx, DWORD PTR _data$[esp-4]
  0000e	56		 push	 esi
  0000f	90		 npad	 1
$LL2@GetChecksu:

; 952  : 		{
; 953  : 			sum += *data++;

  00010	0f b6 32	 movzx	 esi, BYTE PTR [edx]
  00013	03 c6		 add	 eax, esi
  00015	49		 dec	 ecx
  00016	42		 inc	 edx

; 954  : 			sum = _rotl (sum, 1);

  00017	d1 c0		 rol	 eax, 1
  00019	85 c9		 test	 ecx, ecx
  0001b	77 f3		 ja	 SHORT $LL2@GetChecksu
  0001d	5e		 pop	 esi
$LN6@GetChecksu:

; 955  : 		}
; 956  : 
; 957  : 		return sum;
; 958  : 	}

  0001e	c2 08 00	 ret	 8
?GetChecksum@BootEncryption@CipherShed@@IAEIPAEI@Z ENDP	; CipherShed::BootEncryption::GetChecksum
; Function compile flags: /Ogtpy
_TEXT	ENDS
;	COMDAT ??0Finally1278@?3??WipeHiddenOSCreationConfig@BootEncryption@CipherShed@@QAEXXZ@QAE@PAV23@@Z
_TEXT	SEGMENT
??0Finally1278@?3??WipeHiddenOSCreationConfig@BootEncryption@CipherShed@@QAEXXZ@QAE@PAV23@@Z PROC ; `CipherShed::BootEncryption::WipeHiddenOSCreationConfig'::`4'::Finally1278::Finally1278, COMDAT
; _this$ = eax
; _a$ = ecx

; 1278 : 		});

  00000	89 08		 mov	 DWORD PTR [eax], ecx
  00002	c3		 ret	 0
??0Finally1278@?3??WipeHiddenOSCreationConfig@BootEncryption@CipherShed@@QAEXXZ@QAE@PAV23@@Z ENDP ; `CipherShed::BootEncryption::WipeHiddenOSCreationConfig'::`4'::Finally1278::Finally1278
; Function compile flags: /Ogtpy
_TEXT	ENDS
;	COMDAT ??0Finally1567@?7??CreateVolumeHeader@BootEncryption@CipherShed@@IAEX_K0PAUPassword@@HHH@Z@QAE@PAPAUCRYPTO_INFO_t@@@Z
_TEXT	SEGMENT
??0Finally1567@?7??CreateVolumeHeader@BootEncryption@CipherShed@@IAEX_K0PAUPassword@@HHH@Z@QAE@PAPAUCRYPTO_INFO_t@@@Z PROC ; `CipherShed::BootEncryption::CreateVolumeHeader'::`8'::Finally1567::Finally1567, COMDAT
; _this$ = eax
; _a$ = ecx

; 1567 : 		finally_do_arg (PCRYPTO_INFO*, &cryptoInfo, { crypto_close (*finally_arg); });

  00000	89 08		 mov	 DWORD PTR [eax], ecx
  00002	c3		 ret	 0
??0Finally1567@?7??CreateVolumeHeader@BootEncryption@CipherShed@@IAEX_K0PAUPassword@@HHH@Z@QAE@PAPAUCRYPTO_INFO_t@@@Z ENDP ; `CipherShed::BootEncryption::CreateVolumeHeader'::`8'::Finally1567::Finally1567
_TEXT	ENDS
EXTRN	_crypto_close:PROC
; Function compile flags: /Ogtpy
;	COMDAT ??1Finally1567@?7??CreateVolumeHeader@BootEncryption@CipherShed@@IAEX_K0PAUPassword@@HHH@Z@QAE@XZ
_TEXT	SEGMENT
??1Finally1567@?7??CreateVolumeHeader@BootEncryption@CipherShed@@IAEX_K0PAUPassword@@HHH@Z@QAE@XZ PROC ; `CipherShed::BootEncryption::CreateVolumeHeader'::`8'::Finally1567::~Finally1567, COMDAT
; _this$ = eax

; 1567 : 		finally_do_arg (PCRYPTO_INFO*, &cryptoInfo, { crypto_close (*finally_arg); });

  00000	8b 08		 mov	 ecx, DWORD PTR [eax]
  00002	8b 11		 mov	 edx, DWORD PTR [ecx]
  00004	52		 push	 edx
  00005	e8 00 00 00 00	 call	 _crypto_close
  0000a	59		 pop	 ecx
  0000b	c3		 ret	 0
??1Finally1567@?7??CreateVolumeHeader@BootEncryption@CipherShed@@IAEX_K0PAUPassword@@HHH@Z@QAE@XZ ENDP ; `CipherShed::BootEncryption::CreateVolumeHeader'::`8'::Finally1567::~Finally1567
; Function compile flags: /Ogtpy
_TEXT	ENDS
;	COMDAT ??0Finally1708@?O@??RegisterFilter@BootEncryption@CipherShed@@IAEX_NW4FilterType@23@PBU_GUID@@@Z@QAE@PAUHKEY__@@@Z
_TEXT	SEGMENT
??0Finally1708@?O@??RegisterFilter@BootEncryption@CipherShed@@IAEX_NW4FilterType@23@PBU_GUID@@@Z@QAE@PAUHKEY__@@@Z PROC ; `CipherShed::BootEncryption::RegisterFilter'::`14'::Finally1708::Finally1708, COMDAT
; _this$ = eax
; _a$ = ecx

; 1708 : 		finally_do_arg (HKEY, regKey, { RegCloseKey (finally_arg); });

  00000	89 08		 mov	 DWORD PTR [eax], ecx
  00002	c3		 ret	 0
??0Finally1708@?O@??RegisterFilter@BootEncryption@CipherShed@@IAEX_NW4FilterType@23@PBU_GUID@@@Z@QAE@PAUHKEY__@@@Z ENDP ; `CipherShed::BootEncryption::RegisterFilter'::`14'::Finally1708::Finally1708
_TEXT	ENDS
EXTRN	__imp__RegCloseKey@4:PROC
; Function compile flags: /Ogtpy
;	COMDAT ??1Finally1708@?O@??RegisterFilter@BootEncryption@CipherShed@@IAEX_NW4FilterType@23@PBU_GUID@@@Z@QAE@XZ
_TEXT	SEGMENT
??1Finally1708@?O@??RegisterFilter@BootEncryption@CipherShed@@IAEX_NW4FilterType@23@PBU_GUID@@@Z@QAE@XZ PROC ; `CipherShed::BootEncryption::RegisterFilter'::`14'::Finally1708::~Finally1708, COMDAT
; _this$ = eax

; 1708 : 		finally_do_arg (HKEY, regKey, { RegCloseKey (finally_arg); });

  00000	8b 08		 mov	 ecx, DWORD PTR [eax]
  00002	51		 push	 ecx
  00003	ff 15 00 00 00
	00		 call	 DWORD PTR __imp__RegCloseKey@4
  00009	c3		 ret	 0
??1Finally1708@?O@??RegisterFilter@BootEncryption@CipherShed@@IAEX_NW4FilterType@23@PBU_GUID@@@Z@QAE@XZ ENDP ; `CipherShed::BootEncryption::RegisterFilter'::`14'::Finally1708::~Finally1708
; Function compile flags: /Ogtpy
_TEXT	ENDS
;	COMDAT ??0Finally1744@?BP@??RegisterFilter@BootEncryption@CipherShed@@IAEX_NW4FilterType@23@PBU_GUID@@@Z@QAE@PAX@Z
_TEXT	SEGMENT
??0Finally1744@?BP@??RegisterFilter@BootEncryption@CipherShed@@IAEX_NW4FilterType@23@PBU_GUID@@@Z@QAE@PAX@Z PROC ; `CipherShed::BootEncryption::RegisterFilter'::`31'::Finally1744::Finally1744, COMDAT
; _this$ = eax
; _a$ = ecx

; 1744 : 			finally_do_arg (HINF, hInf, { SetupCloseInfFile (finally_arg); });

  00000	89 08		 mov	 DWORD PTR [eax], ecx
  00002	c3		 ret	 0
??0Finally1744@?BP@??RegisterFilter@BootEncryption@CipherShed@@IAEX_NW4FilterType@23@PBU_GUID@@@Z@QAE@PAX@Z ENDP ; `CipherShed::BootEncryption::RegisterFilter'::`31'::Finally1744::Finally1744
_TEXT	ENDS
EXTRN	__imp__SetupCloseInfFile@4:PROC
; Function compile flags: /Ogtpy
;	COMDAT ??1Finally1744@?BP@??RegisterFilter@BootEncryption@CipherShed@@IAEX_NW4FilterType@23@PBU_GUID@@@Z@QAE@XZ
_TEXT	SEGMENT
??1Finally1744@?BP@??RegisterFilter@BootEncryption@CipherShed@@IAEX_NW4FilterType@23@PBU_GUID@@@Z@QAE@XZ PROC ; `CipherShed::BootEncryption::RegisterFilter'::`31'::Finally1744::~Finally1744, COMDAT
; _this$ = eax

; 1744 : 			finally_do_arg (HINF, hInf, { SetupCloseInfFile (finally_arg); });

  00000	8b 08		 mov	 ecx, DWORD PTR [eax]
  00002	51		 push	 ecx
  00003	ff 15 00 00 00
	00		 call	 DWORD PTR __imp__SetupCloseInfFile@4
  00009	c3		 ret	 0
??1Finally1744@?BP@??RegisterFilter@BootEncryption@CipherShed@@IAEX_NW4FilterType@23@PBU_GUID@@@Z@QAE@XZ ENDP ; `CipherShed::BootEncryption::RegisterFilter'::`31'::Finally1744::~Finally1744
; Function compile flags: /Ogtpy
_TEXT	ENDS
;	COMDAT ??0Finally2039@?BC@??Deinstall@BootEncryption@CipherShed@@QAEX_N@Z@QAE@0@Z
_TEXT	SEGMENT
??0Finally2039@?BC@??Deinstall@BootEncryption@CipherShed@@QAEX_N@Z@QAE@0@Z PROC ; `CipherShed::BootEncryption::Deinstall'::`18'::Finally2039::Finally2039, COMDAT
; _this$ = eax
; _a$ = ecx

; 2039 : 			finally_do_arg (bool, displayWaitDialog, { if (finally_arg) CloseStaticModelessWaitDlg(); });

  00000	88 08		 mov	 BYTE PTR [eax], cl
  00002	c3		 ret	 0
??0Finally2039@?BC@??Deinstall@BootEncryption@CipherShed@@QAEX_N@Z@QAE@0@Z ENDP ; `CipherShed::BootEncryption::Deinstall'::`18'::Finally2039::Finally2039
_TEXT	ENDS
EXTRN	_CloseStaticModelessWaitDlg:PROC
; Function compile flags: /Ogtpy
;	COMDAT ??1Finally2039@?BC@??Deinstall@BootEncryption@CipherShed@@QAEX_N@Z@QAE@XZ
_TEXT	SEGMENT
??1Finally2039@?BC@??Deinstall@BootEncryption@CipherShed@@QAEX_N@Z@QAE@XZ PROC ; `CipherShed::BootEncryption::Deinstall'::`18'::Finally2039::~Finally2039, COMDAT
; _this$ = eax

; 2039 : 			finally_do_arg (bool, displayWaitDialog, { if (finally_arg) CloseStaticModelessWaitDlg(); });

  00000	80 38 00	 cmp	 BYTE PTR [eax], 0
  00003	74 05		 je	 SHORT $LN1@Finally203
  00005	e9 00 00 00 00	 jmp	 _CloseStaticModelessWaitDlg
$LN1@Finally203:
  0000a	c3		 ret	 0
??1Finally2039@?BC@??Deinstall@BootEncryption@CipherShed@@QAEX_N@Z@QAE@XZ ENDP ; `CipherShed::BootEncryption::Deinstall'::`18'::Finally2039::~Finally2039
; Function compile flags: /Ogtpy
_TEXT	ENDS
;	COMDAT ??0Finally2094@?BB@??ChangePassword@BootEncryption@CipherShed@@QAEHPAUPassword@@0H@Z@QAE@PAUCRYPTO_INFO_t@@@Z
_TEXT	SEGMENT
??0Finally2094@?BB@??ChangePassword@BootEncryption@CipherShed@@QAEHPAUPassword@@0H@Z@QAE@PAUCRYPTO_INFO_t@@@Z PROC ; `CipherShed::BootEncryption::ChangePassword'::`17'::Finally2094::Finally2094, COMDAT
; _this$ = eax
; _a$ = ecx

; 2094 : 		finally_do_arg (PCRYPTO_INFO, cryptoInfo, { if (finally_arg) crypto_close (finally_arg); });

  00000	89 08		 mov	 DWORD PTR [eax], ecx
  00002	c3		 ret	 0
??0Finally2094@?BB@??ChangePassword@BootEncryption@CipherShed@@QAEHPAUPassword@@0H@Z@QAE@PAUCRYPTO_INFO_t@@@Z ENDP ; `CipherShed::BootEncryption::ChangePassword'::`17'::Finally2094::Finally2094
; Function compile flags: /Ogtpy
_TEXT	ENDS
;	COMDAT ??1Finally2094@?BB@??ChangePassword@BootEncryption@CipherShed@@QAEHPAUPassword@@0H@Z@QAE@XZ
_TEXT	SEGMENT
??1Finally2094@?BB@??ChangePassword@BootEncryption@CipherShed@@QAEHPAUPassword@@0H@Z@QAE@XZ PROC ; `CipherShed::BootEncryption::ChangePassword'::`17'::Finally2094::~Finally2094, COMDAT
; _this$ = eax

; 2094 : 		finally_do_arg (PCRYPTO_INFO, cryptoInfo, { if (finally_arg) crypto_close (finally_arg); });

  00000	8b 00		 mov	 eax, DWORD PTR [eax]
  00002	85 c0		 test	 eax, eax
  00004	74 07		 je	 SHORT $LN1@Finally209
  00006	50		 push	 eax
  00007	e8 00 00 00 00	 call	 _crypto_close
  0000c	59		 pop	 ecx
$LN1@Finally209:
  0000d	c3		 ret	 0
??1Finally2094@?BB@??ChangePassword@BootEncryption@CipherShed@@QAEHPAUPassword@@0H@Z@QAE@XZ ENDP ; `CipherShed::BootEncryption::ChangePassword'::`17'::Finally2094::~Finally2094
_TEXT	ENDS
EXTRN	_RandStop:PROC
; Function compile flags: /Ogtpy
;	COMDAT ??1Finally2110@?BM@??ChangePassword@BootEncryption@CipherShed@@QAEHPAUPassword@@0H@Z@QAE@XZ
_TEXT	SEGMENT
??1Finally2110@?BM@??ChangePassword@BootEncryption@CipherShed@@QAEHPAUPassword@@0H@Z@QAE@XZ PROC ; `CipherShed::BootEncryption::ChangePassword'::`28'::Finally2110::~Finally2110, COMDAT

; 2110 : 		finally_do ({ RandStop (FALSE); });

  00000	6a 00		 push	 0
  00002	e8 00 00 00 00	 call	 _RandStop
  00007	59		 pop	 ecx
  00008	c3		 ret	 0
??1Finally2110@?BM@??ChangePassword@BootEncryption@CipherShed@@QAEHPAUPassword@@0H@Z@QAE@XZ ENDP ; `CipherShed::BootEncryption::ChangePassword'::`28'::Finally2110::~Finally2110
; Function compile flags: /Ogtpy
_TEXT	ENDS
;	COMDAT ??0Finally2188@?CN@??ChangePassword@BootEncryption@CipherShed@@QAEHPAUPassword@@0H@Z@QAE@PAUReopenBootVolumeHeaderRequest@@@Z
_TEXT	SEGMENT
??0Finally2188@?CN@??ChangePassword@BootEncryption@CipherShed@@QAEHPAUPassword@@0H@Z@QAE@PAUReopenBootVolumeHeaderRequest@@@Z PROC ; `CipherShed::BootEncryption::ChangePassword'::`45'::Finally2188::Finally2188, COMDAT
; _this$ = eax
; _a$ = ecx

; 2188 : 			finally_do_arg (ReopenBootVolumeHeaderRequest*, &reopenRequest, { burn (finally_arg, sizeof (*finally_arg)); });

  00000	89 08		 mov	 DWORD PTR [eax], ecx
  00002	c3		 ret	 0
??0Finally2188@?CN@??ChangePassword@BootEncryption@CipherShed@@QAEHPAUPassword@@0H@Z@QAE@PAUReopenBootVolumeHeaderRequest@@@Z ENDP ; `CipherShed::BootEncryption::ChangePassword'::`45'::Finally2188::Finally2188
; Function compile flags: /Ogtpy
_TEXT	ENDS
;	COMDAT ??1Finally2188@?CN@??ChangePassword@BootEncryption@CipherShed@@QAEHPAUPassword@@0H@Z@QAE@XZ
_TEXT	SEGMENT
??1Finally2188@?CN@??ChangePassword@BootEncryption@CipherShed@@QAEHPAUPassword@@0H@Z@QAE@XZ PROC ; `CipherShed::BootEncryption::ChangePassword'::`45'::Finally2188::~Finally2188, COMDAT
; _this$ = eax

; 2188 : 			finally_do_arg (ReopenBootVolumeHeaderRequest*, &reopenRequest, { burn (finally_arg, sizeof (*finally_arg)); });

  00000	8b 00		 mov	 eax, DWORD PTR [eax]
  00002	ba 48 00 00 00	 mov	 edx, 72			; 00000048H
  00007	56		 push	 esi
  00008	8b f2		 mov	 esi, edx
  0000a	8b c8		 mov	 ecx, eax
  0000c	8d 64 24 00	 npad	 4
$LL14@Finally218:
  00010	c6 01 00	 mov	 BYTE PTR [ecx], 0
  00013	41		 inc	 ecx
  00014	83 ee 01	 sub	 esi, 1
  00017	75 f7		 jne	 SHORT $LL14@Finally218
  00019	5e		 pop	 esi
  0001a	8d 9b 00 00 00
	00		 npad	 6
$LL2@Finally218:
  00020	4a		 dec	 edx
  00021	c6 00 00	 mov	 BYTE PTR [eax], 0
  00024	40		 inc	 eax
  00025	85 d2		 test	 edx, edx
  00027	75 f7		 jne	 SHORT $LL2@Finally218
  00029	c3		 ret	 0
??1Finally2188@?CN@??ChangePassword@BootEncryption@CipherShed@@QAEHPAUPassword@@0H@Z@QAE@XZ ENDP ; `CipherShed::BootEncryption::ChangePassword'::`45'::Finally2188::~Finally2188
_TEXT	ENDS
PUBLIC	??_C@_0CM@CEEDGJNL@SYSTEM?2CurrentControlSet?2Service@ ; `string'
PUBLIC	??_C@_0BA@DGAECNJJ@TrueCryptConfig?$AA@		; `string'
PUBLIC	?ReadDriverConfigurationFlags@BootEncryption@CipherShed@@QAEIXZ ; CipherShed::BootEncryption::ReadDriverConfigurationFlags
EXTRN	_ReadLocalMachineRegistryDword:PROC
;	COMDAT ??_C@_0CM@CEEDGJNL@SYSTEM?2CurrentControlSet?2Service@
CONST	SEGMENT
??_C@_0CM@CEEDGJNL@SYSTEM?2CurrentControlSet?2Service@ DB 'SYSTEM\Current'
	DB	'ControlSet\Services\truecrypt', 00H		; `string'
CONST	ENDS
;	COMDAT ??_C@_0BA@DGAECNJJ@TrueCryptConfig?$AA@
CONST	SEGMENT
??_C@_0BA@DGAECNJJ@TrueCryptConfig?$AA@ DB 'TrueCryptConfig', 00H ; `string'
; Function compile flags: /Ogtpy
CONST	ENDS
;	COMDAT ?ReadDriverConfigurationFlags@BootEncryption@CipherShed@@QAEIXZ
_TEXT	SEGMENT
_configMap$ = -4					; size = 4
?ReadDriverConfigurationFlags@BootEncryption@CipherShed@@QAEIXZ PROC ; CipherShed::BootEncryption::ReadDriverConfigurationFlags, COMDAT
; _this$ = ecx

; 2404 : 	{

  00000	51		 push	 ecx

; 2405 : 		DWORD configMap;
; 2406 : 
; 2407 : 		if (!ReadLocalMachineRegistryDword ("SYSTEM\\CurrentControlSet\\Services\\truecrypt", TC_DRIVER_CONFIG_REG_VALUE_NAME, &configMap))

  00001	8d 04 24	 lea	 eax, DWORD PTR _configMap$[esp+4]
  00004	50		 push	 eax
  00005	68 00 00 00 00	 push	 OFFSET ??_C@_0BA@DGAECNJJ@TrueCryptConfig?$AA@
  0000a	68 00 00 00 00	 push	 OFFSET ??_C@_0CM@CEEDGJNL@SYSTEM?2CurrentControlSet?2Service@
  0000f	e8 00 00 00 00	 call	 _ReadLocalMachineRegistryDword
  00014	83 c4 0c	 add	 esp, 12			; 0000000cH
  00017	85 c0		 test	 eax, eax
  00019	75 02		 jne	 SHORT $LN4@ReadDriver

; 2411 : 	}

  0001b	59		 pop	 ecx
  0001c	c3		 ret	 0
$LN4@ReadDriver:

; 2408 : 			configMap = 0;
; 2409 : 
; 2410 : 		return configMap;

  0001d	8b 04 24	 mov	 eax, DWORD PTR _configMap$[esp+4]

; 2411 : 	}

  00020	59		 pop	 ecx
  00021	c3		 ret	 0
?ReadDriverConfigurationFlags@BootEncryption@CipherShed@@QAEIXZ ENDP ; CipherShed::BootEncryption::ReadDriverConfigurationFlags
_TEXT	ENDS
PUBLIC	?RestartComputer@BootEncryption@CipherShed@@QAE_NXZ ; CipherShed::BootEncryption::RestartComputer
EXTRN	_RestartComputer:PROC
; Function compile flags: /Ogtpy
;	COMDAT ?RestartComputer@BootEncryption@CipherShed@@QAE_NXZ
_TEXT	SEGMENT
?RestartComputer@BootEncryption@CipherShed@@QAE_NXZ PROC ; CipherShed::BootEncryption::RestartComputer, COMDAT
; _this$ = ecx

; 2456 : 		return (::RestartComputer() != FALSE);

  00000	e8 00 00 00 00	 call	 _RestartComputer
  00005	f7 d8		 neg	 eax
  00007	1b c0		 sbb	 eax, eax
  00009	f7 d8		 neg	 eax

; 2457 : 	}

  0000b	c3		 ret	 0
?RestartComputer@BootEncryption@CipherShed@@QAE_NXZ ENDP ; CipherShed::BootEncryption::RestartComputer
_TEXT	ENDS
PUBLIC	?size@?$basic_string@DU?$char_traits@D@std@@V?$allocator@D@2@@std@@QBEIXZ ; std::basic_string<char,std::char_traits<char>,std::allocator<char> >::size
; Function compile flags: /Ogtpy
; File c:\program files (x86)\microsoft visual studio 9.0\vc\include\xstring
;	COMDAT ?size@?$basic_string@DU?$char_traits@D@std@@V?$allocator@D@2@@std@@QBEIXZ
_TEXT	SEGMENT
?size@?$basic_string@DU?$char_traits@D@std@@V?$allocator@D@2@@std@@QBEIXZ PROC ; std::basic_string<char,std::char_traits<char>,std::allocator<char> >::size, COMDAT
; _this$ = ecx

; 1666 : 		return (_Mysize);

  00000	8b 41 14	 mov	 eax, DWORD PTR [ecx+20]

; 1667 : 		}

  00003	c3		 ret	 0
?size@?$basic_string@DU?$char_traits@D@std@@V?$allocator@D@2@@std@@QBEIXZ ENDP ; std::basic_string<char,std::char_traits<char>,std::allocator<char> >::size
_TEXT	ENDS
PUBLIC	?empty@?$basic_string@DU?$char_traits@D@std@@V?$allocator@D@2@@std@@QBE_NXZ ; std::basic_string<char,std::char_traits<char>,std::allocator<char> >::empty
; Function compile flags: /Ogtpy
;	COMDAT ?empty@?$basic_string@DU?$char_traits@D@std@@V?$allocator@D@2@@std@@QBE_NXZ
_TEXT	SEGMENT
?empty@?$basic_string@DU?$char_traits@D@std@@V?$allocator@D@2@@std@@QBE_NXZ PROC ; std::basic_string<char,std::char_traits<char>,std::allocator<char> >::empty, COMDAT
; _this$ = ecx

; 1705 : 		return (_Mysize == 0);

  00000	33 c0		 xor	 eax, eax
  00002	39 41 14	 cmp	 DWORD PTR [ecx+20], eax
  00005	0f 94 c0	 sete	 al

; 1706 : 		}

  00008	c3		 ret	 0
?empty@?$basic_string@DU?$char_traits@D@std@@V?$allocator@D@2@@std@@QBE_NXZ ENDP ; std::basic_string<char,std::char_traits<char>,std::allocator<char> >::empty
_TEXT	ENDS
PUBLIC	?size@?$basic_string@_WU?$char_traits@_W@std@@V?$allocator@_W@2@@std@@QBEIXZ ; std::basic_string<wchar_t,std::char_traits<wchar_t>,std::allocator<wchar_t> >::size
; Function compile flags: /Ogtpy
;	COMDAT ?size@?$basic_string@_WU?$char_traits@_W@std@@V?$allocator@_W@2@@std@@QBEIXZ
_TEXT	SEGMENT
?size@?$basic_string@_WU?$char_traits@_W@std@@V?$allocator@_W@2@@std@@QBEIXZ PROC ; std::basic_string<wchar_t,std::char_traits<wchar_t>,std::allocator<wchar_t> >::size, COMDAT
; _this$ = ecx

; 1666 : 		return (_Mysize);

  00000	8b 41 14	 mov	 eax, DWORD PTR [ecx+20]

; 1667 : 		}

  00003	c3		 ret	 0
?size@?$basic_string@_WU?$char_traits@_W@std@@V?$allocator@_W@2@@std@@QBEIXZ ENDP ; std::basic_string<wchar_t,std::char_traits<wchar_t>,std::allocator<wchar_t> >::size
_TEXT	ENDS
PUBLIC	?empty@?$basic_string@_WU?$char_traits@_W@std@@V?$allocator@_W@2@@std@@QBE_NXZ ; std::basic_string<wchar_t,std::char_traits<wchar_t>,std::allocator<wchar_t> >::empty
; Function compile flags: /Ogtpy
;	COMDAT ?empty@?$basic_string@_WU?$char_traits@_W@std@@V?$allocator@_W@2@@std@@QBE_NXZ
_TEXT	SEGMENT
?empty@?$basic_string@_WU?$char_traits@_W@std@@V?$allocator@_W@2@@std@@QBE_NXZ PROC ; std::basic_string<wchar_t,std::char_traits<wchar_t>,std::allocator<wchar_t> >::empty, COMDAT
; _this$ = ecx

; 1705 : 		return (_Mysize == 0);

  00000	33 c0		 xor	 eax, eax
  00002	39 41 14	 cmp	 DWORD PTR [ecx+20], eax
  00005	0f 94 c0	 sete	 al

; 1706 : 		}

  00008	c3		 ret	 0
?empty@?$basic_string@_WU?$char_traits@_W@std@@V?$allocator@_W@2@@std@@QBE_NXZ ENDP ; std::basic_string<wchar_t,std::char_traits<wchar_t>,std::allocator<wchar_t> >::empty
_TEXT	ENDS
PUBLIC	??_7?$basic_ostream@DU?$char_traits@D@std@@@std@@6B@ ; std::basic_ostream<char,std::char_traits<char> >::`vftable'
PUBLIC	??1?$basic_ostream@DU?$char_traits@D@std@@@std@@UAE@XZ ; std::basic_ostream<char,std::char_traits<char> >::~basic_ostream<char,std::char_traits<char> >
PUBLIC	??_R4?$basic_ostream@DU?$char_traits@D@std@@@std@@6B@ ; std::basic_ostream<char,std::char_traits<char> >::`RTTI Complete Object Locator'
PUBLIC	??_R0?AV?$basic_ostream@DU?$char_traits@D@std@@@std@@@8 ; std::basic_ostream<char,std::char_traits<char> > `RTTI Type Descriptor'
PUBLIC	??_R3?$basic_ostream@DU?$char_traits@D@std@@@std@@8 ; std::basic_ostream<char,std::char_traits<char> >::`RTTI Class Hierarchy Descriptor'
PUBLIC	??_R2?$basic_ostream@DU?$char_traits@D@std@@@std@@8 ; std::basic_ostream<char,std::char_traits<char> >::`RTTI Base Class Array'
PUBLIC	??_R1A@?0A@EA@?$basic_ostream@DU?$char_traits@D@std@@@std@@8 ; std::basic_ostream<char,std::char_traits<char> >::`RTTI Base Class Descriptor at (0,-1,0,64)'
PUBLIC	??_R1A@A@3FA@?$basic_ios@DU?$char_traits@D@std@@@std@@8 ; std::basic_ios<char,std::char_traits<char> >::`RTTI Base Class Descriptor at (0,0,4,80)'
PUBLIC	??_R0?AV?$basic_ios@DU?$char_traits@D@std@@@std@@@8 ; std::basic_ios<char,std::char_traits<char> > `RTTI Type Descriptor'
PUBLIC	??_R3?$basic_ios@DU?$char_traits@D@std@@@std@@8	; std::basic_ios<char,std::char_traits<char> >::`RTTI Class Hierarchy Descriptor'
PUBLIC	??_R2?$basic_ios@DU?$char_traits@D@std@@@std@@8	; std::basic_ios<char,std::char_traits<char> >::`RTTI Base Class Array'
PUBLIC	??_R1A@?0A@EA@?$basic_ios@DU?$char_traits@D@std@@@std@@8 ; std::basic_ios<char,std::char_traits<char> >::`RTTI Base Class Descriptor at (0,-1,0,64)'
PUBLIC	??_R1A@A@3EA@ios_base@std@@8			; std::ios_base::`RTTI Base Class Descriptor at (0,0,4,64)'
PUBLIC	??_R13A@3EA@?$_Iosb@H@std@@8			; std::_Iosb<int>::`RTTI Base Class Descriptor at (4,0,4,64)'
EXTRN	??_E?$basic_ostream@DU?$char_traits@D@std@@@std@@UAEPAXI@Z:PROC ; std::basic_ostream<char,std::char_traits<char> >::`vector deleting destructor'
;	COMDAT ??_R13A@3EA@?$_Iosb@H@std@@8
; File c:\program files (x86)\microsoft visual studio 9.0\vc\include\ostream
rdata$r	SEGMENT
??_R13A@3EA@?$_Iosb@H@std@@8 DD FLAT:??_R0?AV?$_Iosb@H@std@@@8 ; std::_Iosb<int>::`RTTI Base Class Descriptor at (4,0,4,64)'
	DD	00H
	DD	04H
	DD	00H
	DD	04H
	DD	040H
	DD	FLAT:??_R3?$_Iosb@H@std@@8
rdata$r	ENDS
;	COMDAT ??_R1A@A@3EA@ios_base@std@@8
rdata$r	SEGMENT
??_R1A@A@3EA@ios_base@std@@8 DD FLAT:??_R0?AVios_base@std@@@8 ; std::ios_base::`RTTI Base Class Descriptor at (0,0,4,64)'
	DD	01H
	DD	00H
	DD	00H
	DD	04H
	DD	040H
	DD	FLAT:??_R3ios_base@std@@8
rdata$r	ENDS
;	COMDAT ??_R1A@?0A@EA@?$basic_ios@DU?$char_traits@D@std@@@std@@8
rdata$r	SEGMENT
??_R1A@?0A@EA@?$basic_ios@DU?$char_traits@D@std@@@std@@8 DD FLAT:??_R0?AV?$basic_ios@DU?$char_traits@D@std@@@std@@@8 ; std::basic_ios<char,std::char_traits<char> >::`RTTI Base Class Descriptor at (0,-1,0,64)'
	DD	02H
	DD	00H
	DD	0ffffffffH
	DD	00H
	DD	040H
	DD	FLAT:??_R3?$basic_ios@DU?$char_traits@D@std@@@std@@8
rdata$r	ENDS
;	COMDAT ??_R2?$basic_ios@DU?$char_traits@D@std@@@std@@8
rdata$r	SEGMENT
??_R2?$basic_ios@DU?$char_traits@D@std@@@std@@8 DD FLAT:??_R1A@?0A@EA@?$basic_ios@DU?$char_traits@D@std@@@std@@8 ; std::basic_ios<char,std::char_traits<char> >::`RTTI Base Class Array'
	DD	FLAT:??_R1A@?0A@EA@ios_base@std@@8
	DD	FLAT:??_R13?0A@EA@?$_Iosb@H@std@@8
rdata$r	ENDS
;	COMDAT ??_R3?$basic_ios@DU?$char_traits@D@std@@@std@@8
rdata$r	SEGMENT
??_R3?$basic_ios@DU?$char_traits@D@std@@@std@@8 DD 00H	; std::basic_ios<char,std::char_traits<char> >::`RTTI Class Hierarchy Descriptor'
	DD	00H
	DD	03H
	DD	FLAT:??_R2?$basic_ios@DU?$char_traits@D@std@@@std@@8
rdata$r	ENDS
;	COMDAT ??_R0?AV?$basic_ios@DU?$char_traits@D@std@@@std@@@8
_DATA	SEGMENT
??_R0?AV?$basic_ios@DU?$char_traits@D@std@@@std@@@8 DD FLAT:??_7type_info@@6B@ ; std::basic_ios<char,std::char_traits<char> > `RTTI Type Descriptor'
	DD	00H
	DB	'.?AV?$basic_ios@DU?$char_traits@D@std@@@std@@', 00H
_DATA	ENDS
;	COMDAT ??_R1A@A@3FA@?$basic_ios@DU?$char_traits@D@std@@@std@@8
rdata$r	SEGMENT
??_R1A@A@3FA@?$basic_ios@DU?$char_traits@D@std@@@std@@8 DD FLAT:??_R0?AV?$basic_ios@DU?$char_traits@D@std@@@std@@@8 ; std::basic_ios<char,std::char_traits<char> >::`RTTI Base Class Descriptor at (0,0,4,80)'
	DD	02H
	DD	00H
	DD	00H
	DD	04H
	DD	050H
	DD	FLAT:??_R3?$basic_ios@DU?$char_traits@D@std@@@std@@8
rdata$r	ENDS
;	COMDAT ??_R1A@?0A@EA@?$basic_ostream@DU?$char_traits@D@std@@@std@@8
rdata$r	SEGMENT
??_R1A@?0A@EA@?$basic_ostream@DU?$char_traits@D@std@@@std@@8 DD FLAT:??_R0?AV?$basic_ostream@DU?$char_traits@D@std@@@std@@@8 ; std::basic_ostream<char,std::char_traits<char> >::`RTTI Base Class Descriptor at (0,-1,0,64)'
	DD	03H
	DD	00H
	DD	0ffffffffH
	DD	00H
	DD	040H
	DD	FLAT:??_R3?$basic_ostream@DU?$char_traits@D@std@@@std@@8
rdata$r	ENDS
;	COMDAT ??_R2?$basic_ostream@DU?$char_traits@D@std@@@std@@8
rdata$r	SEGMENT
??_R2?$basic_ostream@DU?$char_traits@D@std@@@std@@8 DD FLAT:??_R1A@?0A@EA@?$basic_ostream@DU?$char_traits@D@std@@@std@@8 ; std::basic_ostream<char,std::char_traits<char> >::`RTTI Base Class Array'
	DD	FLAT:??_R1A@A@3FA@?$basic_ios@DU?$char_traits@D@std@@@std@@8
	DD	FLAT:??_R1A@A@3EA@ios_base@std@@8
	DD	FLAT:??_R13A@3EA@?$_Iosb@H@std@@8
rdata$r	ENDS
;	COMDAT ??_R3?$basic_ostream@DU?$char_traits@D@std@@@std@@8
rdata$r	SEGMENT
??_R3?$basic_ostream@DU?$char_traits@D@std@@@std@@8 DD 00H ; std::basic_ostream<char,std::char_traits<char> >::`RTTI Class Hierarchy Descriptor'
	DD	00H
	DD	04H
	DD	FLAT:??_R2?$basic_ostream@DU?$char_traits@D@std@@@std@@8
rdata$r	ENDS
;	COMDAT ??_R0?AV?$basic_ostream@DU?$char_traits@D@std@@@std@@@8
_DATA	SEGMENT
??_R0?AV?$basic_ostream@DU?$char_traits@D@std@@@std@@@8 DD FLAT:??_7type_info@@6B@ ; std::basic_ostream<char,std::char_traits<char> > `RTTI Type Descriptor'
	DD	00H
	DB	'.?AV?$basic_ostream@DU?$char_traits@D@std@@@std@@', 00H
_DATA	ENDS
;	COMDAT ??_R4?$basic_ostream@DU?$char_traits@D@std@@@std@@6B@
rdata$r	SEGMENT
??_R4?$basic_ostream@DU?$char_traits@D@std@@@std@@6B@ DD 00H ; std::basic_ostream<char,std::char_traits<char> >::`RTTI Complete Object Locator'
	DD	04H
	DD	00H
	DD	FLAT:??_R0?AV?$basic_ostream@DU?$char_traits@D@std@@@std@@@8
	DD	FLAT:??_R3?$basic_ostream@DU?$char_traits@D@std@@@std@@8
rdata$r	ENDS
;	COMDAT ??_7?$basic_ostream@DU?$char_traits@D@std@@@std@@6B@
CONST	SEGMENT
??_7?$basic_ostream@DU?$char_traits@D@std@@@std@@6B@ DD FLAT:??_R4?$basic_ostream@DU?$char_traits@D@std@@@std@@6B@ ; std::basic_ostream<char,std::char_traits<char> >::`vftable'
	DD	FLAT:??_E?$basic_ostream@DU?$char_traits@D@std@@@std@@UAEPAXI@Z
; Function compile flags: /Ogtpy
CONST	ENDS
;	COMDAT ??1?$basic_ostream@DU?$char_traits@D@std@@@std@@UAE@XZ
_TEXT	SEGMENT
??1?$basic_ostream@DU?$char_traits@D@std@@@std@@UAE@XZ PROC ; std::basic_ostream<char,std::char_traits<char> >::~basic_ostream<char,std::char_traits<char> >, COMDAT
; _this$ = ecx

; 63   : 		{	// destroy the object

  00000	8b 41 fc	 mov	 eax, DWORD PTR [ecx-4]
  00003	8b 50 04	 mov	 edx, DWORD PTR [eax+4]
  00006	c7 44 0a fc 00
	00 00 00	 mov	 DWORD PTR [edx+ecx-4], OFFSET ??_7?$basic_ostream@DU?$char_traits@D@std@@@std@@6B@

; 64   : 		}

  0000e	c3		 ret	 0
??1?$basic_ostream@DU?$char_traits@D@std@@@std@@UAE@XZ ENDP ; std::basic_ostream<char,std::char_traits<char> >::~basic_ostream<char,std::char_traits<char> >
_TEXT	ENDS
PUBLIC	??1?$basic_ios@DU?$char_traits@D@std@@@std@@UAE@XZ ; std::basic_ios<char,std::char_traits<char> >::~basic_ios<char,std::char_traits<char> >
; Function compile flags: /Ogtpy
; File c:\program files (x86)\microsoft visual studio 9.0\vc\include\ios
;	COMDAT ??1?$basic_ios@DU?$char_traits@D@std@@@std@@UAE@XZ
_TEXT	SEGMENT
??1?$basic_ios@DU?$char_traits@D@std@@@std@@UAE@XZ PROC	; std::basic_ios<char,std::char_traits<char> >::~basic_ios<char,std::char_traits<char> >, COMDAT
; _this$ = ecx

; 39   : 		}

  00000	51		 push	 ecx
  00001	c7 01 00 00 00
	00		 mov	 DWORD PTR [ecx], OFFSET ??_7ios_base@std@@6B@
  00007	e8 00 00 00 00	 call	 ?_Ios_base_dtor@ios_base@std@@CAXPAV12@@Z ; std::ios_base::_Ios_base_dtor
  0000c	59		 pop	 ecx
  0000d	c3		 ret	 0
??1?$basic_ios@DU?$char_traits@D@std@@@std@@UAE@XZ ENDP	; std::basic_ios<char,std::char_traits<char> >::~basic_ios<char,std::char_traits<char> >
_TEXT	ENDS
PUBLIC	?rdbuf@?$basic_ios@DU?$char_traits@D@std@@@std@@QBEPAV?$basic_streambuf@DU?$char_traits@D@std@@@2@XZ ; std::basic_ios<char,std::char_traits<char> >::rdbuf
; Function compile flags: /Ogtpy
;	COMDAT ?rdbuf@?$basic_ios@DU?$char_traits@D@std@@@std@@QBEPAV?$basic_streambuf@DU?$char_traits@D@std@@@2@XZ
_TEXT	SEGMENT
?rdbuf@?$basic_ios@DU?$char_traits@D@std@@@std@@QBEPAV?$basic_streambuf@DU?$char_traits@D@std@@@2@XZ PROC ; std::basic_ios<char,std::char_traits<char> >::rdbuf, COMDAT
; _this$ = ecx

; 85   : 		return (_Mystrbuf);

  00000	8b 41 28	 mov	 eax, DWORD PTR [ecx+40]

; 86   : 		}

  00003	c3		 ret	 0
?rdbuf@?$basic_ios@DU?$char_traits@D@std@@@std@@QBEPAV?$basic_streambuf@DU?$char_traits@D@std@@@2@XZ ENDP ; std::basic_ios<char,std::char_traits<char> >::rdbuf
_TEXT	ENDS
PUBLIC	??_7?$basic_ostream@_WU?$char_traits@_W@std@@@std@@6B@ ; std::basic_ostream<wchar_t,std::char_traits<wchar_t> >::`vftable'
PUBLIC	??1?$basic_ostream@_WU?$char_traits@_W@std@@@std@@UAE@XZ ; std::basic_ostream<wchar_t,std::char_traits<wchar_t> >::~basic_ostream<wchar_t,std::char_traits<wchar_t> >
PUBLIC	??_R4?$basic_ostream@_WU?$char_traits@_W@std@@@std@@6B@ ; std::basic_ostream<wchar_t,std::char_traits<wchar_t> >::`RTTI Complete Object Locator'
PUBLIC	??_R0?AV?$basic_ostream@_WU?$char_traits@_W@std@@@std@@@8 ; std::basic_ostream<wchar_t,std::char_traits<wchar_t> > `RTTI Type Descriptor'
PUBLIC	??_R3?$basic_ostream@_WU?$char_traits@_W@std@@@std@@8 ; std::basic_ostream<wchar_t,std::char_traits<wchar_t> >::`RTTI Class Hierarchy Descriptor'
PUBLIC	??_R2?$basic_ostream@_WU?$char_traits@_W@std@@@std@@8 ; std::basic_ostream<wchar_t,std::char_traits<wchar_t> >::`RTTI Base Class Array'
PUBLIC	??_R1A@?0A@EA@?$basic_ostream@_WU?$char_traits@_W@std@@@std@@8 ; std::basic_ostream<wchar_t,std::char_traits<wchar_t> >::`RTTI Base Class Descriptor at (0,-1,0,64)'
PUBLIC	??_R1A@A@3FA@?$basic_ios@_WU?$char_traits@_W@std@@@std@@8 ; std::basic_ios<wchar_t,std::char_traits<wchar_t> >::`RTTI Base Class Descriptor at (0,0,4,80)'
PUBLIC	??_R0?AV?$basic_ios@_WU?$char_traits@_W@std@@@std@@@8 ; std::basic_ios<wchar_t,std::char_traits<wchar_t> > `RTTI Type Descriptor'
PUBLIC	??_R3?$basic_ios@_WU?$char_traits@_W@std@@@std@@8 ; std::basic_ios<wchar_t,std::char_traits<wchar_t> >::`RTTI Class Hierarchy Descriptor'
PUBLIC	??_R2?$basic_ios@_WU?$char_traits@_W@std@@@std@@8 ; std::basic_ios<wchar_t,std::char_traits<wchar_t> >::`RTTI Base Class Array'
PUBLIC	??_R1A@?0A@EA@?$basic_ios@_WU?$char_traits@_W@std@@@std@@8 ; std::basic_ios<wchar_t,std::char_traits<wchar_t> >::`RTTI Base Class Descriptor at (0,-1,0,64)'
EXTRN	??_E?$basic_ostream@_WU?$char_traits@_W@std@@@std@@UAEPAXI@Z:PROC ; std::basic_ostream<wchar_t,std::char_traits<wchar_t> >::`vector deleting destructor'
;	COMDAT ??_R1A@?0A@EA@?$basic_ios@_WU?$char_traits@_W@std@@@std@@8
; File c:\program files (x86)\microsoft visual studio 9.0\vc\include\ostream
rdata$r	SEGMENT
??_R1A@?0A@EA@?$basic_ios@_WU?$char_traits@_W@std@@@std@@8 DD FLAT:??_R0?AV?$basic_ios@_WU?$char_traits@_W@std@@@std@@@8 ; std::basic_ios<wchar_t,std::char_traits<wchar_t> >::`RTTI Base Class Descriptor at (0,-1,0,64)'
	DD	02H
	DD	00H
	DD	0ffffffffH
	DD	00H
	DD	040H
	DD	FLAT:??_R3?$basic_ios@_WU?$char_traits@_W@std@@@std@@8
rdata$r	ENDS
;	COMDAT ??_R2?$basic_ios@_WU?$char_traits@_W@std@@@std@@8
rdata$r	SEGMENT
??_R2?$basic_ios@_WU?$char_traits@_W@std@@@std@@8 DD FLAT:??_R1A@?0A@EA@?$basic_ios@_WU?$char_traits@_W@std@@@std@@8 ; std::basic_ios<wchar_t,std::char_traits<wchar_t> >::`RTTI Base Class Array'
	DD	FLAT:??_R1A@?0A@EA@ios_base@std@@8
	DD	FLAT:??_R13?0A@EA@?$_Iosb@H@std@@8
rdata$r	ENDS
;	COMDAT ??_R3?$basic_ios@_WU?$char_traits@_W@std@@@std@@8
rdata$r	SEGMENT
??_R3?$basic_ios@_WU?$char_traits@_W@std@@@std@@8 DD 00H ; std::basic_ios<wchar_t,std::char_traits<wchar_t> >::`RTTI Class Hierarchy Descriptor'
	DD	00H
	DD	03H
	DD	FLAT:??_R2?$basic_ios@_WU?$char_traits@_W@std@@@std@@8
rdata$r	ENDS
;	COMDAT ??_R0?AV?$basic_ios@_WU?$char_traits@_W@std@@@std@@@8
_DATA	SEGMENT
??_R0?AV?$basic_ios@_WU?$char_traits@_W@std@@@std@@@8 DD FLAT:??_7type_info@@6B@ ; std::basic_ios<wchar_t,std::char_traits<wchar_t> > `RTTI Type Descriptor'
	DD	00H
	DB	'.?AV?$basic_ios@_WU?$char_traits@_W@std@@@std@@', 00H
_DATA	ENDS
;	COMDAT ??_R1A@A@3FA@?$basic_ios@_WU?$char_traits@_W@std@@@std@@8
rdata$r	SEGMENT
??_R1A@A@3FA@?$basic_ios@_WU?$char_traits@_W@std@@@std@@8 DD FLAT:??_R0?AV?$basic_ios@_WU?$char_traits@_W@std@@@std@@@8 ; std::basic_ios<wchar_t,std::char_traits<wchar_t> >::`RTTI Base Class Descriptor at (0,0,4,80)'
	DD	02H
	DD	00H
	DD	00H
	DD	04H
	DD	050H
	DD	FLAT:??_R3?$basic_ios@_WU?$char_traits@_W@std@@@std@@8
rdata$r	ENDS
;	COMDAT ??_R1A@?0A@EA@?$basic_ostream@_WU?$char_traits@_W@std@@@std@@8
rdata$r	SEGMENT
??_R1A@?0A@EA@?$basic_ostream@_WU?$char_traits@_W@std@@@std@@8 DD FLAT:??_R0?AV?$basic_ostream@_WU?$char_traits@_W@std@@@std@@@8 ; std::basic_ostream<wchar_t,std::char_traits<wchar_t> >::`RTTI Base Class Descriptor at (0,-1,0,64)'
	DD	03H
	DD	00H
	DD	0ffffffffH
	DD	00H
	DD	040H
	DD	FLAT:??_R3?$basic_ostream@_WU?$char_traits@_W@std@@@std@@8
rdata$r	ENDS
;	COMDAT ??_R2?$basic_ostream@_WU?$char_traits@_W@std@@@std@@8
rdata$r	SEGMENT
??_R2?$basic_ostream@_WU?$char_traits@_W@std@@@std@@8 DD FLAT:??_R1A@?0A@EA@?$basic_ostream@_WU?$char_traits@_W@std@@@std@@8 ; std::basic_ostream<wchar_t,std::char_traits<wchar_t> >::`RTTI Base Class Array'
	DD	FLAT:??_R1A@A@3FA@?$basic_ios@_WU?$char_traits@_W@std@@@std@@8
	DD	FLAT:??_R1A@A@3EA@ios_base@std@@8
	DD	FLAT:??_R13A@3EA@?$_Iosb@H@std@@8
rdata$r	ENDS
;	COMDAT ??_R3?$basic_ostream@_WU?$char_traits@_W@std@@@std@@8
rdata$r	SEGMENT
??_R3?$basic_ostream@_WU?$char_traits@_W@std@@@std@@8 DD 00H ; std::basic_ostream<wchar_t,std::char_traits<wchar_t> >::`RTTI Class Hierarchy Descriptor'
	DD	00H
	DD	04H
	DD	FLAT:??_R2?$basic_ostream@_WU?$char_traits@_W@std@@@std@@8
rdata$r	ENDS
;	COMDAT ??_R0?AV?$basic_ostream@_WU?$char_traits@_W@std@@@std@@@8
_DATA	SEGMENT
??_R0?AV?$basic_ostream@_WU?$char_traits@_W@std@@@std@@@8 DD FLAT:??_7type_info@@6B@ ; std::basic_ostream<wchar_t,std::char_traits<wchar_t> > `RTTI Type Descriptor'
	DD	00H
	DB	'.?AV?$basic_ostream@_WU?$char_traits@_W@std@@@std@@', 00H
_DATA	ENDS
;	COMDAT ??_R4?$basic_ostream@_WU?$char_traits@_W@std@@@std@@6B@
rdata$r	SEGMENT
??_R4?$basic_ostream@_WU?$char_traits@_W@std@@@std@@6B@ DD 00H ; std::basic_ostream<wchar_t,std::char_traits<wchar_t> >::`RTTI Complete Object Locator'
	DD	04H
	DD	00H
	DD	FLAT:??_R0?AV?$basic_ostream@_WU?$char_traits@_W@std@@@std@@@8
	DD	FLAT:??_R3?$basic_ostream@_WU?$char_traits@_W@std@@@std@@8
rdata$r	ENDS
;	COMDAT ??_7?$basic_ostream@_WU?$char_traits@_W@std@@@std@@6B@
CONST	SEGMENT
??_7?$basic_ostream@_WU?$char_traits@_W@std@@@std@@6B@ DD FLAT:??_R4?$basic_ostream@_WU?$char_traits@_W@std@@@std@@6B@ ; std::basic_ostream<wchar_t,std::char_traits<wchar_t> >::`vftable'
	DD	FLAT:??_E?$basic_ostream@_WU?$char_traits@_W@std@@@std@@UAEPAXI@Z
; Function compile flags: /Ogtpy
CONST	ENDS
;	COMDAT ??1?$basic_ostream@_WU?$char_traits@_W@std@@@std@@UAE@XZ
_TEXT	SEGMENT
??1?$basic_ostream@_WU?$char_traits@_W@std@@@std@@UAE@XZ PROC ; std::basic_ostream<wchar_t,std::char_traits<wchar_t> >::~basic_ostream<wchar_t,std::char_traits<wchar_t> >, COMDAT
; _this$ = ecx

; 63   : 		{	// destroy the object

  00000	8b 41 fc	 mov	 eax, DWORD PTR [ecx-4]
  00003	8b 50 04	 mov	 edx, DWORD PTR [eax+4]
  00006	c7 44 0a fc 00
	00 00 00	 mov	 DWORD PTR [edx+ecx-4], OFFSET ??_7?$basic_ostream@_WU?$char_traits@_W@std@@@std@@6B@

; 64   : 		}

  0000e	c3		 ret	 0
??1?$basic_ostream@_WU?$char_traits@_W@std@@@std@@UAE@XZ ENDP ; std::basic_ostream<wchar_t,std::char_traits<wchar_t> >::~basic_ostream<wchar_t,std::char_traits<wchar_t> >
_TEXT	ENDS
PUBLIC	??1?$basic_ios@_WU?$char_traits@_W@std@@@std@@UAE@XZ ; std::basic_ios<wchar_t,std::char_traits<wchar_t> >::~basic_ios<wchar_t,std::char_traits<wchar_t> >
; Function compile flags: /Ogtpy
; File c:\program files (x86)\microsoft visual studio 9.0\vc\include\ios
;	COMDAT ??1?$basic_ios@_WU?$char_traits@_W@std@@@std@@UAE@XZ
_TEXT	SEGMENT
??1?$basic_ios@_WU?$char_traits@_W@std@@@std@@UAE@XZ PROC ; std::basic_ios<wchar_t,std::char_traits<wchar_t> >::~basic_ios<wchar_t,std::char_traits<wchar_t> >, COMDAT
; _this$ = ecx

; 39   : 		}

  00000	51		 push	 ecx
  00001	c7 01 00 00 00
	00		 mov	 DWORD PTR [ecx], OFFSET ??_7ios_base@std@@6B@
  00007	e8 00 00 00 00	 call	 ?_Ios_base_dtor@ios_base@std@@CAXPAV12@@Z ; std::ios_base::_Ios_base_dtor
  0000c	59		 pop	 ecx
  0000d	c3		 ret	 0
??1?$basic_ios@_WU?$char_traits@_W@std@@@std@@UAE@XZ ENDP ; std::basic_ios<wchar_t,std::char_traits<wchar_t> >::~basic_ios<wchar_t,std::char_traits<wchar_t> >
_TEXT	ENDS
PUBLIC	?rdbuf@?$basic_ios@_WU?$char_traits@_W@std@@@std@@QBEPAV?$basic_streambuf@_WU?$char_traits@_W@std@@@2@XZ ; std::basic_ios<wchar_t,std::char_traits<wchar_t> >::rdbuf
; Function compile flags: /Ogtpy
;	COMDAT ?rdbuf@?$basic_ios@_WU?$char_traits@_W@std@@@std@@QBEPAV?$basic_streambuf@_WU?$char_traits@_W@std@@@2@XZ
_TEXT	SEGMENT
?rdbuf@?$basic_ios@_WU?$char_traits@_W@std@@@std@@QBEPAV?$basic_streambuf@_WU?$char_traits@_W@std@@@2@XZ PROC ; std::basic_ios<wchar_t,std::char_traits<wchar_t> >::rdbuf, COMDAT
; _this$ = ecx

; 85   : 		return (_Mystrbuf);

  00000	8b 41 28	 mov	 eax, DWORD PTR [ecx+40]

; 86   : 		}

  00003	c3		 ret	 0
?rdbuf@?$basic_ios@_WU?$char_traits@_W@std@@@std@@QBEPAV?$basic_streambuf@_WU?$char_traits@_W@std@@@2@XZ ENDP ; std::basic_ios<wchar_t,std::char_traits<wchar_t> >::rdbuf
_TEXT	ENDS
PUBLIC	??_7?$basic_istream@DU?$char_traits@D@std@@@std@@6B@ ; std::basic_istream<char,std::char_traits<char> >::`vftable'
PUBLIC	??1?$basic_istream@DU?$char_traits@D@std@@@std@@UAE@XZ ; std::basic_istream<char,std::char_traits<char> >::~basic_istream<char,std::char_traits<char> >
PUBLIC	??_R4?$basic_istream@DU?$char_traits@D@std@@@std@@6B@ ; std::basic_istream<char,std::char_traits<char> >::`RTTI Complete Object Locator'
PUBLIC	??_R0?AV?$basic_istream@DU?$char_traits@D@std@@@std@@@8 ; std::basic_istream<char,std::char_traits<char> > `RTTI Type Descriptor'
PUBLIC	??_R3?$basic_istream@DU?$char_traits@D@std@@@std@@8 ; std::basic_istream<char,std::char_traits<char> >::`RTTI Class Hierarchy Descriptor'
PUBLIC	??_R2?$basic_istream@DU?$char_traits@D@std@@@std@@8 ; std::basic_istream<char,std::char_traits<char> >::`RTTI Base Class Array'
PUBLIC	??_R1A@?0A@EA@?$basic_istream@DU?$char_traits@D@std@@@std@@8 ; std::basic_istream<char,std::char_traits<char> >::`RTTI Base Class Descriptor at (0,-1,0,64)'
EXTRN	??_E?$basic_istream@DU?$char_traits@D@std@@@std@@UAEPAXI@Z:PROC ; std::basic_istream<char,std::char_traits<char> >::`vector deleting destructor'
;	COMDAT ??_R1A@?0A@EA@?$basic_istream@DU?$char_traits@D@std@@@std@@8
; File c:\program files (x86)\microsoft visual studio 9.0\vc\include\istream
rdata$r	SEGMENT
??_R1A@?0A@EA@?$basic_istream@DU?$char_traits@D@std@@@std@@8 DD FLAT:??_R0?AV?$basic_istream@DU?$char_traits@D@std@@@std@@@8 ; std::basic_istream<char,std::char_traits<char> >::`RTTI Base Class Descriptor at (0,-1,0,64)'
	DD	03H
	DD	00H
	DD	0ffffffffH
	DD	00H
	DD	040H
	DD	FLAT:??_R3?$basic_istream@DU?$char_traits@D@std@@@std@@8
rdata$r	ENDS
;	COMDAT ??_R2?$basic_istream@DU?$char_traits@D@std@@@std@@8
rdata$r	SEGMENT
??_R2?$basic_istream@DU?$char_traits@D@std@@@std@@8 DD FLAT:??_R1A@?0A@EA@?$basic_istream@DU?$char_traits@D@std@@@std@@8 ; std::basic_istream<char,std::char_traits<char> >::`RTTI Base Class Array'
	DD	FLAT:??_R1A@A@3FA@?$basic_ios@DU?$char_traits@D@std@@@std@@8
	DD	FLAT:??_R1A@A@3EA@ios_base@std@@8
	DD	FLAT:??_R13A@3EA@?$_Iosb@H@std@@8
rdata$r	ENDS
;	COMDAT ??_R3?$basic_istream@DU?$char_traits@D@std@@@std@@8
rdata$r	SEGMENT
??_R3?$basic_istream@DU?$char_traits@D@std@@@std@@8 DD 00H ; std::basic_istream<char,std::char_traits<char> >::`RTTI Class Hierarchy Descriptor'
	DD	00H
	DD	04H
	DD	FLAT:??_R2?$basic_istream@DU?$char_traits@D@std@@@std@@8
rdata$r	ENDS
;	COMDAT ??_R0?AV?$basic_istream@DU?$char_traits@D@std@@@std@@@8
_DATA	SEGMENT
??_R0?AV?$basic_istream@DU?$char_traits@D@std@@@std@@@8 DD FLAT:??_7type_info@@6B@ ; std::basic_istream<char,std::char_traits<char> > `RTTI Type Descriptor'
	DD	00H
	DB	'.?AV?$basic_istream@DU?$char_traits@D@std@@@std@@', 00H
_DATA	ENDS
;	COMDAT ??_R4?$basic_istream@DU?$char_traits@D@std@@@std@@6B@
rdata$r	SEGMENT
??_R4?$basic_istream@DU?$char_traits@D@std@@@std@@6B@ DD 00H ; std::basic_istream<char,std::char_traits<char> >::`RTTI Complete Object Locator'
	DD	08H
	DD	00H
	DD	FLAT:??_R0?AV?$basic_istream@DU?$char_traits@D@std@@@std@@@8
	DD	FLAT:??_R3?$basic_istream@DU?$char_traits@D@std@@@std@@8
rdata$r	ENDS
;	COMDAT ??_7?$basic_istream@DU?$char_traits@D@std@@@std@@6B@
CONST	SEGMENT
??_7?$basic_istream@DU?$char_traits@D@std@@@std@@6B@ DD FLAT:??_R4?$basic_istream@DU?$char_traits@D@std@@@std@@6B@ ; std::basic_istream<char,std::char_traits<char> >::`vftable'
	DD	FLAT:??_E?$basic_istream@DU?$char_traits@D@std@@@std@@UAEPAXI@Z
; Function compile flags: /Ogtpy
CONST	ENDS
;	COMDAT ??1?$basic_istream@DU?$char_traits@D@std@@@std@@UAE@XZ
_TEXT	SEGMENT
??1?$basic_istream@DU?$char_traits@D@std@@@std@@UAE@XZ PROC ; std::basic_istream<char,std::char_traits<char> >::~basic_istream<char,std::char_traits<char> >, COMDAT
; _this$ = ecx

; 42   : 		{	// destroy the object

  00000	8b 41 f8	 mov	 eax, DWORD PTR [ecx-8]
  00003	8b 50 04	 mov	 edx, DWORD PTR [eax+4]
  00006	c7 44 0a f8 00
	00 00 00	 mov	 DWORD PTR [edx+ecx-8], OFFSET ??_7?$basic_istream@DU?$char_traits@D@std@@@std@@6B@

; 43   : 		}

  0000e	c3		 ret	 0
??1?$basic_istream@DU?$char_traits@D@std@@@std@@UAE@XZ ENDP ; std::basic_istream<char,std::char_traits<char> >::~basic_istream<char,std::char_traits<char> >
_TEXT	ENDS
PUBLIC	??_7?$basic_istream@_WU?$char_traits@_W@std@@@std@@6B@ ; std::basic_istream<wchar_t,std::char_traits<wchar_t> >::`vftable'
PUBLIC	??1?$basic_istream@_WU?$char_traits@_W@std@@@std@@UAE@XZ ; std::basic_istream<wchar_t,std::char_traits<wchar_t> >::~basic_istream<wchar_t,std::char_traits<wchar_t> >
PUBLIC	??_R4?$basic_istream@_WU?$char_traits@_W@std@@@std@@6B@ ; std::basic_istream<wchar_t,std::char_traits<wchar_t> >::`RTTI Complete Object Locator'
PUBLIC	??_R0?AV?$basic_istream@_WU?$char_traits@_W@std@@@std@@@8 ; std::basic_istream<wchar_t,std::char_traits<wchar_t> > `RTTI Type Descriptor'
PUBLIC	??_R3?$basic_istream@_WU?$char_traits@_W@std@@@std@@8 ; std::basic_istream<wchar_t,std::char_traits<wchar_t> >::`RTTI Class Hierarchy Descriptor'
PUBLIC	??_R2?$basic_istream@_WU?$char_traits@_W@std@@@std@@8 ; std::basic_istream<wchar_t,std::char_traits<wchar_t> >::`RTTI Base Class Array'
PUBLIC	??_R1A@?0A@EA@?$basic_istream@_WU?$char_traits@_W@std@@@std@@8 ; std::basic_istream<wchar_t,std::char_traits<wchar_t> >::`RTTI Base Class Descriptor at (0,-1,0,64)'
EXTRN	??_E?$basic_istream@_WU?$char_traits@_W@std@@@std@@UAEPAXI@Z:PROC ; std::basic_istream<wchar_t,std::char_traits<wchar_t> >::`vector deleting destructor'
;	COMDAT ??_R1A@?0A@EA@?$basic_istream@_WU?$char_traits@_W@std@@@std@@8
rdata$r	SEGMENT
??_R1A@?0A@EA@?$basic_istream@_WU?$char_traits@_W@std@@@std@@8 DD FLAT:??_R0?AV?$basic_istream@_WU?$char_traits@_W@std@@@std@@@8 ; std::basic_istream<wchar_t,std::char_traits<wchar_t> >::`RTTI Base Class Descriptor at (0,-1,0,64)'
	DD	03H
	DD	00H
	DD	0ffffffffH
	DD	00H
	DD	040H
	DD	FLAT:??_R3?$basic_istream@_WU?$char_traits@_W@std@@@std@@8
rdata$r	ENDS
;	COMDAT ??_R2?$basic_istream@_WU?$char_traits@_W@std@@@std@@8
rdata$r	SEGMENT
??_R2?$basic_istream@_WU?$char_traits@_W@std@@@std@@8 DD FLAT:??_R1A@?0A@EA@?$basic_istream@_WU?$char_traits@_W@std@@@std@@8 ; std::basic_istream<wchar_t,std::char_traits<wchar_t> >::`RTTI Base Class Array'
	DD	FLAT:??_R1A@A@3FA@?$basic_ios@_WU?$char_traits@_W@std@@@std@@8
	DD	FLAT:??_R1A@A@3EA@ios_base@std@@8
	DD	FLAT:??_R13A@3EA@?$_Iosb@H@std@@8
rdata$r	ENDS
;	COMDAT ??_R3?$basic_istream@_WU?$char_traits@_W@std@@@std@@8
rdata$r	SEGMENT
??_R3?$basic_istream@_WU?$char_traits@_W@std@@@std@@8 DD 00H ; std::basic_istream<wchar_t,std::char_traits<wchar_t> >::`RTTI Class Hierarchy Descriptor'
	DD	00H
	DD	04H
	DD	FLAT:??_R2?$basic_istream@_WU?$char_traits@_W@std@@@std@@8
rdata$r	ENDS
;	COMDAT ??_R0?AV?$basic_istream@_WU?$char_traits@_W@std@@@std@@@8
_DATA	SEGMENT
??_R0?AV?$basic_istream@_WU?$char_traits@_W@std@@@std@@@8 DD FLAT:??_7type_info@@6B@ ; std::basic_istream<wchar_t,std::char_traits<wchar_t> > `RTTI Type Descriptor'
	DD	00H
	DB	'.?AV?$basic_istream@_WU?$char_traits@_W@std@@@std@@', 00H
_DATA	ENDS
;	COMDAT ??_R4?$basic_istream@_WU?$char_traits@_W@std@@@std@@6B@
rdata$r	SEGMENT
??_R4?$basic_istream@_WU?$char_traits@_W@std@@@std@@6B@ DD 00H ; std::basic_istream<wchar_t,std::char_traits<wchar_t> >::`RTTI Complete Object Locator'
	DD	08H
	DD	00H
	DD	FLAT:??_R0?AV?$basic_istream@_WU?$char_traits@_W@std@@@std@@@8
	DD	FLAT:??_R3?$basic_istream@_WU?$char_traits@_W@std@@@std@@8
rdata$r	ENDS
;	COMDAT ??_7?$basic_istream@_WU?$char_traits@_W@std@@@std@@6B@
CONST	SEGMENT
??_7?$basic_istream@_WU?$char_traits@_W@std@@@std@@6B@ DD FLAT:??_R4?$basic_istream@_WU?$char_traits@_W@std@@@std@@6B@ ; std::basic_istream<wchar_t,std::char_traits<wchar_t> >::`vftable'
	DD	FLAT:??_E?$basic_istream@_WU?$char_traits@_W@std@@@std@@UAEPAXI@Z
; Function compile flags: /Ogtpy
CONST	ENDS
;	COMDAT ??1?$basic_istream@_WU?$char_traits@_W@std@@@std@@UAE@XZ
_TEXT	SEGMENT
??1?$basic_istream@_WU?$char_traits@_W@std@@@std@@UAE@XZ PROC ; std::basic_istream<wchar_t,std::char_traits<wchar_t> >::~basic_istream<wchar_t,std::char_traits<wchar_t> >, COMDAT
; _this$ = ecx

; 42   : 		{	// destroy the object

  00000	8b 41 f8	 mov	 eax, DWORD PTR [ecx-8]
  00003	8b 50 04	 mov	 edx, DWORD PTR [eax+4]
  00006	c7 44 0a f8 00
	00 00 00	 mov	 DWORD PTR [edx+ecx-8], OFFSET ??_7?$basic_istream@_WU?$char_traits@_W@std@@@std@@6B@

; 43   : 		}

  0000e	c3		 ret	 0
??1?$basic_istream@_WU?$char_traits@_W@std@@@std@@UAE@XZ ENDP ; std::basic_istream<wchar_t,std::char_traits<wchar_t> >::~basic_istream<wchar_t,std::char_traits<wchar_t> >
_TEXT	ENDS
PUBLIC	??0?$CAtlSafeAllocBufferManager@VCCRTAllocator@ATL@@@_ATL_SAFE_ALLOCA_IMPL@ATL@@QAE@XZ ; ATL::_ATL_SAFE_ALLOCA_IMPL::CAtlSafeAllocBufferManager<ATL::CCRTAllocator>::CAtlSafeAllocBufferManager<ATL::CCRTAllocator>
; Function compile flags: /Ogtpy
; File c:\program files (x86)\microsoft visual studio 9.0\vc\atlmfc\include\atlalloc.h
;	COMDAT ??0?$CAtlSafeAllocBufferManager@VCCRTAllocator@ATL@@@_ATL_SAFE_ALLOCA_IMPL@ATL@@QAE@XZ
_TEXT	SEGMENT
??0?$CAtlSafeAllocBufferManager@VCCRTAllocator@ATL@@@_ATL_SAFE_ALLOCA_IMPL@ATL@@QAE@XZ PROC ; ATL::_ATL_SAFE_ALLOCA_IMPL::CAtlSafeAllocBufferManager<ATL::CCRTAllocator>::CAtlSafeAllocBufferManager<ATL::CCRTAllocator>, COMDAT
; _this$ = ecx

; 640  : 	CAtlSafeAllocBufferManager() : m_pHead(NULL) {};

  00000	8b c1		 mov	 eax, ecx
  00002	c7 00 00 00 00
	00		 mov	 DWORD PTR [eax], 0
  00008	c3		 ret	 0
??0?$CAtlSafeAllocBufferManager@VCCRTAllocator@ATL@@@_ATL_SAFE_ALLOCA_IMPL@ATL@@QAE@XZ ENDP ; ATL::_ATL_SAFE_ALLOCA_IMPL::CAtlSafeAllocBufferManager<ATL::CCRTAllocator>::CAtlSafeAllocBufferManager<ATL::CCRTAllocator>
_TEXT	ENDS
PUBLIC	??1?$CAtlSafeAllocBufferManager@VCCRTAllocator@ATL@@@_ATL_SAFE_ALLOCA_IMPL@ATL@@QAE@XZ ; ATL::_ATL_SAFE_ALLOCA_IMPL::CAtlSafeAllocBufferManager<ATL::CCRTAllocator>::~CAtlSafeAllocBufferManager<ATL::CCRTAllocator>
; Function compile flags: /Ogtpy
;	COMDAT ??1?$CAtlSafeAllocBufferManager@VCCRTAllocator@ATL@@@_ATL_SAFE_ALLOCA_IMPL@ATL@@QAE@XZ
_TEXT	SEGMENT
??1?$CAtlSafeAllocBufferManager@VCCRTAllocator@ATL@@@_ATL_SAFE_ALLOCA_IMPL@ATL@@QAE@XZ PROC ; ATL::_ATL_SAFE_ALLOCA_IMPL::CAtlSafeAllocBufferManager<ATL::CCRTAllocator>::~CAtlSafeAllocBufferManager<ATL::CCRTAllocator>, COMDAT
; _this$ = ecx

; 654  : 	{

  00000	56		 push	 esi
  00001	8b f1		 mov	 esi, ecx

; 655  : 		// Walk the list and free the buffers
; 656  : 		while (m_pHead != NULL)

  00003	83 3e 00	 cmp	 DWORD PTR [esi], 0
  00006	74 14		 je	 SHORT $LN1@CAtlSafeAl
$LL2@CAtlSafeAl:

; 657  : 		{
; 658  : 			CAtlSafeAllocBufferNode* p = m_pHead;

  00008	8b 06		 mov	 eax, DWORD PTR [esi]

; 659  : 			m_pHead = m_pHead->m_pNext;

  0000a	8b 08		 mov	 ecx, DWORD PTR [eax]

; 660  : 			Allocator::Free(p);

  0000c	50		 push	 eax
  0000d	89 0e		 mov	 DWORD PTR [esi], ecx
  0000f	e8 00 00 00 00	 call	 _free
  00014	83 c4 04	 add	 esp, 4
  00017	83 3e 00	 cmp	 DWORD PTR [esi], 0
  0001a	75 ec		 jne	 SHORT $LL2@CAtlSafeAl
$LN1@CAtlSafeAl:
  0001c	5e		 pop	 esi

; 661  : 		}
; 662  : 	}

  0001d	c3		 ret	 0
??1?$CAtlSafeAllocBufferManager@VCCRTAllocator@ATL@@@_ATL_SAFE_ALLOCA_IMPL@ATL@@QAE@XZ ENDP ; ATL::_ATL_SAFE_ALLOCA_IMPL::CAtlSafeAllocBufferManager<ATL::CCRTAllocator>::~CAtlSafeAllocBufferManager<ATL::CCRTAllocator>
_TEXT	ENDS
PUBLIC	?size@?$list@UPartition@CipherShed@@V?$allocator@UPartition@CipherShed@@@std@@@std@@QBEIXZ ; std::list<CipherShed::Partition,std::allocator<CipherShed::Partition> >::size
; Function compile flags: /Ogtpy
; File c:\program files (x86)\microsoft visual studio 9.0\vc\include\list
;	COMDAT ?size@?$list@UPartition@CipherShed@@V?$allocator@UPartition@CipherShed@@@std@@@std@@QBEIXZ
_TEXT	SEGMENT
?size@?$list@UPartition@CipherShed@@V?$allocator@UPartition@CipherShed@@@std@@@std@@QBEIXZ PROC ; std::list<CipherShed::Partition,std::allocator<CipherShed::Partition> >::size, COMDAT
; _this$ = ecx

; 620  : 		return (_Mysize);

  00000	8b 41 18	 mov	 eax, DWORD PTR [ecx+24]

; 621  : 		}

  00003	c3		 ret	 0
?size@?$list@UPartition@CipherShed@@V?$allocator@UPartition@CipherShed@@@std@@@std@@QBEIXZ ENDP ; std::list<CipherShed::Partition,std::allocator<CipherShed::Partition> >::size
_TEXT	ENDS
PUBLIC	??_7?$basic_iostream@DU?$char_traits@D@std@@@std@@6B@ ; std::basic_iostream<char,std::char_traits<char> >::`vftable'
PUBLIC	??1?$basic_iostream@DU?$char_traits@D@std@@@std@@UAE@XZ ; std::basic_iostream<char,std::char_traits<char> >::~basic_iostream<char,std::char_traits<char> >
PUBLIC	??_R4?$basic_iostream@DU?$char_traits@D@std@@@std@@6B@ ; std::basic_iostream<char,std::char_traits<char> >::`RTTI Complete Object Locator'
PUBLIC	??_R0?AV?$basic_iostream@DU?$char_traits@D@std@@@std@@@8 ; std::basic_iostream<char,std::char_traits<char> > `RTTI Type Descriptor'
PUBLIC	??_R3?$basic_iostream@DU?$char_traits@D@std@@@std@@8 ; std::basic_iostream<char,std::char_traits<char> >::`RTTI Class Hierarchy Descriptor'
PUBLIC	??_R2?$basic_iostream@DU?$char_traits@D@std@@@std@@8 ; std::basic_iostream<char,std::char_traits<char> >::`RTTI Base Class Array'
PUBLIC	??_R1A@?0A@EA@?$basic_iostream@DU?$char_traits@D@std@@@std@@8 ; std::basic_iostream<char,std::char_traits<char> >::`RTTI Base Class Descriptor at (0,-1,0,64)'
PUBLIC	??_R17?0A@EA@?$basic_ostream@DU?$char_traits@D@std@@@std@@8 ; std::basic_ostream<char,std::char_traits<char> >::`RTTI Base Class Descriptor at (8,-1,0,64)'
EXTRN	??_E?$basic_iostream@DU?$char_traits@D@std@@@std@@UAEPAXI@Z:PROC ; std::basic_iostream<char,std::char_traits<char> >::`vector deleting destructor'
;	COMDAT ??_R17?0A@EA@?$basic_ostream@DU?$char_traits@D@std@@@std@@8
; File c:\program files (x86)\microsoft visual studio 9.0\vc\include\istream
rdata$r	SEGMENT
??_R17?0A@EA@?$basic_ostream@DU?$char_traits@D@std@@@std@@8 DD FLAT:??_R0?AV?$basic_ostream@DU?$char_traits@D@std@@@std@@@8 ; std::basic_ostream<char,std::char_traits<char> >::`RTTI Base Class Descriptor at (8,-1,0,64)'
	DD	03H
	DD	08H
	DD	0ffffffffH
	DD	00H
	DD	040H
	DD	FLAT:??_R3?$basic_ostream@DU?$char_traits@D@std@@@std@@8
rdata$r	ENDS
;	COMDAT ??_R1A@?0A@EA@?$basic_iostream@DU?$char_traits@D@std@@@std@@8
rdata$r	SEGMENT
??_R1A@?0A@EA@?$basic_iostream@DU?$char_traits@D@std@@@std@@8 DD FLAT:??_R0?AV?$basic_iostream@DU?$char_traits@D@std@@@std@@@8 ; std::basic_iostream<char,std::char_traits<char> >::`RTTI Base Class Descriptor at (0,-1,0,64)'
	DD	08H
	DD	00H
	DD	0ffffffffH
	DD	00H
	DD	040H
	DD	FLAT:??_R3?$basic_iostream@DU?$char_traits@D@std@@@std@@8
rdata$r	ENDS
;	COMDAT ??_R2?$basic_iostream@DU?$char_traits@D@std@@@std@@8
rdata$r	SEGMENT
??_R2?$basic_iostream@DU?$char_traits@D@std@@@std@@8 DD FLAT:??_R1A@?0A@EA@?$basic_iostream@DU?$char_traits@D@std@@@std@@8 ; std::basic_iostream<char,std::char_traits<char> >::`RTTI Base Class Array'
	DD	FLAT:??_R1A@?0A@EA@?$basic_istream@DU?$char_traits@D@std@@@std@@8
	DD	FLAT:??_R1A@A@3FA@?$basic_ios@DU?$char_traits@D@std@@@std@@8
	DD	FLAT:??_R1A@A@3EA@ios_base@std@@8
	DD	FLAT:??_R13A@3EA@?$_Iosb@H@std@@8
	DD	FLAT:??_R17?0A@EA@?$basic_ostream@DU?$char_traits@D@std@@@std@@8
	DD	FLAT:??_R1A@A@3FA@?$basic_ios@DU?$char_traits@D@std@@@std@@8
	DD	FLAT:??_R1A@A@3EA@ios_base@std@@8
	DD	FLAT:??_R13A@3EA@?$_Iosb@H@std@@8
rdata$r	ENDS
;	COMDAT ??_R3?$basic_iostream@DU?$char_traits@D@std@@@std@@8
rdata$r	SEGMENT
??_R3?$basic_iostream@DU?$char_traits@D@std@@@std@@8 DD 00H ; std::basic_iostream<char,std::char_traits<char> >::`RTTI Class Hierarchy Descriptor'
	DD	03H
	DD	09H
	DD	FLAT:??_R2?$basic_iostream@DU?$char_traits@D@std@@@std@@8
rdata$r	ENDS
;	COMDAT ??_R0?AV?$basic_iostream@DU?$char_traits@D@std@@@std@@@8
_DATA	SEGMENT
??_R0?AV?$basic_iostream@DU?$char_traits@D@std@@@std@@@8 DD FLAT:??_7type_info@@6B@ ; std::basic_iostream<char,std::char_traits<char> > `RTTI Type Descriptor'
	DD	00H
	DB	'.?AV?$basic_iostream@DU?$char_traits@D@std@@@std@@', 00H
_DATA	ENDS
;	COMDAT ??_R4?$basic_iostream@DU?$char_traits@D@std@@@std@@6B@
rdata$r	SEGMENT
??_R4?$basic_iostream@DU?$char_traits@D@std@@@std@@6B@ DD 00H ; std::basic_iostream<char,std::char_traits<char> >::`RTTI Complete Object Locator'
	DD	0cH
	DD	00H
	DD	FLAT:??_R0?AV?$basic_iostream@DU?$char_traits@D@std@@@std@@@8
	DD	FLAT:??_R3?$basic_iostream@DU?$char_traits@D@std@@@std@@8
rdata$r	ENDS
;	COMDAT ??_7?$basic_iostream@DU?$char_traits@D@std@@@std@@6B@
CONST	SEGMENT
??_7?$basic_iostream@DU?$char_traits@D@std@@@std@@6B@ DD FLAT:??_R4?$basic_iostream@DU?$char_traits@D@std@@@std@@6B@ ; std::basic_iostream<char,std::char_traits<char> >::`vftable'
	DD	FLAT:??_E?$basic_iostream@DU?$char_traits@D@std@@@std@@UAEPAXI@Z
; Function compile flags: /Ogtpy
CONST	ENDS
;	COMDAT ??1?$basic_iostream@DU?$char_traits@D@std@@@std@@UAE@XZ
_TEXT	SEGMENT
??1?$basic_iostream@DU?$char_traits@D@std@@@std@@UAE@XZ PROC ; std::basic_iostream<char,std::char_traits<char> >::~basic_iostream<char,std::char_traits<char> >, COMDAT
; _this$ = ecx

; 918  : 		{	// destroy the object

  00000	8b 41 f4	 mov	 eax, DWORD PTR [ecx-12]
  00003	8b 50 04	 mov	 edx, DWORD PTR [eax+4]
  00006	c7 44 0a f4 00
	00 00 00	 mov	 DWORD PTR [edx+ecx-12], OFFSET ??_7?$basic_iostream@DU?$char_traits@D@std@@@std@@6B@

; 919  : 		}

  0000e	8b 41 fc	 mov	 eax, DWORD PTR [ecx-4]
  00011	8b 50 04	 mov	 edx, DWORD PTR [eax+4]
  00014	c7 44 0a fc 00
	00 00 00	 mov	 DWORD PTR [edx+ecx-4], OFFSET ??_7?$basic_ostream@DU?$char_traits@D@std@@@std@@6B@
  0001c	8b 41 f4	 mov	 eax, DWORD PTR [ecx-12]
  0001f	8b 50 04	 mov	 edx, DWORD PTR [eax+4]
  00022	c7 44 0a f4 00
	00 00 00	 mov	 DWORD PTR [edx+ecx-12], OFFSET ??_7?$basic_istream@DU?$char_traits@D@std@@@std@@6B@
  0002a	c3		 ret	 0
??1?$basic_iostream@DU?$char_traits@D@std@@@std@@UAE@XZ ENDP ; std::basic_iostream<char,std::char_traits<char> >::~basic_iostream<char,std::char_traits<char> >
_TEXT	ENDS
PUBLIC	??_7?$basic_iostream@_WU?$char_traits@_W@std@@@std@@6B@ ; std::basic_iostream<wchar_t,std::char_traits<wchar_t> >::`vftable'
PUBLIC	??1?$basic_iostream@_WU?$char_traits@_W@std@@@std@@UAE@XZ ; std::basic_iostream<wchar_t,std::char_traits<wchar_t> >::~basic_iostream<wchar_t,std::char_traits<wchar_t> >
PUBLIC	??_R4?$basic_iostream@_WU?$char_traits@_W@std@@@std@@6B@ ; std::basic_iostream<wchar_t,std::char_traits<wchar_t> >::`RTTI Complete Object Locator'
PUBLIC	??_R0?AV?$basic_iostream@_WU?$char_traits@_W@std@@@std@@@8 ; std::basic_iostream<wchar_t,std::char_traits<wchar_t> > `RTTI Type Descriptor'
PUBLIC	??_R3?$basic_iostream@_WU?$char_traits@_W@std@@@std@@8 ; std::basic_iostream<wchar_t,std::char_traits<wchar_t> >::`RTTI Class Hierarchy Descriptor'
PUBLIC	??_R2?$basic_iostream@_WU?$char_traits@_W@std@@@std@@8 ; std::basic_iostream<wchar_t,std::char_traits<wchar_t> >::`RTTI Base Class Array'
PUBLIC	??_R1A@?0A@EA@?$basic_iostream@_WU?$char_traits@_W@std@@@std@@8 ; std::basic_iostream<wchar_t,std::char_traits<wchar_t> >::`RTTI Base Class Descriptor at (0,-1,0,64)'
PUBLIC	??_R17?0A@EA@?$basic_ostream@_WU?$char_traits@_W@std@@@std@@8 ; std::basic_ostream<wchar_t,std::char_traits<wchar_t> >::`RTTI Base Class Descriptor at (8,-1,0,64)'
EXTRN	??_E?$basic_iostream@_WU?$char_traits@_W@std@@@std@@UAEPAXI@Z:PROC ; std::basic_iostream<wchar_t,std::char_traits<wchar_t> >::`vector deleting destructor'
;	COMDAT ??_R17?0A@EA@?$basic_ostream@_WU?$char_traits@_W@std@@@std@@8
rdata$r	SEGMENT
??_R17?0A@EA@?$basic_ostream@_WU?$char_traits@_W@std@@@std@@8 DD FLAT:??_R0?AV?$basic_ostream@_WU?$char_traits@_W@std@@@std@@@8 ; std::basic_ostream<wchar_t,std::char_traits<wchar_t> >::`RTTI Base Class Descriptor at (8,-1,0,64)'
	DD	03H
	DD	08H
	DD	0ffffffffH
	DD	00H
	DD	040H
	DD	FLAT:??_R3?$basic_ostream@_WU?$char_traits@_W@std@@@std@@8
rdata$r	ENDS
;	COMDAT ??_R1A@?0A@EA@?$basic_iostream@_WU?$char_traits@_W@std@@@std@@8
rdata$r	SEGMENT
??_R1A@?0A@EA@?$basic_iostream@_WU?$char_traits@_W@std@@@std@@8 DD FLAT:??_R0?AV?$basic_iostream@_WU?$char_traits@_W@std@@@std@@@8 ; std::basic_iostream<wchar_t,std::char_traits<wchar_t> >::`RTTI Base Class Descriptor at (0,-1,0,64)'
	DD	08H
	DD	00H
	DD	0ffffffffH
	DD	00H
	DD	040H
	DD	FLAT:??_R3?$basic_iostream@_WU?$char_traits@_W@std@@@std@@8
rdata$r	ENDS
;	COMDAT ??_R2?$basic_iostream@_WU?$char_traits@_W@std@@@std@@8
rdata$r	SEGMENT
??_R2?$basic_iostream@_WU?$char_traits@_W@std@@@std@@8 DD FLAT:??_R1A@?0A@EA@?$basic_iostream@_WU?$char_traits@_W@std@@@std@@8 ; std::basic_iostream<wchar_t,std::char_traits<wchar_t> >::`RTTI Base Class Array'
	DD	FLAT:??_R1A@?0A@EA@?$basic_istream@_WU?$char_traits@_W@std@@@std@@8
	DD	FLAT:??_R1A@A@3FA@?$basic_ios@_WU?$char_traits@_W@std@@@std@@8
	DD	FLAT:??_R1A@A@3EA@ios_base@std@@8
	DD	FLAT:??_R13A@3EA@?$_Iosb@H@std@@8
	DD	FLAT:??_R17?0A@EA@?$basic_ostream@_WU?$char_traits@_W@std@@@std@@8
	DD	FLAT:??_R1A@A@3FA@?$basic_ios@_WU?$char_traits@_W@std@@@std@@8
	DD	FLAT:??_R1A@A@3EA@ios_base@std@@8
	DD	FLAT:??_R13A@3EA@?$_Iosb@H@std@@8
rdata$r	ENDS
;	COMDAT ??_R3?$basic_iostream@_WU?$char_traits@_W@std@@@std@@8
rdata$r	SEGMENT
??_R3?$basic_iostream@_WU?$char_traits@_W@std@@@std@@8 DD 00H ; std::basic_iostream<wchar_t,std::char_traits<wchar_t> >::`RTTI Class Hierarchy Descriptor'
	DD	03H
	DD	09H
	DD	FLAT:??_R2?$basic_iostream@_WU?$char_traits@_W@std@@@std@@8
rdata$r	ENDS
;	COMDAT ??_R0?AV?$basic_iostream@_WU?$char_traits@_W@std@@@std@@@8
_DATA	SEGMENT
??_R0?AV?$basic_iostream@_WU?$char_traits@_W@std@@@std@@@8 DD FLAT:??_7type_info@@6B@ ; std::basic_iostream<wchar_t,std::char_traits<wchar_t> > `RTTI Type Descriptor'
	DD	00H
	DB	'.?AV?$basic_iostream@_WU?$char_traits@_W@std@@@std@@', 00H
_DATA	ENDS
;	COMDAT ??_R4?$basic_iostream@_WU?$char_traits@_W@std@@@std@@6B@
rdata$r	SEGMENT
??_R4?$basic_iostream@_WU?$char_traits@_W@std@@@std@@6B@ DD 00H ; std::basic_iostream<wchar_t,std::char_traits<wchar_t> >::`RTTI Complete Object Locator'
	DD	0cH
	DD	00H
	DD	FLAT:??_R0?AV?$basic_iostream@_WU?$char_traits@_W@std@@@std@@@8
	DD	FLAT:??_R3?$basic_iostream@_WU?$char_traits@_W@std@@@std@@8
rdata$r	ENDS
;	COMDAT ??_7?$basic_iostream@_WU?$char_traits@_W@std@@@std@@6B@
CONST	SEGMENT
??_7?$basic_iostream@_WU?$char_traits@_W@std@@@std@@6B@ DD FLAT:??_R4?$basic_iostream@_WU?$char_traits@_W@std@@@std@@6B@ ; std::basic_iostream<wchar_t,std::char_traits<wchar_t> >::`vftable'
	DD	FLAT:??_E?$basic_iostream@_WU?$char_traits@_W@std@@@std@@UAEPAXI@Z
; Function compile flags: /Ogtpy
CONST	ENDS
;	COMDAT ??1?$basic_iostream@_WU?$char_traits@_W@std@@@std@@UAE@XZ
_TEXT	SEGMENT
??1?$basic_iostream@_WU?$char_traits@_W@std@@@std@@UAE@XZ PROC ; std::basic_iostream<wchar_t,std::char_traits<wchar_t> >::~basic_iostream<wchar_t,std::char_traits<wchar_t> >, COMDAT
; _this$ = ecx

; 918  : 		{	// destroy the object

  00000	8b 41 f4	 mov	 eax, DWORD PTR [ecx-12]
  00003	8b 50 04	 mov	 edx, DWORD PTR [eax+4]
  00006	c7 44 0a f4 00
	00 00 00	 mov	 DWORD PTR [edx+ecx-12], OFFSET ??_7?$basic_iostream@_WU?$char_traits@_W@std@@@std@@6B@

; 919  : 		}

  0000e	8b 41 fc	 mov	 eax, DWORD PTR [ecx-4]
  00011	8b 50 04	 mov	 edx, DWORD PTR [eax+4]
  00014	c7 44 0a fc 00
	00 00 00	 mov	 DWORD PTR [edx+ecx-4], OFFSET ??_7?$basic_ostream@_WU?$char_traits@_W@std@@@std@@6B@
  0001c	8b 41 f4	 mov	 eax, DWORD PTR [ecx-12]
  0001f	8b 50 04	 mov	 edx, DWORD PTR [eax+4]
  00022	c7 44 0a f4 00
	00 00 00	 mov	 DWORD PTR [edx+ecx-12], OFFSET ??_7?$basic_istream@_WU?$char_traits@_W@std@@@std@@6B@
  0002a	c3		 ret	 0
??1?$basic_iostream@_WU?$char_traits@_W@std@@@std@@UAE@XZ ENDP ; std::basic_iostream<wchar_t,std::char_traits<wchar_t> >::~basic_iostream<wchar_t,std::char_traits<wchar_t> >
_TEXT	ENDS
PUBLIC	??_Glocale@std@@QAEPAXI@Z			; std::locale::`scalar deleting destructor'
; Function compile flags: /Ogtpy
;	COMDAT ??_Glocale@std@@QAEPAXI@Z
_TEXT	SEGMENT
__Lock$157809 = -4					; size = 4
___flags$ = 8						; size = 4
??_Glocale@std@@QAEPAXI@Z PROC				; std::locale::`scalar deleting destructor', COMDAT
; _this$ = ecx
  00000	51		 push	 ecx
  00001	53		 push	 ebx
  00002	8b d9		 mov	 ebx, ecx
  00004	57		 push	 edi
  00005	8b 3b		 mov	 edi, DWORD PTR [ebx]
  00007	85 ff		 test	 edi, edi
  00009	74 3f		 je	 SHORT $LN7@scalar@6
  0000b	6a 00		 push	 0
  0000d	8d 4c 24 0c	 lea	 ecx, DWORD PTR __Lock$157809[esp+16]
  00011	e8 00 00 00 00	 call	 ??0_Lockit@std@@QAE@H@Z	; std::_Lockit::_Lockit
  00016	8b 47 04	 mov	 eax, DWORD PTR [edi+4]
  00019	85 c0		 test	 eax, eax
  0001b	76 09		 jbe	 SHORT $LN9@scalar@6
  0001d	83 f8 ff	 cmp	 eax, -1
  00020	73 04		 jae	 SHORT $LN9@scalar@6
  00022	48		 dec	 eax
  00023	89 47 04	 mov	 DWORD PTR [edi+4], eax
$LN9@scalar@6:
  00026	56		 push	 esi
  00027	8b 77 04	 mov	 esi, DWORD PTR [edi+4]
  0002a	f7 de		 neg	 esi
  0002c	1b f6		 sbb	 esi, esi
  0002e	f7 d6		 not	 esi
  00030	8d 4c 24 0c	 lea	 ecx, DWORD PTR __Lock$157809[esp+16]
  00034	23 f7		 and	 esi, edi
  00036	e8 00 00 00 00	 call	 ??1_Lockit@std@@QAE@XZ	; std::_Lockit::~_Lockit
  0003b	85 f6		 test	 esi, esi
  0003d	74 0a		 je	 SHORT $LN13@scalar@6
  0003f	8b 06		 mov	 eax, DWORD PTR [esi]
  00041	8b 10		 mov	 edx, DWORD PTR [eax]
  00043	6a 01		 push	 1
  00045	8b ce		 mov	 ecx, esi
  00047	ff d2		 call	 edx
$LN13@scalar@6:
  00049	5e		 pop	 esi
$LN7@scalar@6:
  0004a	f6 44 24 10 01	 test	 BYTE PTR ___flags$[esp+8], 1
  0004f	74 09		 je	 SHORT $LN12@scalar@6
  00051	53		 push	 ebx
  00052	e8 00 00 00 00	 call	 ??3@YAXPAX@Z		; operator delete
  00057	83 c4 04	 add	 esp, 4
$LN12@scalar@6:
  0005a	5f		 pop	 edi
  0005b	8b c3		 mov	 eax, ebx
  0005d	5b		 pop	 ebx
  0005e	59		 pop	 ecx
  0005f	c2 04 00	 ret	 4
??_Glocale@std@@QAEPAXI@Z ENDP				; std::locale::`scalar deleting destructor'
_TEXT	ENDS
PUBLIC	??_D?$basic_ostream@DU?$char_traits@D@std@@@std@@QAEXXZ ; std::basic_ostream<char,std::char_traits<char> >::`vbase destructor'
; Function compile flags: /Ogtpy
;	COMDAT ??_D?$basic_ostream@DU?$char_traits@D@std@@@std@@QAEXXZ
_TEXT	SEGMENT
??_D?$basic_ostream@DU?$char_traits@D@std@@@std@@QAEXXZ PROC ; std::basic_ostream<char,std::char_traits<char> >::`vbase destructor', COMDAT
; _this$ = ecx
  00000	8d 41 04	 lea	 eax, DWORD PTR [ecx+4]
  00003	8b 48 fc	 mov	 ecx, DWORD PTR [eax-4]
  00006	8b 51 04	 mov	 edx, DWORD PTR [ecx+4]
  00009	c7 44 02 fc 00
	00 00 00	 mov	 DWORD PTR [edx+eax-4], OFFSET ??_7?$basic_ostream@DU?$char_traits@D@std@@@std@@6B@
  00011	50		 push	 eax
  00012	c7 00 00 00 00
	00		 mov	 DWORD PTR [eax], OFFSET ??_7ios_base@std@@6B@
  00018	e8 00 00 00 00	 call	 ?_Ios_base_dtor@ios_base@std@@CAXPAV12@@Z ; std::ios_base::_Ios_base_dtor
  0001d	59		 pop	 ecx
  0001e	c3		 ret	 0
??_D?$basic_ostream@DU?$char_traits@D@std@@@std@@QAEXXZ ENDP ; std::basic_ostream<char,std::char_traits<char> >::`vbase destructor'
_TEXT	ENDS
PUBLIC	??_D?$basic_ostream@_WU?$char_traits@_W@std@@@std@@QAEXXZ ; std::basic_ostream<wchar_t,std::char_traits<wchar_t> >::`vbase destructor'
; Function compile flags: /Ogtpy
;	COMDAT ??_D?$basic_ostream@_WU?$char_traits@_W@std@@@std@@QAEXXZ
_TEXT	SEGMENT
??_D?$basic_ostream@_WU?$char_traits@_W@std@@@std@@QAEXXZ PROC ; std::basic_ostream<wchar_t,std::char_traits<wchar_t> >::`vbase destructor', COMDAT
; _this$ = ecx
  00000	8d 41 04	 lea	 eax, DWORD PTR [ecx+4]
  00003	8b 48 fc	 mov	 ecx, DWORD PTR [eax-4]
  00006	8b 51 04	 mov	 edx, DWORD PTR [ecx+4]
  00009	c7 44 02 fc 00
	00 00 00	 mov	 DWORD PTR [edx+eax-4], OFFSET ??_7?$basic_ostream@_WU?$char_traits@_W@std@@@std@@6B@
  00011	50		 push	 eax
  00012	c7 00 00 00 00
	00		 mov	 DWORD PTR [eax], OFFSET ??_7ios_base@std@@6B@
  00018	e8 00 00 00 00	 call	 ?_Ios_base_dtor@ios_base@std@@CAXPAV12@@Z ; std::ios_base::_Ios_base_dtor
  0001d	59		 pop	 ecx
  0001e	c3		 ret	 0
??_D?$basic_ostream@_WU?$char_traits@_W@std@@@std@@QAEXXZ ENDP ; std::basic_ostream<wchar_t,std::char_traits<wchar_t> >::`vbase destructor'
_TEXT	ENDS
PUBLIC	??_D?$basic_istream@DU?$char_traits@D@std@@@std@@QAEXXZ ; std::basic_istream<char,std::char_traits<char> >::`vbase destructor'
; Function compile flags: /Ogtpy
;	COMDAT ??_D?$basic_istream@DU?$char_traits@D@std@@@std@@QAEXXZ
_TEXT	SEGMENT
??_D?$basic_istream@DU?$char_traits@D@std@@@std@@QAEXXZ PROC ; std::basic_istream<char,std::char_traits<char> >::`vbase destructor', COMDAT
; _this$ = ecx
  00000	8d 41 08	 lea	 eax, DWORD PTR [ecx+8]
  00003	8b 48 f8	 mov	 ecx, DWORD PTR [eax-8]
  00006	8b 51 04	 mov	 edx, DWORD PTR [ecx+4]
  00009	c7 44 02 f8 00
	00 00 00	 mov	 DWORD PTR [edx+eax-8], OFFSET ??_7?$basic_istream@DU?$char_traits@D@std@@@std@@6B@
  00011	50		 push	 eax
  00012	c7 00 00 00 00
	00		 mov	 DWORD PTR [eax], OFFSET ??_7ios_base@std@@6B@
  00018	e8 00 00 00 00	 call	 ?_Ios_base_dtor@ios_base@std@@CAXPAV12@@Z ; std::ios_base::_Ios_base_dtor
  0001d	59		 pop	 ecx
  0001e	c3		 ret	 0
??_D?$basic_istream@DU?$char_traits@D@std@@@std@@QAEXXZ ENDP ; std::basic_istream<char,std::char_traits<char> >::`vbase destructor'
_TEXT	ENDS
PUBLIC	??_D?$basic_istream@_WU?$char_traits@_W@std@@@std@@QAEXXZ ; std::basic_istream<wchar_t,std::char_traits<wchar_t> >::`vbase destructor'
; Function compile flags: /Ogtpy
;	COMDAT ??_D?$basic_istream@_WU?$char_traits@_W@std@@@std@@QAEXXZ
_TEXT	SEGMENT
??_D?$basic_istream@_WU?$char_traits@_W@std@@@std@@QAEXXZ PROC ; std::basic_istream<wchar_t,std::char_traits<wchar_t> >::`vbase destructor', COMDAT
; _this$ = ecx
  00000	8d 41 08	 lea	 eax, DWORD PTR [ecx+8]
  00003	8b 48 f8	 mov	 ecx, DWORD PTR [eax-8]
  00006	8b 51 04	 mov	 edx, DWORD PTR [ecx+4]
  00009	c7 44 02 f8 00
	00 00 00	 mov	 DWORD PTR [edx+eax-8], OFFSET ??_7?$basic_istream@_WU?$char_traits@_W@std@@@std@@6B@
  00011	50		 push	 eax
  00012	c7 00 00 00 00
	00		 mov	 DWORD PTR [eax], OFFSET ??_7ios_base@std@@6B@
  00018	e8 00 00 00 00	 call	 ?_Ios_base_dtor@ios_base@std@@CAXPAV12@@Z ; std::ios_base::_Ios_base_dtor
  0001d	59		 pop	 ecx
  0001e	c3		 ret	 0
??_D?$basic_istream@_WU?$char_traits@_W@std@@@std@@QAEXXZ ENDP ; std::basic_istream<wchar_t,std::char_traits<wchar_t> >::`vbase destructor'
_TEXT	ENDS
PUBLIC	??_D?$basic_iostream@DU?$char_traits@D@std@@@std@@QAEXXZ ; std::basic_iostream<char,std::char_traits<char> >::`vbase destructor'
; Function compile flags: /Ogtpy
;	COMDAT ??_D?$basic_iostream@DU?$char_traits@D@std@@@std@@QAEXXZ
_TEXT	SEGMENT
??_D?$basic_iostream@DU?$char_traits@D@std@@@std@@QAEXXZ PROC ; std::basic_iostream<char,std::char_traits<char> >::`vbase destructor', COMDAT
; _this$ = ecx
  00000	8d 41 0c	 lea	 eax, DWORD PTR [ecx+12]
  00003	8b 48 f4	 mov	 ecx, DWORD PTR [eax-12]
  00006	8b 51 04	 mov	 edx, DWORD PTR [ecx+4]
  00009	c7 44 02 f4 00
	00 00 00	 mov	 DWORD PTR [edx+eax-12], OFFSET ??_7?$basic_iostream@DU?$char_traits@D@std@@@std@@6B@
  00011	8b 48 fc	 mov	 ecx, DWORD PTR [eax-4]
  00014	8b 51 04	 mov	 edx, DWORD PTR [ecx+4]
  00017	c7 44 02 fc 00
	00 00 00	 mov	 DWORD PTR [edx+eax-4], OFFSET ??_7?$basic_ostream@DU?$char_traits@D@std@@@std@@6B@
  0001f	8b 48 f4	 mov	 ecx, DWORD PTR [eax-12]
  00022	8b 51 04	 mov	 edx, DWORD PTR [ecx+4]
  00025	c7 44 02 f4 00
	00 00 00	 mov	 DWORD PTR [edx+eax-12], OFFSET ??_7?$basic_istream@DU?$char_traits@D@std@@@std@@6B@
  0002d	50		 push	 eax
  0002e	c7 00 00 00 00
	00		 mov	 DWORD PTR [eax], OFFSET ??_7ios_base@std@@6B@
  00034	e8 00 00 00 00	 call	 ?_Ios_base_dtor@ios_base@std@@CAXPAV12@@Z ; std::ios_base::_Ios_base_dtor
  00039	59		 pop	 ecx
  0003a	c3		 ret	 0
??_D?$basic_iostream@DU?$char_traits@D@std@@@std@@QAEXXZ ENDP ; std::basic_iostream<char,std::char_traits<char> >::`vbase destructor'
_TEXT	ENDS
PUBLIC	??_D?$basic_iostream@_WU?$char_traits@_W@std@@@std@@QAEXXZ ; std::basic_iostream<wchar_t,std::char_traits<wchar_t> >::`vbase destructor'
; Function compile flags: /Ogtpy
;	COMDAT ??_D?$basic_iostream@_WU?$char_traits@_W@std@@@std@@QAEXXZ
_TEXT	SEGMENT
??_D?$basic_iostream@_WU?$char_traits@_W@std@@@std@@QAEXXZ PROC ; std::basic_iostream<wchar_t,std::char_traits<wchar_t> >::`vbase destructor', COMDAT
; _this$ = ecx
  00000	8d 41 0c	 lea	 eax, DWORD PTR [ecx+12]
  00003	8b 48 f4	 mov	 ecx, DWORD PTR [eax-12]
  00006	8b 51 04	 mov	 edx, DWORD PTR [ecx+4]
  00009	c7 44 02 f4 00
	00 00 00	 mov	 DWORD PTR [edx+eax-12], OFFSET ??_7?$basic_iostream@_WU?$char_traits@_W@std@@@std@@6B@
  00011	8b 48 fc	 mov	 ecx, DWORD PTR [eax-4]
  00014	8b 51 04	 mov	 edx, DWORD PTR [ecx+4]
  00017	c7 44 02 fc 00
	00 00 00	 mov	 DWORD PTR [edx+eax-4], OFFSET ??_7?$basic_ostream@_WU?$char_traits@_W@std@@@std@@6B@
  0001f	8b 48 f4	 mov	 ecx, DWORD PTR [eax-12]
  00022	8b 51 04	 mov	 edx, DWORD PTR [ecx+4]
  00025	c7 44 02 f4 00
	00 00 00	 mov	 DWORD PTR [edx+eax-12], OFFSET ??_7?$basic_istream@_WU?$char_traits@_W@std@@@std@@6B@
  0002d	50		 push	 eax
  0002e	c7 00 00 00 00
	00		 mov	 DWORD PTR [eax], OFFSET ??_7ios_base@std@@6B@
  00034	e8 00 00 00 00	 call	 ?_Ios_base_dtor@ios_base@std@@CAXPAV12@@Z ; std::ios_base::_Ios_base_dtor
  00039	59		 pop	 ecx
  0003a	c3		 ret	 0
??_D?$basic_iostream@_WU?$char_traits@_W@std@@@std@@QAEXXZ ENDP ; std::basic_iostream<wchar_t,std::char_traits<wchar_t> >::`vbase destructor'
_TEXT	ENDS
PUBLIC	?_Myptr@?$basic_string@DU?$char_traits@D@std@@V?$allocator@D@2@@std@@IAEPADXZ ; std::basic_string<char,std::char_traits<char>,std::allocator<char> >::_Myptr
; Function compile flags: /Ogtpy
; File c:\program files (x86)\microsoft visual studio 9.0\vc\include\xstring
;	COMDAT ?_Myptr@?$basic_string@DU?$char_traits@D@std@@V?$allocator@D@2@@std@@IAEPADXZ
_TEXT	SEGMENT
?_Myptr@?$basic_string@DU?$char_traits@D@std@@V?$allocator@D@2@@std@@IAEPADXZ PROC ; std::basic_string<char,std::char_traits<char>,std::allocator<char> >::_Myptr, COMDAT
; _this$ = ecx

; 2170 : 		return (_BUF_SIZE <= _Myres ? _Bx._Ptr : _Bx._Buf);

  00000	83 79 18 10	 cmp	 DWORD PTR [ecx+24], 16	; 00000010H
  00004	72 04		 jb	 SHORT $LN3@Myptr
  00006	8b 41 04	 mov	 eax, DWORD PTR [ecx+4]

; 2171 : 		}

  00009	c3		 ret	 0
$LN3@Myptr:

; 2170 : 		return (_BUF_SIZE <= _Myres ? _Bx._Ptr : _Bx._Buf);

  0000a	8d 41 04	 lea	 eax, DWORD PTR [ecx+4]

; 2171 : 		}

  0000d	c3		 ret	 0
?_Myptr@?$basic_string@DU?$char_traits@D@std@@V?$allocator@D@2@@std@@IAEPADXZ ENDP ; std::basic_string<char,std::char_traits<char>,std::allocator<char> >::_Myptr
_TEXT	ENDS
PUBLIC	?_Myptr@?$basic_string@DU?$char_traits@D@std@@V?$allocator@D@2@@std@@IBEPBDXZ ; std::basic_string<char,std::char_traits<char>,std::allocator<char> >::_Myptr
; Function compile flags: /Ogtpy
;	COMDAT ?_Myptr@?$basic_string@DU?$char_traits@D@std@@V?$allocator@D@2@@std@@IBEPBDXZ
_TEXT	SEGMENT
?_Myptr@?$basic_string@DU?$char_traits@D@std@@V?$allocator@D@2@@std@@IBEPBDXZ PROC ; std::basic_string<char,std::char_traits<char>,std::allocator<char> >::_Myptr, COMDAT
; _this$ = ecx

; 2175 : 		return (_BUF_SIZE <= _Myres ? _Bx._Ptr : _Bx._Buf);

  00000	83 79 18 10	 cmp	 DWORD PTR [ecx+24], 16	; 00000010H
  00004	72 04		 jb	 SHORT $LN3@Myptr@2
  00006	8b 41 04	 mov	 eax, DWORD PTR [ecx+4]

; 2176 : 		}

  00009	c3		 ret	 0
$LN3@Myptr@2:

; 2175 : 		return (_BUF_SIZE <= _Myres ? _Bx._Ptr : _Bx._Buf);

  0000a	8d 41 04	 lea	 eax, DWORD PTR [ecx+4]

; 2176 : 		}

  0000d	c3		 ret	 0
?_Myptr@?$basic_string@DU?$char_traits@D@std@@V?$allocator@D@2@@std@@IBEPBDXZ ENDP ; std::basic_string<char,std::char_traits<char>,std::allocator<char> >::_Myptr
_TEXT	ENDS
PUBLIC	??0?$allocator@D@std@@QAE@XZ			; std::allocator<char>::allocator<char>
; Function compile flags: /Ogtpy
; File c:\program files (x86)\microsoft visual studio 9.0\vc\include\xmemory
;	COMDAT ??0?$allocator@D@std@@QAE@XZ
_TEXT	SEGMENT
??0?$allocator@D@std@@QAE@XZ PROC			; std::allocator<char>::allocator<char>, COMDAT
; _this$ = ecx

; 119  : 	allocator() _THROW0()

  00000	8b c1		 mov	 eax, ecx

; 120  : 		{	// construct default allocator (do nothing)
; 121  : 		}

  00002	c3		 ret	 0
??0?$allocator@D@std@@QAE@XZ ENDP			; std::allocator<char>::allocator<char>
_TEXT	ENDS
PUBLIC	?deallocate@?$allocator@D@std@@QAEXPADI@Z	; std::allocator<char>::deallocate
; Function compile flags: /Ogtpy
;	COMDAT ?deallocate@?$allocator@D@std@@QAEXPADI@Z
_TEXT	SEGMENT
__Ptr$ = 8						; size = 4
___formal$ = 12						; size = 4
?deallocate@?$allocator@D@std@@QAEXPADI@Z PROC		; std::allocator<char>::deallocate, COMDAT
; _this$ = ecx

; 140  : 		::operator delete(_Ptr);

  00000	8b 44 24 04	 mov	 eax, DWORD PTR __Ptr$[esp-4]
  00004	50		 push	 eax
  00005	e8 00 00 00 00	 call	 ??3@YAXPAX@Z		; operator delete
  0000a	59		 pop	 ecx

; 141  : 		}

  0000b	c2 08 00	 ret	 8
?deallocate@?$allocator@D@std@@QAEXPADI@Z ENDP		; std::allocator<char>::deallocate
_TEXT	ENDS
PUBLIC	?_Myptr@?$basic_string@_WU?$char_traits@_W@std@@V?$allocator@_W@2@@std@@IBEPB_WXZ ; std::basic_string<wchar_t,std::char_traits<wchar_t>,std::allocator<wchar_t> >::_Myptr
; Function compile flags: /Ogtpy
; File c:\program files (x86)\microsoft visual studio 9.0\vc\include\xstring
;	COMDAT ?_Myptr@?$basic_string@_WU?$char_traits@_W@std@@V?$allocator@_W@2@@std@@IBEPB_WXZ
_TEXT	SEGMENT
?_Myptr@?$basic_string@_WU?$char_traits@_W@std@@V?$allocator@_W@2@@std@@IBEPB_WXZ PROC ; std::basic_string<wchar_t,std::char_traits<wchar_t>,std::allocator<wchar_t> >::_Myptr, COMDAT
; _this$ = ecx

; 2175 : 		return (_BUF_SIZE <= _Myres ? _Bx._Ptr : _Bx._Buf);

  00000	83 79 18 08	 cmp	 DWORD PTR [ecx+24], 8
  00004	72 04		 jb	 SHORT $LN3@Myptr@3
  00006	8b 41 04	 mov	 eax, DWORD PTR [ecx+4]

; 2176 : 		}

  00009	c3		 ret	 0
$LN3@Myptr@3:

; 2175 : 		return (_BUF_SIZE <= _Myres ? _Bx._Ptr : _Bx._Buf);

  0000a	8d 41 04	 lea	 eax, DWORD PTR [ecx+4]

; 2176 : 		}

  0000d	c3		 ret	 0
?_Myptr@?$basic_string@_WU?$char_traits@_W@std@@V?$allocator@_W@2@@std@@IBEPB_WXZ ENDP ; std::basic_string<wchar_t,std::char_traits<wchar_t>,std::allocator<wchar_t> >::_Myptr
_TEXT	ENDS
PUBLIC	??0?$allocator@_W@std@@QAE@XZ			; std::allocator<wchar_t>::allocator<wchar_t>
; Function compile flags: /Ogtpy
; File c:\program files (x86)\microsoft visual studio 9.0\vc\include\xmemory
;	COMDAT ??0?$allocator@_W@std@@QAE@XZ
_TEXT	SEGMENT
??0?$allocator@_W@std@@QAE@XZ PROC			; std::allocator<wchar_t>::allocator<wchar_t>, COMDAT
; _this$ = ecx

; 119  : 	allocator() _THROW0()

  00000	8b c1		 mov	 eax, ecx

; 120  : 		{	// construct default allocator (do nothing)
; 121  : 		}

  00002	c3		 ret	 0
??0?$allocator@_W@std@@QAE@XZ ENDP			; std::allocator<wchar_t>::allocator<wchar_t>
_TEXT	ENDS
PUBLIC	?deallocate@?$allocator@_W@std@@QAEXPA_WI@Z	; std::allocator<wchar_t>::deallocate
; Function compile flags: /Ogtpy
;	COMDAT ?deallocate@?$allocator@_W@std@@QAEXPA_WI@Z
_TEXT	SEGMENT
__Ptr$ = 8						; size = 4
___formal$ = 12						; size = 4
?deallocate@?$allocator@_W@std@@QAEXPA_WI@Z PROC	; std::allocator<wchar_t>::deallocate, COMDAT
; _this$ = ecx

; 140  : 		::operator delete(_Ptr);

  00000	8b 44 24 04	 mov	 eax, DWORD PTR __Ptr$[esp-4]
  00004	50		 push	 eax
  00005	e8 00 00 00 00	 call	 ??3@YAXPAX@Z		; operator delete
  0000a	59		 pop	 ecx

; 141  : 		}

  0000b	c2 08 00	 ret	 8
?deallocate@?$allocator@_W@std@@QAEXPA_WI@Z ENDP	; std::allocator<wchar_t>::deallocate
_TEXT	ENDS
PUBLIC	?fill@?$basic_ios@DU?$char_traits@D@std@@@std@@QBEDXZ ; std::basic_ios<char,std::char_traits<char> >::fill
; Function compile flags: /Ogtpy
; File c:\program files (x86)\microsoft visual studio 9.0\vc\include\ios
;	COMDAT ?fill@?$basic_ios@DU?$char_traits@D@std@@@std@@QBEDXZ
_TEXT	SEGMENT
?fill@?$basic_ios@DU?$char_traits@D@std@@@std@@QBEDXZ PROC ; std::basic_ios<char,std::char_traits<char> >::fill, COMDAT
; _this$ = ecx

; 106  : 		return (_Fillch);

  00000	8a 41 30	 mov	 al, BYTE PTR [ecx+48]

; 107  : 		}

  00003	c3		 ret	 0
?fill@?$basic_ios@DU?$char_traits@D@std@@@std@@QBEDXZ ENDP ; std::basic_ios<char,std::char_traits<char> >::fill
_TEXT	ENDS
PUBLIC	??_7?$basic_ios@DU?$char_traits@D@std@@@std@@6B@ ; std::basic_ios<char,std::char_traits<char> >::`vftable'
PUBLIC	??0?$basic_ios@DU?$char_traits@D@std@@@std@@IAE@XZ ; std::basic_ios<char,std::char_traits<char> >::basic_ios<char,std::char_traits<char> >
PUBLIC	??_R4?$basic_ios@DU?$char_traits@D@std@@@std@@6B@ ; std::basic_ios<char,std::char_traits<char> >::`RTTI Complete Object Locator'
EXTRN	??_E?$basic_ios@DU?$char_traits@D@std@@@std@@UAEPAXI@Z:PROC ; std::basic_ios<char,std::char_traits<char> >::`vector deleting destructor'
;	COMDAT ??_R4?$basic_ios@DU?$char_traits@D@std@@@std@@6B@
; File c:\program files (x86)\microsoft visual studio 9.0\vc\include\xiosbase
rdata$r	SEGMENT
??_R4?$basic_ios@DU?$char_traits@D@std@@@std@@6B@ DD 00H ; std::basic_ios<char,std::char_traits<char> >::`RTTI Complete Object Locator'
	DD	00H
	DD	00H
	DD	FLAT:??_R0?AV?$basic_ios@DU?$char_traits@D@std@@@std@@@8
	DD	FLAT:??_R3?$basic_ios@DU?$char_traits@D@std@@@std@@8
rdata$r	ENDS
;	COMDAT ??_7?$basic_ios@DU?$char_traits@D@std@@@std@@6B@
CONST	SEGMENT
??_7?$basic_ios@DU?$char_traits@D@std@@@std@@6B@ DD FLAT:??_R4?$basic_ios@DU?$char_traits@D@std@@@std@@6B@ ; std::basic_ios<char,std::char_traits<char> >::`vftable'
	DD	FLAT:??_E?$basic_ios@DU?$char_traits@D@std@@@std@@UAEPAXI@Z
; Function compile flags: /Ogtpy
; File c:\program files (x86)\microsoft visual studio 9.0\vc\include\ios
CONST	ENDS
;	COMDAT ??0?$basic_ios@DU?$char_traits@D@std@@@std@@IAE@XZ
_TEXT	SEGMENT
??0?$basic_ios@DU?$char_traits@D@std@@@std@@IAE@XZ PROC	; std::basic_ios<char,std::char_traits<char> >::basic_ios<char,std::char_traits<char> >, COMDAT
; _this$ = ecx

; 146  : 	__CLR_OR_THIS_CALL basic_ios()

  00000	8b c1		 mov	 eax, ecx
  00002	c7 00 00 00 00
	00		 mov	 DWORD PTR [eax], OFFSET ??_7?$basic_ios@DU?$char_traits@D@std@@@std@@6B@

; 147  : 		{	// default constructor, do nothing
; 148  : 		}

  00008	c3		 ret	 0
??0?$basic_ios@DU?$char_traits@D@std@@@std@@IAE@XZ ENDP	; std::basic_ios<char,std::char_traits<char> >::basic_ios<char,std::char_traits<char> >
; Function compile flags: /Ogtpy
_TEXT	ENDS
;	COMDAT ??_G?$basic_ios@DU?$char_traits@D@std@@@std@@UAEPAXI@Z
_TEXT	SEGMENT
___flags$ = 8						; size = 4
??_G?$basic_ios@DU?$char_traits@D@std@@@std@@UAEPAXI@Z PROC ; std::basic_ios<char,std::char_traits<char> >::`scalar deleting destructor', COMDAT
; _this$ = ecx
  00000	56		 push	 esi
  00001	8b f1		 mov	 esi, ecx
  00003	56		 push	 esi
  00004	c7 06 00 00 00
	00		 mov	 DWORD PTR [esi], OFFSET ??_7ios_base@std@@6B@
  0000a	e8 00 00 00 00	 call	 ?_Ios_base_dtor@ios_base@std@@CAXPAV12@@Z ; std::ios_base::_Ios_base_dtor
  0000f	83 c4 04	 add	 esp, 4
  00012	f6 44 24 08 01	 test	 BYTE PTR ___flags$[esp], 1
