; Listing generated by Microsoft (R) Optimizing Compiler Version 15.00.30729.01 

	TITLE	c:\home\public\Desktop\projects\cipherShed\src\Mount\Favorites.cpp
	.686P
	.XMM
	include listing.inc
	.model	flat

INCLUDELIB LIBCMT
INCLUDELIB OLDNAMES

PUBLIC	??_C@_0P@GHFPNOJB@bad?5allocation?$AA@		; `string'
PUBLIC	?FavoriteVolumesMenu@CipherShed@@3PAUHMENU__@@A	; CipherShed::FavoriteVolumesMenu
PUBLIC	?_Value@?$_Is_swap_move@U_Swap_move_tag@std@@@std@@2_NB ; std::_Is_swap_move<std::_Swap_move_tag>::_Value
PUBLIC	?value@?$integral_constant@_N$0A@@tr1@std@@2_NB	; std::tr1::integral_constant<bool,0>::value
PUBLIC	?value@?$integral_constant@_N$00@tr1@std@@2_NB	; std::tr1::integral_constant<bool,1>::value
PUBLIC	?collate@?$_Locbase@H@std@@2HB			; std::_Locbase<int>::collate
PUBLIC	?ctype@?$_Locbase@H@std@@2HB			; std::_Locbase<int>::ctype
PUBLIC	?monetary@?$_Locbase@H@std@@2HB			; std::_Locbase<int>::monetary
PUBLIC	?numeric@?$_Locbase@H@std@@2HB			; std::_Locbase<int>::numeric
PUBLIC	?time@?$_Locbase@H@std@@2HB			; std::_Locbase<int>::time
PUBLIC	?messages@?$_Locbase@H@std@@2HB			; std::_Locbase<int>::messages
PUBLIC	?all@?$_Locbase@H@std@@2HB			; std::_Locbase<int>::all
PUBLIC	?none@?$_Locbase@H@std@@2HB			; std::_Locbase<int>::none
PUBLIC	?table_size@?$ctype@D@std@@2IB			; std::ctype<char>::table_size
PUBLIC	?skipws@?$_Iosb@H@std@@2W4_Fmtflags@12@B	; std::_Iosb<int>::skipws
PUBLIC	?unitbuf@?$_Iosb@H@std@@2W4_Fmtflags@12@B	; std::_Iosb<int>::unitbuf
PUBLIC	?uppercase@?$_Iosb@H@std@@2W4_Fmtflags@12@B	; std::_Iosb<int>::uppercase
PUBLIC	?showbase@?$_Iosb@H@std@@2W4_Fmtflags@12@B	; std::_Iosb<int>::showbase
PUBLIC	?showpoint@?$_Iosb@H@std@@2W4_Fmtflags@12@B	; std::_Iosb<int>::showpoint
PUBLIC	?showpos@?$_Iosb@H@std@@2W4_Fmtflags@12@B	; std::_Iosb<int>::showpos
PUBLIC	?left@?$_Iosb@H@std@@2W4_Fmtflags@12@B		; std::_Iosb<int>::left
PUBLIC	?right@?$_Iosb@H@std@@2W4_Fmtflags@12@B		; std::_Iosb<int>::right
PUBLIC	?internal@?$_Iosb@H@std@@2W4_Fmtflags@12@B	; std::_Iosb<int>::internal
PUBLIC	?dec@?$_Iosb@H@std@@2W4_Fmtflags@12@B		; std::_Iosb<int>::dec
PUBLIC	?oct@?$_Iosb@H@std@@2W4_Fmtflags@12@B		; std::_Iosb<int>::oct
PUBLIC	?hex@?$_Iosb@H@std@@2W4_Fmtflags@12@B		; std::_Iosb<int>::hex
PUBLIC	?scientific@?$_Iosb@H@std@@2W4_Fmtflags@12@B	; std::_Iosb<int>::scientific
PUBLIC	?fixed@?$_Iosb@H@std@@2W4_Fmtflags@12@B		; std::_Iosb<int>::fixed
PUBLIC	?hexfloat@?$_Iosb@H@std@@2W4_Fmtflags@12@B	; std::_Iosb<int>::hexfloat
PUBLIC	?boolalpha@?$_Iosb@H@std@@2W4_Fmtflags@12@B	; std::_Iosb<int>::boolalpha
PUBLIC	?_Stdio@?$_Iosb@H@std@@2W4_Fmtflags@12@B	; std::_Iosb<int>::_Stdio
PUBLIC	?adjustfield@?$_Iosb@H@std@@2W4_Fmtflags@12@B	; std::_Iosb<int>::adjustfield
PUBLIC	?basefield@?$_Iosb@H@std@@2W4_Fmtflags@12@B	; std::_Iosb<int>::basefield
PUBLIC	?floatfield@?$_Iosb@H@std@@2W4_Fmtflags@12@B	; std::_Iosb<int>::floatfield
PUBLIC	?goodbit@?$_Iosb@H@std@@2W4_Iostate@12@B	; std::_Iosb<int>::goodbit
PUBLIC	?eofbit@?$_Iosb@H@std@@2W4_Iostate@12@B		; std::_Iosb<int>::eofbit
PUBLIC	?failbit@?$_Iosb@H@std@@2W4_Iostate@12@B	; std::_Iosb<int>::failbit
PUBLIC	?badbit@?$_Iosb@H@std@@2W4_Iostate@12@B		; std::_Iosb<int>::badbit
PUBLIC	?_Hardfail@?$_Iosb@H@std@@2W4_Iostate@12@B	; std::_Iosb<int>::_Hardfail
PUBLIC	?in@?$_Iosb@H@std@@2W4_Openmode@12@B		; std::_Iosb<int>::in
PUBLIC	?out@?$_Iosb@H@std@@2W4_Openmode@12@B		; std::_Iosb<int>::out
PUBLIC	?ate@?$_Iosb@H@std@@2W4_Openmode@12@B		; std::_Iosb<int>::ate
PUBLIC	?app@?$_Iosb@H@std@@2W4_Openmode@12@B		; std::_Iosb<int>::app
PUBLIC	?trunc@?$_Iosb@H@std@@2W4_Openmode@12@B		; std::_Iosb<int>::trunc
PUBLIC	?_Nocreate@?$_Iosb@H@std@@2W4_Openmode@12@B	; std::_Iosb<int>::_Nocreate
PUBLIC	?_Noreplace@?$_Iosb@H@std@@2W4_Openmode@12@B	; std::_Iosb<int>::_Noreplace
PUBLIC	?binary@?$_Iosb@H@std@@2W4_Openmode@12@B	; std::_Iosb<int>::binary
PUBLIC	?beg@?$_Iosb@H@std@@2W4_Seekdir@12@B		; std::_Iosb<int>::beg
PUBLIC	?cur@?$_Iosb@H@std@@2W4_Seekdir@12@B		; std::_Iosb<int>::cur
PUBLIC	?end@?$_Iosb@H@std@@2W4_Seekdir@12@B		; std::_Iosb<int>::end
PUBLIC	?RescueIsoImageSize@BootEncryption@CipherShed@@1IB ; CipherShed::BootEncryption::RescueIsoImageSize
_BSS	SEGMENT
?FavoriteVolumesMenu@CipherShed@@3PAUHMENU__@@A DD 01H DUP (?) ; CipherShed::FavoriteVolumesMenu
_BSS	ENDS
;	COMDAT ?RescueIsoImageSize@BootEncryption@CipherShed@@1IB
CONST	SEGMENT
?RescueIsoImageSize@BootEncryption@CipherShed@@1IB DD 01c0000H ; CipherShed::BootEncryption::RescueIsoImageSize
CONST	ENDS
;	COMDAT ?end@?$_Iosb@H@std@@2W4_Seekdir@12@B
CONST	SEGMENT
?end@?$_Iosb@H@std@@2W4_Seekdir@12@B DD 02H		; std::_Iosb<int>::end
CONST	ENDS
;	COMDAT ?cur@?$_Iosb@H@std@@2W4_Seekdir@12@B
CONST	SEGMENT
?cur@?$_Iosb@H@std@@2W4_Seekdir@12@B DD 01H		; std::_Iosb<int>::cur
CONST	ENDS
;	COMDAT ?beg@?$_Iosb@H@std@@2W4_Seekdir@12@B
CONST	SEGMENT
?beg@?$_Iosb@H@std@@2W4_Seekdir@12@B DD 00H		; std::_Iosb<int>::beg
CONST	ENDS
;	COMDAT ?binary@?$_Iosb@H@std@@2W4_Openmode@12@B
CONST	SEGMENT
?binary@?$_Iosb@H@std@@2W4_Openmode@12@B DD 020H	; std::_Iosb<int>::binary
CONST	ENDS
;	COMDAT ?_Noreplace@?$_Iosb@H@std@@2W4_Openmode@12@B
CONST	SEGMENT
?_Noreplace@?$_Iosb@H@std@@2W4_Openmode@12@B DD 080H	; std::_Iosb<int>::_Noreplace
CONST	ENDS
;	COMDAT ?_Nocreate@?$_Iosb@H@std@@2W4_Openmode@12@B
CONST	SEGMENT
?_Nocreate@?$_Iosb@H@std@@2W4_Openmode@12@B DD 040H	; std::_Iosb<int>::_Nocreate
CONST	ENDS
;	COMDAT ?trunc@?$_Iosb@H@std@@2W4_Openmode@12@B
CONST	SEGMENT
?trunc@?$_Iosb@H@std@@2W4_Openmode@12@B DD 010H		; std::_Iosb<int>::trunc
CONST	ENDS
;	COMDAT ?app@?$_Iosb@H@std@@2W4_Openmode@12@B
CONST	SEGMENT
?app@?$_Iosb@H@std@@2W4_Openmode@12@B DD 08H		; std::_Iosb<int>::app
CONST	ENDS
;	COMDAT ?ate@?$_Iosb@H@std@@2W4_Openmode@12@B
CONST	SEGMENT
?ate@?$_Iosb@H@std@@2W4_Openmode@12@B DD 04H		; std::_Iosb<int>::ate
CONST	ENDS
;	COMDAT ?out@?$_Iosb@H@std@@2W4_Openmode@12@B
CONST	SEGMENT
?out@?$_Iosb@H@std@@2W4_Openmode@12@B DD 02H		; std::_Iosb<int>::out
CONST	ENDS
;	COMDAT ?in@?$_Iosb@H@std@@2W4_Openmode@12@B
CONST	SEGMENT
?in@?$_Iosb@H@std@@2W4_Openmode@12@B DD 01H		; std::_Iosb<int>::in
CONST	ENDS
;	COMDAT ?_Hardfail@?$_Iosb@H@std@@2W4_Iostate@12@B
CONST	SEGMENT
?_Hardfail@?$_Iosb@H@std@@2W4_Iostate@12@B DD 010H	; std::_Iosb<int>::_Hardfail
CONST	ENDS
;	COMDAT ?badbit@?$_Iosb@H@std@@2W4_Iostate@12@B
CONST	SEGMENT
?badbit@?$_Iosb@H@std@@2W4_Iostate@12@B DD 04H		; std::_Iosb<int>::badbit
CONST	ENDS
;	COMDAT ?failbit@?$_Iosb@H@std@@2W4_Iostate@12@B
CONST	SEGMENT
?failbit@?$_Iosb@H@std@@2W4_Iostate@12@B DD 02H		; std::_Iosb<int>::failbit
CONST	ENDS
;	COMDAT ?eofbit@?$_Iosb@H@std@@2W4_Iostate@12@B
CONST	SEGMENT
?eofbit@?$_Iosb@H@std@@2W4_Iostate@12@B DD 01H		; std::_Iosb<int>::eofbit
CONST	ENDS
;	COMDAT ?goodbit@?$_Iosb@H@std@@2W4_Iostate@12@B
CONST	SEGMENT
?goodbit@?$_Iosb@H@std@@2W4_Iostate@12@B DD 00H		; std::_Iosb<int>::goodbit
CONST	ENDS
;	COMDAT ?floatfield@?$_Iosb@H@std@@2W4_Fmtflags@12@B
CONST	SEGMENT
?floatfield@?$_Iosb@H@std@@2W4_Fmtflags@12@B DD 03000H	; std::_Iosb<int>::floatfield
CONST	ENDS
;	COMDAT ?basefield@?$_Iosb@H@std@@2W4_Fmtflags@12@B
CONST	SEGMENT
?basefield@?$_Iosb@H@std@@2W4_Fmtflags@12@B DD 0e00H	; std::_Iosb<int>::basefield
CONST	ENDS
;	COMDAT ?adjustfield@?$_Iosb@H@std@@2W4_Fmtflags@12@B
CONST	SEGMENT
?adjustfield@?$_Iosb@H@std@@2W4_Fmtflags@12@B DD 01c0H	; std::_Iosb<int>::adjustfield
CONST	ENDS
;	COMDAT ?_Stdio@?$_Iosb@H@std@@2W4_Fmtflags@12@B
CONST	SEGMENT
?_Stdio@?$_Iosb@H@std@@2W4_Fmtflags@12@B DD 08000H	; std::_Iosb<int>::_Stdio
CONST	ENDS
;	COMDAT ?boolalpha@?$_Iosb@H@std@@2W4_Fmtflags@12@B
CONST	SEGMENT
?boolalpha@?$_Iosb@H@std@@2W4_Fmtflags@12@B DD 04000H	; std::_Iosb<int>::boolalpha
CONST	ENDS
;	COMDAT ?hexfloat@?$_Iosb@H@std@@2W4_Fmtflags@12@B
CONST	SEGMENT
?hexfloat@?$_Iosb@H@std@@2W4_Fmtflags@12@B DD 03000H	; std::_Iosb<int>::hexfloat
CONST	ENDS
;	COMDAT ?fixed@?$_Iosb@H@std@@2W4_Fmtflags@12@B
CONST	SEGMENT
?fixed@?$_Iosb@H@std@@2W4_Fmtflags@12@B DD 02000H	; std::_Iosb<int>::fixed
CONST	ENDS
;	COMDAT ?scientific@?$_Iosb@H@std@@2W4_Fmtflags@12@B
CONST	SEGMENT
?scientific@?$_Iosb@H@std@@2W4_Fmtflags@12@B DD 01000H	; std::_Iosb<int>::scientific
CONST	ENDS
;	COMDAT ?hex@?$_Iosb@H@std@@2W4_Fmtflags@12@B
CONST	SEGMENT
?hex@?$_Iosb@H@std@@2W4_Fmtflags@12@B DD 0800H		; std::_Iosb<int>::hex
CONST	ENDS
;	COMDAT ?oct@?$_Iosb@H@std@@2W4_Fmtflags@12@B
CONST	SEGMENT
?oct@?$_Iosb@H@std@@2W4_Fmtflags@12@B DD 0400H		; std::_Iosb<int>::oct
CONST	ENDS
;	COMDAT ?dec@?$_Iosb@H@std@@2W4_Fmtflags@12@B
CONST	SEGMENT
?dec@?$_Iosb@H@std@@2W4_Fmtflags@12@B DD 0200H		; std::_Iosb<int>::dec
CONST	ENDS
;	COMDAT ?internal@?$_Iosb@H@std@@2W4_Fmtflags@12@B
CONST	SEGMENT
?internal@?$_Iosb@H@std@@2W4_Fmtflags@12@B DD 0100H	; std::_Iosb<int>::internal
CONST	ENDS
;	COMDAT ?right@?$_Iosb@H@std@@2W4_Fmtflags@12@B
CONST	SEGMENT
?right@?$_Iosb@H@std@@2W4_Fmtflags@12@B DD 080H		; std::_Iosb<int>::right
CONST	ENDS
;	COMDAT ?left@?$_Iosb@H@std@@2W4_Fmtflags@12@B
CONST	SEGMENT
?left@?$_Iosb@H@std@@2W4_Fmtflags@12@B DD 040H		; std::_Iosb<int>::left
CONST	ENDS
;	COMDAT ?showpos@?$_Iosb@H@std@@2W4_Fmtflags@12@B
CONST	SEGMENT
?showpos@?$_Iosb@H@std@@2W4_Fmtflags@12@B DD 020H	; std::_Iosb<int>::showpos
CONST	ENDS
;	COMDAT ?showpoint@?$_Iosb@H@std@@2W4_Fmtflags@12@B
CONST	SEGMENT
?showpoint@?$_Iosb@H@std@@2W4_Fmtflags@12@B DD 010H	; std::_Iosb<int>::showpoint
CONST	ENDS
;	COMDAT ?showbase@?$_Iosb@H@std@@2W4_Fmtflags@12@B
CONST	SEGMENT
?showbase@?$_Iosb@H@std@@2W4_Fmtflags@12@B DD 08H	; std::_Iosb<int>::showbase
CONST	ENDS
;	COMDAT ?uppercase@?$_Iosb@H@std@@2W4_Fmtflags@12@B
CONST	SEGMENT
?uppercase@?$_Iosb@H@std@@2W4_Fmtflags@12@B DD 04H	; std::_Iosb<int>::uppercase
CONST	ENDS
;	COMDAT ?unitbuf@?$_Iosb@H@std@@2W4_Fmtflags@12@B
CONST	SEGMENT
?unitbuf@?$_Iosb@H@std@@2W4_Fmtflags@12@B DD 02H	; std::_Iosb<int>::unitbuf
CONST	ENDS
;	COMDAT ?skipws@?$_Iosb@H@std@@2W4_Fmtflags@12@B
CONST	SEGMENT
?skipws@?$_Iosb@H@std@@2W4_Fmtflags@12@B DD 01H		; std::_Iosb<int>::skipws
CONST	ENDS
;	COMDAT ?table_size@?$ctype@D@std@@2IB
CONST	SEGMENT
?table_size@?$ctype@D@std@@2IB DD 0100H			; std::ctype<char>::table_size
CONST	ENDS
;	COMDAT ?none@?$_Locbase@H@std@@2HB
CONST	SEGMENT
?none@?$_Locbase@H@std@@2HB DD 00H			; std::_Locbase<int>::none
CONST	ENDS
;	COMDAT ?all@?$_Locbase@H@std@@2HB
CONST	SEGMENT
?all@?$_Locbase@H@std@@2HB DD 03fH			; std::_Locbase<int>::all
CONST	ENDS
;	COMDAT ?messages@?$_Locbase@H@std@@2HB
CONST	SEGMENT
?messages@?$_Locbase@H@std@@2HB DD 020H			; std::_Locbase<int>::messages
CONST	ENDS
;	COMDAT ?time@?$_Locbase@H@std@@2HB
CONST	SEGMENT
?time@?$_Locbase@H@std@@2HB DD 010H			; std::_Locbase<int>::time
CONST	ENDS
;	COMDAT ?numeric@?$_Locbase@H@std@@2HB
CONST	SEGMENT
?numeric@?$_Locbase@H@std@@2HB DD 08H			; std::_Locbase<int>::numeric
CONST	ENDS
;	COMDAT ?monetary@?$_Locbase@H@std@@2HB
CONST	SEGMENT
?monetary@?$_Locbase@H@std@@2HB DD 04H			; std::_Locbase<int>::monetary
CONST	ENDS
;	COMDAT ?ctype@?$_Locbase@H@std@@2HB
CONST	SEGMENT
?ctype@?$_Locbase@H@std@@2HB DD 02H			; std::_Locbase<int>::ctype
CONST	ENDS
;	COMDAT ?collate@?$_Locbase@H@std@@2HB
CONST	SEGMENT
?collate@?$_Locbase@H@std@@2HB DD 01H			; std::_Locbase<int>::collate
CONST	ENDS
;	COMDAT ?value@?$integral_constant@_N$00@tr1@std@@2_NB
CONST	SEGMENT
?value@?$integral_constant@_N$00@tr1@std@@2_NB DB 01H	; std::tr1::integral_constant<bool,1>::value
CONST	ENDS
;	COMDAT ?value@?$integral_constant@_N$0A@@tr1@std@@2_NB
CONST	SEGMENT
?value@?$integral_constant@_N$0A@@tr1@std@@2_NB DB 00H	; std::tr1::integral_constant<bool,0>::value
CONST	ENDS
;	COMDAT ?_Value@?$_Is_swap_move@U_Swap_move_tag@std@@@std@@2_NB
CONST	SEGMENT
?_Value@?$_Is_swap_move@U_Swap_move_tag@std@@@std@@2_NB DB 01H ; std::_Is_swap_move<std::_Swap_move_tag>::_Value
CONST	ENDS
_DATA	SEGMENT
__bad_alloc_Message DD FLAT:??_C@_0P@GHFPNOJB@bad?5allocation?$AA@
_DATA	ENDS
;	COMDAT ??_C@_0P@GHFPNOJB@bad?5allocation?$AA@
CONST	SEGMENT
??_C@_0P@GHFPNOJB@bad?5allocation?$AA@ DB 'bad allocation', 00H ; `string'
CONST	ENDS
PUBLIC	??_7bad_alloc@std@@6B@				; std::bad_alloc::`vftable'
PUBLIC	??0bad_alloc@std@@QAE@PBD@Z			; std::bad_alloc::bad_alloc
PUBLIC	??_R4bad_alloc@std@@6B@				; std::bad_alloc::`RTTI Complete Object Locator'
PUBLIC	??_R0?AVbad_alloc@std@@@8			; std::bad_alloc `RTTI Type Descriptor'
PUBLIC	??_R3bad_alloc@std@@8				; std::bad_alloc::`RTTI Class Hierarchy Descriptor'
PUBLIC	??_R2bad_alloc@std@@8				; std::bad_alloc::`RTTI Base Class Array'
PUBLIC	??_R1A@?0A@EA@bad_alloc@std@@8			; std::bad_alloc::`RTTI Base Class Descriptor at (0,-1,0,64)'
PUBLIC	??_R1A@?0A@EA@exception@std@@8			; std::exception::`RTTI Base Class Descriptor at (0,-1,0,64)'
PUBLIC	??_R0?AVexception@std@@@8			; std::exception `RTTI Type Descriptor'
PUBLIC	??_R3exception@std@@8				; std::exception::`RTTI Class Hierarchy Descriptor'
PUBLIC	??_R2exception@std@@8				; std::exception::`RTTI Base Class Array'
EXTRN	??0exception@std@@QAE@ABQBD@Z:PROC		; std::exception::exception
EXTRN	??_7type_info@@6B@:QWORD			; type_info::`vftable'
EXTRN	??_Ebad_alloc@std@@UAEPAXI@Z:PROC		; std::bad_alloc::`vector deleting destructor'
EXTRN	?what@exception@std@@UBEPBDXZ:PROC		; std::exception::what
;	COMDAT ??_R2exception@std@@8
; File c:\program files (x86)\microsoft visual studio 9.0\vc\include\exception
rdata$r	SEGMENT
??_R2exception@std@@8 DD FLAT:??_R1A@?0A@EA@exception@std@@8 ; std::exception::`RTTI Base Class Array'
rdata$r	ENDS
;	COMDAT ??_R3exception@std@@8
rdata$r	SEGMENT
??_R3exception@std@@8 DD 00H				; std::exception::`RTTI Class Hierarchy Descriptor'
	DD	00H
	DD	01H
	DD	FLAT:??_R2exception@std@@8
rdata$r	ENDS
;	COMDAT ??_R0?AVexception@std@@@8
_DATA	SEGMENT
??_R0?AVexception@std@@@8 DD FLAT:??_7type_info@@6B@	; std::exception `RTTI Type Descriptor'
	DD	00H
	DB	'.?AVexception@std@@', 00H
_DATA	ENDS
;	COMDAT ??_R1A@?0A@EA@exception@std@@8
rdata$r	SEGMENT
??_R1A@?0A@EA@exception@std@@8 DD FLAT:??_R0?AVexception@std@@@8 ; std::exception::`RTTI Base Class Descriptor at (0,-1,0,64)'
	DD	00H
	DD	00H
	DD	0ffffffffH
	DD	00H
	DD	040H
	DD	FLAT:??_R3exception@std@@8
rdata$r	ENDS
;	COMDAT ??_R1A@?0A@EA@bad_alloc@std@@8
rdata$r	SEGMENT
??_R1A@?0A@EA@bad_alloc@std@@8 DD FLAT:??_R0?AVbad_alloc@std@@@8 ; std::bad_alloc::`RTTI Base Class Descriptor at (0,-1,0,64)'
	DD	01H
	DD	00H
	DD	0ffffffffH
	DD	00H
	DD	040H
	DD	FLAT:??_R3bad_alloc@std@@8
rdata$r	ENDS
;	COMDAT ??_R2bad_alloc@std@@8
rdata$r	SEGMENT
??_R2bad_alloc@std@@8 DD FLAT:??_R1A@?0A@EA@bad_alloc@std@@8 ; std::bad_alloc::`RTTI Base Class Array'
	DD	FLAT:??_R1A@?0A@EA@exception@std@@8
rdata$r	ENDS
;	COMDAT ??_R3bad_alloc@std@@8
rdata$r	SEGMENT
??_R3bad_alloc@std@@8 DD 00H				; std::bad_alloc::`RTTI Class Hierarchy Descriptor'
	DD	00H
	DD	02H
	DD	FLAT:??_R2bad_alloc@std@@8
rdata$r	ENDS
;	COMDAT ??_R0?AVbad_alloc@std@@@8
_DATA	SEGMENT
??_R0?AVbad_alloc@std@@@8 DD FLAT:??_7type_info@@6B@	; std::bad_alloc `RTTI Type Descriptor'
	DD	00H
	DB	'.?AVbad_alloc@std@@', 00H
_DATA	ENDS
;	COMDAT ??_R4bad_alloc@std@@6B@
rdata$r	SEGMENT
??_R4bad_alloc@std@@6B@ DD 00H				; std::bad_alloc::`RTTI Complete Object Locator'
	DD	00H
	DD	00H
	DD	FLAT:??_R0?AVbad_alloc@std@@@8
	DD	FLAT:??_R3bad_alloc@std@@8
rdata$r	ENDS
;	COMDAT ??_7bad_alloc@std@@6B@
CONST	SEGMENT
??_7bad_alloc@std@@6B@ DD FLAT:??_R4bad_alloc@std@@6B@	; std::bad_alloc::`vftable'
	DD	FLAT:??_Ebad_alloc@std@@UAEPAXI@Z
	DD	FLAT:?what@exception@std@@UBEPBDXZ
; Function compile flags: /Ogtpy
CONST	ENDS
;	COMDAT ??0bad_alloc@std@@QAE@PBD@Z
_TEXT	SEGMENT
__Message$ = 8						; size = 4
??0bad_alloc@std@@QAE@PBD@Z PROC			; std::bad_alloc::bad_alloc, COMDAT
; _this$ = ecx

; 371  : 		{	// construct from message string

  00000	56		 push	 esi
  00001	8d 44 24 08	 lea	 eax, DWORD PTR __Message$[esp]
  00005	50		 push	 eax
  00006	8b f1		 mov	 esi, ecx
  00008	e8 00 00 00 00	 call	 ??0exception@std@@QAE@ABQBD@Z ; std::exception::exception
  0000d	c7 06 00 00 00
	00		 mov	 DWORD PTR [esi], OFFSET ??_7bad_alloc@std@@6B@

; 372  : 		}

  00013	8b c6		 mov	 eax, esi
  00015	5e		 pop	 esi
  00016	c2 04 00	 ret	 4
??0bad_alloc@std@@QAE@PBD@Z ENDP			; std::bad_alloc::bad_alloc
_TEXT	ENDS
PUBLIC	??1bad_alloc@std@@UAE@XZ			; std::bad_alloc::~bad_alloc
EXTRN	??1exception@std@@UAE@XZ:PROC			; std::exception::~exception
; Function compile flags: /Ogtpy
;	COMDAT ??1bad_alloc@std@@UAE@XZ
_TEXT	SEGMENT
??1bad_alloc@std@@UAE@XZ PROC				; std::bad_alloc::~bad_alloc, COMDAT
; _this$ = ecx

; 380  : 		{	// destroy the object

  00000	c7 01 00 00 00
	00		 mov	 DWORD PTR [ecx], OFFSET ??_7bad_alloc@std@@6B@

; 381  : 		}

  00006	e9 00 00 00 00	 jmp	 ??1exception@std@@UAE@XZ ; std::exception::~exception
??1bad_alloc@std@@UAE@XZ ENDP				; std::bad_alloc::~bad_alloc
_TEXT	ENDS
EXTRN	??3@YAXPAX@Z:PROC				; operator delete
; Function compile flags: /Ogtpy
;	COMDAT ??_Gbad_alloc@std@@UAEPAXI@Z
_TEXT	SEGMENT
___flags$ = 8						; size = 4
??_Gbad_alloc@std@@UAEPAXI@Z PROC			; std::bad_alloc::`scalar deleting destructor', COMDAT
; _this$ = ecx
  00000	56		 push	 esi
  00001	8b f1		 mov	 esi, ecx
  00003	c7 06 00 00 00
	00		 mov	 DWORD PTR [esi], OFFSET ??_7bad_alloc@std@@6B@
  00009	e8 00 00 00 00	 call	 ??1exception@std@@UAE@XZ ; std::exception::~exception
  0000e	f6 44 24 08 01	 test	 BYTE PTR ___flags$[esp], 1
  00013	74 09		 je	 SHORT $LN6@scalar
  00015	56		 push	 esi
  00016	e8 00 00 00 00	 call	 ??3@YAXPAX@Z		; operator delete
  0001b	83 c4 04	 add	 esp, 4
$LN6@scalar:
  0001e	8b c6		 mov	 eax, esi
  00020	5e		 pop	 esi
  00021	c2 04 00	 ret	 4
??_Gbad_alloc@std@@UAEPAXI@Z ENDP			; std::bad_alloc::`scalar deleting destructor'
_TEXT	ENDS
PUBLIC	??2@YAPAXIPAX@Z					; operator new
; Function compile flags: /Ogtpy
; File c:\program files (x86)\microsoft visual studio 9.0\vc\include\new
;	COMDAT ??2@YAPAXIPAX@Z
_TEXT	SEGMENT
___formal$ = 8						; size = 4
__Where$ = 12						; size = 4
??2@YAPAXIPAX@Z PROC					; operator new, COMDAT

; 59   : 	return (_Where);

  00000	8b 44 24 08	 mov	 eax, DWORD PTR __Where$[esp-4]

; 60   : 	}

  00004	c3		 ret	 0
??2@YAPAXIPAX@Z ENDP					; operator new
_TEXT	ENDS
PUBLIC	??3@YAXPAX0@Z					; operator delete
; Function compile flags: /Ogtpy
;	COMDAT ??3@YAXPAX0@Z
_TEXT	SEGMENT
___formal$ = 8						; size = 4
___formal$ = 12						; size = 4
??3@YAXPAX0@Z PROC					; operator delete, COMDAT

; 64   : 	}

  00000	c3		 ret	 0
??3@YAXPAX0@Z ENDP					; operator delete
_TEXT	ENDS
PUBLIC	_wmemcpy_s
EXTRN	_memcpy_s:PROC
; Function compile flags: /Ogtpy
; File c:\program files (x86)\microsoft visual studio 9.0\vc\include\wchar.h
;	COMDAT _wmemcpy_s
_TEXT	SEGMENT
__S1$ = 8						; size = 4
__N1$ = 12						; size = 4
__S2$ = 16						; size = 4
__N$ = 20						; size = 4
_wmemcpy_s PROC						; COMDAT

; 1232 : #pragma warning( push )
; 1233 : #pragma warning( disable : 6386 )
; 1234 :             return memcpy_s(_S1, _N1*sizeof(wchar_t), _S2, _N*sizeof(wchar_t));

  00000	8b 44 24 10	 mov	 eax, DWORD PTR __N$[esp-4]
  00004	8d 0c 00	 lea	 ecx, DWORD PTR [eax+eax]
  00007	89 4c 24 10	 mov	 DWORD PTR __N$[esp-4], ecx
  0000b	8b 44 24 08	 mov	 eax, DWORD PTR __N1$[esp-4]
  0000f	8d 0c 00	 lea	 ecx, DWORD PTR [eax+eax]
  00012	89 4c 24 08	 mov	 DWORD PTR __N1$[esp-4], ecx
  00016	e9 00 00 00 00	 jmp	 _memcpy_s
_wmemcpy_s ENDP
_TEXT	ENDS
PUBLIC	_wmemmove_s
EXTRN	_memmove_s:PROC
; Function compile flags: /Ogtpy
;	COMDAT _wmemmove_s
_TEXT	SEGMENT
__S1$ = 8						; size = 4
__N1$ = 12						; size = 4
__S2$ = 16						; size = 4
__N$ = 20						; size = 4
_wmemmove_s PROC					; COMDAT

; 1252 : #pragma warning( push )
; 1253 : #pragma warning( disable : 6386 )
; 1254 :             return memmove_s(_S1, _N1*sizeof(wchar_t), _S2, _N*sizeof(wchar_t));

  00000	8b 44 24 10	 mov	 eax, DWORD PTR __N$[esp-4]
  00004	8d 0c 00	 lea	 ecx, DWORD PTR [eax+eax]
  00007	89 4c 24 10	 mov	 DWORD PTR __N$[esp-4], ecx
  0000b	8b 44 24 08	 mov	 eax, DWORD PTR __N1$[esp-4]
  0000f	8d 0c 00	 lea	 ecx, DWORD PTR [eax+eax]
  00012	89 4c 24 08	 mov	 DWORD PTR __N1$[esp-4], ecx
  00016	e9 00 00 00 00	 jmp	 _memmove_s
_wmemmove_s ENDP
_TEXT	ENDS
PUBLIC	?assign@?$char_traits@_W@std@@SAXAA_WAB_W@Z	; std::char_traits<wchar_t>::assign
; Function compile flags: /Ogtpy
; File c:\program files (x86)\microsoft visual studio 9.0\vc\include\iosfwd
;	COMDAT ?assign@?$char_traits@_W@std@@SAXAA_WAB_W@Z
_TEXT	SEGMENT
__Left$ = 8						; size = 4
__Right$ = 12						; size = 4
?assign@?$char_traits@_W@std@@SAXAA_WAB_W@Z PROC	; std::char_traits<wchar_t>::assign, COMDAT

; 310  : 		_Left = _Right;

  00000	8b 44 24 08	 mov	 eax, DWORD PTR __Right$[esp-4]
  00004	66 8b 08	 mov	 cx, WORD PTR [eax]
  00007	8b 54 24 04	 mov	 edx, DWORD PTR __Left$[esp-4]
  0000b	66 89 0a	 mov	 WORD PTR [edx], cx

; 311  : 		}

  0000e	c3		 ret	 0
?assign@?$char_traits@_W@std@@SAXAA_WAB_W@Z ENDP	; std::char_traits<wchar_t>::assign
_TEXT	ENDS
PUBLIC	?length@?$char_traits@_W@std@@SAIPB_W@Z		; std::char_traits<wchar_t>::length
; Function compile flags: /Ogtpy
;	COMDAT ?length@?$char_traits@_W@std@@SAIPB_W@Z
_TEXT	SEGMENT
__First$ = 8						; size = 4
?length@?$char_traits@_W@std@@SAIPB_W@Z PROC		; std::char_traits<wchar_t>::length, COMDAT

; 333  : //		_DEBUG_POINTER(_First);
; 334  : 		return (::wcslen(_First));

  00000	8b 44 24 04	 mov	 eax, DWORD PTR __First$[esp-4]
  00004	8d 50 02	 lea	 edx, DWORD PTR [eax+2]
$LL3@length:
  00007	66 8b 08	 mov	 cx, WORD PTR [eax]
  0000a	83 c0 02	 add	 eax, 2
  0000d	66 85 c9	 test	 cx, cx
  00010	75 f5		 jne	 SHORT $LL3@length
  00012	2b c2		 sub	 eax, edx
  00014	d1 f8		 sar	 eax, 1

; 335  : 		}

  00016	c3		 ret	 0
?length@?$char_traits@_W@std@@SAIPB_W@Z ENDP		; std::char_traits<wchar_t>::length
_TEXT	ENDS
PUBLIC	?_Copy_s@?$char_traits@_W@std@@SAPA_WPA_WIPB_WI@Z ; std::char_traits<wchar_t>::_Copy_s
; Function compile flags: /Ogtpy
;	COMDAT ?_Copy_s@?$char_traits@_W@std@@SAPA_WPA_WIPB_WI@Z
_TEXT	SEGMENT
__First1$ = 8						; size = 4
__Size_in_words$ = 12					; size = 4
__First2$ = 16						; size = 4
__Count$ = 20						; size = 4
?_Copy_s@?$char_traits@_W@std@@SAPA_WPA_WIPB_WI@Z PROC	; std::char_traits<wchar_t>::_Copy_s, COMDAT

; 348  : //		_DEBUG_POINTER(_First1);
; 349  : //		_DEBUG_POINTER(_First2);
; 350  : 		_CRT_SECURE_WMEMCPY(_First1, _Size_in_words, _First2, _Count);

  00000	8b 44 24 10	 mov	 eax, DWORD PTR __Count$[esp-4]
  00004	8b 54 24 0c	 mov	 edx, DWORD PTR __First2$[esp-4]
  00008	56		 push	 esi
  00009	8b 74 24 08	 mov	 esi, DWORD PTR __First1$[esp]
  0000d	8d 0c 00	 lea	 ecx, DWORD PTR [eax+eax]
  00010	8b 44 24 0c	 mov	 eax, DWORD PTR __Size_in_words$[esp]
  00014	51		 push	 ecx
  00015	52		 push	 edx
  00016	8d 0c 00	 lea	 ecx, DWORD PTR [eax+eax]
  00019	51		 push	 ecx
  0001a	56		 push	 esi
  0001b	e8 00 00 00 00	 call	 _memcpy_s
  00020	83 c4 10	 add	 esp, 16			; 00000010H

; 351  : 		return _First1;

  00023	8b c6		 mov	 eax, esi
  00025	5e		 pop	 esi

; 352  : 		}

  00026	c3		 ret	 0
?_Copy_s@?$char_traits@_W@std@@SAPA_WPA_WIPB_WI@Z ENDP	; std::char_traits<wchar_t>::_Copy_s
_TEXT	ENDS
PUBLIC	?_Move_s@?$char_traits@_W@std@@SAPA_WPA_WIPB_WI@Z ; std::char_traits<wchar_t>::_Move_s
; Function compile flags: /Ogtpy
;	COMDAT ?_Move_s@?$char_traits@_W@std@@SAPA_WPA_WIPB_WI@Z
_TEXT	SEGMENT
__First1$ = 8						; size = 4
__Size_in_words$ = 12					; size = 4
__First2$ = 16						; size = 4
__Count$ = 20						; size = 4
?_Move_s@?$char_traits@_W@std@@SAPA_WPA_WIPB_WI@Z PROC	; std::char_traits<wchar_t>::_Move_s, COMDAT

; 372  : //		_DEBUG_POINTER(_First1);
; 373  : //		_DEBUG_POINTER(_First2);
; 374  : 		_CRT_SECURE_WMEMMOVE(_First1, _Size_in_words, _First2, _Count);

  00000	8b 44 24 10	 mov	 eax, DWORD PTR __Count$[esp-4]
  00004	8b 54 24 0c	 mov	 edx, DWORD PTR __First2$[esp-4]
  00008	56		 push	 esi
  00009	8b 74 24 08	 mov	 esi, DWORD PTR __First1$[esp]
  0000d	8d 0c 00	 lea	 ecx, DWORD PTR [eax+eax]
  00010	8b 44 24 0c	 mov	 eax, DWORD PTR __Size_in_words$[esp]
  00014	51		 push	 ecx
  00015	52		 push	 edx
  00016	8d 0c 00	 lea	 ecx, DWORD PTR [eax+eax]
  00019	51		 push	 ecx
  0001a	56		 push	 esi
  0001b	e8 00 00 00 00	 call	 _memmove_s
  00020	83 c4 10	 add	 esp, 16			; 00000010H

; 375  : 		return (_Elem *)_First1;

  00023	8b c6		 mov	 eax, esi
  00025	5e		 pop	 esi

; 376  : 		}

  00026	c3		 ret	 0
?_Move_s@?$char_traits@_W@std@@SAPA_WPA_WIPB_WI@Z ENDP	; std::char_traits<wchar_t>::_Move_s
_TEXT	ENDS
PUBLIC	?assign@?$char_traits@D@std@@SAXAADABD@Z	; std::char_traits<char>::assign
; Function compile flags: /Ogtpy
;	COMDAT ?assign@?$char_traits@D@std@@SAXAADABD@Z
_TEXT	SEGMENT
__Left$ = 8						; size = 4
__Right$ = 12						; size = 4
?assign@?$char_traits@D@std@@SAXAADABD@Z PROC		; std::char_traits<char>::assign, COMDAT

; 425  : 		_Left = _Right;

  00000	8b 44 24 08	 mov	 eax, DWORD PTR __Right$[esp-4]
  00004	8a 08		 mov	 cl, BYTE PTR [eax]
  00006	8b 54 24 04	 mov	 edx, DWORD PTR __Left$[esp-4]
  0000a	88 0a		 mov	 BYTE PTR [edx], cl

; 426  : 		}

  0000c	c3		 ret	 0
?assign@?$char_traits@D@std@@SAXAADABD@Z ENDP		; std::char_traits<char>::assign
_TEXT	ENDS
PUBLIC	?eq@?$char_traits@D@std@@SA_NABD0@Z		; std::char_traits<char>::eq
; Function compile flags: /Ogtpy
;	COMDAT ?eq@?$char_traits@D@std@@SA_NABD0@Z
_TEXT	SEGMENT
__Left$ = 8						; size = 4
__Right$ = 12						; size = 4
?eq@?$char_traits@D@std@@SA_NABD0@Z PROC		; std::char_traits<char>::eq, COMDAT

; 430  : 		return (_Left == _Right);

  00000	8b 44 24 04	 mov	 eax, DWORD PTR __Left$[esp-4]
  00004	8a 08		 mov	 cl, BYTE PTR [eax]
  00006	8b 54 24 08	 mov	 edx, DWORD PTR __Right$[esp-4]
  0000a	33 c0		 xor	 eax, eax
  0000c	3a 0a		 cmp	 cl, BYTE PTR [edx]
  0000e	0f 94 c0	 sete	 al

; 431  : 		}

  00011	c3		 ret	 0
?eq@?$char_traits@D@std@@SA_NABD0@Z ENDP		; std::char_traits<char>::eq
_TEXT	ENDS
PUBLIC	?compare@?$char_traits@D@std@@SAHPBD0I@Z	; std::char_traits<char>::compare
; Function compile flags: /Ogtpy
;	COMDAT ?compare@?$char_traits@D@std@@SAHPBD0I@Z
_TEXT	SEGMENT
__First1$ = 8						; size = 4
__First2$ = 12						; size = 4
__Count$ = 16						; size = 4
?compare@?$char_traits@D@std@@SAHPBD0I@Z PROC		; std::char_traits<char>::compare, COMDAT

; 441  : //		_DEBUG_POINTER(_First1);
; 442  : //		_DEBUG_POINTER(_First2);
; 443  : 		return (::memcmp(_First1, _First2, _Count));

  00000	8b 4c 24 08	 mov	 ecx, DWORD PTR __First2$[esp-4]
  00004	8b 54 24 04	 mov	 edx, DWORD PTR __First1$[esp-4]
  00008	56		 push	 esi
  00009	8b 74 24 10	 mov	 esi, DWORD PTR __Count$[esp]
  0000d	57		 push	 edi
  0000e	83 fe 04	 cmp	 esi, 4
  00011	72 14		 jb	 SHORT $LN11@compare
$LL4@compare:
  00013	8b 02		 mov	 eax, DWORD PTR [edx]
  00015	3b 01		 cmp	 eax, DWORD PTR [ecx]
  00017	75 12		 jne	 SHORT $LN5@compare
  00019	83 ee 04	 sub	 esi, 4
  0001c	83 c1 04	 add	 ecx, 4
  0001f	83 c2 04	 add	 edx, 4
  00022	83 fe 04	 cmp	 esi, 4
  00025	73 ec		 jae	 SHORT $LL4@compare
$LN11@compare:
  00027	85 f6		 test	 esi, esi
  00029	74 44		 je	 SHORT $LN6@compare
$LN5@compare:
  0002b	0f b6 02	 movzx	 eax, BYTE PTR [edx]
  0002e	0f b6 39	 movzx	 edi, BYTE PTR [ecx]
  00031	2b c7		 sub	 eax, edi
  00033	75 31		 jne	 SHORT $LN7@compare
  00035	83 fe 01	 cmp	 esi, 1
  00038	76 35		 jbe	 SHORT $LN6@compare
  0003a	0f b6 42 01	 movzx	 eax, BYTE PTR [edx+1]
  0003e	0f b6 79 01	 movzx	 edi, BYTE PTR [ecx+1]
  00042	2b c7		 sub	 eax, edi
  00044	75 20		 jne	 SHORT $LN7@compare
  00046	83 fe 02	 cmp	 esi, 2
  00049	76 24		 jbe	 SHORT $LN6@compare
  0004b	0f b6 42 02	 movzx	 eax, BYTE PTR [edx+2]
  0004f	0f b6 79 02	 movzx	 edi, BYTE PTR [ecx+2]
  00053	2b c7		 sub	 eax, edi
  00055	75 0f		 jne	 SHORT $LN7@compare
  00057	83 fe 03	 cmp	 esi, 3
  0005a	76 13		 jbe	 SHORT $LN6@compare
  0005c	0f b6 42 03	 movzx	 eax, BYTE PTR [edx+3]
  00060	0f b6 49 03	 movzx	 ecx, BYTE PTR [ecx+3]
  00064	2b c1		 sub	 eax, ecx
$LN7@compare:
  00066	c1 f8 1f	 sar	 eax, 31			; 0000001fH
  00069	5f		 pop	 edi
  0006a	83 c8 01	 or	 eax, 1
  0006d	5e		 pop	 esi

; 444  : 		}

  0006e	c3		 ret	 0
$LN6@compare:
  0006f	5f		 pop	 edi

; 441  : //		_DEBUG_POINTER(_First1);
; 442  : //		_DEBUG_POINTER(_First2);
; 443  : 		return (::memcmp(_First1, _First2, _Count));

  00070	33 c0		 xor	 eax, eax
  00072	5e		 pop	 esi

; 444  : 		}

  00073	c3		 ret	 0
?compare@?$char_traits@D@std@@SAHPBD0I@Z ENDP		; std::char_traits<char>::compare
_TEXT	ENDS
PUBLIC	?length@?$char_traits@D@std@@SAIPBD@Z		; std::char_traits<char>::length
; Function compile flags: /Ogtpy
;	COMDAT ?length@?$char_traits@D@std@@SAIPBD@Z
_TEXT	SEGMENT
__First$ = 8						; size = 4
?length@?$char_traits@D@std@@SAIPBD@Z PROC		; std::char_traits<char>::length, COMDAT

; 448  : //		_DEBUG_POINTER(_First);
; 449  : 		return (::strlen(_First));

  00000	8b 44 24 04	 mov	 eax, DWORD PTR __First$[esp-4]
  00004	8d 50 01	 lea	 edx, DWORD PTR [eax+1]
$LL3@length@2:
  00007	8a 08		 mov	 cl, BYTE PTR [eax]
  00009	40		 inc	 eax
  0000a	84 c9		 test	 cl, cl
  0000c	75 f9		 jne	 SHORT $LL3@length@2
  0000e	2b c2		 sub	 eax, edx

; 450  : 		}

  00010	c3		 ret	 0
?length@?$char_traits@D@std@@SAIPBD@Z ENDP		; std::char_traits<char>::length
_TEXT	ENDS
PUBLIC	?_Copy_s@?$char_traits@D@std@@SAPADPADIPBDI@Z	; std::char_traits<char>::_Copy_s
; Function compile flags: /Ogtpy
;	COMDAT ?_Copy_s@?$char_traits@D@std@@SAPADPADIPBDI@Z
_TEXT	SEGMENT
__First1$ = 8						; size = 4
__Size_in_bytes$ = 12					; size = 4
__First2$ = 16						; size = 4
__Count$ = 20						; size = 4
?_Copy_s@?$char_traits@D@std@@SAPADPADIPBDI@Z PROC	; std::char_traits<char>::_Copy_s, COMDAT

; 463  : //		_DEBUG_POINTER(_First1);
; 464  : //		_DEBUG_POINTER(_First2);
; 465  : 		_CRT_SECURE_MEMCPY(_First1, _Size_in_bytes, _First2, _Count);

  00000	8b 44 24 10	 mov	 eax, DWORD PTR __Count$[esp-4]
  00004	8b 4c 24 0c	 mov	 ecx, DWORD PTR __First2$[esp-4]
  00008	8b 54 24 08	 mov	 edx, DWORD PTR __Size_in_bytes$[esp-4]
  0000c	56		 push	 esi
  0000d	8b 74 24 08	 mov	 esi, DWORD PTR __First1$[esp]
  00011	50		 push	 eax
  00012	51		 push	 ecx
  00013	52		 push	 edx
  00014	56		 push	 esi
  00015	e8 00 00 00 00	 call	 _memcpy_s
  0001a	83 c4 10	 add	 esp, 16			; 00000010H

; 466  : 		return _First1;

  0001d	8b c6		 mov	 eax, esi
  0001f	5e		 pop	 esi

; 467  : 		}

  00020	c3		 ret	 0
?_Copy_s@?$char_traits@D@std@@SAPADPADIPBDI@Z ENDP	; std::char_traits<char>::_Copy_s
_TEXT	ENDS
PUBLIC	?find@?$char_traits@D@std@@SAPBDPBDIABD@Z	; std::char_traits<char>::find
EXTRN	_memchr:PROC
; Function compile flags: /Ogtpy
;	COMDAT ?find@?$char_traits@D@std@@SAPBDPBDIABD@Z
_TEXT	SEGMENT
__First$ = 8						; size = 4
__Count$ = 12						; size = 4
__Ch$ = 16						; size = 4
?find@?$char_traits@D@std@@SAPBDPBDIABD@Z PROC		; std::char_traits<char>::find, COMDAT

; 472  : //		_DEBUG_POINTER(_First);
; 473  : 		return ((const _Elem *)::memchr(_First, _Ch, _Count));

  00000	8b 4c 24 0c	 mov	 ecx, DWORD PTR __Ch$[esp-4]
  00004	8b 44 24 08	 mov	 eax, DWORD PTR __Count$[esp-4]
  00008	0f be 11	 movsx	 edx, BYTE PTR [ecx]
  0000b	50		 push	 eax
  0000c	8b 44 24 08	 mov	 eax, DWORD PTR __First$[esp]
  00010	52		 push	 edx
  00011	50		 push	 eax
  00012	e8 00 00 00 00	 call	 _memchr
  00017	83 c4 0c	 add	 esp, 12			; 0000000cH

; 474  : 		}

  0001a	c3		 ret	 0
?find@?$char_traits@D@std@@SAPBDPBDIABD@Z ENDP		; std::char_traits<char>::find
_TEXT	ENDS
PUBLIC	?_Move_s@?$char_traits@D@std@@SAPADPADIPBDI@Z	; std::char_traits<char>::_Move_s
; Function compile flags: /Ogtpy
;	COMDAT ?_Move_s@?$char_traits@D@std@@SAPADPADIPBDI@Z
_TEXT	SEGMENT
__First1$ = 8						; size = 4
__Size_in_bytes$ = 12					; size = 4
__First2$ = 16						; size = 4
__Count$ = 20						; size = 4
?_Move_s@?$char_traits@D@std@@SAPADPADIPBDI@Z PROC	; std::char_traits<char>::_Move_s, COMDAT

; 487  : //		_DEBUG_POINTER(_First1);
; 488  : //		_DEBUG_POINTER(_First2);
; 489  : 		_CRT_SECURE_MEMMOVE(_First1, _Size_in_bytes, _First2, _Count);

  00000	8b 44 24 10	 mov	 eax, DWORD PTR __Count$[esp-4]
  00004	8b 4c 24 0c	 mov	 ecx, DWORD PTR __First2$[esp-4]
  00008	8b 54 24 08	 mov	 edx, DWORD PTR __Size_in_bytes$[esp-4]
  0000c	56		 push	 esi
  0000d	8b 74 24 08	 mov	 esi, DWORD PTR __First1$[esp]
  00011	50		 push	 eax
  00012	51		 push	 ecx
  00013	52		 push	 edx
  00014	56		 push	 esi
  00015	e8 00 00 00 00	 call	 _memmove_s
  0001a	83 c4 10	 add	 esp, 16			; 00000010H

; 490  : 		return _First1;

  0001d	8b c6		 mov	 eax, esi
  0001f	5e		 pop	 esi

; 491  : 		}

  00020	c3		 ret	 0
?_Move_s@?$char_traits@D@std@@SAPADPADIPBDI@Z ENDP	; std::char_traits<char>::_Move_s
_TEXT	ENDS
PUBLIC	??0_Aux_cont@std@@QAE@QBV_Container_base_aux@1@@Z ; std::_Aux_cont::_Aux_cont
; Function compile flags: /Ogtpy
; File c:\program files (x86)\microsoft visual studio 9.0\vc\include\xutility
;	COMDAT ??0_Aux_cont@std@@QAE@QBV_Container_base_aux@1@@Z
_TEXT	SEGMENT
__Pcont$ = 8						; size = 4
??0_Aux_cont@std@@QAE@QBV_Container_base_aux@1@@Z PROC	; std::_Aux_cont::_Aux_cont, COMDAT
; _this$ = ecx

; 364  : 	explicit _Aux_cont(const _Container_base_aux * const _Pcont)

  00000	8b c1		 mov	 eax, ecx
  00002	8b 4c 24 04	 mov	 ecx, DWORD PTR __Pcont$[esp-4]
  00006	89 08		 mov	 DWORD PTR [eax], ecx
  00008	c2 04 00	 ret	 4
??0_Aux_cont@std@@QAE@QBV_Container_base_aux@1@@Z ENDP	; std::_Aux_cont::_Aux_cont
_TEXT	ENDS
PUBLIC	?_Getcont@_Aux_cont@std@@QBEPBV_Container_base_aux@2@XZ ; std::_Aux_cont::_Getcont
; Function compile flags: /Ogtpy
;	COMDAT ?_Getcont@_Aux_cont@std@@QBEPBV_Container_base_aux@2@XZ
_TEXT	SEGMENT
?_Getcont@_Aux_cont@std@@QBEPBV_Container_base_aux@2@XZ PROC ; std::_Aux_cont::_Getcont, COMDAT
; _this$ = ecx

; 369  : 		return _Mycontainer;

  00000	8b 01		 mov	 eax, DWORD PTR [ecx]

; 370  : 		}

  00002	c3		 ret	 0
?_Getcont@_Aux_cont@std@@QBEPBV_Container_base_aux@2@XZ ENDP ; std::_Aux_cont::_Getcont
_TEXT	ENDS
PUBLIC	??0_Container_base_aux@std@@QAE@XZ		; std::_Container_base_aux::_Container_base_aux
; Function compile flags: /Ogtpy
;	COMDAT ??0_Container_base_aux@std@@QAE@XZ
_TEXT	SEGMENT
??0_Container_base_aux@std@@QAE@XZ PROC			; std::_Container_base_aux::_Container_base_aux, COMDAT
; _this$ = ecx

; 379  : 	_Container_base_aux()

  00000	8b c1		 mov	 eax, ecx

; 380  : 		{
; 381  : 		// Do nothing: _Container_base_aux_alloc_real() will construct the aux object.
; 382  : 		}

  00002	c3		 ret	 0
??0_Container_base_aux@std@@QAE@XZ ENDP			; std::_Container_base_aux::_Container_base_aux
_TEXT	ENDS
PUBLIC	??1_Container_base_aux@std@@QAE@XZ		; std::_Container_base_aux::~_Container_base_aux
; Function compile flags: /Ogtpy
;	COMDAT ??1_Container_base_aux@std@@QAE@XZ
_TEXT	SEGMENT
??1_Container_base_aux@std@@QAE@XZ PROC			; std::_Container_base_aux::~_Container_base_aux, COMDAT
; _this$ = ecx

; 403  : 		// Do nothing: ~_Container_base_aux_alloc_real() previously destroyed the aux object.
; 404  : 		}

  00000	c3		 ret	 0
??1_Container_base_aux@std@@QAE@XZ ENDP			; std::_Container_base_aux::~_Container_base_aux
_TEXT	ENDS
PUBLIC	??0_Iterator_base_aux@std@@QAE@XZ		; std::_Iterator_base_aux::_Iterator_base_aux
; Function compile flags: /Ogtpy
;	COMDAT ??0_Iterator_base_aux@std@@QAE@XZ
_TEXT	SEGMENT
??0_Iterator_base_aux@std@@QAE@XZ PROC			; std::_Iterator_base_aux::_Iterator_base_aux, COMDAT
; _this$ = ecx

; 448  : 	_Iterator_base_aux()

  00000	8b c1		 mov	 eax, ecx
  00002	c7 00 00 00 00
	00		 mov	 DWORD PTR [eax], 0
  00008	c3		 ret	 0
??0_Iterator_base_aux@std@@QAE@XZ ENDP			; std::_Iterator_base_aux::_Iterator_base_aux
_TEXT	ENDS
PUBLIC	?_Set_container@_Iterator_base_aux@std@@QAEXQBV_Container_base_aux@2@@Z ; std::_Iterator_base_aux::_Set_container
; Function compile flags: /Ogtpy
;	COMDAT ?_Set_container@_Iterator_base_aux@std@@QAEXQBV_Container_base_aux@2@@Z
_TEXT	SEGMENT
__Pcont$ = 8						; size = 4
?_Set_container@_Iterator_base_aux@std@@QAEXQBV_Container_base_aux@2@@Z PROC ; std::_Iterator_base_aux::_Set_container, COMDAT
; _this$ = ecx

; 453  : 		_Myaux = _Pcont->_Myownedaux;

  00000	8b 44 24 04	 mov	 eax, DWORD PTR __Pcont$[esp-4]
  00004	8b 10		 mov	 edx, DWORD PTR [eax]
  00006	89 11		 mov	 DWORD PTR [ecx], edx

; 454  : 		}

  00008	c2 04 00	 ret	 4
?_Set_container@_Iterator_base_aux@std@@QAEXQBV_Container_base_aux@2@@Z ENDP ; std::_Iterator_base_aux::_Set_container
_TEXT	ENDS
PUBLIC	?_Getmycont@_Iterator_base_aux@std@@QBEPBV_Container_base_aux@2@XZ ; std::_Iterator_base_aux::_Getmycont
; Function compile flags: /Ogtpy
;	COMDAT ?_Getmycont@_Iterator_base_aux@std@@QBEPBV_Container_base_aux@2@XZ
_TEXT	SEGMENT
?_Getmycont@_Iterator_base_aux@std@@QBEPBV_Container_base_aux@2@XZ PROC ; std::_Iterator_base_aux::_Getmycont, COMDAT
; _this$ = ecx

; 458  : 		return _Myaux ? _Myaux->_Getcont() : 0;

  00000	8b 01		 mov	 eax, DWORD PTR [ecx]
  00002	85 c0		 test	 eax, eax
  00004	74 03		 je	 SHORT $LN3@Getmycont
  00006	8b 00		 mov	 eax, DWORD PTR [eax]

; 459  : 		}

  00008	c3		 ret	 0
$LN3@Getmycont:

; 458  : 		return _Myaux ? _Myaux->_Getcont() : 0;

  00009	33 c0		 xor	 eax, eax

; 459  : 		}

  0000b	c3		 ret	 0
?_Getmycont@_Iterator_base_aux@std@@QBEPBV_Container_base_aux@2@XZ ENDP ; std::_Iterator_base_aux::_Getmycont
_TEXT	ENDS
PUBLIC	?_Same_container@_Iterator_base_aux@std@@QBE_NABV12@@Z ; std::_Iterator_base_aux::_Same_container
; Function compile flags: /Ogtpy
;	COMDAT ?_Same_container@_Iterator_base_aux@std@@QBE_NABV12@@Z
_TEXT	SEGMENT
__Other$ = 8						; size = 4
?_Same_container@_Iterator_base_aux@std@@QBE_NABV12@@Z PROC ; std::_Iterator_base_aux::_Same_container, COMDAT
; _this$ = ecx

; 463  : 		return _Myaux == _Other._Myaux;

  00000	8b 01		 mov	 eax, DWORD PTR [ecx]
  00002	8b 54 24 04	 mov	 edx, DWORD PTR __Other$[esp-4]
  00006	33 c9		 xor	 ecx, ecx
  00008	3b 02		 cmp	 eax, DWORD PTR [edx]
  0000a	0f 94 c1	 sete	 cl
  0000d	8a c1		 mov	 al, cl

; 464  : 		}

  0000f	c2 04 00	 ret	 4
?_Same_container@_Iterator_base_aux@std@@QBE_NABV12@@Z ENDP ; std::_Iterator_base_aux::_Same_container
_TEXT	ENDS
PUBLIC	?_Has_container@_Iterator_base_aux@std@@QBE_NXZ	; std::_Iterator_base_aux::_Has_container
; Function compile flags: /Ogtpy
;	COMDAT ?_Has_container@_Iterator_base_aux@std@@QBE_NXZ
_TEXT	SEGMENT
?_Has_container@_Iterator_base_aux@std@@QBE_NXZ PROC	; std::_Iterator_base_aux::_Has_container, COMDAT
; _this$ = ecx

; 468  : 		return _Myaux != 0;

  00000	33 c0		 xor	 eax, eax
  00002	39 01		 cmp	 DWORD PTR [ecx], eax
  00004	0f 95 c0	 setne	 al

; 469  : 		}

  00007	c3		 ret	 0
?_Has_container@_Iterator_base_aux@std@@QBE_NXZ ENDP	; std::_Iterator_base_aux::_Has_container
_TEXT	ENDS
PUBLIC	??0_Iterator_base_secure@std@@QAE@XZ		; std::_Iterator_base_secure::_Iterator_base_secure
; Function compile flags: /Ogtpy
;	COMDAT ??0_Iterator_base_secure@std@@QAE@XZ
_TEXT	SEGMENT
??0_Iterator_base_secure@std@@QAE@XZ PROC		; std::_Iterator_base_secure::_Iterator_base_secure, COMDAT
; _this$ = ecx

; 567  : 		{

  00000	8b c1		 mov	 eax, ecx
  00002	c7 00 00 00 00
	00		 mov	 DWORD PTR [eax], 0

; 568  : 		}

  00008	c3		 ret	 0
??0_Iterator_base_secure@std@@QAE@XZ ENDP		; std::_Iterator_base_secure::_Iterator_base_secure
_TEXT	ENDS
PUBLIC	?_Same_container@_Iterator_base_secure@std@@QBE_NABV12@@Z ; std::_Iterator_base_secure::_Same_container
; Function compile flags: /Ogtpy
;	COMDAT ?_Same_container@_Iterator_base_secure@std@@QBE_NABV12@@Z
_TEXT	SEGMENT
__Other$ = 8						; size = 4
?_Same_container@_Iterator_base_secure@std@@QBE_NABV12@@Z PROC ; std::_Iterator_base_secure::_Same_container, COMDAT
; _this$ = ecx

; 577  : 		return _Mycont == _Other._Mycont;

  00000	8b 01		 mov	 eax, DWORD PTR [ecx]
  00002	8b 54 24 04	 mov	 edx, DWORD PTR __Other$[esp-4]
  00006	33 c9		 xor	 ecx, ecx
  00008	3b 02		 cmp	 eax, DWORD PTR [edx]
  0000a	0f 94 c1	 sete	 cl
  0000d	8a c1		 mov	 al, cl

; 578  : 		}

  0000f	c2 04 00	 ret	 4
?_Same_container@_Iterator_base_secure@std@@QBE_NABV12@@Z ENDP ; std::_Iterator_base_secure::_Same_container
_TEXT	ENDS
PUBLIC	?_Has_container@_Iterator_base_secure@std@@QBE_NXZ ; std::_Iterator_base_secure::_Has_container
; Function compile flags: /Ogtpy
;	COMDAT ?_Has_container@_Iterator_base_secure@std@@QBE_NXZ
_TEXT	SEGMENT
?_Has_container@_Iterator_base_secure@std@@QBE_NXZ PROC	; std::_Iterator_base_secure::_Has_container, COMDAT
; _this$ = ecx

; 582  : 		return _Mycont != 0;

  00000	33 c0		 xor	 eax, eax
  00002	39 01		 cmp	 DWORD PTR [ecx], eax
  00004	0f 95 c0	 setne	 al

; 583  : 		}

  00007	c3		 ret	 0
?_Has_container@_Iterator_base_secure@std@@QBE_NXZ ENDP	; std::_Iterator_base_secure::_Has_container
_TEXT	ENDS
PUBLIC	??_7Container@ForEach@CipherShed@@6B@		; CipherShed::ForEach::Container::`vftable'
PUBLIC	??0Container@ForEach@CipherShed@@QAE@XZ		; CipherShed::ForEach::Container::Container
PUBLIC	??_R4Container@ForEach@CipherShed@@6B@		; CipherShed::ForEach::Container::`RTTI Complete Object Locator'
PUBLIC	??_R0?AUContainer@ForEach@CipherShed@@@8	; CipherShed::ForEach::Container `RTTI Type Descriptor'
PUBLIC	??_R3Container@ForEach@CipherShed@@8		; CipherShed::ForEach::Container::`RTTI Class Hierarchy Descriptor'
PUBLIC	??_R2Container@ForEach@CipherShed@@8		; CipherShed::ForEach::Container::`RTTI Base Class Array'
PUBLIC	??_R1A@?0A@EA@Container@ForEach@CipherShed@@8	; CipherShed::ForEach::Container::`RTTI Base Class Descriptor at (0,-1,0,64)'
EXTRN	??_EContainer@ForEach@CipherShed@@UAEPAXI@Z:PROC ; CipherShed::ForEach::Container::`vector deleting destructor'
EXTRN	__purecall:PROC
;	COMDAT ??_R1A@?0A@EA@Container@ForEach@CipherShed@@8
; File c:\home\public\desktop\projects\ciphershed\src\platform\foreach.h
rdata$r	SEGMENT
??_R1A@?0A@EA@Container@ForEach@CipherShed@@8 DD FLAT:??_R0?AUContainer@ForEach@CipherShed@@@8 ; CipherShed::ForEach::Container::`RTTI Base Class Descriptor at (0,-1,0,64)'
	DD	00H
	DD	00H
	DD	0ffffffffH
	DD	00H
	DD	040H
	DD	FLAT:??_R3Container@ForEach@CipherShed@@8
rdata$r	ENDS
;	COMDAT ??_R2Container@ForEach@CipherShed@@8
rdata$r	SEGMENT
??_R2Container@ForEach@CipherShed@@8 DD FLAT:??_R1A@?0A@EA@Container@ForEach@CipherShed@@8 ; CipherShed::ForEach::Container::`RTTI Base Class Array'
rdata$r	ENDS
;	COMDAT ??_R3Container@ForEach@CipherShed@@8
rdata$r	SEGMENT
??_R3Container@ForEach@CipherShed@@8 DD 00H		; CipherShed::ForEach::Container::`RTTI Class Hierarchy Descriptor'
	DD	00H
	DD	01H
	DD	FLAT:??_R2Container@ForEach@CipherShed@@8
rdata$r	ENDS
;	COMDAT ??_R0?AUContainer@ForEach@CipherShed@@@8
_DATA	SEGMENT
??_R0?AUContainer@ForEach@CipherShed@@@8 DD FLAT:??_7type_info@@6B@ ; CipherShed::ForEach::Container `RTTI Type Descriptor'
	DD	00H
	DB	'.?AUContainer@ForEach@CipherShed@@', 00H
_DATA	ENDS
;	COMDAT ??_R4Container@ForEach@CipherShed@@6B@
rdata$r	SEGMENT
??_R4Container@ForEach@CipherShed@@6B@ DD 00H		; CipherShed::ForEach::Container::`RTTI Complete Object Locator'
	DD	00H
	DD	00H
	DD	FLAT:??_R0?AUContainer@ForEach@CipherShed@@@8
	DD	FLAT:??_R3Container@ForEach@CipherShed@@8
rdata$r	ENDS
;	COMDAT ??_7Container@ForEach@CipherShed@@6B@
CONST	SEGMENT
??_7Container@ForEach@CipherShed@@6B@ DD FLAT:??_R4Container@ForEach@CipherShed@@6B@ ; CipherShed::ForEach::Container::`vftable'
	DD	FLAT:??_EContainer@ForEach@CipherShed@@UAEPAXI@Z
	DD	FLAT:__purecall
	DD	FLAT:__purecall
; Function compile flags: /Ogtpy
CONST	ENDS
;	COMDAT ??0Container@ForEach@CipherShed@@QAE@XZ
_TEXT	SEGMENT
??0Container@ForEach@CipherShed@@QAE@XZ PROC		; CipherShed::ForEach::Container::Container, COMDAT
; _this$ = ecx

; 19   : 			Container () : InnerContinue (true), InnerEndCondition (false) { }

  00000	8b c1		 mov	 eax, ecx
  00002	c7 00 00 00 00
	00		 mov	 DWORD PTR [eax], OFFSET ??_7Container@ForEach@CipherShed@@6B@
  00008	c6 40 04 01	 mov	 BYTE PTR [eax+4], 1
  0000c	c6 40 05 00	 mov	 BYTE PTR [eax+5], 0
  00010	c3		 ret	 0
??0Container@ForEach@CipherShed@@QAE@XZ ENDP		; CipherShed::ForEach::Container::Container
_TEXT	ENDS
PUBLIC	??1Container@ForEach@CipherShed@@UAE@XZ		; CipherShed::ForEach::Container::~Container
; Function compile flags: /Ogtpy
;	COMDAT ??1Container@ForEach@CipherShed@@UAE@XZ
_TEXT	SEGMENT
??1Container@ForEach@CipherShed@@UAE@XZ PROC		; CipherShed::ForEach::Container::~Container, COMDAT
; _this$ = ecx

; 20   : 			virtual ~Container () { }

  00000	c7 01 00 00 00
	00		 mov	 DWORD PTR [ecx], OFFSET ??_7Container@ForEach@CipherShed@@6B@
  00006	c3		 ret	 0
??1Container@ForEach@CipherShed@@UAE@XZ ENDP		; CipherShed::ForEach::Container::~Container
_TEXT	ENDS
PUBLIC	?Continue@Container@ForEach@CipherShed@@QBEXXZ	; CipherShed::ForEach::Container::Continue
; Function compile flags: /Ogtpy
;	COMDAT ?Continue@Container@ForEach@CipherShed@@QBEXXZ
_TEXT	SEGMENT
?Continue@Container@ForEach@CipherShed@@QBEXXZ PROC	; CipherShed::ForEach::Container::Continue, COMDAT
; _this$ = ecx

; 22   : 			void Continue () const { InnerContinue = true; }

  00000	c6 41 04 01	 mov	 BYTE PTR [ecx+4], 1
  00004	c3		 ret	 0
?Continue@Container@ForEach@CipherShed@@QBEXXZ ENDP	; CipherShed::ForEach::Container::Continue
_TEXT	ENDS
PUBLIC	?InnerIsNotEnd@Container@ForEach@CipherShed@@QBE_NXZ ; CipherShed::ForEach::Container::InnerIsNotEnd
; Function compile flags: /Ogtpy
;	COMDAT ?InnerIsNotEnd@Container@ForEach@CipherShed@@QBE_NXZ
_TEXT	SEGMENT
?InnerIsNotEnd@Container@ForEach@CipherShed@@QBE_NXZ PROC ; CipherShed::ForEach::Container::InnerIsNotEnd, COMDAT
; _this$ = ecx

; 23   : 			bool InnerIsNotEnd () const { return InnerEndCondition = !InnerEndCondition; }

  00000	80 79 05 00	 cmp	 BYTE PTR [ecx+5], 0
  00004	0f 94 c0	 sete	 al
  00007	88 41 05	 mov	 BYTE PTR [ecx+5], al
  0000a	c3		 ret	 0
?InnerIsNotEnd@Container@ForEach@CipherShed@@QBE_NXZ ENDP ; CipherShed::ForEach::Container::InnerIsNotEnd
; Function compile flags: /Ogtpy
_TEXT	ENDS
;	COMDAT ??_GContainer@ForEach@CipherShed@@UAEPAXI@Z
_TEXT	SEGMENT
___flags$ = 8						; size = 4
??_GContainer@ForEach@CipherShed@@UAEPAXI@Z PROC	; CipherShed::ForEach::Container::`scalar deleting destructor', COMDAT
; _this$ = ecx
  00000	f6 44 24 04 01	 test	 BYTE PTR ___flags$[esp-4], 1
  00005	56		 push	 esi
  00006	8b f1		 mov	 esi, ecx
  00008	c7 06 00 00 00
	00		 mov	 DWORD PTR [esi], OFFSET ??_7Container@ForEach@CipherShed@@6B@
  0000e	74 09		 je	 SHORT $LN6@scalar@2
  00010	56		 push	 esi
  00011	e8 00 00 00 00	 call	 ??3@YAXPAX@Z		; operator delete
  00016	83 c4 04	 add	 esp, 4
$LN6@scalar@2:
  00019	8b c6		 mov	 eax, esi
  0001b	5e		 pop	 esi
  0001c	c2 04 00	 ret	 4
??_GContainer@ForEach@CipherShed@@UAEPAXI@Z ENDP	; CipherShed::ForEach::Container::`scalar deleting destructor'
_TEXT	ENDS
PUBLIC	??_7Exception@CipherShed@@6B@			; CipherShed::Exception::`vftable'
PUBLIC	??0Exception@CipherShed@@QAE@XZ			; CipherShed::Exception::Exception
PUBLIC	??_R4Exception@CipherShed@@6B@			; CipherShed::Exception::`RTTI Complete Object Locator'
PUBLIC	??_R0?AUException@CipherShed@@@8		; CipherShed::Exception `RTTI Type Descriptor'
PUBLIC	??_R3Exception@CipherShed@@8			; CipherShed::Exception::`RTTI Class Hierarchy Descriptor'
PUBLIC	??_R2Exception@CipherShed@@8			; CipherShed::Exception::`RTTI Base Class Array'
PUBLIC	??_R1A@?0A@EA@Exception@CipherShed@@8		; CipherShed::Exception::`RTTI Base Class Descriptor at (0,-1,0,64)'
;	COMDAT ??_R1A@?0A@EA@Exception@CipherShed@@8
rdata$r	SEGMENT
??_R1A@?0A@EA@Exception@CipherShed@@8 DD FLAT:??_R0?AUException@CipherShed@@@8 ; CipherShed::Exception::`RTTI Base Class Descriptor at (0,-1,0,64)'
	DD	00H
	DD	00H
	DD	0ffffffffH
	DD	00H
	DD	040H
	DD	FLAT:??_R3Exception@CipherShed@@8
rdata$r	ENDS
;	COMDAT ??_R2Exception@CipherShed@@8
rdata$r	SEGMENT
??_R2Exception@CipherShed@@8 DD FLAT:??_R1A@?0A@EA@Exception@CipherShed@@8 ; CipherShed::Exception::`RTTI Base Class Array'
rdata$r	ENDS
;	COMDAT ??_R3Exception@CipherShed@@8
rdata$r	SEGMENT
??_R3Exception@CipherShed@@8 DD 00H			; CipherShed::Exception::`RTTI Class Hierarchy Descriptor'
	DD	00H
	DD	01H
	DD	FLAT:??_R2Exception@CipherShed@@8
rdata$r	ENDS
;	COMDAT ??_R0?AUException@CipherShed@@@8
_DATA	SEGMENT
??_R0?AUException@CipherShed@@@8 DD FLAT:??_7type_info@@6B@ ; CipherShed::Exception `RTTI Type Descriptor'
	DD	00H
	DB	'.?AUException@CipherShed@@', 00H
_DATA	ENDS
;	COMDAT ??_R4Exception@CipherShed@@6B@
rdata$r	SEGMENT
??_R4Exception@CipherShed@@6B@ DD 00H			; CipherShed::Exception::`RTTI Complete Object Locator'
	DD	00H
	DD	00H
	DD	FLAT:??_R0?AUException@CipherShed@@@8
	DD	FLAT:??_R3Exception@CipherShed@@8
rdata$r	ENDS
;	COMDAT ??_7Exception@CipherShed@@6B@
CONST	SEGMENT
??_7Exception@CipherShed@@6B@ DD FLAT:??_R4Exception@CipherShed@@6B@ ; CipherShed::Exception::`vftable'
	DD	FLAT:__purecall
; Function compile flags: /Ogtpy
CONST	ENDS
;	COMDAT ??0Exception@CipherShed@@QAE@XZ
_TEXT	SEGMENT
??0Exception@CipherShed@@QAE@XZ PROC			; CipherShed::Exception::Exception, COMDAT
; _this$ = ecx
  00000	8b c1		 mov	 eax, ecx
  00002	c7 00 00 00 00
	00		 mov	 DWORD PTR [eax], OFFSET ??_7Exception@CipherShed@@6B@
  00008	c3		 ret	 0
??0Exception@CipherShed@@QAE@XZ ENDP			; CipherShed::Exception::Exception
_TEXT	ENDS
PUBLIC	??_C@_0CG@EGPGHNFL@TrueCrypt?5System?5Favorite?5Volume@ ; `string'
EXTRN	_remove:PROC
EXTRN	_GetConfigPath:PROC
;	COMDAT ??_C@_0CG@EGPGHNFL@TrueCrypt?5System?5Favorite?5Volume@
; File c:\home\public\desktop\projects\ciphershed\src\mount\favorites.cpp
CONST	SEGMENT
??_C@_0CG@EGPGHNFL@TrueCrypt?5System?5Favorite?5Volume@ DB 'TrueCrypt Sys'
	DB	'tem Favorite Volumes.xml', 00H		; `string'
; Function compile flags: /Ogtpy
CONST	ENDS
;	COMDAT ??1Finally721@?CA@??SaveFavoriteVolumes@CipherShed@@YA_NABV?$vector@UFavoriteVolume@CipherShed@@V?$allocator@UFavoriteVolume@CipherShed@@@std@@@std@@_N@Z@QAE@XZ
_TEXT	SEGMENT
??1Finally721@?CA@??SaveFavoriteVolumes@CipherShed@@YA_NABV?$vector@UFavoriteVolume@CipherShed@@V?$allocator@UFavoriteVolume@CipherShed@@@std@@@std@@_N@Z@QAE@XZ PROC ; `CipherShed::SaveFavoriteVolumes'::`32'::Finally721::~Finally721, COMDAT

; 721  : 			finally_do ({ remove (GetConfigPath (TC_APPD_FILENAME_SYSTEM_FAVORITE_VOLUMES)); });

  00000	68 00 00 00 00	 push	 OFFSET ??_C@_0CG@EGPGHNFL@TrueCrypt?5System?5Favorite?5Volume@
  00005	e8 00 00 00 00	 call	 _GetConfigPath
  0000a	50		 push	 eax
  0000b	e8 00 00 00 00	 call	 _remove
  00010	83 c4 08	 add	 esp, 8
  00013	c3		 ret	 0
??1Finally721@?CA@??SaveFavoriteVolumes@CipherShed@@YA_NABV?$vector@UFavoriteVolume@CipherShed@@V?$allocator@UFavoriteVolume@CipherShed@@@std@@@std@@_N@Z@QAE@XZ ENDP ; `CipherShed::SaveFavoriteVolumes'::`32'::Finally721::~Finally721
_TEXT	ENDS
PUBLIC	?size@?$basic_string@DU?$char_traits@D@std@@V?$allocator@D@2@@std@@QBEIXZ ; std::basic_string<char,std::char_traits<char>,std::allocator<char> >::size
; Function compile flags: /Ogtpy
; File c:\program files (x86)\microsoft visual studio 9.0\vc\include\xstring
;	COMDAT ?size@?$basic_string@DU?$char_traits@D@std@@V?$allocator@D@2@@std@@QBEIXZ
_TEXT	SEGMENT
?size@?$basic_string@DU?$char_traits@D@std@@V?$allocator@D@2@@std@@QBEIXZ PROC ; std::basic_string<char,std::char_traits<char>,std::allocator<char> >::size, COMDAT
; _this$ = ecx

; 1666 : 		return (_Mysize);

  00000	8b 41 14	 mov	 eax, DWORD PTR [ecx+20]

; 1667 : 		}

  00003	c3		 ret	 0
?size@?$basic_string@DU?$char_traits@D@std@@V?$allocator@D@2@@std@@QBEIXZ ENDP ; std::basic_string<char,std::char_traits<char>,std::allocator<char> >::size
_TEXT	ENDS
PUBLIC	?empty@?$basic_string@DU?$char_traits@D@std@@V?$allocator@D@2@@std@@QBE_NXZ ; std::basic_string<char,std::char_traits<char>,std::allocator<char> >::empty
; Function compile flags: /Ogtpy
;	COMDAT ?empty@?$basic_string@DU?$char_traits@D@std@@V?$allocator@D@2@@std@@QBE_NXZ
_TEXT	SEGMENT
?empty@?$basic_string@DU?$char_traits@D@std@@V?$allocator@D@2@@std@@QBE_NXZ PROC ; std::basic_string<char,std::char_traits<char>,std::allocator<char> >::empty, COMDAT
; _this$ = ecx

; 1705 : 		return (_Mysize == 0);

  00000	33 c0		 xor	 eax, eax
  00002	39 41 14	 cmp	 DWORD PTR [ecx+20], eax
  00005	0f 94 c0	 sete	 al

; 1706 : 		}

  00008	c3		 ret	 0
?empty@?$basic_string@DU?$char_traits@D@std@@V?$allocator@D@2@@std@@QBE_NXZ ENDP ; std::basic_string<char,std::char_traits<char>,std::allocator<char> >::empty
_TEXT	ENDS
PUBLIC	?size@?$basic_string@_WU?$char_traits@_W@std@@V?$allocator@_W@2@@std@@QBEIXZ ; std::basic_string<wchar_t,std::char_traits<wchar_t>,std::allocator<wchar_t> >::size
; Function compile flags: /Ogtpy
;	COMDAT ?size@?$basic_string@_WU?$char_traits@_W@std@@V?$allocator@_W@2@@std@@QBEIXZ
_TEXT	SEGMENT
?size@?$basic_string@_WU?$char_traits@_W@std@@V?$allocator@_W@2@@std@@QBEIXZ PROC ; std::basic_string<wchar_t,std::char_traits<wchar_t>,std::allocator<wchar_t> >::size, COMDAT
; _this$ = ecx

; 1666 : 		return (_Mysize);

  00000	8b 41 14	 mov	 eax, DWORD PTR [ecx+20]

; 1667 : 		}

  00003	c3		 ret	 0
?size@?$basic_string@_WU?$char_traits@_W@std@@V?$allocator@_W@2@@std@@QBEIXZ ENDP ; std::basic_string<wchar_t,std::char_traits<wchar_t>,std::allocator<wchar_t> >::size
_TEXT	ENDS
PUBLIC	?empty@?$basic_string@_WU?$char_traits@_W@std@@V?$allocator@_W@2@@std@@QBE_NXZ ; std::basic_string<wchar_t,std::char_traits<wchar_t>,std::allocator<wchar_t> >::empty
; Function compile flags: /Ogtpy
;	COMDAT ?empty@?$basic_string@_WU?$char_traits@_W@std@@V?$allocator@_W@2@@std@@QBE_NXZ
_TEXT	SEGMENT
?empty@?$basic_string@_WU?$char_traits@_W@std@@V?$allocator@_W@2@@std@@QBE_NXZ PROC ; std::basic_string<wchar_t,std::char_traits<wchar_t>,std::allocator<wchar_t> >::empty, COMDAT
; _this$ = ecx

; 1705 : 		return (_Mysize == 0);

  00000	33 c0		 xor	 eax, eax
  00002	39 41 14	 cmp	 DWORD PTR [ecx+20], eax
  00005	0f 94 c0	 sete	 al

; 1706 : 		}

  00008	c3		 ret	 0
?empty@?$basic_string@_WU?$char_traits@_W@std@@V?$allocator@_W@2@@std@@QBE_NXZ ENDP ; std::basic_string<wchar_t,std::char_traits<wchar_t>,std::allocator<wchar_t> >::empty
_TEXT	ENDS
PUBLIC	?size@?$vector@UFavoriteVolume@CipherShed@@V?$allocator@UFavoriteVolume@CipherShed@@@std@@@std@@QBEIXZ ; std::vector<CipherShed::FavoriteVolume,std::allocator<CipherShed::FavoriteVolume> >::size
; Function compile flags: /Ogtpy
; File c:\program files (x86)\microsoft visual studio 9.0\vc\include\vector
;	COMDAT ?size@?$vector@UFavoriteVolume@CipherShed@@V?$allocator@UFavoriteVolume@CipherShed@@@std@@@std@@QBEIXZ
_TEXT	SEGMENT
?size@?$vector@UFavoriteVolume@CipherShed@@V?$allocator@UFavoriteVolume@CipherShed@@@std@@@std@@QBEIXZ PROC ; std::vector<CipherShed::FavoriteVolume,std::allocator<CipherShed::FavoriteVolume> >::size, COMDAT
; _this$ = ecx

; 725  : 		{	// return length of sequence

  00000	56		 push	 esi

; 726  : 		return (_Mylast - _Myfirst);

  00001	8b 71 10	 mov	 esi, DWORD PTR [ecx+16]
  00004	2b 71 0c	 sub	 esi, DWORD PTR [ecx+12]
  00007	b8 89 88 88 88	 mov	 eax, -2004318071	; 88888889H
  0000c	f7 ee		 imul	 esi
  0000e	03 d6		 add	 edx, esi
  00010	c1 fa 06	 sar	 edx, 6
  00013	8b c2		 mov	 eax, edx
  00015	c1 e8 1f	 shr	 eax, 31			; 0000001fH
  00018	03 c2		 add	 eax, edx
  0001a	5e		 pop	 esi

; 727  : 		}

  0001b	c3		 ret	 0
?size@?$vector@UFavoriteVolume@CipherShed@@V?$allocator@UFavoriteVolume@CipherShed@@@std@@@std@@QBEIXZ ENDP ; std::vector<CipherShed::FavoriteVolume,std::allocator<CipherShed::FavoriteVolume> >::size
_TEXT	ENDS
PUBLIC	?empty@?$vector@UFavoriteVolume@CipherShed@@V?$allocator@UFavoriteVolume@CipherShed@@@std@@@std@@QBE_NXZ ; std::vector<CipherShed::FavoriteVolume,std::allocator<CipherShed::FavoriteVolume> >::empty
; Function compile flags: /Ogtpy
;	COMDAT ?empty@?$vector@UFavoriteVolume@CipherShed@@V?$allocator@UFavoriteVolume@CipherShed@@@std@@@std@@QBE_NXZ
_TEXT	SEGMENT
?empty@?$vector@UFavoriteVolume@CipherShed@@V?$allocator@UFavoriteVolume@CipherShed@@@std@@@std@@QBE_NXZ PROC ; std::vector<CipherShed::FavoriteVolume,std::allocator<CipherShed::FavoriteVolume> >::empty, COMDAT
; _this$ = ecx

; 735  : 		{	// test if sequence is empty

  00000	56		 push	 esi

; 736  : 		return (size() == 0);

  00001	8b 71 10	 mov	 esi, DWORD PTR [ecx+16]
  00004	2b 71 0c	 sub	 esi, DWORD PTR [ecx+12]
  00007	b8 89 88 88 88	 mov	 eax, -2004318071	; 88888889H
  0000c	f7 ee		 imul	 esi
  0000e	03 d6		 add	 edx, esi
  00010	c1 fa 06	 sar	 edx, 6
  00013	8b c2		 mov	 eax, edx
  00015	c1 e8 1f	 shr	 eax, 31			; 0000001fH
  00018	03 c2		 add	 eax, edx
  0001a	f7 d8		 neg	 eax
  0001c	1b c0		 sbb	 eax, eax
  0001e	40		 inc	 eax
  0001f	5e		 pop	 esi

; 737  : 		}

  00020	c3		 ret	 0
?empty@?$vector@UFavoriteVolume@CipherShed@@V?$allocator@UFavoriteVolume@CipherShed@@@std@@@std@@QBE_NXZ ENDP ; std::vector<CipherShed::FavoriteVolume,std::allocator<CipherShed::FavoriteVolume> >::empty
_TEXT	ENDS
PUBLIC	??A?$vector@UFavoriteVolume@CipherShed@@V?$allocator@UFavoriteVolume@CipherShed@@@std@@@std@@QAEAAUFavoriteVolume@CipherShed@@I@Z ; std::vector<CipherShed::FavoriteVolume,std::allocator<CipherShed::FavoriteVolume> >::operator[]
EXTRN	__invalid_parameter_noinfo:PROC
; Function compile flags: /Ogtpy
;	COMDAT ??A?$vector@UFavoriteVolume@CipherShed@@V?$allocator@UFavoriteVolume@CipherShed@@@std@@@std@@QAEAAUFavoriteVolume@CipherShed@@I@Z
_TEXT	SEGMENT
__Pos$ = 8						; size = 4
??A?$vector@UFavoriteVolume@CipherShed@@V?$allocator@UFavoriteVolume@CipherShed@@@std@@@std@@QAEAAUFavoriteVolume@CipherShed@@I@Z PROC ; std::vector<CipherShed::FavoriteVolume,std::allocator<CipherShed::FavoriteVolume> >::operator[], COMDAT
; _this$ = ecx

; 774  : 		{	// subscript mutable sequence

  00000	56		 push	 esi
  00001	8b f1		 mov	 esi, ecx

; 775  : 
; 776  :  #if _HAS_ITERATOR_DEBUGGING
; 777  : 		if (size() <= _Pos)
; 778  : 			{
; 779  : 			_DEBUG_ERROR("vector subscript out of range");
; 780  : 			_SCL_SECURE_OUT_OF_RANGE;
; 781  : 			}
; 782  :  #endif /* _HAS_ITERATOR_DEBUGGING */
; 783  : 		_SCL_SECURE_VALIDATE_RANGE(_Pos < size());

  00003	8b 4e 10	 mov	 ecx, DWORD PTR [esi+16]
  00006	2b 4e 0c	 sub	 ecx, DWORD PTR [esi+12]
  00009	b8 89 88 88 88	 mov	 eax, -2004318071	; 88888889H
  0000e	f7 e9		 imul	 ecx
  00010	03 d1		 add	 edx, ecx
  00012	c1 fa 06	 sar	 edx, 6
  00015	8b c2		 mov	 eax, edx
  00017	c1 e8 1f	 shr	 eax, 31			; 0000001fH
  0001a	57		 push	 edi
  0001b	8b 7c 24 0c	 mov	 edi, DWORD PTR __Pos$[esp+4]
  0001f	03 c2		 add	 eax, edx
  00021	3b f8		 cmp	 edi, eax
  00023	72 05		 jb	 SHORT $LN3@operator
  00025	e8 00 00 00 00	 call	 __invalid_parameter_noinfo
$LN3@operator:

; 784  : 
; 785  : 		return (*(_Myfirst + _Pos));

  0002a	8b 56 0c	 mov	 edx, DWORD PTR [esi+12]
  0002d	8b cf		 mov	 ecx, edi
  0002f	c1 e1 04	 shl	 ecx, 4
  00032	2b cf		 sub	 ecx, edi
  00034	5f		 pop	 edi
  00035	8d 04 ca	 lea	 eax, DWORD PTR [edx+ecx*8]
  00038	5e		 pop	 esi

; 786  : 		}

  00039	c2 04 00	 ret	 4
??A?$vector@UFavoriteVolume@CipherShed@@V?$allocator@UFavoriteVolume@CipherShed@@@std@@@std@@QAEAAUFavoriteVolume@CipherShed@@I@Z ENDP ; std::vector<CipherShed::FavoriteVolume,std::allocator<CipherShed::FavoriteVolume> >::operator[]
_TEXT	ENDS
PUBLIC	??D?$_Vector_const_iterator@UFavoriteVolume@CipherShed@@V?$allocator@UFavoriteVolume@CipherShed@@@std@@@std@@QBEABUFavoriteVolume@CipherShed@@XZ ; std::_Vector_const_iterator<CipherShed::FavoriteVolume,std::allocator<CipherShed::FavoriteVolume> >::operator*
; Function compile flags: /Ogtpy
;	COMDAT ??D?$_Vector_const_iterator@UFavoriteVolume@CipherShed@@V?$allocator@UFavoriteVolume@CipherShed@@@std@@@std@@QBEABUFavoriteVolume@CipherShed@@XZ
_TEXT	SEGMENT
??D?$_Vector_const_iterator@UFavoriteVolume@CipherShed@@V?$allocator@UFavoriteVolume@CipherShed@@@std@@@std@@QBEABUFavoriteVolume@CipherShed@@XZ PROC ; std::_Vector_const_iterator<CipherShed::FavoriteVolume,std::allocator<CipherShed::FavoriteVolume> >::operator*, COMDAT
; _this$ = ecx

; 91   : 		{	// return designated object

  00000	56		 push	 esi
  00001	8b f1		 mov	 esi, ecx

; 92   : 
; 93   :  #if _HAS_ITERATOR_DEBUGGING
; 94   : 		if (this->_Mycont == 0
; 95   : 			|| _Myptr < ((_Myvec *)this->_Mycont)->_Myfirst
; 96   : 			|| ((_Myvec *)this->_Mycont)->_Mylast <= _Myptr)
; 97   : 			{
; 98   : 			_DEBUG_ERROR("vector iterator not dereferencable");
; 99   : 			_SCL_SECURE_OUT_OF_RANGE;
; 100  : 			}
; 101  :  #else
; 102  :  		_SCL_SECURE_VALIDATE(this->_Has_container());

  00003	8b 06		 mov	 eax, DWORD PTR [esi]
  00005	85 c0		 test	 eax, eax
  00007	75 0b		 jne	 SHORT $LN19@operator@2
  00009	e8 00 00 00 00	 call	 __invalid_parameter_noinfo

; 103  : 		_SCL_SECURE_VALIDATE_RANGE(_Myptr < ((_Myvec *)(this->_Getmycont()))->_Mylast);

  0000e	8b 06		 mov	 eax, DWORD PTR [esi]
  00010	85 c0		 test	 eax, eax
  00012	74 04		 je	 SHORT $LN15@operator@2
$LN19@operator@2:
  00014	8b 00		 mov	 eax, DWORD PTR [eax]
  00016	eb 02		 jmp	 SHORT $LN16@operator@2
$LN15@operator@2:
  00018	33 c0		 xor	 eax, eax
$LN16@operator@2:
  0001a	8b 4e 04	 mov	 ecx, DWORD PTR [esi+4]
  0001d	3b 48 10	 cmp	 ecx, DWORD PTR [eax+16]
  00020	72 0a		 jb	 SHORT $LN20@operator@2
  00022	e8 00 00 00 00	 call	 __invalid_parameter_noinfo

; 104  :  #endif /* _HAS_ITERATOR_DEBUGGING */
; 105  : 
; 106  : 		return (*_Myptr);

  00027	8b 46 04	 mov	 eax, DWORD PTR [esi+4]
  0002a	5e		 pop	 esi

; 107  : 		}

  0002b	c3		 ret	 0
$LN20@operator@2:

; 104  :  #endif /* _HAS_ITERATOR_DEBUGGING */
; 105  : 
; 106  : 		return (*_Myptr);

  0002c	8b c1		 mov	 eax, ecx
  0002e	5e		 pop	 esi

; 107  : 		}

  0002f	c3		 ret	 0
??D?$_Vector_const_iterator@UFavoriteVolume@CipherShed@@V?$allocator@UFavoriteVolume@CipherShed@@@std@@@std@@QBEABUFavoriteVolume@CipherShed@@XZ ENDP ; std::_Vector_const_iterator<CipherShed::FavoriteVolume,std::allocator<CipherShed::FavoriteVolume> >::operator*
_TEXT	ENDS
PUBLIC	?_Myptr@?$basic_string@DU?$char_traits@D@std@@V?$allocator@D@2@@std@@IAEPADXZ ; std::basic_string<char,std::char_traits<char>,std::allocator<char> >::_Myptr
; Function compile flags: /Ogtpy
; File c:\program files (x86)\microsoft visual studio 9.0\vc\include\xstring
;	COMDAT ?_Myptr@?$basic_string@DU?$char_traits@D@std@@V?$allocator@D@2@@std@@IAEPADXZ
_TEXT	SEGMENT
?_Myptr@?$basic_string@DU?$char_traits@D@std@@V?$allocator@D@2@@std@@IAEPADXZ PROC ; std::basic_string<char,std::char_traits<char>,std::allocator<char> >::_Myptr, COMDAT
; _this$ = ecx

; 2170 : 		return (_BUF_SIZE <= _Myres ? _Bx._Ptr : _Bx._Buf);

  00000	83 79 18 10	 cmp	 DWORD PTR [ecx+24], 16	; 00000010H
  00004	72 04		 jb	 SHORT $LN3@Myptr
  00006	8b 41 04	 mov	 eax, DWORD PTR [ecx+4]

; 2171 : 		}

  00009	c3		 ret	 0
$LN3@Myptr:

; 2170 : 		return (_BUF_SIZE <= _Myres ? _Bx._Ptr : _Bx._Buf);

  0000a	8d 41 04	 lea	 eax, DWORD PTR [ecx+4]

; 2171 : 		}

  0000d	c3		 ret	 0
?_Myptr@?$basic_string@DU?$char_traits@D@std@@V?$allocator@D@2@@std@@IAEPADXZ ENDP ; std::basic_string<char,std::char_traits<char>,std::allocator<char> >::_Myptr
_TEXT	ENDS
PUBLIC	?_Myptr@?$basic_string@DU?$char_traits@D@std@@V?$allocator@D@2@@std@@IBEPBDXZ ; std::basic_string<char,std::char_traits<char>,std::allocator<char> >::_Myptr
; Function compile flags: /Ogtpy
;	COMDAT ?_Myptr@?$basic_string@DU?$char_traits@D@std@@V?$allocator@D@2@@std@@IBEPBDXZ
_TEXT	SEGMENT
?_Myptr@?$basic_string@DU?$char_traits@D@std@@V?$allocator@D@2@@std@@IBEPBDXZ PROC ; std::basic_string<char,std::char_traits<char>,std::allocator<char> >::_Myptr, COMDAT
; _this$ = ecx

; 2175 : 		return (_BUF_SIZE <= _Myres ? _Bx._Ptr : _Bx._Buf);

  00000	83 79 18 10	 cmp	 DWORD PTR [ecx+24], 16	; 00000010H
  00004	72 04		 jb	 SHORT $LN3@Myptr@2
  00006	8b 41 04	 mov	 eax, DWORD PTR [ecx+4]

; 2176 : 		}

  00009	c3		 ret	 0
$LN3@Myptr@2:

; 2175 : 		return (_BUF_SIZE <= _Myres ? _Bx._Ptr : _Bx._Buf);

  0000a	8d 41 04	 lea	 eax, DWORD PTR [ecx+4]

; 2176 : 		}

  0000d	c3		 ret	 0
?_Myptr@?$basic_string@DU?$char_traits@D@std@@V?$allocator@D@2@@std@@IBEPBDXZ ENDP ; std::basic_string<char,std::char_traits<char>,std::allocator<char> >::_Myptr
_TEXT	ENDS
PUBLIC	??0?$allocator@D@std@@QAE@XZ			; std::allocator<char>::allocator<char>
; Function compile flags: /Ogtpy
; File c:\program files (x86)\microsoft visual studio 9.0\vc\include\xmemory
;	COMDAT ??0?$allocator@D@std@@QAE@XZ
_TEXT	SEGMENT
??0?$allocator@D@std@@QAE@XZ PROC			; std::allocator<char>::allocator<char>, COMDAT
; _this$ = ecx

; 119  : 	allocator() _THROW0()

  00000	8b c1		 mov	 eax, ecx

; 120  : 		{	// construct default allocator (do nothing)
; 121  : 		}

  00002	c3		 ret	 0
??0?$allocator@D@std@@QAE@XZ ENDP			; std::allocator<char>::allocator<char>
_TEXT	ENDS
PUBLIC	?_Myptr@?$basic_string@_WU?$char_traits@_W@std@@V?$allocator@_W@2@@std@@IAEPA_WXZ ; std::basic_string<wchar_t,std::char_traits<wchar_t>,std::allocator<wchar_t> >::_Myptr
; Function compile flags: /Ogtpy
; File c:\program files (x86)\microsoft visual studio 9.0\vc\include\xstring
;	COMDAT ?_Myptr@?$basic_string@_WU?$char_traits@_W@std@@V?$allocator@_W@2@@std@@IAEPA_WXZ
_TEXT	SEGMENT
?_Myptr@?$basic_string@_WU?$char_traits@_W@std@@V?$allocator@_W@2@@std@@IAEPA_WXZ PROC ; std::basic_string<wchar_t,std::char_traits<wchar_t>,std::allocator<wchar_t> >::_Myptr, COMDAT
; _this$ = ecx

; 2170 : 		return (_BUF_SIZE <= _Myres ? _Bx._Ptr : _Bx._Buf);

  00000	83 79 18 08	 cmp	 DWORD PTR [ecx+24], 8
  00004	72 04		 jb	 SHORT $LN3@Myptr@3
  00006	8b 41 04	 mov	 eax, DWORD PTR [ecx+4]

; 2171 : 		}

  00009	c3		 ret	 0
$LN3@Myptr@3:

; 2170 : 		return (_BUF_SIZE <= _Myres ? _Bx._Ptr : _Bx._Buf);

  0000a	8d 41 04	 lea	 eax, DWORD PTR [ecx+4]

; 2171 : 		}

  0000d	c3		 ret	 0
?_Myptr@?$basic_string@_WU?$char_traits@_W@std@@V?$allocator@_W@2@@std@@IAEPA_WXZ ENDP ; std::basic_string<wchar_t,std::char_traits<wchar_t>,std::allocator<wchar_t> >::_Myptr
_TEXT	ENDS
PUBLIC	?_Myptr@?$basic_string@_WU?$char_traits@_W@std@@V?$allocator@_W@2@@std@@IBEPB_WXZ ; std::basic_string<wchar_t,std::char_traits<wchar_t>,std::allocator<wchar_t> >::_Myptr
; Function compile flags: /Ogtpy
;	COMDAT ?_Myptr@?$basic_string@_WU?$char_traits@_W@std@@V?$allocator@_W@2@@std@@IBEPB_WXZ
_TEXT	SEGMENT
?_Myptr@?$basic_string@_WU?$char_traits@_W@std@@V?$allocator@_W@2@@std@@IBEPB_WXZ PROC ; std::basic_string<wchar_t,std::char_traits<wchar_t>,std::allocator<wchar_t> >::_Myptr, COMDAT
; _this$ = ecx

; 2175 : 		return (_BUF_SIZE <= _Myres ? _Bx._Ptr : _Bx._Buf);

  00000	83 79 18 08	 cmp	 DWORD PTR [ecx+24], 8
  00004	72 04		 jb	 SHORT $LN3@Myptr@4
  00006	8b 41 04	 mov	 eax, DWORD PTR [ecx+4]

; 2176 : 		}

  00009	c3		 ret	 0
$LN3@Myptr@4:

; 2175 : 		return (_BUF_SIZE <= _Myres ? _Bx._Ptr : _Bx._Buf);

  0000a	8d 41 04	 lea	 eax, DWORD PTR [ecx+4]

; 2176 : 		}

  0000d	c3		 ret	 0
?_Myptr@?$basic_string@_WU?$char_traits@_W@std@@V?$allocator@_W@2@@std@@IBEPB_WXZ ENDP ; std::basic_string<wchar_t,std::char_traits<wchar_t>,std::allocator<wchar_t> >::_Myptr
_TEXT	ENDS
PUBLIC	??0?$allocator@_W@std@@QAE@XZ			; std::allocator<wchar_t>::allocator<wchar_t>
; Function compile flags: /Ogtpy
; File c:\program files (x86)\microsoft visual studio 9.0\vc\include\xmemory
;	COMDAT ??0?$allocator@_W@std@@QAE@XZ
_TEXT	SEGMENT
??0?$allocator@_W@std@@QAE@XZ PROC			; std::allocator<wchar_t>::allocator<wchar_t>, COMDAT
; _this$ = ecx

; 119  : 	allocator() _THROW0()

  00000	8b c1		 mov	 eax, ecx

; 120  : 		{	// construct default allocator (do nothing)
; 121  : 		}

  00002	c3		 ret	 0
??0?$allocator@_W@std@@QAE@XZ ENDP			; std::allocator<wchar_t>::allocator<wchar_t>
_TEXT	ENDS
PUBLIC	?capacity@?$vector@UFavoriteVolume@CipherShed@@V?$allocator@UFavoriteVolume@CipherShed@@@std@@@std@@QBEIXZ ; std::vector<CipherShed::FavoriteVolume,std::allocator<CipherShed::FavoriteVolume> >::capacity
; Function compile flags: /Ogtpy
; File c:\program files (x86)\microsoft visual studio 9.0\vc\include\vector
;	COMDAT ?capacity@?$vector@UFavoriteVolume@CipherShed@@V?$allocator@UFavoriteVolume@CipherShed@@@std@@@std@@QBEIXZ
_TEXT	SEGMENT
?capacity@?$vector@UFavoriteVolume@CipherShed@@V?$allocator@UFavoriteVolume@CipherShed@@@std@@@std@@QBEIXZ PROC ; std::vector<CipherShed::FavoriteVolume,std::allocator<CipherShed::FavoriteVolume> >::capacity, COMDAT
; _this$ = ecx

; 635  : 		return (_Myfirst == 0 ? 0 : _Myend - _Myfirst);

  00000	8b 41 0c	 mov	 eax, DWORD PTR [ecx+12]
  00003	85 c0		 test	 eax, eax
  00005	75 01		 jne	 SHORT $LN3@capacity

; 636  : 		}

  00007	c3		 ret	 0
$LN3@capacity:

; 635  : 		return (_Myfirst == 0 ? 0 : _Myend - _Myfirst);

  00008	8b 49 14	 mov	 ecx, DWORD PTR [ecx+20]
  0000b	2b c8		 sub	 ecx, eax
  0000d	b8 89 88 88 88	 mov	 eax, -2004318071	; 88888889H
  00012	f7 e9		 imul	 ecx
  00014	03 d1		 add	 edx, ecx
  00016	c1 fa 06	 sar	 edx, 6
  00019	8b c2		 mov	 eax, edx
  0001b	c1 e8 1f	 shr	 eax, 31			; 0000001fH
  0001e	03 c2		 add	 eax, edx

; 636  : 		}

  00020	c3		 ret	 0
?capacity@?$vector@UFavoriteVolume@CipherShed@@V?$allocator@UFavoriteVolume@CipherShed@@@std@@@std@@QBEIXZ ENDP ; std::vector<CipherShed::FavoriteVolume,std::allocator<CipherShed::FavoriteVolume> >::capacity
_TEXT	ENDS
PUBLIC	??0?$allocator@UFavoriteVolume@CipherShed@@@std@@QAE@XZ ; std::allocator<CipherShed::FavoriteVolume>::allocator<CipherShed::FavoriteVolume>
; Function compile flags: /Ogtpy
; File c:\program files (x86)\microsoft visual studio 9.0\vc\include\xmemory
;	COMDAT ??0?$allocator@UFavoriteVolume@CipherShed@@@std@@QAE@XZ
_TEXT	SEGMENT
??0?$allocator@UFavoriteVolume@CipherShed@@@std@@QAE@XZ PROC ; std::allocator<CipherShed::FavoriteVolume>::allocator<CipherShed::FavoriteVolume>, COMDAT
; _this$ = ecx

; 119  : 	allocator() _THROW0()

  00000	8b c1		 mov	 eax, ecx

; 120  : 		{	// construct default allocator (do nothing)
; 121  : 		}

  00002	c3		 ret	 0
??0?$allocator@UFavoriteVolume@CipherShed@@@std@@QAE@XZ ENDP ; std::allocator<CipherShed::FavoriteVolume>::allocator<CipherShed::FavoriteVolume>
_TEXT	ENDS
PUBLIC	?deallocate@?$allocator@UFavoriteVolume@CipherShed@@@std@@QAEXPAUFavoriteVolume@CipherShed@@I@Z ; std::allocator<CipherShed::FavoriteVolume>::deallocate
; Function compile flags: /Ogtpy
;	COMDAT ?deallocate@?$allocator@UFavoriteVolume@CipherShed@@@std@@QAEXPAUFavoriteVolume@CipherShed@@I@Z
_TEXT	SEGMENT
__Ptr$ = 8						; size = 4
___formal$ = 12						; size = 4
?deallocate@?$allocator@UFavoriteVolume@CipherShed@@@std@@QAEXPAUFavoriteVolume@CipherShed@@I@Z PROC ; std::allocator<CipherShed::FavoriteVolume>::deallocate, COMDAT
; _this$ = ecx

; 140  : 		::operator delete(_Ptr);

  00000	8b 44 24 04	 mov	 eax, DWORD PTR __Ptr$[esp-4]
  00004	50		 push	 eax
  00005	e8 00 00 00 00	 call	 ??3@YAXPAX@Z		; operator delete
  0000a	59		 pop	 ecx

; 141  : 		}

  0000b	c2 08 00	 ret	 8
?deallocate@?$allocator@UFavoriteVolume@CipherShed@@@std@@QAEXPAUFavoriteVolume@CipherShed@@I@Z ENDP ; std::allocator<CipherShed::FavoriteVolume>::deallocate
_TEXT	ENDS
PUBLIC	?_Nextnode@?$list@UFavoriteVolume@CipherShed@@V?$allocator@UFavoriteVolume@CipherShed@@@std@@@std@@KAAAPAU_Node@?$_List_nod@UFavoriteVolume@CipherShed@@V?$allocator@UFavoriteVolume@CipherShed@@@std@@@2@PAU342@@Z ; std::list<CipherShed::FavoriteVolume,std::allocator<CipherShed::FavoriteVolume> >::_Nextnode
; Function compile flags: /Ogtpy
; File c:\program files (x86)\microsoft visual studio 9.0\vc\include\list
;	COMDAT ?_Nextnode@?$list@UFavoriteVolume@CipherShed@@V?$allocator@UFavoriteVolume@CipherShed@@@std@@@std@@KAAAPAU_Node@?$_List_nod@UFavoriteVolume@CipherShed@@V?$allocator@UFavoriteVolume@CipherShed@@@std@@@2@PAU342@@Z
_TEXT	SEGMENT
__Pnode$ = 8						; size = 4
?_Nextnode@?$list@UFavoriteVolume@CipherShed@@V?$allocator@UFavoriteVolume@CipherShed@@@std@@@std@@KAAAPAU_Node@?$_List_nod@UFavoriteVolume@CipherShed@@V?$allocator@UFavoriteVolume@CipherShed@@@std@@@2@PAU342@@Z PROC ; std::list<CipherShed::FavoriteVolume,std::allocator<CipherShed::FavoriteVolume> >::_Nextnode, COMDAT

; 115  : 		return ((_Nodepref)(*_Pnode)._Next);

  00000	8b 44 24 04	 mov	 eax, DWORD PTR __Pnode$[esp-4]

; 116  : 		}

  00004	c3		 ret	 0
?_Nextnode@?$list@UFavoriteVolume@CipherShed@@V?$allocator@UFavoriteVolume@CipherShed@@@std@@@std@@KAAAPAU_Node@?$_List_nod@UFavoriteVolume@CipherShed@@V?$allocator@UFavoriteVolume@CipherShed@@@std@@@2@PAU342@@Z ENDP ; std::list<CipherShed::FavoriteVolume,std::allocator<CipherShed::FavoriteVolume> >::_Nextnode
_TEXT	ENDS
PUBLIC	?_Prevnode@?$list@UFavoriteVolume@CipherShed@@V?$allocator@UFavoriteVolume@CipherShed@@@std@@@std@@KAAAPAU_Node@?$_List_nod@UFavoriteVolume@CipherShed@@V?$allocator@UFavoriteVolume@CipherShed@@@std@@@2@PAU342@@Z ; std::list<CipherShed::FavoriteVolume,std::allocator<CipherShed::FavoriteVolume> >::_Prevnode
; Function compile flags: /Ogtpy
;	COMDAT ?_Prevnode@?$list@UFavoriteVolume@CipherShed@@V?$allocator@UFavoriteVolume@CipherShed@@@std@@@std@@KAAAPAU_Node@?$_List_nod@UFavoriteVolume@CipherShed@@V?$allocator@UFavoriteVolume@CipherShed@@@std@@@2@PAU342@@Z
_TEXT	SEGMENT
__Pnode$ = 8						; size = 4
?_Prevnode@?$list@UFavoriteVolume@CipherShed@@V?$allocator@UFavoriteVolume@CipherShed@@@std@@@std@@KAAAPAU_Node@?$_List_nod@UFavoriteVolume@CipherShed@@V?$allocator@UFavoriteVolume@CipherShed@@@std@@@2@PAU342@@Z PROC ; std::list<CipherShed::FavoriteVolume,std::allocator<CipherShed::FavoriteVolume> >::_Prevnode, COMDAT

; 120  : 		return ((_Nodepref)(*_Pnode)._Prev);

  00000	8b 44 24 04	 mov	 eax, DWORD PTR __Pnode$[esp-4]
  00004	83 c0 04	 add	 eax, 4

; 121  : 		}

  00007	c3		 ret	 0
?_Prevnode@?$list@UFavoriteVolume@CipherShed@@V?$allocator@UFavoriteVolume@CipherShed@@@std@@@std@@KAAAPAU_Node@?$_List_nod@UFavoriteVolume@CipherShed@@V?$allocator@UFavoriteVolume@CipherShed@@@std@@@2@PAU342@@Z ENDP ; std::list<CipherShed::FavoriteVolume,std::allocator<CipherShed::FavoriteVolume> >::_Prevnode
_TEXT	ENDS
PUBLIC	?_Myval@?$list@UFavoriteVolume@CipherShed@@V?$allocator@UFavoriteVolume@CipherShed@@@std@@@std@@KAAAUFavoriteVolume@CipherShed@@PAU_Node@?$_List_nod@UFavoriteVolume@CipherShed@@V?$allocator@UFavoriteVolume@CipherShed@@@std@@@2@@Z ; std::list<CipherShed::FavoriteVolume,std::allocator<CipherShed::FavoriteVolume> >::_Myval
; Function compile flags: /Ogtpy
;	COMDAT ?_Myval@?$list@UFavoriteVolume@CipherShed@@V?$allocator@UFavoriteVolume@CipherShed@@@std@@@std@@KAAAUFavoriteVolume@CipherShed@@PAU_Node@?$_List_nod@UFavoriteVolume@CipherShed@@V?$allocator@UFavoriteVolume@CipherShed@@@std@@@2@@Z
_TEXT	SEGMENT
__Pnode$ = 8						; size = 4
?_Myval@?$list@UFavoriteVolume@CipherShed@@V?$allocator@UFavoriteVolume@CipherShed@@@std@@@std@@KAAAUFavoriteVolume@CipherShed@@PAU_Node@?$_List_nod@UFavoriteVolume@CipherShed@@V?$allocator@UFavoriteVolume@CipherShed@@@std@@@2@@Z PROC ; std::list<CipherShed::FavoriteVolume,std::allocator<CipherShed::FavoriteVolume> >::_Myval, COMDAT

; 125  : 		return ((_Vref)(*_Pnode)._Myval);

  00000	8b 44 24 04	 mov	 eax, DWORD PTR __Pnode$[esp-4]
  00004	83 c0 08	 add	 eax, 8

; 126  : 		}

  00007	c3		 ret	 0
?_Myval@?$list@UFavoriteVolume@CipherShed@@V?$allocator@UFavoriteVolume@CipherShed@@@std@@@std@@KAAAUFavoriteVolume@CipherShed@@PAU_Node@?$_List_nod@UFavoriteVolume@CipherShed@@V?$allocator@UFavoriteVolume@CipherShed@@@std@@@2@@Z ENDP ; std::list<CipherShed::FavoriteVolume,std::allocator<CipherShed::FavoriteVolume> >::_Myval
_TEXT	ENDS
PUBLIC	?deallocate@?$allocator@U_Node@?$_List_nod@UFavoriteVolume@CipherShed@@V?$allocator@UFavoriteVolume@CipherShed@@@std@@@std@@@std@@QAEXPAU_Node@?$_List_nod@UFavoriteVolume@CipherShed@@V?$allocator@UFavoriteVolume@CipherShed@@@std@@@2@I@Z ; std::allocator<std::_List_nod<CipherShed::FavoriteVolume,std::allocator<CipherShed::FavoriteVolume> >::_Node>::deallocate
; Function compile flags: /Ogtpy
; File c:\program files (x86)\microsoft visual studio 9.0\vc\include\xmemory
;	COMDAT ?deallocate@?$allocator@U_Node@?$_List_nod@UFavoriteVolume@CipherShed@@V?$allocator@UFavoriteVolume@CipherShed@@@std@@@std@@@std@@QAEXPAU_Node@?$_List_nod@UFavoriteVolume@CipherShed@@V?$allocator@UFavoriteVolume@CipherShed@@@std@@@2@I@Z
_TEXT	SEGMENT
__Ptr$ = 8						; size = 4
___formal$ = 12						; size = 4
?deallocate@?$allocator@U_Node@?$_List_nod@UFavoriteVolume@CipherShed@@V?$allocator@UFavoriteVolume@CipherShed@@@std@@@std@@@std@@QAEXPAU_Node@?$_List_nod@UFavoriteVolume@CipherShed@@V?$allocator@UFavoriteVolume@CipherShed@@@std@@@2@I@Z PROC ; std::allocator<std::_List_nod<CipherShed::FavoriteVolume,std::allocator<CipherShed::FavoriteVolume> >::_Node>::deallocate, COMDAT
; _this$ = ecx

; 140  : 		::operator delete(_Ptr);

  00000	8b 44 24 04	 mov	 eax, DWORD PTR __Ptr$[esp-4]
  00004	50		 push	 eax
  00005	e8 00 00 00 00	 call	 ??3@YAXPAX@Z		; operator delete
  0000a	59		 pop	 ecx

; 141  : 		}

  0000b	c2 08 00	 ret	 8
?deallocate@?$allocator@U_Node@?$_List_nod@UFavoriteVolume@CipherShed@@V?$allocator@UFavoriteVolume@CipherShed@@@std@@@std@@@std@@QAEXPAU_Node@?$_List_nod@UFavoriteVolume@CipherShed@@V?$allocator@UFavoriteVolume@CipherShed@@@std@@@2@I@Z ENDP ; std::allocator<std::_List_nod<CipherShed::FavoriteVolume,std::allocator<CipherShed::FavoriteVolume> >::_Node>::deallocate
_TEXT	ENDS
PUBLIC	??E?$_Const_iterator@$00@?$list@UFavoriteVolume@CipherShed@@V?$allocator@UFavoriteVolume@CipherShed@@@std@@@std@@QAEAAV012@XZ ; std::list<CipherShed::FavoriteVolume,std::allocator<CipherShed::FavoriteVolume> >::_Const_iterator<1>::operator++
; Function compile flags: /Ogtpy
; File c:\program files (x86)\microsoft visual studio 9.0\vc\include\list
;	COMDAT ??E?$_Const_iterator@$00@?$list@UFavoriteVolume@CipherShed@@V?$allocator@UFavoriteVolume@CipherShed@@@std@@@std@@QAEAAV012@XZ
_TEXT	SEGMENT
??E?$_Const_iterator@$00@?$list@UFavoriteVolume@CipherShed@@V?$allocator@UFavoriteVolume@CipherShed@@@std@@@std@@QAEAAV012@XZ PROC ; std::list<CipherShed::FavoriteVolume,std::allocator<CipherShed::FavoriteVolume> >::_Const_iterator<1>::operator++, COMDAT
; _this$ = ecx

; 235  : 			{	// preincrement

  00000	56		 push	 esi
  00001	8b f1		 mov	 esi, ecx

; 236  : 
; 237  :  #if _HAS_ITERATOR_DEBUGGING
; 238  : 			if (this->_Mycont == 0
; 239  : 				|| _Ptr == 0
; 240  : 				|| _Ptr == ((_Myt *)this->_Mycont)->_Myhead)
; 241  : 				{
; 242  : 				_DEBUG_ERROR("list iterator not incrementable");
; 243  : 				_SCL_SECURE_TRAITS_OUT_OF_RANGE;
; 244  : 				}
; 245  :  #else
; 246  : 			_SCL_SECURE_TRAITS_VALIDATE(this->_Has_container());

  00003	8b 06		 mov	 eax, DWORD PTR [esi]
  00005	85 c0		 test	 eax, eax
  00007	75 0b		 jne	 SHORT $LN23@operator@3
  00009	e8 00 00 00 00	 call	 __invalid_parameter_noinfo

; 247  : 			_SCL_SECURE_TRAITS_VALIDATE_RANGE(_Ptr != ((_Myt *)(this->_Getmycont()))->_Myhead);

  0000e	8b 06		 mov	 eax, DWORD PTR [esi]
  00010	85 c0		 test	 eax, eax
  00012	74 04		 je	 SHORT $LN17@operator@3
$LN23@operator@3:
  00014	8b 00		 mov	 eax, DWORD PTR [eax]
  00016	eb 02		 jmp	 SHORT $LN18@operator@3
$LN17@operator@3:
  00018	33 c0		 xor	 eax, eax
$LN18@operator@3:
  0001a	8b 4e 04	 mov	 ecx, DWORD PTR [esi+4]
  0001d	3b 48 14	 cmp	 ecx, DWORD PTR [eax+20]
  00020	75 05		 jne	 SHORT $LN3@operator@3
  00022	e8 00 00 00 00	 call	 __invalid_parameter_noinfo
$LN3@operator@3:

; 248  :  #endif /* _HAS_ITERATOR_DEBUGGING */
; 249  : 
; 250  : 			_Ptr = _Nextnode(_Ptr);

  00027	8b 56 04	 mov	 edx, DWORD PTR [esi+4]
  0002a	8b 02		 mov	 eax, DWORD PTR [edx]
  0002c	89 46 04	 mov	 DWORD PTR [esi+4], eax

; 251  : 			return (*this);

  0002f	8b c6		 mov	 eax, esi
  00031	5e		 pop	 esi

; 252  : 			}

  00032	c3		 ret	 0
??E?$_Const_iterator@$00@?$list@UFavoriteVolume@CipherShed@@V?$allocator@UFavoriteVolume@CipherShed@@@std@@@std@@QAEAAV012@XZ ENDP ; std::list<CipherShed::FavoriteVolume,std::allocator<CipherShed::FavoriteVolume> >::_Const_iterator<1>::operator++
_TEXT	ENDS
PUBLIC	?_Eos@?$basic_string@DU?$char_traits@D@std@@V?$allocator@D@2@@std@@IAEXI@Z ; std::basic_string<char,std::char_traits<char>,std::allocator<char> >::_Eos
; Function compile flags: /Ogtpy
; File c:\program files (x86)\microsoft visual studio 9.0\vc\include\xstring
;	COMDAT ?_Eos@?$basic_string@DU?$char_traits@D@std@@V?$allocator@D@2@@std@@IAEXI@Z
_TEXT	SEGMENT
__Newsize$ = 8						; size = 4
?_Eos@?$basic_string@DU?$char_traits@D@std@@V?$allocator@D@2@@std@@IAEXI@Z PROC ; std::basic_string<char,std::char_traits<char>,std::allocator<char> >::_Eos, COMDAT
; _this$ = ecx

; 2114 : 		_Traits::assign(_Myptr()[_Mysize = _Newsize], _Elem());

  00000	83 79 18 10	 cmp	 DWORD PTR [ecx+24], 16	; 00000010H
  00004	8b 44 24 04	 mov	 eax, DWORD PTR __Newsize$[esp-4]
  00008	89 41 14	 mov	 DWORD PTR [ecx+20], eax
  0000b	72 0a		 jb	 SHORT $LN5@Eos
  0000d	8b 49 04	 mov	 ecx, DWORD PTR [ecx+4]
  00010	c6 04 01 00	 mov	 BYTE PTR [ecx+eax], 0

; 2115 : 		}

  00014	c2 04 00	 ret	 4

; 2114 : 		_Traits::assign(_Myptr()[_Mysize = _Newsize], _Elem());

$LN5@Eos:
  00017	c6 44 01 04 00	 mov	 BYTE PTR [ecx+eax+4], 0

; 2115 : 		}

  0001c	c2 04 00	 ret	 4
?_Eos@?$basic_string@DU?$char_traits@D@std@@V?$allocator@D@2@@std@@IAEXI@Z ENDP ; std::basic_string<char,std::char_traits<char>,std::allocator<char> >::_Eos
_TEXT	ENDS
PUBLIC	??0?$allocator@D@std@@QAE@ABV01@@Z		; std::allocator<char>::allocator<char>
; Function compile flags: /Ogtpy
; File c:\program files (x86)\microsoft visual studio 9.0\vc\include\xmemory
;	COMDAT ??0?$allocator@D@std@@QAE@ABV01@@Z
_TEXT	SEGMENT
___formal$ = 8						; size = 4
??0?$allocator@D@std@@QAE@ABV01@@Z PROC			; std::allocator<char>::allocator<char>, COMDAT
; _this$ = ecx

; 123  : 	allocator(const allocator<_Ty>&) _THROW0()

  00000	8b c1		 mov	 eax, ecx

; 124  : 		{	// construct by copying (do nothing)
; 125  : 		}

  00002	c2 04 00	 ret	 4
??0?$allocator@D@std@@QAE@ABV01@@Z ENDP			; std::allocator<char>::allocator<char>
_TEXT	ENDS
PUBLIC	?deallocate@?$allocator@D@std@@QAEXPADI@Z	; std::allocator<char>::deallocate
; Function compile flags: /Ogtpy
;	COMDAT ?deallocate@?$allocator@D@std@@QAEXPADI@Z
_TEXT	SEGMENT
__Ptr$ = 8						; size = 4
___formal$ = 12						; size = 4
?deallocate@?$allocator@D@std@@QAEXPADI@Z PROC		; std::allocator<char>::deallocate, COMDAT
; _this$ = ecx

; 140  : 		::operator delete(_Ptr);

  00000	8b 44 24 04	 mov	 eax, DWORD PTR __Ptr$[esp-4]
  00004	50		 push	 eax
  00005	e8 00 00 00 00	 call	 ??3@YAXPAX@Z		; operator delete
  0000a	59		 pop	 ecx

; 141  : 		}

  0000b	c2 08 00	 ret	 8
?deallocate@?$allocator@D@std@@QAEXPADI@Z ENDP		; std::allocator<char>::deallocate
_TEXT	ENDS
PUBLIC	?_Eos@?$basic_string@_WU?$char_traits@_W@std@@V?$allocator@_W@2@@std@@IAEXI@Z ; std::basic_string<wchar_t,std::char_traits<wchar_t>,std::allocator<wchar_t> >::_Eos
; Function compile flags: /Ogtpy
; File c:\program files (x86)\microsoft visual studio 9.0\vc\include\xstring
;	COMDAT ?_Eos@?$basic_string@_WU?$char_traits@_W@std@@V?$allocator@_W@2@@std@@IAEXI@Z
_TEXT	SEGMENT
__Newsize$ = 8						; size = 4
?_Eos@?$basic_string@_WU?$char_traits@_W@std@@V?$allocator@_W@2@@std@@IAEXI@Z PROC ; std::basic_string<wchar_t,std::char_traits<wchar_t>,std::allocator<wchar_t> >::_Eos, COMDAT
; _this$ = ecx

; 2114 : 		_Traits::assign(_Myptr()[_Mysize = _Newsize], _Elem());

  00000	8b 44 24 04	 mov	 eax, DWORD PTR __Newsize$[esp-4]
  00004	33 d2		 xor	 edx, edx
  00006	83 79 18 08	 cmp	 DWORD PTR [ecx+24], 8
  0000a	89 41 14	 mov	 DWORD PTR [ecx+20], eax
  0000d	72 0a		 jb	 SHORT $LN5@Eos@2
  0000f	8b 49 04	 mov	 ecx, DWORD PTR [ecx+4]
  00012	66 89 14 41	 mov	 WORD PTR [ecx+eax*2], dx

; 2115 : 		}

  00016	c2 04 00	 ret	 4

; 2114 : 		_Traits::assign(_Myptr()[_Mysize = _Newsize], _Elem());

$LN5@Eos@2:
  00019	66 89 54 41 04	 mov	 WORD PTR [ecx+eax*2+4], dx

; 2115 : 		}

  0001e	c2 04 00	 ret	 4
?_Eos@?$basic_string@_WU?$char_traits@_W@std@@V?$allocator@_W@2@@std@@IAEXI@Z ENDP ; std::basic_string<wchar_t,std::char_traits<wchar_t>,std::allocator<wchar_t> >::_Eos
_TEXT	ENDS
PUBLIC	??0?$allocator@_W@std@@QAE@ABV01@@Z		; std::allocator<wchar_t>::allocator<wchar_t>
; Function compile flags: /Ogtpy
; File c:\program files (x86)\microsoft visual studio 9.0\vc\include\xmemory
;	COMDAT ??0?$allocator@_W@std@@QAE@ABV01@@Z
_TEXT	SEGMENT
___formal$ = 8						; size = 4
??0?$allocator@_W@std@@QAE@ABV01@@Z PROC		; std::allocator<wchar_t>::allocator<wchar_t>, COMDAT
; _this$ = ecx

; 123  : 	allocator(const allocator<_Ty>&) _THROW0()

  00000	8b c1		 mov	 eax, ecx

; 124  : 		{	// construct by copying (do nothing)
; 125  : 		}

  00002	c2 04 00	 ret	 4
??0?$allocator@_W@std@@QAE@ABV01@@Z ENDP		; std::allocator<wchar_t>::allocator<wchar_t>
_TEXT	ENDS
PUBLIC	?deallocate@?$allocator@_W@std@@QAEXPA_WI@Z	; std::allocator<wchar_t>::deallocate
; Function compile flags: /Ogtpy
;	COMDAT ?deallocate@?$allocator@_W@std@@QAEXPA_WI@Z
_TEXT	SEGMENT
__Ptr$ = 8						; size = 4
___formal$ = 12						; size = 4
?deallocate@?$allocator@_W@std@@QAEXPA_WI@Z PROC	; std::allocator<wchar_t>::deallocate, COMDAT
; _this$ = ecx

; 140  : 		::operator delete(_Ptr);

  00000	8b 44 24 04	 mov	 eax, DWORD PTR __Ptr$[esp-4]
  00004	50		 push	 eax
  00005	e8 00 00 00 00	 call	 ??3@YAXPAX@Z		; operator delete
  0000a	59		 pop	 ecx

; 141  : 		}

  0000b	c2 08 00	 ret	 8
?deallocate@?$allocator@_W@std@@QAEXPA_WI@Z ENDP	; std::allocator<wchar_t>::deallocate
_TEXT	ENDS
PUBLIC	?deallocate@?$allocator@V_Aux_cont@std@@@std@@QAEXPAV_Aux_cont@2@I@Z ; std::allocator<std::_Aux_cont>::deallocate
; Function compile flags: /Ogtpy
;	COMDAT ?deallocate@?$allocator@V_Aux_cont@std@@@std@@QAEXPAV_Aux_cont@2@I@Z
_TEXT	SEGMENT
__Ptr$ = 8						; size = 4
___formal$ = 12						; size = 4
?deallocate@?$allocator@V_Aux_cont@std@@@std@@QAEXPAV_Aux_cont@2@I@Z PROC ; std::allocator<std::_Aux_cont>::deallocate, COMDAT
; _this$ = ecx

; 140  : 		::operator delete(_Ptr);

  00000	8b 44 24 04	 mov	 eax, DWORD PTR __Ptr$[esp-4]
  00004	50		 push	 eax
  00005	e8 00 00 00 00	 call	 ??3@YAXPAX@Z		; operator delete
  0000a	59		 pop	 ecx

; 141  : 		}

  0000b	c2 08 00	 ret	 8
?deallocate@?$allocator@V_Aux_cont@std@@@std@@QAEXPAV_Aux_cont@2@I@Z ENDP ; std::allocator<std::_Aux_cont>::deallocate
_TEXT	ENDS
PUBLIC	??0?$allocator@UFavoriteVolume@CipherShed@@@std@@QAE@ABV01@@Z ; std::allocator<CipherShed::FavoriteVolume>::allocator<CipherShed::FavoriteVolume>
; Function compile flags: /Ogtpy
;	COMDAT ??0?$allocator@UFavoriteVolume@CipherShed@@@std@@QAE@ABV01@@Z
_TEXT	SEGMENT
___formal$ = 8						; size = 4
??0?$allocator@UFavoriteVolume@CipherShed@@@std@@QAE@ABV01@@Z PROC ; std::allocator<CipherShed::FavoriteVolume>::allocator<CipherShed::FavoriteVolume>, COMDAT
; _this$ = ecx

; 123  : 	allocator(const allocator<_Ty>&) _THROW0()

  00000	8b c1		 mov	 eax, ecx

; 124  : 		{	// construct by copying (do nothing)
; 125  : 		}

  00002	c2 04 00	 ret	 4
??0?$allocator@UFavoriteVolume@CipherShed@@@std@@QAE@ABV01@@Z ENDP ; std::allocator<CipherShed::FavoriteVolume>::allocator<CipherShed::FavoriteVolume>
_TEXT	ENDS
PUBLIC	??Y?$_Vector_const_iterator@UFavoriteVolume@CipherShed@@V?$allocator@UFavoriteVolume@CipherShed@@@std@@@std@@QAEAAV01@H@Z ; std::_Vector_const_iterator<CipherShed::FavoriteVolume,std::allocator<CipherShed::FavoriteVolume> >::operator+=
; Function compile flags: /Ogtpy
; File c:\program files (x86)\microsoft visual studio 9.0\vc\include\vector
;	COMDAT ??Y?$_Vector_const_iterator@UFavoriteVolume@CipherShed@@V?$allocator@UFavoriteVolume@CipherShed@@@std@@@std@@QAEAAV01@H@Z
_TEXT	SEGMENT
__Off$ = 8						; size = 4
??Y?$_Vector_const_iterator@UFavoriteVolume@CipherShed@@V?$allocator@UFavoriteVolume@CipherShed@@@std@@@std@@QAEAAV01@H@Z PROC ; std::_Vector_const_iterator<CipherShed::FavoriteVolume,std::allocator<CipherShed::FavoriteVolume> >::operator+=, COMDAT
; _this$ = ecx

; 159  : 		{	// increment by integer

  00000	56		 push	 esi
  00001	57		 push	 edi
  00002	8b f9		 mov	 edi, ecx

; 160  : 		_SCL_SECURE_VALIDATE(this->_Has_container());

  00004	8b 0f		 mov	 ecx, DWORD PTR [edi]
  00006	85 c9		 test	 ecx, ecx
  00008	75 0b		 jne	 SHORT $LN26@operator@4
  0000a	e8 00 00 00 00	 call	 __invalid_parameter_noinfo

; 161  : 		_SCL_SECURE_VALIDATE_RANGE(

  0000f	8b 0f		 mov	 ecx, DWORD PTR [edi]
  00011	85 c9		 test	 ecx, ecx
  00013	74 04		 je	 SHORT $LN16@operator@4
$LN26@operator@4:
  00015	8b 11		 mov	 edx, DWORD PTR [ecx]
  00017	eb 02		 jmp	 SHORT $LN17@operator@4
$LN16@operator@4:
  00019	33 d2		 xor	 edx, edx
$LN17@operator@4:
  0001b	8b 44 24 0c	 mov	 eax, DWORD PTR __Off$[esp+4]
  0001f	8b f0		 mov	 esi, eax
  00021	c1 e6 04	 shl	 esi, 4
  00024	2b f0		 sub	 esi, eax
  00026	8b 47 04	 mov	 eax, DWORD PTR [edi+4]
  00029	03 f6		 add	 esi, esi
  0002b	03 f6		 add	 esi, esi
  0002d	03 f6		 add	 esi, esi
  0002f	03 c6		 add	 eax, esi
  00031	3b 42 10	 cmp	 eax, DWORD PTR [edx+16]
  00034	77 0f		 ja	 SHORT $LN4@operator@4
  00036	85 c9		 test	 ecx, ecx
  00038	74 04		 je	 SHORT $LN22@operator@4
  0003a	8b 09		 mov	 ecx, DWORD PTR [ecx]
  0003c	eb 02		 jmp	 SHORT $LN23@operator@4
$LN22@operator@4:
  0003e	33 c9		 xor	 ecx, ecx
$LN23@operator@4:
  00040	3b 41 0c	 cmp	 eax, DWORD PTR [ecx+12]
  00043	73 05		 jae	 SHORT $LN27@operator@4
$LN4@operator@4:

; 162  : 			_Myptr + _Off <= ((_Myvec *)(this->_Getmycont()))->_Mylast &&
; 163  : 			_Myptr + _Off >= ((_Myvec *)(this->_Getmycont()))->_Myfirst);

  00045	e8 00 00 00 00	 call	 __invalid_parameter_noinfo
$LN27@operator@4:

; 164  : 		_Myptr += _Off;

  0004a	01 77 04	 add	 DWORD PTR [edi+4], esi

; 165  : 		return (*this);

  0004d	8b c7		 mov	 eax, edi
  0004f	5f		 pop	 edi
  00050	5e		 pop	 esi

; 166  : 		}

  00051	c2 04 00	 ret	 4
??Y?$_Vector_const_iterator@UFavoriteVolume@CipherShed@@V?$allocator@UFavoriteVolume@CipherShed@@@std@@@std@@QAEAAV01@H@Z ENDP ; std::_Vector_const_iterator<CipherShed::FavoriteVolume,std::allocator<CipherShed::FavoriteVolume> >::operator+=
_TEXT	ENDS
PUBLIC	??G?$_Vector_const_iterator@UFavoriteVolume@CipherShed@@V?$allocator@UFavoriteVolume@CipherShed@@@std@@@std@@QBEHABV01@@Z ; std::_Vector_const_iterator<CipherShed::FavoriteVolume,std::allocator<CipherShed::FavoriteVolume> >::operator-
; Function compile flags: /Ogtpy
;	COMDAT ??G?$_Vector_const_iterator@UFavoriteVolume@CipherShed@@V?$allocator@UFavoriteVolume@CipherShed@@@std@@@std@@QBEHABV01@@Z
_TEXT	SEGMENT
__Right$ = 8						; size = 4
??G?$_Vector_const_iterator@UFavoriteVolume@CipherShed@@V?$allocator@UFavoriteVolume@CipherShed@@@std@@@std@@QBEHABV01@@Z PROC ; std::_Vector_const_iterator<CipherShed::FavoriteVolume,std::allocator<CipherShed::FavoriteVolume> >::operator-, COMDAT
; _this$ = ecx

; 186  : 		{	// return difference of iterators

  00000	56		 push	 esi
  00001	8b f1		 mov	 esi, ecx

; 187  : 
; 188  :  #if _HAS_ITERATOR_DEBUGGING
; 189  : 		_Compat(_Right);
; 190  :  #else
; 191  : 		_SCL_SECURE_VALIDATE(this->_Has_container() && this->_Same_container(_Right));

  00003	8b 06		 mov	 eax, DWORD PTR [esi]
  00005	57		 push	 edi
  00006	8b 7c 24 0c	 mov	 edi, DWORD PTR __Right$[esp+4]
  0000a	85 c0		 test	 eax, eax
  0000c	74 04		 je	 SHORT $LN4@operator@5
  0000e	3b 07		 cmp	 eax, DWORD PTR [edi]
  00010	74 05		 je	 SHORT $LN3@operator@5
$LN4@operator@5:
  00012	e8 00 00 00 00	 call	 __invalid_parameter_noinfo
$LN3@operator@5:

; 192  :  #endif /* _HAS_ITERATOR_DEBUGGING */
; 193  : 
; 194  : 		return (_Myptr - _Right._Myptr);

  00017	8b 4e 04	 mov	 ecx, DWORD PTR [esi+4]
  0001a	2b 4f 04	 sub	 ecx, DWORD PTR [edi+4]
  0001d	b8 89 88 88 88	 mov	 eax, -2004318071	; 88888889H
  00022	f7 e9		 imul	 ecx
  00024	03 d1		 add	 edx, ecx
  00026	c1 fa 06	 sar	 edx, 6
  00029	8b c2		 mov	 eax, edx
  0002b	c1 e8 1f	 shr	 eax, 31			; 0000001fH
  0002e	5f		 pop	 edi
  0002f	03 c2		 add	 eax, edx
  00031	5e		 pop	 esi

; 195  : 		}

  00032	c2 04 00	 ret	 4
??G?$_Vector_const_iterator@UFavoriteVolume@CipherShed@@V?$allocator@UFavoriteVolume@CipherShed@@@std@@@std@@QBEHABV01@@Z ENDP ; std::_Vector_const_iterator<CipherShed::FavoriteVolume,std::allocator<CipherShed::FavoriteVolume> >::operator-
_TEXT	ENDS
PUBLIC	??8?$_Vector_const_iterator@UFavoriteVolume@CipherShed@@V?$allocator@UFavoriteVolume@CipherShed@@@std@@@std@@QBE_NABV01@@Z ; std::_Vector_const_iterator<CipherShed::FavoriteVolume,std::allocator<CipherShed::FavoriteVolume> >::operator==
; Function compile flags: /Ogtpy
;	COMDAT ??8?$_Vector_const_iterator@UFavoriteVolume@CipherShed@@V?$allocator@UFavoriteVolume@CipherShed@@@std@@@std@@QBE_NABV01@@Z
_TEXT	SEGMENT
__Right$ = 8						; size = 4
??8?$_Vector_const_iterator@UFavoriteVolume@CipherShed@@V?$allocator@UFavoriteVolume@CipherShed@@@std@@@std@@QBE_NABV01@@Z PROC ; std::_Vector_const_iterator<CipherShed::FavoriteVolume,std::allocator<CipherShed::FavoriteVolume> >::operator==, COMDAT
; _this$ = ecx

; 203  : 		{	// test for iterator equality

  00000	56		 push	 esi
  00001	8b f1		 mov	 esi, ecx

; 204  : 
; 205  :  #if _HAS_ITERATOR_DEBUGGING
; 206  : 		_Compat(_Right);
; 207  :  #else
; 208  : 		_SCL_SECURE_VALIDATE(this->_Has_container() && this->_Same_container(_Right));

  00003	8b 06		 mov	 eax, DWORD PTR [esi]
  00005	57		 push	 edi
  00006	8b 7c 24 0c	 mov	 edi, DWORD PTR __Right$[esp+4]
  0000a	85 c0		 test	 eax, eax
  0000c	74 04		 je	 SHORT $LN4@operator@6
  0000e	3b 07		 cmp	 eax, DWORD PTR [edi]
  00010	74 05		 je	 SHORT $LN3@operator@6
$LN4@operator@6:
  00012	e8 00 00 00 00	 call	 __invalid_parameter_noinfo
$LN3@operator@6:

; 209  :  #endif /* _HAS_ITERATOR_DEBUGGING */
; 210  : 
; 211  : 		return (_Myptr == _Right._Myptr);

  00017	8b 46 04	 mov	 eax, DWORD PTR [esi+4]
  0001a	33 c9		 xor	 ecx, ecx
  0001c	3b 47 04	 cmp	 eax, DWORD PTR [edi+4]
  0001f	5f		 pop	 edi
  00020	0f 94 c1	 sete	 cl
  00023	8a c1		 mov	 al, cl
  00025	5e		 pop	 esi

; 212  : 		}

  00026	c2 04 00	 ret	 4
??8?$_Vector_const_iterator@UFavoriteVolume@CipherShed@@V?$allocator@UFavoriteVolume@CipherShed@@@std@@@std@@QBE_NABV01@@Z ENDP ; std::_Vector_const_iterator<CipherShed::FavoriteVolume,std::allocator<CipherShed::FavoriteVolume> >::operator==
_TEXT	ENDS
PUBLIC	??8?$_Const_iterator@$00@?$list@UFavoriteVolume@CipherShed@@V?$allocator@UFavoriteVolume@CipherShed@@@std@@@std@@QBE_NABV012@@Z ; std::list<CipherShed::FavoriteVolume,std::allocator<CipherShed::FavoriteVolume> >::_Const_iterator<1>::operator==
; Function compile flags: /Ogtpy
; File c:\program files (x86)\microsoft visual studio 9.0\vc\include\list
;	COMDAT ??8?$_Const_iterator@$00@?$list@UFavoriteVolume@CipherShed@@V?$allocator@UFavoriteVolume@CipherShed@@@std@@@std@@QBE_NABV012@@Z
_TEXT	SEGMENT
__Right$ = 8						; size = 4
??8?$_Const_iterator@$00@?$list@UFavoriteVolume@CipherShed@@V?$allocator@UFavoriteVolume@CipherShed@@@std@@@std@@QBE_NABV012@@Z PROC ; std::list<CipherShed::FavoriteVolume,std::allocator<CipherShed::FavoriteVolume> >::_Const_iterator<1>::operator==, COMDAT
; _this$ = ecx

; 290  : 			{	// test for iterator equality

  00000	56		 push	 esi
  00001	8b f1		 mov	 esi, ecx

; 291  : 
; 292  :  #if _HAS_ITERATOR_DEBUGGING
; 293  : 			_Compat(_Right);
; 294  :  #else
; 295  : 			_SCL_SECURE_TRAITS_VALIDATE(this->_Has_container() && this->_Same_container(_Right));

  00003	8b 06		 mov	 eax, DWORD PTR [esi]
  00005	57		 push	 edi
  00006	8b 7c 24 0c	 mov	 edi, DWORD PTR __Right$[esp+4]
  0000a	85 c0		 test	 eax, eax
  0000c	74 04		 je	 SHORT $LN4@operator@7
  0000e	3b 07		 cmp	 eax, DWORD PTR [edi]
  00010	74 05		 je	 SHORT $LN3@operator@7
$LN4@operator@7:
  00012	e8 00 00 00 00	 call	 __invalid_parameter_noinfo
$LN3@operator@7:

; 296  :  #endif /* _HAS_ITERATOR_DEBUGGING */
; 297  : 
; 298  : 			return (_Ptr == _Right._Ptr);

  00017	8b 46 04	 mov	 eax, DWORD PTR [esi+4]
  0001a	33 c9		 xor	 ecx, ecx
  0001c	3b 47 04	 cmp	 eax, DWORD PTR [edi+4]
  0001f	5f		 pop	 edi
  00020	0f 94 c1	 sete	 cl
  00023	8a c1		 mov	 al, cl
  00025	5e		 pop	 esi

; 299  : 			}

  00026	c2 04 00	 ret	 4
??8?$_Const_iterator@$00@?$list@UFavoriteVolume@CipherShed@@V?$allocator@UFavoriteVolume@CipherShed@@@std@@@std@@QBE_NABV012@@Z ENDP ; std::list<CipherShed::FavoriteVolume,std::allocator<CipherShed::FavoriteVolume> >::_Const_iterator<1>::operator==
_TEXT	ENDS
PUBLIC	?_Mynode@?$_Const_iterator@$00@?$list@UFavoriteVolume@CipherShed@@V?$allocator@UFavoriteVolume@CipherShed@@@std@@@std@@QBEPAU_Node@?$_List_nod@UFavoriteVolume@CipherShed@@V?$allocator@UFavoriteVolume@CipherShed@@@std@@@3@XZ ; std::list<CipherShed::FavoriteVolume,std::allocator<CipherShed::FavoriteVolume> >::_Const_iterator<1>::_Mynode
; Function compile flags: /Ogtpy
;	COMDAT ?_Mynode@?$_Const_iterator@$00@?$list@UFavoriteVolume@CipherShed@@V?$allocator@UFavoriteVolume@CipherShed@@@std@@@std@@QBEPAU_Node@?$_List_nod@UFavoriteVolume@CipherShed@@V?$allocator@UFavoriteVolume@CipherShed@@@std@@@3@XZ
_TEXT	SEGMENT
?_Mynode@?$_Const_iterator@$00@?$list@UFavoriteVolume@CipherShed@@V?$allocator@UFavoriteVolume@CipherShed@@@std@@@std@@QBEPAU_Node@?$_List_nod@UFavoriteVolume@CipherShed@@V?$allocator@UFavoriteVolume@CipherShed@@@std@@@3@XZ PROC ; std::list<CipherShed::FavoriteVolume,std::allocator<CipherShed::FavoriteVolume> >::_Const_iterator<1>::_Mynode, COMDAT
; _this$ = ecx

; 308  : 			return (_Ptr);

  00000	8b 41 04	 mov	 eax, DWORD PTR [ecx+4]

; 309  : 			}

  00003	c3		 ret	 0
?_Mynode@?$_Const_iterator@$00@?$list@UFavoriteVolume@CipherShed@@V?$allocator@UFavoriteVolume@CipherShed@@@std@@@std@@QBEPAU_Node@?$_List_nod@UFavoriteVolume@CipherShed@@V?$allocator@UFavoriteVolume@CipherShed@@@std@@@3@XZ ENDP ; std::list<CipherShed::FavoriteVolume,std::allocator<CipherShed::FavoriteVolume> >::_Const_iterator<1>::_Mynode
_TEXT	ENDS
PUBLIC	??0?$_Iterator_with_base@Urandom_access_iterator_tag@std@@UFavoriteVolume@CipherShed@@HPBU34@ABU34@V_Iterator_base_aux@2@@std@@QAE@XZ ; std::_Iterator_with_base<std::random_access_iterator_tag,CipherShed::FavoriteVolume,int,CipherShed::FavoriteVolume const *,CipherShed::FavoriteVolume const &,std::_Iterator_base_aux>::_Iterator_with_base<std::random_access_iterator_tag,CipherShed::FavoriteVolume,int,CipherShed::FavoriteVolume const *,CipherShed::FavoriteVolume const &,std::_Iterator_base_aux>
; Function compile flags: /Ogtpy
;	COMDAT ??0?$_Iterator_with_base@Urandom_access_iterator_tag@std@@UFavoriteVolume@CipherShed@@HPBU34@ABU34@V_Iterator_base_aux@2@@std@@QAE@XZ
_TEXT	SEGMENT
??0?$_Iterator_with_base@Urandom_access_iterator_tag@std@@UFavoriteVolume@CipherShed@@HPBU34@ABU34@V_Iterator_base_aux@2@@std@@QAE@XZ PROC ; std::_Iterator_with_base<std::random_access_iterator_tag,CipherShed::FavoriteVolume,int,CipherShed::FavoriteVolume const *,CipherShed::FavoriteVolume const &,std::_Iterator_base_aux>::_Iterator_with_base<std::random_access_iterator_tag,CipherShed::FavoriteVolume,int,CipherShed::FavoriteVolume const *,CipherShed::FavoriteVolume const &,std::_Iterator_base_aux>, COMDAT
; _this$ = ecx
  00000	8b c1		 mov	 eax, ecx
  00002	c7 00 00 00 00
	00		 mov	 DWORD PTR [eax], 0
  00008	c3		 ret	 0
??0?$_Iterator_with_base@Urandom_access_iterator_tag@std@@UFavoriteVolume@CipherShed@@HPBU34@ABU34@V_Iterator_base_aux@2@@std@@QAE@XZ ENDP ; std::_Iterator_with_base<std::random_access_iterator_tag,CipherShed::FavoriteVolume,int,CipherShed::FavoriteVolume const *,CipherShed::FavoriteVolume const &,std::_Iterator_base_aux>::_Iterator_with_base<std::random_access_iterator_tag,CipherShed::FavoriteVolume,int,CipherShed::FavoriteVolume const *,CipherShed::FavoriteVolume const &,std::_Iterator_base_aux>
_TEXT	ENDS
PUBLIC	?_Inside@?$basic_string@DU?$char_traits@D@std@@V?$allocator@D@2@@std@@IAE_NPBD@Z ; std::basic_string<char,std::char_traits<char>,std::allocator<char> >::_Inside
; Function compile flags: /Ogtpy
; File c:\program files (x86)\microsoft visual studio 9.0\vc\include\xstring
;	COMDAT ?_Inside@?$basic_string@DU?$char_traits@D@std@@V?$allocator@D@2@@std@@IAE_NPBD@Z
_TEXT	SEGMENT
__Ptr$ = 8						; size = 4
?_Inside@?$basic_string@DU?$char_traits@D@std@@V?$allocator@D@2@@std@@IAE_NPBD@Z PROC ; std::basic_string<char,std::char_traits<char>,std::allocator<char> >::_Inside, COMDAT
; _this$ = ecx

; 2133 : 		{	// test if _Ptr points inside string

  00000	56		 push	 esi
  00001	57		 push	 edi

; 2134 : 		if (_Ptr == 0 || _Ptr < _Myptr() || _Myptr() + _Mysize <= _Ptr)

  00002	8b 7c 24 0c	 mov	 edi, DWORD PTR __Ptr$[esp+4]
  00006	85 ff		 test	 edi, edi
  00008	74 2c		 je	 SHORT $LN2@Inside
  0000a	8b 71 18	 mov	 esi, DWORD PTR [ecx+24]
  0000d	8d 41 04	 lea	 eax, DWORD PTR [ecx+4]
  00010	83 fe 10	 cmp	 esi, 16			; 00000010H
  00013	72 04		 jb	 SHORT $LN8@Inside
  00015	8b 10		 mov	 edx, DWORD PTR [eax]
  00017	eb 02		 jmp	 SHORT $LN9@Inside
$LN8@Inside:
  00019	8b d0		 mov	 edx, eax
$LN9@Inside:
  0001b	3b fa		 cmp	 edi, edx
  0001d	72 17		 jb	 SHORT $LN2@Inside
  0001f	83 fe 10	 cmp	 esi, 16			; 00000010H
  00022	72 02		 jb	 SHORT $LN12@Inside
  00024	8b 00		 mov	 eax, DWORD PTR [eax]
$LN12@Inside:
  00026	8b 49 14	 mov	 ecx, DWORD PTR [ecx+20]
  00029	03 c8		 add	 ecx, eax
  0002b	3b cf		 cmp	 ecx, edi
  0002d	76 07		 jbe	 SHORT $LN2@Inside
  0002f	5f		 pop	 edi

; 2136 : 		else
; 2137 : 			return (true);

  00030	b0 01		 mov	 al, 1
  00032	5e		 pop	 esi

; 2138 : 		}

  00033	c2 04 00	 ret	 4
$LN2@Inside:
  00036	5f		 pop	 edi

; 2135 : 			return (false);	// don't ask

  00037	32 c0		 xor	 al, al
  00039	5e		 pop	 esi

; 2138 : 		}

  0003a	c2 04 00	 ret	 4
?_Inside@?$basic_string@DU?$char_traits@D@std@@V?$allocator@D@2@@std@@IAE_NPBD@Z ENDP ; std::basic_string<char,std::char_traits<char>,std::allocator<char> >::_Inside
_TEXT	ENDS
PUBLIC	?_Inside@?$basic_string@_WU?$char_traits@_W@std@@V?$allocator@_W@2@@std@@IAE_NPB_W@Z ; std::basic_string<wchar_t,std::char_traits<wchar_t>,std::allocator<wchar_t> >::_Inside
; Function compile flags: /Ogtpy
;	COMDAT ?_Inside@?$basic_string@_WU?$char_traits@_W@std@@V?$allocator@_W@2@@std@@IAE_NPB_W@Z
_TEXT	SEGMENT
__Ptr$ = 8						; size = 4
?_Inside@?$basic_string@_WU?$char_traits@_W@std@@V?$allocator@_W@2@@std@@IAE_NPB_W@Z PROC ; std::basic_string<wchar_t,std::char_traits<wchar_t>,std::allocator<wchar_t> >::_Inside, COMDAT
; _this$ = ecx

; 2133 : 		{	// test if _Ptr points inside string

  00000	56		 push	 esi
  00001	57		 push	 edi

; 2134 : 		if (_Ptr == 0 || _Ptr < _Myptr() || _Myptr() + _Mysize <= _Ptr)

  00002	8b 7c 24 0c	 mov	 edi, DWORD PTR __Ptr$[esp+4]
  00006	85 ff		 test	 edi, edi
  00008	74 2d		 je	 SHORT $LN2@Inside@2
  0000a	8b 71 18	 mov	 esi, DWORD PTR [ecx+24]
  0000d	8d 41 04	 lea	 eax, DWORD PTR [ecx+4]
  00010	83 fe 08	 cmp	 esi, 8
  00013	72 04		 jb	 SHORT $LN8@Inside@2
  00015	8b 10		 mov	 edx, DWORD PTR [eax]
  00017	eb 02		 jmp	 SHORT $LN9@Inside@2
$LN8@Inside@2:
  00019	8b d0		 mov	 edx, eax
$LN9@Inside@2:
  0001b	3b fa		 cmp	 edi, edx
  0001d	72 18		 jb	 SHORT $LN2@Inside@2
  0001f	83 fe 08	 cmp	 esi, 8
  00022	72 02		 jb	 SHORT $LN12@Inside@2
  00024	8b 00		 mov	 eax, DWORD PTR [eax]
$LN12@Inside@2:
  00026	8b 49 14	 mov	 ecx, DWORD PTR [ecx+20]
  00029	8d 14 48	 lea	 edx, DWORD PTR [eax+ecx*2]
  0002c	3b d7		 cmp	 edx, edi
  0002e	76 07		 jbe	 SHORT $LN2@Inside@2
  00030	5f		 pop	 edi

; 2136 : 		else
; 2137 : 			return (true);

  00031	b0 01		 mov	 al, 1
  00033	5e		 pop	 esi

; 2138 : 		}

  00034	c2 04 00	 ret	 4
$LN2@Inside@2:
  00037	5f		 pop	 edi

; 2135 : 			return (false);	// don't ask

  00038	32 c0		 xor	 al, al
  0003a	5e		 pop	 esi

; 2138 : 		}

  0003b	c2 04 00	 ret	 4
?_Inside@?$basic_string@_WU?$char_traits@_W@std@@V?$allocator@_W@2@@std@@IAE_NPB_W@Z ENDP ; std::basic_string<wchar_t,std::char_traits<wchar_t>,std::allocator<wchar_t> >::_Inside
_TEXT	ENDS
PUBLIC	?max_size@?$allocator@UFavoriteVolume@CipherShed@@@std@@QBEIXZ ; std::allocator<CipherShed::FavoriteVolume>::max_size
; Function compile flags: /Ogtpy
; File c:\program files (x86)\microsoft visual studio 9.0\vc\include\xmemory
;	COMDAT ?max_size@?$allocator@UFavoriteVolume@CipherShed@@@std@@QBEIXZ
_TEXT	SEGMENT
?max_size@?$allocator@UFavoriteVolume@CipherShed@@@std@@QBEIXZ PROC ; std::allocator<CipherShed::FavoriteVolume>::max_size, COMDAT
; _this$ = ecx

; 165  : 		_SIZT _Count = (_SIZT)(-1) / sizeof (_Ty);
; 166  : 		return (0 < _Count ? _Count : 1);

  00000	b8 22 22 22 02	 mov	 eax, 35791394		; 02222222H

; 167  : 		}

  00005	c3		 ret	 0
?max_size@?$allocator@UFavoriteVolume@CipherShed@@@std@@QBEIXZ ENDP ; std::allocator<CipherShed::FavoriteVolume>::max_size
_TEXT	ENDS
PUBLIC	?max_size@?$list@UFavoriteVolume@CipherShed@@V?$allocator@UFavoriteVolume@CipherShed@@@std@@@std@@QBEIXZ ; std::list<CipherShed::FavoriteVolume,std::allocator<CipherShed::FavoriteVolume> >::max_size
; Function compile flags: /Ogtpy
; File c:\program files (x86)\microsoft visual studio 9.0\vc\include\list
;	COMDAT ?max_size@?$list@UFavoriteVolume@CipherShed@@V?$allocator@UFavoriteVolume@CipherShed@@@std@@@std@@QBEIXZ
_TEXT	SEGMENT
?max_size@?$list@UFavoriteVolume@CipherShed@@V?$allocator@UFavoriteVolume@CipherShed@@@std@@@std@@QBEIXZ PROC ; std::list<CipherShed::FavoriteVolume,std::allocator<CipherShed::FavoriteVolume> >::max_size, COMDAT
; _this$ = ecx

; 625  : 		return (this->_Alval.max_size());

  00000	b8 22 22 22 02	 mov	 eax, 35791394		; 02222222H

; 626  : 		}

  00005	c3		 ret	 0
?max_size@?$list@UFavoriteVolume@CipherShed@@V?$allocator@UFavoriteVolume@CipherShed@@@std@@@std@@QBEIXZ ENDP ; std::list<CipherShed::FavoriteVolume,std::allocator<CipherShed::FavoriteVolume> >::max_size
_TEXT	ENDS
PUBLIC	??G?$_String_const_iterator@_WU?$char_traits@_W@std@@V?$allocator@_W@2@@std@@QBEHABV01@@Z ; std::_String_const_iterator<wchar_t,std::char_traits<wchar_t>,std::allocator<wchar_t> >::operator-
; Function compile flags: /Ogtpy
; File c:\program files (x86)\microsoft visual studio 9.0\vc\include\xstring
;	COMDAT ??G?$_String_const_iterator@_WU?$char_traits@_W@std@@V?$allocator@_W@2@@std@@QBEHABV01@@Z
_TEXT	SEGMENT
__Right$ = 8						; size = 4
??G?$_String_const_iterator@_WU?$char_traits@_W@std@@V?$allocator@_W@2@@std@@QBEHABV01@@Z PROC ; std::_String_const_iterator<wchar_t,std::char_traits<wchar_t>,std::allocator<wchar_t> >::operator-, COMDAT
; _this$ = ecx

; 199  : 		{	// return difference of iterators

  00000	56		 push	 esi
  00001	8b f1		 mov	 esi, ecx

; 200  : 
; 201  :  #if _HAS_ITERATOR_DEBUGGING
; 202  : 		_Compat(_Right);
; 203  :  #else
; 204  : 		if (this->_Mycont != _IGNORE_MYCONT)

  00003	8b 06		 mov	 eax, DWORD PTR [esi]
  00005	57		 push	 edi
  00006	8b 7c 24 0c	 mov	 edi, DWORD PTR __Right$[esp+4]
  0000a	83 f8 fc	 cmp	 eax, -4			; fffffffcH
  0000d	74 0d		 je	 SHORT $LN1@operator@8

; 205  : 		{
; 206  : 			_SCL_SECURE_VALIDATE(this->_Has_container() && this->_Same_container(_Right));

  0000f	85 c0		 test	 eax, eax
  00011	74 04		 je	 SHORT $LN4@operator@8
  00013	3b 07		 cmp	 eax, DWORD PTR [edi]
  00015	74 05		 je	 SHORT $LN1@operator@8
$LN4@operator@8:
  00017	e8 00 00 00 00	 call	 __invalid_parameter_noinfo
$LN1@operator@8:

; 207  : 		}
; 208  :  #endif /* _HAS_ITERATOR_DEBUGGING */
; 209  : 
; 210  : 		return (_Myptr - _Right._Myptr);

  0001c	8b 46 04	 mov	 eax, DWORD PTR [esi+4]
  0001f	2b 47 04	 sub	 eax, DWORD PTR [edi+4]
  00022	5f		 pop	 edi
  00023	d1 f8		 sar	 eax, 1
  00025	5e		 pop	 esi

; 211  : 		}

  00026	c2 04 00	 ret	 4
??G?$_String_const_iterator@_WU?$char_traits@_W@std@@V?$allocator@_W@2@@std@@QBEHABV01@@Z ENDP ; std::_String_const_iterator<wchar_t,std::char_traits<wchar_t>,std::allocator<wchar_t> >::operator-
_TEXT	ENDS
PUBLIC	??0?$_Ranit_base@_WHPB_WAB_WV_Iterator_base_secure@std@@@std@@QAE@XZ ; std::_Ranit_base<wchar_t,int,wchar_t const *,wchar_t const &,std::_Iterator_base_secure>::_Ranit_base<wchar_t,int,wchar_t const *,wchar_t const &,std::_Iterator_base_secure>
; Function compile flags: /Ogtpy
;	COMDAT ??0?$_Ranit_base@_WHPB_WAB_WV_Iterator_base_secure@std@@@std@@QAE@XZ
_TEXT	SEGMENT
??0?$_Ranit_base@_WHPB_WAB_WV_Iterator_base_secure@std@@@std@@QAE@XZ PROC ; std::_Ranit_base<wchar_t,int,wchar_t const *,wchar_t const &,std::_Iterator_base_secure>::_Ranit_base<wchar_t,int,wchar_t const *,wchar_t const &,std::_Iterator_base_secure>, COMDAT
; _this$ = ecx
  00000	8b c1		 mov	 eax, ecx
  00002	c7 00 00 00 00
	00		 mov	 DWORD PTR [eax], 0
  00008	c3		 ret	 0
??0?$_Ranit_base@_WHPB_WAB_WV_Iterator_base_secure@std@@@std@@QAE@XZ ENDP ; std::_Ranit_base<wchar_t,int,wchar_t const *,wchar_t const &,std::_Iterator_base_secure>::_Ranit_base<wchar_t,int,wchar_t const *,wchar_t const &,std::_Iterator_base_secure>
_TEXT	ENDS
PUBLIC	??0?$_Iterator_with_base@Ubidirectional_iterator_tag@std@@UFavoriteVolume@CipherShed@@HPBU34@ABU34@V_Iterator_base_aux@2@@std@@QAE@XZ ; std::_Iterator_with_base<std::bidirectional_iterator_tag,CipherShed::FavoriteVolume,int,CipherShed::FavoriteVolume const *,CipherShed::FavoriteVolume const &,std::_Iterator_base_aux>::_Iterator_with_base<std::bidirectional_iterator_tag,CipherShed::FavoriteVolume,int,CipherShed::FavoriteVolume const *,CipherShed::FavoriteVolume const &,std::_Iterator_base_aux>
; Function compile flags: /Ogtpy
;	COMDAT ??0?$_Iterator_with_base@Ubidirectional_iterator_tag@std@@UFavoriteVolume@CipherShed@@HPBU34@ABU34@V_Iterator_base_aux@2@@std@@QAE@XZ
_TEXT	SEGMENT
??0?$_Iterator_with_base@Ubidirectional_iterator_tag@std@@UFavoriteVolume@CipherShed@@HPBU34@ABU34@V_Iterator_base_aux@2@@std@@QAE@XZ PROC ; std::_Iterator_with_base<std::bidirectional_iterator_tag,CipherShed::FavoriteVolume,int,CipherShed::FavoriteVolume const *,CipherShed::FavoriteVolume const &,std::_Iterator_base_aux>::_Iterator_with_base<std::bidirectional_iterator_tag,CipherShed::FavoriteVolume,int,CipherShed::FavoriteVolume const *,CipherShed::FavoriteVolume const &,std::_Iterator_base_aux>, COMDAT
; _this$ = ecx
  00000	8b c1		 mov	 eax, ecx
  00002	c7 00 00 00 00
	00		 mov	 DWORD PTR [eax], 0
  00008	c3		 ret	 0
??0?$_Iterator_with_base@Ubidirectional_iterator_tag@std@@UFavoriteVolume@CipherShed@@HPBU34@ABU34@V_Iterator_base_aux@2@@std@@QAE@XZ ENDP ; std::_Iterator_with_base<std::bidirectional_iterator_tag,CipherShed::FavoriteVolume,int,CipherShed::FavoriteVolume const *,CipherShed::FavoriteVolume const &,std::_Iterator_base_aux>::_Iterator_with_base<std::bidirectional_iterator_tag,CipherShed::FavoriteVolume,int,CipherShed::FavoriteVolume const *,CipherShed::FavoriteVolume const &,std::_Iterator_base_aux>
_TEXT	ENDS
PUBLIC	?max_size@?$allocator@D@std@@QBEIXZ		; std::allocator<char>::max_size
; Function compile flags: /Ogtpy
; File c:\program files (x86)\microsoft visual studio 9.0\vc\include\xmemory
;	COMDAT ?max_size@?$allocator@D@std@@QBEIXZ
_TEXT	SEGMENT
?max_size@?$allocator@D@std@@QBEIXZ PROC		; std::allocator<char>::max_size, COMDAT
; _this$ = ecx

; 165  : 		_SIZT _Count = (_SIZT)(-1) / sizeof (_Ty);
; 166  : 		return (0 < _Count ? _Count : 1);

  00000	83 c8 ff	 or	 eax, -1

; 167  : 		}

  00003	c3		 ret	 0
?max_size@?$allocator@D@std@@QBEIXZ ENDP		; std::allocator<char>::max_size
_TEXT	ENDS
PUBLIC	?max_size@?$allocator@_W@std@@QBEIXZ		; std::allocator<wchar_t>::max_size
; Function compile flags: /Ogtpy
;	COMDAT ?max_size@?$allocator@_W@std@@QBEIXZ
_TEXT	SEGMENT
?max_size@?$allocator@_W@std@@QBEIXZ PROC		; std::allocator<wchar_t>::max_size, COMDAT
; _this$ = ecx

; 165  : 		_SIZT _Count = (_SIZT)(-1) / sizeof (_Ty);
; 166  : 		return (0 < _Count ? _Count : 1);

  00000	b8 ff ff ff 7f	 mov	 eax, 2147483647		; 7fffffffH

; 167  : 		}

  00005	c3		 ret	 0
?max_size@?$allocator@_W@std@@QBEIXZ ENDP		; std::allocator<wchar_t>::max_size
_TEXT	ENDS
PUBLIC	??$ToTypeWrapper@V?$vector@UFavoriteVolume@CipherShed@@V?$allocator@UFavoriteVolume@CipherShed@@@std@@@std@@@ForEach@CipherShed@@SA?AU?$TypeWrapper@V?$vector@UFavoriteVolume@CipherShed@@V?$allocator@UFavoriteVolume@CipherShed@@@std@@@std@@@01@ABV?$vector@UFavoriteVolume@CipherShed@@V?$allocator@UFavoriteVolume@CipherShed@@@std@@@std@@@Z ; CipherShed::ForEach::ToTypeWrapper<std::vector<CipherShed::FavoriteVolume,std::allocator<CipherShed::FavoriteVolume> > >
; Function compile flags: /Ogtpy
; File c:\home\public\desktop\projects\ciphershed\src\platform\foreach.h
;	COMDAT ??$ToTypeWrapper@V?$vector@UFavoriteVolume@CipherShed@@V?$allocator@UFavoriteVolume@CipherShed@@@std@@@std@@@ForEach@CipherShed@@SA?AU?$TypeWrapper@V?$vector@UFavoriteVolume@CipherShed@@V?$allocator@UFavoriteVolume@CipherShed@@@std@@@std@@@01@ABV?$vector@UFavoriteVolume@CipherShed@@V?$allocator@UFavoriteVolume@CipherShed@@@std@@@std@@@Z
_TEXT	SEGMENT
_x$ = 8							; size = 4
??$ToTypeWrapper@V?$vector@UFavoriteVolume@CipherShed@@V?$allocator@UFavoriteVolume@CipherShed@@@std@@@std@@@ForEach@CipherShed@@SA?AU?$TypeWrapper@V?$vector@UFavoriteVolume@CipherShed@@V?$allocator@UFavoriteVolume@CipherShed@@@std@@@std@@@01@ABV?$vector@UFavoriteVolume@CipherShed@@V?$allocator@UFavoriteVolume@CipherShed@@@std@@@std@@@Z PROC ; CipherShed::ForEach::ToTypeWrapper<std::vector<CipherShed::FavoriteVolume,std::allocator<CipherShed::FavoriteVolume> > >, COMDAT

; 85   : 		static TypeWrapper <T> ToTypeWrapper (const T &x) { return TypeWrapper <T> (); }

  00000	32 c0		 xor	 al, al
  00002	c3		 ret	 0
??$ToTypeWrapper@V?$vector@UFavoriteVolume@CipherShed@@V?$allocator@UFavoriteVolume@CipherShed@@@std@@@std@@@ForEach@CipherShed@@SA?AU?$TypeWrapper@V?$vector@UFavoriteVolume@CipherShed@@V?$allocator@UFavoriteVolume@CipherShed@@@std@@@std@@@01@ABV?$vector@UFavoriteVolume@CipherShed@@V?$allocator@UFavoriteVolume@CipherShed@@@std@@@std@@@Z ENDP ; CipherShed::ForEach::ToTypeWrapper<std::vector<CipherShed::FavoriteVolume,std::allocator<CipherShed::FavoriteVolume> > >
_TEXT	ENDS
PUBLIC	??$?BV?$vector@UFavoriteVolume@CipherShed@@V?$allocator@UFavoriteVolume@CipherShed@@@std@@@std@@@TypeWrapperDummy@ForEach@CipherShed@@QBE?AU?$TypeWrapper@V?$vector@UFavoriteVolume@CipherShed@@V?$allocator@UFavoriteVolume@CipherShed@@@std@@@std@@@12@XZ ; CipherShed::ForEach::TypeWrapperDummy::operator<std::vector<CipherShed::FavoriteVolume,std::allocator<CipherShed::FavoriteVolume> > > CipherShed::ForEach::TypeWrapper<std::vector<CipherShed::FavoriteVolume,std::allocator<CipherShed::FavoriteVolume> > >
; Function compile flags: /Ogtpy
;	COMDAT ??$?BV?$vector@UFavoriteVolume@CipherShed@@V?$allocator@UFavoriteVolume@CipherShed@@@std@@@std@@@TypeWrapperDummy@ForEach@CipherShed@@QBE?AU?$TypeWrapper@V?$vector@UFavoriteVolume@CipherShed@@V?$allocator@UFavoriteVolume@CipherShed@@@std@@@std@@@12@XZ
_TEXT	SEGMENT
___$ReturnUdt$ = 8					; size = 4
??$?BV?$vector@UFavoriteVolume@CipherShed@@V?$allocator@UFavoriteVolume@CipherShed@@@std@@@std@@@TypeWrapperDummy@ForEach@CipherShed@@QBE?AU?$TypeWrapper@V?$vector@UFavoriteVolume@CipherShed@@V?$allocator@UFavoriteVolume@CipherShed@@@std@@@std@@@12@XZ PROC ; CipherShed::ForEach::TypeWrapperDummy::operator<std::vector<CipherShed::FavoriteVolume,std::allocator<CipherShed::FavoriteVolume> > > CipherShed::ForEach::TypeWrapper<std::vector<CipherShed::FavoriteVolume,std::allocator<CipherShed::FavoriteVolume> > >, COMDAT
; _this$ = ecx

; 90   : 			operator TypeWrapper <T> () const { return TypeWrapper <T> (); }

  00000	8b 44 24 04	 mov	 eax, DWORD PTR ___$ReturnUdt$[esp-4]
  00004	c2 04 00	 ret	 4
??$?BV?$vector@UFavoriteVolume@CipherShed@@V?$allocator@UFavoriteVolume@CipherShed@@@std@@@std@@@TypeWrapperDummy@ForEach@CipherShed@@QBE?AU?$TypeWrapper@V?$vector@UFavoriteVolume@CipherShed@@V?$allocator@UFavoriteVolume@CipherShed@@@std@@@std@@@12@XZ ENDP ; CipherShed::ForEach::TypeWrapperDummy::operator<std::vector<CipherShed::FavoriteVolume,std::allocator<CipherShed::FavoriteVolume> > > CipherShed::ForEach::TypeWrapper<std::vector<CipherShed::FavoriteVolume,std::allocator<CipherShed::FavoriteVolume> > >
_TEXT	ENDS
PUBLIC	??$GetContainerForward@V?$vector@UFavoriteVolume@CipherShed@@V?$allocator@UFavoriteVolume@CipherShed@@@std@@@std@@@ForEach@CipherShed@@SAABU?$ContainerForward@V?$vector@UFavoriteVolume@CipherShed@@V?$allocator@UFavoriteVolume@CipherShed@@@std@@@std@@@01@ABUContainer@01@ABU?$TypeWrapper@V?$vector@UFavoriteVolume@CipherShed@@V?$allocator@UFavoriteVolume@CipherShed@@@std@@@std@@@01@@Z ; CipherShed::ForEach::GetContainerForward<std::vector<CipherShed::FavoriteVolume,std::allocator<CipherShed::FavoriteVolume> > >
; Function compile flags: /Ogtpy
;	COMDAT ??$GetContainerForward@V?$vector@UFavoriteVolume@CipherShed@@V?$allocator@UFavoriteVolume@CipherShed@@@std@@@std@@@ForEach@CipherShed@@SAABU?$ContainerForward@V?$vector@UFavoriteVolume@CipherShed@@V?$allocator@UFavoriteVolume@CipherShed@@@std@@@std@@@01@ABUContainer@01@ABU?$TypeWrapper@V?$vector@UFavoriteVolume@CipherShed@@V?$allocator@UFavoriteVolume@CipherShed@@@std@@@std@@@01@@Z
_TEXT	SEGMENT
_forEachContainer$ = 8					; size = 4
___formal$ = 12						; size = 4
??$GetContainerForward@V?$vector@UFavoriteVolume@CipherShed@@V?$allocator@UFavoriteVolume@CipherShed@@@std@@@std@@@ForEach@CipherShed@@SAABU?$ContainerForward@V?$vector@UFavoriteVolume@CipherShed@@V?$allocator@UFavoriteVolume@CipherShed@@@std@@@std@@@01@ABUContainer@01@ABU?$TypeWrapper@V?$vector@UFavoriteVolume@CipherShed@@V?$allocator@UFavoriteVolume@CipherShed@@@std@@@std@@@01@@Z PROC ; CipherShed::ForEach::GetContainerForward<std::vector<CipherShed::FavoriteVolume,std::allocator<CipherShed::FavoriteVolume> > >, COMDAT

; 96   : 			return static_cast <const ContainerForward <T> &> (forEachContainer);

  00000	8b 44 24 04	 mov	 eax, DWORD PTR _forEachContainer$[esp-4]

; 97   : 		}

  00004	c3		 ret	 0
??$GetContainerForward@V?$vector@UFavoriteVolume@CipherShed@@V?$allocator@UFavoriteVolume@CipherShed@@@std@@@std@@@ForEach@CipherShed@@SAABU?$ContainerForward@V?$vector@UFavoriteVolume@CipherShed@@V?$allocator@UFavoriteVolume@CipherShed@@@std@@@std@@@01@ABUContainer@01@ABU?$TypeWrapper@V?$vector@UFavoriteVolume@CipherShed@@V?$allocator@UFavoriteVolume@CipherShed@@@std@@@std@@@01@@Z ENDP ; CipherShed::ForEach::GetContainerForward<std::vector<CipherShed::FavoriteVolume,std::allocator<CipherShed::FavoriteVolume> > >
_TEXT	ENDS
PUBLIC	??$ToTypeWrapper@V?$list@UFavoriteVolume@CipherShed@@V?$allocator@UFavoriteVolume@CipherShed@@@std@@@std@@@ForEach@CipherShed@@SA?AU?$TypeWrapper@V?$list@UFavoriteVolume@CipherShed@@V?$allocator@UFavoriteVolume@CipherShed@@@std@@@std@@@01@ABV?$list@UFavoriteVolume@CipherShed@@V?$allocator@UFavoriteVolume@CipherShed@@@std@@@std@@@Z ; CipherShed::ForEach::ToTypeWrapper<std::list<CipherShed::FavoriteVolume,std::allocator<CipherShed::FavoriteVolume> > >
; Function compile flags: /Ogtpy
;	COMDAT ??$ToTypeWrapper@V?$list@UFavoriteVolume@CipherShed@@V?$allocator@UFavoriteVolume@CipherShed@@@std@@@std@@@ForEach@CipherShed@@SA?AU?$TypeWrapper@V?$list@UFavoriteVolume@CipherShed@@V?$allocator@UFavoriteVolume@CipherShed@@@std@@@std@@@01@ABV?$list@UFavoriteVolume@CipherShed@@V?$allocator@UFavoriteVolume@CipherShed@@@std@@@std@@@Z
_TEXT	SEGMENT
_x$ = 8							; size = 4
??$ToTypeWrapper@V?$list@UFavoriteVolume@CipherShed@@V?$allocator@UFavoriteVolume@CipherShed@@@std@@@std@@@ForEach@CipherShed@@SA?AU?$TypeWrapper@V?$list@UFavoriteVolume@CipherShed@@V?$allocator@UFavoriteVolume@CipherShed@@@std@@@std@@@01@ABV?$list@UFavoriteVolume@CipherShed@@V?$allocator@UFavoriteVolume@CipherShed@@@std@@@std@@@Z PROC ; CipherShed::ForEach::ToTypeWrapper<std::list<CipherShed::FavoriteVolume,std::allocator<CipherShed::FavoriteVolume> > >, COMDAT

; 85   : 		static TypeWrapper <T> ToTypeWrapper (const T &x) { return TypeWrapper <T> (); }

  00000	32 c0		 xor	 al, al
  00002	c3		 ret	 0
??$ToTypeWrapper@V?$list@UFavoriteVolume@CipherShed@@V?$allocator@UFavoriteVolume@CipherShed@@@std@@@std@@@ForEach@CipherShed@@SA?AU?$TypeWrapper@V?$list@UFavoriteVolume@CipherShed@@V?$allocator@UFavoriteVolume@CipherShed@@@std@@@std@@@01@ABV?$list@UFavoriteVolume@CipherShed@@V?$allocator@UFavoriteVolume@CipherShed@@@std@@@std@@@Z ENDP ; CipherShed::ForEach::ToTypeWrapper<std::list<CipherShed::FavoriteVolume,std::allocator<CipherShed::FavoriteVolume> > >
_TEXT	ENDS
PUBLIC	??$?BV?$list@UFavoriteVolume@CipherShed@@V?$allocator@UFavoriteVolume@CipherShed@@@std@@@std@@@TypeWrapperDummy@ForEach@CipherShed@@QBE?AU?$TypeWrapper@V?$list@UFavoriteVolume@CipherShed@@V?$allocator@UFavoriteVolume@CipherShed@@@std@@@std@@@12@XZ ; CipherShed::ForEach::TypeWrapperDummy::operator<std::list<CipherShed::FavoriteVolume,std::allocator<CipherShed::FavoriteVolume> > > CipherShed::ForEach::TypeWrapper<std::list<CipherShed::FavoriteVolume,std::allocator<CipherShed::FavoriteVolume> > >
; Function compile flags: /Ogtpy
;	COMDAT ??$?BV?$list@UFavoriteVolume@CipherShed@@V?$allocator@UFavoriteVolume@CipherShed@@@std@@@std@@@TypeWrapperDummy@ForEach@CipherShed@@QBE?AU?$TypeWrapper@V?$list@UFavoriteVolume@CipherShed@@V?$allocator@UFavoriteVolume@CipherShed@@@std@@@std@@@12@XZ
_TEXT	SEGMENT
___$ReturnUdt$ = 8					; size = 4
??$?BV?$list@UFavoriteVolume@CipherShed@@V?$allocator@UFavoriteVolume@CipherShed@@@std@@@std@@@TypeWrapperDummy@ForEach@CipherShed@@QBE?AU?$TypeWrapper@V?$list@UFavoriteVolume@CipherShed@@V?$allocator@UFavoriteVolume@CipherShed@@@std@@@std@@@12@XZ PROC ; CipherShed::ForEach::TypeWrapperDummy::operator<std::list<CipherShed::FavoriteVolume,std::allocator<CipherShed::FavoriteVolume> > > CipherShed::ForEach::TypeWrapper<std::list<CipherShed::FavoriteVolume,std::allocator<CipherShed::FavoriteVolume> > >, COMDAT
; _this$ = ecx

; 90   : 			operator TypeWrapper <T> () const { return TypeWrapper <T> (); }

  00000	8b 44 24 04	 mov	 eax, DWORD PTR ___$ReturnUdt$[esp-4]
  00004	c2 04 00	 ret	 4
??$?BV?$list@UFavoriteVolume@CipherShed@@V?$allocator@UFavoriteVolume@CipherShed@@@std@@@std@@@TypeWrapperDummy@ForEach@CipherShed@@QBE?AU?$TypeWrapper@V?$list@UFavoriteVolume@CipherShed@@V?$allocator@UFavoriteVolume@CipherShed@@@std@@@std@@@12@XZ ENDP ; CipherShed::ForEach::TypeWrapperDummy::operator<std::list<CipherShed::FavoriteVolume,std::allocator<CipherShed::FavoriteVolume> > > CipherShed::ForEach::TypeWrapper<std::list<CipherShed::FavoriteVolume,std::allocator<CipherShed::FavoriteVolume> > >
_TEXT	ENDS
PUBLIC	??$GetContainerForward@V?$list@UFavoriteVolume@CipherShed@@V?$allocator@UFavoriteVolume@CipherShed@@@std@@@std@@@ForEach@CipherShed@@SAABU?$ContainerForward@V?$list@UFavoriteVolume@CipherShed@@V?$allocator@UFavoriteVolume@CipherShed@@@std@@@std@@@01@ABUContainer@01@ABU?$TypeWrapper@V?$list@UFavoriteVolume@CipherShed@@V?$allocator@UFavoriteVolume@CipherShed@@@std@@@std@@@01@@Z ; CipherShed::ForEach::GetContainerForward<std::list<CipherShed::FavoriteVolume,std::allocator<CipherShed::FavoriteVolume> > >
; Function compile flags: /Ogtpy
;	COMDAT ??$GetContainerForward@V?$list@UFavoriteVolume@CipherShed@@V?$allocator@UFavoriteVolume@CipherShed@@@std@@@std@@@ForEach@CipherShed@@SAABU?$ContainerForward@V?$list@UFavoriteVolume@CipherShed@@V?$allocator@UFavoriteVolume@CipherShed@@@std@@@std@@@01@ABUContainer@01@ABU?$TypeWrapper@V?$list@UFavoriteVolume@CipherShed@@V?$allocator@UFavoriteVolume@CipherShed@@@std@@@std@@@01@@Z
_TEXT	SEGMENT
_forEachContainer$ = 8					; size = 4
___formal$ = 12						; size = 4
??$GetContainerForward@V?$list@UFavoriteVolume@CipherShed@@V?$allocator@UFavoriteVolume@CipherShed@@@std@@@std@@@ForEach@CipherShed@@SAABU?$ContainerForward@V?$list@UFavoriteVolume@CipherShed@@V?$allocator@UFavoriteVolume@CipherShed@@@std@@@std@@@01@ABUContainer@01@ABU?$TypeWrapper@V?$list@UFavoriteVolume@CipherShed@@V?$allocator@UFavoriteVolume@CipherShed@@@std@@@std@@@01@@Z PROC ; CipherShed::ForEach::GetContainerForward<std::list<CipherShed::FavoriteVolume,std::allocator<CipherShed::FavoriteVolume> > >, COMDAT

; 96   : 			return static_cast <const ContainerForward <T> &> (forEachContainer);

  00000	8b 44 24 04	 mov	 eax, DWORD PTR _forEachContainer$[esp-4]

; 97   : 		}

  00004	c3		 ret	 0
??$GetContainerForward@V?$list@UFavoriteVolume@CipherShed@@V?$allocator@UFavoriteVolume@CipherShed@@@std@@@std@@@ForEach@CipherShed@@SAABU?$ContainerForward@V?$list@UFavoriteVolume@CipherShed@@V?$allocator@UFavoriteVolume@CipherShed@@@std@@@std@@@01@ABUContainer@01@ABU?$TypeWrapper@V?$list@UFavoriteVolume@CipherShed@@V?$allocator@UFavoriteVolume@CipherShed@@@std@@@std@@@01@@Z ENDP ; CipherShed::ForEach::GetContainerForward<std::list<CipherShed::FavoriteVolume,std::allocator<CipherShed::FavoriteVolume> > >
_TEXT	ENDS
PUBLIC	??$?0UFavoriteVolume@CipherShed@@@?$allocator@V_Aux_cont@std@@@std@@QAE@ABV?$allocator@UFavoriteVolume@CipherShed@@@1@@Z ; std::allocator<std::_Aux_cont>::allocator<std::_Aux_cont><CipherShed::FavoriteVolume>
; Function compile flags: /Ogtpy
; File c:\program files (x86)\microsoft visual studio 9.0\vc\include\xmemory
;	COMDAT ??$?0UFavoriteVolume@CipherShed@@@?$allocator@V_Aux_cont@std@@@std@@QAE@ABV?$allocator@UFavoriteVolume@CipherShed@@@1@@Z
_TEXT	SEGMENT
___formal$ = 8						; size = 4
??$?0UFavoriteVolume@CipherShed@@@?$allocator@V_Aux_cont@std@@@std@@QAE@ABV?$allocator@UFavoriteVolume@CipherShed@@@1@@Z PROC ; std::allocator<std::_Aux_cont>::allocator<std::_Aux_cont><CipherShed::FavoriteVolume>, COMDAT
; _this$ = ecx

; 128  : 		allocator(const allocator<_Other>&) _THROW0()

  00000	8b c1		 mov	 eax, ecx

; 129  : 		{	// construct from a related allocator (do nothing)
; 130  : 		}

  00002	c2 04 00	 ret	 4
??$?0UFavoriteVolume@CipherShed@@@?$allocator@V_Aux_cont@std@@@std@@QAE@ABV?$allocator@UFavoriteVolume@CipherShed@@@1@@Z ENDP ; std::allocator<std::_Aux_cont>::allocator<std::_Aux_cont><CipherShed::FavoriteVolume>
_TEXT	ENDS
PUBLIC	__TI2?AVbad_alloc@std@@
PUBLIC	??$_Allocate@UFavoriteVolume@CipherShed@@@std@@YAPAUFavoriteVolume@CipherShed@@IPAU12@@Z ; std::_Allocate<CipherShed::FavoriteVolume>
PUBLIC	__CTA2?AVbad_alloc@std@@
PUBLIC	__CT??_R0?AVbad_alloc@std@@@8??0bad_alloc@std@@QAE@ABV01@@Z12
PUBLIC	??0bad_alloc@std@@QAE@ABV01@@Z			; std::bad_alloc::bad_alloc
PUBLIC	__CT??_R0?AVexception@std@@@8??0exception@std@@QAE@ABV01@@Z12
EXTRN	??2@YAPAXI@Z:PROC				; operator new
EXTRN	__CxxThrowException@8:PROC
EXTRN	??0exception@std@@QAE@ABV01@@Z:PROC		; std::exception::exception
;	COMDAT __CT??_R0?AVexception@std@@@8??0exception@std@@QAE@ABV01@@Z12
; File c:\program files (x86)\microsoft visual studio 9.0\vc\include\exception
xdata$x	SEGMENT
__CT??_R0?AVexception@std@@@8??0exception@std@@QAE@ABV01@@Z12 DD 00H
	DD	FLAT:??_R0?AVexception@std@@@8
	DD	00H
	DD	0ffffffffH
	ORG $+4
	DD	0cH
	DD	FLAT:??0exception@std@@QAE@ABV01@@Z
xdata$x	ENDS
;	COMDAT __CT??_R0?AVbad_alloc@std@@@8??0bad_alloc@std@@QAE@ABV01@@Z12
xdata$x	SEGMENT
__CT??_R0?AVbad_alloc@std@@@8??0bad_alloc@std@@QAE@ABV01@@Z12 DD 00H
	DD	FLAT:??_R0?AVbad_alloc@std@@@8
	DD	00H
	DD	0ffffffffH
	ORG $+4
	DD	0cH
	DD	FLAT:??0bad_alloc@std@@QAE@ABV01@@Z
xdata$x	ENDS
;	COMDAT __CTA2?AVbad_alloc@std@@
xdata$x	SEGMENT
__CTA2?AVbad_alloc@std@@ DD 02H
	DD	FLAT:__CT??_R0?AVbad_alloc@std@@@8??0bad_alloc@std@@QAE@ABV01@@Z12
	DD	FLAT:__CT??_R0?AVexception@std@@@8??0exception@std@@QAE@ABV01@@Z12
xdata$x	ENDS
;	COMDAT __TI2?AVbad_alloc@std@@
xdata$x	SEGMENT
__TI2?AVbad_alloc@std@@ DD 00H
	DD	FLAT:??1bad_alloc@std@@UAE@XZ
	DD	00H
	DD	FLAT:__CTA2?AVbad_alloc@std@@
; Function compile flags: /Ogtpy
; File c:\program files (x86)\microsoft visual studio 9.0\vc\include\xmemory
xdata$x	ENDS
;	COMDAT ??$_Allocate@UFavoriteVolume@CipherShed@@@std@@YAPAUFavoriteVolume@CipherShed@@IPAU12@@Z
_TEXT	SEGMENT
$T123589 = -12						; size = 12
$T123594 = 8						; size = 4
__Count$ = 8						; size = 4
___formal$ = 12						; size = 4
??$_Allocate@UFavoriteVolume@CipherShed@@@std@@YAPAUFavoriteVolume@CipherShed@@IPAU12@@Z PROC ; std::_Allocate<CipherShed::FavoriteVolume>, COMDAT

; 37   : 	if (_Count <= 0)

  00000	8b 4c 24 04	 mov	 ecx, DWORD PTR __Count$[esp-4]
  00004	83 ec 0c	 sub	 esp, 12			; 0000000cH
  00007	85 c9		 test	 ecx, ecx
  00009	77 1c		 ja	 SHORT $LN3@Allocate

; 38   : 		_Count = 0;

  0000b	33 c9		 xor	 ecx, ecx
$LN1@Allocate:

; 41   : 
; 42   : 		// allocate storage for _Count elements of type _Ty
; 43   : 	return ((_Ty _FARQ *)::operator new(_Count * sizeof (_Ty)));

  0000d	8b d1		 mov	 edx, ecx
  0000f	c1 e2 04	 shl	 edx, 4
  00012	2b d1		 sub	 edx, ecx
  00014	03 d2		 add	 edx, edx
  00016	03 d2		 add	 edx, edx
  00018	03 d2		 add	 edx, edx
  0001a	52		 push	 edx
  0001b	e8 00 00 00 00	 call	 ??2@YAPAXI@Z		; operator new
  00020	83 c4 04	 add	 esp, 4

; 44   : 	}

  00023	83 c4 0c	 add	 esp, 12			; 0000000cH
  00026	c3		 ret	 0
$LN3@Allocate:

; 39   : 	else if (((_SIZT)(-1) / _Count) < sizeof (_Ty))

  00027	83 c8 ff	 or	 eax, -1
  0002a	33 d2		 xor	 edx, edx
  0002c	f7 f1		 div	 ecx
  0002e	83 f8 78	 cmp	 eax, 120		; 00000078H
  00031	73 da		 jae	 SHORT $LN1@Allocate

; 40   : 		_THROW_NCEE(std::bad_alloc, NULL);

  00033	8d 44 24 10	 lea	 eax, DWORD PTR $T123594[esp+8]
  00037	50		 push	 eax
  00038	8d 4c 24 04	 lea	 ecx, DWORD PTR $T123589[esp+16]
  0003c	c7 44 24 14 00
	00 00 00	 mov	 DWORD PTR $T123594[esp+12], 0
  00044	e8 00 00 00 00	 call	 ??0exception@std@@QAE@ABQBD@Z ; std::exception::exception
  00049	68 00 00 00 00	 push	 OFFSET __TI2?AVbad_alloc@std@@
  0004e	8d 4c 24 04	 lea	 ecx, DWORD PTR $T123589[esp+16]
  00052	51		 push	 ecx
  00053	c7 44 24 08 00
	00 00 00	 mov	 DWORD PTR $T123589[esp+20], OFFSET ??_7bad_alloc@std@@6B@
  0005b	e8 00 00 00 00	 call	 __CxxThrowException@8
$LN8@Allocate:
  00060	cc		 int	 3
??$_Allocate@UFavoriteVolume@CipherShed@@@std@@YAPAUFavoriteVolume@CipherShed@@IPAU12@@Z ENDP ; std::_Allocate<CipherShed::FavoriteVolume>
; Function compile flags: /Ogtpy
_TEXT	ENDS
;	COMDAT ??0bad_alloc@std@@QAE@ABV01@@Z
_TEXT	SEGMENT
___that$ = 8						; size = 4
??0bad_alloc@std@@QAE@ABV01@@Z PROC			; std::bad_alloc::bad_alloc, COMDAT
; _this$ = ecx
  00000	8b 44 24 04	 mov	 eax, DWORD PTR ___that$[esp-4]
  00004	56		 push	 esi
  00005	50		 push	 eax
  00006	8b f1		 mov	 esi, ecx
  00008	e8 00 00 00 00	 call	 ??0exception@std@@QAE@ABV01@@Z ; std::exception::exception
  0000d	c7 06 00 00 00
	00		 mov	 DWORD PTR [esi], OFFSET ??_7bad_alloc@std@@6B@
  00013	8b c6		 mov	 eax, esi
  00015	5e		 pop	 esi
  00016	c2 04 00	 ret	 4
??0bad_alloc@std@@QAE@ABV01@@Z ENDP			; std::bad_alloc::bad_alloc
_TEXT	ENDS
PUBLIC	??$?0UFavoriteVolume@CipherShed@@@?$allocator@PAU_Node@?$_List_nod@UFavoriteVolume@CipherShed@@V?$allocator@UFavoriteVolume@CipherShed@@@std@@@std@@@std@@QAE@ABV?$allocator@UFavoriteVolume@CipherShed@@@1@@Z ; std::allocator<std::_List_nod<CipherShed::FavoriteVolume,std::allocator<CipherShed::FavoriteVolume> >::_Node *>::allocator<std::_List_nod<CipherShed::FavoriteVolume,std::allocator<CipherShed::FavoriteVolume> >::_Node *><CipherShed::FavoriteVolume>
; Function compile flags: /Ogtpy
;	COMDAT ??$?0UFavoriteVolume@CipherShed@@@?$allocator@PAU_Node@?$_List_nod@UFavoriteVolume@CipherShed@@V?$allocator@UFavoriteVolume@CipherShed@@@std@@@std@@@std@@QAE@ABV?$allocator@UFavoriteVolume@CipherShed@@@1@@Z
_TEXT	SEGMENT
___formal$ = 8						; size = 4
??$?0UFavoriteVolume@CipherShed@@@?$allocator@PAU_Node@?$_List_nod@UFavoriteVolume@CipherShed@@V?$allocator@UFavoriteVolume@CipherShed@@@std@@@std@@@std@@QAE@ABV?$allocator@UFavoriteVolume@CipherShed@@@1@@Z PROC ; std::allocator<std::_List_nod<CipherShed::FavoriteVolume,std::allocator<CipherShed::FavoriteVolume> >::_Node *>::allocator<std::_List_nod<CipherShed::FavoriteVolume,std::allocator<CipherShed::FavoriteVolume> >::_Node *><CipherShed::FavoriteVolume>, COMDAT
; _this$ = ecx

; 128  : 		allocator(const allocator<_Other>&) _THROW0()

  00000	8b c1		 mov	 eax, ecx

; 129  : 		{	// construct from a related allocator (do nothing)
; 130  : 		}

  00002	c2 04 00	 ret	 4
??$?0UFavoriteVolume@CipherShed@@@?$allocator@PAU_Node@?$_List_nod@UFavoriteVolume@CipherShed@@V?$allocator@UFavoriteVolume@CipherShed@@@std@@@std@@@std@@QAE@ABV?$allocator@UFavoriteVolume@CipherShed@@@1@@Z ENDP ; std::allocator<std::_List_nod<CipherShed::FavoriteVolume,std::allocator<CipherShed::FavoriteVolume> >::_Node *>::allocator<std::_List_nod<CipherShed::FavoriteVolume,std::allocator<CipherShed::FavoriteVolume> >::_Node *><CipherShed::FavoriteVolume>
_TEXT	ENDS
PUBLIC	??$_Allocate@U_Node@?$_List_nod@UFavoriteVolume@CipherShed@@V?$allocator@UFavoriteVolume@CipherShed@@@std@@@std@@@std@@YAPAU_Node@?$_List_nod@UFavoriteVolume@CipherShed@@V?$allocator@UFavoriteVolume@CipherShed@@@std@@@0@IPAU120@@Z ; std::_Allocate<std::_List_nod<CipherShed::FavoriteVolume,std::allocator<CipherShed::FavoriteVolume> >::_Node>
; Function compile flags: /Ogtpy
;	COMDAT ??$_Allocate@U_Node@?$_List_nod@UFavoriteVolume@CipherShed@@V?$allocator@UFavoriteVolume@CipherShed@@@std@@@std@@@std@@YAPAU_Node@?$_List_nod@UFavoriteVolume@CipherShed@@V?$allocator@UFavoriteVolume@CipherShed@@@std@@@0@IPAU120@@Z
_TEXT	SEGMENT
$T123603 = -12						; size = 12
$T123607 = 8						; size = 4
__Count$ = 8						; size = 4
___formal$ = 12						; size = 4
??$_Allocate@U_Node@?$_List_nod@UFavoriteVolume@CipherShed@@V?$allocator@UFavoriteVolume@CipherShed@@@std@@@std@@@std@@YAPAU_Node@?$_List_nod@UFavoriteVolume@CipherShed@@V?$allocator@UFavoriteVolume@CipherShed@@@std@@@0@IPAU120@@Z PROC ; std::_Allocate<std::_List_nod<CipherShed::FavoriteVolume,std::allocator<CipherShed::FavoriteVolume> >::_Node>, COMDAT

; 37   : 	if (_Count <= 0)

  00000	8b 4c 24 04	 mov	 ecx, DWORD PTR __Count$[esp-4]
  00004	83 ec 0c	 sub	 esp, 12			; 0000000cH
  00007	85 c9		 test	 ecx, ecx
  00009	77 12		 ja	 SHORT $LN3@Allocate@2

; 38   : 		_Count = 0;

  0000b	33 c9		 xor	 ecx, ecx
$LN1@Allocate@2:

; 41   : 
; 42   : 		// allocate storage for _Count elements of type _Ty
; 43   : 	return ((_Ty _FARQ *)::operator new(_Count * sizeof (_Ty)));

  0000d	c1 e1 07	 shl	 ecx, 7
  00010	51		 push	 ecx
  00011	e8 00 00 00 00	 call	 ??2@YAPAXI@Z		; operator new
  00016	83 c4 04	 add	 esp, 4

; 44   : 	}

  00019	83 c4 0c	 add	 esp, 12			; 0000000cH
  0001c	c3		 ret	 0
$LN3@Allocate@2:

; 39   : 	else if (((_SIZT)(-1) / _Count) < sizeof (_Ty))

  0001d	83 c8 ff	 or	 eax, -1
  00020	33 d2		 xor	 edx, edx
  00022	f7 f1		 div	 ecx
  00024	3d 80 00 00 00	 cmp	 eax, 128		; 00000080H
  00029	73 e2		 jae	 SHORT $LN1@Allocate@2

; 40   : 		_THROW_NCEE(std::bad_alloc, NULL);

  0002b	8d 44 24 10	 lea	 eax, DWORD PTR $T123607[esp+8]
  0002f	50		 push	 eax
  00030	8d 4c 24 04	 lea	 ecx, DWORD PTR $T123603[esp+16]
  00034	c7 44 24 14 00
	00 00 00	 mov	 DWORD PTR $T123607[esp+12], 0
  0003c	e8 00 00 00 00	 call	 ??0exception@std@@QAE@ABQBD@Z ; std::exception::exception
  00041	68 00 00 00 00	 push	 OFFSET __TI2?AVbad_alloc@std@@
  00046	8d 4c 24 04	 lea	 ecx, DWORD PTR $T123603[esp+16]
  0004a	51		 push	 ecx
  0004b	c7 44 24 08 00
	00 00 00	 mov	 DWORD PTR $T123603[esp+20], OFFSET ??_7bad_alloc@std@@6B@
  00053	e8 00 00 00 00	 call	 __CxxThrowException@8
$LN8@Allocate@2:
  00058	cc		 int	 3
??$_Allocate@U_Node@?$_List_nod@UFavoriteVolume@CipherShed@@V?$allocator@UFavoriteVolume@CipherShed@@@std@@@std@@@std@@YAPAU_Node@?$_List_nod@UFavoriteVolume@CipherShed@@V?$allocator@UFavoriteVolume@CipherShed@@@std@@@0@IPAU120@@Z ENDP ; std::_Allocate<std::_List_nod<CipherShed::FavoriteVolume,std::allocator<CipherShed::FavoriteVolume> >::_Node>
_TEXT	ENDS
PUBLIC	??$_Construct@PAU_Node@?$_List_nod@UFavoriteVolume@CipherShed@@V?$allocator@UFavoriteVolume@CipherShed@@@std@@@std@@PAU123@@std@@YAXPAPAU_Node@?$_List_nod@UFavoriteVolume@CipherShed@@V?$allocator@UFavoriteVolume@CipherShed@@@std@@@0@ABQAU120@@Z ; std::_Construct<std::_List_nod<CipherShed::FavoriteVolume,std::allocator<CipherShed::FavoriteVolume> >::_Node *,std::_List_nod<CipherShed::FavoriteVolume,std::allocator<CipherShed::FavoriteVolume> >::_Node *>
; Function compile flags: /Ogtpy
;	COMDAT ??$_Construct@PAU_Node@?$_List_nod@UFavoriteVolume@CipherShed@@V?$allocator@UFavoriteVolume@CipherShed@@@std@@@std@@PAU123@@std@@YAXPAPAU_Node@?$_List_nod@UFavoriteVolume@CipherShed@@V?$allocator@UFavoriteVolume@CipherShed@@@std@@@0@ABQAU120@@Z
_TEXT	SEGMENT
__Ptr$ = 8						; size = 4
__Val$ = 12						; size = 4
??$_Construct@PAU_Node@?$_List_nod@UFavoriteVolume@CipherShed@@V?$allocator@UFavoriteVolume@CipherShed@@@std@@@std@@PAU123@@std@@YAXPAPAU_Node@?$_List_nod@UFavoriteVolume@CipherShed@@V?$allocator@UFavoriteVolume@CipherShed@@@std@@@0@ABQAU120@@Z PROC ; std::_Construct<std::_List_nod<CipherShed::FavoriteVolume,std::allocator<CipherShed::FavoriteVolume> >::_Node *,std::_List_nod<CipherShed::FavoriteVolume,std::allocator<CipherShed::FavoriteVolume> >::_Node *>, COMDAT

; 51   : 	void _FARQ *_Vptr = _Ptr;
; 52   : 	::new (_Vptr) _T1(_Val);

  00000	8b 44 24 04	 mov	 eax, DWORD PTR __Ptr$[esp-4]
  00004	85 c0		 test	 eax, eax
  00006	74 08		 je	 SHORT $LN3@Construct
  00008	8b 4c 24 08	 mov	 ecx, DWORD PTR __Val$[esp-4]
  0000c	8b 11		 mov	 edx, DWORD PTR [ecx]
  0000e	89 10		 mov	 DWORD PTR [eax], edx
$LN3@Construct:

; 53   : 	}

  00010	c3		 ret	 0
??$_Construct@PAU_Node@?$_List_nod@UFavoriteVolume@CipherShed@@V?$allocator@UFavoriteVolume@CipherShed@@@std@@@std@@PAU123@@std@@YAXPAPAU_Node@?$_List_nod@UFavoriteVolume@CipherShed@@V?$allocator@UFavoriteVolume@CipherShed@@@std@@@0@ABQAU120@@Z ENDP ; std::_Construct<std::_List_nod<CipherShed::FavoriteVolume,std::allocator<CipherShed::FavoriteVolume> >::_Node *,std::_List_nod<CipherShed::FavoriteVolume,std::allocator<CipherShed::FavoriteVolume> >::_Node *>
_TEXT	ENDS
PUBLIC	??$_Destroy@PAU_Node@?$_List_nod@UFavoriteVolume@CipherShed@@V?$allocator@UFavoriteVolume@CipherShed@@@std@@@std@@@std@@YAXPAPAU_Node@?$_List_nod@UFavoriteVolume@CipherShed@@V?$allocator@UFavoriteVolume@CipherShed@@@std@@@0@@Z ; std::_Destroy<std::_List_nod<CipherShed::FavoriteVolume,std::allocator<CipherShed::FavoriteVolume> >::_Node *>
; Function compile flags: /Ogtpy
;	COMDAT ??$_Destroy@PAU_Node@?$_List_nod@UFavoriteVolume@CipherShed@@V?$allocator@UFavoriteVolume@CipherShed@@@std@@@std@@@std@@YAXPAPAU_Node@?$_List_nod@UFavoriteVolume@CipherShed@@V?$allocator@UFavoriteVolume@CipherShed@@@std@@@0@@Z
_TEXT	SEGMENT
__Ptr$ = 8						; size = 4
??$_Destroy@PAU_Node@?$_List_nod@UFavoriteVolume@CipherShed@@V?$allocator@UFavoriteVolume@CipherShed@@@std@@@std@@@std@@YAXPAPAU_Node@?$_List_nod@UFavoriteVolume@CipherShed@@V?$allocator@UFavoriteVolume@CipherShed@@@std@@@0@@Z PROC ; std::_Destroy<std::_List_nod<CipherShed::FavoriteVolume,std::allocator<CipherShed::FavoriteVolume> >::_Node *>, COMDAT

; 59   : 	_DESTRUCTOR(_Ty, _Ptr);
; 60   : 	}

  00000	c3		 ret	 0
??$_Destroy@PAU_Node@?$_List_nod@UFavoriteVolume@CipherShed@@V?$allocator@UFavoriteVolume@CipherShed@@@std@@@std@@@std@@YAXPAPAU_Node@?$_List_nod@UFavoriteVolume@CipherShed@@V?$allocator@UFavoriteVolume@CipherShed@@@std@@@0@@Z ENDP ; std::_Destroy<std::_List_nod<CipherShed::FavoriteVolume,std::allocator<CipherShed::FavoriteVolume> >::_Node *>
_TEXT	ENDS
PUBLIC	??$_Allocate@V_Aux_cont@std@@@std@@YAPAV_Aux_cont@0@IPAV10@@Z ; std::_Allocate<std::_Aux_cont>
; Function compile flags: /Ogtpy
;	COMDAT ??$_Allocate@V_Aux_cont@std@@@std@@YAPAV_Aux_cont@0@IPAV10@@Z
_TEXT	SEGMENT
$T123621 = -12						; size = 12
$T123625 = 8						; size = 4
__Count$ = 8						; size = 4
___formal$ = 12						; size = 4
??$_Allocate@V_Aux_cont@std@@@std@@YAPAV_Aux_cont@0@IPAV10@@Z PROC ; std::_Allocate<std::_Aux_cont>, COMDAT

; 37   : 	if (_Count <= 0)

  00000	8b 4c 24 04	 mov	 ecx, DWORD PTR __Count$[esp-4]
  00004	83 ec 0c	 sub	 esp, 12			; 0000000cH
  00007	85 c9		 test	 ecx, ecx
  00009	77 16		 ja	 SHORT $LN3@Allocate@3

; 38   : 		_Count = 0;

  0000b	33 c9		 xor	 ecx, ecx
$LN1@Allocate@3:

; 41   : 
; 42   : 		// allocate storage for _Count elements of type _Ty
; 43   : 	return ((_Ty _FARQ *)::operator new(_Count * sizeof (_Ty)));

  0000d	8d 14 8d 00 00
	00 00		 lea	 edx, DWORD PTR [ecx*4]
  00014	52		 push	 edx
  00015	e8 00 00 00 00	 call	 ??2@YAPAXI@Z		; operator new
  0001a	83 c4 04	 add	 esp, 4

; 44   : 	}

  0001d	83 c4 0c	 add	 esp, 12			; 0000000cH
  00020	c3		 ret	 0
$LN3@Allocate@3:

; 39   : 	else if (((_SIZT)(-1) / _Count) < sizeof (_Ty))

  00021	83 c8 ff	 or	 eax, -1
  00024	33 d2		 xor	 edx, edx
  00026	f7 f1		 div	 ecx
  00028	83 f8 04	 cmp	 eax, 4
  0002b	73 e0		 jae	 SHORT $LN1@Allocate@3

; 40   : 		_THROW_NCEE(std::bad_alloc, NULL);

  0002d	8d 44 24 10	 lea	 eax, DWORD PTR $T123625[esp+8]
  00031	50		 push	 eax
  00032	8d 4c 24 04	 lea	 ecx, DWORD PTR $T123621[esp+16]
  00036	c7 44 24 14 00
	00 00 00	 mov	 DWORD PTR $T123625[esp+12], 0
  0003e	e8 00 00 00 00	 call	 ??0exception@std@@QAE@ABQBD@Z ; std::exception::exception
  00043	68 00 00 00 00	 push	 OFFSET __TI2?AVbad_alloc@std@@
  00048	8d 4c 24 04	 lea	 ecx, DWORD PTR $T123621[esp+16]
  0004c	51		 push	 ecx
  0004d	c7 44 24 08 00
	00 00 00	 mov	 DWORD PTR $T123621[esp+20], OFFSET ??_7bad_alloc@std@@6B@
  00055	e8 00 00 00 00	 call	 __CxxThrowException@8
$LN8@Allocate@3:
  0005a	cc		 int	 3
??$_Allocate@V_Aux_cont@std@@@std@@YAPAV_Aux_cont@0@IPAV10@@Z ENDP ; std::_Allocate<std::_Aux_cont>
_TEXT	ENDS
PUBLIC	??$?0UFavoriteVolume@CipherShed@@@?$allocator@U_Node@?$_List_nod@UFavoriteVolume@CipherShed@@V?$allocator@UFavoriteVolume@CipherShed@@@std@@@std@@@std@@QAE@ABV?$allocator@UFavoriteVolume@CipherShed@@@1@@Z ; std::allocator<std::_List_nod<CipherShed::FavoriteVolume,std::allocator<CipherShed::FavoriteVolume> >::_Node>::allocator<std::_List_nod<CipherShed::FavoriteVolume,std::allocator<CipherShed::FavoriteVolume> >::_Node><CipherShed::FavoriteVolume>
; Function compile flags: /Ogtpy
;	COMDAT ??$?0UFavoriteVolume@CipherShed@@@?$allocator@U_Node@?$_List_nod@UFavoriteVolume@CipherShed@@V?$allocator@UFavoriteVolume@CipherShed@@@std@@@std@@@std@@QAE@ABV?$allocator@UFavoriteVolume@CipherShed@@@1@@Z
_TEXT	SEGMENT
___formal$ = 8						; size = 4
??$?0UFavoriteVolume@CipherShed@@@?$allocator@U_Node@?$_List_nod@UFavoriteVolume@CipherShed@@V?$allocator@UFavoriteVolume@CipherShed@@@std@@@std@@@std@@QAE@ABV?$allocator@UFavoriteVolume@CipherShed@@@1@@Z PROC ; std::allocator<std::_List_nod<CipherShed::FavoriteVolume,std::allocator<CipherShed::FavoriteVolume> >::_Node>::allocator<std::_List_nod<CipherShed::FavoriteVolume,std::allocator<CipherShed::FavoriteVolume> >::_Node><CipherShed::FavoriteVolume>, COMDAT
; _this$ = ecx

; 128  : 		allocator(const allocator<_Other>&) _THROW0()

  00000	8b c1		 mov	 eax, ecx

; 129  : 		{	// construct from a related allocator (do nothing)
; 130  : 		}

  00002	c2 04 00	 ret	 4
??$?0UFavoriteVolume@CipherShed@@@?$allocator@U_Node@?$_List_nod@UFavoriteVolume@CipherShed@@V?$allocator@UFavoriteVolume@CipherShed@@@std@@@std@@@std@@QAE@ABV?$allocator@UFavoriteVolume@CipherShed@@@1@@Z ENDP ; std::allocator<std::_List_nod<CipherShed::FavoriteVolume,std::allocator<CipherShed::FavoriteVolume> >::_Node>::allocator<std::_List_nod<CipherShed::FavoriteVolume,std::allocator<CipherShed::FavoriteVolume> >::_Node><CipherShed::FavoriteVolume>
_TEXT	ENDS
PUBLIC	??$_Allocate@D@std@@YAPADIPAD@Z			; std::_Allocate<char>
; Function compile flags: /Ogtpy
;	COMDAT ??$_Allocate@D@std@@YAPADIPAD@Z
_TEXT	SEGMENT
$T123631 = -12						; size = 12
$T123635 = 8						; size = 4
__Count$ = 8						; size = 4
___formal$ = 12						; size = 4
??$_Allocate@D@std@@YAPADIPAD@Z PROC			; std::_Allocate<char>, COMDAT

; 37   : 	if (_Count <= 0)

  00000	8b 4c 24 04	 mov	 ecx, DWORD PTR __Count$[esp-4]
  00004	83 ec 0c	 sub	 esp, 12			; 0000000cH
  00007	85 c9		 test	 ecx, ecx
  00009	77 0f		 ja	 SHORT $LN3@Allocate@4

; 38   : 		_Count = 0;

  0000b	33 c9		 xor	 ecx, ecx
$LN1@Allocate@4:

; 41   : 
; 42   : 		// allocate storage for _Count elements of type _Ty
; 43   : 	return ((_Ty _FARQ *)::operator new(_Count * sizeof (_Ty)));

  0000d	51		 push	 ecx
  0000e	e8 00 00 00 00	 call	 ??2@YAPAXI@Z		; operator new
  00013	83 c4 04	 add	 esp, 4

; 44   : 	}

  00016	83 c4 0c	 add	 esp, 12			; 0000000cH
  00019	c3		 ret	 0
$LN3@Allocate@4:

; 39   : 	else if (((_SIZT)(-1) / _Count) < sizeof (_Ty))

  0001a	83 c8 ff	 or	 eax, -1
  0001d	33 d2		 xor	 edx, edx
  0001f	f7 f1		 div	 ecx
  00021	83 f8 01	 cmp	 eax, 1
  00024	73 e7		 jae	 SHORT $LN1@Allocate@4

; 40   : 		_THROW_NCEE(std::bad_alloc, NULL);

  00026	8d 44 24 10	 lea	 eax, DWORD PTR $T123635[esp+8]
  0002a	50		 push	 eax
  0002b	8d 4c 24 04	 lea	 ecx, DWORD PTR $T123631[esp+16]
  0002f	c7 44 24 14 00
	00 00 00	 mov	 DWORD PTR $T123635[esp+12], 0
  00037	e8 00 00 00 00	 call	 ??0exception@std@@QAE@ABQBD@Z ; std::exception::exception
  0003c	68 00 00 00 00	 push	 OFFSET __TI2?AVbad_alloc@std@@
  00041	8d 4c 24 04	 lea	 ecx, DWORD PTR $T123631[esp+16]
  00045	51		 push	 ecx
  00046	c7 44 24 08 00
	00 00 00	 mov	 DWORD PTR $T123631[esp+20], OFFSET ??_7bad_alloc@std@@6B@
  0004e	e8 00 00 00 00	 call	 __CxxThrowException@8
$LN8@Allocate@4:
  00053	cc		 int	 3
??$_Allocate@D@std@@YAPADIPAD@Z ENDP			; std::_Allocate<char>
_TEXT	ENDS
PUBLIC	??$_Allocate@_W@std@@YAPA_WIPA_W@Z		; std::_Allocate<wchar_t>
; Function compile flags: /Ogtpy
;	COMDAT ??$_Allocate@_W@std@@YAPA_WIPA_W@Z
_TEXT	SEGMENT
$T123639 = -12						; size = 12
$T123643 = 8						; size = 4
__Count$ = 8						; size = 4
___formal$ = 12						; size = 4
??$_Allocate@_W@std@@YAPA_WIPA_W@Z PROC			; std::_Allocate<wchar_t>, COMDAT

; 37   : 	if (_Count <= 0)

  00000	8b 4c 24 04	 mov	 ecx, DWORD PTR __Count$[esp-4]
  00004	83 ec 0c	 sub	 esp, 12			; 0000000cH
  00007	85 c9		 test	 ecx, ecx
  00009	77 12		 ja	 SHORT $LN3@Allocate@5

; 38   : 		_Count = 0;

  0000b	33 c9		 xor	 ecx, ecx
$LN1@Allocate@5:

; 41   : 
; 42   : 		// allocate storage for _Count elements of type _Ty
; 43   : 	return ((_Ty _FARQ *)::operator new(_Count * sizeof (_Ty)));

  0000d	8d 14 09	 lea	 edx, DWORD PTR [ecx+ecx]
  00010	52		 push	 edx
  00011	e8 00 00 00 00	 call	 ??2@YAPAXI@Z		; operator new
  00016	83 c4 04	 add	 esp, 4

; 44   : 	}

  00019	83 c4 0c	 add	 esp, 12			; 0000000cH
  0001c	c3		 ret	 0
$LN3@Allocate@5:

; 39   : 	else if (((_SIZT)(-1) / _Count) < sizeof (_Ty))

  0001d	83 c8 ff	 or	 eax, -1
  00020	33 d2		 xor	 edx, edx
  00022	f7 f1		 div	 ecx
  00024	83 f8 02	 cmp	 eax, 2
  00027	73 e4		 jae	 SHORT $LN1@Allocate@5

; 40   : 		_THROW_NCEE(std::bad_alloc, NULL);

  00029	8d 44 24 10	 lea	 eax, DWORD PTR $T123643[esp+8]
  0002d	50		 push	 eax
  0002e	8d 4c 24 04	 lea	 ecx, DWORD PTR $T123639[esp+16]
  00032	c7 44 24 14 00
	00 00 00	 mov	 DWORD PTR $T123643[esp+12], 0
  0003a	e8 00 00 00 00	 call	 ??0exception@std@@QAE@ABQBD@Z ; std::exception::exception
  0003f	68 00 00 00 00	 push	 OFFSET __TI2?AVbad_alloc@std@@
  00044	8d 4c 24 04	 lea	 ecx, DWORD PTR $T123639[esp+16]
  00048	51		 push	 ecx
  00049	c7 44 24 08 00
	00 00 00	 mov	 DWORD PTR $T123639[esp+20], OFFSET ??_7bad_alloc@std@@6B@
  00051	e8 00 00 00 00	 call	 __CxxThrowException@8
$LN8@Allocate@5:
  00056	cc		 int	 3
??$_Allocate@_W@std@@YAPA_WIPA_W@Z ENDP			; std::_Allocate<wchar_t>
_TEXT	ENDS
PUBLIC	??$_Char_traits_cat@U?$char_traits@D@std@@@std@@YA?AU_Secure_char_traits_tag@0@XZ ; std::_Char_traits_cat<std::char_traits<char> >
; Function compile flags: /Ogtpy
; File c:\program files (x86)\microsoft visual studio 9.0\vc\include\iosfwd
;	COMDAT ??$_Char_traits_cat@U?$char_traits@D@std@@@std@@YA?AU_Secure_char_traits_tag@0@XZ
_TEXT	SEGMENT
__Secure$ = -1						; size = 1
??$_Char_traits_cat@U?$char_traits@D@std@@@std@@YA?AU_Secure_char_traits_tag@0@XZ PROC ; std::_Char_traits_cat<std::char_traits<char> >, COMDAT

; 575  : 	{

  00000	51		 push	 ecx

; 576  : 		typename _Char_traits_category<_Traits>::_Secure_char_traits _Secure;
; 577  : 		return (_Secure);

  00001	8a 44 24 03	 mov	 al, BYTE PTR __Secure$[esp+4]

; 578  : 	}

  00005	59		 pop	 ecx
  00006	c3		 ret	 0
??$_Char_traits_cat@U?$char_traits@D@std@@@std@@YA?AU_Secure_char_traits_tag@0@XZ ENDP ; std::_Char_traits_cat<std::char_traits<char> >
_TEXT	ENDS
PUBLIC	??$copy_s@U?$char_traits@D@std@@@_Traits_helper@std@@YAPADPADIPBDIU_Secure_char_traits_tag@1@@Z ; std::_Traits_helper::copy_s<std::char_traits<char> >
; Function compile flags: /Ogtpy
;	COMDAT ??$copy_s@U?$char_traits@D@std@@@_Traits_helper@std@@YAPADPADIPBDIU_Secure_char_traits_tag@1@@Z
_TEXT	SEGMENT
__First1$ = 8						; size = 4
__Size$ = 12						; size = 4
__First2$ = 16						; size = 4
__Count$ = 20						; size = 4
___formal$ = 24						; size = 1
??$copy_s@U?$char_traits@D@std@@@_Traits_helper@std@@YAPADPADIPBDIU_Secure_char_traits_tag@1@@Z PROC ; std::_Traits_helper::copy_s<std::char_traits<char> >, COMDAT

; 597  : 		return _Traits::_Copy_s(_First1, _Size, _First2, _Count);

  00000	8b 44 24 10	 mov	 eax, DWORD PTR __Count$[esp-4]
  00004	8b 4c 24 0c	 mov	 ecx, DWORD PTR __First2$[esp-4]
  00008	8b 54 24 08	 mov	 edx, DWORD PTR __Size$[esp-4]
  0000c	56		 push	 esi
  0000d	8b 74 24 08	 mov	 esi, DWORD PTR __First1$[esp]
  00011	50		 push	 eax
  00012	51		 push	 ecx
  00013	52		 push	 edx
  00014	56		 push	 esi
  00015	e8 00 00 00 00	 call	 _memcpy_s
  0001a	83 c4 10	 add	 esp, 16			; 00000010H
  0001d	8b c6		 mov	 eax, esi
  0001f	5e		 pop	 esi

; 598  : 	}

  00020	c3		 ret	 0
??$copy_s@U?$char_traits@D@std@@@_Traits_helper@std@@YAPADPADIPBDIU_Secure_char_traits_tag@1@@Z ENDP ; std::_Traits_helper::copy_s<std::char_traits<char> >
_TEXT	ENDS
PUBLIC	??$_Char_traits_cat@U?$char_traits@_W@std@@@std@@YA?AU_Secure_char_traits_tag@0@XZ ; std::_Char_traits_cat<std::char_traits<wchar_t> >
; Function compile flags: /Ogtpy
;	COMDAT ??$_Char_traits_cat@U?$char_traits@_W@std@@@std@@YA?AU_Secure_char_traits_tag@0@XZ
_TEXT	SEGMENT
__Secure$ = -1						; size = 1
??$_Char_traits_cat@U?$char_traits@_W@std@@@std@@YA?AU_Secure_char_traits_tag@0@XZ PROC ; std::_Char_traits_cat<std::char_traits<wchar_t> >, COMDAT

; 575  : 	{

  00000	51		 push	 ecx

; 576  : 		typename _Char_traits_category<_Traits>::_Secure_char_traits _Secure;
; 577  : 		return (_Secure);

  00001	8a 44 24 03	 mov	 al, BYTE PTR __Secure$[esp+4]

; 578  : 	}

  00005	59		 pop	 ecx
  00006	c3		 ret	 0
??$_Char_traits_cat@U?$char_traits@_W@std@@@std@@YA?AU_Secure_char_traits_tag@0@XZ ENDP ; std::_Char_traits_cat<std::char_traits<wchar_t> >
_TEXT	ENDS
PUBLIC	??$copy_s@U?$char_traits@_W@std@@@_Traits_helper@std@@YAPA_WPA_WIPB_WIU_Secure_char_traits_tag@1@@Z ; std::_Traits_helper::copy_s<std::char_traits<wchar_t> >
; Function compile flags: /Ogtpy
;	COMDAT ??$copy_s@U?$char_traits@_W@std@@@_Traits_helper@std@@YAPA_WPA_WIPB_WIU_Secure_char_traits_tag@1@@Z
_TEXT	SEGMENT
__First1$ = 8						; size = 4
__Size$ = 12						; size = 4
__First2$ = 16						; size = 4
__Count$ = 20						; size = 4
___formal$ = 24						; size = 1
??$copy_s@U?$char_traits@_W@std@@@_Traits_helper@std@@YAPA_WPA_WIPB_WIU_Secure_char_traits_tag@1@@Z PROC ; std::_Traits_helper::copy_s<std::char_traits<wchar_t> >, COMDAT

; 597  : 		return _Traits::_Copy_s(_First1, _Size, _First2, _Count);

  00000	8b 44 24 10	 mov	 eax, DWORD PTR __Count$[esp-4]
  00004	8b 54 24 0c	 mov	 edx, DWORD PTR __First2$[esp-4]
  00008	56		 push	 esi
  00009	8b 74 24 08	 mov	 esi, DWORD PTR __First1$[esp]
  0000d	8d 0c 00	 lea	 ecx, DWORD PTR [eax+eax]
  00010	8b 44 24 0c	 mov	 eax, DWORD PTR __Size$[esp]
  00014	51		 push	 ecx
  00015	52		 push	 edx
  00016	8d 0c 00	 lea	 ecx, DWORD PTR [eax+eax]
  00019	51		 push	 ecx
  0001a	56		 push	 esi
  0001b	e8 00 00 00 00	 call	 _memcpy_s
  00020	83 c4 10	 add	 esp, 16			; 00000010H
  00023	8b c6		 mov	 eax, esi
  00025	5e		 pop	 esi

; 598  : 	}

  00026	c3		 ret	 0
??$copy_s@U?$char_traits@_W@std@@@_Traits_helper@std@@YAPA_WPA_WIPB_WIU_Secure_char_traits_tag@1@@Z ENDP ; std::_Traits_helper::copy_s<std::char_traits<wchar_t> >
_TEXT	ENDS
PUBLIC	??$_Iter_random@PAUFavoriteVolume@CipherShed@@PAU12@@std@@YA?AUrandom_access_iterator_tag@0@ABQAUFavoriteVolume@CipherShed@@0@Z ; std::_Iter_random<CipherShed::FavoriteVolume *,CipherShed::FavoriteVolume *>
; Function compile flags: /Ogtpy
; File c:\program files (x86)\microsoft visual studio 9.0\vc\include\xutility
;	COMDAT ??$_Iter_random@PAUFavoriteVolume@CipherShed@@PAU12@@std@@YA?AUrandom_access_iterator_tag@0@ABQAUFavoriteVolume@CipherShed@@0@Z
_TEXT	SEGMENT
___$ReturnUdt$ = 8					; size = 4
___formal$ = 12						; size = 4
___formal$ = 16						; size = 4
??$_Iter_random@PAUFavoriteVolume@CipherShed@@PAU12@@std@@YA?AUrandom_access_iterator_tag@0@ABQAUFavoriteVolume@CipherShed@@0@Z PROC ; std::_Iter_random<CipherShed::FavoriteVolume *,CipherShed::FavoriteVolume *>, COMDAT

; 994  : 	typename _Iter_random_helper<
; 995  : 		iterator_traits<_Iter1>::iterator_category, 
; 996  : 		iterator_traits<_Iter2>::iterator_category>::_Iter_random_cat _Cat;
; 997  : 	return (_Cat);

  00000	8b 44 24 04	 mov	 eax, DWORD PTR ___$ReturnUdt$[esp-4]

; 998  : 	}

  00004	c3		 ret	 0
??$_Iter_random@PAUFavoriteVolume@CipherShed@@PAU12@@std@@YA?AUrandom_access_iterator_tag@0@ABQAUFavoriteVolume@CipherShed@@0@Z ENDP ; std::_Iter_random<CipherShed::FavoriteVolume *,CipherShed::FavoriteVolume *>
_TEXT	ENDS
PUBLIC	??$_Ptr_cat@PAUFavoriteVolume@CipherShed@@PAU12@@std@@YA?AU_Nonscalar_ptr_iterator_tag@0@AAPAUFavoriteVolume@CipherShed@@0@Z ; std::_Ptr_cat<CipherShed::FavoriteVolume *,CipherShed::FavoriteVolume *>
; Function compile flags: /Ogtpy
;	COMDAT ??$_Ptr_cat@PAUFavoriteVolume@CipherShed@@PAU12@@std@@YA?AU_Nonscalar_ptr_iterator_tag@0@AAPAUFavoriteVolume@CipherShed@@0@Z
_TEXT	SEGMENT
__Cat$ = -1						; size = 1
___formal$ = 8						; size = 4
___formal$ = 12						; size = 4
??$_Ptr_cat@PAUFavoriteVolume@CipherShed@@PAU12@@std@@YA?AU_Nonscalar_ptr_iterator_tag@0@AAPAUFavoriteVolume@CipherShed@@0@Z PROC ; std::_Ptr_cat<CipherShed::FavoriteVolume *,CipherShed::FavoriteVolume *>, COMDAT

; 1509 : 	{

  00000	51		 push	 ecx

; 1510 : 	typename _Ptr_cat_helper<_T1, _T2>::_Ptr_cat _Cat;
; 1511 : 	return (_Cat);

  00001	8a 44 24 03	 mov	 al, BYTE PTR __Cat$[esp+4]

; 1512 : 	}

  00005	59		 pop	 ecx
  00006	c3		 ret	 0
??$_Ptr_cat@PAUFavoriteVolume@CipherShed@@PAU12@@std@@YA?AU_Nonscalar_ptr_iterator_tag@0@AAPAUFavoriteVolume@CipherShed@@0@Z ENDP ; std::_Ptr_cat<CipherShed::FavoriteVolume *,CipherShed::FavoriteVolume *>
_TEXT	ENDS
PUBLIC	??$move_s@U?$char_traits@D@std@@@_Traits_helper@std@@YAPADPADIPBDIU_Secure_char_traits_tag@1@@Z ; std::_Traits_helper::move_s<std::char_traits<char> >
; Function compile flags: /Ogtpy
; File c:\program files (x86)\microsoft visual studio 9.0\vc\include\iosfwd
;	COMDAT ??$move_s@U?$char_traits@D@std@@@_Traits_helper@std@@YAPADPADIPBDIU_Secure_char_traits_tag@1@@Z
_TEXT	SEGMENT
__First1$ = 8						; size = 4
__Size$ = 12						; size = 4
__First2$ = 16						; size = 4
__Count$ = 20						; size = 4
___formal$ = 24						; size = 1
??$move_s@U?$char_traits@D@std@@@_Traits_helper@std@@YAPADPADIPBDIU_Secure_char_traits_tag@1@@Z PROC ; std::_Traits_helper::move_s<std::char_traits<char> >, COMDAT

; 624  : 		return _Traits::_Move_s(_First1, _Size, _First2, _Count);

  00000	8b 44 24 10	 mov	 eax, DWORD PTR __Count$[esp-4]
  00004	8b 4c 24 0c	 mov	 ecx, DWORD PTR __First2$[esp-4]
  00008	8b 54 24 08	 mov	 edx, DWORD PTR __Size$[esp-4]
  0000c	56		 push	 esi
  0000d	8b 74 24 08	 mov	 esi, DWORD PTR __First1$[esp]
  00011	50		 push	 eax
  00012	51		 push	 ecx
  00013	52		 push	 edx
  00014	56		 push	 esi
  00015	e8 00 00 00 00	 call	 _memmove_s
  0001a	83 c4 10	 add	 esp, 16			; 00000010H
  0001d	8b c6		 mov	 eax, esi
  0001f	5e		 pop	 esi

; 625  : 	}

  00020	c3		 ret	 0
??$move_s@U?$char_traits@D@std@@@_Traits_helper@std@@YAPADPADIPBDIU_Secure_char_traits_tag@1@@Z ENDP ; std::_Traits_helper::move_s<std::char_traits<char> >
_TEXT	ENDS
PUBLIC	??$move_s@U?$char_traits@_W@std@@@_Traits_helper@std@@YAPA_WPA_WIPB_WIU_Secure_char_traits_tag@1@@Z ; std::_Traits_helper::move_s<std::char_traits<wchar_t> >
; Function compile flags: /Ogtpy
;	COMDAT ??$move_s@U?$char_traits@_W@std@@@_Traits_helper@std@@YAPA_WPA_WIPB_WIU_Secure_char_traits_tag@1@@Z
_TEXT	SEGMENT
__First1$ = 8						; size = 4
__Size$ = 12						; size = 4
__First2$ = 16						; size = 4
__Count$ = 20						; size = 4
___formal$ = 24						; size = 1
??$move_s@U?$char_traits@_W@std@@@_Traits_helper@std@@YAPA_WPA_WIPB_WIU_Secure_char_traits_tag@1@@Z PROC ; std::_Traits_helper::move_s<std::char_traits<wchar_t> >, COMDAT

; 624  : 		return _Traits::_Move_s(_First1, _Size, _First2, _Count);

  00000	8b 44 24 10	 mov	 eax, DWORD PTR __Count$[esp-4]
  00004	8b 54 24 0c	 mov	 edx, DWORD PTR __First2$[esp-4]
  00008	56		 push	 esi
  00009	8b 74 24 08	 mov	 esi, DWORD PTR __First1$[esp]
  0000d	8d 0c 00	 lea	 ecx, DWORD PTR [eax+eax]
  00010	8b 44 24 0c	 mov	 eax, DWORD PTR __Size$[esp]
  00014	51		 push	 ecx
  00015	52		 push	 edx
  00016	8d 0c 00	 lea	 ecx, DWORD PTR [eax+eax]
  00019	51		 push	 ecx
  0001a	56		 push	 esi
  0001b	e8 00 00 00 00	 call	 _memmove_s
  00020	83 c4 10	 add	 esp, 16			; 00000010H
  00023	8b c6		 mov	 eax, esi
  00025	5e		 pop	 esi

; 625  : 	}

  00026	c3		 ret	 0
??$move_s@U?$char_traits@_W@std@@@_Traits_helper@std@@YAPA_WPA_WIPB_WIU_Secure_char_traits_tag@1@@Z ENDP ; std::_Traits_helper::move_s<std::char_traits<wchar_t> >
_TEXT	ENDS
PUBLIC	??$_Move_cat@PAUFavoriteVolume@CipherShed@@@std@@YA?AU_Undefined_move_tag@0@ABQAUFavoriteVolume@CipherShed@@@Z ; std::_Move_cat<CipherShed::FavoriteVolume *>
; Function compile flags: /Ogtpy
; File c:\program files (x86)\microsoft visual studio 9.0\vc\include\xutility
;	COMDAT ??$_Move_cat@PAUFavoriteVolume@CipherShed@@@std@@YA?AU_Undefined_move_tag@0@ABQAUFavoriteVolume@CipherShed@@@Z
_TEXT	SEGMENT
__Cat$ = -1						; size = 1
___formal$ = 8						; size = 4
??$_Move_cat@PAUFavoriteVolume@CipherShed@@@std@@YA?AU_Undefined_move_tag@0@ABQAUFavoriteVolume@CipherShed@@@Z PROC ; std::_Move_cat<CipherShed::FavoriteVolume *>, COMDAT

; 1200 : 	{

  00000	51		 push	 ecx

; 1201 : 		typename _Move_operation_category<typename iterator_traits<_Iter>::value_type>::_Move_cat _Cat;
; 1202 : 		return (_Cat);

  00001	8a 44 24 03	 mov	 al, BYTE PTR __Cat$[esp+4]

; 1203 : 	}

  00005	59		 pop	 ecx
  00006	c3		 ret	 0
??$_Move_cat@PAUFavoriteVolume@CipherShed@@@std@@YA?AU_Undefined_move_tag@0@ABQAUFavoriteVolume@CipherShed@@@Z ENDP ; std::_Move_cat<CipherShed::FavoriteVolume *>
_TEXT	ENDS
PUBLIC	??$_Checked_base@PAUFavoriteVolume@CipherShed@@@std@@YAPAUFavoriteVolume@CipherShed@@AAPAU12@U_Unchanged_checked_iterator_base_type_tag@0@@Z ; std::_Checked_base<CipherShed::FavoriteVolume *>
; Function compile flags: /Ogtpy
;	COMDAT ??$_Checked_base@PAUFavoriteVolume@CipherShed@@@std@@YAPAUFavoriteVolume@CipherShed@@AAPAU12@U_Unchanged_checked_iterator_base_type_tag@0@@Z
_TEXT	SEGMENT
__It$ = 8						; size = 4
___formal$ = 12						; size = 1
??$_Checked_base@PAUFavoriteVolume@CipherShed@@@std@@YAPAUFavoriteVolume@CipherShed@@AAPAU12@U_Unchanged_checked_iterator_base_type_tag@0@@Z PROC ; std::_Checked_base<CipherShed::FavoriteVolume *>, COMDAT

; 1147 : 		return _It;

  00000	8b 44 24 04	 mov	 eax, DWORD PTR __It$[esp-4]
  00004	8b 00		 mov	 eax, DWORD PTR [eax]

; 1148 : 	}

  00006	c3		 ret	 0
??$_Checked_base@PAUFavoriteVolume@CipherShed@@@std@@YAPAUFavoriteVolume@CipherShed@@AAPAU12@U_Unchanged_checked_iterator_base_type_tag@0@@Z ENDP ; std::_Checked_base<CipherShed::FavoriteVolume *>
_TEXT	ENDS
PUBLIC	??$_Iter_cat@V?$_Const_iterator@$00@?$list@UFavoriteVolume@CipherShed@@V?$allocator@UFavoriteVolume@CipherShed@@@std@@@std@@@std@@YA?AUbidirectional_iterator_tag@0@ABV?$_Const_iterator@$00@?$list@UFavoriteVolume@CipherShed@@V?$allocator@UFavoriteVolume@CipherShed@@@std@@@0@@Z ; std::_Iter_cat<std::list<CipherShed::FavoriteVolume,std::allocator<CipherShed::FavoriteVolume> >::_Const_iterator<1> >
; Function compile flags: /Ogtpy
;	COMDAT ??$_Iter_cat@V?$_Const_iterator@$00@?$list@UFavoriteVolume@CipherShed@@V?$allocator@UFavoriteVolume@CipherShed@@@std@@@std@@@std@@YA?AUbidirectional_iterator_tag@0@ABV?$_Const_iterator@$00@?$list@UFavoriteVolume@CipherShed@@V?$allocator@UFavoriteVolume@CipherShed@@@std@@@0@@Z
_TEXT	SEGMENT
___$ReturnUdt$ = 8					; size = 4
___formal$ = 12						; size = 4
??$_Iter_cat@V?$_Const_iterator@$00@?$list@UFavoriteVolume@CipherShed@@V?$allocator@UFavoriteVolume@CipherShed@@@std@@@std@@@std@@YA?AUbidirectional_iterator_tag@0@ABV?$_Const_iterator@$00@?$list@UFavoriteVolume@CipherShed@@V?$allocator@UFavoriteVolume@CipherShed@@@std@@@0@@Z PROC ; std::_Iter_cat<std::list<CipherShed::FavoriteVolume,std::allocator<CipherShed::FavoriteVolume> >::_Const_iterator<1> >, COMDAT

; 953  : 	typename iterator_traits<_Iter>::iterator_category _Cat;
; 954  : 	return (_Cat);

  00000	8b 44 24 04	 mov	 eax, DWORD PTR ___$ReturnUdt$[esp-4]

; 955  : 	}

  00004	c3		 ret	 0
??$_Iter_cat@V?$_Const_iterator@$00@?$list@UFavoriteVolume@CipherShed@@V?$allocator@UFavoriteVolume@CipherShed@@@std@@@std@@@std@@YA?AUbidirectional_iterator_tag@0@ABV?$_Const_iterator@$00@?$list@UFavoriteVolume@CipherShed@@V?$allocator@UFavoriteVolume@CipherShed@@@std@@@0@@Z ENDP ; std::_Iter_cat<std::list<CipherShed::FavoriteVolume,std::allocator<CipherShed::FavoriteVolume> >::_Const_iterator<1> >
_TEXT	ENDS
PUBLIC	??F?$_Const_iterator@$00@?$list@UFavoriteVolume@CipherShed@@V?$allocator@UFavoriteVolume@CipherShed@@@std@@@std@@QAEAAV012@XZ ; std::list<CipherShed::FavoriteVolume,std::allocator<CipherShed::FavoriteVolume> >::_Const_iterator<1>::operator--
; Function compile flags: /Ogtpy
; File c:\program files (x86)\microsoft visual studio 9.0\vc\include\list
;	COMDAT ??F?$_Const_iterator@$00@?$list@UFavoriteVolume@CipherShed@@V?$allocator@UFavoriteVolume@CipherShed@@@std@@@std@@QAEAAV012@XZ
_TEXT	SEGMENT
??F?$_Const_iterator@$00@?$list@UFavoriteVolume@CipherShed@@V?$allocator@UFavoriteVolume@CipherShed@@@std@@@std@@QAEAAV012@XZ PROC ; std::list<CipherShed::FavoriteVolume,std::allocator<CipherShed::FavoriteVolume> >::_Const_iterator<1>::operator--, COMDAT
; _this$ = ecx

; 262  : 			{	// predecrement

  00000	56		 push	 esi
  00001	8b f1		 mov	 esi, ecx

; 263  : 
; 264  :  #if _HAS_ITERATOR_DEBUGGING
; 265  : 			if (this->_Mycont == 0
; 266  : 				|| _Ptr == 0
; 267  : 				|| (_Ptr = _Prevnode(_Ptr))
; 268  : 					== ((_Myt *)this->_Mycont)->_Myhead)
; 269  : 				{
; 270  : 				_DEBUG_ERROR("list iterator not decrementable");
; 271  : 				_SCL_SECURE_TRAITS_OUT_OF_RANGE;
; 272  : 				}
; 273  :  #else /* _HAS_ITERATOR_DEBUGGING */
; 274  : 			_SCL_SECURE_TRAITS_VALIDATE(this->_Has_container());

  00003	83 3e 00	 cmp	 DWORD PTR [esi], 0
  00006	75 05		 jne	 SHORT $LN8@operator@9
  00008	e8 00 00 00 00	 call	 __invalid_parameter_noinfo
$LN8@operator@9:

; 275  : 			_Ptr = _Prevnode(_Ptr);

  0000d	8b 46 04	 mov	 eax, DWORD PTR [esi+4]
  00010	8b 48 04	 mov	 ecx, DWORD PTR [eax+4]

; 276  : 			_SCL_SECURE_TRAITS_VALIDATE_RANGE(_Ptr != ((_Myt *)(this->_Getmycont()))->_Myhead);

  00013	8b 06		 mov	 eax, DWORD PTR [esi]
  00015	89 4e 04	 mov	 DWORD PTR [esi+4], ecx
  00018	85 c0		 test	 eax, eax
  0001a	74 04		 je	 SHORT $LN19@operator@9
  0001c	8b 00		 mov	 eax, DWORD PTR [eax]
  0001e	eb 02		 jmp	 SHORT $LN20@operator@9
$LN19@operator@9:
  00020	33 c0		 xor	 eax, eax
$LN20@operator@9:
  00022	3b 48 14	 cmp	 ecx, DWORD PTR [eax+20]
  00025	75 05		 jne	 SHORT $LN23@operator@9
  00027	e8 00 00 00 00	 call	 __invalid_parameter_noinfo
$LN23@operator@9:

; 277  :  #endif /* _HAS_ITERATOR_DEBUGGING */
; 278  : 
; 279  : 			return (*this);

  0002c	8b c6		 mov	 eax, esi
  0002e	5e		 pop	 esi

; 280  : 			}

  0002f	c3		 ret	 0
??F?$_Const_iterator@$00@?$list@UFavoriteVolume@CipherShed@@V?$allocator@UFavoriteVolume@CipherShed@@@std@@@std@@QAEAAV012@XZ ENDP ; std::list<CipherShed::FavoriteVolume,std::allocator<CipherShed::FavoriteVolume> >::_Const_iterator<1>::operator--
_TEXT	ENDS
PUBLIC	??E?$_Const_iterator@$00@?$list@UFavoriteVolume@CipherShed@@V?$allocator@UFavoriteVolume@CipherShed@@@std@@@std@@QAE?AV012@H@Z ; std::list<CipherShed::FavoriteVolume,std::allocator<CipherShed::FavoriteVolume> >::_Const_iterator<1>::operator++
; Function compile flags: /Ogtpy
;	COMDAT ??E?$_Const_iterator@$00@?$list@UFavoriteVolume@CipherShed@@V?$allocator@UFavoriteVolume@CipherShed@@@std@@@std@@QAE?AV012@H@Z
_TEXT	SEGMENT
___$ReturnUdt$ = 8					; size = 4
___formal$ = 12						; size = 4
??E?$_Const_iterator@$00@?$list@UFavoriteVolume@CipherShed@@V?$allocator@UFavoriteVolume@CipherShed@@@std@@@std@@QAE?AV012@H@Z PROC ; std::list<CipherShed::FavoriteVolume,std::allocator<CipherShed::FavoriteVolume> >::_Const_iterator<1>::operator++, COMDAT
; _this$ = ecx

; 255  : 			{	// postincrement

  00000	56		 push	 esi
  00001	8b f1		 mov	 esi, ecx

; 256  : 			_Myt_iter _Tmp = *this;

  00003	8b 06		 mov	 eax, DWORD PTR [esi]
  00005	8b 4e 04	 mov	 ecx, DWORD PTR [esi+4]
  00008	57		 push	 edi
  00009	8b 7c 24 0c	 mov	 edi, DWORD PTR ___$ReturnUdt$[esp+4]
  0000d	89 07		 mov	 DWORD PTR [edi], eax
  0000f	89 4f 04	 mov	 DWORD PTR [edi+4], ecx

; 257  : 			++*this;

  00012	85 c0		 test	 eax, eax
  00014	75 0b		 jne	 SHORT $LN25@operator@10
  00016	e8 00 00 00 00	 call	 __invalid_parameter_noinfo
  0001b	8b 06		 mov	 eax, DWORD PTR [esi]
  0001d	85 c0		 test	 eax, eax
  0001f	74 04		 je	 SHORT $LN19@operator@10
$LN25@operator@10:
  00021	8b 00		 mov	 eax, DWORD PTR [eax]
  00023	eb 02		 jmp	 SHORT $LN20@operator@10
$LN19@operator@10:
  00025	33 c0		 xor	 eax, eax
$LN20@operator@10:
  00027	8b 56 04	 mov	 edx, DWORD PTR [esi+4]
  0002a	3b 50 14	 cmp	 edx, DWORD PTR [eax+20]
  0002d	75 05		 jne	 SHORT $LN5@operator@10
  0002f	e8 00 00 00 00	 call	 __invalid_parameter_noinfo
$LN5@operator@10:
  00034	8b 46 04	 mov	 eax, DWORD PTR [esi+4]
  00037	8b 08		 mov	 ecx, DWORD PTR [eax]

; 258  : 			return (_Tmp);

  00039	8b c7		 mov	 eax, edi
  0003b	5f		 pop	 edi
  0003c	89 4e 04	 mov	 DWORD PTR [esi+4], ecx
  0003f	5e		 pop	 esi

; 259  : 			}

  00040	c2 08 00	 ret	 8
??E?$_Const_iterator@$00@?$list@UFavoriteVolume@CipherShed@@V?$allocator@UFavoriteVolume@CipherShed@@@std@@@std@@QAE?AV012@H@Z ENDP ; std::list<CipherShed::FavoriteVolume,std::allocator<CipherShed::FavoriteVolume> >::_Const_iterator<1>::operator++
_TEXT	ENDS
PUBLIC	??$_Ptr_cat@V?$_Vector_const_iterator@UFavoriteVolume@CipherShed@@V?$allocator@UFavoriteVolume@CipherShed@@@std@@@std@@PAUFavoriteVolume@CipherShed@@@std@@YA?AU_Nonscalar_ptr_iterator_tag@0@AAV?$_Vector_const_iterator@UFavoriteVolume@CipherShed@@V?$allocator@UFavoriteVolume@CipherShed@@@std@@@0@AAPAUFavoriteVolume@CipherShed@@@Z ; std::_Ptr_cat<std::_Vector_const_iterator<CipherShed::FavoriteVolume,std::allocator<CipherShed::FavoriteVolume> >,CipherShed::FavoriteVolume *>
; Function compile flags: /Ogtpy
; File c:\program files (x86)\microsoft visual studio 9.0\vc\include\xutility
;	COMDAT ??$_Ptr_cat@V?$_Vector_const_iterator@UFavoriteVolume@CipherShed@@V?$allocator@UFavoriteVolume@CipherShed@@@std@@@std@@PAUFavoriteVolume@CipherShed@@@std@@YA?AU_Nonscalar_ptr_iterator_tag@0@AAV?$_Vector_const_iterator@UFavoriteVolume@CipherShed@@V?$allocator@UFavoriteVolume@CipherShed@@@std@@@0@AAPAUFavoriteVolume@CipherShed@@@Z
_TEXT	SEGMENT
__Cat$ = -1						; size = 1
___formal$ = 8						; size = 4
___formal$ = 12						; size = 4
??$_Ptr_cat@V?$_Vector_const_iterator@UFavoriteVolume@CipherShed@@V?$allocator@UFavoriteVolume@CipherShed@@@std@@@std@@PAUFavoriteVolume@CipherShed@@@std@@YA?AU_Nonscalar_ptr_iterator_tag@0@AAV?$_Vector_const_iterator@UFavoriteVolume@CipherShed@@V?$allocator@UFavoriteVolume@CipherShed@@@std@@@0@AAPAUFavoriteVolume@CipherShed@@@Z PROC ; std::_Ptr_cat<std::_Vector_const_iterator<CipherShed::FavoriteVolume,std::allocator<CipherShed::FavoriteVolume> >,CipherShed::FavoriteVolume *>, COMDAT

; 1509 : 	{

  00000	51		 push	 ecx

; 1510 : 	typename _Ptr_cat_helper<_T1, _T2>::_Ptr_cat _Cat;
; 1511 : 	return (_Cat);

  00001	8a 44 24 03	 mov	 al, BYTE PTR __Cat$[esp+4]

; 1512 : 	}

  00005	59		 pop	 ecx
  00006	c3		 ret	 0
??$_Ptr_cat@V?$_Vector_const_iterator@UFavoriteVolume@CipherShed@@V?$allocator@UFavoriteVolume@CipherShed@@@std@@@std@@PAUFavoriteVolume@CipherShed@@@std@@YA?AU_Nonscalar_ptr_iterator_tag@0@AAV?$_Vector_const_iterator@UFavoriteVolume@CipherShed@@V?$allocator@UFavoriteVolume@CipherShed@@@std@@@0@AAPAUFavoriteVolume@CipherShed@@@Z ENDP ; std::_Ptr_cat<std::_Vector_const_iterator<CipherShed::FavoriteVolume,std::allocator<CipherShed::FavoriteVolume> >,CipherShed::FavoriteVolume *>
_TEXT	ENDS
PUBLIC	?_Checked_iterator_base@?$_Vector_const_iterator@UFavoriteVolume@CipherShed@@V?$allocator@UFavoriteVolume@CipherShed@@@std@@@std@@QBEPBUFavoriteVolume@CipherShed@@XZ ; std::_Vector_const_iterator<CipherShed::FavoriteVolume,std::allocator<CipherShed::FavoriteVolume> >::_Checked_iterator_base
; Function compile flags: /Ogtpy
; File c:\program files (x86)\microsoft visual studio 9.0\vc\include\vector
;	COMDAT ?_Checked_iterator_base@?$_Vector_const_iterator@UFavoriteVolume@CipherShed@@V?$allocator@UFavoriteVolume@CipherShed@@@std@@@std@@QBEPBUFavoriteVolume@CipherShed@@XZ
_TEXT	SEGMENT
?_Checked_iterator_base@?$_Vector_const_iterator@UFavoriteVolume@CipherShed@@V?$allocator@UFavoriteVolume@CipherShed@@@std@@@std@@QBEPBUFavoriteVolume@CipherShed@@XZ PROC ; std::_Vector_const_iterator<CipherShed::FavoriteVolume,std::allocator<CipherShed::FavoriteVolume> >::_Checked_iterator_base, COMDAT
; _this$ = ecx

; 47   : 		return _Myptr;

  00000	8b 41 04	 mov	 eax, DWORD PTR [ecx+4]

; 48   : 	}

  00003	c3		 ret	 0
?_Checked_iterator_base@?$_Vector_const_iterator@UFavoriteVolume@CipherShed@@V?$allocator@UFavoriteVolume@CipherShed@@@std@@@std@@QBEPBUFavoriteVolume@CipherShed@@XZ ENDP ; std::_Vector_const_iterator<CipherShed::FavoriteVolume,std::allocator<CipherShed::FavoriteVolume> >::_Checked_iterator_base
_TEXT	ENDS
PUBLIC	??A?$basic_string@DU?$char_traits@D@std@@V?$allocator@D@2@@std@@QAEAADI@Z ; std::basic_string<char,std::char_traits<char>,std::allocator<char> >::operator[]
; Function compile flags: /Ogtpy
; File c:\program files (x86)\microsoft visual studio 9.0\vc\include\xstring
;	COMDAT ??A?$basic_string@DU?$char_traits@D@std@@V?$allocator@D@2@@std@@QAEAADI@Z
_TEXT	SEGMENT
__Off$ = 8						; size = 4
??A?$basic_string@DU?$char_traits@D@std@@V?$allocator@D@2@@std@@QAEAADI@Z PROC ; std::basic_string<char,std::char_traits<char>,std::allocator<char> >::operator[], COMDAT
; _this$ = ecx

; 1557 : 		{	// subscript mutable sequence

  00000	56		 push	 esi
  00001	57		 push	 edi

; 1558 : 
; 1559 :  #if _HAS_ITERATOR_DEBUGGING
; 1560 : 		// skip debug checks if the container is initizialed with _IGNORE_MYITERLIST
; 1561 : 		if (this->_Myfirstiter != _IGNORE_MYITERLIST)
; 1562 : 			{
; 1563 : 			if (_Mysize < _Off)
; 1564 : 				{
; 1565 : 				_DEBUG_ERROR("string subscript out of range");
; 1566 : 				_SCL_SECURE_OUT_OF_RANGE;
; 1567 : 				}
; 1568 : 			}
; 1569 :  #else
; 1570 : 		_SCL_SECURE_VALIDATE_RANGE(_Off <= _Mysize);

  00002	8b 7c 24 0c	 mov	 edi, DWORD PTR __Off$[esp+4]
  00006	8b f1		 mov	 esi, ecx
  00008	3b 7e 14	 cmp	 edi, DWORD PTR [esi+20]
  0000b	76 05		 jbe	 SHORT $LN3@operator@11
  0000d	e8 00 00 00 00	 call	 __invalid_parameter_noinfo
$LN3@operator@11:

; 1571 :  #endif /* _HAS_ITERATOR_DEBUGGING */
; 1572 : 
; 1573 : 		return (_Myptr()[_Off]);

  00012	83 7e 18 10	 cmp	 DWORD PTR [esi+24], 16	; 00000010H
  00016	72 0b		 jb	 SHORT $LN9@operator@11
  00018	8b 76 04	 mov	 esi, DWORD PTR [esi+4]
  0001b	8d 04 3e	 lea	 eax, DWORD PTR [esi+edi]
  0001e	5f		 pop	 edi
  0001f	5e		 pop	 esi

; 1574 : 		}

  00020	c2 04 00	 ret	 4

; 1571 :  #endif /* _HAS_ITERATOR_DEBUGGING */
; 1572 : 
; 1573 : 		return (_Myptr()[_Off]);

$LN9@operator@11:
  00023	8d 44 3e 04	 lea	 eax, DWORD PTR [esi+edi+4]
  00027	5f		 pop	 edi
  00028	5e		 pop	 esi

; 1574 : 		}

  00029	c2 04 00	 ret	 4
??A?$basic_string@DU?$char_traits@D@std@@V?$allocator@D@2@@std@@QAEAADI@Z ENDP ; std::basic_string<char,std::char_traits<char>,std::allocator<char> >::operator[]
_TEXT	ENDS
PUBLIC	?c_str@?$basic_string@DU?$char_traits@D@std@@V?$allocator@D@2@@std@@QBEPBDXZ ; std::basic_string<char,std::char_traits<char>,std::allocator<char> >::c_str
; Function compile flags: /Ogtpy
;	COMDAT ?c_str@?$basic_string@DU?$char_traits@D@std@@V?$allocator@D@2@@std@@QBEPBDXZ
_TEXT	SEGMENT
?c_str@?$basic_string@DU?$char_traits@D@std@@V?$allocator@D@2@@std@@QBEPBDXZ PROC ; std::basic_string<char,std::char_traits<char>,std::allocator<char> >::c_str, COMDAT
; _this$ = ecx

; 1651 : 		return (_Myptr());

  00000	83 79 18 10	 cmp	 DWORD PTR [ecx+24], 16	; 00000010H
  00004	72 04		 jb	 SHORT $LN5@c_str
  00006	8b 41 04	 mov	 eax, DWORD PTR [ecx+4]

; 1652 : 		}

  00009	c3		 ret	 0

; 1651 : 		return (_Myptr());

$LN5@c_str:
  0000a	8d 41 04	 lea	 eax, DWORD PTR [ecx+4]

; 1652 : 		}

  0000d	c3		 ret	 0
?c_str@?$basic_string@DU?$char_traits@D@std@@V?$allocator@D@2@@std@@QBEPBDXZ ENDP ; std::basic_string<char,std::char_traits<char>,std::allocator<char> >::c_str
_TEXT	ENDS
PUBLIC	?at@?$basic_string@_WU?$char_traits@_W@std@@V?$allocator@_W@2@@std@@QAEAA_WI@Z ; std::basic_string<wchar_t,std::char_traits<wchar_t>,std::allocator<wchar_t> >::at
EXTRN	?_Xran@_String_base@std@@SAXXZ:PROC		; std::_String_base::_Xran
; Function compile flags: /Ogtpy
;	COMDAT ?at@?$basic_string@_WU?$char_traits@_W@std@@V?$allocator@_W@2@@std@@QAEAA_WI@Z
_TEXT	SEGMENT
__Off$ = 8						; size = 4
?at@?$basic_string@_WU?$char_traits@_W@std@@V?$allocator@_W@2@@std@@QAEAA_WI@Z PROC ; std::basic_string<wchar_t,std::char_traits<wchar_t>,std::allocator<wchar_t> >::at, COMDAT
; _this$ = ecx

; 1541 : 		{	// subscript mutable sequence with checking

  00000	56		 push	 esi
  00001	57		 push	 edi

; 1542 : 		if (_Mysize <= _Off)

  00002	8b 7c 24 0c	 mov	 edi, DWORD PTR __Off$[esp+4]
  00006	8b f1		 mov	 esi, ecx
  00008	39 7e 14	 cmp	 DWORD PTR [esi+20], edi
  0000b	77 05		 ja	 SHORT $LN1@at

; 1543 : 			_String_base::_Xran();	// _Off off end

  0000d	e8 00 00 00 00	 call	 ?_Xran@_String_base@std@@SAXXZ ; std::_String_base::_Xran
$LN1@at:

; 1544 : 		return (_Myptr()[_Off]);

  00012	83 7e 18 08	 cmp	 DWORD PTR [esi+24], 8
  00016	72 0b		 jb	 SHORT $LN6@at
  00018	8b 76 04	 mov	 esi, DWORD PTR [esi+4]
  0001b	8d 04 7e	 lea	 eax, DWORD PTR [esi+edi*2]
  0001e	5f		 pop	 edi
  0001f	5e		 pop	 esi

; 1545 : 		}

  00020	c2 04 00	 ret	 4

; 1544 : 		return (_Myptr()[_Off]);

$LN6@at:
  00023	8d 44 7e 04	 lea	 eax, DWORD PTR [esi+edi*2+4]
  00027	5f		 pop	 edi
  00028	5e		 pop	 esi

; 1545 : 		}

  00029	c2 04 00	 ret	 4
?at@?$basic_string@_WU?$char_traits@_W@std@@V?$allocator@_W@2@@std@@QAEAA_WI@Z ENDP ; std::basic_string<wchar_t,std::char_traits<wchar_t>,std::allocator<wchar_t> >::at
_TEXT	ENDS
PUBLIC	??A?$basic_string@_WU?$char_traits@_W@std@@V?$allocator@_W@2@@std@@QAEAA_WI@Z ; std::basic_string<wchar_t,std::char_traits<wchar_t>,std::allocator<wchar_t> >::operator[]
; Function compile flags: /Ogtpy
;	COMDAT ??A?$basic_string@_WU?$char_traits@_W@std@@V?$allocator@_W@2@@std@@QAEAA_WI@Z
_TEXT	SEGMENT
__Off$ = 8						; size = 4
??A?$basic_string@_WU?$char_traits@_W@std@@V?$allocator@_W@2@@std@@QAEAA_WI@Z PROC ; std::basic_string<wchar_t,std::char_traits<wchar_t>,std::allocator<wchar_t> >::operator[], COMDAT
; _this$ = ecx

; 1557 : 		{	// subscript mutable sequence

  00000	56		 push	 esi
  00001	57		 push	 edi

; 1558 : 
; 1559 :  #if _HAS_ITERATOR_DEBUGGING
; 1560 : 		// skip debug checks if the container is initizialed with _IGNORE_MYITERLIST
; 1561 : 		if (this->_Myfirstiter != _IGNORE_MYITERLIST)
; 1562 : 			{
; 1563 : 			if (_Mysize < _Off)
; 1564 : 				{
; 1565 : 				_DEBUG_ERROR("string subscript out of range");
; 1566 : 				_SCL_SECURE_OUT_OF_RANGE;
; 1567 : 				}
; 1568 : 			}
; 1569 :  #else
; 1570 : 		_SCL_SECURE_VALIDATE_RANGE(_Off <= _Mysize);

  00002	8b 7c 24 0c	 mov	 edi, DWORD PTR __Off$[esp+4]
  00006	8b f1		 mov	 esi, ecx
  00008	3b 7e 14	 cmp	 edi, DWORD PTR [esi+20]
  0000b	76 05		 jbe	 SHORT $LN3@operator@12
  0000d	e8 00 00 00 00	 call	 __invalid_parameter_noinfo
$LN3@operator@12:

; 1571 :  #endif /* _HAS_ITERATOR_DEBUGGING */
; 1572 : 
; 1573 : 		return (_Myptr()[_Off]);

  00012	83 7e 18 08	 cmp	 DWORD PTR [esi+24], 8
  00016	72 0b		 jb	 SHORT $LN9@operator@12
  00018	8b 76 04	 mov	 esi, DWORD PTR [esi+4]
  0001b	8d 04 7e	 lea	 eax, DWORD PTR [esi+edi*2]
  0001e	5f		 pop	 edi
  0001f	5e		 pop	 esi

; 1574 : 		}

  00020	c2 04 00	 ret	 4

; 1571 :  #endif /* _HAS_ITERATOR_DEBUGGING */
; 1572 : 
; 1573 : 		return (_Myptr()[_Off]);

$LN9@operator@12:
  00023	8d 44 7e 04	 lea	 eax, DWORD PTR [esi+edi*2+4]
  00027	5f		 pop	 edi
  00028	5e		 pop	 esi

; 1574 : 		}

  00029	c2 04 00	 ret	 4
??A?$basic_string@_WU?$char_traits@_W@std@@V?$allocator@_W@2@@std@@QAEAA_WI@Z ENDP ; std::basic_string<wchar_t,std::char_traits<wchar_t>,std::allocator<wchar_t> >::operator[]
_TEXT	ENDS
PUBLIC	?c_str@?$basic_string@_WU?$char_traits@_W@std@@V?$allocator@_W@2@@std@@QBEPB_WXZ ; std::basic_string<wchar_t,std::char_traits<wchar_t>,std::allocator<wchar_t> >::c_str
; Function compile flags: /Ogtpy
;	COMDAT ?c_str@?$basic_string@_WU?$char_traits@_W@std@@V?$allocator@_W@2@@std@@QBEPB_WXZ
_TEXT	SEGMENT
?c_str@?$basic_string@_WU?$char_traits@_W@std@@V?$allocator@_W@2@@std@@QBEPB_WXZ PROC ; std::basic_string<wchar_t,std::char_traits<wchar_t>,std::allocator<wchar_t> >::c_str, COMDAT
; _this$ = ecx

; 1651 : 		return (_Myptr());

  00000	83 79 18 08	 cmp	 DWORD PTR [ecx+24], 8
  00004	72 04		 jb	 SHORT $LN5@c_str@2
  00006	8b 41 04	 mov	 eax, DWORD PTR [ecx+4]

; 1652 : 		}

  00009	c3		 ret	 0

; 1651 : 		return (_Myptr());

$LN5@c_str@2:
  0000a	8d 41 04	 lea	 eax, DWORD PTR [ecx+4]

; 1652 : 		}

  0000d	c3		 ret	 0
?c_str@?$basic_string@_WU?$char_traits@_W@std@@V?$allocator@_W@2@@std@@QBEPB_WXZ ENDP ; std::basic_string<wchar_t,std::char_traits<wchar_t>,std::allocator<wchar_t> >::c_str
_TEXT	ENDS
PUBLIC	??D?$_Const_iterator@$00@?$list@UFavoriteVolume@CipherShed@@V?$allocator@UFavoriteVolume@CipherShed@@@std@@@std@@QBEABUFavoriteVolume@CipherShed@@XZ ; std::list<CipherShed::FavoriteVolume,std::allocator<CipherShed::FavoriteVolume> >::_Const_iterator<1>::operator*
; Function compile flags: /Ogtpy
; File c:\program files (x86)\microsoft visual studio 9.0\vc\include\list
;	COMDAT ??D?$_Const_iterator@$00@?$list@UFavoriteVolume@CipherShed@@V?$allocator@UFavoriteVolume@CipherShed@@@std@@@std@@QBEABUFavoriteVolume@CipherShed@@XZ
_TEXT	SEGMENT
??D?$_Const_iterator@$00@?$list@UFavoriteVolume@CipherShed@@V?$allocator@UFavoriteVolume@CipherShed@@@std@@@std@@QBEABUFavoriteVolume@CipherShed@@XZ PROC ; std::list<CipherShed::FavoriteVolume,std::allocator<CipherShed::FavoriteVolume> >::_Const_iterator<1>::operator*, COMDAT
; _this$ = ecx

; 211  : 			{	// return designated value

  00000	56		 push	 esi
  00001	8b f1		 mov	 esi, ecx

; 212  : 
; 213  :  #if _HAS_ITERATOR_DEBUGGING
; 214  : 			if (this->_Mycont == 0
; 215  : 				|| _Ptr == 0
; 216  : 				|| _Ptr == ((_Myt *)this->_Mycont)->_Myhead)
; 217  : 				{
; 218  : 				_DEBUG_ERROR("list iterator not dereferencable");
; 219  : 				_SCL_SECURE_TRAITS_OUT_OF_RANGE;
; 220  : 				}
; 221  :  #else
; 222  : 			_SCL_SECURE_TRAITS_VALIDATE(this->_Has_container());

  00003	8b 06		 mov	 eax, DWORD PTR [esi]
  00005	85 c0		 test	 eax, eax
  00007	75 0b		 jne	 SHORT $LN23@operator@13
  00009	e8 00 00 00 00	 call	 __invalid_parameter_noinfo

; 223  : 			_SCL_SECURE_TRAITS_VALIDATE_RANGE(_Ptr != ((_Myt *)(this->_Getmycont()))->_Myhead);

  0000e	8b 06		 mov	 eax, DWORD PTR [esi]
  00010	85 c0		 test	 eax, eax
  00012	74 04		 je	 SHORT $LN17@operator@13
$LN23@operator@13:
  00014	8b 00		 mov	 eax, DWORD PTR [eax]
  00016	eb 02		 jmp	 SHORT $LN18@operator@13
$LN17@operator@13:
  00018	33 c0		 xor	 eax, eax
$LN18@operator@13:
  0001a	8b 4e 04	 mov	 ecx, DWORD PTR [esi+4]
  0001d	3b 48 14	 cmp	 ecx, DWORD PTR [eax+20]
  00020	75 05		 jne	 SHORT $LN3@operator@13
  00022	e8 00 00 00 00	 call	 __invalid_parameter_noinfo
$LN3@operator@13:

; 224  :  #endif /* _HAS_ITERATOR_DEBUGGING */
; 225  : 
; 226  : 			return (_Myval(_Ptr));

  00027	8b 46 04	 mov	 eax, DWORD PTR [esi+4]
  0002a	83 c0 08	 add	 eax, 8
  0002d	5e		 pop	 esi

; 227  : 			}

  0002e	c3		 ret	 0
??D?$_Const_iterator@$00@?$list@UFavoriteVolume@CipherShed@@V?$allocator@UFavoriteVolume@CipherShed@@@std@@@std@@QBEABUFavoriteVolume@CipherShed@@XZ ENDP ; std::list<CipherShed::FavoriteVolume,std::allocator<CipherShed::FavoriteVolume> >::_Const_iterator<1>::operator*
_TEXT	ENDS
PUBLIC	?find@?$basic_string@DU?$char_traits@D@std@@V?$allocator@D@2@@std@@QBEIPBDII@Z ; std::basic_string<char,std::char_traits<char>,std::allocator<char> >::find
; Function compile flags: /Ogtpy
; File c:\program files (x86)\microsoft visual studio 9.0\vc\include\xstring
;	COMDAT ?find@?$basic_string@DU?$char_traits@D@std@@V?$allocator@D@2@@std@@QBEIPBDII@Z
_TEXT	SEGMENT
_this$ = -4						; size = 4
__Ptr$ = 8						; size = 4
tv206 = 12						; size = 4
__Off$ = 12						; size = 4
__Count$ = 16						; size = 4
?find@?$basic_string@DU?$char_traits@D@std@@V?$allocator@D@2@@std@@QBEIPBDII@Z PROC ; std::basic_string<char,std::char_traits<char>,std::allocator<char> >::find, COMDAT
; _this$ = ecx

; 1770 : 		{	// look for [_Ptr, _Ptr + _Count) beginnng at or after _Off

  00000	51		 push	 ecx

; 1771 : 
; 1772 :  #if _HAS_ITERATOR_DEBUGGING
; 1773 : 		if (_Count != 0)
; 1774 : 			_DEBUG_POINTER(_Ptr);
; 1775 :  #endif /* _HAS_ITERATOR_DEBUGGING */
; 1776 : 
; 1777 : 		if (_Count == 0 && _Off <= _Mysize)

  00001	8b 54 24 10	 mov	 edx, DWORD PTR __Count$[esp]
  00005	8b 44 24 0c	 mov	 eax, DWORD PTR __Off$[esp]
  00009	89 0c 24	 mov	 DWORD PTR _this$[esp+4], ecx
  0000c	85 d2		 test	 edx, edx
  0000e	75 09		 jne	 SHORT $LN6@find
  00010	3b 41 14	 cmp	 eax, DWORD PTR [ecx+20]

; 1778 : 			return (_Off);	// null string always matches (if inside string)

  00013	0f 86 86 00 00
	00		 jbe	 $LN7@find
$LN6@find:
  00019	53		 push	 ebx
  0001a	55		 push	 ebp
  0001b	56		 push	 esi
  0001c	57		 push	 edi

; 1779 : 
; 1780 : 		size_type _Nm;
; 1781 : 		if (_Off < _Mysize && _Count <= (_Nm = _Mysize - _Off))

  0001d	8b 79 14	 mov	 edi, DWORD PTR [ecx+20]
  00020	3b c7		 cmp	 eax, edi
  00022	73 74		 jae	 SHORT $LN2@find
  00024	2b f8		 sub	 edi, eax
  00026	3b d7		 cmp	 edx, edi
  00028	77 6e		 ja	 SHORT $LN2@find

; 1782 : 			{	// room for match, look for it
; 1783 : 			const _Elem *_Uptr, *_Vptr;
; 1784 : 			for (_Nm -= _Count - 1, _Vptr = _Myptr() + _Off;

  0002a	be 01 00 00 00	 mov	 esi, 1
  0002f	2b f2		 sub	 esi, edx
  00031	03 fe		 add	 edi, esi
  00033	83 79 18 10	 cmp	 DWORD PTR [ecx+24], 16	; 00000010H
  00037	72 0b		 jb	 SHORT $LN11@find
  00039	83 c1 04	 add	 ecx, 4
  0003c	89 4c 24 1c	 mov	 DWORD PTR tv206[esp+16], ecx
  00040	8b 09		 mov	 ecx, DWORD PTR [ecx]
  00042	eb 07		 jmp	 SHORT $LN12@find
$LN11@find:
  00044	83 c1 04	 add	 ecx, 4
  00047	89 4c 24 1c	 mov	 DWORD PTR tv206[esp+16], ecx
$LN12@find:

; 1785 : 				(_Uptr = _Traits::find(_Vptr, _Nm, *_Ptr)) != 0;
; 1786 : 				_Nm -= _Uptr - _Vptr + 1, _Vptr = _Uptr + 1)

  0004b	8b 6c 24 18	 mov	 ebp, DWORD PTR __Ptr$[esp+16]
  0004f	8d 1c 01	 lea	 ebx, DWORD PTR [ecx+eax]
  00052	0f be 45 00	 movsx	 eax, BYTE PTR [ebp]
  00056	57		 push	 edi
  00057	50		 push	 eax
  00058	53		 push	 ebx
  00059	e8 00 00 00 00	 call	 _memchr
  0005e	8b f0		 mov	 esi, eax
  00060	83 c4 0c	 add	 esp, 12			; 0000000cH
  00063	85 f6		 test	 esi, esi
  00065	74 31		 je	 SHORT $LN2@find
$LL4@find:

; 1787 : 				if (_Traits::compare(_Uptr, _Ptr, _Count) == 0)

  00067	8b 4c 24 20	 mov	 ecx, DWORD PTR __Count$[esp+16]
  0006b	51		 push	 ecx
  0006c	55		 push	 ebp
  0006d	56		 push	 esi
  0006e	e8 00 00 00 00	 call	 ?compare@?$char_traits@D@std@@SAHPBD0I@Z ; std::char_traits<char>::compare
  00073	83 c4 0c	 add	 esp, 12			; 0000000cH
  00076	85 c0		 test	 eax, eax
  00078	74 29		 je	 SHORT $LN20@find
  0007a	0f be 55 00	 movsx	 edx, BYTE PTR [ebp]
  0007e	2b de		 sub	 ebx, esi
  00080	8d 7c 1f ff	 lea	 edi, DWORD PTR [edi+ebx-1]
  00084	57		 push	 edi
  00085	52		 push	 edx
  00086	8d 5e 01	 lea	 ebx, DWORD PTR [esi+1]
  00089	53		 push	 ebx
  0008a	e8 00 00 00 00	 call	 _memchr
  0008f	8b f0		 mov	 esi, eax
  00091	83 c4 0c	 add	 esp, 12			; 0000000cH
  00094	85 f6		 test	 esi, esi
  00096	75 cf		 jne	 SHORT $LL4@find
$LN2@find:
  00098	5f		 pop	 edi
  00099	5e		 pop	 esi
  0009a	5d		 pop	 ebp

; 1789 : 			}
; 1790 : 
; 1791 : 		return (npos);	// no match

  0009b	83 c8 ff	 or	 eax, -1
  0009e	5b		 pop	 ebx
$LN7@find:

; 1792 : 		}

  0009f	59		 pop	 ecx
  000a0	c2 0c 00	 ret	 12			; 0000000cH
$LN20@find:

; 1788 : 					return (_Uptr - _Myptr());	// found a match

  000a3	8b 44 24 10	 mov	 eax, DWORD PTR _this$[esp+20]
  000a7	83 78 18 10	 cmp	 DWORD PTR [eax+24], 16	; 00000010H
  000ab	8b 4c 24 1c	 mov	 ecx, DWORD PTR tv206[esp+16]
  000af	72 02		 jb	 SHORT $LN18@find
  000b1	8b 09		 mov	 ecx, DWORD PTR [ecx]
$LN18@find:
  000b3	5f		 pop	 edi
  000b4	8b c6		 mov	 eax, esi
  000b6	5e		 pop	 esi
  000b7	5d		 pop	 ebp
  000b8	2b c1		 sub	 eax, ecx
  000ba	5b		 pop	 ebx

; 1792 : 		}

  000bb	59		 pop	 ecx
  000bc	c2 0c 00	 ret	 12			; 0000000cH
?find@?$basic_string@DU?$char_traits@D@std@@V?$allocator@D@2@@std@@QBEIPBDII@Z ENDP ; std::basic_string<char,std::char_traits<char>,std::allocator<char> >::find
_TEXT	ENDS
PUBLIC	?rfind@?$basic_string@DU?$char_traits@D@std@@V?$allocator@D@2@@std@@QBEIPBDII@Z ; std::basic_string<char,std::char_traits<char>,std::allocator<char> >::rfind
; Function compile flags: /Ogtpy
;	COMDAT ?rfind@?$basic_string@DU?$char_traits@D@std@@V?$allocator@D@2@@std@@QBEIPBDII@Z
_TEXT	SEGMENT
__Ptr$ = 8						; size = 4
tv170 = 12						; size = 4
__Off$ = 12						; size = 4
__Count$ = 16						; size = 4
?rfind@?$basic_string@DU?$char_traits@D@std@@V?$allocator@D@2@@std@@QBEIPBDII@Z PROC ; std::basic_string<char,std::char_traits<char>,std::allocator<char> >::rfind, COMDAT
; _this$ = ecx

; 1813 : 
; 1814 :  #if _HAS_ITERATOR_DEBUGGING
; 1815 : 		if (_Count != 0)
; 1816 : 			_DEBUG_POINTER(_Ptr);
; 1817 :  #endif /* _HAS_ITERATOR_DEBUGGING */
; 1818 : 
; 1819 : 		if (_Count == 0)

  00000	8b 54 24 0c	 mov	 edx, DWORD PTR __Count$[esp-4]
  00004	57		 push	 edi
  00005	8b f9		 mov	 edi, ecx

; 1820 : 			return (_Off < _Mysize ? _Off : _Mysize);	// null always matches

  00007	8b 47 14	 mov	 eax, DWORD PTR [edi+20]
  0000a	85 d2		 test	 edx, edx
  0000c	75 12		 jne	 SHORT $LN8@rfind
  0000e	8b 4c 24 0c	 mov	 ecx, DWORD PTR __Off$[esp]
  00012	3b c8		 cmp	 ecx, eax
  00014	0f 83 85 00 00
	00		 jae	 $LN9@rfind
  0001a	8b c1		 mov	 eax, ecx
  0001c	5f		 pop	 edi

; 1834 : 		}

  0001d	c2 0c 00	 ret	 12			; 0000000cH
$LN8@rfind:
  00020	53		 push	 ebx
  00021	55		 push	 ebp
  00022	56		 push	 esi

; 1821 : 		if (_Count <= _Mysize)

  00023	3b d0		 cmp	 edx, eax
  00025	77 72		 ja	 SHORT $LN27@rfind

; 1822 : 			{	// room for match, look for it
; 1823 : 			const _Elem *_Uptr = _Myptr() +
; 1824 : 				(_Off < _Mysize - _Count ? _Off : _Mysize - _Count);

  00027	8b 4c 24 18	 mov	 ecx, DWORD PTR __Off$[esp+12]
  0002b	2b c2		 sub	 eax, edx
  0002d	3b c8		 cmp	 ecx, eax
  0002f	73 02		 jae	 SHORT $LN13@rfind
  00031	8b c1		 mov	 eax, ecx
$LN13@rfind:
  00033	8b 4f 18	 mov	 ecx, DWORD PTR [edi+24]
  00036	89 4c 24 18	 mov	 DWORD PTR tv170[esp+12], ecx
  0003a	8d 5f 04	 lea	 ebx, DWORD PTR [edi+4]
  0003d	83 f9 10	 cmp	 ecx, 16			; 00000010H
  00040	72 04		 jb	 SHORT $LN17@rfind
  00042	8b 0b		 mov	 ecx, DWORD PTR [ebx]
  00044	eb 02		 jmp	 SHORT $LN18@rfind
$LN17@rfind:
  00046	8b cb		 mov	 ecx, ebx
$LN18@rfind:
  00048	8b 6c 24 14	 mov	 ebp, DWORD PTR __Ptr$[esp+12]
  0004c	8d 34 01	 lea	 esi, DWORD PTR [ecx+eax]
  0004f	90		 npad	 1
$LL6@rfind:

; 1825 : 			for (; ; --_Uptr)
; 1826 : 				if (_Traits::eq(*_Uptr, *_Ptr)
; 1827 : 					&& _Traits::compare(_Uptr, _Ptr, _Count) == 0)

  00050	8a 45 00	 mov	 al, BYTE PTR [ebp]
  00053	38 06		 cmp	 BYTE PTR [esi], al
  00055	75 0f		 jne	 SHORT $LN3@rfind
  00057	52		 push	 edx
  00058	55		 push	 ebp
  00059	56		 push	 esi
  0005a	e8 00 00 00 00	 call	 ?compare@?$char_traits@D@std@@SAHPBD0I@Z ; std::char_traits<char>::compare
  0005f	83 c4 0c	 add	 esp, 12			; 0000000cH
  00062	85 c0		 test	 eax, eax
  00064	74 12		 je	 SHORT $LN26@rfind
$LN3@rfind:

; 1829 : 				else if (_Uptr == _Myptr())

  00066	8b cf		 mov	 ecx, edi
  00068	e8 00 00 00 00	 call	 ?_Myptr@?$basic_string@DU?$char_traits@D@std@@V?$allocator@D@2@@std@@IBEPBDXZ ; std::basic_string<char,std::char_traits<char>,std::allocator<char> >::_Myptr
  0006d	3b f0		 cmp	 esi, eax
  0006f	74 28		 je	 SHORT $LN27@rfind
  00071	8b 54 24 1c	 mov	 edx, DWORD PTR __Count$[esp+12]
  00075	4e		 dec	 esi
  00076	eb d8		 jmp	 SHORT $LL6@rfind
$LN26@rfind:

; 1828 : 					return (_Uptr - _Myptr());	// found a match

  00078	83 7c 24 18 10	 cmp	 DWORD PTR tv170[esp+12], 16 ; 00000010H
  0007d	72 0d		 jb	 SHORT $LN23@rfind
  0007f	8b 0b		 mov	 ecx, DWORD PTR [ebx]
  00081	8b c6		 mov	 eax, esi
  00083	5e		 pop	 esi
  00084	5d		 pop	 ebp
  00085	5b		 pop	 ebx
  00086	2b c1		 sub	 eax, ecx
  00088	5f		 pop	 edi

; 1834 : 		}

  00089	c2 0c 00	 ret	 12			; 0000000cH

; 1828 : 					return (_Uptr - _Myptr());	// found a match

$LN23@rfind:
  0008c	8b c6		 mov	 eax, esi
  0008e	5e		 pop	 esi
  0008f	5d		 pop	 ebp
  00090	8b cb		 mov	 ecx, ebx
  00092	5b		 pop	 ebx
  00093	2b c1		 sub	 eax, ecx
  00095	5f		 pop	 edi

; 1834 : 		}

  00096	c2 0c 00	 ret	 12			; 0000000cH
$LN27@rfind:
  00099	5e		 pop	 esi
  0009a	5d		 pop	 ebp

; 1830 : 					break;	// at beginning, no more chance for match
; 1831 : 			}
; 1832 : 
; 1833 : 		return (npos);	// no match

  0009b	83 c8 ff	 or	 eax, -1
  0009e	5b		 pop	 ebx
$LN9@rfind:
  0009f	5f		 pop	 edi

; 1834 : 		}

  000a0	c2 0c 00	 ret	 12			; 0000000cH
?rfind@?$basic_string@DU?$char_traits@D@std@@V?$allocator@D@2@@std@@QBEIPBDII@Z ENDP ; std::basic_string<char,std::char_traits<char>,std::allocator<char> >::rfind
_TEXT	ENDS
PUBLIC	?compare@?$basic_string@DU?$char_traits@D@std@@V?$allocator@D@2@@std@@QBEHIIPBDI@Z ; std::basic_string<char,std::char_traits<char>,std::allocator<char> >::compare
; Function compile flags: /Ogtpy
;	COMDAT ?compare@?$basic_string@DU?$char_traits@D@std@@V?$allocator@D@2@@std@@QBEHIIPBDI@Z
_TEXT	SEGMENT
__Off$ = 8						; size = 4
__N0$ = 12						; size = 4
__Ptr$ = 16						; size = 4
__Count$ = 20						; size = 4
?compare@?$basic_string@DU?$char_traits@D@std@@V?$allocator@D@2@@std@@QBEHIIPBDI@Z PROC ; std::basic_string<char,std::char_traits<char>,std::allocator<char> >::compare, COMDAT
; _this$ = ecx

; 2038 : 		{	// compare [_Off, _Off + _N0) with [_Ptr, _Ptr + _Count)

  00000	53		 push	 ebx
  00001	55		 push	 ebp

; 2039 : 
; 2040 :  #if _HAS_ITERATOR_DEBUGGING
; 2041 : 		if (_Count != 0)
; 2042 : 			_DEBUG_POINTER(_Ptr);
; 2043 :  #endif /* _HAS_ITERATOR_DEBUGGING */
; 2044 : 
; 2045 : 		if (_Mysize < _Off)

  00002	8b 6c 24 0c	 mov	 ebp, DWORD PTR __Off$[esp+4]
  00006	56		 push	 esi
  00007	57		 push	 edi
  00008	8b f9		 mov	 edi, ecx
  0000a	39 6f 14	 cmp	 DWORD PTR [edi+20], ebp
  0000d	73 05		 jae	 SHORT $LN2@compare@2

; 2046 : 			_String_base::_Xran();	// _Off off end

  0000f	e8 00 00 00 00	 call	 ?_Xran@_String_base@std@@SAXXZ ; std::_String_base::_Xran
$LN2@compare@2:

; 2047 : 		if (_Mysize - _Off < _N0)

  00014	8b 47 14	 mov	 eax, DWORD PTR [edi+20]
  00017	8b 74 24 18	 mov	 esi, DWORD PTR __N0$[esp+12]
  0001b	2b c5		 sub	 eax, ebp
  0001d	3b c6		 cmp	 eax, esi
  0001f	73 02		 jae	 SHORT $LN1@compare@2

; 2048 : 			_N0 = _Mysize - _Off;	// trim _N0 to size

  00021	8b f0		 mov	 esi, eax
$LN1@compare@2:

; 2049 : 
; 2050 : 		size_type _Ans = _Traits::compare(_Myptr() + _Off, _Ptr,
; 2051 : 			_N0 < _Count ? _N0 : _Count);

  00023	8b 5c 24 20	 mov	 ebx, DWORD PTR __Count$[esp+12]
  00027	8b c6		 mov	 eax, esi
  00029	3b f3		 cmp	 esi, ebx
  0002b	72 02		 jb	 SHORT $LN6@compare@2
  0002d	8b c3		 mov	 eax, ebx
$LN6@compare@2:
  0002f	83 7f 18 10	 cmp	 DWORD PTR [edi+24], 16	; 00000010H
  00033	72 05		 jb	 SHORT $LN13@compare@2
  00035	8b 7f 04	 mov	 edi, DWORD PTR [edi+4]
  00038	eb 03		 jmp	 SHORT $LN14@compare@2
$LN13@compare@2:
  0003a	83 c7 04	 add	 edi, 4
$LN14@compare@2:
  0003d	50		 push	 eax
  0003e	8b 44 24 20	 mov	 eax, DWORD PTR __Ptr$[esp+16]
  00042	50		 push	 eax
  00043	03 fd		 add	 edi, ebp
  00045	57		 push	 edi
  00046	e8 00 00 00 00	 call	 ?compare@?$char_traits@D@std@@SAHPBD0I@Z ; std::char_traits<char>::compare
  0004b	83 c4 0c	 add	 esp, 12			; 0000000cH

; 2052 : 		return (_Ans != 0 ? (int)_Ans : _N0 < _Count ? -1
; 2053 : 			: _N0 == _Count ? 0 : +1);

  0004e	85 c0		 test	 eax, eax
  00050	75 15		 jne	 SHORT $LN8@compare@2
  00052	3b f3		 cmp	 esi, ebx
  00054	73 0a		 jae	 SHORT $LN7@compare@2
  00056	5f		 pop	 edi
  00057	5e		 pop	 esi
  00058	5d		 pop	 ebp
  00059	83 c8 ff	 or	 eax, -1
  0005c	5b		 pop	 ebx

; 2054 : 		}

  0005d	c2 10 00	 ret	 16			; 00000010H
$LN7@compare@2:

; 2052 : 		return (_Ans != 0 ? (int)_Ans : _N0 < _Count ? -1
; 2053 : 			: _N0 == _Count ? 0 : +1);

  00060	33 c0		 xor	 eax, eax
  00062	3b f3		 cmp	 esi, ebx
  00064	0f 95 c0	 setne	 al
$LN8@compare@2:
  00067	5f		 pop	 edi
  00068	5e		 pop	 esi
  00069	5d		 pop	 ebp
  0006a	5b		 pop	 ebx

; 2054 : 		}

  0006b	c2 10 00	 ret	 16			; 00000010H
?compare@?$basic_string@DU?$char_traits@D@std@@V?$allocator@D@2@@std@@QBEHIIPBDI@Z ENDP ; std::basic_string<char,std::char_traits<char>,std::allocator<char> >::compare
_TEXT	ENDS
PUBLIC	?get_allocator@?$basic_string@DU?$char_traits@D@std@@V?$allocator@D@2@@std@@QBE?AV?$allocator@D@2@XZ ; std::basic_string<char,std::char_traits<char>,std::allocator<char> >::get_allocator
; Function compile flags: /Ogtpy
;	COMDAT ?get_allocator@?$basic_string@DU?$char_traits@D@std@@V?$allocator@D@2@@std@@QBE?AV?$allocator@D@2@XZ
_TEXT	SEGMENT
___$ReturnUdt$ = 8					; size = 4
?get_allocator@?$basic_string@DU?$char_traits@D@std@@V?$allocator@D@2@@std@@QBE?AV?$allocator@D@2@XZ PROC ; std::basic_string<char,std::char_traits<char>,std::allocator<char> >::get_allocator, COMDAT
; _this$ = ecx

; 2058 : 		return (_Mybase::_Alval);

  00000	8b 44 24 04	 mov	 eax, DWORD PTR ___$ReturnUdt$[esp-4]

; 2059 : 		}

  00004	c2 04 00	 ret	 4
?get_allocator@?$basic_string@DU?$char_traits@D@std@@V?$allocator@D@2@@std@@QBE?AV?$allocator@D@2@XZ ENDP ; std::basic_string<char,std::char_traits<char>,std::allocator<char> >::get_allocator
_TEXT	ENDS
PUBLIC	??0?$_String_val@DV?$allocator@D@std@@@std@@IAE@V?$allocator@D@1@@Z ; std::_String_val<char,std::allocator<char> >::_String_val<char,std::allocator<char> >
; Function compile flags: /Ogtpy
;	COMDAT ??0?$_String_val@DV?$allocator@D@std@@@std@@IAE@V?$allocator@D@1@@Z
_TEXT	SEGMENT
__Al$ = 8						; size = 1
??0?$_String_val@DV?$allocator@D@std@@@std@@IAE@V?$allocator@D@1@@Z PROC ; std::_String_val<char,std::allocator<char> >::_String_val<char,std::allocator<char> >, COMDAT
; _this$ = ecx

; 472  : 		{	// construct allocator from _Al

  00000	8b c1		 mov	 eax, ecx

; 473  : 		}

  00002	c2 04 00	 ret	 4
??0?$_String_val@DV?$allocator@D@std@@@std@@IAE@V?$allocator@D@1@@Z ENDP ; std::_String_val<char,std::allocator<char> >::_String_val<char,std::allocator<char> >
_TEXT	ENDS
PUBLIC	??0?$_String_val@DV?$allocator@D@std@@@std@@QAE@ABV01@@Z ; std::_String_val<char,std::allocator<char> >::_String_val<char,std::allocator<char> >
; Function compile flags: /Ogtpy
;	COMDAT ??0?$_String_val@DV?$allocator@D@std@@@std@@QAE@ABV01@@Z
_TEXT	SEGMENT
__Right$ = 8						; size = 4
??0?$_String_val@DV?$allocator@D@std@@@std@@QAE@ABV01@@Z PROC ; std::_String_val<char,std::allocator<char> >::_String_val<char,std::allocator<char> >, COMDAT
; _this$ = ecx

; 478  : 		{	// copy constructor

  00000	8b c1		 mov	 eax, ecx

; 479  : #if defined(_DEBUG)
; 480  : 		if (_Right._Myfirstiter == _IGNORE_MYITERLIST)
; 481  : 			{
; 482  : 			this->_Myfirstiter = _IGNORE_MYITERLIST;
; 483  : 			}
; 484  : #endif
; 485  : 		}

  00002	c2 04 00	 ret	 4
??0?$_String_val@DV?$allocator@D@std@@@std@@QAE@ABV01@@Z ENDP ; std::_String_val<char,std::allocator<char> >::_String_val<char,std::allocator<char> >
_TEXT	ENDS
PUBLIC	?get_allocator@?$basic_string@_WU?$char_traits@_W@std@@V?$allocator@_W@2@@std@@QBE?AV?$allocator@_W@2@XZ ; std::basic_string<wchar_t,std::char_traits<wchar_t>,std::allocator<wchar_t> >::get_allocator
; Function compile flags: /Ogtpy
;	COMDAT ?get_allocator@?$basic_string@_WU?$char_traits@_W@std@@V?$allocator@_W@2@@std@@QBE?AV?$allocator@_W@2@XZ
_TEXT	SEGMENT
___$ReturnUdt$ = 8					; size = 4
?get_allocator@?$basic_string@_WU?$char_traits@_W@std@@V?$allocator@_W@2@@std@@QBE?AV?$allocator@_W@2@XZ PROC ; std::basic_string<wchar_t,std::char_traits<wchar_t>,std::allocator<wchar_t> >::get_allocator, COMDAT
; _this$ = ecx

; 2058 : 		return (_Mybase::_Alval);

  00000	8b 44 24 04	 mov	 eax, DWORD PTR ___$ReturnUdt$[esp-4]

; 2059 : 		}

  00004	c2 04 00	 ret	 4
?get_allocator@?$basic_string@_WU?$char_traits@_W@std@@V?$allocator@_W@2@@std@@QBE?AV?$allocator@_W@2@XZ ENDP ; std::basic_string<wchar_t,std::char_traits<wchar_t>,std::allocator<wchar_t> >::get_allocator
_TEXT	ENDS
PUBLIC	??0?$_String_val@_WV?$allocator@_W@std@@@std@@IAE@V?$allocator@_W@1@@Z ; std::_String_val<wchar_t,std::allocator<wchar_t> >::_String_val<wchar_t,std::allocator<wchar_t> >
; Function compile flags: /Ogtpy
;	COMDAT ??0?$_String_val@_WV?$allocator@_W@std@@@std@@IAE@V?$allocator@_W@1@@Z
_TEXT	SEGMENT
__Al$ = 8						; size = 1
??0?$_String_val@_WV?$allocator@_W@std@@@std@@IAE@V?$allocator@_W@1@@Z PROC ; std::_String_val<wchar_t,std::allocator<wchar_t> >::_String_val<wchar_t,std::allocator<wchar_t> >, COMDAT
; _this$ = ecx

; 472  : 		{	// construct allocator from _Al

  00000	8b c1		 mov	 eax, ecx

; 473  : 		}

  00002	c2 04 00	 ret	 4
??0?$_String_val@_WV?$allocator@_W@std@@@std@@IAE@V?$allocator@_W@1@@Z ENDP ; std::_String_val<wchar_t,std::allocator<wchar_t> >::_String_val<wchar_t,std::allocator<wchar_t> >
_TEXT	ENDS
PUBLIC	??0?$_String_val@_WV?$allocator@_W@std@@@std@@QAE@ABV01@@Z ; std::_String_val<wchar_t,std::allocator<wchar_t> >::_String_val<wchar_t,std::allocator<wchar_t> >
; Function compile flags: /Ogtpy
;	COMDAT ??0?$_String_val@_WV?$allocator@_W@std@@@std@@QAE@ABV01@@Z
_TEXT	SEGMENT
__Right$ = 8						; size = 4
??0?$_String_val@_WV?$allocator@_W@std@@@std@@QAE@ABV01@@Z PROC ; std::_String_val<wchar_t,std::allocator<wchar_t> >::_String_val<wchar_t,std::allocator<wchar_t> >, COMDAT
; _this$ = ecx

; 478  : 		{	// copy constructor

  00000	8b c1		 mov	 eax, ecx

; 479  : #if defined(_DEBUG)
; 480  : 		if (_Right._Myfirstiter == _IGNORE_MYITERLIST)
; 481  : 			{
; 482  : 			this->_Myfirstiter = _IGNORE_MYITERLIST;
; 483  : 			}
; 484  : #endif
; 485  : 		}

  00002	c2 04 00	 ret	 4
??0?$_String_val@_WV?$allocator@_W@std@@@std@@QAE@ABV01@@Z ENDP ; std::_String_val<wchar_t,std::allocator<wchar_t> >::_String_val<wchar_t,std::allocator<wchar_t> >
_TEXT	ENDS
PUBLIC	??1?$_Container_base_aux_alloc_real@V?$allocator@UFavoriteVolume@CipherShed@@@std@@@std@@IAE@XZ ; std::_Container_base_aux_alloc_real<std::allocator<CipherShed::FavoriteVolume> >::~_Container_base_aux_alloc_real<std::allocator<CipherShed::FavoriteVolume> >
; Function compile flags: /Ogtpy
; File c:\program files (x86)\microsoft visual studio 9.0\vc\include\xutility
;	COMDAT ??1?$_Container_base_aux_alloc_real@V?$allocator@UFavoriteVolume@CipherShed@@@std@@@std@@IAE@XZ
_TEXT	SEGMENT
??1?$_Container_base_aux_alloc_real@V?$allocator@UFavoriteVolume@CipherShed@@@std@@@std@@IAE@XZ PROC ; std::_Container_base_aux_alloc_real<std::allocator<CipherShed::FavoriteVolume> >::~_Container_base_aux_alloc_real<std::allocator<CipherShed::FavoriteVolume> >, COMDAT
; _this$ = ecx

; 437  : 		_Myownedaux->~_Aux_cont();
; 438  : 
; 439  : 		_Alaux.deallocate(_Myownedaux, 1);

  00000	8b 01		 mov	 eax, DWORD PTR [ecx]
  00002	50		 push	 eax
  00003	e8 00 00 00 00	 call	 ??3@YAXPAX@Z		; operator delete
  00008	59		 pop	 ecx

; 440  : 		}

  00009	c3		 ret	 0
??1?$_Container_base_aux_alloc_real@V?$allocator@UFavoriteVolume@CipherShed@@@std@@@std@@IAE@XZ ENDP ; std::_Container_base_aux_alloc_real<std::allocator<CipherShed::FavoriteVolume> >::~_Container_base_aux_alloc_real<std::allocator<CipherShed::FavoriteVolume> >
_TEXT	ENDS
PUBLIC	??9?$_Vector_const_iterator@UFavoriteVolume@CipherShed@@V?$allocator@UFavoriteVolume@CipherShed@@@std@@@std@@QBE_NABV01@@Z ; std::_Vector_const_iterator<CipherShed::FavoriteVolume,std::allocator<CipherShed::FavoriteVolume> >::operator!=
; Function compile flags: /Ogtpy
; File c:\program files (x86)\microsoft visual studio 9.0\vc\include\vector
;	COMDAT ??9?$_Vector_const_iterator@UFavoriteVolume@CipherShed@@V?$allocator@UFavoriteVolume@CipherShed@@@std@@@std@@QBE_NABV01@@Z
_TEXT	SEGMENT
__Right$ = 8						; size = 4
??9?$_Vector_const_iterator@UFavoriteVolume@CipherShed@@V?$allocator@UFavoriteVolume@CipherShed@@@std@@@std@@QBE_NABV01@@Z PROC ; std::_Vector_const_iterator<CipherShed::FavoriteVolume,std::allocator<CipherShed::FavoriteVolume> >::operator!=, COMDAT
; _this$ = ecx

; 215  : 		{	// test for iterator inequality

  00000	56		 push	 esi
  00001	8b f1		 mov	 esi, ecx

; 216  : 		return (!(*this == _Right));

  00003	8b 06		 mov	 eax, DWORD PTR [esi]
  00005	57		 push	 edi
  00006	8b 7c 24 0c	 mov	 edi, DWORD PTR __Right$[esp+4]
  0000a	85 c0		 test	 eax, eax
  0000c	74 04		 je	 SHORT $LN6@operator@14
  0000e	3b 07		 cmp	 eax, DWORD PTR [edi]
  00010	74 05		 je	 SHORT $LN5@operator@14
$LN6@operator@14:
  00012	e8 00 00 00 00	 call	 __invalid_parameter_noinfo
$LN5@operator@14:
  00017	8b 46 04	 mov	 eax, DWORD PTR [esi+4]
  0001a	33 c9		 xor	 ecx, ecx
  0001c	3b 47 04	 cmp	 eax, DWORD PTR [edi+4]
  0001f	5f		 pop	 edi
  00020	0f 95 c1	 setne	 cl
  00023	8a c1		 mov	 al, cl
  00025	5e		 pop	 esi

; 217  : 		}

  00026	c2 04 00	 ret	 4
??9?$_Vector_const_iterator@UFavoriteVolume@CipherShed@@V?$allocator@UFavoriteVolume@CipherShed@@@std@@@std@@QBE_NABV01@@Z ENDP ; std::_Vector_const_iterator<CipherShed::FavoriteVolume,std::allocator<CipherShed::FavoriteVolume> >::operator!=
_TEXT	ENDS
PUBLIC	??Y?$_Vector_iterator@UFavoriteVolume@CipherShed@@V?$allocator@UFavoriteVolume@CipherShed@@@std@@@std@@QAEAAV01@H@Z ; std::_Vector_iterator<CipherShed::FavoriteVolume,std::allocator<CipherShed::FavoriteVolume> >::operator+=
; Function compile flags: /Ogtpy
;	COMDAT ??Y?$_Vector_iterator@UFavoriteVolume@CipherShed@@V?$allocator@UFavoriteVolume@CipherShed@@@std@@@std@@QAEAAV01@H@Z
_TEXT	SEGMENT
__Off$ = 8						; size = 4
??Y?$_Vector_iterator@UFavoriteVolume@CipherShed@@V?$allocator@UFavoriteVolume@CipherShed@@@std@@@std@@QAEAAV01@H@Z PROC ; std::_Vector_iterator<CipherShed::FavoriteVolume,std::allocator<CipherShed::FavoriteVolume> >::operator+=, COMDAT
; _this$ = ecx

; 375  : 		(*(_Mybase *)this) += _Off;

  00000	8b 44 24 04	 mov	 eax, DWORD PTR __Off$[esp-4]
  00004	56		 push	 esi
  00005	50		 push	 eax
  00006	8b f1		 mov	 esi, ecx
  00008	e8 00 00 00 00	 call	 ??Y?$_Vector_const_iterator@UFavoriteVolume@CipherShed@@V?$allocator@UFavoriteVolume@CipherShed@@@std@@@std@@QAEAAV01@H@Z ; std::_Vector_const_iterator<CipherShed::FavoriteVolume,std::allocator<CipherShed::FavoriteVolume> >::operator+=

; 376  : 		return (*this);

  0000d	8b c6		 mov	 eax, esi
  0000f	5e		 pop	 esi

; 377  : 		}

  00010	c2 04 00	 ret	 4
??Y?$_Vector_iterator@UFavoriteVolume@CipherShed@@V?$allocator@UFavoriteVolume@CipherShed@@@std@@@std@@QAEAAV01@H@Z ENDP ; std::_Vector_iterator<CipherShed::FavoriteVolume,std::allocator<CipherShed::FavoriteVolume> >::operator+=
_TEXT	ENDS
PUBLIC	??9?$_Const_iterator@$00@?$list@UFavoriteVolume@CipherShed@@V?$allocator@UFavoriteVolume@CipherShed@@@std@@@std@@QBE_NABV012@@Z ; std::list<CipherShed::FavoriteVolume,std::allocator<CipherShed::FavoriteVolume> >::_Const_iterator<1>::operator!=
; Function compile flags: /Ogtpy
; File c:\program files (x86)\microsoft visual studio 9.0\vc\include\list
;	COMDAT ??9?$_Const_iterator@$00@?$list@UFavoriteVolume@CipherShed@@V?$allocator@UFavoriteVolume@CipherShed@@@std@@@std@@QBE_NABV012@@Z
_TEXT	SEGMENT
__Right$ = 8						; size = 4
??9?$_Const_iterator@$00@?$list@UFavoriteVolume@CipherShed@@V?$allocator@UFavoriteVolume@CipherShed@@@std@@@std@@QBE_NABV012@@Z PROC ; std::list<CipherShed::FavoriteVolume,std::allocator<CipherShed::FavoriteVolume> >::_Const_iterator<1>::operator!=, COMDAT
; _this$ = ecx

; 302  : 			{	// test for iterator inequality

  00000	56		 push	 esi
  00001	8b f1		 mov	 esi, ecx

; 303  : 			return (!(*this == _Right));

  00003	8b 06		 mov	 eax, DWORD PTR [esi]
  00005	57		 push	 edi
  00006	8b 7c 24 0c	 mov	 edi, DWORD PTR __Right$[esp+4]
  0000a	85 c0		 test	 eax, eax
  0000c	74 04		 je	 SHORT $LN6@operator@15
  0000e	3b 07		 cmp	 eax, DWORD PTR [edi]
  00010	74 05		 je	 SHORT $LN5@operator@15
$LN6@operator@15:
  00012	e8 00 00 00 00	 call	 __invalid_parameter_noinfo
$LN5@operator@15:
  00017	8b 46 04	 mov	 eax, DWORD PTR [esi+4]
  0001a	33 c9		 xor	 ecx, ecx
  0001c	3b 47 04	 cmp	 eax, DWORD PTR [edi+4]
  0001f	5f		 pop	 edi
  00020	0f 95 c1	 setne	 cl
  00023	8a c1		 mov	 al, cl
  00025	5e		 pop	 esi

; 304  : 			}

  00026	c2 04 00	 ret	 4
??9?$_Const_iterator@$00@?$list@UFavoriteVolume@CipherShed@@V?$allocator@UFavoriteVolume@CipherShed@@@std@@@std@@QBE_NABV012@@Z ENDP ; std::list<CipherShed::FavoriteVolume,std::allocator<CipherShed::FavoriteVolume> >::_Const_iterator<1>::operator!=
_TEXT	ENDS
PUBLIC	?_Pdif@?$basic_string@_WU?$char_traits@_W@std@@V?$allocator@_W@2@@std@@KAIV?$_String_const_iterator@_WU?$char_traits@_W@std@@V?$allocator@_W@2@@2@0@Z ; std::basic_string<wchar_t,std::char_traits<wchar_t>,std::allocator<wchar_t> >::_Pdif
; Function compile flags: /Ogtpy
; File c:\program files (x86)\microsoft visual studio 9.0\vc\include\xstring
;	COMDAT ?_Pdif@?$basic_string@_WU?$char_traits@_W@std@@V?$allocator@_W@2@@std@@KAIV?$_String_const_iterator@_WU?$char_traits@_W@std@@V?$allocator@_W@2@@2@0@Z
_TEXT	SEGMENT
__P2$ = 8						; size = 8
__P1$ = 16						; size = 8
?_Pdif@?$basic_string@_WU?$char_traits@_W@std@@V?$allocator@_W@2@@std@@KAIV?$_String_const_iterator@_WU?$char_traits@_W@std@@V?$allocator@_W@2@@2@0@Z PROC ; std::basic_string<wchar_t,std::char_traits<wchar_t>,std::allocator<wchar_t> >::_Pdif, COMDAT

; 2143 : 		return (_STR_ITER_BASE(_P2) == 0 ? 0 : _P2 - _P1);

  00000	8b 44 24 08	 mov	 eax, DWORD PTR __P2$[esp]
  00004	85 c0		 test	 eax, eax
  00006	75 01		 jne	 SHORT $LN3@Pdif

; 2144 : 		}

  00008	c3		 ret	 0
$LN3@Pdif:

; 2143 : 		return (_STR_ITER_BASE(_P2) == 0 ? 0 : _P2 - _P1);

  00009	8b 4c 24 04	 mov	 ecx, DWORD PTR __P2$[esp-4]
  0000d	83 f9 fc	 cmp	 ecx, -4			; fffffffcH
  00010	74 13		 je	 SHORT $LN5@Pdif
  00012	85 c9		 test	 ecx, ecx
  00014	74 06		 je	 SHORT $LN8@Pdif
  00016	3b 4c 24 0c	 cmp	 ecx, DWORD PTR __P1$[esp-4]
  0001a	74 09		 je	 SHORT $LN5@Pdif
$LN8@Pdif:
  0001c	e8 00 00 00 00	 call	 __invalid_parameter_noinfo
  00021	8b 44 24 08	 mov	 eax, DWORD PTR __P2$[esp]
$LN5@Pdif:
  00025	2b 44 24 10	 sub	 eax, DWORD PTR __P1$[esp]
  00029	d1 f8		 sar	 eax, 1

; 2144 : 		}

  0002b	c3		 ret	 0
?_Pdif@?$basic_string@_WU?$char_traits@_W@std@@V?$allocator@_W@2@@std@@KAIV?$_String_const_iterator@_WU?$char_traits@_W@std@@V?$allocator@_W@2@@2@0@Z ENDP ; std::basic_string<wchar_t,std::char_traits<wchar_t>,std::allocator<wchar_t> >::_Pdif
_TEXT	ENDS
PUBLIC	?max_size@?$vector@UFavoriteVolume@CipherShed@@V?$allocator@UFavoriteVolume@CipherShed@@@std@@@std@@QBEIXZ ; std::vector<CipherShed::FavoriteVolume,std::allocator<CipherShed::FavoriteVolume> >::max_size
; Function compile flags: /Ogtpy
; File c:\program files (x86)\microsoft visual studio 9.0\vc\include\vector
;	COMDAT ?max_size@?$vector@UFavoriteVolume@CipherShed@@V?$allocator@UFavoriteVolume@CipherShed@@@std@@@std@@QBEIXZ
_TEXT	SEGMENT
?max_size@?$vector@UFavoriteVolume@CipherShed@@V?$allocator@UFavoriteVolume@CipherShed@@@std@@@std@@QBEIXZ PROC ; std::vector<CipherShed::FavoriteVolume,std::allocator<CipherShed::FavoriteVolume> >::max_size, COMDAT
; _this$ = ecx

; 731  : 		return (this->_Alval.max_size());

  00000	b8 22 22 22 02	 mov	 eax, 35791394		; 02222222H

; 732  : 		}

  00005	c3		 ret	 0
?max_size@?$vector@UFavoriteVolume@CipherShed@@V?$allocator@UFavoriteVolume@CipherShed@@@std@@@std@@QBEIXZ ENDP ; std::vector<CipherShed::FavoriteVolume,std::allocator<CipherShed::FavoriteVolume> >::max_size
_TEXT	ENDS
PUBLIC	?allocate@?$allocator@UFavoriteVolume@CipherShed@@@std@@QAEPAUFavoriteVolume@CipherShed@@I@Z ; std::allocator<CipherShed::FavoriteVolume>::allocate
; Function compile flags: /Ogtpy
; File c:\program files (x86)\microsoft visual studio 9.0\vc\include\xmemory
;	COMDAT ?allocate@?$allocator@UFavoriteVolume@CipherShed@@@std@@QAEPAUFavoriteVolume@CipherShed@@I@Z
_TEXT	SEGMENT
__Count$ = 8						; size = 4
?allocate@?$allocator@UFavoriteVolume@CipherShed@@@std@@QAEPAUFavoriteVolume@CipherShed@@I@Z PROC ; std::allocator<CipherShed::FavoriteVolume>::allocate, COMDAT
; _this$ = ecx

; 145  : 		return (_Allocate(_Count, (pointer)0));

  00000	8b 44 24 04	 mov	 eax, DWORD PTR __Count$[esp-4]
  00004	6a 00		 push	 0
  00006	50		 push	 eax
  00007	e8 00 00 00 00	 call	 ??$_Allocate@UFavoriteVolume@CipherShed@@@std@@YAPAUFavoriteVolume@CipherShed@@IPAU12@@Z ; std::_Allocate<CipherShed::FavoriteVolume>
  0000c	83 c4 08	 add	 esp, 8

; 146  : 		}

  0000f	c2 04 00	 ret	 4
?allocate@?$allocator@UFavoriteVolume@CipherShed@@@std@@QAEPAUFavoriteVolume@CipherShed@@I@Z ENDP ; std::allocator<CipherShed::FavoriteVolume>::allocate
_TEXT	ENDS
PUBLIC	?allocate@?$allocator@U_Node@?$_List_nod@UFavoriteVolume@CipherShed@@V?$allocator@UFavoriteVolume@CipherShed@@@std@@@std@@@std@@QAEPAU_Node@?$_List_nod@UFavoriteVolume@CipherShed@@V?$allocator@UFavoriteVolume@CipherShed@@@std@@@2@I@Z ; std::allocator<std::_List_nod<CipherShed::FavoriteVolume,std::allocator<CipherShed::FavoriteVolume> >::_Node>::allocate
; Function compile flags: /Ogtpy
;	COMDAT ?allocate@?$allocator@U_Node@?$_List_nod@UFavoriteVolume@CipherShed@@V?$allocator@UFavoriteVolume@CipherShed@@@std@@@std@@@std@@QAEPAU_Node@?$_List_nod@UFavoriteVolume@CipherShed@@V?$allocator@UFavoriteVolume@CipherShed@@@std@@@2@I@Z
_TEXT	SEGMENT
__Count$ = 8						; size = 4
?allocate@?$allocator@U_Node@?$_List_nod@UFavoriteVolume@CipherShed@@V?$allocator@UFavoriteVolume@CipherShed@@@std@@@std@@@std@@QAEPAU_Node@?$_List_nod@UFavoriteVolume@CipherShed@@V?$allocator@UFavoriteVolume@CipherShed@@@std@@@2@I@Z PROC ; std::allocator<std::_List_nod<CipherShed::FavoriteVolume,std::allocator<CipherShed::FavoriteVolume> >::_Node>::allocate, COMDAT
; _this$ = ecx

; 145  : 		return (_Allocate(_Count, (pointer)0));

  00000	8b 44 24 04	 mov	 eax, DWORD PTR __Count$[esp-4]
  00004	6a 00		 push	 0
  00006	50		 push	 eax
  00007	e8 00 00 00 00	 call	 ??$_Allocate@U_Node@?$_List_nod@UFavoriteVolume@CipherShed@@V?$allocator@UFavoriteVolume@CipherShed@@@std@@@std@@@std@@YAPAU_Node@?$_List_nod@UFavoriteVolume@CipherShed@@V?$allocator@UFavoriteVolume@CipherShed@@@std@@@0@IPAU120@@Z ; std::_Allocate<std::_List_nod<CipherShed::FavoriteVolume,std::allocator<CipherShed::FavoriteVolume> >::_Node>
  0000c	83 c4 08	 add	 esp, 8

; 146  : 		}

  0000f	c2 04 00	 ret	 4
?allocate@?$allocator@U_Node@?$_List_nod@UFavoriteVolume@CipherShed@@V?$allocator@UFavoriteVolume@CipherShed@@@std@@@std@@@std@@QAEPAU_Node@?$_List_nod@UFavoriteVolume@CipherShed@@V?$allocator@UFavoriteVolume@CipherShed@@@std@@@2@I@Z ENDP ; std::allocator<std::_List_nod<CipherShed::FavoriteVolume,std::allocator<CipherShed::FavoriteVolume> >::_Node>::allocate
_TEXT	ENDS
PUBLIC	?construct@?$allocator@PAU_Node@?$_List_nod@UFavoriteVolume@CipherShed@@V?$allocator@UFavoriteVolume@CipherShed@@@std@@@std@@@std@@QAEXPAPAU_Node@?$_List_nod@UFavoriteVolume@CipherShed@@V?$allocator@UFavoriteVolume@CipherShed@@@std@@@2@ABQAU342@@Z ; std::allocator<std::_List_nod<CipherShed::FavoriteVolume,std::allocator<CipherShed::FavoriteVolume> >::_Node *>::construct
; Function compile flags: /Ogtpy
;	COMDAT ?construct@?$allocator@PAU_Node@?$_List_nod@UFavoriteVolume@CipherShed@@V?$allocator@UFavoriteVolume@CipherShed@@@std@@@std@@@std@@QAEXPAPAU_Node@?$_List_nod@UFavoriteVolume@CipherShed@@V?$allocator@UFavoriteVolume@CipherShed@@@std@@@2@ABQAU342@@Z
_TEXT	SEGMENT
__Ptr$ = 8						; size = 4
__Val$ = 12						; size = 4
?construct@?$allocator@PAU_Node@?$_List_nod@UFavoriteVolume@CipherShed@@V?$allocator@UFavoriteVolume@CipherShed@@@std@@@std@@@std@@QAEXPAPAU_Node@?$_List_nod@UFavoriteVolume@CipherShed@@V?$allocator@UFavoriteVolume@CipherShed@@@std@@@2@ABQAU342@@Z PROC ; std::allocator<std::_List_nod<CipherShed::FavoriteVolume,std::allocator<CipherShed::FavoriteVolume> >::_Node *>::construct, COMDAT
; _this$ = ecx

; 155  : 		_Construct(_Ptr, _Val);

  00000	8b 44 24 04	 mov	 eax, DWORD PTR __Ptr$[esp-4]
  00004	85 c0		 test	 eax, eax
  00006	74 08		 je	 SHORT $LN5@construct
  00008	8b 4c 24 08	 mov	 ecx, DWORD PTR __Val$[esp-4]
  0000c	8b 11		 mov	 edx, DWORD PTR [ecx]
  0000e	89 10		 mov	 DWORD PTR [eax], edx
$LN5@construct:

; 156  : 		}

  00010	c2 08 00	 ret	 8
?construct@?$allocator@PAU_Node@?$_List_nod@UFavoriteVolume@CipherShed@@V?$allocator@UFavoriteVolume@CipherShed@@@std@@@std@@@std@@QAEXPAPAU_Node@?$_List_nod@UFavoriteVolume@CipherShed@@V?$allocator@UFavoriteVolume@CipherShed@@@std@@@2@ABQAU342@@Z ENDP ; std::allocator<std::_List_nod<CipherShed::FavoriteVolume,std::allocator<CipherShed::FavoriteVolume> >::_Node *>::construct
_TEXT	ENDS
PUBLIC	?destroy@?$allocator@PAU_Node@?$_List_nod@UFavoriteVolume@CipherShed@@V?$allocator@UFavoriteVolume@CipherShed@@@std@@@std@@@std@@QAEXPAPAU_Node@?$_List_nod@UFavoriteVolume@CipherShed@@V?$allocator@UFavoriteVolume@CipherShed@@@std@@@2@@Z ; std::allocator<std::_List_nod<CipherShed::FavoriteVolume,std::allocator<CipherShed::FavoriteVolume> >::_Node *>::destroy
; Function compile flags: /Ogtpy
;	COMDAT ?destroy@?$allocator@PAU_Node@?$_List_nod@UFavoriteVolume@CipherShed@@V?$allocator@UFavoriteVolume@CipherShed@@@std@@@std@@@std@@QAEXPAPAU_Node@?$_List_nod@UFavoriteVolume@CipherShed@@V?$allocator@UFavoriteVolume@CipherShed@@@std@@@2@@Z
_TEXT	SEGMENT
__Ptr$ = 8						; size = 4
?destroy@?$allocator@PAU_Node@?$_List_nod@UFavoriteVolume@CipherShed@@V?$allocator@UFavoriteVolume@CipherShed@@@std@@@std@@@std@@QAEXPAPAU_Node@?$_List_nod@UFavoriteVolume@CipherShed@@V?$allocator@UFavoriteVolume@CipherShed@@@std@@@2@@Z PROC ; std::allocator<std::_List_nod<CipherShed::FavoriteVolume,std::allocator<CipherShed::FavoriteVolume> >::_Node *>::destroy, COMDAT
; _this$ = ecx

; 160  : 		_Destroy(_Ptr);
; 161  : 		}

  00000	c2 04 00	 ret	 4
?destroy@?$allocator@PAU_Node@?$_List_nod@UFavoriteVolume@CipherShed@@V?$allocator@UFavoriteVolume@CipherShed@@@std@@@std@@@std@@QAEXPAPAU_Node@?$_List_nod@UFavoriteVolume@CipherShed@@V?$allocator@UFavoriteVolume@CipherShed@@@std@@@2@@Z ENDP ; std::allocator<std::_List_nod<CipherShed::FavoriteVolume,std::allocator<CipherShed::FavoriteVolume> >::_Node *>::destroy
_TEXT	ENDS
PUBLIC	??0?$_Ranit@UFavoriteVolume@CipherShed@@HPBU12@ABU12@@std@@QAE@XZ ; std::_Ranit<CipherShed::FavoriteVolume,int,CipherShed::FavoriteVolume const *,CipherShed::FavoriteVolume const &>::_Ranit<CipherShed::FavoriteVolume,int,CipherShed::FavoriteVolume const *,CipherShed::FavoriteVolume const &>
; Function compile flags: /Ogtpy
;	COMDAT ??0?$_Ranit@UFavoriteVolume@CipherShed@@HPBU12@ABU12@@std@@QAE@XZ
_TEXT	SEGMENT
??0?$_Ranit@UFavoriteVolume@CipherShed@@HPBU12@ABU12@@std@@QAE@XZ PROC ; std::_Ranit<CipherShed::FavoriteVolume,int,CipherShed::FavoriteVolume const *,CipherShed::FavoriteVolume const &>::_Ranit<CipherShed::FavoriteVolume,int,CipherShed::FavoriteVolume const *,CipherShed::FavoriteVolume const &>, COMDAT
; _this$ = ecx
  00000	8b c1		 mov	 eax, ecx
  00002	c7 00 00 00 00
	00		 mov	 DWORD PTR [eax], 0
  00008	c3		 ret	 0
??0?$_Ranit@UFavoriteVolume@CipherShed@@HPBU12@ABU12@@std@@QAE@XZ ENDP ; std::_Ranit<CipherShed::FavoriteVolume,int,CipherShed::FavoriteVolume const *,CipherShed::FavoriteVolume const &>::_Ranit<CipherShed::FavoriteVolume,int,CipherShed::FavoriteVolume const *,CipherShed::FavoriteVolume const &>
_TEXT	ENDS
PUBLIC	?max_size@?$basic_string@DU?$char_traits@D@std@@V?$allocator@D@2@@std@@QBEIXZ ; std::basic_string<char,std::char_traits<char>,std::allocator<char> >::max_size
; Function compile flags: /Ogtpy
; File c:\program files (x86)\microsoft visual studio 9.0\vc\include\xstring
;	COMDAT ?max_size@?$basic_string@DU?$char_traits@D@std@@V?$allocator@D@2@@std@@QBEIXZ
_TEXT	SEGMENT
?max_size@?$basic_string@DU?$char_traits@D@std@@V?$allocator@D@2@@std@@QBEIXZ PROC ; std::basic_string<char,std::char_traits<char>,std::allocator<char> >::max_size, COMDAT
; _this$ = ecx

; 1671 : 		size_type _Num = _Mybase::_Alval.max_size();
; 1672 : 		return (_Num <= 1 ? 1 : _Num - 1);

  00000	b8 fe ff ff ff	 mov	 eax, -2			; fffffffeH

; 1673 : 		}

  00005	c3		 ret	 0
?max_size@?$basic_string@DU?$char_traits@D@std@@V?$allocator@D@2@@std@@QBEIXZ ENDP ; std::basic_string<char,std::char_traits<char>,std::allocator<char> >::max_size
_TEXT	ENDS
PUBLIC	?max_size@?$basic_string@_WU?$char_traits@_W@std@@V?$allocator@_W@2@@std@@QBEIXZ ; std::basic_string<wchar_t,std::char_traits<wchar_t>,std::allocator<wchar_t> >::max_size
; Function compile flags: /Ogtpy
;	COMDAT ?max_size@?$basic_string@_WU?$char_traits@_W@std@@V?$allocator@_W@2@@std@@QBEIXZ
_TEXT	SEGMENT
?max_size@?$basic_string@_WU?$char_traits@_W@std@@V?$allocator@_W@2@@std@@QBEIXZ PROC ; std::basic_string<wchar_t,std::char_traits<wchar_t>,std::allocator<wchar_t> >::max_size, COMDAT
; _this$ = ecx

; 1671 : 		size_type _Num = _Mybase::_Alval.max_size();
; 1672 : 		return (_Num <= 1 ? 1 : _Num - 1);

  00000	b8 fe ff ff 7f	 mov	 eax, 2147483646		; 7ffffffeH

; 1673 : 		}

  00005	c3		 ret	 0
?max_size@?$basic_string@_WU?$char_traits@_W@std@@V?$allocator@_W@2@@std@@QBEIXZ ENDP ; std::basic_string<wchar_t,std::char_traits<wchar_t>,std::allocator<wchar_t> >::max_size
_TEXT	ENDS
PUBLIC	?allocate@?$allocator@V_Aux_cont@std@@@std@@QAEPAV_Aux_cont@2@I@Z ; std::allocator<std::_Aux_cont>::allocate
; Function compile flags: /Ogtpy
; File c:\program files (x86)\microsoft visual studio 9.0\vc\include\xmemory
;	COMDAT ?allocate@?$allocator@V_Aux_cont@std@@@std@@QAEPAV_Aux_cont@2@I@Z
_TEXT	SEGMENT
__Count$ = 8						; size = 4
?allocate@?$allocator@V_Aux_cont@std@@@std@@QAEPAV_Aux_cont@2@I@Z PROC ; std::allocator<std::_Aux_cont>::allocate, COMDAT
; _this$ = ecx

; 145  : 		return (_Allocate(_Count, (pointer)0));

  00000	8b 44 24 04	 mov	 eax, DWORD PTR __Count$[esp-4]
  00004	6a 00		 push	 0
  00006	50		 push	 eax
  00007	e8 00 00 00 00	 call	 ??$_Allocate@V_Aux_cont@std@@@std@@YAPAV_Aux_cont@0@IPAV10@@Z ; std::_Allocate<std::_Aux_cont>
  0000c	83 c4 08	 add	 esp, 8

; 146  : 		}

  0000f	c2 04 00	 ret	 4
?allocate@?$allocator@V_Aux_cont@std@@@std@@QAEPAV_Aux_cont@2@I@Z ENDP ; std::allocator<std::_Aux_cont>::allocate
_TEXT	ENDS
PUBLIC	??0?$_String_const_iterator@_WU?$char_traits@_W@std@@V?$allocator@_W@2@@std@@QAE@PB_WPBV_Container_base_secure@1@@Z ; std::_String_const_iterator<wchar_t,std::char_traits<wchar_t>,std::allocator<wchar_t> >::_String_const_iterator<wchar_t,std::char_traits<wchar_t>,std::allocator<wchar_t> >
; Function compile flags: /Ogtpy
; File c:\program files (x86)\microsoft visual studio 9.0\vc\include\xstring
;	COMDAT ??0?$_String_const_iterator@_WU?$char_traits@_W@std@@V?$allocator@_W@2@@std@@QAE@PB_WPBV_Container_base_secure@1@@Z
_TEXT	SEGMENT
__Ptr$ = 8						; size = 4
__Pstring$ = 12						; size = 4
??0?$_String_const_iterator@_WU?$char_traits@_W@std@@V?$allocator@_W@2@@std@@QAE@PB_WPBV_Container_base_secure@1@@Z PROC ; std::_String_const_iterator<wchar_t,std::char_traits<wchar_t>,std::allocator<wchar_t> >::_String_const_iterator<wchar_t,std::char_traits<wchar_t>,std::allocator<wchar_t> >, COMDAT
; _this$ = ecx

; 83   : 		__CLR_OR_THIS_CALL _String_const_iterator(pointer _Ptr, const _Container_base_secure *_Pstring)

  00000	53		 push	 ebx

; 84   : 			{	// construct with pointer _Ptr
; 85   : 			_SCL_SECURE_VALIDATE(

  00001	8b 5c 24 08	 mov	 ebx, DWORD PTR __Ptr$[esp]
  00005	56		 push	 esi
  00006	8b 74 24 10	 mov	 esi, DWORD PTR __Pstring$[esp+4]
  0000a	57		 push	 edi
  0000b	8b f9		 mov	 edi, ecx
  0000d	c7 07 00 00 00
	00		 mov	 DWORD PTR [edi], 0
  00013	85 f6		 test	 esi, esi
  00015	74 2a		 je	 SHORT $LN4@String_con
  00017	85 db		 test	 ebx, ebx
  00019	74 26		 je	 SHORT $LN4@String_con
  0001b	8b 56 18	 mov	 edx, DWORD PTR [esi+24]
  0001e	8d 46 04	 lea	 eax, DWORD PTR [esi+4]
  00021	83 fa 08	 cmp	 edx, 8
  00024	72 04		 jb	 SHORT $LN14@String_con
  00026	8b 08		 mov	 ecx, DWORD PTR [eax]
  00028	eb 02		 jmp	 SHORT $LN15@String_con
$LN14@String_con:
  0002a	8b c8		 mov	 ecx, eax
$LN15@String_con:
  0002c	3b cb		 cmp	 ecx, ebx
  0002e	77 11		 ja	 SHORT $LN4@String_con
  00030	83 fa 08	 cmp	 edx, 8
  00033	72 02		 jb	 SHORT $LN18@String_con
  00035	8b 00		 mov	 eax, DWORD PTR [eax]
$LN18@String_con:
  00037	8b 4e 14	 mov	 ecx, DWORD PTR [esi+20]
  0003a	8d 14 48	 lea	 edx, DWORD PTR [eax+ecx*2]
  0003d	3b da		 cmp	 ebx, edx
  0003f	76 05		 jbe	 SHORT $LN3@String_con
$LN4@String_con:

; 86   : 				_Pstring != NULL && 
; 87   : 				_Ptr != NULL && 
; 88   : 				((_Mystring *)_Pstring)->_Myptr() <= _Ptr && _Ptr <= (((_Mystring *)_Pstring)->_Myptr() + ((_Mystring *)_Pstring)->_Mysize));

  00041	e8 00 00 00 00	 call	 __invalid_parameter_noinfo
$LN3@String_con:

; 89   : 			this->_Mycont = _Pstring;

  00046	89 37		 mov	 DWORD PTR [edi], esi

; 90   : 			_Myptr = _Ptr;

  00048	89 5f 04	 mov	 DWORD PTR [edi+4], ebx

; 91   : 			}

  0004b	8b c7		 mov	 eax, edi
  0004d	5f		 pop	 edi
  0004e	5e		 pop	 esi
  0004f	5b		 pop	 ebx
  00050	c2 08 00	 ret	 8
??0?$_String_const_iterator@_WU?$char_traits@_W@std@@V?$allocator@_W@2@@std@@QAE@PB_WPBV_Container_base_secure@1@@Z ENDP ; std::_String_const_iterator<wchar_t,std::char_traits<wchar_t>,std::allocator<wchar_t> >::_String_const_iterator<wchar_t,std::char_traits<wchar_t>,std::allocator<wchar_t> >
_TEXT	ENDS
PUBLIC	??0?$_Bidit@UFavoriteVolume@CipherShed@@HPBU12@ABU12@@std@@QAE@XZ ; std::_Bidit<CipherShed::FavoriteVolume,int,CipherShed::FavoriteVolume const *,CipherShed::FavoriteVolume const &>::_Bidit<CipherShed::FavoriteVolume,int,CipherShed::FavoriteVolume const *,CipherShed::FavoriteVolume const &>
; Function compile flags: /Ogtpy
;	COMDAT ??0?$_Bidit@UFavoriteVolume@CipherShed@@HPBU12@ABU12@@std@@QAE@XZ
_TEXT	SEGMENT
??0?$_Bidit@UFavoriteVolume@CipherShed@@HPBU12@ABU12@@std@@QAE@XZ PROC ; std::_Bidit<CipherShed::FavoriteVolume,int,CipherShed::FavoriteVolume const *,CipherShed::FavoriteVolume const &>::_Bidit<CipherShed::FavoriteVolume,int,CipherShed::FavoriteVolume const *,CipherShed::FavoriteVolume const &>, COMDAT
; _this$ = ecx
  00000	8b c1		 mov	 eax, ecx
  00002	c7 00 00 00 00
	00		 mov	 DWORD PTR [eax], 0
  00008	c3		 ret	 0
??0?$_Bidit@UFavoriteVolume@CipherShed@@HPBU12@ABU12@@std@@QAE@XZ ENDP ; std::_Bidit<CipherShed::FavoriteVolume,int,CipherShed::FavoriteVolume const *,CipherShed::FavoriteVolume const &>::_Bidit<CipherShed::FavoriteVolume,int,CipherShed::FavoriteVolume const *,CipherShed::FavoriteVolume const &>
_TEXT	ENDS
PUBLIC	?allocate@?$allocator@D@std@@QAEPADI@Z		; std::allocator<char>::allocate
; Function compile flags: /Ogtpy
; File c:\program files (x86)\microsoft visual studio 9.0\vc\include\xmemory
;	COMDAT ?allocate@?$allocator@D@std@@QAEPADI@Z
_TEXT	SEGMENT
__Count$ = 8						; size = 4
?allocate@?$allocator@D@std@@QAEPADI@Z PROC		; std::allocator<char>::allocate, COMDAT
; _this$ = ecx

; 145  : 		return (_Allocate(_Count, (pointer)0));

  00000	8b 44 24 04	 mov	 eax, DWORD PTR __Count$[esp-4]
  00004	6a 00		 push	 0
  00006	50		 push	 eax
  00007	e8 00 00 00 00	 call	 ??$_Allocate@D@std@@YAPADIPAD@Z ; std::_Allocate<char>
  0000c	83 c4 08	 add	 esp, 8

; 146  : 		}

  0000f	c2 04 00	 ret	 4
?allocate@?$allocator@D@std@@QAEPADI@Z ENDP		; std::allocator<char>::allocate
_TEXT	ENDS
PUBLIC	?allocate@?$allocator@_W@std@@QAEPA_WI@Z	; std::allocator<wchar_t>::allocate
; Function compile flags: /Ogtpy
;	COMDAT ?allocate@?$allocator@_W@std@@QAEPA_WI@Z
_TEXT	SEGMENT
__Count$ = 8						; size = 4
?allocate@?$allocator@_W@std@@QAEPA_WI@Z PROC		; std::allocator<wchar_t>::allocate, COMDAT
; _this$ = ecx

; 145  : 		return (_Allocate(_Count, (pointer)0));

  00000	8b 44 24 04	 mov	 eax, DWORD PTR __Count$[esp-4]
  00004	6a 00		 push	 0
  00006	50		 push	 eax
  00007	e8 00 00 00 00	 call	 ??$_Allocate@_W@std@@YAPA_WIPA_W@Z ; std::_Allocate<wchar_t>
  0000c	83 c4 08	 add	 esp, 8

; 146  : 		}

  0000f	c2 04 00	 ret	 4
?allocate@?$allocator@_W@std@@QAEPA_WI@Z ENDP		; std::allocator<wchar_t>::allocate
_TEXT	ENDS
PUBLIC	??$copy_s@U?$char_traits@D@std@@@_Traits_helper@std@@YAPADPADIPBDI@Z ; std::_Traits_helper::copy_s<std::char_traits<char> >
; Function compile flags: /Ogtpy
; File c:\program files (x86)\microsoft visual studio 9.0\vc\include\iosfwd
;	COMDAT ??$copy_s@U?$char_traits@D@std@@@_Traits_helper@std@@YAPADPADIPBDI@Z
_TEXT	SEGMENT
__First1$ = 8						; size = 4
__Size$ = 12						; size = 4
__First2$ = 16						; size = 4
__Count$ = 20						; size = 4
??$copy_s@U?$char_traits@D@std@@@_Traits_helper@std@@YAPADPADIPBDI@Z PROC ; std::_Traits_helper::copy_s<std::char_traits<char> >, COMDAT

; 589  : 		return copy_s<_Traits>(_First1, _Size, _First2, _Count, _Char_traits_cat<_Traits>());

  00000	8b 44 24 10	 mov	 eax, DWORD PTR __Count$[esp-4]
  00004	8b 4c 24 0c	 mov	 ecx, DWORD PTR __First2$[esp-4]
  00008	8b 54 24 08	 mov	 edx, DWORD PTR __Size$[esp-4]
  0000c	56		 push	 esi
  0000d	8b 74 24 08	 mov	 esi, DWORD PTR __First1$[esp]
  00011	50		 push	 eax
  00012	51		 push	 ecx
  00013	52		 push	 edx
  00014	56		 push	 esi
  00015	e8 00 00 00 00	 call	 _memcpy_s
  0001a	83 c4 10	 add	 esp, 16			; 00000010H
  0001d	8b c6		 mov	 eax, esi
  0001f	5e		 pop	 esi

; 590  : 	}

  00020	c3		 ret	 0
??$copy_s@U?$char_traits@D@std@@@_Traits_helper@std@@YAPADPADIPBDI@Z ENDP ; std::_Traits_helper::copy_s<std::char_traits<char> >
_TEXT	ENDS
PUBLIC	??$copy_s@U?$char_traits@_W@std@@@_Traits_helper@std@@YAPA_WPA_WIPB_WI@Z ; std::_Traits_helper::copy_s<std::char_traits<wchar_t> >
; Function compile flags: /Ogtpy
;	COMDAT ??$copy_s@U?$char_traits@_W@std@@@_Traits_helper@std@@YAPA_WPA_WIPB_WI@Z
_TEXT	SEGMENT
__First1$ = 8						; size = 4
__Size$ = 12						; size = 4
__First2$ = 16						; size = 4
__Count$ = 20						; size = 4
??$copy_s@U?$char_traits@_W@std@@@_Traits_helper@std@@YAPA_WPA_WIPB_WI@Z PROC ; std::_Traits_helper::copy_s<std::char_traits<wchar_t> >, COMDAT

; 589  : 		return copy_s<_Traits>(_First1, _Size, _First2, _Count, _Char_traits_cat<_Traits>());

  00000	8b 44 24 10	 mov	 eax, DWORD PTR __Count$[esp-4]
  00004	8b 54 24 0c	 mov	 edx, DWORD PTR __First2$[esp-4]
  00008	56		 push	 esi
  00009	8b 74 24 08	 mov	 esi, DWORD PTR __First1$[esp]
  0000d	8d 0c 00	 lea	 ecx, DWORD PTR [eax+eax]
  00010	8b 44 24 0c	 mov	 eax, DWORD PTR __Size$[esp]
  00014	51		 push	 ecx
  00015	52		 push	 edx
  00016	8d 0c 00	 lea	 ecx, DWORD PTR [eax+eax]
  00019	51		 push	 ecx
  0001a	56		 push	 esi
  0001b	e8 00 00 00 00	 call	 _memcpy_s
  00020	83 c4 10	 add	 esp, 16			; 00000010H
  00023	8b c6		 mov	 eax, esi
  00025	5e		 pop	 esi

; 590  : 	}

  00026	c3		 ret	 0
??$copy_s@U?$char_traits@_W@std@@@_Traits_helper@std@@YAPA_WPA_WIPB_WI@Z ENDP ; std::_Traits_helper::copy_s<std::char_traits<wchar_t> >
_TEXT	ENDS
PUBLIC	??$move_s@U?$char_traits@D@std@@@_Traits_helper@std@@YAPADPADIPBDI@Z ; std::_Traits_helper::move_s<std::char_traits<char> >
; Function compile flags: /Ogtpy
;	COMDAT ??$move_s@U?$char_traits@D@std@@@_Traits_helper@std@@YAPADPADIPBDI@Z
_TEXT	SEGMENT
__First1$ = 8						; size = 4
__Size$ = 12						; size = 4
__First2$ = 16						; size = 4
__Count$ = 20						; size = 4
??$move_s@U?$char_traits@D@std@@@_Traits_helper@std@@YAPADPADIPBDI@Z PROC ; std::_Traits_helper::move_s<std::char_traits<char> >, COMDAT

; 616  : 		return move_s<_Traits>(_First1, _Size, _First2, _Count, _Char_traits_cat<_Traits>());

  00000	8b 44 24 10	 mov	 eax, DWORD PTR __Count$[esp-4]
  00004	8b 4c 24 0c	 mov	 ecx, DWORD PTR __First2$[esp-4]
  00008	8b 54 24 08	 mov	 edx, DWORD PTR __Size$[esp-4]
  0000c	56		 push	 esi
  0000d	8b 74 24 08	 mov	 esi, DWORD PTR __First1$[esp]
  00011	50		 push	 eax
  00012	51		 push	 ecx
  00013	52		 push	 edx
  00014	56		 push	 esi
  00015	e8 00 00 00 00	 call	 _memmove_s
  0001a	83 c4 10	 add	 esp, 16			; 00000010H
  0001d	8b c6		 mov	 eax, esi
  0001f	5e		 pop	 esi

; 617  : 	}

  00020	c3		 ret	 0
??$move_s@U?$char_traits@D@std@@@_Traits_helper@std@@YAPADPADIPBDI@Z ENDP ; std::_Traits_helper::move_s<std::char_traits<char> >
_TEXT	ENDS
PUBLIC	??$move_s@U?$char_traits@_W@std@@@_Traits_helper@std@@YAPA_WPA_WIPB_WI@Z ; std::_Traits_helper::move_s<std::char_traits<wchar_t> >
; Function compile flags: /Ogtpy
;	COMDAT ??$move_s@U?$char_traits@_W@std@@@_Traits_helper@std@@YAPA_WPA_WIPB_WI@Z
_TEXT	SEGMENT
__First1$ = 8						; size = 4
__Size$ = 12						; size = 4
__First2$ = 16						; size = 4
__Count$ = 20						; size = 4
??$move_s@U?$char_traits@_W@std@@@_Traits_helper@std@@YAPA_WPA_WIPB_WI@Z PROC ; std::_Traits_helper::move_s<std::char_traits<wchar_t> >, COMDAT

; 616  : 		return move_s<_Traits>(_First1, _Size, _First2, _Count, _Char_traits_cat<_Traits>());

  00000	8b 44 24 10	 mov	 eax, DWORD PTR __Count$[esp-4]
  00004	8b 54 24 0c	 mov	 edx, DWORD PTR __First2$[esp-4]
  00008	56		 push	 esi
  00009	8b 74 24 08	 mov	 esi, DWORD PTR __First1$[esp]
  0000d	8d 0c 00	 lea	 ecx, DWORD PTR [eax+eax]
  00010	8b 44 24 0c	 mov	 eax, DWORD PTR __Size$[esp]
  00014	51		 push	 ecx
  00015	52		 push	 edx
  00016	8d 0c 00	 lea	 ecx, DWORD PTR [eax+eax]
  00019	51		 push	 ecx
  0001a	56		 push	 esi
  0001b	e8 00 00 00 00	 call	 _memmove_s
  00020	83 c4 10	 add	 esp, 16			; 00000010H
  00023	8b c6		 mov	 eax, esi
  00025	5e		 pop	 esi

; 617  : 	}

  00026	c3		 ret	 0
??$move_s@U?$char_traits@_W@std@@@_Traits_helper@std@@YAPA_WPA_WIPB_WI@Z ENDP ; std::_Traits_helper::move_s<std::char_traits<wchar_t> >
_TEXT	ENDS
PUBLIC	??$_Checked_base@PAUFavoriteVolume@CipherShed@@@std@@YAPAUFavoriteVolume@CipherShed@@AAPAU12@@Z ; std::_Checked_base<CipherShed::FavoriteVolume *>
; Function compile flags: /Ogtpy
; File c:\program files (x86)\microsoft visual studio 9.0\vc\include\xutility
;	COMDAT ??$_Checked_base@PAUFavoriteVolume@CipherShed@@@std@@YAPAUFavoriteVolume@CipherShed@@AAPAU12@@Z
_TEXT	SEGMENT
__It$ = 8						; size = 4
??$_Checked_base@PAUFavoriteVolume@CipherShed@@@std@@YAPAUFavoriteVolume@CipherShed@@AAPAU12@@Z PROC ; std::_Checked_base<CipherShed::FavoriteVolume *>, COMDAT

; 1164 : 		typename _Checked_iterator_base_helper<_Iter>::_Checked_iterator_base_type_tag _Base_tag;
; 1165 : 		return _Checked_base(_It, _Base_tag);

  00000	8b 44 24 04	 mov	 eax, DWORD PTR __It$[esp-4]
  00004	8b 00		 mov	 eax, DWORD PTR [eax]

; 1166 : 	}

  00006	c3		 ret	 0
??$_Checked_base@PAUFavoriteVolume@CipherShed@@@std@@YAPAUFavoriteVolume@CipherShed@@AAPAU12@@Z ENDP ; std::_Checked_base<CipherShed::FavoriteVolume *>
_TEXT	ENDS
PUBLIC	??$_Checked_base@V?$_Vector_const_iterator@UFavoriteVolume@CipherShed@@V?$allocator@UFavoriteVolume@CipherShed@@@std@@@std@@U_Different_checked_iterator_base_type_tag@2@@std@@YAPBUFavoriteVolume@CipherShed@@AAV?$_Vector_const_iterator@UFavoriteVolume@CipherShed@@V?$allocator@UFavoriteVolume@CipherShed@@@std@@@0@U_Different_checked_iterator_base_type_tag@0@@Z ; std::_Checked_base<std::_Vector_const_iterator<CipherShed::FavoriteVolume,std::allocator<CipherShed::FavoriteVolume> >,std::_Different_checked_iterator_base_type_tag>
; Function compile flags: /Ogtpy
;	COMDAT ??$_Checked_base@V?$_Vector_const_iterator@UFavoriteVolume@CipherShed@@V?$allocator@UFavoriteVolume@CipherShed@@@std@@@std@@U_Different_checked_iterator_base_type_tag@2@@std@@YAPBUFavoriteVolume@CipherShed@@AAV?$_Vector_const_iterator@UFavoriteVolume@CipherShed@@V?$allocator@UFavoriteVolume@CipherShed@@@std@@@0@U_Different_checked_iterator_base_type_tag@0@@Z
_TEXT	SEGMENT
__It$ = 8						; size = 4
___formal$ = 12						; size = 1
??$_Checked_base@V?$_Vector_const_iterator@UFavoriteVolume@CipherShed@@V?$allocator@UFavoriteVolume@CipherShed@@@std@@@std@@U_Different_checked_iterator_base_type_tag@2@@std@@YAPBUFavoriteVolume@CipherShed@@AAV?$_Vector_const_iterator@UFavoriteVolume@CipherShed@@V?$allocator@UFavoriteVolume@CipherShed@@@std@@@0@U_Different_checked_iterator_base_type_tag@0@@Z PROC ; std::_Checked_base<std::_Vector_const_iterator<CipherShed::FavoriteVolume,std::allocator<CipherShed::FavoriteVolume> >,std::_Different_checked_iterator_base_type_tag>, COMDAT

; 1139 : 		return _It._Checked_iterator_base();

  00000	8b 44 24 04	 mov	 eax, DWORD PTR __It$[esp-4]
  00004	8b 40 04	 mov	 eax, DWORD PTR [eax+4]

; 1140 : 	}

  00007	c3		 ret	 0
??$_Checked_base@V?$_Vector_const_iterator@UFavoriteVolume@CipherShed@@V?$allocator@UFavoriteVolume@CipherShed@@@std@@@std@@U_Different_checked_iterator_base_type_tag@2@@std@@YAPBUFavoriteVolume@CipherShed@@AAV?$_Vector_const_iterator@UFavoriteVolume@CipherShed@@V?$allocator@UFavoriteVolume@CipherShed@@@std@@@0@U_Different_checked_iterator_base_type_tag@0@@Z ENDP ; std::_Checked_base<std::_Vector_const_iterator<CipherShed::FavoriteVolume,std::allocator<CipherShed::FavoriteVolume> >,std::_Different_checked_iterator_base_type_tag>
_TEXT	ENDS
EXTRN	__imp__EnableWindow@8:PROC
EXTRN	__imp__GetDlgItem@8:PROC
EXTRN	__imp__CheckDlgButton@12:PROC
EXTRN	_ReadDriverConfigurationFlags:PROC
EXTRN	_SetCheckBox:PROC
EXTRN	__imp__SetDlgItemTextW@12:PROC
; Function compile flags: /Ogtpy
; File c:\home\public\desktop\projects\ciphershed\src\mount\favorites.cpp
;	COMDAT ?SetControls@CipherShed@@YAXPAUHWND__@@ABUFavoriteVolume@1@_N2@Z
_TEXT	SEGMENT
_systemFavoritesMode$ = 8				; size = 1
_enable$ = 12						; size = 1
?SetControls@CipherShed@@YAXPAUHWND__@@ABUFavoriteVolume@1@_N2@Z PROC ; CipherShed::SetControls, COMDAT
; _hwndDlg$ = esi
; _favorite$ = eax

; 765  : 	{

  00000	53		 push	 ebx
  00001	55		 push	 ebp
  00002	57		 push	 edi
  00003	8b f8		 mov	 edi, eax

; 766  : 		SetDlgItemTextW (hwndDlg, IDC_FAVORITE_LABEL, favorite.Label.c_str());

  00005	83 7f 6c 08	 cmp	 DWORD PTR [edi+108], 8
  00009	72 05		 jb	 SHORT $LN17@SetControl
  0000b	8b 47 58	 mov	 eax, DWORD PTR [edi+88]
  0000e	eb 03		 jmp	 SHORT $LN18@SetControl
$LN17@SetControl:
  00010	8d 47 58	 lea	 eax, DWORD PTR [edi+88]
$LN18@SetControl:
  00013	50		 push	 eax
  00014	68 60 04 00 00	 push	 1120			; 00000460H
  00019	56		 push	 esi
  0001a	ff 15 00 00 00
	00		 call	 DWORD PTR __imp__SetDlgItemTextW@12

; 767  : 		SetCheckBox (hwndDlg, IDC_FAVORITE_MOUNT_ON_LOGON, favorite.MountOnLogOn);

  00020	0f b6 47 72	 movzx	 eax, BYTE PTR [edi+114]
  00024	50		 push	 eax
  00025	68 62 04 00 00	 push	 1122			; 00000462H
  0002a	56		 push	 esi
  0002b	e8 00 00 00 00	 call	 _SetCheckBox

; 768  : 		SetCheckBox (hwndDlg, IDC_FAVORITE_MOUNT_ON_ARRIVAL, favorite.MountOnArrival);

  00030	0f b6 4f 73	 movzx	 ecx, BYTE PTR [edi+115]
  00034	51		 push	 ecx
  00035	68 5f 04 00 00	 push	 1119			; 0000045fH
  0003a	56		 push	 esi
  0003b	e8 00 00 00 00	 call	 _SetCheckBox

; 769  : 		SetCheckBox (hwndDlg, IDC_FAVORITE_MOUNT_READONLY, favorite.ReadOnly);

  00040	0f b6 57 75	 movzx	 edx, BYTE PTR [edi+117]
  00044	52		 push	 edx
  00045	68 5d 04 00 00	 push	 1117			; 0000045dH
  0004a	56		 push	 esi
  0004b	e8 00 00 00 00	 call	 _SetCheckBox

; 770  : 		SetCheckBox (hwndDlg, IDC_FAVORITE_MOUNT_REMOVABLE, favorite.Removable);

  00050	0f b6 47 76	 movzx	 eax, BYTE PTR [edi+118]
  00054	50		 push	 eax
  00055	68 5e 04 00 00	 push	 1118			; 0000045eH
  0005a	56		 push	 esi
  0005b	e8 00 00 00 00	 call	 _SetCheckBox
  00060	83 c4 30	 add	 esp, 48			; 00000030H

; 771  : 
; 772  : 		if (systemFavoritesMode)

  00063	80 7c 24 10 00	 cmp	 BYTE PTR _systemFavoritesMode$[esp+8], 0
  00068	74 2e		 je	 SHORT $LN2@SetControl

; 773  : 		{
; 774  : 			uint32 driverConfig = ReadDriverConfigurationFlags();

  0006a	e8 00 00 00 00	 call	 _ReadDriverConfigurationFlags

; 775  : 
; 776  : 			// MOUNT_SYSTEM_FAVORITES_ON_BOOT
; 777  : 			CheckDlgButton (hwndDlg, IDC_FAVORITE_OPEN_EXPLORER_WIN_ON_MOUNT, (driverConfig & TC_DRIVER_CONFIG_CACHE_BOOT_PASSWORD_FOR_SYS_FAVORITES) ? BST_CHECKED : BST_UNCHECKED);

  0006f	8b 1d 00 00 00
	00		 mov	 ebx, DWORD PTR __imp__CheckDlgButton@12
  00075	8b f8		 mov	 edi, eax
  00077	8b cf		 mov	 ecx, edi
  00079	d1 e9		 shr	 ecx, 1
  0007b	83 e1 01	 and	 ecx, 1
  0007e	51		 push	 ecx
  0007f	68 68 04 00 00	 push	 1128			; 00000468H
  00084	56		 push	 esi
  00085	ff d3		 call	 ebx

; 778  : 
; 779  : 			// DISABLE_NONADMIN_SYS_FAVORITES_ACCESS
; 780  : 			CheckDlgButton (hwndDlg, IDC_FAVORITE_DISABLE_HOTKEY, (driverConfig & TC_DRIVER_CONFIG_DISABLE_NONADMIN_SYS_FAVORITES_ACCESS) ? BST_CHECKED : BST_UNCHECKED);

  00087	c1 ef 02	 shr	 edi, 2
  0008a	83 e7 01	 and	 edi, 1
  0008d	57		 push	 edi
  0008e	68 63 04 00 00	 push	 1123			; 00000463H
  00093	56		 push	 esi
  00094	ff d3		 call	 ebx

; 781  : 		}
; 782  : 		else

  00096	eb 23		 jmp	 SHORT $LN1@SetControl
$LN2@SetControl:

; 783  : 		{
; 784  : 			SetCheckBox (hwndDlg, IDC_FAVORITE_OPEN_EXPLORER_WIN_ON_MOUNT, favorite.OpenExplorerWindow);

  00098	0f b6 57 74	 movzx	 edx, BYTE PTR [edi+116]
  0009c	52		 push	 edx
  0009d	68 68 04 00 00	 push	 1128			; 00000468H
  000a2	56		 push	 esi
  000a3	e8 00 00 00 00	 call	 _SetCheckBox

; 785  : 			SetCheckBox (hwndDlg, IDC_FAVORITE_DISABLE_HOTKEY, favorite.DisableHotkeyMount);

  000a8	0f b6 47 70	 movzx	 eax, BYTE PTR [edi+112]
  000ac	50		 push	 eax
  000ad	68 63 04 00 00	 push	 1123			; 00000463H
  000b2	56		 push	 esi
  000b3	e8 00 00 00 00	 call	 _SetCheckBox
  000b8	83 c4 18	 add	 esp, 24			; 00000018H
$LN1@SetControl:

; 786  : 		}
; 787  : 
; 788  : 		EnableWindow (GetDlgItem (hwndDlg, IDC_FAVORITE_MOVE_UP), enable);

  000bb	0f b6 5c 24 14	 movzx	 ebx, BYTE PTR _enable$[esp+8]
  000c0	8b 3d 00 00 00
	00		 mov	 edi, DWORD PTR __imp__GetDlgItem@8
  000c6	53		 push	 ebx
  000c7	68 64 04 00 00	 push	 1124			; 00000464H
  000cc	56		 push	 esi
  000cd	ff d7		 call	 edi
  000cf	8b 2d 00 00 00
	00		 mov	 ebp, DWORD PTR __imp__EnableWindow@8
  000d5	50		 push	 eax
  000d6	ff d5		 call	 ebp

; 789  : 		EnableWindow (GetDlgItem (hwndDlg, IDC_FAVORITE_MOVE_DOWN), enable);

  000d8	53		 push	 ebx
  000d9	68 65 04 00 00	 push	 1125			; 00000465H
  000de	56		 push	 esi
  000df	ff d7		 call	 edi
  000e1	50		 push	 eax
  000e2	ff d5		 call	 ebp

; 790  : 		EnableWindow (GetDlgItem (hwndDlg, IDC_FAVORITE_REMOVE), enable);

  000e4	53		 push	 ebx
  000e5	68 66 04 00 00	 push	 1126			; 00000466H
  000ea	56		 push	 esi
  000eb	ff d7		 call	 edi
  000ed	50		 push	 eax
  000ee	ff d5		 call	 ebp

; 791  : 		EnableWindow (GetDlgItem (hwndDlg, IDT_FAVORITE_LABEL), enable);

  000f0	53		 push	 ebx
  000f1	68 61 04 00 00	 push	 1121			; 00000461H
  000f6	56		 push	 esi
  000f7	ff d7		 call	 edi
  000f9	50		 push	 eax
  000fa	ff d5		 call	 ebp

; 792  : 		EnableWindow (GetDlgItem (hwndDlg, IDC_FAVORITE_LABEL), enable);

  000fc	53		 push	 ebx
  000fd	68 60 04 00 00	 push	 1120			; 00000460H
  00102	56		 push	 esi
  00103	ff d7		 call	 edi
  00105	50		 push	 eax
  00106	ff d5		 call	 ebp

; 793  : 		EnableWindow (GetDlgItem (hwndDlg, IDC_FAVORITE_MOUNT_ON_LOGON), enable && !systemFavoritesMode);

  00108	80 7c 24 14 00	 cmp	 BYTE PTR _enable$[esp+8], 0
  0010d	74 0e		 je	 SHORT $LN5@SetControl
  0010f	80 7c 24 10 00	 cmp	 BYTE PTR _systemFavoritesMode$[esp+8], 0
  00114	75 07		 jne	 SHORT $LN5@SetControl
  00116	b8 01 00 00 00	 mov	 eax, 1
  0011b	eb 02		 jmp	 SHORT $LN6@SetControl
$LN5@SetControl:
  0011d	33 c0		 xor	 eax, eax
$LN6@SetControl:
  0011f	50		 push	 eax
  00120	68 62 04 00 00	 push	 1122			; 00000462H
  00125	56		 push	 esi
  00126	ff d7		 call	 edi
  00128	50		 push	 eax
  00129	ff d5		 call	 ebp

; 794  : 		EnableWindow (GetDlgItem (hwndDlg, IDC_FAVORITE_MOUNT_ON_ARRIVAL), enable && !systemFavoritesMode);

  0012b	80 7c 24 14 00	 cmp	 BYTE PTR _enable$[esp+8], 0
  00130	74 0e		 je	 SHORT $LN7@SetControl
  00132	80 7c 24 10 00	 cmp	 BYTE PTR _systemFavoritesMode$[esp+8], 0
  00137	75 07		 jne	 SHORT $LN7@SetControl
  00139	b8 01 00 00 00	 mov	 eax, 1
  0013e	eb 02		 jmp	 SHORT $LN8@SetControl
$LN7@SetControl:
  00140	33 c0		 xor	 eax, eax
$LN8@SetControl:
  00142	50		 push	 eax
  00143	68 5f 04 00 00	 push	 1119			; 0000045fH
  00148	56		 push	 esi
  00149	ff d7		 call	 edi
  0014b	50		 push	 eax
  0014c	ff d5		 call	 ebp

; 795  : 		EnableWindow (GetDlgItem (hwndDlg, IDC_FAVORITE_MOUNT_READONLY), enable);

  0014e	53		 push	 ebx
  0014f	68 5d 04 00 00	 push	 1117			; 0000045dH
  00154	56		 push	 esi
  00155	ff d7		 call	 edi
  00157	50		 push	 eax
  00158	ff d5		 call	 ebp

; 796  : 		EnableWindow (GetDlgItem (hwndDlg, IDC_FAVORITE_MOUNT_REMOVABLE), enable);

  0015a	53		 push	 ebx
  0015b	68 5e 04 00 00	 push	 1118			; 0000045eH
  00160	56		 push	 esi
  00161	ff d7		 call	 edi
  00163	50		 push	 eax
  00164	ff d5		 call	 ebp

; 797  : 		EnableWindow (GetDlgItem (hwndDlg, IDC_FAVORITE_OPEN_EXPLORER_WIN_ON_MOUNT), enable || systemFavoritesMode);

  00166	8a 5c 24 14	 mov	 bl, BYTE PTR _enable$[esp+8]
  0016a	84 db		 test	 bl, bl
  0016c	75 0a		 jne	 SHORT $LN19@SetControl
  0016e	38 5c 24 10	 cmp	 BYTE PTR _systemFavoritesMode$[esp+8], bl
  00172	75 04		 jne	 SHORT $LN19@SetControl
  00174	33 c0		 xor	 eax, eax
  00176	eb 05		 jmp	 SHORT $LN10@SetControl
$LN19@SetControl:
  00178	b8 01 00 00 00	 mov	 eax, 1
$LN10@SetControl:
  0017d	50		 push	 eax
  0017e	68 68 04 00 00	 push	 1128			; 00000468H
  00183	56		 push	 esi
  00184	ff d7		 call	 edi
  00186	50		 push	 eax
  00187	ff d5		 call	 ebp

; 798  : 		EnableWindow (GetDlgItem (hwndDlg, IDC_FAVORITE_DISABLE_HOTKEY), enable || systemFavoritesMode);

  00189	84 db		 test	 bl, bl
  0018b	75 18		 jne	 SHORT $LN11@SetControl
  0018d	38 5c 24 10	 cmp	 BYTE PTR _systemFavoritesMode$[esp+8], bl
  00191	75 12		 jne	 SHORT $LN11@SetControl
  00193	33 c0		 xor	 eax, eax
  00195	50		 push	 eax
  00196	68 63 04 00 00	 push	 1123			; 00000463H
  0019b	56		 push	 esi
  0019c	ff d7		 call	 edi
  0019e	50		 push	 eax
  0019f	ff d5		 call	 ebp
  001a1	5f		 pop	 edi
  001a2	5d		 pop	 ebp
  001a3	5b		 pop	 ebx

; 799  : 	}

  001a4	c3		 ret	 0
$LN11@SetControl:

; 798  : 		EnableWindow (GetDlgItem (hwndDlg, IDC_FAVORITE_DISABLE_HOTKEY), enable || systemFavoritesMode);

  001a5	b8 01 00 00 00	 mov	 eax, 1
  001aa	50		 push	 eax
  001ab	68 63 04 00 00	 push	 1123			; 00000463H
  001b0	56		 push	 esi
  001b1	ff d7		 call	 edi
  001b3	50		 push	 eax
  001b4	ff d5		 call	 ebp
  001b6	5f		 pop	 edi
  001b7	5d		 pop	 ebp
  001b8	5b		 pop	 ebx

; 799  : 	}

  001b9	c3		 ret	 0
?SetControls@CipherShed@@YAXPAUHWND__@@ABUFavoriteVolume@1@_N2@Z ENDP ; CipherShed::SetControls
_TEXT	ENDS
PUBLIC	?find@?$basic_string@DU?$char_traits@D@std@@V?$allocator@D@2@@std@@QBEIPBDI@Z ; std::basic_string<char,std::char_traits<char>,std::allocator<char> >::find
; Function compile flags: /Ogtpy
; File c:\program files (x86)\microsoft visual studio 9.0\vc\include\xstring
;	COMDAT ?find@?$basic_string@DU?$char_traits@D@std@@V?$allocator@D@2@@std@@QBEIPBDI@Z
_TEXT	SEGMENT
__Ptr$ = 8						; size = 4
__Off$ = 12						; size = 4
?find@?$basic_string@DU?$char_traits@D@std@@V?$allocator@D@2@@std@@QBEIPBDI@Z PROC ; std::basic_string<char,std::char_traits<char>,std::allocator<char> >::find, COMDAT
; _this$ = ecx

; 1795 : 		{	// look for [_Ptr, <null>) beginnng at or after _Off

  00000	56		 push	 esi

; 1796 : 		_DEBUG_POINTER(_Ptr);
; 1797 : 		return (find(_Ptr, _Off, _Traits::length(_Ptr)));

  00001	8b 74 24 08	 mov	 esi, DWORD PTR __Ptr$[esp]
  00005	8b c6		 mov	 eax, esi
  00007	57		 push	 edi
  00008	8d 78 01	 lea	 edi, DWORD PTR [eax+1]
  0000b	eb 03 8d 49 00	 npad	 5
$LL5@find@2:
  00010	8a 10		 mov	 dl, BYTE PTR [eax]
  00012	40		 inc	 eax
  00013	84 d2		 test	 dl, dl
  00015	75 f9		 jne	 SHORT $LL5@find@2
  00017	2b c7		 sub	 eax, edi
  00019	50		 push	 eax
  0001a	8b 44 24 14	 mov	 eax, DWORD PTR __Off$[esp+8]
  0001e	50		 push	 eax
  0001f	56		 push	 esi
  00020	e8 00 00 00 00	 call	 ?find@?$basic_string@DU?$char_traits@D@std@@V?$allocator@D@2@@std@@QBEIPBDII@Z ; std::basic_string<char,std::char_traits<char>,std::allocator<char> >::find
  00025	5f		 pop	 edi
  00026	5e		 pop	 esi

; 1798 : 		}

  00027	c2 08 00	 ret	 8
?find@?$basic_string@DU?$char_traits@D@std@@V?$allocator@D@2@@std@@QBEIPBDI@Z ENDP ; std::basic_string<char,std::char_traits<char>,std::allocator<char> >::find
_TEXT	ENDS
PUBLIC	?rfind@?$basic_string@DU?$char_traits@D@std@@V?$allocator@D@2@@std@@QBEIPBDI@Z ; std::basic_string<char,std::char_traits<char>,std::allocator<char> >::rfind
; Function compile flags: /Ogtpy
;	COMDAT ?rfind@?$basic_string@DU?$char_traits@D@std@@V?$allocator@D@2@@std@@QBEIPBDI@Z
_TEXT	SEGMENT
__Ptr$ = 8						; size = 4
__Off$ = 12						; size = 4
?rfind@?$basic_string@DU?$char_traits@D@std@@V?$allocator@D@2@@std@@QBEIPBDI@Z PROC ; std::basic_string<char,std::char_traits<char>,std::allocator<char> >::rfind, COMDAT
; _this$ = ecx

; 1837 : 		{	// look for [_Ptr, <null>) beginning before _Off

  00000	56		 push	 esi

; 1838 : 		_DEBUG_POINTER(_Ptr);
; 1839 : 		return (rfind(_Ptr, _Off, _Traits::length(_Ptr)));

  00001	8b 74 24 08	 mov	 esi, DWORD PTR __Ptr$[esp]
  00005	8b c6		 mov	 eax, esi
  00007	57		 push	 edi
  00008	8d 78 01	 lea	 edi, DWORD PTR [eax+1]
  0000b	eb 03 8d 49 00	 npad	 5
$LL5@rfind@2:
  00010	8a 10		 mov	 dl, BYTE PTR [eax]
  00012	40		 inc	 eax
  00013	84 d2		 test	 dl, dl
  00015	75 f9		 jne	 SHORT $LL5@rfind@2
  00017	2b c7		 sub	 eax, edi
  00019	50		 push	 eax
  0001a	8b 44 24 14	 mov	 eax, DWORD PTR __Off$[esp+8]
  0001e	50		 push	 eax
  0001f	56		 push	 esi
  00020	e8 00 00 00 00	 call	 ?rfind@?$basic_string@DU?$char_traits@D@std@@V?$allocator@D@2@@std@@QBEIPBDII@Z ; std::basic_string<char,std::char_traits<char>,std::allocator<char> >::rfind
  00025	5f		 pop	 edi
  00026	5e		 pop	 esi

; 1840 : 		}

  00027	c2 08 00	 ret	 8
?rfind@?$basic_string@DU?$char_traits@D@std@@V?$allocator@D@2@@std@@QBEIPBDI@Z ENDP ; std::basic_string<char,std::char_traits<char>,std::allocator<char> >::rfind
_TEXT	ENDS
PUBLIC	?compare@?$basic_string@DU?$char_traits@D@std@@V?$allocator@D@2@@std@@QBEHABV12@@Z ; std::basic_string<char,std::char_traits<char>,std::allocator<char> >::compare
; Function compile flags: /Ogtpy
;	COMDAT ?compare@?$basic_string@DU?$char_traits@D@std@@V?$allocator@D@2@@std@@QBEHABV12@@Z
_TEXT	SEGMENT
__Right$ = 8						; size = 4
?compare@?$basic_string@DU?$char_traits@D@std@@V?$allocator@D@2@@std@@QBEHABV12@@Z PROC ; std::basic_string<char,std::char_traits<char>,std::allocator<char> >::compare, COMDAT
; _this$ = ecx

; 2004 : 		return (compare(0, _Mysize, _Right._Myptr(), _Right.size()));

  00000	8b 44 24 04	 mov	 eax, DWORD PTR __Right$[esp-4]
