; Listing generated by Microsoft (R) Optimizing Compiler Version 15.00.30729.207 

include listing.inc

INCLUDELIB OLDNAMES

PUBLIC	RootDeviceObject
PUBLIC	DriverShuttingDown
PUBLIC	OsMajorVersion
PUBLIC	DriverUnloadDisabled
PUBLIC	PortableMode
PUBLIC	VolumeClassFilterRegistered
PUBLIC	CacheBootPassword
PUBLIC	NonAdminSystemFavoritesAccessDisabled
PUBLIC	??_C@_0BO@OAMALJLL@DriverEntry?5CipherShed?50?47?43?6?$AA@PBOPGDP@ ;  ?? ::PBOPGDP::`string'
PUBLIC	??_C@_1CE@IPABBIFA@?$AA?2?$AAD?$AAe?$AAv?$AAi?$AAc?$AAe?$AA?2?$AAT?$AAr?$AAu?$AAe?$AAC?$AAr?$AAy?$AAp?$AAt?$AA?$AA@PBOPGDP@ ;  ?? ::PBOPGDP::`string'
PUBLIC	??_C@_1M@IOJLKPKK@?$AAS?$AAt?$AAa?$AAr?$AAt?$AA?$AA@PBOPGDP@ ;  ?? ::PBOPGDP::`string'
PUBLIC	??_C@_13HGPDMIBE@?$AA?$DP?$AA?$AA@FNODOBFM@	;  ?? ::FNODOBFM::`string'
PUBLIC	??_C@_0CD@FCIMJPEM@AddDevice?5pdo?$DN?$CFp?5type?$DN?$CFx?5name?$DN?$CFw@FNODOBFM@ ;  ?? ::FNODOBFM::`string'
PUBLIC	??_C@_0BN@PIELMKDH@Volume?5pdo?$DN?$CFp?5interface?$DN?$CFws?6?$AA@FNODOBFM@ ;  ?? ::FNODOBFM::`string'
PUBLIC	??_C@_0DF@IHIBAGEA@0x?$CF08p?5?5?$CF02x?5?$CF02x?5?$CF02x?5?$CF02x?5?$CF02x@FNODOBFM@ ;  ?? ::FNODOBFM::`string'
PUBLIC	??_C@_0FE@HIDEPCAO@STATUS_BUFFER_TOO_SMALL?5ioctl?$DN0x@FNODOBFM@ ;  ?? ::FNODOBFM::`string'
PUBLIC	??_C@_0P@CMDFIGFB@?$CFls?5?$CI0x?$CFx?5?$CFd?$CJ?6?$AA@FNODOBFM@ ;  ?? ::FNODOBFM::`string'
PUBLIC	??_C@_0BG@JHFMBFJC@Driver?5shutting?5down?6?$AA@FNODOBFM@ ;  ?? ::FNODOBFM::`string'
PUBLIC	??_C@_0DA@HGPNLENJ@Device?5?$CFd?5shutting?5down?3?5STATUS_@FNODOBFM@ ;  ?? ::FNODOBFM::`string'
PUBLIC	??_C@_0EI@NJLFEPKD@Removable?5device?5?$CFd?5has?5DO_VERIF@FNODOBFM@ ;  ?? ::FNODOBFM::`string'
PUBLIC	??_C@_0EC@PIHBGAHH@c?3?2users?2public?2desktop?2projects@FNODOBFM@ ;  ?? ::FNODOBFM::`string'
PUBLIC	??_C@_0CA@NGANHIBM@TCCreateRootDeviceObject?5BEGIN?6?$AA@PBOPGDP@ ;  ?? ::PBOPGDP::`string'
PUBLIC	??_C@_0EC@PIHBGAHH@c?3?2users?2public?2desktop?2projects@PBOPGDP@ ;  ?? ::PBOPGDP::`string'
PUBLIC	??_C@_0CE@KKOENIAD@KeGetCurrentIrql?$CI?$CJ?5?$DN?$DN?5PASSIVE_LE@PBOPGDP@ ;  ?? ::PBOPGDP::`string'
PUBLIC	??_C@_1CM@KJDLPNIG@?$AA?2?$AAD?$AAo?$AAs?$AAD?$AAe?$AAv?$AAi?$AAc?$AAe?$AAs?$AA?2?$AAT?$AAr?$AAu?$AAe?$AAC?$AAr?$AAy?$AAp?$AAt?$AA?$AA@PBOPGDP@ ;  ?? ::PBOPGDP::`string'
PUBLIC	??_C@_0CF@KMOPKHLE@Creating?5root?5device?5nt?$DN?$CFls?5dos?$DN@PBOPGDP@ ;  ?? ::PBOPGDP::`string'
PUBLIC	??_C@_0DA@OJGNPLJ@TCCreateRootDeviceObject?5NTSTATU@PBOPGDP@ ;  ?? ::PBOPGDP::`string'
PUBLIC	??_C@_0CN@PMFMKKNC@TCCreateRootDeviceObject?5STATUS_@PBOPGDP@ ;  ?? ::PBOPGDP::`string'
PUBLIC	??_C@_0BM@HAIECJHN@TCCreateDeviceObject?5BEGIN?6?$AA@FNODOBFM@ ;  ?? ::FNODOBFM::`string'
PUBLIC	??_C@_0CA@MBKOBJGH@Creating?5device?5nt?$DN?$CFls?5dos?$DN?$CFls?6?$AA@FNODOBFM@ ;  ?? ::FNODOBFM::`string'
PUBLIC	??_C@_0CM@DAAJFNOI@TCCreateDeviceObject?5NTSTATUS?5?$DN?5@FNODOBFM@ ;  ?? ::FNODOBFM::`string'
PUBLIC	??_C@_0CJ@CAANMOOG@TCCreateDeviceObject?5STATUS_SUCC@FNODOBFM@ ;  ?? ::FNODOBFM::`string'
PUBLIC	??_C@_0M@FBJPBOL@name?5?$DN?5?$CFls?6?$AA@FNODOBFM@ ;  ?? ::FNODOBFM::`string'
PUBLIC	??_C@_0BA@OLBPPLP@TrueCryptVolume?$AA@FNODOBFM@	;  ?? ::FNODOBFM::`string'
PUBLIC	??_C@_08DALLBBIL@id?5?$DN?5?$CFs?6?$AA@FNODOBFM@ ;  ?? ::FNODOBFM::`string'
PUBLIC	??_C@_0M@HABEOOKA@link?5?$DN?5?$CFls?6?$AA@FNODOBFM@ ;  ?? ::FNODOBFM::`string'
PUBLIC	??_C@_0BO@BEMMNDOD@IOCTL?5error?50x?$CF08x?5?$CI0x?$CFx?5?$CFd?$CJ?6?$AA@FNODOBFM@ ;  ?? ::FNODOBFM::`string'
PUBLIC	??_C@_09EMKKFGIH@TrueCrypt?$AA@FNODOBFM@	;  ?? ::FNODOBFM::`string'
PUBLIC	??_C@_0CA@FCHCHJKN@Open?5test?5on?5file?5?$CFls?5success?4?6?$AA@FNODOBFM@ ;  ?? ::FNODOBFM::`string'
PUBLIC	??_C@_0BH@GFMHOPFN@Setting?5portable?5mode?6?$AA@FNODOBFM@ ;  ?? ::FNODOBFM::`string'
PUBLIC	??_C@_0BE@MLCKFMJI@IOCTL?5error?50x?$CF08x?6?$AA@FNODOBFM@ ;  ?? ::FNODOBFM::`string'
PUBLIC	??_C@_0BE@DCPHDOHD@Starting?5thread?4?4?4?6?$AA@FNODOBFM@ ;  ?? ::FNODOBFM::`string'
PUBLIC	??_C@_0CB@DGOAIPAC@PsCreateSystemThread?5Failed?5END?6@FNODOBFM@ ;  ?? ::FNODOBFM::`string'
PUBLIC	??_C@_0CF@DMBFEFC@Waiting?5for?5thread?5to?5initialize@FNODOBFM@ ;  ?? ::FNODOBFM::`string'
PUBLIC	??_C@_0CK@KIOPBGEO@Waiting?5completed?$CB?5Thread?5return@FNODOBFM@ ;  ?? ::FNODOBFM::`string'
PUBLIC	??_C@_0BO@IDJGLOL@Signalling?5thread?5to?5quit?4?4?4?6?$AA@FNODOBFM@ ;  ?? ::FNODOBFM::`string'
PUBLIC	??_C@_0BG@MEOILBFO@NT_SUCCESS?5?$CIntStatus?$CJ?$AA@FNODOBFM@ ;  ?? ::FNODOBFM::`string'
PUBLIC	??_C@_0P@OPFPPFJJ@Thread?5exited?6?$AA@FNODOBFM@ ;  ?? ::FNODOBFM::`string'
PUBLIC	??_C@_0CD@LOGBEHKH@Mount?5THREAD?5OPENING?5VOLUME?5BEGI@FNODOBFM@ ;  ?? ::FNODOBFM::`string'
PUBLIC	??_C@_1BA@CCLAPIHO@?$AA?2?$AAD?$AAe?$AAv?$AAi?$AAc?$AAe?$AA?$AA@FNODOBFM@ ;  ?? ::FNODOBFM::`string'
PUBLIC	??_C@_19JHEHLFPM@?$AA?2?$AA?$DP?$AA?$DP?$AA?2?$AA?$AA@FNODOBFM@ ;  ?? ::FNODOBFM::`string'
PUBLIC	??_C@_0DO@GJJNBBEG@Mount?5THREAD?5request?5for?5File?5?$CFl@FNODOBFM@ ;  ?? ::FNODOBFM::`string'
PUBLIC	??_C@_0CO@PADHEFHE@irpSp?9?$DOMajorFunction?5?$DN?$DN?5IRP_MJ_D@FNODOBFM@ ;  ?? ::FNODOBFM::`string'
PUBLIC	??_C@_0BA@OMKHINCH@Closing?5volume?6?$AA@FNODOBFM@ ;  ?? ::FNODOBFM::`string'
PUBLIC	??_C@_1DA@GMJGMIMP@?$AA?2?$AAD?$AAe?$AAv?$AAi?$AAc?$AAe?$AA?2?$AAT?$AAr?$AAu?$AAe?$AAC?$AAr?$AAy?$AAp?$AAt?$AAV?$AAo?$AAl?$AAu?$AAm?$AAe?$AA?$AA@FNODOBFM@ ;  ?? ::FNODOBFM::`string'
PUBLIC	??_C@_1BK@LABJKOM@?$AA?2?$AAD?$AAo?$AAs?$AAD?$AAe?$AAv?$AAi?$AAc?$AAe?$AAs?$AA?2?$AA?$AA@FNODOBFM@ ;  ?? ::FNODOBFM::`string'
PUBLIC	??_C@_1EK@CMLLEBIK@?$AAT?$AAC?$AA_?$AAI?$AAO?$AAC?$AAT?$AAL?$AA_?$AAA?$AAB?$AAO?$AAR?$AAT?$AA_?$AAB?$AAO?$AAO?$AAT?$AA_?$AAE?$AAN?$AAC?$AAR?$AAY?$AAP?$AAT?$AAI?$AAO?$AAN?$AA_?$AAS@FNODOBFM@ ;  ?? ::FNODOBFM::`string'
PUBLIC	??_C@_1EC@HMNCILMA@?$AAT?$AAC?$AA_?$AAI?$AAO?$AAC?$AAT?$AAL?$AA_?$AAA?$AAB?$AAO?$AAR?$AAT?$AA_?$AAD?$AAE?$AAC?$AAO?$AAY?$AA_?$AAS?$AAY?$AAS?$AAT?$AAE?$AAM?$AA_?$AAW?$AAI?$AAP?$AAE@FNODOBFM@ ;  ?? ::FNODOBFM::`string'
PUBLIC	??_C@_1DO@JPMJPMCJ@?$AAT?$AAC?$AA_?$AAI?$AAO?$AAC?$AAT?$AAL?$AA_?$AAB?$AAO?$AAO?$AAT?$AA_?$AAE?$AAN?$AAC?$AAR?$AAY?$AAP?$AAT?$AAI?$AAO?$AAN?$AA_?$AAS?$AAE?$AAT?$AAU?$AAP?$AA?$AA@FNODOBFM@ ;  ?? ::FNODOBFM::`string'
PUBLIC	??_C@_1DM@OLONGNGL@?$AAT?$AAC?$AA_?$AAI?$AAO?$AAC?$AAT?$AAL?$AA_?$AAD?$AAI?$AAS?$AAM?$AAO?$AAU?$AAN?$AAT?$AA_?$AAA?$AAL?$AAL?$AA_?$AAV?$AAO?$AAL?$AAU?$AAM?$AAE?$AAS?$AA?$AA@FNODOBFM@ ;  ?? ::FNODOBFM::`string'
PUBLIC	??_C@_1DC@CLEBJPLG@?$AAT?$AAC?$AA_?$AAI?$AAO?$AAC?$AAT?$AAL?$AA_?$AAD?$AAI?$AAS?$AAM?$AAO?$AAU?$AAN?$AAT?$AA_?$AAV?$AAO?$AAL?$AAU?$AAM?$AAE?$AA?$AA@FNODOBFM@ ;  ?? ::FNODOBFM::`string'
PUBLIC	??_C@_1FE@BEJBLKBA@?$AAT?$AAC?$AA_?$AAI?$AAO?$AAC?$AAT?$AAL?$AA_?$AAG?$AAE?$AAT?$AA_?$AAB?$AAO?$AAO?$AAT?$AA_?$AAD?$AAR?$AAI?$AAV?$AAE?$AA_?$AAV?$AAO?$AAL?$AAU?$AAM?$AAE?$AA_?$AAP@FNODOBFM@ ;  ?? ::FNODOBFM::`string'
PUBLIC	??_C@_1FI@CDJGLMPJ@?$AAT?$AAC?$AA_?$AAI?$AAO?$AAC?$AAT?$AAL?$AA_?$AAG?$AAE?$AAT?$AA_?$AAB?$AAO?$AAO?$AAT?$AA_?$AAE?$AAN?$AAC?$AAR?$AAY?$AAP?$AAT?$AAI?$AAO?$AAN?$AA_?$AAA?$AAL?$AAG@FNODOBFM@ ;  ?? ::FNODOBFM::`string'
PUBLIC	??_C@_1FE@OJNNCONL@?$AAT?$AAC?$AA_?$AAI?$AAO?$AAC?$AAT?$AAL?$AA_?$AAG?$AAE?$AAT?$AA_?$AAB?$AAO?$AAO?$AAT?$AA_?$AAE?$AAN?$AAC?$AAR?$AAY?$AAP?$AAT?$AAI?$AAO?$AAN?$AA_?$AAS?$AAE?$AAT@FNODOBFM@ ;  ?? ::FNODOBFM::`string'
PUBLIC	??_C@_1EI@GAKLFLAF@?$AAT?$AAC?$AA_?$AAI?$AAO?$AAC?$AAT?$AAL?$AA_?$AAG?$AAE?$AAT?$AA_?$AAB?$AAO?$AAO?$AAT?$AA_?$AAE?$AAN?$AAC?$AAR?$AAY?$AAP?$AAT?$AAI?$AAO?$AAN?$AA_?$AAS?$AAT?$AAA@FNODOBFM@ ;  ?? ::FNODOBFM::`string'
PUBLIC	??_C@_1EC@OPCJHCIG@?$AAT?$AAC?$AA_?$AAI?$AAO?$AAC?$AAT?$AAL?$AA_?$AAG?$AAE?$AAT?$AA_?$AAB?$AAO?$AAO?$AAT?$AA_?$AAL?$AAO?$AAA?$AAD?$AAE?$AAR?$AA_?$AAV?$AAE?$AAR?$AAS?$AAI?$AAO?$AAN@FNODOBFM@ ;  ?? ::FNODOBFM::`string'
PUBLIC	??_C@_1EM@OAEBJACE@?$AAT?$AAC?$AA_?$AAI?$AAO?$AAC?$AAT?$AAL?$AA_?$AAG?$AAE?$AAT?$AA_?$AAD?$AAE?$AAC?$AAO?$AAY?$AA_?$AAS?$AAY?$AAS?$AAT?$AAE?$AAM?$AA_?$AAW?$AAI?$AAP?$AAE?$AA_?$AAR@FNODOBFM@ ;  ?? ::FNODOBFM::`string'
PUBLIC	??_C@_1EM@LMAMOKGA@?$AAT?$AAC?$AA_?$AAI?$AAO?$AAC?$AAT?$AAL?$AA_?$AAG?$AAE?$AAT?$AA_?$AAD?$AAE?$AAC?$AAO?$AAY?$AA_?$AAS?$AAY?$AAS?$AAT?$AAE?$AAM?$AA_?$AAW?$AAI?$AAP?$AAE?$AA_?$AAS@FNODOBFM@ ;  ?? ::FNODOBFM::`string'
PUBLIC	??_C@_1DK@DFEJGDBK@?$AAT?$AAC?$AA_?$AAI?$AAO?$AAC?$AAT?$AAL?$AA_?$AAG?$AAE?$AAT?$AA_?$AAD?$AAE?$AAV?$AAI?$AAC?$AAE?$AA_?$AAR?$AAE?$AAF?$AAC?$AAO?$AAU?$AAN?$AAT?$AA?$AA@FNODOBFM@ ;  ?? ::FNODOBFM::`string'
PUBLIC	??_C@_1DI@LAIAIOML@?$AAT?$AAC?$AA_?$AAI?$AAO?$AAC?$AAT?$AAL?$AA_?$AAG?$AAE?$AAT?$AA_?$AAD?$AAR?$AAI?$AAV?$AAE?$AA_?$AAG?$AAE?$AAO?$AAM?$AAE?$AAT?$AAR?$AAY?$AA?$AA@FNODOBFM@ ;  ?? ::FNODOBFM::`string'
PUBLIC	??_C@_1EE@HEELFNND@?$AAT?$AAC?$AA_?$AAI?$AAO?$AAC?$AAT?$AAL?$AA_?$AAG?$AAE?$AAT?$AA_?$AAD?$AAR?$AAI?$AAV?$AAE?$AA_?$AAP?$AAA?$AAR?$AAT?$AAI?$AAT?$AAI?$AAO?$AAN?$AA_?$AAI?$AAN?$AAF@FNODOBFM@ ;  ?? ::FNODOBFM::`string'
PUBLIC	??_C@_1DI@ODPPPDDO@?$AAT?$AAC?$AA_?$AAI?$AAO?$AAC?$AAT?$AAL?$AA_?$AAG?$AAE?$AAT?$AA_?$AAD?$AAR?$AAI?$AAV?$AAE?$AAR?$AA_?$AAV?$AAE?$AAR?$AAS?$AAI?$AAO?$AAN?$AA?$AA@FNODOBFM@ ;  ?? ::FNODOBFM::`string'
PUBLIC	??_C@_1DK@KJKOFIJA@?$AAT?$AAC?$AA_?$AAI?$AAO?$AAC?$AAT?$AAL?$AA_?$AAG?$AAE?$AAT?$AA_?$AAM?$AAO?$AAU?$AAN?$AAT?$AAE?$AAD?$AA_?$AAV?$AAO?$AAL?$AAU?$AAM?$AAE?$AAS?$AA?$AA@FNODOBFM@ ;  ?? ::FNODOBFM::`string'
PUBLIC	??_C@_1EG@LLJHBPJF@?$AAT?$AAC?$AA_?$AAI?$AAO?$AAC?$AAT?$AAL?$AA_?$AAG?$AAE?$AAT?$AA_?$AAP?$AAA?$AAS?$AAS?$AAW?$AAO?$AAR?$AAD?$AA_?$AAC?$AAA?$AAC?$AAH?$AAE?$AA_?$AAS?$AAT?$AAA?$AAT@FNODOBFM@ ;  ?? ::FNODOBFM::`string'
PUBLIC	??_C@_1EC@FADHDJPK@?$AAT?$AAC?$AA_?$AAI?$AAO?$AAC?$AAT?$AAL?$AA_?$AAG?$AAE?$AAT?$AA_?$AAS?$AAY?$AAS?$AAT?$AAE?$AAM?$AA_?$AAD?$AAR?$AAI?$AAV?$AAE?$AA_?$AAC?$AAO?$AAN?$AAF?$AAI?$AAG@FNODOBFM@ ;  ?? ::FNODOBFM::`string'
PUBLIC	??_C@_1EE@IPNJBDEG@?$AAT?$AAC?$AA_?$AAI?$AAO?$AAC?$AAT?$AAL?$AA_?$AAG?$AAE?$AAT?$AA_?$AAP?$AAO?$AAR?$AAT?$AAA?$AAB?$AAL?$AAE?$AA_?$AAM?$AAO?$AAD?$AAE?$AA_?$AAS?$AAT?$AAA?$AAT?$AAU@FNODOBFM@ ;  ?? ::FNODOBFM::`string'
PUBLIC	??_C@_1EE@NMKCMMBM@?$AAT?$AAC?$AA_?$AAI?$AAO?$AAC?$AAT?$AAL?$AA_?$AAS?$AAE?$AAT?$AA_?$AAP?$AAO?$AAR?$AAT?$AAA?$AAB?$AAL?$AAE?$AA_?$AAM?$AAO?$AAD?$AAE?$AA_?$AAS?$AAT?$AAA?$AAT?$AAU@FNODOBFM@ ;  ?? ::FNODOBFM::`string'
PUBLIC	??_C@_1DM@GFCMCNDC@?$AAT?$AAC?$AA_?$AAI?$AAO?$AAC?$AAT?$AAL?$AA_?$AAG?$AAE?$AAT?$AA_?$AAR?$AAE?$AAS?$AAO?$AAL?$AAV?$AAE?$AAD?$AA_?$AAS?$AAY?$AAM?$AAL?$AAI?$AAN?$AAK?$AA?$AA@FNODOBFM@ ;  ?? ::FNODOBFM::`string'
PUBLIC	??_C@_1EM@GFDNBFC@?$AAT?$AAC?$AA_?$AAI?$AAO?$AAC?$AAT?$AAL?$AA_?$AAG?$AAE?$AAT?$AA_?$AAS?$AAY?$AAS?$AAT?$AAE?$AAM?$AA_?$AAD?$AAR?$AAI?$AAV?$AAE?$AA_?$AAD?$AAU?$AAM?$AAP?$AA_?$AAC@FNODOBFM@ ;  ?? ::FNODOBFM::`string'
PUBLIC	??_C@_1DO@DMIHGGIB@?$AAT?$AAC?$AA_?$AAI?$AAO?$AAC?$AAT?$AAL?$AA_?$AAG?$AAE?$AAT?$AA_?$AAV?$AAO?$AAL?$AAU?$AAM?$AAE?$AA_?$AAP?$AAR?$AAO?$AAP?$AAE?$AAR?$AAT?$AAI?$AAE?$AAS?$AA?$AA@FNODOBFM@ ;  ?? ::FNODOBFM::`string'
PUBLIC	??_C@_1DG@LBDEDPBA@?$AAT?$AAC?$AA_?$AAI?$AAO?$AAC?$AAT?$AAL?$AA_?$AAG?$AAE?$AAT?$AA_?$AAW?$AAA?$AAR?$AAN?$AAI?$AAN?$AAG?$AA_?$AAF?$AAL?$AAA?$AAG?$AAS?$AA?$AA@FNODOBFM@ ;  ?? ::FNODOBFM::`string'
PUBLIC	??_C@_1DE@JNPINMHP@?$AAT?$AAC?$AA_?$AAI?$AAO?$AAC?$AAT?$AAL?$AA_?$AAD?$AAI?$AAS?$AAK?$AA_?$AAI?$AAS?$AA_?$AAW?$AAR?$AAI?$AAT?$AAA?$AAB?$AAL?$AAE?$AA?$AA@FNODOBFM@ ;  ?? ::FNODOBFM::`string'
PUBLIC	??_C@_1DO@ICDMEENM@?$AAT?$AAC?$AA_?$AAI?$AAO?$AAC?$AAT?$AAL?$AA_?$AAI?$AAS?$AA_?$AAA?$AAN?$AAY?$AA_?$AAV?$AAO?$AAL?$AAU?$AAM?$AAE?$AA_?$AAM?$AAO?$AAU?$AAN?$AAT?$AAE?$AAD?$AA?$AA@FNODOBFM@ ;  ?? ::FNODOBFM::`string'
PUBLIC	??_C@_1EG@HPLFHOOO@?$AAT?$AAC?$AA_?$AAI?$AAO?$AAC?$AAT?$AAL?$AA_?$AAI?$AAS?$AA_?$AAD?$AAR?$AAI?$AAV?$AAE?$AAR?$AA_?$AAU?$AAN?$AAL?$AAO?$AAA?$AAD?$AA_?$AAD?$AAI?$AAS?$AAA?$AAB?$AAL@FNODOBFM@ ;  ?? ::FNODOBFM::`string'
PUBLIC	??_C@_1EE@HPDOLCKH@?$AAT?$AAC?$AA_?$AAI?$AAO?$AAC?$AAT?$AAL?$AA_?$AAI?$AAS?$AA_?$AAH?$AAI?$AAD?$AAD?$AAE?$AAN?$AA_?$AAS?$AAY?$AAS?$AAT?$AAE?$AAM?$AA_?$AAR?$AAU?$AAN?$AAN?$AAI?$AAN@FNODOBFM@ ;  ?? ::FNODOBFM::`string'
PUBLIC	??_C@_1CM@HJCGFKAD@?$AAT?$AAC?$AA_?$AAI?$AAO?$AAC?$AAT?$AAL?$AA_?$AAM?$AAO?$AAU?$AAN?$AAT?$AA_?$AAV?$AAO?$AAL?$AAU?$AAM?$AAE?$AA?$AA@FNODOBFM@ ;  ?? ::FNODOBFM::`string'
PUBLIC	??_C@_1CG@HPPKKEKP@?$AAT?$AAC?$AA_?$AAI?$AAO?$AAC?$AAT?$AAL?$AA_?$AAO?$AAP?$AAE?$AAN?$AA_?$AAT?$AAE?$AAS?$AAT?$AA?$AA@FNODOBFM@ ;  ?? ::FNODOBFM::`string'
PUBLIC	??_C@_1DO@BKHLMLHN@?$AAT?$AAC?$AA_?$AAI?$AAO?$AAC?$AAT?$AAL?$AA_?$AAP?$AAR?$AAO?$AAB?$AAE?$AA_?$AAR?$AAE?$AAA?$AAL?$AA_?$AAD?$AAR?$AAI?$AAV?$AAE?$AA_?$AAS?$AAI?$AAZ?$AAE?$AA?$AA@FNODOBFM@ ;  ?? ::FNODOBFM::`string'
PUBLIC	??_C@_1EG@GGODONFK@?$AAT?$AAC?$AA_?$AAI?$AAO?$AAC?$AAT?$AAL?$AA_?$AAR?$AAE?$AAO?$AAP?$AAE?$AAN?$AA_?$AAB?$AAO?$AAO?$AAT?$AA_?$AAV?$AAO?$AAL?$AAU?$AAM?$AAE?$AA_?$AAH?$AAE?$AAA?$AAD@FNODOBFM@ ;  ?? ::FNODOBFM::`string'
PUBLIC	??_C@_1DM@JFJLBNLP@?$AAT?$AAC?$AA_?$AAI?$AAO?$AAC?$AAT?$AAL?$AA_?$AAR?$AAE?$AAR?$AAE?$AAA?$AAD?$AA_?$AAD?$AAR?$AAI?$AAV?$AAE?$AAR?$AA_?$AAC?$AAO?$AAN?$AAF?$AAI?$AAG?$AA?$AA@FNODOBFM@ ;  ?? ::FNODOBFM::`string'
PUBLIC	??_C@_1FE@EBAIHKDI@?$AAT?$AAC?$AA_?$AAI?$AAO?$AAC?$AAT?$AAL?$AA_?$AAS?$AAE?$AAT?$AA_?$AAS?$AAY?$AAS?$AAT?$AAE?$AAM?$AA_?$AAF?$AAA?$AAV?$AAO?$AAR?$AAI?$AAT?$AAE?$AA_?$AAV?$AAO?$AAL@FNODOBFM@ ;  ?? ::FNODOBFM::`string'
PUBLIC	??_C@_1EC@FGBEDIDI@?$AAT?$AAC?$AA_?$AAI?$AAO?$AAC?$AAT?$AAL?$AA_?$AAS?$AAT?$AAA?$AAR?$AAT?$AA_?$AAD?$AAE?$AAC?$AAO?$AAY?$AA_?$AAS?$AAY?$AAS?$AAT?$AAE?$AAM?$AA_?$AAW?$AAI?$AAP?$AAE@FNODOBFM@ ;  ?? ::FNODOBFM::`string'
PUBLIC	??_C@_1DK@BNKDMLAM@?$AAT?$AAC?$AA_?$AAI?$AAO?$AAC?$AAT?$AAL?$AA_?$AAW?$AAI?$AAP?$AAE?$AA_?$AAP?$AAA?$AAS?$AAS?$AAW?$AAO?$AAR?$AAD?$AA_?$AAC?$AAA?$AAC?$AAH?$AAE?$AA?$AA@FNODOBFM@ ;  ?? ::FNODOBFM::`string'
PUBLIC	??_C@_1EC@FOOPNHFI@?$AAT?$AAC?$AA_?$AAI?$AAO?$AAC?$AAT?$AAL?$AA_?$AAW?$AAR?$AAI?$AAT?$AAE?$AA_?$AAB?$AAO?$AAO?$AAT?$AA_?$AAD?$AAR?$AAI?$AAV?$AAE?$AA_?$AAS?$AAE?$AAC?$AAT?$AAO?$AAR@FNODOBFM@ ;  ?? ::FNODOBFM::`string'
PUBLIC	??_C@_1EK@FDCJEFAP@?$AAI?$AAO?$AAC?$AAT?$AAL?$AA_?$AAV?$AAO?$AAL?$AAU?$AAM?$AAE?$AA_?$AAG?$AAE?$AAT?$AA_?$AAV?$AAO?$AAL?$AAU?$AAM?$AAE?$AA_?$AAD?$AAI?$AAS?$AAK?$AA_?$AAE?$AAX?$AAT@FNODOBFM@ ;  ?? ::FNODOBFM::`string'
PUBLIC	??_C@_1DM@KPKDNCHM@?$AAI?$AAO?$AAC?$AAT?$AAL?$AA_?$AAD?$AAI?$AAS?$AAK?$AA_?$AAG?$AAE?$AAT?$AA_?$AAD?$AAR?$AAI?$AAV?$AAE?$AA_?$AAG?$AAE?$AAO?$AAM?$AAE?$AAT?$AAR?$AAY?$AA?$AA@FNODOBFM@ ;  ?? ::FNODOBFM::`string'
PUBLIC	??_C@_1EC@NPAFBAMN@?$AAI?$AAO?$AAC?$AAT?$AAL?$AA_?$AAD?$AAI?$AAS?$AAK?$AA_?$AAG?$AAE?$AAT?$AA_?$AAD?$AAR?$AAI?$AAV?$AAE?$AA_?$AAG?$AAE?$AAO?$AAM?$AAE?$AAT?$AAR?$AAY?$AA_?$AAE?$AAX@FNODOBFM@ ;  ?? ::FNODOBFM::`string'
PUBLIC	??_C@_1EC@HFOIOEOM@?$AAI?$AAO?$AAC?$AAT?$AAL?$AA_?$AAM?$AAO?$AAU?$AAN?$AAT?$AAD?$AAE?$AAV?$AA_?$AAQ?$AAU?$AAE?$AAR?$AAY?$AA_?$AAD?$AAE?$AAV?$AAI?$AAC?$AAE?$AA_?$AAN?$AAA?$AAM?$AAE@FNODOBFM@ ;  ?? ::FNODOBFM::`string'
PUBLIC	??_C@_1FC@MNMCPAAJ@?$AAI?$AAO?$AAC?$AAT?$AAL?$AA_?$AAM?$AAO?$AAU?$AAN?$AAT?$AAD?$AAE?$AAV?$AA_?$AAQ?$AAU?$AAE?$AAR?$AAY?$AA_?$AAS?$AAU?$AAG?$AAG?$AAE?$AAS?$AAT?$AAE?$AAD?$AA_?$AAL@FNODOBFM@ ;  ?? ::FNODOBFM::`string'
PUBLIC	??_C@_1DO@OGNDJPNH@?$AAI?$AAO?$AAC?$AAT?$AAL?$AA_?$AAM?$AAO?$AAU?$AAN?$AAT?$AAD?$AAE?$AAV?$AA_?$AAQ?$AAU?$AAE?$AAR?$AAY?$AA_?$AAU?$AAN?$AAI?$AAQ?$AAU?$AAE?$AA_?$AAI?$AAD?$AA?$AA@FNODOBFM@ ;  ?? ::FNODOBFM::`string'
PUBLIC	??_C@_1CI@DJEMJCBH@?$AAI?$AAO?$AAC?$AAT?$AAL?$AA_?$AAV?$AAO?$AAL?$AAU?$AAM?$AAE?$AA_?$AAO?$AAN?$AAL?$AAI?$AAN?$AAE?$AA?$AA@FNODOBFM@ ;  ?? ::FNODOBFM::`string'
PUBLIC	??_C@_1DI@HGGIOGFM@?$AAI?$AAO?$AAC?$AAT?$AAL?$AA_?$AAM?$AAO?$AAU?$AAN?$AAT?$AAD?$AAE?$AAV?$AA_?$AAL?$AAI?$AAN?$AAK?$AA_?$AAC?$AAR?$AAE?$AAA?$AAT?$AAE?$AAD?$AA?$AA@FNODOBFM@ ;  ?? ::FNODOBFM::`string'
PUBLIC	??_C@_1DI@BMKMBCGO@?$AAI?$AAO?$AAC?$AAT?$AAL?$AA_?$AAM?$AAO?$AAU?$AAN?$AAT?$AAD?$AAE?$AAV?$AA_?$AAL?$AAI?$AAN?$AAK?$AA_?$AAD?$AAE?$AAL?$AAE?$AAT?$AAE?$AAD?$AA?$AA@FNODOBFM@ ;  ?? ::FNODOBFM::`string'
PUBLIC	??_C@_1DI@LFNEEBHO@?$AAI?$AAO?$AAC?$AAT?$AAL?$AA_?$AAM?$AAO?$AAU?$AAN?$AAT?$AAM?$AAG?$AAR?$AA_?$AAQ?$AAU?$AAE?$AAR?$AAY?$AA_?$AAP?$AAO?$AAI?$AAN?$AAT?$AAS?$AA?$AA@FNODOBFM@ ;  ?? ::FNODOBFM::`string'
PUBLIC	??_C@_1FE@CLAOKMGL@?$AAI?$AAO?$AAC?$AAT?$AAL?$AA_?$AAM?$AAO?$AAU?$AAN?$AAT?$AAM?$AAG?$AAR?$AA_?$AAV?$AAO?$AAL?$AAU?$AAM?$AAE?$AA_?$AAM?$AAO?$AAU?$AAN?$AAT?$AA_?$AAP?$AAO?$AAI?$AAN@FNODOBFM@ ;  ?? ::FNODOBFM::`string'
PUBLIC	??_C@_1FE@EBMKFIFJ@?$AAI?$AAO?$AAC?$AAT?$AAL?$AA_?$AAM?$AAO?$AAU?$AAN?$AAT?$AAM?$AAG?$AAR?$AA_?$AAV?$AAO?$AAL?$AAU?$AAM?$AAE?$AA_?$AAM?$AAO?$AAU?$AAN?$AAT?$AA_?$AAP?$AAO?$AAI?$AAN@FNODOBFM@ ;  ?? ::FNODOBFM::`string'
PUBLIC	??_C@_1DG@DLDFECDE@?$AAI?$AAO?$AAC?$AAT?$AAL?$AA_?$AAD?$AAI?$AAS?$AAK?$AA_?$AAG?$AAE?$AAT?$AA_?$AAL?$AAE?$AAN?$AAG?$AAT?$AAH?$AA_?$AAI?$AAN?$AAF?$AAO?$AA?$AA@FNODOBFM@ ;  ?? ::FNODOBFM::`string'
PUBLIC	??_C@_1EA@IKPNDHCL@?$AAI?$AAO?$AAC?$AAT?$AAL?$AA_?$AAS?$AAT?$AAO?$AAR?$AAA?$AAG?$AAE?$AA_?$AAG?$AAE?$AAT?$AA_?$AAD?$AAE?$AAV?$AAI?$AAC?$AAE?$AA_?$AAN?$AAU?$AAM?$AAB?$AAE?$AAR?$AA?$AA@FNODOBFM@ ;  ?? ::FNODOBFM::`string'
PUBLIC	??_C@_1DM@LOAKHCPB@?$AAI?$AAO?$AAC?$AAT?$AAL?$AA_?$AAD?$AAI?$AAS?$AAK?$AA_?$AAG?$AAE?$AAT?$AA_?$AAP?$AAA?$AAR?$AAT?$AAI?$AAT?$AAI?$AAO?$AAN?$AA_?$AAI?$AAN?$AAF?$AAO?$AA?$AA@FNODOBFM@ ;  ?? ::FNODOBFM::`string'
PUBLIC	??_C@_1EC@CAILBHJF@?$AAI?$AAO?$AAC?$AAT?$AAL?$AA_?$AAD?$AAI?$AAS?$AAK?$AA_?$AAG?$AAE?$AAT?$AA_?$AAP?$AAA?$AAR?$AAT?$AAI?$AAT?$AAI?$AAO?$AAN?$AA_?$AAI?$AAN?$AAF?$AAO?$AA_?$AAE?$AAX@FNODOBFM@ ;  ?? ::FNODOBFM::`string'
PUBLIC	??_C@_1DM@FAAIHMNH@?$AAI?$AAO?$AAC?$AAT?$AAL?$AA_?$AAD?$AAI?$AAS?$AAK?$AA_?$AAS?$AAE?$AAT?$AA_?$AAP?$AAA?$AAR?$AAT?$AAI?$AAT?$AAI?$AAO?$AAN?$AA_?$AAI?$AAN?$AAF?$AAO?$AA?$AA@FNODOBFM@ ;  ?? ::FNODOBFM::`string'
PUBLIC	??_C@_1DI@CCDFFIEC@?$AAI?$AAO?$AAC?$AAT?$AAL?$AA_?$AAD?$AAI?$AAS?$AAK?$AA_?$AAG?$AAE?$AAT?$AA_?$AAD?$AAR?$AAI?$AAV?$AAE?$AA_?$AAL?$AAA?$AAY?$AAO?$AAU?$AAT?$AA?$AA@FNODOBFM@ ;  ?? ::FNODOBFM::`string'
PUBLIC	??_C@_1DO@EPIDKIKJ@?$AAI?$AAO?$AAC?$AAT?$AAL?$AA_?$AAD?$AAI?$AAS?$AAK?$AA_?$AAS?$AAE?$AAT?$AA_?$AAD?$AAR?$AAI?$AAV?$AAE?$AA_?$AAL?$AAA?$AAY?$AAO?$AAU?$AAT?$AA_?$AAE?$AAX?$AA?$AA@FNODOBFM@ ;  ?? ::FNODOBFM::`string'
PUBLIC	??_C@_1CE@LGEELOJE@?$AAI?$AAO?$AAC?$AAT?$AAL?$AA_?$AAD?$AAI?$AAS?$AAK?$AA_?$AAV?$AAE?$AAR?$AAI?$AAF?$AAY?$AA?$AA@FNODOBFM@ ;  ?? ::FNODOBFM::`string'
PUBLIC	??_C@_1DC@PCKIDBBB@?$AAI?$AAO?$AAC?$AAT?$AAL?$AA_?$AAD?$AAI?$AAS?$AAK?$AA_?$AAF?$AAO?$AAR?$AAM?$AAA?$AAT?$AA_?$AAT?$AAR?$AAA?$AAC?$AAK?$AAS?$AA?$AA@FNODOBFM@ ;  ?? ::FNODOBFM::`string'
PUBLIC	??_C@_1DG@HPLPDECO@?$AAI?$AAO?$AAC?$AAT?$AAL?$AA_?$AAD?$AAI?$AAS?$AAK?$AA_?$AAR?$AAE?$AAA?$AAS?$AAS?$AAI?$AAG?$AAN?$AA_?$AAB?$AAL?$AAO?$AAC?$AAK?$AAS?$AA?$AA@FNODOBFM@ ;  ?? ::FNODOBFM::`string'
PUBLIC	??_C@_1CO@LEDAJMII@?$AAI?$AAO?$AAC?$AAT?$AAL?$AA_?$AAD?$AAI?$AAS?$AAK?$AA_?$AAP?$AAE?$AAR?$AAF?$AAO?$AAR?$AAM?$AAA?$AAN?$AAC?$AAE?$AA?$AA@FNODOBFM@ ;  ?? ::FNODOBFM::`string'
PUBLIC	??_C@_1CO@MFHKENAI@?$AAI?$AAO?$AAC?$AAT?$AAL?$AA_?$AAD?$AAI?$AAS?$AAK?$AA_?$AAI?$AAS?$AA_?$AAW?$AAR?$AAI?$AAT?$AAA?$AAB?$AAL?$AAE?$AA?$AA@FNODOBFM@ ;  ?? ::FNODOBFM::`string'
PUBLIC	??_C@_1CG@LCBFNDKM@?$AAI?$AAO?$AAC?$AAT?$AAL?$AA_?$AAD?$AAI?$AAS?$AAK?$AA_?$AAL?$AAO?$AAG?$AAG?$AAI?$AAN?$AAG?$AA?$AA@FNODOBFM@ ;  ?? ::FNODOBFM::`string'
PUBLIC	??_C@_1DI@LHHOILKE@?$AAI?$AAO?$AAC?$AAT?$AAL?$AA_?$AAD?$AAI?$AAS?$AAK?$AA_?$AAF?$AAO?$AAR?$AAM?$AAA?$AAT?$AA_?$AAT?$AAR?$AAA?$AAC?$AAK?$AAS?$AA_?$AAE?$AAX?$AA?$AA@FNODOBFM@ ;  ?? ::FNODOBFM::`string'
PUBLIC	??_C@_1DO@JMICENAF@?$AAI?$AAO?$AAC?$AAT?$AAL?$AA_?$AAD?$AAI?$AAS?$AAK?$AA_?$AAH?$AAI?$AAS?$AAT?$AAO?$AAG?$AAR?$AAA?$AAM?$AA_?$AAS?$AAT?$AAR?$AAU?$AAC?$AAT?$AAU?$AAR?$AAE?$AA?$AA@FNODOBFM@ ;  ?? ::FNODOBFM::`string'
PUBLIC	??_C@_1DE@OGHADOL@?$AAI?$AAO?$AAC?$AAT?$AAL?$AA_?$AAD?$AAI?$AAS?$AAK?$AA_?$AAH?$AAI?$AAS?$AAT?$AAO?$AAG?$AAR?$AAA?$AAM?$AA_?$AAD?$AAA?$AAT?$AAA?$AA?$AA@FNODOBFM@ ;  ?? ::FNODOBFM::`string'
PUBLIC	??_C@_1DG@BLHGEOGG@?$AAI?$AAO?$AAC?$AAT?$AAL?$AA_?$AAD?$AAI?$AAS?$AAK?$AA_?$AAH?$AAI?$AAS?$AAT?$AAO?$AAG?$AAR?$AAA?$AAM?$AA_?$AAR?$AAE?$AAS?$AAE?$AAT?$AA?$AA@FNODOBFM@ ;  ?? ::FNODOBFM::`string'
PUBLIC	??_C@_1DK@EFIEFEEG@?$AAI?$AAO?$AAC?$AAT?$AAL?$AA_?$AAD?$AAI?$AAS?$AAK?$AA_?$AAR?$AAE?$AAQ?$AAU?$AAE?$AAS?$AAT?$AA_?$AAS?$AAT?$AAR?$AAU?$AAC?$AAT?$AAU?$AAR?$AAE?$AA?$AA@FNODOBFM@ ;  ?? ::FNODOBFM::`string'
PUBLIC	??_C@_1DA@EGLLKJNO@?$AAI?$AAO?$AAC?$AAT?$AAL?$AA_?$AAD?$AAI?$AAS?$AAK?$AA_?$AAR?$AAE?$AAQ?$AAU?$AAE?$AAS?$AAT?$AA_?$AAD?$AAA?$AAT?$AAA?$AA?$AA@FNODOBFM@ ;  ?? ::FNODOBFM::`string'
PUBLIC	??_C@_1DK@NNJOEKIN@?$AAI?$AAO?$AAC?$AAT?$AAL?$AA_?$AAD?$AAI?$AAS?$AAK?$AA_?$AAC?$AAO?$AAN?$AAT?$AAR?$AAO?$AAL?$AAL?$AAE?$AAR?$AA_?$AAN?$AAU?$AAM?$AAB?$AAE?$AAR?$AA?$AA@FNODOBFM@ ;  ?? ::FNODOBFM::`string'
PUBLIC	??_C@_1CE@PLNOGJJD@?$AAS?$AAM?$AAA?$AAR?$AAT?$AA_?$AAG?$AAE?$AAT?$AA_?$AAV?$AAE?$AAR?$AAS?$AAI?$AAO?$AAN?$AA?$AA@FNODOBFM@ ;  ?? ::FNODOBFM::`string'
PUBLIC	??_C@_1DC@MGFPICHJ@?$AAS?$AAM?$AAA?$AAR?$AAT?$AA_?$AAS?$AAE?$AAN?$AAD?$AA_?$AAD?$AAR?$AAI?$AAV?$AAE?$AA_?$AAC?$AAO?$AAM?$AAM?$AAA?$AAN?$AAD?$AA?$AA@FNODOBFM@ ;  ?? ::FNODOBFM::`string'
PUBLIC	??_C@_1CK@JCHEBCIE@?$AAS?$AAM?$AAA?$AAR?$AAT?$AA_?$AAR?$AAC?$AAV?$AA_?$AAD?$AAR?$AAI?$AAV?$AAE?$AA_?$AAD?$AAA?$AAT?$AAA?$AA?$AA@FNODOBFM@ ;  ?? ::FNODOBFM::`string'
PUBLIC	??_C@_1DO@JKPDDEIN@?$AAI?$AAO?$AAC?$AAT?$AAL?$AA_?$AAD?$AAI?$AAS?$AAK?$AA_?$AAI?$AAN?$AAT?$AAE?$AAR?$AAN?$AAA?$AAL?$AA_?$AAS?$AAE?$AAT?$AA_?$AAV?$AAE?$AAR?$AAI?$AAF?$AAY?$AA?$AA@FNODOBFM@ ;  ?? ::FNODOBFM::`string'
PUBLIC	??_C@_1EC@JFOBAPGC@?$AAI?$AAO?$AAC?$AAT?$AAL?$AA_?$AAD?$AAI?$AAS?$AAK?$AA_?$AAI?$AAN?$AAT?$AAE?$AAR?$AAN?$AAA?$AAL?$AA_?$AAC?$AAL?$AAE?$AAA?$AAR?$AA_?$AAV?$AAE?$AAR?$AAI?$AAF?$AAY@FNODOBFM@ ;  ?? ::FNODOBFM::`string'
PUBLIC	??_C@_1DA@DLMBEKMN@?$AAI?$AAO?$AAC?$AAT?$AAL?$AA_?$AAD?$AAI?$AAS?$AAK?$AA_?$AAC?$AAH?$AAE?$AAC?$AAK?$AA_?$AAV?$AAE?$AAR?$AAI?$AAF?$AAY?$AA?$AA@FNODOBFM@ ;  ?? ::FNODOBFM::`string'
PUBLIC	??_C@_1DC@NMJCPDJD@?$AAI?$AAO?$AAC?$AAT?$AAL?$AA_?$AAD?$AAI?$AAS?$AAK?$AA_?$AAM?$AAE?$AAD?$AAI?$AAA?$AA_?$AAR?$AAE?$AAM?$AAO?$AAV?$AAA?$AAL?$AA?$AA@FNODOBFM@ ;  ?? ::FNODOBFM::`string'
PUBLIC	??_C@_1CO@KHEOABCH@?$AAI?$AAO?$AAC?$AAT?$AAL?$AA_?$AAD?$AAI?$AAS?$AAK?$AA_?$AAE?$AAJ?$AAE?$AAC?$AAT?$AA_?$AAM?$AAE?$AAD?$AAI?$AAA?$AA?$AA@FNODOBFM@ ;  ?? ::FNODOBFM::`string'
PUBLIC	??_C@_1CM@GNBBIMEE@?$AAI?$AAO?$AAC?$AAT?$AAL?$AA_?$AAD?$AAI?$AAS?$AAK?$AA_?$AAL?$AAO?$AAA?$AAD?$AA_?$AAM?$AAE?$AAD?$AAI?$AAA?$AA?$AA@FNODOBFM@ ;  ?? ::FNODOBFM::`string'
PUBLIC	??_C@_1CG@MJDBKCLM@?$AAI?$AAO?$AAC?$AAT?$AAL?$AA_?$AAD?$AAI?$AAS?$AAK?$AA_?$AAR?$AAE?$AAS?$AAE?$AAR?$AAV?$AAE?$AA?$AA@FNODOBFM@ ;  ?? ::FNODOBFM::`string'
PUBLIC	??_C@_1CG@BFEEHHEK@?$AAI?$AAO?$AAC?$AAT?$AAL?$AA_?$AAD?$AAI?$AAS?$AAK?$AA_?$AAR?$AAE?$AAL?$AAE?$AAA?$AAS?$AAE?$AA?$AA@FNODOBFM@ ;  ?? ::FNODOBFM::`string'
PUBLIC	??_C@_1DI@EBJJOMKC@?$AAI?$AAO?$AAC?$AAT?$AAL?$AA_?$AAD?$AAI?$AAS?$AAK?$AA_?$AAF?$AAI?$AAN?$AAD?$AA_?$AAN?$AAE?$AAW?$AA_?$AAD?$AAE?$AAV?$AAI?$AAC?$AAE?$AAS?$AA?$AA@FNODOBFM@ ;  ?? ::FNODOBFM::`string'
PUBLIC	??_C@_1DG@MIHPHMPG@?$AAI?$AAO?$AAC?$AAT?$AAL?$AA_?$AAD?$AAI?$AAS?$AAK?$AA_?$AAG?$AAE?$AAT?$AA_?$AAM?$AAE?$AAD?$AAI?$AAA?$AA_?$AAT?$AAY?$AAP?$AAE?$AAS?$AA?$AA@FNODOBFM@ ;  ?? ::FNODOBFM::`string'
PUBLIC	??_C@_1DO@MEELNMKF@?$AAI?$AAO?$AAC?$AAT?$AAL?$AA_?$AAS?$AAT?$AAO?$AAR?$AAA?$AAG?$AAE?$AA_?$AAS?$AAE?$AAT?$AA_?$AAH?$AAO?$AAT?$AAP?$AAL?$AAU?$AAG?$AA_?$AAI?$AAN?$AAF?$AAO?$AA?$AA@FNODOBFM@ ;  ?? ::FNODOBFM::`string'
PUBLIC	??_C@_1BI@CFPHGFDN@?$AAI?$AAR?$AAP?$AA_?$AAM?$AAJ?$AA_?$AAR?$AAE?$AAA?$AAD?$AA?$AA@FNODOBFM@ ;  ?? ::FNODOBFM::`string'
PUBLIC	??_C@_1BK@HGBIKEDO@?$AAI?$AAR?$AAP?$AA_?$AAM?$AAJ?$AA_?$AAW?$AAR?$AAI?$AAT?$AAE?$AA?$AA@FNODOBFM@ ;  ?? ::FNODOBFM::`string'
PUBLIC	??_C@_1BM@KFEHBPBD@?$AAI?$AAR?$AAP?$AA_?$AAM?$AAJ?$AA_?$AAC?$AAR?$AAE?$AAA?$AAT?$AAE?$AA?$AA@FNODOBFM@ ;  ?? ::FNODOBFM::`string'
PUBLIC	??_C@_1BK@JLALPKNJ@?$AAI?$AAR?$AAP?$AA_?$AAM?$AAJ?$AA_?$AAC?$AAL?$AAO?$AAS?$AAE?$AA?$AA@FNODOBFM@ ;  ?? ::FNODOBFM::`string'
PUBLIC	??_C@_1BO@GEGOKABG@?$AAI?$AAR?$AAP?$AA_?$AAM?$AAJ?$AA_?$AAC?$AAL?$AAE?$AAA?$AAN?$AAU?$AAP?$AA?$AA@FNODOBFM@ ;  ?? ::FNODOBFM::`string'
PUBLIC	??_C@_1CK@MCKHKFDD@?$AAI?$AAR?$AAP?$AA_?$AAM?$AAJ?$AA_?$AAF?$AAL?$AAU?$AAS?$AAH?$AA_?$AAB?$AAU?$AAF?$AAF?$AAE?$AAR?$AAS?$AA?$AA@FNODOBFM@ ;  ?? ::FNODOBFM::`string'
PUBLIC	??_C@_1CA@FOECGGNC@?$AAI?$AAR?$AAP?$AA_?$AAM?$AAJ?$AA_?$AAS?$AAH?$AAU?$AAT?$AAD?$AAO?$AAW?$AAN?$AA?$AA@FNODOBFM@ ;  ?? ::FNODOBFM::`string'
PUBLIC	??_C@_1CM@DKLAEDLO@?$AAI?$AAR?$AAP?$AA_?$AAM?$AAJ?$AA_?$AAD?$AAE?$AAV?$AAI?$AAC?$AAE?$AA_?$AAC?$AAO?$AAN?$AAT?$AAR?$AAO?$AAL?$AA?$AA@FNODOBFM@ ;  ?? ::FNODOBFM::`string'
PUBLIC	??_C@_1M@KHJOIALG@?$AAI?$AAO?$AAC?$AAT?$AAL?$AA?$AA@FNODOBFM@ ;  ?? ::FNODOBFM::`string'
PUBLIC	??_C@_0BM@GNHEHBJH@TCDeleteDeviceObject?5BEGIN?6?$AA@FNODOBFM@ ;  ?? ::FNODOBFM::`string'
PUBLIC	??_C@_1CM@KJDLPNIG@?$AA?2?$AAD?$AAo?$AAs?$AAD?$AAe?$AAv?$AAi?$AAc?$AAe?$AAs?$AA?2?$AAT?$AAr?$AAu?$AAe?$AAC?$AAr?$AAy?$AAp?$AAt?$AA?$AA@FNODOBFM@ ;  ?? ::FNODOBFM::`string'
PUBLIC	??_C@_0CP@NIIDLADO@IoDeleteSymbolicLink?5failed?5ntSt@FNODOBFM@ ;  ?? ::FNODOBFM::`string'
PUBLIC	??_C@_1EA@FPAPEGHJ@?$AAP?$AAs?$AAD?$AAe?$AAr?$AAe?$AAf?$AAe?$AAr?$AAe?$AAn?$AAc?$AAe?$AAI?$AAm?$AAp?$AAe?$AAr?$AAs?$AAo?$AAn?$AAa?$AAt?$AAi?$AAo?$AAn?$AAT?$AAo?$AAk?$AAe?$AAn?$AA?$AA@FNODOBFM@ ;  ?? ::FNODOBFM::`string'
PUBLIC	??_C@_0BK@EIFNDPP@TCDeleteDeviceObject?5END?6?$AA@FNODOBFM@ ;  ?? ::FNODOBFM::`string'
PUBLIC	??_C@_0BG@MGFDNIAG@TCUnloadDriver?5BEGIN?6?$AA@FNODOBFM@ ;  ?? ::FNODOBFM::`string'
PUBLIC	??_C@_0BE@CJGLKHCK@TCUnloadDriver?5END?6?$AA@FNODOBFM@ ;  ?? ::FNODOBFM::`string'
PUBLIC	??_C@_0BH@BPCEMJJB@IRP?5allocation?5failed?6?$AA@FNODOBFM@ ;  ?? ::FNODOBFM::`string'
PUBLIC	??_C@_0CF@BFNPLHIK@Failed?5to?5get?5drive?5size?5?9?5error@FNODOBFM@ ;  ?? ::FNODOBFM::`string'
PUBLIC	??_C@_0CO@FHHNLLNJ@Real?5drive?5size?5?$DN?5?$CFI64d?5bytes?5?$CI?$CF@FNODOBFM@ ;  ?? ::FNODOBFM::`string'
PUBLIC	??_C@_0CB@JIDCFMLM@Volume?5?$CFls?5open?5NTSTATUS?50x?$CF08x?6@FNODOBFM@ ;  ?? ::FNODOBFM::`string'
PUBLIC	??_C@_0CA@MOHACMBH@KeGetCurrentIrql?$CI?$CJ?5?$DM?$DN?5APC_LEVEL?$AA@FNODOBFM@ ;  ?? ::FNODOBFM::`string'
PUBLIC	??_C@_0CC@INHNDJGI@IoCreateSymbolicLink?5returned?5?$CFX@FNODOBFM@ ;  ?? ::FNODOBFM::`string'
PUBLIC	??_C@_0CC@KAFJKDAC@IoDeleteSymbolicLink?5returned?5?$CFX@FNODOBFM@ ;  ?? ::FNODOBFM::`string'
PUBLIC	??_C@_1DE@MJJBHHAG@?$AA?2?$AAD?$AAe?$AAv?$AAi?$AAc?$AAe?$AA?2?$AAM?$AAo?$AAu?$AAn?$AAt?$AAP?$AAo?$AAi?$AAn?$AAt?$AAM?$AAa?$AAn?$AAa?$AAg?$AAe?$AAr?$AA?$AA@FNODOBFM@ ;  ?? ::FNODOBFM::`string'
PUBLIC	??_C@_0CO@FHIENMIJ@IOCTL_MOUNTMGR_DELETE_POINTS?5ret@FNODOBFM@ ;  ?? ::FNODOBFM::`string'
PUBLIC	??_C@_0BL@PIKDDHEP@Mount?5request?5looks?5valid?6?$AA@FNODOBFM@ ;  ?? ::FNODOBFM::`string'
PUBLIC	??_C@_0CF@CGPMKDKJ@WARNING?3?5MOUNT?5DRIVE?5LETTER?5INVA@FNODOBFM@ ;  ?? ::FNODOBFM::`string'
PUBLIC	??_C@_0CO@NNHGPFIJ@Mount?5CREATE?5DEVICE?5ERROR?0?5ntSta@FNODOBFM@ ;  ?? ::FNODOBFM::`string'
PUBLIC	??_C@_0CL@KIIHMHE@Mount?5FAILURE?5NT?5ERROR?0?5ntStatus@FNODOBFM@ ;  ?? ::FNODOBFM::`string'
PUBLIC	??_C@_0CP@DBOFILAH@Mount?5SUCCESS?5TC?5code?5?$DN?50x?$CF08x?5R@FNODOBFM@ ;  ?? ::FNODOBFM::`string'
PUBLIC	??_C@_0CA@IJMBHFOD@Mount?5FAILURE?5TC?5code?5?$DN?50x?$CF08x?6?$AA@FNODOBFM@ ;  ?? ::FNODOBFM::`string'
PUBLIC	??_C@_0BC@FNOALNCB@UnmountDevice?5?$CFd?6?$AA@FNODOBFM@ ;  ?? ::FNODOBFM::`string'
PUBLIC	??_C@_0BP@EOHNIHMK@FSCTL_LOCK_VOLUME?5returned?5?$CFX?6?$AA@FNODOBFM@ ;  ?? ::FNODOBFM::`string'
PUBLIC	??_C@_0CD@FFMFJFAI@FSCTL_DISMOUNT_VOLUME?5returned?5?$CF@FNODOBFM@ ;  ?? ::FNODOBFM::`string'
PUBLIC	??_C@_0BI@OJEECLJN@Unmounting?5all?5volumes?6?$AA@FNODOBFM@ ;  ?? ::FNODOBFM::`string'
PUBLIC	??_C@_0CJ@KBGIGBCB@?$CBIoIsSystemThread?5?$CIPsGetCurrentT@FNODOBFM@ ;  ?? ::FNODOBFM::`string'
PUBLIC	??_C@_0BK@BGEEJMHD@?$CImaxSizeInBytes?5?$CG?51?$CJ?5?$DN?$DN?50?$AA@FNODOBFM@ ;  ?? ::FNODOBFM::`string'
PUBLIC	??_C@_0CI@OFAMGLPO@retryDelay?5?$DO?50?5?$CG?$CG?5retryDelay?5?$DM?$DN?5@FNODOBFM@ ;  ?? ::FNODOBFM::`string'
PUBLIC	??_C@_1MA@BNNNAGDA@?$AA?2?$AAR?$AAE?$AAG?$AAI?$AAS?$AAT?$AAR?$AAY?$AA?2?$AAM?$AAA?$AAC?$AAH?$AAI?$AAN?$AAE?$AA?2?$AAS?$AAY?$AAS?$AAT?$AAE?$AAM?$AA?2?$AAC?$AAu?$AAr?$AAr?$AAe?$AAn?$AAt@FNODOBFM@ ;  ?? ::FNODOBFM::`string'
PUBLIC	??_C@_1BK@FNJCPENK@?$AAU?$AAp?$AAp?$AAe?$AAr?$AAF?$AAi?$AAl?$AAt?$AAe?$AAr?$AAs?$AA?$AA@FNODOBFM@ ;  ?? ::FNODOBFM::`string'
PUBLIC	??_C@_1BE@OBOIPPHP@?$AAt?$AAr?$AAu?$AAe?$AAc?$AAr?$AAy?$AAp?$AAt?$AA?$AA@FNODOBFM@ ;  ?? ::FNODOBFM::`string'
PUBLIC	??_C@_0BM@GOBMMLHF@Volume?5class?5filter?5active?6?$AA@FNODOBFM@ ;  ?? ::FNODOBFM::`string'
PUBLIC	??_C@_1HM@GLBNDPGI@?$AA?2?$AAR?$AAE?$AAG?$AAI?$AAS?$AAT?$AAR?$AAY?$AA?2?$AAM?$AAA?$AAC?$AAH?$AAI?$AAN?$AAE?$AA?2?$AAS?$AAY?$AAS?$AAT?$AAE?$AAM?$AA?2?$AAC?$AAu?$AAr?$AAr?$AAe?$AAn?$AAt@FNODOBFM@ ;  ?? ::FNODOBFM::`string'
PUBLIC	??_C@_1CA@LGEHFLCO@?$AAT?$AAr?$AAu?$AAe?$AAC?$AAr?$AAy?$AAp?$AAt?$AAC?$AAo?$AAn?$AAf?$AAi?$AAg?$AA?$AA@FNODOBFM@ ;  ?? ::FNODOBFM::`string'
PUBLIC	??_C@_0BM@LHOAOPML@Configuration?5flags?5?$DN?50x?$CFx?6?$AA@FNODOBFM@ ;  ?? ::FNODOBFM::`string'
PUBLIC	??_C@_1EA@CEOJFLPD@?$AAT?$AAr?$AAu?$AAe?$AAC?$AAr?$AAy?$AAp?$AAt?$AAE?$AAn?$AAc?$AAr?$AAy?$AAp?$AAt?$AAi?$AAo?$AAn?$AAF?$AAr?$AAe?$AAe?$AAC?$AAp?$AAu?$AAC?$AAo?$AAu?$AAn?$AAt?$AA?$AA@FNODOBFM@ ;  ?? ::FNODOBFM::`string'
PUBLIC	??_C@_0BJ@BHMICMIC@Zeroing?5sector?5at?5?$CFI64d?6?$AA@FNODOBFM@ ;  ?? ::FNODOBFM::`string'
PUBLIC	??_C@_0BO@NFNIJFEK@Skipping?5bad?5sector?5at?5?$CFI64d?6?$AA@FNODOBFM@ ;  ?? ::FNODOBFM::`string'
PUBLIC	??_C@_0BE@JBJOLBIB@OsMajorVersion?5?$CB?$DN?50?$AA@FNODOBFM@ ;  ?? ::FNODOBFM::`string'
EXTRN	__imp_PsGetVersion:PROC
EXTRN	__imp_IoGetDeviceInterfaces:PROC
EXTRN	__imp_ObQueryNameString:PROC
EXTRN	GUID_DEVINTERFACE_VOLUME:BYTE
EXTRN	__imp_IoRegisterShutdownNotification:PROC
EXTRN	__imp_KeInitializeSemaphore:PROC
EXTRN	__imp_IoEnumerateDeviceObjectList:PROC
EXTRN	__imp_ObOpenObjectByPointer:PROC
EXTRN	__imp_PsCreateSystemThread:PROC
EXTRN	__imp_SeCreateClientSecurity:PROC
EXTRN	__imp_KeReleaseSemaphore:PROC
EXTRN	__imp_KeInitializeTimerEx:PROC
EXTRN	__imp_KeSetTimerEx:PROC
EXTRN	__imp_wcsncat:PROC
EXTRN	__imp_MmGetSystemRoutineAddress:PROC
EXTRN	__imp_SeTokenType:PROC
EXTRN	__imp_IoGetDeviceObjectPointer:PROC
EXTRN	__imp_ObReferenceObjectByHandle:PROC
EXTRN	__imp_IoBuildSynchronousFsdRequest:PROC
EXTRN	__imp_ObfReferenceObject:PROC
EXTRN	__imp_IoBuildDeviceIoControlRequest:PROC
EXTRN	__imp_IoGetRelatedDeviceObject:PROC
EXTRN	__imp_IoCreateSymbolicLink:PROC
EXTRN	__imp_IoDeleteSymbolicLink:PROC
EXTRN	__imp_RtlLengthSid:PROC
EXTRN	__imp_RtlCopySid:PROC
EXTRN	__imp_ZwQuerySymbolicLinkObject:PROC
EXTRN	__imp_ZwCreateFile:PROC
EXTRN	__imp_ZwOpenSymbolicLinkObject:PROC
EXTRN	__imp_IofCompleteRequest:PROC
EXTRN	__imp_KeQueryActiveProcessors:PROC
EXTRN	__imp_KeDelayExecutionThread:PROC
EXTRN	__imp_ZwQueryValueKey:PROC
EXTRN	__imp_ZwClose:PROC
EXTRN	__imp_ZwOpenKey:PROC
EXTRN	__imp_ZwSetValueKey:PROC
EXTRN	__imp_RtlInitUnicodeString:PROC
EXTRN	__imp_SeCaptureSubjectContext:PROC
EXTRN	__imp_SeLockSubjectContext:PROC
EXTRN	__imp_SeUnlockSubjectContext:PROC
EXTRN	__imp_SeReleaseSubjectContext:PROC
EXTRN	__imp_RtlEqualSid:PROC
EXTRN	__imp_SeTokenIsAdmin:PROC
EXTRN	__imp_SeQueryInformationToken:PROC
EXTRN	__imp_KeQueryPerformanceCounter:PROC
COMM	VirtualVolumeDeviceObjects:QWORD:01aH
COMM	TCDriverObject:QWORD
COMM	LastUniqueVolumeId:DWORD
COMM	OsMinorVersion:DWORD
COMM	SelfTestsPassed:DWORD
RootDeviceObject DQ 01H DUP (?)
DriverShuttingDown DD 01H DUP (?)
OsMajorVersion DD 01H DUP (?)
DriverUnloadDisabled DD 01H DUP (?)
PortableMode DD	01H DUP (?)
VolumeClassFilterRegistered DD 01H DUP (?)
CacheBootPassword DD 01H DUP (?)
NonAdminSystemFavoritesAccessDisabled DD 01H DUP (?)
	ALIGN	8

EncryptionThreadPoolFreeCpuCountLimit DQ 01H DUP (?)
SystemFavoriteVolumeDirty DD 01H DUP (?)
PagingFileCreationPrevented DD 01H DUP (?)
;	COMDAT ??_C@_0BE@JBJOLBIB@OsMajorVersion?5?$CB?$DN?50?$AA@FNODOBFM@
text$s	SEGMENT
??_C@_0BE@JBJOLBIB@OsMajorVersion?5?$CB?$DN?50?$AA@FNODOBFM@ DB 'OsMajorV'
	DB	'ersion != 0', 00H				;  ?? ::FNODOBFM::`string'
text$s	ENDS
;	COMDAT ??_C@_0BO@NFNIJFEK@Skipping?5bad?5sector?5at?5?$CFI64d?6?$AA@FNODOBFM@
text$s	SEGMENT
??_C@_0BO@NFNIJFEK@Skipping?5bad?5sector?5at?5?$CFI64d?6?$AA@FNODOBFM@ DB 'S'
	DB	'kipping bad sector at %I64d', 0aH, 00H	;  ?? ::FNODOBFM::`string'
text$s	ENDS
;	COMDAT ??_C@_0BJ@BHMICMIC@Zeroing?5sector?5at?5?$CFI64d?6?$AA@FNODOBFM@
text$s	SEGMENT
??_C@_0BJ@BHMICMIC@Zeroing?5sector?5at?5?$CFI64d?6?$AA@FNODOBFM@ DB 'Zero'
	DB	'ing sector at %I64d', 0aH, 00H		;  ?? ::FNODOBFM::`string'
text$s	ENDS
;	COMDAT ??_C@_1EA@CEOJFLPD@?$AAT?$AAr?$AAu?$AAe?$AAC?$AAr?$AAy?$AAp?$AAt?$AAE?$AAn?$AAc?$AAr?$AAy?$AAp?$AAt?$AAi?$AAo?$AAn?$AAF?$AAr?$AAe?$AAe?$AAC?$AAp?$AAu?$AAC?$AAo?$AAu?$AAn?$AAt?$AA?$AA@FNODOBFM@
text$s	SEGMENT
??_C@_1EA@CEOJFLPD@?$AAT?$AAr?$AAu?$AAe?$AAC?$AAr?$AAy?$AAp?$AAt?$AAE?$AAn?$AAc?$AAr?$AAy?$AAp?$AAt?$AAi?$AAo?$AAn?$AAF?$AAr?$AAe?$AAe?$AAC?$AAp?$AAu?$AAC?$AAo?$AAu?$AAn?$AAt?$AA?$AA@FNODOBFM@ DB 'T'
	DB	00H, 'r', 00H, 'u', 00H, 'e', 00H, 'C', 00H, 'r', 00H, 'y', 00H
	DB	'p', 00H, 't', 00H, 'E', 00H, 'n', 00H, 'c', 00H, 'r', 00H, 'y'
	DB	00H, 'p', 00H, 't', 00H, 'i', 00H, 'o', 00H, 'n', 00H, 'F', 00H
	DB	'r', 00H, 'e', 00H, 'e', 00H, 'C', 00H, 'p', 00H, 'u', 00H, 'C'
	DB	00H, 'o', 00H, 'u', 00H, 'n', 00H, 't', 00H, 00H, 00H ;  ?? ::FNODOBFM::`string'
text$s	ENDS
;	COMDAT ??_C@_0BM@LHOAOPML@Configuration?5flags?5?$DN?50x?$CFx?6?$AA@FNODOBFM@
text$s	SEGMENT
??_C@_0BM@LHOAOPML@Configuration?5flags?5?$DN?50x?$CFx?6?$AA@FNODOBFM@ DB 'C'
	DB	'onfiguration flags = 0x%x', 0aH, 00H	;  ?? ::FNODOBFM::`string'
text$s	ENDS
;	COMDAT ??_C@_1CA@LGEHFLCO@?$AAT?$AAr?$AAu?$AAe?$AAC?$AAr?$AAy?$AAp?$AAt?$AAC?$AAo?$AAn?$AAf?$AAi?$AAg?$AA?$AA@FNODOBFM@
text$s	SEGMENT
??_C@_1CA@LGEHFLCO@?$AAT?$AAr?$AAu?$AAe?$AAC?$AAr?$AAy?$AAp?$AAt?$AAC?$AAo?$AAn?$AAf?$AAi?$AAg?$AA?$AA@FNODOBFM@ DB 'T'
	DB	00H, 'r', 00H, 'u', 00H, 'e', 00H, 'C', 00H, 'r', 00H, 'y', 00H
	DB	'p', 00H, 't', 00H, 'C', 00H, 'o', 00H, 'n', 00H, 'f', 00H, 'i'
	DB	00H, 'g', 00H, 00H, 00H			;  ?? ::FNODOBFM::`string'
text$s	ENDS
;	COMDAT ??_C@_1HM@GLBNDPGI@?$AA?2?$AAR?$AAE?$AAG?$AAI?$AAS?$AAT?$AAR?$AAY?$AA?2?$AAM?$AAA?$AAC?$AAH?$AAI?$AAN?$AAE?$AA?2?$AAS?$AAY?$AAS?$AAT?$AAE?$AAM?$AA?2?$AAC?$AAu?$AAr?$AAr?$AAe?$AAn?$AAt@FNODOBFM@
text$s	SEGMENT
??_C@_1HM@GLBNDPGI@?$AA?2?$AAR?$AAE?$AAG?$AAI?$AAS?$AAT?$AAR?$AAY?$AA?2?$AAM?$AAA?$AAC?$AAH?$AAI?$AAN?$AAE?$AA?2?$AAS?$AAY?$AAS?$AAT?$AAE?$AAM?$AA?2?$AAC?$AAu?$AAr?$AAr?$AAe?$AAn?$AAt@FNODOBFM@ DB '\'
	DB	00H, 'R', 00H, 'E', 00H, 'G', 00H, 'I', 00H, 'S', 00H, 'T', 00H
	DB	'R', 00H, 'Y', 00H, '\', 00H, 'M', 00H, 'A', 00H, 'C', 00H, 'H'
	DB	00H, 'I', 00H, 'N', 00H, 'E', 00H, '\', 00H, 'S', 00H, 'Y', 00H
	DB	'S', 00H, 'T', 00H, 'E', 00H, 'M', 00H, '\', 00H, 'C', 00H, 'u'
	DB	00H, 'r', 00H, 'r', 00H, 'e', 00H, 'n', 00H, 't', 00H, 'C', 00H
	DB	'o', 00H, 'n', 00H, 't', 00H, 'r', 00H, 'o', 00H, 'l', 00H, 'S'
	DB	00H, 'e', 00H, 't', 00H, '\', 00H, 'S', 00H, 'e', 00H, 'r', 00H
	DB	'v', 00H, 'i', 00H, 'c', 00H, 'e', 00H, 's', 00H, '\', 00H, 't'
	DB	00H, 'r', 00H, 'u', 00H, 'e', 00H, 'c', 00H, 'r', 00H, 'y', 00H
	DB	'p', 00H, 't', 00H, 00H, 00H			;  ?? ::FNODOBFM::`string'
text$s	ENDS
;	COMDAT ??_C@_0BM@GOBMMLHF@Volume?5class?5filter?5active?6?$AA@FNODOBFM@
text$s	SEGMENT
??_C@_0BM@GOBMMLHF@Volume?5class?5filter?5active?6?$AA@FNODOBFM@ DB 'Volu'
	DB	'me class filter active', 0aH, 00H		;  ?? ::FNODOBFM::`string'
text$s	ENDS
;	COMDAT ??_C@_1BE@OBOIPPHP@?$AAt?$AAr?$AAu?$AAe?$AAc?$AAr?$AAy?$AAp?$AAt?$AA?$AA@FNODOBFM@
text$s	SEGMENT
??_C@_1BE@OBOIPPHP@?$AAt?$AAr?$AAu?$AAe?$AAc?$AAr?$AAy?$AAp?$AAt?$AA?$AA@FNODOBFM@ DB 't'
	DB	00H, 'r', 00H, 'u', 00H, 'e', 00H, 'c', 00H, 'r', 00H, 'y', 00H
	DB	'p', 00H, 't', 00H, 00H, 00H			;  ?? ::FNODOBFM::`string'
text$s	ENDS
;	COMDAT ??_C@_1BK@FNJCPENK@?$AAU?$AAp?$AAp?$AAe?$AAr?$AAF?$AAi?$AAl?$AAt?$AAe?$AAr?$AAs?$AA?$AA@FNODOBFM@
text$s	SEGMENT
??_C@_1BK@FNJCPENK@?$AAU?$AAp?$AAp?$AAe?$AAr?$AAF?$AAi?$AAl?$AAt?$AAe?$AAr?$AAs?$AA?$AA@FNODOBFM@ DB 'U'
	DB	00H, 'p', 00H, 'p', 00H, 'e', 00H, 'r', 00H, 'F', 00H, 'i', 00H
	DB	'l', 00H, 't', 00H, 'e', 00H, 'r', 00H, 's', 00H, 00H, 00H ;  ?? ::FNODOBFM::`string'
text$s	ENDS
;	COMDAT ??_C@_1MA@BNNNAGDA@?$AA?2?$AAR?$AAE?$AAG?$AAI?$AAS?$AAT?$AAR?$AAY?$AA?2?$AAM?$AAA?$AAC?$AAH?$AAI?$AAN?$AAE?$AA?2?$AAS?$AAY?$AAS?$AAT?$AAE?$AAM?$AA?2?$AAC?$AAu?$AAr?$AAr?$AAe?$AAn?$AAt@FNODOBFM@
text$s	SEGMENT
??_C@_1MA@BNNNAGDA@?$AA?2?$AAR?$AAE?$AAG?$AAI?$AAS?$AAT?$AAR?$AAY?$AA?2?$AAM?$AAA?$AAC?$AAH?$AAI?$AAN?$AAE?$AA?2?$AAS?$AAY?$AAS?$AAT?$AAE?$AAM?$AA?2?$AAC?$AAu?$AAr?$AAr?$AAe?$AAn?$AAt@FNODOBFM@ DB '\'
	DB	00H, 'R', 00H, 'E', 00H, 'G', 00H, 'I', 00H, 'S', 00H, 'T', 00H
	DB	'R', 00H, 'Y', 00H, '\', 00H, 'M', 00H, 'A', 00H, 'C', 00H, 'H'
	DB	00H, 'I', 00H, 'N', 00H, 'E', 00H, '\', 00H, 'S', 00H, 'Y', 00H
	DB	'S', 00H, 'T', 00H, 'E', 00H, 'M', 00H, '\', 00H, 'C', 00H, 'u'
	DB	00H, 'r', 00H, 'r', 00H, 'e', 00H, 'n', 00H, 't', 00H, 'C', 00H
	DB	'o', 00H, 'n', 00H, 't', 00H, 'r', 00H, 'o', 00H, 'l', 00H, 'S'
	DB	00H, 'e', 00H, 't', 00H, '\', 00H, 'C', 00H, 'o', 00H, 'n', 00H
	DB	't', 00H, 'r', 00H, 'o', 00H, 'l', 00H, '\', 00H, 'C', 00H, 'l'
	DB	00H, 'a', 00H, 's', 00H, 's', 00H, '\', 00H, '{', 00H, '7', 00H
	DB	'1', 00H, 'A', 00H, '2', 00H, '7', 00H, 'C', 00H, 'D', 00H, 'D'
	DB	00H, '-', 00H, '8', 00H, '1', 00H, '2', 00H, 'A', 00H, '-', 00H
	DB	'1', 00H, '1', 00H, 'D', 00H, '0', 00H, '-', 00H, 'B', 00H, 'E'
	DB	00H, 'C', 00H, '7', 00H, '-', 00H, '0', 00H, '8', 00H, '0', 00H
	DB	'0', 00H, '2', 00H, 'B', 00H, 'E', 00H, '2', 00H, '0', 00H, '9'
	DB	00H, '2', 00H, 'F', 00H, '}', 00H, 00H, 00H	;  ?? ::FNODOBFM::`string'
text$s	ENDS
;	COMDAT ??_C@_0CI@OFAMGLPO@retryDelay?5?$DO?50?5?$CG?$CG?5retryDelay?5?$DM?$DN?5@FNODOBFM@
text$s	SEGMENT
??_C@_0CI@OFAMGLPO@retryDelay?5?$DO?50?5?$CG?$CG?5retryDelay?5?$DM?$DN?5@FNODOBFM@ DB 'r'
	DB	'etryDelay > 0 && retryDelay <= timeout', 00H ;  ?? ::FNODOBFM::`string'
text$s	ENDS
;	COMDAT ??_C@_0BK@BGEEJMHD@?$CImaxSizeInBytes?5?$CG?51?$CJ?5?$DN?$DN?50?$AA@FNODOBFM@
text$s	SEGMENT
??_C@_0BK@BGEEJMHD@?$CImaxSizeInBytes?5?$CG?51?$CJ?5?$DN?$DN?50?$AA@FNODOBFM@ DB '('
	DB	'maxSizeInBytes & 1) == 0', 00H		;  ?? ::FNODOBFM::`string'
text$s	ENDS
;	COMDAT ??_C@_0CJ@KBGIGBCB@?$CBIoIsSystemThread?5?$CIPsGetCurrentT@FNODOBFM@
text$s	SEGMENT
??_C@_0CJ@KBGIGBCB@?$CBIoIsSystemThread?5?$CIPsGetCurrentT@FNODOBFM@ DB '!'
	DB	'IoIsSystemThread (PsGetCurrentThread())', 00H ;  ?? ::FNODOBFM::`string'
text$s	ENDS
;	COMDAT ??_C@_0BI@OJEECLJN@Unmounting?5all?5volumes?6?$AA@FNODOBFM@
text$s	SEGMENT
??_C@_0BI@OJEECLJN@Unmounting?5all?5volumes?6?$AA@FNODOBFM@ DB 'Unmountin'
	DB	'g all volumes', 0aH, 00H			;  ?? ::FNODOBFM::`string'
text$s	ENDS
;	COMDAT ??_C@_0CD@FFMFJFAI@FSCTL_DISMOUNT_VOLUME?5returned?5?$CF@FNODOBFM@
text$s	SEGMENT
??_C@_0CD@FFMFJFAI@FSCTL_DISMOUNT_VOLUME?5returned?5?$CF@FNODOBFM@ DB 'FS'
	DB	'CTL_DISMOUNT_VOLUME returned %X', 0aH, 00H	;  ?? ::FNODOBFM::`string'
text$s	ENDS
;	COMDAT ??_C@_0BP@EOHNIHMK@FSCTL_LOCK_VOLUME?5returned?5?$CFX?6?$AA@FNODOBFM@
text$s	SEGMENT
??_C@_0BP@EOHNIHMK@FSCTL_LOCK_VOLUME?5returned?5?$CFX?6?$AA@FNODOBFM@ DB 'F'
	DB	'SCTL_LOCK_VOLUME returned %X', 0aH, 00H	;  ?? ::FNODOBFM::`string'
text$s	ENDS
;	COMDAT ??_C@_0BC@FNOALNCB@UnmountDevice?5?$CFd?6?$AA@FNODOBFM@
text$s	SEGMENT
??_C@_0BC@FNOALNCB@UnmountDevice?5?$CFd?6?$AA@FNODOBFM@ DB 'UnmountDevice'
	DB	' %d', 0aH, 00H				;  ?? ::FNODOBFM::`string'
text$s	ENDS
;	COMDAT ??_C@_0CA@IJMBHFOD@Mount?5FAILURE?5TC?5code?5?$DN?50x?$CF08x?6?$AA@FNODOBFM@
text$s	SEGMENT
??_C@_0CA@IJMBHFOD@Mount?5FAILURE?5TC?5code?5?$DN?50x?$CF08x?6?$AA@FNODOBFM@ DB 'M'
	DB	'ount FAILURE TC code = 0x%08x', 0aH, 00H	;  ?? ::FNODOBFM::`string'
text$s	ENDS
;	COMDAT ??_C@_0CP@DBOFILAH@Mount?5SUCCESS?5TC?5code?5?$DN?50x?$CF08x?5R@FNODOBFM@
text$s	SEGMENT
??_C@_0CP@DBOFILAH@Mount?5SUCCESS?5TC?5code?5?$DN?50x?$CF08x?5R@FNODOBFM@ DB 'M'
	DB	'ount SUCCESS TC code = 0x%08x READ-ONLY = %d', 0aH, 00H ;  ?? ::FNODOBFM::`string'
text$s	ENDS
;	COMDAT ??_C@_0CL@KIIHMHE@Mount?5FAILURE?5NT?5ERROR?0?5ntStatus@FNODOBFM@
text$s	SEGMENT
??_C@_0CL@KIIHMHE@Mount?5FAILURE?5NT?5ERROR?0?5ntStatus@FNODOBFM@ DB 'Mou'
	DB	'nt FAILURE NT ERROR, ntStatus = 0x%08x', 0aH, 00H ;  ?? ::FNODOBFM::`string'
text$s	ENDS
;	COMDAT ??_C@_0CO@NNHGPFIJ@Mount?5CREATE?5DEVICE?5ERROR?0?5ntSta@FNODOBFM@
text$s	SEGMENT
??_C@_0CO@NNHGPFIJ@Mount?5CREATE?5DEVICE?5ERROR?0?5ntSta@FNODOBFM@ DB 'Mo'
	DB	'unt CREATE DEVICE ERROR, ntStatus = 0x%08x', 0aH, 00H ;  ?? ::FNODOBFM::`string'
text$s	ENDS
;	COMDAT ??_C@_0CF@CGPMKDKJ@WARNING?3?5MOUNT?5DRIVE?5LETTER?5INVA@FNODOBFM@
text$s	SEGMENT
??_C@_0CF@CGPMKDKJ@WARNING?3?5MOUNT?5DRIVE?5LETTER?5INVA@FNODOBFM@ DB 'WA'
	DB	'RNING: MOUNT DRIVE LETTER INVALID', 0aH, 00H ;  ?? ::FNODOBFM::`string'
text$s	ENDS
;	COMDAT ??_C@_0BL@PIKDDHEP@Mount?5request?5looks?5valid?6?$AA@FNODOBFM@
text$s	SEGMENT
??_C@_0BL@PIKDDHEP@Mount?5request?5looks?5valid?6?$AA@FNODOBFM@ DB 'Mount'
	DB	' request looks valid', 0aH, 00H		;  ?? ::FNODOBFM::`string'
text$s	ENDS
;	COMDAT ??_C@_0CO@FHIENMIJ@IOCTL_MOUNTMGR_DELETE_POINTS?5ret@FNODOBFM@
text$s	SEGMENT
??_C@_0CO@FHIENMIJ@IOCTL_MOUNTMGR_DELETE_POINTS?5ret@FNODOBFM@ DB 'IOCTL_'
	DB	'MOUNTMGR_DELETE_POINTS returned 0x%08x', 0aH, 00H ;  ?? ::FNODOBFM::`string'
text$s	ENDS
;	COMDAT ??_C@_1DE@MJJBHHAG@?$AA?2?$AAD?$AAe?$AAv?$AAi?$AAc?$AAe?$AA?2?$AAM?$AAo?$AAu?$AAn?$AAt?$AAP?$AAo?$AAi?$AAn?$AAt?$AAM?$AAa?$AAn?$AAa?$AAg?$AAe?$AAr?$AA?$AA@FNODOBFM@
text$s	SEGMENT
??_C@_1DE@MJJBHHAG@?$AA?2?$AAD?$AAe?$AAv?$AAi?$AAc?$AAe?$AA?2?$AAM?$AAo?$AAu?$AAn?$AAt?$AAP?$AAo?$AAi?$AAn?$AAt?$AAM?$AAa?$AAn?$AAa?$AAg?$AAe?$AAr?$AA?$AA@FNODOBFM@ DB '\'
	DB	00H, 'D', 00H, 'e', 00H, 'v', 00H, 'i', 00H, 'c', 00H, 'e', 00H
	DB	'\', 00H, 'M', 00H, 'o', 00H, 'u', 00H, 'n', 00H, 't', 00H, 'P'
	DB	00H, 'o', 00H, 'i', 00H, 'n', 00H, 't', 00H, 'M', 00H, 'a', 00H
	DB	'n', 00H, 'a', 00H, 'g', 00H, 'e', 00H, 'r', 00H, 00H, 00H ;  ?? ::FNODOBFM::`string'
text$s	ENDS
;	COMDAT ??_C@_0CC@KAFJKDAC@IoDeleteSymbolicLink?5returned?5?$CFX@FNODOBFM@
text$s	SEGMENT
??_C@_0CC@KAFJKDAC@IoDeleteSymbolicLink?5returned?5?$CFX@FNODOBFM@ DB 'Io'
	DB	'DeleteSymbolicLink returned %X', 0aH, 00H	;  ?? ::FNODOBFM::`string'
text$s	ENDS
;	COMDAT ??_C@_0CC@INHNDJGI@IoCreateSymbolicLink?5returned?5?$CFX@FNODOBFM@
text$s	SEGMENT
??_C@_0CC@INHNDJGI@IoCreateSymbolicLink?5returned?5?$CFX@FNODOBFM@ DB 'Io'
	DB	'CreateSymbolicLink returned %X', 0aH, 00H	;  ?? ::FNODOBFM::`string'
text$s	ENDS
;	COMDAT ??_C@_0CA@MOHACMBH@KeGetCurrentIrql?$CI?$CJ?5?$DM?$DN?5APC_LEVEL?$AA@FNODOBFM@
text$s	SEGMENT
??_C@_0CA@MOHACMBH@KeGetCurrentIrql?$CI?$CJ?5?$DM?$DN?5APC_LEVEL?$AA@FNODOBFM@ DB 'K'
	DB	'eGetCurrentIrql() <= APC_LEVEL', 00H	;  ?? ::FNODOBFM::`string'
text$s	ENDS
;	COMDAT ??_C@_0CB@JIDCFMLM@Volume?5?$CFls?5open?5NTSTATUS?50x?$CF08x?6@FNODOBFM@
text$s	SEGMENT
??_C@_0CB@JIDCFMLM@Volume?5?$CFls?5open?5NTSTATUS?50x?$CF08x?6@FNODOBFM@ DB 'V'
	DB	'olume %ls open NTSTATUS 0x%08x', 0aH, 00H	;  ?? ::FNODOBFM::`string'
text$s	ENDS
;	COMDAT ??_C@_0CO@FHHNLLNJ@Real?5drive?5size?5?$DN?5?$CFI64d?5bytes?5?$CI?$CF@FNODOBFM@
text$s	SEGMENT
??_C@_0CO@FHHNLLNJ@Real?5drive?5size?5?$DN?5?$CFI64d?5bytes?5?$CI?$CF@FNODOBFM@ DB 'R'
	DB	'eal drive size = %I64d bytes (%I64d hidden)', 0aH, 00H ;  ?? ::FNODOBFM::`string'
text$s	ENDS
;	COMDAT ??_C@_0CF@BFNPLHIK@Failed?5to?5get?5drive?5size?5?9?5error@FNODOBFM@
text$s	SEGMENT
??_C@_0CF@BFNPLHIK@Failed?5to?5get?5drive?5size?5?9?5error@FNODOBFM@ DB 'F'
	DB	'ailed to get drive size - error %x', 0aH, 00H ;  ?? ::FNODOBFM::`string'
text$s	ENDS
;	COMDAT ??_C@_0BH@BPCEMJJB@IRP?5allocation?5failed?6?$AA@FNODOBFM@
text$s	SEGMENT
??_C@_0BH@BPCEMJJB@IRP?5allocation?5failed?6?$AA@FNODOBFM@ DB 'IRP alloca'
	DB	'tion failed', 0aH, 00H			;  ?? ::FNODOBFM::`string'
text$s	ENDS
;	COMDAT ??_C@_0BE@CJGLKHCK@TCUnloadDriver?5END?6?$AA@FNODOBFM@
text$s	SEGMENT
??_C@_0BE@CJGLKHCK@TCUnloadDriver?5END?6?$AA@FNODOBFM@ DB 'TCUnloadDriver'
	DB	' END', 0aH, 00H				;  ?? ::FNODOBFM::`string'
text$s	ENDS
;	COMDAT ??_C@_0BG@MGFDNIAG@TCUnloadDriver?5BEGIN?6?$AA@FNODOBFM@
text$s	SEGMENT
??_C@_0BG@MGFDNIAG@TCUnloadDriver?5BEGIN?6?$AA@FNODOBFM@ DB 'TCUnloadDriv'
	DB	'er BEGIN', 0aH, 00H				;  ?? ::FNODOBFM::`string'
text$s	ENDS
;	COMDAT ??_C@_0BK@EIFNDPP@TCDeleteDeviceObject?5END?6?$AA@FNODOBFM@
text$s	SEGMENT
??_C@_0BK@EIFNDPP@TCDeleteDeviceObject?5END?6?$AA@FNODOBFM@ DB 'TCDeleteD'
	DB	'eviceObject END', 0aH, 00H			;  ?? ::FNODOBFM::`string'
text$s	ENDS
;	COMDAT ??_C@_1EA@FPAPEGHJ@?$AAP?$AAs?$AAD?$AAe?$AAr?$AAe?$AAf?$AAe?$AAr?$AAe?$AAn?$AAc?$AAe?$AAI?$AAm?$AAp?$AAe?$AAr?$AAs?$AAo?$AAn?$AAa?$AAt?$AAi?$AAo?$AAn?$AAT?$AAo?$AAk?$AAe?$AAn?$AA?$AA@FNODOBFM@
text$s	SEGMENT
??_C@_1EA@FPAPEGHJ@?$AAP?$AAs?$AAD?$AAe?$AAr?$AAe?$AAf?$AAe?$AAr?$AAe?$AAn?$AAc?$AAe?$AAI?$AAm?$AAp?$AAe?$AAr?$AAs?$AAo?$AAn?$AAa?$AAt?$AAi?$AAo?$AAn?$AAT?$AAo?$AAk?$AAe?$AAn?$AA?$AA@FNODOBFM@ DB 'P'
	DB	00H, 's', 00H, 'D', 00H, 'e', 00H, 'r', 00H, 'e', 00H, 'f', 00H
	DB	'e', 00H, 'r', 00H, 'e', 00H, 'n', 00H, 'c', 00H, 'e', 00H, 'I'
	DB	00H, 'm', 00H, 'p', 00H, 'e', 00H, 'r', 00H, 's', 00H, 'o', 00H
	DB	'n', 00H, 'a', 00H, 't', 00H, 'i', 00H, 'o', 00H, 'n', 00H, 'T'
	DB	00H, 'o', 00H, 'k', 00H, 'e', 00H, 'n', 00H, 00H, 00H ;  ?? ::FNODOBFM::`string'
text$s	ENDS
;	COMDAT ??_C@_0CP@NIIDLADO@IoDeleteSymbolicLink?5failed?5ntSt@FNODOBFM@
text$s	SEGMENT
??_C@_0CP@NIIDLADO@IoDeleteSymbolicLink?5failed?5ntSt@FNODOBFM@ DB 'IoDel'
	DB	'eteSymbolicLink failed ntStatus = 0x%08x', 0aH, 00H ;  ?? ::FNODOBFM::`string'
text$s	ENDS
;	COMDAT ??_C@_1CM@KJDLPNIG@?$AA?2?$AAD?$AAo?$AAs?$AAD?$AAe?$AAv?$AAi?$AAc?$AAe?$AAs?$AA?2?$AAT?$AAr?$AAu?$AAe?$AAC?$AAr?$AAy?$AAp?$AAt?$AA?$AA@FNODOBFM@
text$s	SEGMENT
??_C@_1CM@KJDLPNIG@?$AA?2?$AAD?$AAo?$AAs?$AAD?$AAe?$AAv?$AAi?$AAc?$AAe?$AAs?$AA?2?$AAT?$AAr?$AAu?$AAe?$AAC?$AAr?$AAy?$AAp?$AAt?$AA?$AA@FNODOBFM@ DB '\'
	DB	00H, 'D', 00H, 'o', 00H, 's', 00H, 'D', 00H, 'e', 00H, 'v', 00H
	DB	'i', 00H, 'c', 00H, 'e', 00H, 's', 00H, '\', 00H, 'T', 00H, 'r'
	DB	00H, 'u', 00H, 'e', 00H, 'C', 00H, 'r', 00H, 'y', 00H, 'p', 00H
	DB	't', 00H, 00H, 00H				;  ?? ::FNODOBFM::`string'
text$s	ENDS
;	COMDAT ??_C@_0BM@GNHEHBJH@TCDeleteDeviceObject?5BEGIN?6?$AA@FNODOBFM@
text$s	SEGMENT
??_C@_0BM@GNHEHBJH@TCDeleteDeviceObject?5BEGIN?6?$AA@FNODOBFM@ DB 'TCDele'
	DB	'teDeviceObject BEGIN', 0aH, 00H		;  ?? ::FNODOBFM::`string'
text$s	ENDS
;	COMDAT ??_C@_1M@KHJOIALG@?$AAI?$AAO?$AAC?$AAT?$AAL?$AA?$AA@FNODOBFM@
text$s	SEGMENT
??_C@_1M@KHJOIALG@?$AAI?$AAO?$AAC?$AAT?$AAL?$AA?$AA@FNODOBFM@ DB 'I', 00H
	DB	'O', 00H, 'C', 00H, 'T', 00H, 'L', 00H, 00H, 00H ;  ?? ::FNODOBFM::`string'
text$s	ENDS
;	COMDAT ??_C@_1CM@DKLAEDLO@?$AAI?$AAR?$AAP?$AA_?$AAM?$AAJ?$AA_?$AAD?$AAE?$AAV?$AAI?$AAC?$AAE?$AA_?$AAC?$AAO?$AAN?$AAT?$AAR?$AAO?$AAL?$AA?$AA@FNODOBFM@
text$s	SEGMENT
??_C@_1CM@DKLAEDLO@?$AAI?$AAR?$AAP?$AA_?$AAM?$AAJ?$AA_?$AAD?$AAE?$AAV?$AAI?$AAC?$AAE?$AA_?$AAC?$AAO?$AAN?$AAT?$AAR?$AAO?$AAL?$AA?$AA@FNODOBFM@ DB 'I'
	DB	00H, 'R', 00H, 'P', 00H, '_', 00H, 'M', 00H, 'J', 00H, '_', 00H
	DB	'D', 00H, 'E', 00H, 'V', 00H, 'I', 00H, 'C', 00H, 'E', 00H, '_'
	DB	00H, 'C', 00H, 'O', 00H, 'N', 00H, 'T', 00H, 'R', 00H, 'O', 00H
	DB	'L', 00H, 00H, 00H				;  ?? ::FNODOBFM::`string'
text$s	ENDS
;	COMDAT ??_C@_1CA@FOECGGNC@?$AAI?$AAR?$AAP?$AA_?$AAM?$AAJ?$AA_?$AAS?$AAH?$AAU?$AAT?$AAD?$AAO?$AAW?$AAN?$AA?$AA@FNODOBFM@
text$s	SEGMENT
??_C@_1CA@FOECGGNC@?$AAI?$AAR?$AAP?$AA_?$AAM?$AAJ?$AA_?$AAS?$AAH?$AAU?$AAT?$AAD?$AAO?$AAW?$AAN?$AA?$AA@FNODOBFM@ DB 'I'
	DB	00H, 'R', 00H, 'P', 00H, '_', 00H, 'M', 00H, 'J', 00H, '_', 00H
	DB	'S', 00H, 'H', 00H, 'U', 00H, 'T', 00H, 'D', 00H, 'O', 00H, 'W'
	DB	00H, 'N', 00H, 00H, 00H			;  ?? ::FNODOBFM::`string'
text$s	ENDS
;	COMDAT ??_C@_1CK@MCKHKFDD@?$AAI?$AAR?$AAP?$AA_?$AAM?$AAJ?$AA_?$AAF?$AAL?$AAU?$AAS?$AAH?$AA_?$AAB?$AAU?$AAF?$AAF?$AAE?$AAR?$AAS?$AA?$AA@FNODOBFM@
text$s	SEGMENT
??_C@_1CK@MCKHKFDD@?$AAI?$AAR?$AAP?$AA_?$AAM?$AAJ?$AA_?$AAF?$AAL?$AAU?$AAS?$AAH?$AA_?$AAB?$AAU?$AAF?$AAF?$AAE?$AAR?$AAS?$AA?$AA@FNODOBFM@ DB 'I'
	DB	00H, 'R', 00H, 'P', 00H, '_', 00H, 'M', 00H, 'J', 00H, '_', 00H
	DB	'F', 00H, 'L', 00H, 'U', 00H, 'S', 00H, 'H', 00H, '_', 00H, 'B'
	DB	00H, 'U', 00H, 'F', 00H, 'F', 00H, 'E', 00H, 'R', 00H, 'S', 00H
	DB	00H, 00H					;  ?? ::FNODOBFM::`string'
text$s	ENDS
;	COMDAT ??_C@_1BO@GEGOKABG@?$AAI?$AAR?$AAP?$AA_?$AAM?$AAJ?$AA_?$AAC?$AAL?$AAE?$AAA?$AAN?$AAU?$AAP?$AA?$AA@FNODOBFM@
text$s	SEGMENT
??_C@_1BO@GEGOKABG@?$AAI?$AAR?$AAP?$AA_?$AAM?$AAJ?$AA_?$AAC?$AAL?$AAE?$AAA?$AAN?$AAU?$AAP?$AA?$AA@FNODOBFM@ DB 'I'
	DB	00H, 'R', 00H, 'P', 00H, '_', 00H, 'M', 00H, 'J', 00H, '_', 00H
	DB	'C', 00H, 'L', 00H, 'E', 00H, 'A', 00H, 'N', 00H, 'U', 00H, 'P'
	DB	00H, 00H, 00H				;  ?? ::FNODOBFM::`string'
text$s	ENDS
;	COMDAT ??_C@_1BK@JLALPKNJ@?$AAI?$AAR?$AAP?$AA_?$AAM?$AAJ?$AA_?$AAC?$AAL?$AAO?$AAS?$AAE?$AA?$AA@FNODOBFM@
text$s	SEGMENT
??_C@_1BK@JLALPKNJ@?$AAI?$AAR?$AAP?$AA_?$AAM?$AAJ?$AA_?$AAC?$AAL?$AAO?$AAS?$AAE?$AA?$AA@FNODOBFM@ DB 'I'
	DB	00H, 'R', 00H, 'P', 00H, '_', 00H, 'M', 00H, 'J', 00H, '_', 00H
	DB	'C', 00H, 'L', 00H, 'O', 00H, 'S', 00H, 'E', 00H, 00H, 00H ;  ?? ::FNODOBFM::`string'
text$s	ENDS
;	COMDAT ??_C@_1BM@KFEHBPBD@?$AAI?$AAR?$AAP?$AA_?$AAM?$AAJ?$AA_?$AAC?$AAR?$AAE?$AAA?$AAT?$AAE?$AA?$AA@FNODOBFM@
text$s	SEGMENT
??_C@_1BM@KFEHBPBD@?$AAI?$AAR?$AAP?$AA_?$AAM?$AAJ?$AA_?$AAC?$AAR?$AAE?$AAA?$AAT?$AAE?$AA?$AA@FNODOBFM@ DB 'I'
	DB	00H, 'R', 00H, 'P', 00H, '_', 00H, 'M', 00H, 'J', 00H, '_', 00H
	DB	'C', 00H, 'R', 00H, 'E', 00H, 'A', 00H, 'T', 00H, 'E', 00H, 00H
	DB	00H						;  ?? ::FNODOBFM::`string'
text$s	ENDS
;	COMDAT ??_C@_1BK@HGBIKEDO@?$AAI?$AAR?$AAP?$AA_?$AAM?$AAJ?$AA_?$AAW?$AAR?$AAI?$AAT?$AAE?$AA?$AA@FNODOBFM@
text$s	SEGMENT
??_C@_1BK@HGBIKEDO@?$AAI?$AAR?$AAP?$AA_?$AAM?$AAJ?$AA_?$AAW?$AAR?$AAI?$AAT?$AAE?$AA?$AA@FNODOBFM@ DB 'I'
	DB	00H, 'R', 00H, 'P', 00H, '_', 00H, 'M', 00H, 'J', 00H, '_', 00H
	DB	'W', 00H, 'R', 00H, 'I', 00H, 'T', 00H, 'E', 00H, 00H, 00H ;  ?? ::FNODOBFM::`string'
text$s	ENDS
;	COMDAT ??_C@_1BI@CFPHGFDN@?$AAI?$AAR?$AAP?$AA_?$AAM?$AAJ?$AA_?$AAR?$AAE?$AAA?$AAD?$AA?$AA@FNODOBFM@
text$s	SEGMENT
??_C@_1BI@CFPHGFDN@?$AAI?$AAR?$AAP?$AA_?$AAM?$AAJ?$AA_?$AAR?$AAE?$AAA?$AAD?$AA?$AA@FNODOBFM@ DB 'I'
	DB	00H, 'R', 00H, 'P', 00H, '_', 00H, 'M', 00H, 'J', 00H, '_', 00H
	DB	'R', 00H, 'E', 00H, 'A', 00H, 'D', 00H, 00H, 00H ;  ?? ::FNODOBFM::`string'
text$s	ENDS
;	COMDAT ??_C@_1DO@MEELNMKF@?$AAI?$AAO?$AAC?$AAT?$AAL?$AA_?$AAS?$AAT?$AAO?$AAR?$AAA?$AAG?$AAE?$AA_?$AAS?$AAE?$AAT?$AA_?$AAH?$AAO?$AAT?$AAP?$AAL?$AAU?$AAG?$AA_?$AAI?$AAN?$AAF?$AAO?$AA?$AA@FNODOBFM@
text$s	SEGMENT
??_C@_1DO@MEELNMKF@?$AAI?$AAO?$AAC?$AAT?$AAL?$AA_?$AAS?$AAT?$AAO?$AAR?$AAA?$AAG?$AAE?$AA_?$AAS?$AAE?$AAT?$AA_?$AAH?$AAO?$AAT?$AAP?$AAL?$AAU?$AAG?$AA_?$AAI?$AAN?$AAF?$AAO?$AA?$AA@FNODOBFM@ DB 'I'
	DB	00H, 'O', 00H, 'C', 00H, 'T', 00H, 'L', 00H, '_', 00H, 'S', 00H
	DB	'T', 00H, 'O', 00H, 'R', 00H, 'A', 00H, 'G', 00H, 'E', 00H, '_'
	DB	00H, 'S', 00H, 'E', 00H, 'T', 00H, '_', 00H, 'H', 00H, 'O', 00H
	DB	'T', 00H, 'P', 00H, 'L', 00H, 'U', 00H, 'G', 00H, '_', 00H, 'I'
	DB	00H, 'N', 00H, 'F', 00H, 'O', 00H, 00H, 00H	;  ?? ::FNODOBFM::`string'
text$s	ENDS
;	COMDAT ??_C@_1DG@MIHPHMPG@?$AAI?$AAO?$AAC?$AAT?$AAL?$AA_?$AAD?$AAI?$AAS?$AAK?$AA_?$AAG?$AAE?$AAT?$AA_?$AAM?$AAE?$AAD?$AAI?$AAA?$AA_?$AAT?$AAY?$AAP?$AAE?$AAS?$AA?$AA@FNODOBFM@
text$s	SEGMENT
??_C@_1DG@MIHPHMPG@?$AAI?$AAO?$AAC?$AAT?$AAL?$AA_?$AAD?$AAI?$AAS?$AAK?$AA_?$AAG?$AAE?$AAT?$AA_?$AAM?$AAE?$AAD?$AAI?$AAA?$AA_?$AAT?$AAY?$AAP?$AAE?$AAS?$AA?$AA@FNODOBFM@ DB 'I'
	DB	00H, 'O', 00H, 'C', 00H, 'T', 00H, 'L', 00H, '_', 00H, 'D', 00H
	DB	'I', 00H, 'S', 00H, 'K', 00H, '_', 00H, 'G', 00H, 'E', 00H, 'T'
	DB	00H, '_', 00H, 'M', 00H, 'E', 00H, 'D', 00H, 'I', 00H, 'A', 00H
	DB	'_', 00H, 'T', 00H, 'Y', 00H, 'P', 00H, 'E', 00H, 'S', 00H, 00H
	DB	00H						;  ?? ::FNODOBFM::`string'
text$s	ENDS
;	COMDAT ??_C@_1DI@EBJJOMKC@?$AAI?$AAO?$AAC?$AAT?$AAL?$AA_?$AAD?$AAI?$AAS?$AAK?$AA_?$AAF?$AAI?$AAN?$AAD?$AA_?$AAN?$AAE?$AAW?$AA_?$AAD?$AAE?$AAV?$AAI?$AAC?$AAE?$AAS?$AA?$AA@FNODOBFM@
text$s	SEGMENT
??_C@_1DI@EBJJOMKC@?$AAI?$AAO?$AAC?$AAT?$AAL?$AA_?$AAD?$AAI?$AAS?$AAK?$AA_?$AAF?$AAI?$AAN?$AAD?$AA_?$AAN?$AAE?$AAW?$AA_?$AAD?$AAE?$AAV?$AAI?$AAC?$AAE?$AAS?$AA?$AA@FNODOBFM@ DB 'I'
	DB	00H, 'O', 00H, 'C', 00H, 'T', 00H, 'L', 00H, '_', 00H, 'D', 00H
	DB	'I', 00H, 'S', 00H, 'K', 00H, '_', 00H, 'F', 00H, 'I', 00H, 'N'
	DB	00H, 'D', 00H, '_', 00H, 'N', 00H, 'E', 00H, 'W', 00H, '_', 00H
	DB	'D', 00H, 'E', 00H, 'V', 00H, 'I', 00H, 'C', 00H, 'E', 00H, 'S'
	DB	00H, 00H, 00H				;  ?? ::FNODOBFM::`string'
text$s	ENDS
;	COMDAT ??_C@_1CG@BFEEHHEK@?$AAI?$AAO?$AAC?$AAT?$AAL?$AA_?$AAD?$AAI?$AAS?$AAK?$AA_?$AAR?$AAE?$AAL?$AAE?$AAA?$AAS?$AAE?$AA?$AA@FNODOBFM@
text$s	SEGMENT
??_C@_1CG@BFEEHHEK@?$AAI?$AAO?$AAC?$AAT?$AAL?$AA_?$AAD?$AAI?$AAS?$AAK?$AA_?$AAR?$AAE?$AAL?$AAE?$AAA?$AAS?$AAE?$AA?$AA@FNODOBFM@ DB 'I'
	DB	00H, 'O', 00H, 'C', 00H, 'T', 00H, 'L', 00H, '_', 00H, 'D', 00H
	DB	'I', 00H, 'S', 00H, 'K', 00H, '_', 00H, 'R', 00H, 'E', 00H, 'L'
	DB	00H, 'E', 00H, 'A', 00H, 'S', 00H, 'E', 00H, 00H, 00H ;  ?? ::FNODOBFM::`string'
text$s	ENDS
;	COMDAT ??_C@_1CG@MJDBKCLM@?$AAI?$AAO?$AAC?$AAT?$AAL?$AA_?$AAD?$AAI?$AAS?$AAK?$AA_?$AAR?$AAE?$AAS?$AAE?$AAR?$AAV?$AAE?$AA?$AA@FNODOBFM@
text$s	SEGMENT
??_C@_1CG@MJDBKCLM@?$AAI?$AAO?$AAC?$AAT?$AAL?$AA_?$AAD?$AAI?$AAS?$AAK?$AA_?$AAR?$AAE?$AAS?$AAE?$AAR?$AAV?$AAE?$AA?$AA@FNODOBFM@ DB 'I'
	DB	00H, 'O', 00H, 'C', 00H, 'T', 00H, 'L', 00H, '_', 00H, 'D', 00H
	DB	'I', 00H, 'S', 00H, 'K', 00H, '_', 00H, 'R', 00H, 'E', 00H, 'S'
	DB	00H, 'E', 00H, 'R', 00H, 'V', 00H, 'E', 00H, 00H, 00H ;  ?? ::FNODOBFM::`string'
text$s	ENDS
;	COMDAT ??_C@_1CM@GNBBIMEE@?$AAI?$AAO?$AAC?$AAT?$AAL?$AA_?$AAD?$AAI?$AAS?$AAK?$AA_?$AAL?$AAO?$AAA?$AAD?$AA_?$AAM?$AAE?$AAD?$AAI?$AAA?$AA?$AA@FNODOBFM@
text$s	SEGMENT
??_C@_1CM@GNBBIMEE@?$AAI?$AAO?$AAC?$AAT?$AAL?$AA_?$AAD?$AAI?$AAS?$AAK?$AA_?$AAL?$AAO?$AAA?$AAD?$AA_?$AAM?$AAE?$AAD?$AAI?$AAA?$AA?$AA@FNODOBFM@ DB 'I'
	DB	00H, 'O', 00H, 'C', 00H, 'T', 00H, 'L', 00H, '_', 00H, 'D', 00H
	DB	'I', 00H, 'S', 00H, 'K', 00H, '_', 00H, 'L', 00H, 'O', 00H, 'A'
	DB	00H, 'D', 00H, '_', 00H, 'M', 00H, 'E', 00H, 'D', 00H, 'I', 00H
	DB	'A', 00H, 00H, 00H				;  ?? ::FNODOBFM::`string'
text$s	ENDS
;	COMDAT ??_C@_1CO@KHEOABCH@?$AAI?$AAO?$AAC?$AAT?$AAL?$AA_?$AAD?$AAI?$AAS?$AAK?$AA_?$AAE?$AAJ?$AAE?$AAC?$AAT?$AA_?$AAM?$AAE?$AAD?$AAI?$AAA?$AA?$AA@FNODOBFM@
text$s	SEGMENT
??_C@_1CO@KHEOABCH@?$AAI?$AAO?$AAC?$AAT?$AAL?$AA_?$AAD?$AAI?$AAS?$AAK?$AA_?$AAE?$AAJ?$AAE?$AAC?$AAT?$AA_?$AAM?$AAE?$AAD?$AAI?$AAA?$AA?$AA@FNODOBFM@ DB 'I'
	DB	00H, 'O', 00H, 'C', 00H, 'T', 00H, 'L', 00H, '_', 00H, 'D', 00H
	DB	'I', 00H, 'S', 00H, 'K', 00H, '_', 00H, 'E', 00H, 'J', 00H, 'E'
	DB	00H, 'C', 00H, 'T', 00H, '_', 00H, 'M', 00H, 'E', 00H, 'D', 00H
	DB	'I', 00H, 'A', 00H, 00H, 00H			;  ?? ::FNODOBFM::`string'
text$s	ENDS
;	COMDAT ??_C@_1DC@NMJCPDJD@?$AAI?$AAO?$AAC?$AAT?$AAL?$AA_?$AAD?$AAI?$AAS?$AAK?$AA_?$AAM?$AAE?$AAD?$AAI?$AAA?$AA_?$AAR?$AAE?$AAM?$AAO?$AAV?$AAA?$AAL?$AA?$AA@FNODOBFM@
text$s	SEGMENT
??_C@_1DC@NMJCPDJD@?$AAI?$AAO?$AAC?$AAT?$AAL?$AA_?$AAD?$AAI?$AAS?$AAK?$AA_?$AAM?$AAE?$AAD?$AAI?$AAA?$AA_?$AAR?$AAE?$AAM?$AAO?$AAV?$AAA?$AAL?$AA?$AA@FNODOBFM@ DB 'I'
	DB	00H, 'O', 00H, 'C', 00H, 'T', 00H, 'L', 00H, '_', 00H, 'D', 00H
	DB	'I', 00H, 'S', 00H, 'K', 00H, '_', 00H, 'M', 00H, 'E', 00H, 'D'
	DB	00H, 'I', 00H, 'A', 00H, '_', 00H, 'R', 00H, 'E', 00H, 'M', 00H
	DB	'O', 00H, 'V', 00H, 'A', 00H, 'L', 00H, 00H, 00H ;  ?? ::FNODOBFM::`string'
text$s	ENDS
;	COMDAT ??_C@_1DA@DLMBEKMN@?$AAI?$AAO?$AAC?$AAT?$AAL?$AA_?$AAD?$AAI?$AAS?$AAK?$AA_?$AAC?$AAH?$AAE?$AAC?$AAK?$AA_?$AAV?$AAE?$AAR?$AAI?$AAF?$AAY?$AA?$AA@FNODOBFM@
text$s	SEGMENT
??_C@_1DA@DLMBEKMN@?$AAI?$AAO?$AAC?$AAT?$AAL?$AA_?$AAD?$AAI?$AAS?$AAK?$AA_?$AAC?$AAH?$AAE?$AAC?$AAK?$AA_?$AAV?$AAE?$AAR?$AAI?$AAF?$AAY?$AA?$AA@FNODOBFM@ DB 'I'
	DB	00H, 'O', 00H, 'C', 00H, 'T', 00H, 'L', 00H, '_', 00H, 'D', 00H
	DB	'I', 00H, 'S', 00H, 'K', 00H, '_', 00H, 'C', 00H, 'H', 00H, 'E'
	DB	00H, 'C', 00H, 'K', 00H, '_', 00H, 'V', 00H, 'E', 00H, 'R', 00H
	DB	'I', 00H, 'F', 00H, 'Y', 00H, 00H, 00H	;  ?? ::FNODOBFM::`string'
text$s	ENDS
;	COMDAT ??_C@_1EC@JFOBAPGC@?$AAI?$AAO?$AAC?$AAT?$AAL?$AA_?$AAD?$AAI?$AAS?$AAK?$AA_?$AAI?$AAN?$AAT?$AAE?$AAR?$AAN?$AAA?$AAL?$AA_?$AAC?$AAL?$AAE?$AAA?$AAR?$AA_?$AAV?$AAE?$AAR?$AAI?$AAF?$AAY@FNODOBFM@
text$s	SEGMENT
??_C@_1EC@JFOBAPGC@?$AAI?$AAO?$AAC?$AAT?$AAL?$AA_?$AAD?$AAI?$AAS?$AAK?$AA_?$AAI?$AAN?$AAT?$AAE?$AAR?$AAN?$AAA?$AAL?$AA_?$AAC?$AAL?$AAE?$AAA?$AAR?$AA_?$AAV?$AAE?$AAR?$AAI?$AAF?$AAY@FNODOBFM@ DB 'I'
	DB	00H, 'O', 00H, 'C', 00H, 'T', 00H, 'L', 00H, '_', 00H, 'D', 00H
	DB	'I', 00H, 'S', 00H, 'K', 00H, '_', 00H, 'I', 00H, 'N', 00H, 'T'
	DB	00H, 'E', 00H, 'R', 00H, 'N', 00H, 'A', 00H, 'L', 00H, '_', 00H
	DB	'C', 00H, 'L', 00H, 'E', 00H, 'A', 00H, 'R', 00H, '_', 00H, 'V'
	DB	00H, 'E', 00H, 'R', 00H, 'I', 00H, 'F', 00H, 'Y', 00H, 00H, 00H ;  ?? ::FNODOBFM::`string'
text$s	ENDS
;	COMDAT ??_C@_1DO@JKPDDEIN@?$AAI?$AAO?$AAC?$AAT?$AAL?$AA_?$AAD?$AAI?$AAS?$AAK?$AA_?$AAI?$AAN?$AAT?$AAE?$AAR?$AAN?$AAA?$AAL?$AA_?$AAS?$AAE?$AAT?$AA_?$AAV?$AAE?$AAR?$AAI?$AAF?$AAY?$AA?$AA@FNODOBFM@
text$s	SEGMENT
??_C@_1DO@JKPDDEIN@?$AAI?$AAO?$AAC?$AAT?$AAL?$AA_?$AAD?$AAI?$AAS?$AAK?$AA_?$AAI?$AAN?$AAT?$AAE?$AAR?$AAN?$AAA?$AAL?$AA_?$AAS?$AAE?$AAT?$AA_?$AAV?$AAE?$AAR?$AAI?$AAF?$AAY?$AA?$AA@FNODOBFM@ DB 'I'
	DB	00H, 'O', 00H, 'C', 00H, 'T', 00H, 'L', 00H, '_', 00H, 'D', 00H
	DB	'I', 00H, 'S', 00H, 'K', 00H, '_', 00H, 'I', 00H, 'N', 00H, 'T'
	DB	00H, 'E', 00H, 'R', 00H, 'N', 00H, 'A', 00H, 'L', 00H, '_', 00H
	DB	'S', 00H, 'E', 00H, 'T', 00H, '_', 00H, 'V', 00H, 'E', 00H, 'R'
	DB	00H, 'I', 00H, 'F', 00H, 'Y', 00H, 00H, 00H	;  ?? ::FNODOBFM::`string'
text$s	ENDS
;	COMDAT ??_C@_1CK@JCHEBCIE@?$AAS?$AAM?$AAA?$AAR?$AAT?$AA_?$AAR?$AAC?$AAV?$AA_?$AAD?$AAR?$AAI?$AAV?$AAE?$AA_?$AAD?$AAA?$AAT?$AAA?$AA?$AA@FNODOBFM@
text$s	SEGMENT
??_C@_1CK@JCHEBCIE@?$AAS?$AAM?$AAA?$AAR?$AAT?$AA_?$AAR?$AAC?$AAV?$AA_?$AAD?$AAR?$AAI?$AAV?$AAE?$AA_?$AAD?$AAA?$AAT?$AAA?$AA?$AA@FNODOBFM@ DB 'S'
	DB	00H, 'M', 00H, 'A', 00H, 'R', 00H, 'T', 00H, '_', 00H, 'R', 00H
	DB	'C', 00H, 'V', 00H, '_', 00H, 'D', 00H, 'R', 00H, 'I', 00H, 'V'
	DB	00H, 'E', 00H, '_', 00H, 'D', 00H, 'A', 00H, 'T', 00H, 'A', 00H
	DB	00H, 00H					;  ?? ::FNODOBFM::`string'
text$s	ENDS
;	COMDAT ??_C@_1DC@MGFPICHJ@?$AAS?$AAM?$AAA?$AAR?$AAT?$AA_?$AAS?$AAE?$AAN?$AAD?$AA_?$AAD?$AAR?$AAI?$AAV?$AAE?$AA_?$AAC?$AAO?$AAM?$AAM?$AAA?$AAN?$AAD?$AA?$AA@FNODOBFM@
text$s	SEGMENT
??_C@_1DC@MGFPICHJ@?$AAS?$AAM?$AAA?$AAR?$AAT?$AA_?$AAS?$AAE?$AAN?$AAD?$AA_?$AAD?$AAR?$AAI?$AAV?$AAE?$AA_?$AAC?$AAO?$AAM?$AAM?$AAA?$AAN?$AAD?$AA?$AA@FNODOBFM@ DB 'S'
	DB	00H, 'M', 00H, 'A', 00H, 'R', 00H, 'T', 00H, '_', 00H, 'S', 00H
	DB	'E', 00H, 'N', 00H, 'D', 00H, '_', 00H, 'D', 00H, 'R', 00H, 'I'
	DB	00H, 'V', 00H, 'E', 00H, '_', 00H, 'C', 00H, 'O', 00H, 'M', 00H
	DB	'M', 00H, 'A', 00H, 'N', 00H, 'D', 00H, 00H, 00H ;  ?? ::FNODOBFM::`string'
text$s	ENDS
;	COMDAT ??_C@_1CE@PLNOGJJD@?$AAS?$AAM?$AAA?$AAR?$AAT?$AA_?$AAG?$AAE?$AAT?$AA_?$AAV?$AAE?$AAR?$AAS?$AAI?$AAO?$AAN?$AA?$AA@FNODOBFM@
text$s	SEGMENT
??_C@_1CE@PLNOGJJD@?$AAS?$AAM?$AAA?$AAR?$AAT?$AA_?$AAG?$AAE?$AAT?$AA_?$AAV?$AAE?$AAR?$AAS?$AAI?$AAO?$AAN?$AA?$AA@FNODOBFM@ DB 'S'
	DB	00H, 'M', 00H, 'A', 00H, 'R', 00H, 'T', 00H, '_', 00H, 'G', 00H
	DB	'E', 00H, 'T', 00H, '_', 00H, 'V', 00H, 'E', 00H, 'R', 00H, 'S'
	DB	00H, 'I', 00H, 'O', 00H, 'N', 00H, 00H, 00H	;  ?? ::FNODOBFM::`string'
text$s	ENDS
;	COMDAT ??_C@_1DK@NNJOEKIN@?$AAI?$AAO?$AAC?$AAT?$AAL?$AA_?$AAD?$AAI?$AAS?$AAK?$AA_?$AAC?$AAO?$AAN?$AAT?$AAR?$AAO?$AAL?$AAL?$AAE?$AAR?$AA_?$AAN?$AAU?$AAM?$AAB?$AAE?$AAR?$AA?$AA@FNODOBFM@
text$s	SEGMENT
??_C@_1DK@NNJOEKIN@?$AAI?$AAO?$AAC?$AAT?$AAL?$AA_?$AAD?$AAI?$AAS?$AAK?$AA_?$AAC?$AAO?$AAN?$AAT?$AAR?$AAO?$AAL?$AAL?$AAE?$AAR?$AA_?$AAN?$AAU?$AAM?$AAB?$AAE?$AAR?$AA?$AA@FNODOBFM@ DB 'I'
	DB	00H, 'O', 00H, 'C', 00H, 'T', 00H, 'L', 00H, '_', 00H, 'D', 00H
	DB	'I', 00H, 'S', 00H, 'K', 00H, '_', 00H, 'C', 00H, 'O', 00H, 'N'
	DB	00H, 'T', 00H, 'R', 00H, 'O', 00H, 'L', 00H, 'L', 00H, 'E', 00H
	DB	'R', 00H, '_', 00H, 'N', 00H, 'U', 00H, 'M', 00H, 'B', 00H, 'E'
	DB	00H, 'R', 00H, 00H, 00H			;  ?? ::FNODOBFM::`string'
text$s	ENDS
;	COMDAT ??_C@_1DA@EGLLKJNO@?$AAI?$AAO?$AAC?$AAT?$AAL?$AA_?$AAD?$AAI?$AAS?$AAK?$AA_?$AAR?$AAE?$AAQ?$AAU?$AAE?$AAS?$AAT?$AA_?$AAD?$AAA?$AAT?$AAA?$AA?$AA@FNODOBFM@
text$s	SEGMENT
??_C@_1DA@EGLLKJNO@?$AAI?$AAO?$AAC?$AAT?$AAL?$AA_?$AAD?$AAI?$AAS?$AAK?$AA_?$AAR?$AAE?$AAQ?$AAU?$AAE?$AAS?$AAT?$AA_?$AAD?$AAA?$AAT?$AAA?$AA?$AA@FNODOBFM@ DB 'I'
	DB	00H, 'O', 00H, 'C', 00H, 'T', 00H, 'L', 00H, '_', 00H, 'D', 00H
	DB	'I', 00H, 'S', 00H, 'K', 00H, '_', 00H, 'R', 00H, 'E', 00H, 'Q'
	DB	00H, 'U', 00H, 'E', 00H, 'S', 00H, 'T', 00H, '_', 00H, 'D', 00H
	DB	'A', 00H, 'T', 00H, 'A', 00H, 00H, 00H	;  ?? ::FNODOBFM::`string'
text$s	ENDS
;	COMDAT ??_C@_1DK@EFIEFEEG@?$AAI?$AAO?$AAC?$AAT?$AAL?$AA_?$AAD?$AAI?$AAS?$AAK?$AA_?$AAR?$AAE?$AAQ?$AAU?$AAE?$AAS?$AAT?$AA_?$AAS?$AAT?$AAR?$AAU?$AAC?$AAT?$AAU?$AAR?$AAE?$AA?$AA@FNODOBFM@
text$s	SEGMENT
??_C@_1DK@EFIEFEEG@?$AAI?$AAO?$AAC?$AAT?$AAL?$AA_?$AAD?$AAI?$AAS?$AAK?$AA_?$AAR?$AAE?$AAQ?$AAU?$AAE?$AAS?$AAT?$AA_?$AAS?$AAT?$AAR?$AAU?$AAC?$AAT?$AAU?$AAR?$AAE?$AA?$AA@FNODOBFM@ DB 'I'
	DB	00H, 'O', 00H, 'C', 00H, 'T', 00H, 'L', 00H, '_', 00H, 'D', 00H
	DB	'I', 00H, 'S', 00H, 'K', 00H, '_', 00H, 'R', 00H, 'E', 00H, 'Q'
	DB	00H, 'U', 00H, 'E', 00H, 'S', 00H, 'T', 00H, '_', 00H, 'S', 00H
	DB	'T', 00H, 'R', 00H, 'U', 00H, 'C', 00H, 'T', 00H, 'U', 00H, 'R'
	DB	00H, 'E', 00H, 00H, 00H			;  ?? ::FNODOBFM::`string'
text$s	ENDS
;	COMDAT ??_C@_1DG@BLHGEOGG@?$AAI?$AAO?$AAC?$AAT?$AAL?$AA_?$AAD?$AAI?$AAS?$AAK?$AA_?$AAH?$AAI?$AAS?$AAT?$AAO?$AAG?$AAR?$AAA?$AAM?$AA_?$AAR?$AAE?$AAS?$AAE?$AAT?$AA?$AA@FNODOBFM@
text$s	SEGMENT
??_C@_1DG@BLHGEOGG@?$AAI?$AAO?$AAC?$AAT?$AAL?$AA_?$AAD?$AAI?$AAS?$AAK?$AA_?$AAH?$AAI?$AAS?$AAT?$AAO?$AAG?$AAR?$AAA?$AAM?$AA_?$AAR?$AAE?$AAS?$AAE?$AAT?$AA?$AA@FNODOBFM@ DB 'I'
	DB	00H, 'O', 00H, 'C', 00H, 'T', 00H, 'L', 00H, '_', 00H, 'D', 00H
	DB	'I', 00H, 'S', 00H, 'K', 00H, '_', 00H, 'H', 00H, 'I', 00H, 'S'
	DB	00H, 'T', 00H, 'O', 00H, 'G', 00H, 'R', 00H, 'A', 00H, 'M', 00H
	DB	'_', 00H, 'R', 00H, 'E', 00H, 'S', 00H, 'E', 00H, 'T', 00H, 00H
	DB	00H						;  ?? ::FNODOBFM::`string'
text$s	ENDS
;	COMDAT ??_C@_1DE@OGHADOL@?$AAI?$AAO?$AAC?$AAT?$AAL?$AA_?$AAD?$AAI?$AAS?$AAK?$AA_?$AAH?$AAI?$AAS?$AAT?$AAO?$AAG?$AAR?$AAA?$AAM?$AA_?$AAD?$AAA?$AAT?$AAA?$AA?$AA@FNODOBFM@
text$s	SEGMENT
??_C@_1DE@OGHADOL@?$AAI?$AAO?$AAC?$AAT?$AAL?$AA_?$AAD?$AAI?$AAS?$AAK?$AA_?$AAH?$AAI?$AAS?$AAT?$AAO?$AAG?$AAR?$AAA?$AAM?$AA_?$AAD?$AAA?$AAT?$AAA?$AA?$AA@FNODOBFM@ DB 'I'
	DB	00H, 'O', 00H, 'C', 00H, 'T', 00H, 'L', 00H, '_', 00H, 'D', 00H
	DB	'I', 00H, 'S', 00H, 'K', 00H, '_', 00H, 'H', 00H, 'I', 00H, 'S'
	DB	00H, 'T', 00H, 'O', 00H, 'G', 00H, 'R', 00H, 'A', 00H, 'M', 00H
	DB	'_', 00H, 'D', 00H, 'A', 00H, 'T', 00H, 'A', 00H, 00H, 00H ;  ?? ::FNODOBFM::`string'
text$s	ENDS
;	COMDAT ??_C@_1DO@JMICENAF@?$AAI?$AAO?$AAC?$AAT?$AAL?$AA_?$AAD?$AAI?$AAS?$AAK?$AA_?$AAH?$AAI?$AAS?$AAT?$AAO?$AAG?$AAR?$AAA?$AAM?$AA_?$AAS?$AAT?$AAR?$AAU?$AAC?$AAT?$AAU?$AAR?$AAE?$AA?$AA@FNODOBFM@
text$s	SEGMENT
??_C@_1DO@JMICENAF@?$AAI?$AAO?$AAC?$AAT?$AAL?$AA_?$AAD?$AAI?$AAS?$AAK?$AA_?$AAH?$AAI?$AAS?$AAT?$AAO?$AAG?$AAR?$AAA?$AAM?$AA_?$AAS?$AAT?$AAR?$AAU?$AAC?$AAT?$AAU?$AAR?$AAE?$AA?$AA@FNODOBFM@ DB 'I'
	DB	00H, 'O', 00H, 'C', 00H, 'T', 00H, 'L', 00H, '_', 00H, 'D', 00H
	DB	'I', 00H, 'S', 00H, 'K', 00H, '_', 00H, 'H', 00H, 'I', 00H, 'S'
	DB	00H, 'T', 00H, 'O', 00H, 'G', 00H, 'R', 00H, 'A', 00H, 'M', 00H
	DB	'_', 00H, 'S', 00H, 'T', 00H, 'R', 00H, 'U', 00H, 'C', 00H, 'T'
	DB	00H, 'U', 00H, 'R', 00H, 'E', 00H, 00H, 00H	;  ?? ::FNODOBFM::`string'
text$s	ENDS
;	COMDAT ??_C@_1DI@LHHOILKE@?$AAI?$AAO?$AAC?$AAT?$AAL?$AA_?$AAD?$AAI?$AAS?$AAK?$AA_?$AAF?$AAO?$AAR?$AAM?$AAA?$AAT?$AA_?$AAT?$AAR?$AAA?$AAC?$AAK?$AAS?$AA_?$AAE?$AAX?$AA?$AA@FNODOBFM@
text$s	SEGMENT
??_C@_1DI@LHHOILKE@?$AAI?$AAO?$AAC?$AAT?$AAL?$AA_?$AAD?$AAI?$AAS?$AAK?$AA_?$AAF?$AAO?$AAR?$AAM?$AAA?$AAT?$AA_?$AAT?$AAR?$AAA?$AAC?$AAK?$AAS?$AA_?$AAE?$AAX?$AA?$AA@FNODOBFM@ DB 'I'
	DB	00H, 'O', 00H, 'C', 00H, 'T', 00H, 'L', 00H, '_', 00H, 'D', 00H
	DB	'I', 00H, 'S', 00H, 'K', 00H, '_', 00H, 'F', 00H, 'O', 00H, 'R'
	DB	00H, 'M', 00H, 'A', 00H, 'T', 00H, '_', 00H, 'T', 00H, 'R', 00H
	DB	'A', 00H, 'C', 00H, 'K', 00H, 'S', 00H, '_', 00H, 'E', 00H, 'X'
	DB	00H, 00H, 00H				;  ?? ::FNODOBFM::`string'
text$s	ENDS
;	COMDAT ??_C@_1CG@LCBFNDKM@?$AAI?$AAO?$AAC?$AAT?$AAL?$AA_?$AAD?$AAI?$AAS?$AAK?$AA_?$AAL?$AAO?$AAG?$AAG?$AAI?$AAN?$AAG?$AA?$AA@FNODOBFM@
text$s	SEGMENT
??_C@_1CG@LCBFNDKM@?$AAI?$AAO?$AAC?$AAT?$AAL?$AA_?$AAD?$AAI?$AAS?$AAK?$AA_?$AAL?$AAO?$AAG?$AAG?$AAI?$AAN?$AAG?$AA?$AA@FNODOBFM@ DB 'I'
	DB	00H, 'O', 00H, 'C', 00H, 'T', 00H, 'L', 00H, '_', 00H, 'D', 00H
	DB	'I', 00H, 'S', 00H, 'K', 00H, '_', 00H, 'L', 00H, 'O', 00H, 'G'
	DB	00H, 'G', 00H, 'I', 00H, 'N', 00H, 'G', 00H, 00H, 00H ;  ?? ::FNODOBFM::`string'
text$s	ENDS
;	COMDAT ??_C@_1CO@MFHKENAI@?$AAI?$AAO?$AAC?$AAT?$AAL?$AA_?$AAD?$AAI?$AAS?$AAK?$AA_?$AAI?$AAS?$AA_?$AAW?$AAR?$AAI?$AAT?$AAA?$AAB?$AAL?$AAE?$AA?$AA@FNODOBFM@
text$s	SEGMENT
??_C@_1CO@MFHKENAI@?$AAI?$AAO?$AAC?$AAT?$AAL?$AA_?$AAD?$AAI?$AAS?$AAK?$AA_?$AAI?$AAS?$AA_?$AAW?$AAR?$AAI?$AAT?$AAA?$AAB?$AAL?$AAE?$AA?$AA@FNODOBFM@ DB 'I'
	DB	00H, 'O', 00H, 'C', 00H, 'T', 00H, 'L', 00H, '_', 00H, 'D', 00H
	DB	'I', 00H, 'S', 00H, 'K', 00H, '_', 00H, 'I', 00H, 'S', 00H, '_'
	DB	00H, 'W', 00H, 'R', 00H, 'I', 00H, 'T', 00H, 'A', 00H, 'B', 00H
	DB	'L', 00H, 'E', 00H, 00H, 00H			;  ?? ::FNODOBFM::`string'
text$s	ENDS
;	COMDAT ??_C@_1CO@LEDAJMII@?$AAI?$AAO?$AAC?$AAT?$AAL?$AA_?$AAD?$AAI?$AAS?$AAK?$AA_?$AAP?$AAE?$AAR?$AAF?$AAO?$AAR?$AAM?$AAA?$AAN?$AAC?$AAE?$AA?$AA@FNODOBFM@
text$s	SEGMENT
??_C@_1CO@LEDAJMII@?$AAI?$AAO?$AAC?$AAT?$AAL?$AA_?$AAD?$AAI?$AAS?$AAK?$AA_?$AAP?$AAE?$AAR?$AAF?$AAO?$AAR?$AAM?$AAA?$AAN?$AAC?$AAE?$AA?$AA@FNODOBFM@ DB 'I'
	DB	00H, 'O', 00H, 'C', 00H, 'T', 00H, 'L', 00H, '_', 00H, 'D', 00H
	DB	'I', 00H, 'S', 00H, 'K', 00H, '_', 00H, 'P', 00H, 'E', 00H, 'R'
	DB	00H, 'F', 00H, 'O', 00H, 'R', 00H, 'M', 00H, 'A', 00H, 'N', 00H
	DB	'C', 00H, 'E', 00H, 00H, 00H			;  ?? ::FNODOBFM::`string'
text$s	ENDS
;	COMDAT ??_C@_1DG@HPLPDECO@?$AAI?$AAO?$AAC?$AAT?$AAL?$AA_?$AAD?$AAI?$AAS?$AAK?$AA_?$AAR?$AAE?$AAA?$AAS?$AAS?$AAI?$AAG?$AAN?$AA_?$AAB?$AAL?$AAO?$AAC?$AAK?$AAS?$AA?$AA@FNODOBFM@
text$s	SEGMENT
??_C@_1DG@HPLPDECO@?$AAI?$AAO?$AAC?$AAT?$AAL?$AA_?$AAD?$AAI?$AAS?$AAK?$AA_?$AAR?$AAE?$AAA?$AAS?$AAS?$AAI?$AAG?$AAN?$AA_?$AAB?$AAL?$AAO?$AAC?$AAK?$AAS?$AA?$AA@FNODOBFM@ DB 'I'
	DB	00H, 'O', 00H, 'C', 00H, 'T', 00H, 'L', 00H, '_', 00H, 'D', 00H
	DB	'I', 00H, 'S', 00H, 'K', 00H, '_', 00H, 'R', 00H, 'E', 00H, 'A'
	DB	00H, 'S', 00H, 'S', 00H, 'I', 00H, 'G', 00H, 'N', 00H, '_', 00H
	DB	'B', 00H, 'L', 00H, 'O', 00H, 'C', 00H, 'K', 00H, 'S', 00H, 00H
	DB	00H						;  ?? ::FNODOBFM::`string'
text$s	ENDS
;	COMDAT ??_C@_1DC@PCKIDBBB@?$AAI?$AAO?$AAC?$AAT?$AAL?$AA_?$AAD?$AAI?$AAS?$AAK?$AA_?$AAF?$AAO?$AAR?$AAM?$AAA?$AAT?$AA_?$AAT?$AAR?$AAA?$AAC?$AAK?$AAS?$AA?$AA@FNODOBFM@
text$s	SEGMENT
??_C@_1DC@PCKIDBBB@?$AAI?$AAO?$AAC?$AAT?$AAL?$AA_?$AAD?$AAI?$AAS?$AAK?$AA_?$AAF?$AAO?$AAR?$AAM?$AAA?$AAT?$AA_?$AAT?$AAR?$AAA?$AAC?$AAK?$AAS?$AA?$AA@FNODOBFM@ DB 'I'
	DB	00H, 'O', 00H, 'C', 00H, 'T', 00H, 'L', 00H, '_', 00H, 'D', 00H
	DB	'I', 00H, 'S', 00H, 'K', 00H, '_', 00H, 'F', 00H, 'O', 00H, 'R'
	DB	00H, 'M', 00H, 'A', 00H, 'T', 00H, '_', 00H, 'T', 00H, 'R', 00H
	DB	'A', 00H, 'C', 00H, 'K', 00H, 'S', 00H, 00H, 00H ;  ?? ::FNODOBFM::`string'
text$s	ENDS
;	COMDAT ??_C@_1CE@LGEELOJE@?$AAI?$AAO?$AAC?$AAT?$AAL?$AA_?$AAD?$AAI?$AAS?$AAK?$AA_?$AAV?$AAE?$AAR?$AAI?$AAF?$AAY?$AA?$AA@FNODOBFM@
text$s	SEGMENT
??_C@_1CE@LGEELOJE@?$AAI?$AAO?$AAC?$AAT?$AAL?$AA_?$AAD?$AAI?$AAS?$AAK?$AA_?$AAV?$AAE?$AAR?$AAI?$AAF?$AAY?$AA?$AA@FNODOBFM@ DB 'I'
	DB	00H, 'O', 00H, 'C', 00H, 'T', 00H, 'L', 00H, '_', 00H, 'D', 00H
	DB	'I', 00H, 'S', 00H, 'K', 00H, '_', 00H, 'V', 00H, 'E', 00H, 'R'
	DB	00H, 'I', 00H, 'F', 00H, 'Y', 00H, 00H, 00H	;  ?? ::FNODOBFM::`string'
text$s	ENDS
;	COMDAT ??_C@_1DO@EPIDKIKJ@?$AAI?$AAO?$AAC?$AAT?$AAL?$AA_?$AAD?$AAI?$AAS?$AAK?$AA_?$AAS?$AAE?$AAT?$AA_?$AAD?$AAR?$AAI?$AAV?$AAE?$AA_?$AAL?$AAA?$AAY?$AAO?$AAU?$AAT?$AA_?$AAE?$AAX?$AA?$AA@FNODOBFM@
text$s	SEGMENT
??_C@_1DO@EPIDKIKJ@?$AAI?$AAO?$AAC?$AAT?$AAL?$AA_?$AAD?$AAI?$AAS?$AAK?$AA_?$AAS?$AAE?$AAT?$AA_?$AAD?$AAR?$AAI?$AAV?$AAE?$AA_?$AAL?$AAA?$AAY?$AAO?$AAU?$AAT?$AA_?$AAE?$AAX?$AA?$AA@FNODOBFM@ DB 'I'
	DB	00H, 'O', 00H, 'C', 00H, 'T', 00H, 'L', 00H, '_', 00H, 'D', 00H
	DB	'I', 00H, 'S', 00H, 'K', 00H, '_', 00H, 'S', 00H, 'E', 00H, 'T'
	DB	00H, '_', 00H, 'D', 00H, 'R', 00H, 'I', 00H, 'V', 00H, 'E', 00H
	DB	'_', 00H, 'L', 00H, 'A', 00H, 'Y', 00H, 'O', 00H, 'U', 00H, 'T'
	DB	00H, '_', 00H, 'E', 00H, 'X', 00H, 00H, 00H	;  ?? ::FNODOBFM::`string'
text$s	ENDS
;	COMDAT ??_C@_1DI@CCDFFIEC@?$AAI?$AAO?$AAC?$AAT?$AAL?$AA_?$AAD?$AAI?$AAS?$AAK?$AA_?$AAG?$AAE?$AAT?$AA_?$AAD?$AAR?$AAI?$AAV?$AAE?$AA_?$AAL?$AAA?$AAY?$AAO?$AAU?$AAT?$AA?$AA@FNODOBFM@
text$s	SEGMENT
??_C@_1DI@CCDFFIEC@?$AAI?$AAO?$AAC?$AAT?$AAL?$AA_?$AAD?$AAI?$AAS?$AAK?$AA_?$AAG?$AAE?$AAT?$AA_?$AAD?$AAR?$AAI?$AAV?$AAE?$AA_?$AAL?$AAA?$AAY?$AAO?$AAU?$AAT?$AA?$AA@FNODOBFM@ DB 'I'
	DB	00H, 'O', 00H, 'C', 00H, 'T', 00H, 'L', 00H, '_', 00H, 'D', 00H
	DB	'I', 00H, 'S', 00H, 'K', 00H, '_', 00H, 'G', 00H, 'E', 00H, 'T'
	DB	00H, '_', 00H, 'D', 00H, 'R', 00H, 'I', 00H, 'V', 00H, 'E', 00H
	DB	'_', 00H, 'L', 00H, 'A', 00H, 'Y', 00H, 'O', 00H, 'U', 00H, 'T'
	DB	00H, 00H, 00H				;  ?? ::FNODOBFM::`string'
text$s	ENDS
;	COMDAT ??_C@_1DM@FAAIHMNH@?$AAI?$AAO?$AAC?$AAT?$AAL?$AA_?$AAD?$AAI?$AAS?$AAK?$AA_?$AAS?$AAE?$AAT?$AA_?$AAP?$AAA?$AAR?$AAT?$AAI?$AAT?$AAI?$AAO?$AAN?$AA_?$AAI?$AAN?$AAF?$AAO?$AA?$AA@FNODOBFM@
text$s	SEGMENT
??_C@_1DM@FAAIHMNH@?$AAI?$AAO?$AAC?$AAT?$AAL?$AA_?$AAD?$AAI?$AAS?$AAK?$AA_?$AAS?$AAE?$AAT?$AA_?$AAP?$AAA?$AAR?$AAT?$AAI?$AAT?$AAI?$AAO?$AAN?$AA_?$AAI?$AAN?$AAF?$AAO?$AA?$AA@FNODOBFM@ DB 'I'
	DB	00H, 'O', 00H, 'C', 00H, 'T', 00H, 'L', 00H, '_', 00H, 'D', 00H
	DB	'I', 00H, 'S', 00H, 'K', 00H, '_', 00H, 'S', 00H, 'E', 00H, 'T'
	DB	00H, '_', 00H, 'P', 00H, 'A', 00H, 'R', 00H, 'T', 00H, 'I', 00H
	DB	'T', 00H, 'I', 00H, 'O', 00H, 'N', 00H, '_', 00H, 'I', 00H, 'N'
	DB	00H, 'F', 00H, 'O', 00H, 00H, 00H		;  ?? ::FNODOBFM::`string'
text$s	ENDS
;	COMDAT ??_C@_1EC@CAILBHJF@?$AAI?$AAO?$AAC?$AAT?$AAL?$AA_?$AAD?$AAI?$AAS?$AAK?$AA_?$AAG?$AAE?$AAT?$AA_?$AAP?$AAA?$AAR?$AAT?$AAI?$AAT?$AAI?$AAO?$AAN?$AA_?$AAI?$AAN?$AAF?$AAO?$AA_?$AAE?$AAX@FNODOBFM@
text$s	SEGMENT
??_C@_1EC@CAILBHJF@?$AAI?$AAO?$AAC?$AAT?$AAL?$AA_?$AAD?$AAI?$AAS?$AAK?$AA_?$AAG?$AAE?$AAT?$AA_?$AAP?$AAA?$AAR?$AAT?$AAI?$AAT?$AAI?$AAO?$AAN?$AA_?$AAI?$AAN?$AAF?$AAO?$AA_?$AAE?$AAX@FNODOBFM@ DB 'I'
	DB	00H, 'O', 00H, 'C', 00H, 'T', 00H, 'L', 00H, '_', 00H, 'D', 00H
	DB	'I', 00H, 'S', 00H, 'K', 00H, '_', 00H, 'G', 00H, 'E', 00H, 'T'
	DB	00H, '_', 00H, 'P', 00H, 'A', 00H, 'R', 00H, 'T', 00H, 'I', 00H
	DB	'T', 00H, 'I', 00H, 'O', 00H, 'N', 00H, '_', 00H, 'I', 00H, 'N'
	DB	00H, 'F', 00H, 'O', 00H, '_', 00H, 'E', 00H, 'X', 00H, 00H, 00H ;  ?? ::FNODOBFM::`string'
text$s	ENDS
;	COMDAT ??_C@_1DM@LOAKHCPB@?$AAI?$AAO?$AAC?$AAT?$AAL?$AA_?$AAD?$AAI?$AAS?$AAK?$AA_?$AAG?$AAE?$AAT?$AA_?$AAP?$AAA?$AAR?$AAT?$AAI?$AAT?$AAI?$AAO?$AAN?$AA_?$AAI?$AAN?$AAF?$AAO?$AA?$AA@FNODOBFM@
text$s	SEGMENT
??_C@_1DM@LOAKHCPB@?$AAI?$AAO?$AAC?$AAT?$AAL?$AA_?$AAD?$AAI?$AAS?$AAK?$AA_?$AAG?$AAE?$AAT?$AA_?$AAP?$AAA?$AAR?$AAT?$AAI?$AAT?$AAI?$AAO?$AAN?$AA_?$AAI?$AAN?$AAF?$AAO?$AA?$AA@FNODOBFM@ DB 'I'
	DB	00H, 'O', 00H, 'C', 00H, 'T', 00H, 'L', 00H, '_', 00H, 'D', 00H
	DB	'I', 00H, 'S', 00H, 'K', 00H, '_', 00H, 'G', 00H, 'E', 00H, 'T'
	DB	00H, '_', 00H, 'P', 00H, 'A', 00H, 'R', 00H, 'T', 00H, 'I', 00H
	DB	'T', 00H, 'I', 00H, 'O', 00H, 'N', 00H, '_', 00H, 'I', 00H, 'N'
	DB	00H, 'F', 00H, 'O', 00H, 00H, 00H		;  ?? ::FNODOBFM::`string'
text$s	ENDS
;	COMDAT ??_C@_1EA@IKPNDHCL@?$AAI?$AAO?$AAC?$AAT?$AAL?$AA_?$AAS?$AAT?$AAO?$AAR?$AAA?$AAG?$AAE?$AA_?$AAG?$AAE?$AAT?$AA_?$AAD?$AAE?$AAV?$AAI?$AAC?$AAE?$AA_?$AAN?$AAU?$AAM?$AAB?$AAE?$AAR?$AA?$AA@FNODOBFM@
text$s	SEGMENT
??_C@_1EA@IKPNDHCL@?$AAI?$AAO?$AAC?$AAT?$AAL?$AA_?$AAS?$AAT?$AAO?$AAR?$AAA?$AAG?$AAE?$AA_?$AAG?$AAE?$AAT?$AA_?$AAD?$AAE?$AAV?$AAI?$AAC?$AAE?$AA_?$AAN?$AAU?$AAM?$AAB?$AAE?$AAR?$AA?$AA@FNODOBFM@ DB 'I'
	DB	00H, 'O', 00H, 'C', 00H, 'T', 00H, 'L', 00H, '_', 00H, 'S', 00H
	DB	'T', 00H, 'O', 00H, 'R', 00H, 'A', 00H, 'G', 00H, 'E', 00H, '_'
	DB	00H, 'G', 00H, 'E', 00H, 'T', 00H, '_', 00H, 'D', 00H, 'E', 00H
	DB	'V', 00H, 'I', 00H, 'C', 00H, 'E', 00H, '_', 00H, 'N', 00H, 'U'
	DB	00H, 'M', 00H, 'B', 00H, 'E', 00H, 'R', 00H, 00H, 00H ;  ?? ::FNODOBFM::`string'
text$s	ENDS
;	COMDAT ??_C@_1DG@DLDFECDE@?$AAI?$AAO?$AAC?$AAT?$AAL?$AA_?$AAD?$AAI?$AAS?$AAK?$AA_?$AAG?$AAE?$AAT?$AA_?$AAL?$AAE?$AAN?$AAG?$AAT?$AAH?$AA_?$AAI?$AAN?$AAF?$AAO?$AA?$AA@FNODOBFM@
text$s	SEGMENT
??_C@_1DG@DLDFECDE@?$AAI?$AAO?$AAC?$AAT?$AAL?$AA_?$AAD?$AAI?$AAS?$AAK?$AA_?$AAG?$AAE?$AAT?$AA_?$AAL?$AAE?$AAN?$AAG?$AAT?$AAH?$AA_?$AAI?$AAN?$AAF?$AAO?$AA?$AA@FNODOBFM@ DB 'I'
	DB	00H, 'O', 00H, 'C', 00H, 'T', 00H, 'L', 00H, '_', 00H, 'D', 00H
	DB	'I', 00H, 'S', 00H, 'K', 00H, '_', 00H, 'G', 00H, 'E', 00H, 'T'
	DB	00H, '_', 00H, 'L', 00H, 'E', 00H, 'N', 00H, 'G', 00H, 'T', 00H
	DB	'H', 00H, '_', 00H, 'I', 00H, 'N', 00H, 'F', 00H, 'O', 00H, 00H
	DB	00H						;  ?? ::FNODOBFM::`string'
text$s	ENDS
;	COMDAT ??_C@_1FE@EBMKFIFJ@?$AAI?$AAO?$AAC?$AAT?$AAL?$AA_?$AAM?$AAO?$AAU?$AAN?$AAT?$AAM?$AAG?$AAR?$AA_?$AAV?$AAO?$AAL?$AAU?$AAM?$AAE?$AA_?$AAM?$AAO?$AAU?$AAN?$AAT?$AA_?$AAP?$AAO?$AAI?$AAN@FNODOBFM@
text$s	SEGMENT
??_C@_1FE@EBMKFIFJ@?$AAI?$AAO?$AAC?$AAT?$AAL?$AA_?$AAM?$AAO?$AAU?$AAN?$AAT?$AAM?$AAG?$AAR?$AA_?$AAV?$AAO?$AAL?$AAU?$AAM?$AAE?$AA_?$AAM?$AAO?$AAU?$AAN?$AAT?$AA_?$AAP?$AAO?$AAI?$AAN@FNODOBFM@ DB 'I'
	DB	00H, 'O', 00H, 'C', 00H, 'T', 00H, 'L', 00H, '_', 00H, 'M', 00H
	DB	'O', 00H, 'U', 00H, 'N', 00H, 'T', 00H, 'M', 00H, 'G', 00H, 'R'
	DB	00H, '_', 00H, 'V', 00H, 'O', 00H, 'L', 00H, 'U', 00H, 'M', 00H
	DB	'E', 00H, '_', 00H, 'M', 00H, 'O', 00H, 'U', 00H, 'N', 00H, 'T'
	DB	00H, '_', 00H, 'P', 00H, 'O', 00H, 'I', 00H, 'N', 00H, 'T', 00H
	DB	'_', 00H, 'D', 00H, 'E', 00H, 'L', 00H, 'E', 00H, 'T', 00H, 'E'
	DB	00H, 'D', 00H, 00H, 00H			;  ?? ::FNODOBFM::`string'
text$s	ENDS
;	COMDAT ??_C@_1FE@CLAOKMGL@?$AAI?$AAO?$AAC?$AAT?$AAL?$AA_?$AAM?$AAO?$AAU?$AAN?$AAT?$AAM?$AAG?$AAR?$AA_?$AAV?$AAO?$AAL?$AAU?$AAM?$AAE?$AA_?$AAM?$AAO?$AAU?$AAN?$AAT?$AA_?$AAP?$AAO?$AAI?$AAN@FNODOBFM@
text$s	SEGMENT
??_C@_1FE@CLAOKMGL@?$AAI?$AAO?$AAC?$AAT?$AAL?$AA_?$AAM?$AAO?$AAU?$AAN?$AAT?$AAM?$AAG?$AAR?$AA_?$AAV?$AAO?$AAL?$AAU?$AAM?$AAE?$AA_?$AAM?$AAO?$AAU?$AAN?$AAT?$AA_?$AAP?$AAO?$AAI?$AAN@FNODOBFM@ DB 'I'
	DB	00H, 'O', 00H, 'C', 00H, 'T', 00H, 'L', 00H, '_', 00H, 'M', 00H
	DB	'O', 00H, 'U', 00H, 'N', 00H, 'T', 00H, 'M', 00H, 'G', 00H, 'R'
	DB	00H, '_', 00H, 'V', 00H, 'O', 00H, 'L', 00H, 'U', 00H, 'M', 00H
	DB	'E', 00H, '_', 00H, 'M', 00H, 'O', 00H, 'U', 00H, 'N', 00H, 'T'
	DB	00H, '_', 00H, 'P', 00H, 'O', 00H, 'I', 00H, 'N', 00H, 'T', 00H
	DB	'_', 00H, 'C', 00H, 'R', 00H, 'E', 00H, 'A', 00H, 'T', 00H, 'E'
	DB	00H, 'D', 00H, 00H, 00H			;  ?? ::FNODOBFM::`string'
text$s	ENDS
;	COMDAT ??_C@_1DI@LFNEEBHO@?$AAI?$AAO?$AAC?$AAT?$AAL?$AA_?$AAM?$AAO?$AAU?$AAN?$AAT?$AAM?$AAG?$AAR?$AA_?$AAQ?$AAU?$AAE?$AAR?$AAY?$AA_?$AAP?$AAO?$AAI?$AAN?$AAT?$AAS?$AA?$AA@FNODOBFM@
text$s	SEGMENT
??_C@_1DI@LFNEEBHO@?$AAI?$AAO?$AAC?$AAT?$AAL?$AA_?$AAM?$AAO?$AAU?$AAN?$AAT?$AAM?$AAG?$AAR?$AA_?$AAQ?$AAU?$AAE?$AAR?$AAY?$AA_?$AAP?$AAO?$AAI?$AAN?$AAT?$AAS?$AA?$AA@FNODOBFM@ DB 'I'
	DB	00H, 'O', 00H, 'C', 00H, 'T', 00H, 'L', 00H, '_', 00H, 'M', 00H
	DB	'O', 00H, 'U', 00H, 'N', 00H, 'T', 00H, 'M', 00H, 'G', 00H, 'R'
	DB	00H, '_', 00H, 'Q', 00H, 'U', 00H, 'E', 00H, 'R', 00H, 'Y', 00H
	DB	'_', 00H, 'P', 00H, 'O', 00H, 'I', 00H, 'N', 00H, 'T', 00H, 'S'
	DB	00H, 00H, 00H				;  ?? ::FNODOBFM::`string'
text$s	ENDS
;	COMDAT ??_C@_1DI@BMKMBCGO@?$AAI?$AAO?$AAC?$AAT?$AAL?$AA_?$AAM?$AAO?$AAU?$AAN?$AAT?$AAD?$AAE?$AAV?$AA_?$AAL?$AAI?$AAN?$AAK?$AA_?$AAD?$AAE?$AAL?$AAE?$AAT?$AAE?$AAD?$AA?$AA@FNODOBFM@
text$s	SEGMENT
??_C@_1DI@BMKMBCGO@?$AAI?$AAO?$AAC?$AAT?$AAL?$AA_?$AAM?$AAO?$AAU?$AAN?$AAT?$AAD?$AAE?$AAV?$AA_?$AAL?$AAI?$AAN?$AAK?$AA_?$AAD?$AAE?$AAL?$AAE?$AAT?$AAE?$AAD?$AA?$AA@FNODOBFM@ DB 'I'
	DB	00H, 'O', 00H, 'C', 00H, 'T', 00H, 'L', 00H, '_', 00H, 'M', 00H
	DB	'O', 00H, 'U', 00H, 'N', 00H, 'T', 00H, 'D', 00H, 'E', 00H, 'V'
	DB	00H, '_', 00H, 'L', 00H, 'I', 00H, 'N', 00H, 'K', 00H, '_', 00H
	DB	'D', 00H, 'E', 00H, 'L', 00H, 'E', 00H, 'T', 00H, 'E', 00H, 'D'
	DB	00H, 00H, 00H				;  ?? ::FNODOBFM::`string'
text$s	ENDS
;	COMDAT ??_C@_1DI@HGGIOGFM@?$AAI?$AAO?$AAC?$AAT?$AAL?$AA_?$AAM?$AAO?$AAU?$AAN?$AAT?$AAD?$AAE?$AAV?$AA_?$AAL?$AAI?$AAN?$AAK?$AA_?$AAC?$AAR?$AAE?$AAA?$AAT?$AAE?$AAD?$AA?$AA@FNODOBFM@
text$s	SEGMENT
??_C@_1DI@HGGIOGFM@?$AAI?$AAO?$AAC?$AAT?$AAL?$AA_?$AAM?$AAO?$AAU?$AAN?$AAT?$AAD?$AAE?$AAV?$AA_?$AAL?$AAI?$AAN?$AAK?$AA_?$AAC?$AAR?$AAE?$AAA?$AAT?$AAE?$AAD?$AA?$AA@FNODOBFM@ DB 'I'
	DB	00H, 'O', 00H, 'C', 00H, 'T', 00H, 'L', 00H, '_', 00H, 'M', 00H
	DB	'O', 00H, 'U', 00H, 'N', 00H, 'T', 00H, 'D', 00H, 'E', 00H, 'V'
	DB	00H, '_', 00H, 'L', 00H, 'I', 00H, 'N', 00H, 'K', 00H, '_', 00H
	DB	'C', 00H, 'R', 00H, 'E', 00H, 'A', 00H, 'T', 00H, 'E', 00H, 'D'
	DB	00H, 00H, 00H				;  ?? ::FNODOBFM::`string'
text$s	ENDS
;	COMDAT ??_C@_1CI@DJEMJCBH@?$AAI?$AAO?$AAC?$AAT?$AAL?$AA_?$AAV?$AAO?$AAL?$AAU?$AAM?$AAE?$AA_?$AAO?$AAN?$AAL?$AAI?$AAN?$AAE?$AA?$AA@FNODOBFM@
text$s	SEGMENT
??_C@_1CI@DJEMJCBH@?$AAI?$AAO?$AAC?$AAT?$AAL?$AA_?$AAV?$AAO?$AAL?$AAU?$AAM?$AAE?$AA_?$AAO?$AAN?$AAL?$AAI?$AAN?$AAE?$AA?$AA@FNODOBFM@ DB 'I'
	DB	00H, 'O', 00H, 'C', 00H, 'T', 00H, 'L', 00H, '_', 00H, 'V', 00H
	DB	'O', 00H, 'L', 00H, 'U', 00H, 'M', 00H, 'E', 00H, '_', 00H, 'O'
	DB	00H, 'N', 00H, 'L', 00H, 'I', 00H, 'N', 00H, 'E', 00H, 00H, 00H ;  ?? ::FNODOBFM::`string'
text$s	ENDS
;	COMDAT ??_C@_1DO@OGNDJPNH@?$AAI?$AAO?$AAC?$AAT?$AAL?$AA_?$AAM?$AAO?$AAU?$AAN?$AAT?$AAD?$AAE?$AAV?$AA_?$AAQ?$AAU?$AAE?$AAR?$AAY?$AA_?$AAU?$AAN?$AAI?$AAQ?$AAU?$AAE?$AA_?$AAI?$AAD?$AA?$AA@FNODOBFM@
text$s	SEGMENT
??_C@_1DO@OGNDJPNH@?$AAI?$AAO?$AAC?$AAT?$AAL?$AA_?$AAM?$AAO?$AAU?$AAN?$AAT?$AAD?$AAE?$AAV?$AA_?$AAQ?$AAU?$AAE?$AAR?$AAY?$AA_?$AAU?$AAN?$AAI?$AAQ?$AAU?$AAE?$AA_?$AAI?$AAD?$AA?$AA@FNODOBFM@ DB 'I'
	DB	00H, 'O', 00H, 'C', 00H, 'T', 00H, 'L', 00H, '_', 00H, 'M', 00H
	DB	'O', 00H, 'U', 00H, 'N', 00H, 'T', 00H, 'D', 00H, 'E', 00H, 'V'
	DB	00H, '_', 00H, 'Q', 00H, 'U', 00H, 'E', 00H, 'R', 00H, 'Y', 00H
	DB	'_', 00H, 'U', 00H, 'N', 00H, 'I', 00H, 'Q', 00H, 'U', 00H, 'E'
	DB	00H, '_', 00H, 'I', 00H, 'D', 00H, 00H, 00H	;  ?? ::FNODOBFM::`string'
text$s	ENDS
;	COMDAT ??_C@_1FC@MNMCPAAJ@?$AAI?$AAO?$AAC?$AAT?$AAL?$AA_?$AAM?$AAO?$AAU?$AAN?$AAT?$AAD?$AAE?$AAV?$AA_?$AAQ?$AAU?$AAE?$AAR?$AAY?$AA_?$AAS?$AAU?$AAG?$AAG?$AAE?$AAS?$AAT?$AAE?$AAD?$AA_?$AAL@FNODOBFM@
text$s	SEGMENT
??_C@_1FC@MNMCPAAJ@?$AAI?$AAO?$AAC?$AAT?$AAL?$AA_?$AAM?$AAO?$AAU?$AAN?$AAT?$AAD?$AAE?$AAV?$AA_?$AAQ?$AAU?$AAE?$AAR?$AAY?$AA_?$AAS?$AAU?$AAG?$AAG?$AAE?$AAS?$AAT?$AAE?$AAD?$AA_?$AAL@FNODOBFM@ DB 'I'
	DB	00H, 'O', 00H, 'C', 00H, 'T', 00H, 'L', 00H, '_', 00H, 'M', 00H
	DB	'O', 00H, 'U', 00H, 'N', 00H, 'T', 00H, 'D', 00H, 'E', 00H, 'V'
	DB	00H, '_', 00H, 'Q', 00H, 'U', 00H, 'E', 00H, 'R', 00H, 'Y', 00H
	DB	'_', 00H, 'S', 00H, 'U', 00H, 'G', 00H, 'G', 00H, 'E', 00H, 'S'
	DB	00H, 'T', 00H, 'E', 00H, 'D', 00H, '_', 00H, 'L', 00H, 'I', 00H
	DB	'N', 00H, 'K', 00H, '_', 00H, 'N', 00H, 'A', 00H, 'M', 00H, 'E'
	DB	00H, 00H, 00H				;  ?? ::FNODOBFM::`string'
text$s	ENDS
;	COMDAT ??_C@_1EC@HFOIOEOM@?$AAI?$AAO?$AAC?$AAT?$AAL?$AA_?$AAM?$AAO?$AAU?$AAN?$AAT?$AAD?$AAE?$AAV?$AA_?$AAQ?$AAU?$AAE?$AAR?$AAY?$AA_?$AAD?$AAE?$AAV?$AAI?$AAC?$AAE?$AA_?$AAN?$AAA?$AAM?$AAE@FNODOBFM@
text$s	SEGMENT
??_C@_1EC@HFOIOEOM@?$AAI?$AAO?$AAC?$AAT?$AAL?$AA_?$AAM?$AAO?$AAU?$AAN?$AAT?$AAD?$AAE?$AAV?$AA_?$AAQ?$AAU?$AAE?$AAR?$AAY?$AA_?$AAD?$AAE?$AAV?$AAI?$AAC?$AAE?$AA_?$AAN?$AAA?$AAM?$AAE@FNODOBFM@ DB 'I'
	DB	00H, 'O', 00H, 'C', 00H, 'T', 00H, 'L', 00H, '_', 00H, 'M', 00H
	DB	'O', 00H, 'U', 00H, 'N', 00H, 'T', 00H, 'D', 00H, 'E', 00H, 'V'
	DB	00H, '_', 00H, 'Q', 00H, 'U', 00H, 'E', 00H, 'R', 00H, 'Y', 00H
	DB	'_', 00H, 'D', 00H, 'E', 00H, 'V', 00H, 'I', 00H, 'C', 00H, 'E'
	DB	00H, '_', 00H, 'N', 00H, 'A', 00H, 'M', 00H, 'E', 00H, 00H, 00H ;  ?? ::FNODOBFM::`string'
text$s	ENDS
;	COMDAT ??_C@_1EC@NPAFBAMN@?$AAI?$AAO?$AAC?$AAT?$AAL?$AA_?$AAD?$AAI?$AAS?$AAK?$AA_?$AAG?$AAE?$AAT?$AA_?$AAD?$AAR?$AAI?$AAV?$AAE?$AA_?$AAG?$AAE?$AAO?$AAM?$AAE?$AAT?$AAR?$AAY?$AA_?$AAE?$AAX@FNODOBFM@
text$s	SEGMENT
??_C@_1EC@NPAFBAMN@?$AAI?$AAO?$AAC?$AAT?$AAL?$AA_?$AAD?$AAI?$AAS?$AAK?$AA_?$AAG?$AAE?$AAT?$AA_?$AAD?$AAR?$AAI?$AAV?$AAE?$AA_?$AAG?$AAE?$AAO?$AAM?$AAE?$AAT?$AAR?$AAY?$AA_?$AAE?$AAX@FNODOBFM@ DB 'I'
	DB	00H, 'O', 00H, 'C', 00H, 'T', 00H, 'L', 00H, '_', 00H, 'D', 00H
	DB	'I', 00H, 'S', 00H, 'K', 00H, '_', 00H, 'G', 00H, 'E', 00H, 'T'
	DB	00H, '_', 00H, 'D', 00H, 'R', 00H, 'I', 00H, 'V', 00H, 'E', 00H
	DB	'_', 00H, 'G', 00H, 'E', 00H, 'O', 00H, 'M', 00H, 'E', 00H, 'T'
	DB	00H, 'R', 00H, 'Y', 00H, '_', 00H, 'E', 00H, 'X', 00H, 00H, 00H ;  ?? ::FNODOBFM::`string'
text$s	ENDS
;	COMDAT ??_C@_1DM@KPKDNCHM@?$AAI?$AAO?$AAC?$AAT?$AAL?$AA_?$AAD?$AAI?$AAS?$AAK?$AA_?$AAG?$AAE?$AAT?$AA_?$AAD?$AAR?$AAI?$AAV?$AAE?$AA_?$AAG?$AAE?$AAO?$AAM?$AAE?$AAT?$AAR?$AAY?$AA?$AA@FNODOBFM@
text$s	SEGMENT
??_C@_1DM@KPKDNCHM@?$AAI?$AAO?$AAC?$AAT?$AAL?$AA_?$AAD?$AAI?$AAS?$AAK?$AA_?$AAG?$AAE?$AAT?$AA_?$AAD?$AAR?$AAI?$AAV?$AAE?$AA_?$AAG?$AAE?$AAO?$AAM?$AAE?$AAT?$AAR?$AAY?$AA?$AA@FNODOBFM@ DB 'I'
	DB	00H, 'O', 00H, 'C', 00H, 'T', 00H, 'L', 00H, '_', 00H, 'D', 00H
	DB	'I', 00H, 'S', 00H, 'K', 00H, '_', 00H, 'G', 00H, 'E', 00H, 'T'
	DB	00H, '_', 00H, 'D', 00H, 'R', 00H, 'I', 00H, 'V', 00H, 'E', 00H
	DB	'_', 00H, 'G', 00H, 'E', 00H, 'O', 00H, 'M', 00H, 'E', 00H, 'T'
	DB	00H, 'R', 00H, 'Y', 00H, 00H, 00H		;  ?? ::FNODOBFM::`string'
text$s	ENDS
;	COMDAT ??_C@_1EK@FDCJEFAP@?$AAI?$AAO?$AAC?$AAT?$AAL?$AA_?$AAV?$AAO?$AAL?$AAU?$AAM?$AAE?$AA_?$AAG?$AAE?$AAT?$AA_?$AAV?$AAO?$AAL?$AAU?$AAM?$AAE?$AA_?$AAD?$AAI?$AAS?$AAK?$AA_?$AAE?$AAX?$AAT@FNODOBFM@
text$s	SEGMENT
??_C@_1EK@FDCJEFAP@?$AAI?$AAO?$AAC?$AAT?$AAL?$AA_?$AAV?$AAO?$AAL?$AAU?$AAM?$AAE?$AA_?$AAG?$AAE?$AAT?$AA_?$AAV?$AAO?$AAL?$AAU?$AAM?$AAE?$AA_?$AAD?$AAI?$AAS?$AAK?$AA_?$AAE?$AAX?$AAT@FNODOBFM@ DB 'I'
	DB	00H, 'O', 00H, 'C', 00H, 'T', 00H, 'L', 00H, '_', 00H, 'V', 00H
	DB	'O', 00H, 'L', 00H, 'U', 00H, 'M', 00H, 'E', 00H, '_', 00H, 'G'
	DB	00H, 'E', 00H, 'T', 00H, '_', 00H, 'V', 00H, 'O', 00H, 'L', 00H
	DB	'U', 00H, 'M', 00H, 'E', 00H, '_', 00H, 'D', 00H, 'I', 00H, 'S'
	DB	00H, 'K', 00H, '_', 00H, 'E', 00H, 'X', 00H, 'T', 00H, 'E', 00H
	DB	'N', 00H, 'T', 00H, 'S', 00H, 00H, 00H	;  ?? ::FNODOBFM::`string'
text$s	ENDS
;	COMDAT ??_C@_1EC@FOOPNHFI@?$AAT?$AAC?$AA_?$AAI?$AAO?$AAC?$AAT?$AAL?$AA_?$AAW?$AAR?$AAI?$AAT?$AAE?$AA_?$AAB?$AAO?$AAO?$AAT?$AA_?$AAD?$AAR?$AAI?$AAV?$AAE?$AA_?$AAS?$AAE?$AAC?$AAT?$AAO?$AAR@FNODOBFM@
text$s	SEGMENT
??_C@_1EC@FOOPNHFI@?$AAT?$AAC?$AA_?$AAI?$AAO?$AAC?$AAT?$AAL?$AA_?$AAW?$AAR?$AAI?$AAT?$AAE?$AA_?$AAB?$AAO?$AAO?$AAT?$AA_?$AAD?$AAR?$AAI?$AAV?$AAE?$AA_?$AAS?$AAE?$AAC?$AAT?$AAO?$AAR@FNODOBFM@ DB 'T'
	DB	00H, 'C', 00H, '_', 00H, 'I', 00H, 'O', 00H, 'C', 00H, 'T', 00H
	DB	'L', 00H, '_', 00H, 'W', 00H, 'R', 00H, 'I', 00H, 'T', 00H, 'E'
	DB	00H, '_', 00H, 'B', 00H, 'O', 00H, 'O', 00H, 'T', 00H, '_', 00H
	DB	'D', 00H, 'R', 00H, 'I', 00H, 'V', 00H, 'E', 00H, '_', 00H, 'S'
	DB	00H, 'E', 00H, 'C', 00H, 'T', 00H, 'O', 00H, 'R', 00H, 00H, 00H ;  ?? ::FNODOBFM::`string'
text$s	ENDS
;	COMDAT ??_C@_1DK@BNKDMLAM@?$AAT?$AAC?$AA_?$AAI?$AAO?$AAC?$AAT?$AAL?$AA_?$AAW?$AAI?$AAP?$AAE?$AA_?$AAP?$AAA?$AAS?$AAS?$AAW?$AAO?$AAR?$AAD?$AA_?$AAC?$AAA?$AAC?$AAH?$AAE?$AA?$AA@FNODOBFM@
text$s	SEGMENT
??_C@_1DK@BNKDMLAM@?$AAT?$AAC?$AA_?$AAI?$AAO?$AAC?$AAT?$AAL?$AA_?$AAW?$AAI?$AAP?$AAE?$AA_?$AAP?$AAA?$AAS?$AAS?$AAW?$AAO?$AAR?$AAD?$AA_?$AAC?$AAA?$AAC?$AAH?$AAE?$AA?$AA@FNODOBFM@ DB 'T'
	DB	00H, 'C', 00H, '_', 00H, 'I', 00H, 'O', 00H, 'C', 00H, 'T', 00H
	DB	'L', 00H, '_', 00H, 'W', 00H, 'I', 00H, 'P', 00H, 'E', 00H, '_'
	DB	00H, 'P', 00H, 'A', 00H, 'S', 00H, 'S', 00H, 'W', 00H, 'O', 00H
	DB	'R', 00H, 'D', 00H, '_', 00H, 'C', 00H, 'A', 00H, 'C', 00H, 'H'
	DB	00H, 'E', 00H, 00H, 00H			;  ?? ::FNODOBFM::`string'
text$s	ENDS
;	COMDAT ??_C@_1EC@FGBEDIDI@?$AAT?$AAC?$AA_?$AAI?$AAO?$AAC?$AAT?$AAL?$AA_?$AAS?$AAT?$AAA?$AAR?$AAT?$AA_?$AAD?$AAE?$AAC?$AAO?$AAY?$AA_?$AAS?$AAY?$AAS?$AAT?$AAE?$AAM?$AA_?$AAW?$AAI?$AAP?$AAE@FNODOBFM@
text$s	SEGMENT
??_C@_1EC@FGBEDIDI@?$AAT?$AAC?$AA_?$AAI?$AAO?$AAC?$AAT?$AAL?$AA_?$AAS?$AAT?$AAA?$AAR?$AAT?$AA_?$AAD?$AAE?$AAC?$AAO?$AAY?$AA_?$AAS?$AAY?$AAS?$AAT?$AAE?$AAM?$AA_?$AAW?$AAI?$AAP?$AAE@FNODOBFM@ DB 'T'
	DB	00H, 'C', 00H, '_', 00H, 'I', 00H, 'O', 00H, 'C', 00H, 'T', 00H
	DB	'L', 00H, '_', 00H, 'S', 00H, 'T', 00H, 'A', 00H, 'R', 00H, 'T'
	DB	00H, '_', 00H, 'D', 00H, 'E', 00H, 'C', 00H, 'O', 00H, 'Y', 00H
	DB	'_', 00H, 'S', 00H, 'Y', 00H, 'S', 00H, 'T', 00H, 'E', 00H, 'M'
	DB	00H, '_', 00H, 'W', 00H, 'I', 00H, 'P', 00H, 'E', 00H, 00H, 00H ;  ?? ::FNODOBFM::`string'
text$s	ENDS
;	COMDAT ??_C@_1FE@EBAIHKDI@?$AAT?$AAC?$AA_?$AAI?$AAO?$AAC?$AAT?$AAL?$AA_?$AAS?$AAE?$AAT?$AA_?$AAS?$AAY?$AAS?$AAT?$AAE?$AAM?$AA_?$AAF?$AAA?$AAV?$AAO?$AAR?$AAI?$AAT?$AAE?$AA_?$AAV?$AAO?$AAL@FNODOBFM@
text$s	SEGMENT
??_C@_1FE@EBAIHKDI@?$AAT?$AAC?$AA_?$AAI?$AAO?$AAC?$AAT?$AAL?$AA_?$AAS?$AAE?$AAT?$AA_?$AAS?$AAY?$AAS?$AAT?$AAE?$AAM?$AA_?$AAF?$AAA?$AAV?$AAO?$AAR?$AAI?$AAT?$AAE?$AA_?$AAV?$AAO?$AAL@FNODOBFM@ DB 'T'
	DB	00H, 'C', 00H, '_', 00H, 'I', 00H, 'O', 00H, 'C', 00H, 'T', 00H
	DB	'L', 00H, '_', 00H, 'S', 00H, 'E', 00H, 'T', 00H, '_', 00H, 'S'
	DB	00H, 'Y', 00H, 'S', 00H, 'T', 00H, 'E', 00H, 'M', 00H, '_', 00H
	DB	'F', 00H, 'A', 00H, 'V', 00H, 'O', 00H, 'R', 00H, 'I', 00H, 'T'
	DB	00H, 'E', 00H, '_', 00H, 'V', 00H, 'O', 00H, 'L', 00H, 'U', 00H
	DB	'M', 00H, 'E', 00H, '_', 00H, 'D', 00H, 'I', 00H, 'R', 00H, 'T'
	DB	00H, 'Y', 00H, 00H, 00H			;  ?? ::FNODOBFM::`string'
text$s	ENDS
;	COMDAT ??_C@_1DM@JFJLBNLP@?$AAT?$AAC?$AA_?$AAI?$AAO?$AAC?$AAT?$AAL?$AA_?$AAR?$AAE?$AAR?$AAE?$AAA?$AAD?$AA_?$AAD?$AAR?$AAI?$AAV?$AAE?$AAR?$AA_?$AAC?$AAO?$AAN?$AAF?$AAI?$AAG?$AA?$AA@FNODOBFM@
text$s	SEGMENT
??_C@_1DM@JFJLBNLP@?$AAT?$AAC?$AA_?$AAI?$AAO?$AAC?$AAT?$AAL?$AA_?$AAR?$AAE?$AAR?$AAE?$AAA?$AAD?$AA_?$AAD?$AAR?$AAI?$AAV?$AAE?$AAR?$AA_?$AAC?$AAO?$AAN?$AAF?$AAI?$AAG?$AA?$AA@FNODOBFM@ DB 'T'
	DB	00H, 'C', 00H, '_', 00H, 'I', 00H, 'O', 00H, 'C', 00H, 'T', 00H
	DB	'L', 00H, '_', 00H, 'R', 00H, 'E', 00H, 'R', 00H, 'E', 00H, 'A'
	DB	00H, 'D', 00H, '_', 00H, 'D', 00H, 'R', 00H, 'I', 00H, 'V', 00H
	DB	'E', 00H, 'R', 00H, '_', 00H, 'C', 00H, 'O', 00H, 'N', 00H, 'F'
	DB	00H, 'I', 00H, 'G', 00H, 00H, 00H		;  ?? ::FNODOBFM::`string'
text$s	ENDS
;	COMDAT ??_C@_1EG@GGODONFK@?$AAT?$AAC?$AA_?$AAI?$AAO?$AAC?$AAT?$AAL?$AA_?$AAR?$AAE?$AAO?$AAP?$AAE?$AAN?$AA_?$AAB?$AAO?$AAO?$AAT?$AA_?$AAV?$AAO?$AAL?$AAU?$AAM?$AAE?$AA_?$AAH?$AAE?$AAA?$AAD@FNODOBFM@
text$s	SEGMENT
??_C@_1EG@GGODONFK@?$AAT?$AAC?$AA_?$AAI?$AAO?$AAC?$AAT?$AAL?$AA_?$AAR?$AAE?$AAO?$AAP?$AAE?$AAN?$AA_?$AAB?$AAO?$AAO?$AAT?$AA_?$AAV?$AAO?$AAL?$AAU?$AAM?$AAE?$AA_?$AAH?$AAE?$AAA?$AAD@FNODOBFM@ DB 'T'
	DB	00H, 'C', 00H, '_', 00H, 'I', 00H, 'O', 00H, 'C', 00H, 'T', 00H
	DB	'L', 00H, '_', 00H, 'R', 00H, 'E', 00H, 'O', 00H, 'P', 00H, 'E'
	DB	00H, 'N', 00H, '_', 00H, 'B', 00H, 'O', 00H, 'O', 00H, 'T', 00H
	DB	'_', 00H, 'V', 00H, 'O', 00H, 'L', 00H, 'U', 00H, 'M', 00H, 'E'
	DB	00H, '_', 00H, 'H', 00H, 'E', 00H, 'A', 00H, 'D', 00H, 'E', 00H
	DB	'R', 00H, 00H, 00H				;  ?? ::FNODOBFM::`string'
text$s	ENDS
;	COMDAT ??_C@_1DO@BKHLMLHN@?$AAT?$AAC?$AA_?$AAI?$AAO?$AAC?$AAT?$AAL?$AA_?$AAP?$AAR?$AAO?$AAB?$AAE?$AA_?$AAR?$AAE?$AAA?$AAL?$AA_?$AAD?$AAR?$AAI?$AAV?$AAE?$AA_?$AAS?$AAI?$AAZ?$AAE?$AA?$AA@FNODOBFM@
text$s	SEGMENT
??_C@_1DO@BKHLMLHN@?$AAT?$AAC?$AA_?$AAI?$AAO?$AAC?$AAT?$AAL?$AA_?$AAP?$AAR?$AAO?$AAB?$AAE?$AA_?$AAR?$AAE?$AAA?$AAL?$AA_?$AAD?$AAR?$AAI?$AAV?$AAE?$AA_?$AAS?$AAI?$AAZ?$AAE?$AA?$AA@FNODOBFM@ DB 'T'
	DB	00H, 'C', 00H, '_', 00H, 'I', 00H, 'O', 00H, 'C', 00H, 'T', 00H
	DB	'L', 00H, '_', 00H, 'P', 00H, 'R', 00H, 'O', 00H, 'B', 00H, 'E'
	DB	00H, '_', 00H, 'R', 00H, 'E', 00H, 'A', 00H, 'L', 00H, '_', 00H
	DB	'D', 00H, 'R', 00H, 'I', 00H, 'V', 00H, 'E', 00H, '_', 00H, 'S'
	DB	00H, 'I', 00H, 'Z', 00H, 'E', 00H, 00H, 00H	;  ?? ::FNODOBFM::`string'
text$s	ENDS
;	COMDAT ??_C@_1CG@HPPKKEKP@?$AAT?$AAC?$AA_?$AAI?$AAO?$AAC?$AAT?$AAL?$AA_?$AAO?$AAP?$AAE?$AAN?$AA_?$AAT?$AAE?$AAS?$AAT?$AA?$AA@FNODOBFM@
text$s	SEGMENT
??_C@_1CG@HPPKKEKP@?$AAT?$AAC?$AA_?$AAI?$AAO?$AAC?$AAT?$AAL?$AA_?$AAO?$AAP?$AAE?$AAN?$AA_?$AAT?$AAE?$AAS?$AAT?$AA?$AA@FNODOBFM@ DB 'T'
	DB	00H, 'C', 00H, '_', 00H, 'I', 00H, 'O', 00H, 'C', 00H, 'T', 00H
	DB	'L', 00H, '_', 00H, 'O', 00H, 'P', 00H, 'E', 00H, 'N', 00H, '_'
	DB	00H, 'T', 00H, 'E', 00H, 'S', 00H, 'T', 00H, 00H, 00H ;  ?? ::FNODOBFM::`string'
text$s	ENDS
;	COMDAT ??_C@_1CM@HJCGFKAD@?$AAT?$AAC?$AA_?$AAI?$AAO?$AAC?$AAT?$AAL?$AA_?$AAM?$AAO?$AAU?$AAN?$AAT?$AA_?$AAV?$AAO?$AAL?$AAU?$AAM?$AAE?$AA?$AA@FNODOBFM@
text$s	SEGMENT
??_C@_1CM@HJCGFKAD@?$AAT?$AAC?$AA_?$AAI?$AAO?$AAC?$AAT?$AAL?$AA_?$AAM?$AAO?$AAU?$AAN?$AAT?$AA_?$AAV?$AAO?$AAL?$AAU?$AAM?$AAE?$AA?$AA@FNODOBFM@ DB 'T'
	DB	00H, 'C', 00H, '_', 00H, 'I', 00H, 'O', 00H, 'C', 00H, 'T', 00H
	DB	'L', 00H, '_', 00H, 'M', 00H, 'O', 00H, 'U', 00H, 'N', 00H, 'T'
	DB	00H, '_', 00H, 'V', 00H, 'O', 00H, 'L', 00H, 'U', 00H, 'M', 00H
	DB	'E', 00H, 00H, 00H				;  ?? ::FNODOBFM::`string'
text$s	ENDS
;	COMDAT ??_C@_1EE@HPDOLCKH@?$AAT?$AAC?$AA_?$AAI?$AAO?$AAC?$AAT?$AAL?$AA_?$AAI?$AAS?$AA_?$AAH?$AAI?$AAD?$AAD?$AAE?$AAN?$AA_?$AAS?$AAY?$AAS?$AAT?$AAE?$AAM?$AA_?$AAR?$AAU?$AAN?$AAN?$AAI?$AAN@FNODOBFM@
text$s	SEGMENT
??_C@_1EE@HPDOLCKH@?$AAT?$AAC?$AA_?$AAI?$AAO?$AAC?$AAT?$AAL?$AA_?$AAI?$AAS?$AA_?$AAH?$AAI?$AAD?$AAD?$AAE?$AAN?$AA_?$AAS?$AAY?$AAS?$AAT?$AAE?$AAM?$AA_?$AAR?$AAU?$AAN?$AAN?$AAI?$AAN@FNODOBFM@ DB 'T'
	DB	00H, 'C', 00H, '_', 00H, 'I', 00H, 'O', 00H, 'C', 00H, 'T', 00H
	DB	'L', 00H, '_', 00H, 'I', 00H, 'S', 00H, '_', 00H, 'H', 00H, 'I'
	DB	00H, 'D', 00H, 'D', 00H, 'E', 00H, 'N', 00H, '_', 00H, 'S', 00H
	DB	'Y', 00H, 'S', 00H, 'T', 00H, 'E', 00H, 'M', 00H, '_', 00H, 'R'
	DB	00H, 'U', 00H, 'N', 00H, 'N', 00H, 'I', 00H, 'N', 00H, 'G', 00H
	DB	00H, 00H					;  ?? ::FNODOBFM::`string'
text$s	ENDS
;	COMDAT ??_C@_1EG@HPLFHOOO@?$AAT?$AAC?$AA_?$AAI?$AAO?$AAC?$AAT?$AAL?$AA_?$AAI?$AAS?$AA_?$AAD?$AAR?$AAI?$AAV?$AAE?$AAR?$AA_?$AAU?$AAN?$AAL?$AAO?$AAA?$AAD?$AA_?$AAD?$AAI?$AAS?$AAA?$AAB?$AAL@FNODOBFM@
text$s	SEGMENT
??_C@_1EG@HPLFHOOO@?$AAT?$AAC?$AA_?$AAI?$AAO?$AAC?$AAT?$AAL?$AA_?$AAI?$AAS?$AA_?$AAD?$AAR?$AAI?$AAV?$AAE?$AAR?$AA_?$AAU?$AAN?$AAL?$AAO?$AAA?$AAD?$AA_?$AAD?$AAI?$AAS?$AAA?$AAB?$AAL@FNODOBFM@ DB 'T'
	DB	00H, 'C', 00H, '_', 00H, 'I', 00H, 'O', 00H, 'C', 00H, 'T', 00H
	DB	'L', 00H, '_', 00H, 'I', 00H, 'S', 00H, '_', 00H, 'D', 00H, 'R'
	DB	00H, 'I', 00H, 'V', 00H, 'E', 00H, 'R', 00H, '_', 00H, 'U', 00H
	DB	'N', 00H, 'L', 00H, 'O', 00H, 'A', 00H, 'D', 00H, '_', 00H, 'D'
	DB	00H, 'I', 00H, 'S', 00H, 'A', 00H, 'B', 00H, 'L', 00H, 'E', 00H
	DB	'D', 00H, 00H, 00H				;  ?? ::FNODOBFM::`string'
text$s	ENDS
;	COMDAT ??_C@_1DO@ICDMEENM@?$AAT?$AAC?$AA_?$AAI?$AAO?$AAC?$AAT?$AAL?$AA_?$AAI?$AAS?$AA_?$AAA?$AAN?$AAY?$AA_?$AAV?$AAO?$AAL?$AAU?$AAM?$AAE?$AA_?$AAM?$AAO?$AAU?$AAN?$AAT?$AAE?$AAD?$AA?$AA@FNODOBFM@
text$s	SEGMENT
??_C@_1DO@ICDMEENM@?$AAT?$AAC?$AA_?$AAI?$AAO?$AAC?$AAT?$AAL?$AA_?$AAI?$AAS?$AA_?$AAA?$AAN?$AAY?$AA_?$AAV?$AAO?$AAL?$AAU?$AAM?$AAE?$AA_?$AAM?$AAO?$AAU?$AAN?$AAT?$AAE?$AAD?$AA?$AA@FNODOBFM@ DB 'T'
	DB	00H, 'C', 00H, '_', 00H, 'I', 00H, 'O', 00H, 'C', 00H, 'T', 00H
	DB	'L', 00H, '_', 00H, 'I', 00H, 'S', 00H, '_', 00H, 'A', 00H, 'N'
	DB	00H, 'Y', 00H, '_', 00H, 'V', 00H, 'O', 00H, 'L', 00H, 'U', 00H
	DB	'M', 00H, 'E', 00H, '_', 00H, 'M', 00H, 'O', 00H, 'U', 00H, 'N'
	DB	00H, 'T', 00H, 'E', 00H, 'D', 00H, 00H, 00H	;  ?? ::FNODOBFM::`string'
text$s	ENDS
;	COMDAT ??_C@_1DE@JNPINMHP@?$AAT?$AAC?$AA_?$AAI?$AAO?$AAC?$AAT?$AAL?$AA_?$AAD?$AAI?$AAS?$AAK?$AA_?$AAI?$AAS?$AA_?$AAW?$AAR?$AAI?$AAT?$AAA?$AAB?$AAL?$AAE?$AA?$AA@FNODOBFM@
text$s	SEGMENT
??_C@_1DE@JNPINMHP@?$AAT?$AAC?$AA_?$AAI?$AAO?$AAC?$AAT?$AAL?$AA_?$AAD?$AAI?$AAS?$AAK?$AA_?$AAI?$AAS?$AA_?$AAW?$AAR?$AAI?$AAT?$AAA?$AAB?$AAL?$AAE?$AA?$AA@FNODOBFM@ DB 'T'
	DB	00H, 'C', 00H, '_', 00H, 'I', 00H, 'O', 00H, 'C', 00H, 'T', 00H
	DB	'L', 00H, '_', 00H, 'D', 00H, 'I', 00H, 'S', 00H, 'K', 00H, '_'
	DB	00H, 'I', 00H, 'S', 00H, '_', 00H, 'W', 00H, 'R', 00H, 'I', 00H
	DB	'T', 00H, 'A', 00H, 'B', 00H, 'L', 00H, 'E', 00H, 00H, 00H ;  ?? ::FNODOBFM::`string'
text$s	ENDS
;	COMDAT ??_C@_1DG@LBDEDPBA@?$AAT?$AAC?$AA_?$AAI?$AAO?$AAC?$AAT?$AAL?$AA_?$AAG?$AAE?$AAT?$AA_?$AAW?$AAA?$AAR?$AAN?$AAI?$AAN?$AAG?$AA_?$AAF?$AAL?$AAA?$AAG?$AAS?$AA?$AA@FNODOBFM@
text$s	SEGMENT
??_C@_1DG@LBDEDPBA@?$AAT?$AAC?$AA_?$AAI?$AAO?$AAC?$AAT?$AAL?$AA_?$AAG?$AAE?$AAT?$AA_?$AAW?$AAA?$AAR?$AAN?$AAI?$AAN?$AAG?$AA_?$AAF?$AAL?$AAA?$AAG?$AAS?$AA?$AA@FNODOBFM@ DB 'T'
	DB	00H, 'C', 00H, '_', 00H, 'I', 00H, 'O', 00H, 'C', 00H, 'T', 00H
	DB	'L', 00H, '_', 00H, 'G', 00H, 'E', 00H, 'T', 00H, '_', 00H, 'W'
	DB	00H, 'A', 00H, 'R', 00H, 'N', 00H, 'I', 00H, 'N', 00H, 'G', 00H
	DB	'_', 00H, 'F', 00H, 'L', 00H, 'A', 00H, 'G', 00H, 'S', 00H, 00H
	DB	00H						;  ?? ::FNODOBFM::`string'
text$s	ENDS
;	COMDAT ??_C@_1DO@DMIHGGIB@?$AAT?$AAC?$AA_?$AAI?$AAO?$AAC?$AAT?$AAL?$AA_?$AAG?$AAE?$AAT?$AA_?$AAV?$AAO?$AAL?$AAU?$AAM?$AAE?$AA_?$AAP?$AAR?$AAO?$AAP?$AAE?$AAR?$AAT?$AAI?$AAE?$AAS?$AA?$AA@FNODOBFM@
text$s	SEGMENT
??_C@_1DO@DMIHGGIB@?$AAT?$AAC?$AA_?$AAI?$AAO?$AAC?$AAT?$AAL?$AA_?$AAG?$AAE?$AAT?$AA_?$AAV?$AAO?$AAL?$AAU?$AAM?$AAE?$AA_?$AAP?$AAR?$AAO?$AAP?$AAE?$AAR?$AAT?$AAI?$AAE?$AAS?$AA?$AA@FNODOBFM@ DB 'T'
	DB	00H, 'C', 00H, '_', 00H, 'I', 00H, 'O', 00H, 'C', 00H, 'T', 00H
	DB	'L', 00H, '_', 00H, 'G', 00H, 'E', 00H, 'T', 00H, '_', 00H, 'V'
	DB	00H, 'O', 00H, 'L', 00H, 'U', 00H, 'M', 00H, 'E', 00H, '_', 00H
	DB	'P', 00H, 'R', 00H, 'O', 00H, 'P', 00H, 'E', 00H, 'R', 00H, 'T'
	DB	00H, 'I', 00H, 'E', 00H, 'S', 00H, 00H, 00H	;  ?? ::FNODOBFM::`string'
text$s	ENDS
;	COMDAT ??_C@_1EM@GFDNBFC@?$AAT?$AAC?$AA_?$AAI?$AAO?$AAC?$AAT?$AAL?$AA_?$AAG?$AAE?$AAT?$AA_?$AAS?$AAY?$AAS?$AAT?$AAE?$AAM?$AA_?$AAD?$AAR?$AAI?$AAV?$AAE?$AA_?$AAD?$AAU?$AAM?$AAP?$AA_?$AAC@FNODOBFM@
text$s	SEGMENT
??_C@_1EM@GFDNBFC@?$AAT?$AAC?$AA_?$AAI?$AAO?$AAC?$AAT?$AAL?$AA_?$AAG?$AAE?$AAT?$AA_?$AAS?$AAY?$AAS?$AAT?$AAE?$AAM?$AA_?$AAD?$AAR?$AAI?$AAV?$AAE?$AA_?$AAD?$AAU?$AAM?$AAP?$AA_?$AAC@FNODOBFM@ DB 'T'
	DB	00H, 'C', 00H, '_', 00H, 'I', 00H, 'O', 00H, 'C', 00H, 'T', 00H
	DB	'L', 00H, '_', 00H, 'G', 00H, 'E', 00H, 'T', 00H, '_', 00H, 'S'
	DB	00H, 'Y', 00H, 'S', 00H, 'T', 00H, 'E', 00H, 'M', 00H, '_', 00H
	DB	'D', 00H, 'R', 00H, 'I', 00H, 'V', 00H, 'E', 00H, '_', 00H, 'D'
	DB	00H, 'U', 00H, 'M', 00H, 'P', 00H, '_', 00H, 'C', 00H, 'O', 00H
	DB	'N', 00H, 'F', 00H, 'I', 00H, 'G', 00H, 00H, 00H ;  ?? ::FNODOBFM::`string'
text$s	ENDS
;	COMDAT ??_C@_1DM@GFCMCNDC@?$AAT?$AAC?$AA_?$AAI?$AAO?$AAC?$AAT?$AAL?$AA_?$AAG?$AAE?$AAT?$AA_?$AAR?$AAE?$AAS?$AAO?$AAL?$AAV?$AAE?$AAD?$AA_?$AAS?$AAY?$AAM?$AAL?$AAI?$AAN?$AAK?$AA?$AA@FNODOBFM@
text$s	SEGMENT
??_C@_1DM@GFCMCNDC@?$AAT?$AAC?$AA_?$AAI?$AAO?$AAC?$AAT?$AAL?$AA_?$AAG?$AAE?$AAT?$AA_?$AAR?$AAE?$AAS?$AAO?$AAL?$AAV?$AAE?$AAD?$AA_?$AAS?$AAY?$AAM?$AAL?$AAI?$AAN?$AAK?$AA?$AA@FNODOBFM@ DB 'T'
	DB	00H, 'C', 00H, '_', 00H, 'I', 00H, 'O', 00H, 'C', 00H, 'T', 00H
	DB	'L', 00H, '_', 00H, 'G', 00H, 'E', 00H, 'T', 00H, '_', 00H, 'R'
	DB	00H, 'E', 00H, 'S', 00H, 'O', 00H, 'L', 00H, 'V', 00H, 'E', 00H
	DB	'D', 00H, '_', 00H, 'S', 00H, 'Y', 00H, 'M', 00H, 'L', 00H, 'I'
	DB	00H, 'N', 00H, 'K', 00H, 00H, 00H		;  ?? ::FNODOBFM::`string'
text$s	ENDS
;	COMDAT ??_C@_1EE@NMKCMMBM@?$AAT?$AAC?$AA_?$AAI?$AAO?$AAC?$AAT?$AAL?$AA_?$AAS?$AAE?$AAT?$AA_?$AAP?$AAO?$AAR?$AAT?$AAA?$AAB?$AAL?$AAE?$AA_?$AAM?$AAO?$AAD?$AAE?$AA_?$AAS?$AAT?$AAA?$AAT?$AAU@FNODOBFM@
text$s	SEGMENT
??_C@_1EE@NMKCMMBM@?$AAT?$AAC?$AA_?$AAI?$AAO?$AAC?$AAT?$AAL?$AA_?$AAS?$AAE?$AAT?$AA_?$AAP?$AAO?$AAR?$AAT?$AAA?$AAB?$AAL?$AAE?$AA_?$AAM?$AAO?$AAD?$AAE?$AA_?$AAS?$AAT?$AAA?$AAT?$AAU@FNODOBFM@ DB 'T'
	DB	00H, 'C', 00H, '_', 00H, 'I', 00H, 'O', 00H, 'C', 00H, 'T', 00H
	DB	'L', 00H, '_', 00H, 'S', 00H, 'E', 00H, 'T', 00H, '_', 00H, 'P'
	DB	00H, 'O', 00H, 'R', 00H, 'T', 00H, 'A', 00H, 'B', 00H, 'L', 00H
	DB	'E', 00H, '_', 00H, 'M', 00H, 'O', 00H, 'D', 00H, 'E', 00H, '_'
	DB	00H, 'S', 00H, 'T', 00H, 'A', 00H, 'T', 00H, 'U', 00H, 'S', 00H
	DB	00H, 00H					;  ?? ::FNODOBFM::`string'
text$s	ENDS
;	COMDAT ??_C@_1EE@IPNJBDEG@?$AAT?$AAC?$AA_?$AAI?$AAO?$AAC?$AAT?$AAL?$AA_?$AAG?$AAE?$AAT?$AA_?$AAP?$AAO?$AAR?$AAT?$AAA?$AAB?$AAL?$AAE?$AA_?$AAM?$AAO?$AAD?$AAE?$AA_?$AAS?$AAT?$AAA?$AAT?$AAU@FNODOBFM@
text$s	SEGMENT
??_C@_1EE@IPNJBDEG@?$AAT?$AAC?$AA_?$AAI?$AAO?$AAC?$AAT?$AAL?$AA_?$AAG?$AAE?$AAT?$AA_?$AAP?$AAO?$AAR?$AAT?$AAA?$AAB?$AAL?$AAE?$AA_?$AAM?$AAO?$AAD?$AAE?$AA_?$AAS?$AAT?$AAA?$AAT?$AAU@FNODOBFM@ DB 'T'
	DB	00H, 'C', 00H, '_', 00H, 'I', 00H, 'O', 00H, 'C', 00H, 'T', 00H
	DB	'L', 00H, '_', 00H, 'G', 00H, 'E', 00H, 'T', 00H, '_', 00H, 'P'
	DB	00H, 'O', 00H, 'R', 00H, 'T', 00H, 'A', 00H, 'B', 00H, 'L', 00H
	DB	'E', 00H, '_', 00H, 'M', 00H, 'O', 00H, 'D', 00H, 'E', 00H, '_'
	DB	00H, 'S', 00H, 'T', 00H, 'A', 00H, 'T', 00H, 'U', 00H, 'S', 00H
	DB	00H, 00H					;  ?? ::FNODOBFM::`string'
text$s	ENDS
;	COMDAT ??_C@_1EC@FADHDJPK@?$AAT?$AAC?$AA_?$AAI?$AAO?$AAC?$AAT?$AAL?$AA_?$AAG?$AAE?$AAT?$AA_?$AAS?$AAY?$AAS?$AAT?$AAE?$AAM?$AA_?$AAD?$AAR?$AAI?$AAV?$AAE?$AA_?$AAC?$AAO?$AAN?$AAF?$AAI?$AAG@FNODOBFM@
text$s	SEGMENT
??_C@_1EC@FADHDJPK@?$AAT?$AAC?$AA_?$AAI?$AAO?$AAC?$AAT?$AAL?$AA_?$AAG?$AAE?$AAT?$AA_?$AAS?$AAY?$AAS?$AAT?$AAE?$AAM?$AA_?$AAD?$AAR?$AAI?$AAV?$AAE?$AA_?$AAC?$AAO?$AAN?$AAF?$AAI?$AAG@FNODOBFM@ DB 'T'
	DB	00H, 'C', 00H, '_', 00H, 'I', 00H, 'O', 00H, 'C', 00H, 'T', 00H
	DB	'L', 00H, '_', 00H, 'G', 00H, 'E', 00H, 'T', 00H, '_', 00H, 'S'
	DB	00H, 'Y', 00H, 'S', 00H, 'T', 00H, 'E', 00H, 'M', 00H, '_', 00H
	DB	'D', 00H, 'R', 00H, 'I', 00H, 'V', 00H, 'E', 00H, '_', 00H, 'C'
	DB	00H, 'O', 00H, 'N', 00H, 'F', 00H, 'I', 00H, 'G', 00H, 00H, 00H ;  ?? ::FNODOBFM::`string'
text$s	ENDS
;	COMDAT ??_C@_1EG@LLJHBPJF@?$AAT?$AAC?$AA_?$AAI?$AAO?$AAC?$AAT?$AAL?$AA_?$AAG?$AAE?$AAT?$AA_?$AAP?$AAA?$AAS?$AAS?$AAW?$AAO?$AAR?$AAD?$AA_?$AAC?$AAA?$AAC?$AAH?$AAE?$AA_?$AAS?$AAT?$AAA?$AAT@FNODOBFM@
text$s	SEGMENT
??_C@_1EG@LLJHBPJF@?$AAT?$AAC?$AA_?$AAI?$AAO?$AAC?$AAT?$AAL?$AA_?$AAG?$AAE?$AAT?$AA_?$AAP?$AAA?$AAS?$AAS?$AAW?$AAO?$AAR?$AAD?$AA_?$AAC?$AAA?$AAC?$AAH?$AAE?$AA_?$AAS?$AAT?$AAA?$AAT@FNODOBFM@ DB 'T'
	DB	00H, 'C', 00H, '_', 00H, 'I', 00H, 'O', 00H, 'C', 00H, 'T', 00H
	DB	'L', 00H, '_', 00H, 'G', 00H, 'E', 00H, 'T', 00H, '_', 00H, 'P'
	DB	00H, 'A', 00H, 'S', 00H, 'S', 00H, 'W', 00H, 'O', 00H, 'R', 00H
	DB	'D', 00H, '_', 00H, 'C', 00H, 'A', 00H, 'C', 00H, 'H', 00H, 'E'
	DB	00H, '_', 00H, 'S', 00H, 'T', 00H, 'A', 00H, 'T', 00H, 'U', 00H
	DB	'S', 00H, 00H, 00H				;  ?? ::FNODOBFM::`string'
text$s	ENDS
;	COMDAT ??_C@_1DK@KJKOFIJA@?$AAT?$AAC?$AA_?$AAI?$AAO?$AAC?$AAT?$AAL?$AA_?$AAG?$AAE?$AAT?$AA_?$AAM?$AAO?$AAU?$AAN?$AAT?$AAE?$AAD?$AA_?$AAV?$AAO?$AAL?$AAU?$AAM?$AAE?$AAS?$AA?$AA@FNODOBFM@
text$s	SEGMENT
??_C@_1DK@KJKOFIJA@?$AAT?$AAC?$AA_?$AAI?$AAO?$AAC?$AAT?$AAL?$AA_?$AAG?$AAE?$AAT?$AA_?$AAM?$AAO?$AAU?$AAN?$AAT?$AAE?$AAD?$AA_?$AAV?$AAO?$AAL?$AAU?$AAM?$AAE?$AAS?$AA?$AA@FNODOBFM@ DB 'T'
	DB	00H, 'C', 00H, '_', 00H, 'I', 00H, 'O', 00H, 'C', 00H, 'T', 00H
	DB	'L', 00H, '_', 00H, 'G', 00H, 'E', 00H, 'T', 00H, '_', 00H, 'M'
	DB	00H, 'O', 00H, 'U', 00H, 'N', 00H, 'T', 00H, 'E', 00H, 'D', 00H
	DB	'_', 00H, 'V', 00H, 'O', 00H, 'L', 00H, 'U', 00H, 'M', 00H, 'E'
	DB	00H, 'S', 00H, 00H, 00H			;  ?? ::FNODOBFM::`string'
text$s	ENDS
;	COMDAT ??_C@_1DI@ODPPPDDO@?$AAT?$AAC?$AA_?$AAI?$AAO?$AAC?$AAT?$AAL?$AA_?$AAG?$AAE?$AAT?$AA_?$AAD?$AAR?$AAI?$AAV?$AAE?$AAR?$AA_?$AAV?$AAE?$AAR?$AAS?$AAI?$AAO?$AAN?$AA?$AA@FNODOBFM@
text$s	SEGMENT
??_C@_1DI@ODPPPDDO@?$AAT?$AAC?$AA_?$AAI?$AAO?$AAC?$AAT?$AAL?$AA_?$AAG?$AAE?$AAT?$AA_?$AAD?$AAR?$AAI?$AAV?$AAE?$AAR?$AA_?$AAV?$AAE?$AAR?$AAS?$AAI?$AAO?$AAN?$AA?$AA@FNODOBFM@ DB 'T'
	DB	00H, 'C', 00H, '_', 00H, 'I', 00H, 'O', 00H, 'C', 00H, 'T', 00H
	DB	'L', 00H, '_', 00H, 'G', 00H, 'E', 00H, 'T', 00H, '_', 00H, 'D'
	DB	00H, 'R', 00H, 'I', 00H, 'V', 00H, 'E', 00H, 'R', 00H, '_', 00H
	DB	'V', 00H, 'E', 00H, 'R', 00H, 'S', 00H, 'I', 00H, 'O', 00H, 'N'
	DB	00H, 00H, 00H				;  ?? ::FNODOBFM::`string'
text$s	ENDS
;	COMDAT ??_C@_1EE@HEELFNND@?$AAT?$AAC?$AA_?$AAI?$AAO?$AAC?$AAT?$AAL?$AA_?$AAG?$AAE?$AAT?$AA_?$AAD?$AAR?$AAI?$AAV?$AAE?$AA_?$AAP?$AAA?$AAR?$AAT?$AAI?$AAT?$AAI?$AAO?$AAN?$AA_?$AAI?$AAN?$AAF@FNODOBFM@
text$s	SEGMENT
??_C@_1EE@HEELFNND@?$AAT?$AAC?$AA_?$AAI?$AAO?$AAC?$AAT?$AAL?$AA_?$AAG?$AAE?$AAT?$AA_?$AAD?$AAR?$AAI?$AAV?$AAE?$AA_?$AAP?$AAA?$AAR?$AAT?$AAI?$AAT?$AAI?$AAO?$AAN?$AA_?$AAI?$AAN?$AAF@FNODOBFM@ DB 'T'
	DB	00H, 'C', 00H, '_', 00H, 'I', 00H, 'O', 00H, 'C', 00H, 'T', 00H
	DB	'L', 00H, '_', 00H, 'G', 00H, 'E', 00H, 'T', 00H, '_', 00H, 'D'
	DB	00H, 'R', 00H, 'I', 00H, 'V', 00H, 'E', 00H, '_', 00H, 'P', 00H
	DB	'A', 00H, 'R', 00H, 'T', 00H, 'I', 00H, 'T', 00H, 'I', 00H, 'O'
	DB	00H, 'N', 00H, '_', 00H, 'I', 00H, 'N', 00H, 'F', 00H, 'O', 00H
	DB	00H, 00H					;  ?? ::FNODOBFM::`string'
text$s	ENDS
;	COMDAT ??_C@_1DI@LAIAIOML@?$AAT?$AAC?$AA_?$AAI?$AAO?$AAC?$AAT?$AAL?$AA_?$AAG?$AAE?$AAT?$AA_?$AAD?$AAR?$AAI?$AAV?$AAE?$AA_?$AAG?$AAE?$AAO?$AAM?$AAE?$AAT?$AAR?$AAY?$AA?$AA@FNODOBFM@
text$s	SEGMENT
??_C@_1DI@LAIAIOML@?$AAT?$AAC?$AA_?$AAI?$AAO?$AAC?$AAT?$AAL?$AA_?$AAG?$AAE?$AAT?$AA_?$AAD?$AAR?$AAI?$AAV?$AAE?$AA_?$AAG?$AAE?$AAO?$AAM?$AAE?$AAT?$AAR?$AAY?$AA?$AA@FNODOBFM@ DB 'T'
	DB	00H, 'C', 00H, '_', 00H, 'I', 00H, 'O', 00H, 'C', 00H, 'T', 00H
	DB	'L', 00H, '_', 00H, 'G', 00H, 'E', 00H, 'T', 00H, '_', 00H, 'D'
	DB	00H, 'R', 00H, 'I', 00H, 'V', 00H, 'E', 00H, '_', 00H, 'G', 00H
	DB	'E', 00H, 'O', 00H, 'M', 00H, 'E', 00H, 'T', 00H, 'R', 00H, 'Y'
	DB	00H, 00H, 00H				;  ?? ::FNODOBFM::`string'
text$s	ENDS
;	COMDAT ??_C@_1DK@DFEJGDBK@?$AAT?$AAC?$AA_?$AAI?$AAO?$AAC?$AAT?$AAL?$AA_?$AAG?$AAE?$AAT?$AA_?$AAD?$AAE?$AAV?$AAI?$AAC?$AAE?$AA_?$AAR?$AAE?$AAF?$AAC?$AAO?$AAU?$AAN?$AAT?$AA?$AA@FNODOBFM@
text$s	SEGMENT
??_C@_1DK@DFEJGDBK@?$AAT?$AAC?$AA_?$AAI?$AAO?$AAC?$AAT?$AAL?$AA_?$AAG?$AAE?$AAT?$AA_?$AAD?$AAE?$AAV?$AAI?$AAC?$AAE?$AA_?$AAR?$AAE?$AAF?$AAC?$AAO?$AAU?$AAN?$AAT?$AA?$AA@FNODOBFM@ DB 'T'
	DB	00H, 'C', 00H, '_', 00H, 'I', 00H, 'O', 00H, 'C', 00H, 'T', 00H
	DB	'L', 00H, '_', 00H, 'G', 00H, 'E', 00H, 'T', 00H, '_', 00H, 'D'
	DB	00H, 'E', 00H, 'V', 00H, 'I', 00H, 'C', 00H, 'E', 00H, '_', 00H
	DB	'R', 00H, 'E', 00H, 'F', 00H, 'C', 00H, 'O', 00H, 'U', 00H, 'N'
	DB	00H, 'T', 00H, 00H, 00H			;  ?? ::FNODOBFM::`string'
text$s	ENDS
;	COMDAT ??_C@_1EM@LMAMOKGA@?$AAT?$AAC?$AA_?$AAI?$AAO?$AAC?$AAT?$AAL?$AA_?$AAG?$AAE?$AAT?$AA_?$AAD?$AAE?$AAC?$AAO?$AAY?$AA_?$AAS?$AAY?$AAS?$AAT?$AAE?$AAM?$AA_?$AAW?$AAI?$AAP?$AAE?$AA_?$AAS@FNODOBFM@
text$s	SEGMENT
??_C@_1EM@LMAMOKGA@?$AAT?$AAC?$AA_?$AAI?$AAO?$AAC?$AAT?$AAL?$AA_?$AAG?$AAE?$AAT?$AA_?$AAD?$AAE?$AAC?$AAO?$AAY?$AA_?$AAS?$AAY?$AAS?$AAT?$AAE?$AAM?$AA_?$AAW?$AAI?$AAP?$AAE?$AA_?$AAS@FNODOBFM@ DB 'T'
	DB	00H, 'C', 00H, '_', 00H, 'I', 00H, 'O', 00H, 'C', 00H, 'T', 00H
	DB	'L', 00H, '_', 00H, 'G', 00H, 'E', 00H, 'T', 00H, '_', 00H, 'D'
	DB	00H, 'E', 00H, 'C', 00H, 'O', 00H, 'Y', 00H, '_', 00H, 'S', 00H
	DB	'Y', 00H, 'S', 00H, 'T', 00H, 'E', 00H, 'M', 00H, '_', 00H, 'W'
	DB	00H, 'I', 00H, 'P', 00H, 'E', 00H, '_', 00H, 'S', 00H, 'T', 00H
	DB	'A', 00H, 'T', 00H, 'U', 00H, 'S', 00H, 00H, 00H ;  ?? ::FNODOBFM::`string'
text$s	ENDS
;	COMDAT ??_C@_1EM@OAEBJACE@?$AAT?$AAC?$AA_?$AAI?$AAO?$AAC?$AAT?$AAL?$AA_?$AAG?$AAE?$AAT?$AA_?$AAD?$AAE?$AAC?$AAO?$AAY?$AA_?$AAS?$AAY?$AAS?$AAT?$AAE?$AAM?$AA_?$AAW?$AAI?$AAP?$AAE?$AA_?$AAR@FNODOBFM@
text$s	SEGMENT
??_C@_1EM@OAEBJACE@?$AAT?$AAC?$AA_?$AAI?$AAO?$AAC?$AAT?$AAL?$AA_?$AAG?$AAE?$AAT?$AA_?$AAD?$AAE?$AAC?$AAO?$AAY?$AA_?$AAS?$AAY?$AAS?$AAT?$AAE?$AAM?$AA_?$AAW?$AAI?$AAP?$AAE?$AA_?$AAR@FNODOBFM@ DB 'T'
	DB	00H, 'C', 00H, '_', 00H, 'I', 00H, 'O', 00H, 'C', 00H, 'T', 00H
	DB	'L', 00H, '_', 00H, 'G', 00H, 'E', 00H, 'T', 00H, '_', 00H, 'D'
	DB	00H, 'E', 00H, 'C', 00H, 'O', 00H, 'Y', 00H, '_', 00H, 'S', 00H
	DB	'Y', 00H, 'S', 00H, 'T', 00H, 'E', 00H, 'M', 00H, '_', 00H, 'W'
	DB	00H, 'I', 00H, 'P', 00H, 'E', 00H, '_', 00H, 'R', 00H, 'E', 00H
	DB	'S', 00H, 'U', 00H, 'L', 00H, 'T', 00H, 00H, 00H ;  ?? ::FNODOBFM::`string'
text$s	ENDS
;	COMDAT ??_C@_1EC@OPCJHCIG@?$AAT?$AAC?$AA_?$AAI?$AAO?$AAC?$AAT?$AAL?$AA_?$AAG?$AAE?$AAT?$AA_?$AAB?$AAO?$AAO?$AAT?$AA_?$AAL?$AAO?$AAA?$AAD?$AAE?$AAR?$AA_?$AAV?$AAE?$AAR?$AAS?$AAI?$AAO?$AAN@FNODOBFM@
text$s	SEGMENT
??_C@_1EC@OPCJHCIG@?$AAT?$AAC?$AA_?$AAI?$AAO?$AAC?$AAT?$AAL?$AA_?$AAG?$AAE?$AAT?$AA_?$AAB?$AAO?$AAO?$AAT?$AA_?$AAL?$AAO?$AAA?$AAD?$AAE?$AAR?$AA_?$AAV?$AAE?$AAR?$AAS?$AAI?$AAO?$AAN@FNODOBFM@ DB 'T'
	DB	00H, 'C', 00H, '_', 00H, 'I', 00H, 'O', 00H, 'C', 00H, 'T', 00H
	DB	'L', 00H, '_', 00H, 'G', 00H, 'E', 00H, 'T', 00H, '_', 00H, 'B'
	DB	00H, 'O', 00H, 'O', 00H, 'T', 00H, '_', 00H, 'L', 00H, 'O', 00H
	DB	'A', 00H, 'D', 00H, 'E', 00H, 'R', 00H, '_', 00H, 'V', 00H, 'E'
	DB	00H, 'R', 00H, 'S', 00H, 'I', 00H, 'O', 00H, 'N', 00H, 00H, 00H ;  ?? ::FNODOBFM::`string'
text$s	ENDS
;	COMDAT ??_C@_1EI@GAKLFLAF@?$AAT?$AAC?$AA_?$AAI?$AAO?$AAC?$AAT?$AAL?$AA_?$AAG?$AAE?$AAT?$AA_?$AAB?$AAO?$AAO?$AAT?$AA_?$AAE?$AAN?$AAC?$AAR?$AAY?$AAP?$AAT?$AAI?$AAO?$AAN?$AA_?$AAS?$AAT?$AAA@FNODOBFM@
text$s	SEGMENT
??_C@_1EI@GAKLFLAF@?$AAT?$AAC?$AA_?$AAI?$AAO?$AAC?$AAT?$AAL?$AA_?$AAG?$AAE?$AAT?$AA_?$AAB?$AAO?$AAO?$AAT?$AA_?$AAE?$AAN?$AAC?$AAR?$AAY?$AAP?$AAT?$AAI?$AAO?$AAN?$AA_?$AAS?$AAT?$AAA@FNODOBFM@ DB 'T'
	DB	00H, 'C', 00H, '_', 00H, 'I', 00H, 'O', 00H, 'C', 00H, 'T', 00H
	DB	'L', 00H, '_', 00H, 'G', 00H, 'E', 00H, 'T', 00H, '_', 00H, 'B'
	DB	00H, 'O', 00H, 'O', 00H, 'T', 00H, '_', 00H, 'E', 00H, 'N', 00H
	DB	'C', 00H, 'R', 00H, 'Y', 00H, 'P', 00H, 'T', 00H, 'I', 00H, 'O'
	DB	00H, 'N', 00H, '_', 00H, 'S', 00H, 'T', 00H, 'A', 00H, 'T', 00H
	DB	'U', 00H, 'S', 00H, 00H, 00H			;  ?? ::FNODOBFM::`string'
text$s	ENDS
;	COMDAT ??_C@_1FE@OJNNCONL@?$AAT?$AAC?$AA_?$AAI?$AAO?$AAC?$AAT?$AAL?$AA_?$AAG?$AAE?$AAT?$AA_?$AAB?$AAO?$AAO?$AAT?$AA_?$AAE?$AAN?$AAC?$AAR?$AAY?$AAP?$AAT?$AAI?$AAO?$AAN?$AA_?$AAS?$AAE?$AAT@FNODOBFM@
text$s	SEGMENT
??_C@_1FE@OJNNCONL@?$AAT?$AAC?$AA_?$AAI?$AAO?$AAC?$AAT?$AAL?$AA_?$AAG?$AAE?$AAT?$AA_?$AAB?$AAO?$AAO?$AAT?$AA_?$AAE?$AAN?$AAC?$AAR?$AAY?$AAP?$AAT?$AAI?$AAO?$AAN?$AA_?$AAS?$AAE?$AAT@FNODOBFM@ DB 'T'
	DB	00H, 'C', 00H, '_', 00H, 'I', 00H, 'O', 00H, 'C', 00H, 'T', 00H
	DB	'L', 00H, '_', 00H, 'G', 00H, 'E', 00H, 'T', 00H, '_', 00H, 'B'
	DB	00H, 'O', 00H, 'O', 00H, 'T', 00H, '_', 00H, 'E', 00H, 'N', 00H
	DB	'C', 00H, 'R', 00H, 'Y', 00H, 'P', 00H, 'T', 00H, 'I', 00H, 'O'
	DB	00H, 'N', 00H, '_', 00H, 'S', 00H, 'E', 00H, 'T', 00H, 'U', 00H
	DB	'P', 00H, '_', 00H, 'R', 00H, 'E', 00H, 'S', 00H, 'U', 00H, 'L'
	DB	00H, 'T', 00H, 00H, 00H			;  ?? ::FNODOBFM::`string'
text$s	ENDS
;	COMDAT ??_C@_1FI@CDJGLMPJ@?$AAT?$AAC?$AA_?$AAI?$AAO?$AAC?$AAT?$AAL?$AA_?$AAG?$AAE?$AAT?$AA_?$AAB?$AAO?$AAO?$AAT?$AA_?$AAE?$AAN?$AAC?$AAR?$AAY?$AAP?$AAT?$AAI?$AAO?$AAN?$AA_?$AAA?$AAL?$AAG@FNODOBFM@
text$s	SEGMENT
??_C@_1FI@CDJGLMPJ@?$AAT?$AAC?$AA_?$AAI?$AAO?$AAC?$AAT?$AAL?$AA_?$AAG?$AAE?$AAT?$AA_?$AAB?$AAO?$AAO?$AAT?$AA_?$AAE?$AAN?$AAC?$AAR?$AAY?$AAP?$AAT?$AAI?$AAO?$AAN?$AA_?$AAA?$AAL?$AAG@FNODOBFM@ DB 'T'
	DB	00H, 'C', 00H, '_', 00H, 'I', 00H, 'O', 00H, 'C', 00H, 'T', 00H
	DB	'L', 00H, '_', 00H, 'G', 00H, 'E', 00H, 'T', 00H, '_', 00H, 'B'
	DB	00H, 'O', 00H, 'O', 00H, 'T', 00H, '_', 00H, 'E', 00H, 'N', 00H
	DB	'C', 00H, 'R', 00H, 'Y', 00H, 'P', 00H, 'T', 00H, 'I', 00H, 'O'
	DB	00H, 'N', 00H, '_', 00H, 'A', 00H, 'L', 00H, 'G', 00H, 'O', 00H
	DB	'R', 00H, 'I', 00H, 'T', 00H, 'H', 00H, 'M', 00H, '_', 00H, 'N'
	DB	00H, 'A', 00H, 'M', 00H, 'E', 00H, 00H, 00H	;  ?? ::FNODOBFM::`string'
text$s	ENDS
;	COMDAT ??_C@_1FE@BEJBLKBA@?$AAT?$AAC?$AA_?$AAI?$AAO?$AAC?$AAT?$AAL?$AA_?$AAG?$AAE?$AAT?$AA_?$AAB?$AAO?$AAO?$AAT?$AA_?$AAD?$AAR?$AAI?$AAV?$AAE?$AA_?$AAV?$AAO?$AAL?$AAU?$AAM?$AAE?$AA_?$AAP@FNODOBFM@
text$s	SEGMENT
??_C@_1FE@BEJBLKBA@?$AAT?$AAC?$AA_?$AAI?$AAO?$AAC?$AAT?$AAL?$AA_?$AAG?$AAE?$AAT?$AA_?$AAB?$AAO?$AAO?$AAT?$AA_?$AAD?$AAR?$AAI?$AAV?$AAE?$AA_?$AAV?$AAO?$AAL?$AAU?$AAM?$AAE?$AA_?$AAP@FNODOBFM@ DB 'T'
	DB	00H, 'C', 00H, '_', 00H, 'I', 00H, 'O', 00H, 'C', 00H, 'T', 00H
	DB	'L', 00H, '_', 00H, 'G', 00H, 'E', 00H, 'T', 00H, '_', 00H, 'B'
	DB	00H, 'O', 00H, 'O', 00H, 'T', 00H, '_', 00H, 'D', 00H, 'R', 00H
	DB	'I', 00H, 'V', 00H, 'E', 00H, '_', 00H, 'V', 00H, 'O', 00H, 'L'
	DB	00H, 'U', 00H, 'M', 00H, 'E', 00H, '_', 00H, 'P', 00H, 'R', 00H
	DB	'O', 00H, 'P', 00H, 'E', 00H, 'R', 00H, 'T', 00H, 'I', 00H, 'E'
	DB	00H, 'S', 00H, 00H, 00H			;  ?? ::FNODOBFM::`string'
text$s	ENDS
;	COMDAT ??_C@_1DC@CLEBJPLG@?$AAT?$AAC?$AA_?$AAI?$AAO?$AAC?$AAT?$AAL?$AA_?$AAD?$AAI?$AAS?$AAM?$AAO?$AAU?$AAN?$AAT?$AA_?$AAV?$AAO?$AAL?$AAU?$AAM?$AAE?$AA?$AA@FNODOBFM@
text$s	SEGMENT
??_C@_1DC@CLEBJPLG@?$AAT?$AAC?$AA_?$AAI?$AAO?$AAC?$AAT?$AAL?$AA_?$AAD?$AAI?$AAS?$AAM?$AAO?$AAU?$AAN?$AAT?$AA_?$AAV?$AAO?$AAL?$AAU?$AAM?$AAE?$AA?$AA@FNODOBFM@ DB 'T'
	DB	00H, 'C', 00H, '_', 00H, 'I', 00H, 'O', 00H, 'C', 00H, 'T', 00H
	DB	'L', 00H, '_', 00H, 'D', 00H, 'I', 00H, 'S', 00H, 'M', 00H, 'O'
	DB	00H, 'U', 00H, 'N', 00H, 'T', 00H, '_', 00H, 'V', 00H, 'O', 00H
	DB	'L', 00H, 'U', 00H, 'M', 00H, 'E', 00H, 00H, 00H ;  ?? ::FNODOBFM::`string'
text$s	ENDS
;	COMDAT ??_C@_1DM@OLONGNGL@?$AAT?$AAC?$AA_?$AAI?$AAO?$AAC?$AAT?$AAL?$AA_?$AAD?$AAI?$AAS?$AAM?$AAO?$AAU?$AAN?$AAT?$AA_?$AAA?$AAL?$AAL?$AA_?$AAV?$AAO?$AAL?$AAU?$AAM?$AAE?$AAS?$AA?$AA@FNODOBFM@
text$s	SEGMENT
??_C@_1DM@OLONGNGL@?$AAT?$AAC?$AA_?$AAI?$AAO?$AAC?$AAT?$AAL?$AA_?$AAD?$AAI?$AAS?$AAM?$AAO?$AAU?$AAN?$AAT?$AA_?$AAA?$AAL?$AAL?$AA_?$AAV?$AAO?$AAL?$AAU?$AAM?$AAE?$AAS?$AA?$AA@FNODOBFM@ DB 'T'
	DB	00H, 'C', 00H, '_', 00H, 'I', 00H, 'O', 00H, 'C', 00H, 'T', 00H
	DB	'L', 00H, '_', 00H, 'D', 00H, 'I', 00H, 'S', 00H, 'M', 00H, 'O'
	DB	00H, 'U', 00H, 'N', 00H, 'T', 00H, '_', 00H, 'A', 00H, 'L', 00H
	DB	'L', 00H, '_', 00H, 'V', 00H, 'O', 00H, 'L', 00H, 'U', 00H, 'M'
	DB	00H, 'E', 00H, 'S', 00H, 00H, 00H		;  ?? ::FNODOBFM::`string'
text$s	ENDS
;	COMDAT ??_C@_1DO@JPMJPMCJ@?$AAT?$AAC?$AA_?$AAI?$AAO?$AAC?$AAT?$AAL?$AA_?$AAB?$AAO?$AAO?$AAT?$AA_?$AAE?$AAN?$AAC?$AAR?$AAY?$AAP?$AAT?$AAI?$AAO?$AAN?$AA_?$AAS?$AAE?$AAT?$AAU?$AAP?$AA?$AA@FNODOBFM@
text$s	SEGMENT
??_C@_1DO@JPMJPMCJ@?$AAT?$AAC?$AA_?$AAI?$AAO?$AAC?$AAT?$AAL?$AA_?$AAB?$AAO?$AAO?$AAT?$AA_?$AAE?$AAN?$AAC?$AAR?$AAY?$AAP?$AAT?$AAI?$AAO?$AAN?$AA_?$AAS?$AAE?$AAT?$AAU?$AAP?$AA?$AA@FNODOBFM@ DB 'T'
	DB	00H, 'C', 00H, '_', 00H, 'I', 00H, 'O', 00H, 'C', 00H, 'T', 00H
	DB	'L', 00H, '_', 00H, 'B', 00H, 'O', 00H, 'O', 00H, 'T', 00H, '_'
	DB	00H, 'E', 00H, 'N', 00H, 'C', 00H, 'R', 00H, 'Y', 00H, 'P', 00H
	DB	'T', 00H, 'I', 00H, 'O', 00H, 'N', 00H, '_', 00H, 'S', 00H, 'E'
	DB	00H, 'T', 00H, 'U', 00H, 'P', 00H, 00H, 00H	;  ?? ::FNODOBFM::`string'
text$s	ENDS
;	COMDAT ??_C@_1EC@HMNCILMA@?$AAT?$AAC?$AA_?$AAI?$AAO?$AAC?$AAT?$AAL?$AA_?$AAA?$AAB?$AAO?$AAR?$AAT?$AA_?$AAD?$AAE?$AAC?$AAO?$AAY?$AA_?$AAS?$AAY?$AAS?$AAT?$AAE?$AAM?$AA_?$AAW?$AAI?$AAP?$AAE@FNODOBFM@
text$s	SEGMENT
??_C@_1EC@HMNCILMA@?$AAT?$AAC?$AA_?$AAI?$AAO?$AAC?$AAT?$AAL?$AA_?$AAA?$AAB?$AAO?$AAR?$AAT?$AA_?$AAD?$AAE?$AAC?$AAO?$AAY?$AA_?$AAS?$AAY?$AAS?$AAT?$AAE?$AAM?$AA_?$AAW?$AAI?$AAP?$AAE@FNODOBFM@ DB 'T'
	DB	00H, 'C', 00H, '_', 00H, 'I', 00H, 'O', 00H, 'C', 00H, 'T', 00H
	DB	'L', 00H, '_', 00H, 'A', 00H, 'B', 00H, 'O', 00H, 'R', 00H, 'T'
	DB	00H, '_', 00H, 'D', 00H, 'E', 00H, 'C', 00H, 'O', 00H, 'Y', 00H
	DB	'_', 00H, 'S', 00H, 'Y', 00H, 'S', 00H, 'T', 00H, 'E', 00H, 'M'
	DB	00H, '_', 00H, 'W', 00H, 'I', 00H, 'P', 00H, 'E', 00H, 00H, 00H ;  ?? ::FNODOBFM::`string'
text$s	ENDS
;	COMDAT ??_C@_1EK@CMLLEBIK@?$AAT?$AAC?$AA_?$AAI?$AAO?$AAC?$AAT?$AAL?$AA_?$AAA?$AAB?$AAO?$AAR?$AAT?$AA_?$AAB?$AAO?$AAO?$AAT?$AA_?$AAE?$AAN?$AAC?$AAR?$AAY?$AAP?$AAT?$AAI?$AAO?$AAN?$AA_?$AAS@FNODOBFM@
text$s	SEGMENT
??_C@_1EK@CMLLEBIK@?$AAT?$AAC?$AA_?$AAI?$AAO?$AAC?$AAT?$AAL?$AA_?$AAA?$AAB?$AAO?$AAR?$AAT?$AA_?$AAB?$AAO?$AAO?$AAT?$AA_?$AAE?$AAN?$AAC?$AAR?$AAY?$AAP?$AAT?$AAI?$AAO?$AAN?$AA_?$AAS@FNODOBFM@ DB 'T'
	DB	00H, 'C', 00H, '_', 00H, 'I', 00H, 'O', 00H, 'C', 00H, 'T', 00H
	DB	'L', 00H, '_', 00H, 'A', 00H, 'B', 00H, 'O', 00H, 'R', 00H, 'T'
	DB	00H, '_', 00H, 'B', 00H, 'O', 00H, 'O', 00H, 'T', 00H, '_', 00H
	DB	'E', 00H, 'N', 00H, 'C', 00H, 'R', 00H, 'Y', 00H, 'P', 00H, 'T'
	DB	00H, 'I', 00H, 'O', 00H, 'N', 00H, '_', 00H, 'S', 00H, 'E', 00H
	DB	'T', 00H, 'U', 00H, 'P', 00H, 00H, 00H	;  ?? ::FNODOBFM::`string'
text$s	ENDS
;	COMDAT ??_C@_1BK@LABJKOM@?$AA?2?$AAD?$AAo?$AAs?$AAD?$AAe?$AAv?$AAi?$AAc?$AAe?$AAs?$AA?2?$AA?$AA@FNODOBFM@
text$s	SEGMENT
??_C@_1BK@LABJKOM@?$AA?2?$AAD?$AAo?$AAs?$AAD?$AAe?$AAv?$AAi?$AAc?$AAe?$AAs?$AA?2?$AA?$AA@FNODOBFM@ DB '\'
	DB	00H, 'D', 00H, 'o', 00H, 's', 00H, 'D', 00H, 'e', 00H, 'v', 00H
	DB	'i', 00H, 'c', 00H, 'e', 00H, 's', 00H, '\', 00H, 00H, 00H ;  ?? ::FNODOBFM::`string'
text$s	ENDS
;	COMDAT ??_C@_1DA@GMJGMIMP@?$AA?2?$AAD?$AAe?$AAv?$AAi?$AAc?$AAe?$AA?2?$AAT?$AAr?$AAu?$AAe?$AAC?$AAr?$AAy?$AAp?$AAt?$AAV?$AAo?$AAl?$AAu?$AAm?$AAe?$AA?$AA@FNODOBFM@
text$s	SEGMENT
??_C@_1DA@GMJGMIMP@?$AA?2?$AAD?$AAe?$AAv?$AAi?$AAc?$AAe?$AA?2?$AAT?$AAr?$AAu?$AAe?$AAC?$AAr?$AAy?$AAp?$AAt?$AAV?$AAo?$AAl?$AAu?$AAm?$AAe?$AA?$AA@FNODOBFM@ DB '\'
	DB	00H, 'D', 00H, 'e', 00H, 'v', 00H, 'i', 00H, 'c', 00H, 'e', 00H
	DB	'\', 00H, 'T', 00H, 'r', 00H, 'u', 00H, 'e', 00H, 'C', 00H, 'r'
	DB	00H, 'y', 00H, 'p', 00H, 't', 00H, 'V', 00H, 'o', 00H, 'l', 00H
	DB	'u', 00H, 'm', 00H, 'e', 00H, 00H, 00H	;  ?? ::FNODOBFM::`string'
text$s	ENDS
;	COMDAT ??_C@_0BA@OMKHINCH@Closing?5volume?6?$AA@FNODOBFM@
text$s	SEGMENT
??_C@_0BA@OMKHINCH@Closing?5volume?6?$AA@FNODOBFM@ DB 'Closing volume', 0aH
	DB	00H						;  ?? ::FNODOBFM::`string'
text$s	ENDS
;	COMDAT ??_C@_0CO@PADHEFHE@irpSp?9?$DOMajorFunction?5?$DN?$DN?5IRP_MJ_D@FNODOBFM@
text$s	SEGMENT
??_C@_0CO@PADHEFHE@irpSp?9?$DOMajorFunction?5?$DN?$DN?5IRP_MJ_D@FNODOBFM@ DB 'i'
	DB	'rpSp->MajorFunction == IRP_MJ_DEVICE_CONTROL', 00H ;  ?? ::FNODOBFM::`string'
text$s	ENDS
;	COMDAT ??_C@_0DO@GJJNBBEG@Mount?5THREAD?5request?5for?5File?5?$CFl@FNODOBFM@
text$s	SEGMENT
??_C@_0DO@GJJNBBEG@Mount?5THREAD?5request?5for?5File?5?$CFl@FNODOBFM@ DB 'M'
	DB	'ount THREAD request for File %ls DriveNumber %d Device = %d', 0aH
	DB	00H						;  ?? ::FNODOBFM::`string'
text$s	ENDS
;	COMDAT ??_C@_19JHEHLFPM@?$AA?2?$AA?$DP?$AA?$DP?$AA?2?$AA?$AA@FNODOBFM@
text$s	SEGMENT
??_C@_19JHEHLFPM@?$AA?2?$AA?$DP?$AA?$DP?$AA?2?$AA?$AA@FNODOBFM@ DB '\', 00H
	DB	'?', 00H, '?', 00H, '\', 00H, 00H, 00H	;  ?? ::FNODOBFM::`string'
text$s	ENDS
;	COMDAT ??_C@_1BA@CCLAPIHO@?$AA?2?$AAD?$AAe?$AAv?$AAi?$AAc?$AAe?$AA?$AA@FNODOBFM@
text$s	SEGMENT
??_C@_1BA@CCLAPIHO@?$AA?2?$AAD?$AAe?$AAv?$AAi?$AAc?$AAe?$AA?$AA@FNODOBFM@ DB '\'
	DB	00H, 'D', 00H, 'e', 00H, 'v', 00H, 'i', 00H, 'c', 00H, 'e', 00H
	DB	00H, 00H					;  ?? ::FNODOBFM::`string'
text$s	ENDS
;	COMDAT ??_C@_0CD@LOGBEHKH@Mount?5THREAD?5OPENING?5VOLUME?5BEGI@FNODOBFM@
text$s	SEGMENT
??_C@_0CD@LOGBEHKH@Mount?5THREAD?5OPENING?5VOLUME?5BEGI@FNODOBFM@ DB 'Mou'
	DB	'nt THREAD OPENING VOLUME BEGIN', 0aH, 00H	;  ?? ::FNODOBFM::`string'
text$s	ENDS
;	COMDAT ??_C@_0P@OPFPPFJJ@Thread?5exited?6?$AA@FNODOBFM@
text$s	SEGMENT
??_C@_0P@OPFPPFJJ@Thread?5exited?6?$AA@FNODOBFM@ DB 'Thread exited', 0aH, 00H ;  ?? ::FNODOBFM::`string'
text$s	ENDS
;	COMDAT ??_C@_0BG@MEOILBFO@NT_SUCCESS?5?$CIntStatus?$CJ?$AA@FNODOBFM@
text$s	SEGMENT
??_C@_0BG@MEOILBFO@NT_SUCCESS?5?$CIntStatus?$CJ?$AA@FNODOBFM@ DB 'NT_SUCC'
	DB	'ESS (ntStatus)', 00H			;  ?? ::FNODOBFM::`string'
text$s	ENDS
;	COMDAT ??_C@_0BO@IDJGLOL@Signalling?5thread?5to?5quit?4?4?4?6?$AA@FNODOBFM@
text$s	SEGMENT
??_C@_0BO@IDJGLOL@Signalling?5thread?5to?5quit?4?4?4?6?$AA@FNODOBFM@ DB 'S'
	DB	'ignalling thread to quit...', 0aH, 00H	;  ?? ::FNODOBFM::`string'
text$s	ENDS
;	COMDAT ??_C@_0CK@KIOPBGEO@Waiting?5completed?$CB?5Thread?5return@FNODOBFM@
text$s	SEGMENT
??_C@_0CK@KIOPBGEO@Waiting?5completed?$CB?5Thread?5return@FNODOBFM@ DB 'W'
	DB	'aiting completed! Thread returns 0x%08x', 0aH, 00H ;  ?? ::FNODOBFM::`string'
text$s	ENDS
;	COMDAT ??_C@_0CF@DMBFEFC@Waiting?5for?5thread?5to?5initialize@FNODOBFM@
text$s	SEGMENT
??_C@_0CF@DMBFEFC@Waiting?5for?5thread?5to?5initialize@FNODOBFM@ DB 'Wait'
	DB	'ing for thread to initialize...', 0aH, 00H	;  ?? ::FNODOBFM::`string'
text$s	ENDS
;	COMDAT ??_C@_0CB@DGOAIPAC@PsCreateSystemThread?5Failed?5END?6@FNODOBFM@
text$s	SEGMENT
??_C@_0CB@DGOAIPAC@PsCreateSystemThread?5Failed?5END?6@FNODOBFM@ DB 'PsCr'
	DB	'eateSystemThread Failed END', 0aH, 00H	;  ?? ::FNODOBFM::`string'
text$s	ENDS
;	COMDAT ??_C@_0BE@DCPHDOHD@Starting?5thread?4?4?4?6?$AA@FNODOBFM@
text$s	SEGMENT
??_C@_0BE@DCPHDOHD@Starting?5thread?4?4?4?6?$AA@FNODOBFM@ DB 'Starting th'
	DB	'read...', 0aH, 00H				;  ?? ::FNODOBFM::`string'
text$s	ENDS
;	COMDAT ??_C@_0BE@MLCKFMJI@IOCTL?5error?50x?$CF08x?6?$AA@FNODOBFM@
text$s	SEGMENT
??_C@_0BE@MLCKFMJI@IOCTL?5error?50x?$CF08x?6?$AA@FNODOBFM@ DB 'IOCTL erro'
	DB	'r 0x%08x', 0aH, 00H				;  ?? ::FNODOBFM::`string'
text$s	ENDS
;	COMDAT ??_C@_0BH@GFMHOPFN@Setting?5portable?5mode?6?$AA@FNODOBFM@
text$s	SEGMENT
??_C@_0BH@GFMHOPFN@Setting?5portable?5mode?6?$AA@FNODOBFM@ DB 'Setting po'
	DB	'rtable mode', 0aH, 00H			;  ?? ::FNODOBFM::`string'
text$s	ENDS
;	COMDAT ??_C@_0CA@FCHCHJKN@Open?5test?5on?5file?5?$CFls?5success?4?6?$AA@FNODOBFM@
text$s	SEGMENT
??_C@_0CA@FCHCHJKN@Open?5test?5on?5file?5?$CFls?5success?4?6?$AA@FNODOBFM@ DB 'O'
	DB	'pen test on file %ls success.', 0aH, 00H	;  ?? ::FNODOBFM::`string'
text$s	ENDS
;	COMDAT ??_C@_09EMKKFGIH@TrueCrypt?$AA@FNODOBFM@
text$s	SEGMENT
??_C@_09EMKKFGIH@TrueCrypt?$AA@FNODOBFM@ DB 'TrueCrypt', 00H ;  ?? ::FNODOBFM::`string'
text$s	ENDS
;	COMDAT ??_C@_0BO@BEMMNDOD@IOCTL?5error?50x?$CF08x?5?$CI0x?$CFx?5?$CFd?$CJ?6?$AA@FNODOBFM@
text$s	SEGMENT
??_C@_0BO@BEMMNDOD@IOCTL?5error?50x?$CF08x?5?$CI0x?$CFx?5?$CFd?$CJ?6?$AA@FNODOBFM@ DB 'I'
	DB	'OCTL error 0x%08x (0x%x %d)', 0aH, 00H	;  ?? ::FNODOBFM::`string'
text$s	ENDS
;	COMDAT ??_C@_0M@HABEOOKA@link?5?$DN?5?$CFls?6?$AA@FNODOBFM@
text$s	SEGMENT
??_C@_0M@HABEOOKA@link?5?$DN?5?$CFls?6?$AA@FNODOBFM@ DB 'link = %ls', 0aH
	DB	00H						;  ?? ::FNODOBFM::`string'
text$s	ENDS
;	COMDAT ??_C@_08DALLBBIL@id?5?$DN?5?$CFs?6?$AA@FNODOBFM@
text$s	SEGMENT
??_C@_08DALLBBIL@id?5?$DN?5?$CFs?6?$AA@FNODOBFM@ DB 'id = %s', 0aH, 00H ;  ?? ::FNODOBFM::`string'
text$s	ENDS
;	COMDAT ??_C@_0BA@OLBPPLP@TrueCryptVolume?$AA@FNODOBFM@
text$s	SEGMENT
??_C@_0BA@OLBPPLP@TrueCryptVolume?$AA@FNODOBFM@ DB 'TrueCryptVolume', 00H ;  ?? ::FNODOBFM::`string'
text$s	ENDS
;	COMDAT ??_C@_0M@FBJPBOL@name?5?$DN?5?$CFls?6?$AA@FNODOBFM@
text$s	SEGMENT
??_C@_0M@FBJPBOL@name?5?$DN?5?$CFls?6?$AA@FNODOBFM@ DB 'name = %ls', 0aH, 00H ;  ?? ::FNODOBFM::`string'
text$s	ENDS
;	COMDAT ??_C@_0CJ@CAANMOOG@TCCreateDeviceObject?5STATUS_SUCC@FNODOBFM@
text$s	SEGMENT
??_C@_0CJ@CAANMOOG@TCCreateDeviceObject?5STATUS_SUCC@FNODOBFM@ DB 'TCCrea'
	DB	'teDeviceObject STATUS_SUCCESS END', 0aH, 00H ;  ?? ::FNODOBFM::`string'
text$s	ENDS
;	COMDAT ??_C@_0CM@DAAJFNOI@TCCreateDeviceObject?5NTSTATUS?5?$DN?5@FNODOBFM@
text$s	SEGMENT
??_C@_0CM@DAAJFNOI@TCCreateDeviceObject?5NTSTATUS?5?$DN?5@FNODOBFM@ DB 'T'
	DB	'CCreateDeviceObject NTSTATUS = 0x%08x END', 0aH, 00H ;  ?? ::FNODOBFM::`string'
text$s	ENDS
;	COMDAT ??_C@_0CA@MBKOBJGH@Creating?5device?5nt?$DN?$CFls?5dos?$DN?$CFls?6?$AA@FNODOBFM@
text$s	SEGMENT
??_C@_0CA@MBKOBJGH@Creating?5device?5nt?$DN?$CFls?5dos?$DN?$CFls?6?$AA@FNODOBFM@ DB 'C'
	DB	'reating device nt=%ls dos=%ls', 0aH, 00H	;  ?? ::FNODOBFM::`string'
text$s	ENDS
;	COMDAT ??_C@_0BM@HAIECJHN@TCCreateDeviceObject?5BEGIN?6?$AA@FNODOBFM@
text$s	SEGMENT
??_C@_0BM@HAIECJHN@TCCreateDeviceObject?5BEGIN?6?$AA@FNODOBFM@ DB 'TCCrea'
	DB	'teDeviceObject BEGIN', 0aH, 00H		;  ?? ::FNODOBFM::`string'
text$s	ENDS
;	COMDAT ??_C@_0CN@PMFMKKNC@TCCreateRootDeviceObject?5STATUS_@PBOPGDP@
INIT$s	SEGMENT
??_C@_0CN@PMFMKKNC@TCCreateRootDeviceObject?5STATUS_@PBOPGDP@ DB 'TCCreat'
	DB	'eRootDeviceObject STATUS_SUCCESS END', 0aH, 00H ;  ?? ::PBOPGDP::`string'
INIT$s	ENDS
;	COMDAT ??_C@_0DA@OJGNPLJ@TCCreateRootDeviceObject?5NTSTATU@PBOPGDP@
INIT$s	SEGMENT
??_C@_0DA@OJGNPLJ@TCCreateRootDeviceObject?5NTSTATU@PBOPGDP@ DB 'TCCreate'
	DB	'RootDeviceObject NTSTATUS = 0x%08x END', 0aH, 00H ;  ?? ::PBOPGDP::`string'
INIT$s	ENDS
;	COMDAT ??_C@_0CF@KMOPKHLE@Creating?5root?5device?5nt?$DN?$CFls?5dos?$DN@PBOPGDP@
INIT$s	SEGMENT
??_C@_0CF@KMOPKHLE@Creating?5root?5device?5nt?$DN?$CFls?5dos?$DN@PBOPGDP@ DB 'C'
	DB	'reating root device nt=%ls dos=%ls', 0aH, 00H ;  ?? ::PBOPGDP::`string'
INIT$s	ENDS
;	COMDAT ??_C@_1CM@KJDLPNIG@?$AA?2?$AAD?$AAo?$AAs?$AAD?$AAe?$AAv?$AAi?$AAc?$AAe?$AAs?$AA?2?$AAT?$AAr?$AAu?$AAe?$AAC?$AAr?$AAy?$AAp?$AAt?$AA?$AA@PBOPGDP@
INIT$s	SEGMENT
??_C@_1CM@KJDLPNIG@?$AA?2?$AAD?$AAo?$AAs?$AAD?$AAe?$AAv?$AAi?$AAc?$AAe?$AAs?$AA?2?$AAT?$AAr?$AAu?$AAe?$AAC?$AAr?$AAy?$AAp?$AAt?$AA?$AA@PBOPGDP@ DB '\'
	DB	00H, 'D', 00H, 'o', 00H, 's', 00H, 'D', 00H, 'e', 00H, 'v', 00H
	DB	'i', 00H, 'c', 00H, 'e', 00H, 's', 00H, '\', 00H, 'T', 00H, 'r'
	DB	00H, 'u', 00H, 'e', 00H, 'C', 00H, 'r', 00H, 'y', 00H, 'p', 00H
	DB	't', 00H, 00H, 00H				;  ?? ::PBOPGDP::`string'
INIT$s	ENDS
;	COMDAT ??_C@_0CE@KKOENIAD@KeGetCurrentIrql?$CI?$CJ?5?$DN?$DN?5PASSIVE_LE@PBOPGDP@
INIT$s	SEGMENT
??_C@_0CE@KKOENIAD@KeGetCurrentIrql?$CI?$CJ?5?$DN?$DN?5PASSIVE_LE@PBOPGDP@ DB 'K'
	DB	'eGetCurrentIrql() == PASSIVE_LEVEL', 00H	;  ?? ::PBOPGDP::`string'
INIT$s	ENDS
;	COMDAT ??_C@_0EC@PIHBGAHH@c?3?2users?2public?2desktop?2projects@PBOPGDP@
INIT$s	SEGMENT
??_C@_0EC@PIHBGAHH@c?3?2users?2public?2desktop?2projects@PBOPGDP@ DB 'c:\'
	DB	'users\public\desktop\projects\ciphershed\src\driver\ntdriver.'
	DB	'c', 00H					;  ?? ::PBOPGDP::`string'
INIT$s	ENDS
;	COMDAT ??_C@_0CA@NGANHIBM@TCCreateRootDeviceObject?5BEGIN?6?$AA@PBOPGDP@
INIT$s	SEGMENT
??_C@_0CA@NGANHIBM@TCCreateRootDeviceObject?5BEGIN?6?$AA@PBOPGDP@ DB 'TCC'
	DB	'reateRootDeviceObject BEGIN', 0aH, 00H	;  ?? ::PBOPGDP::`string'
INIT$s	ENDS
;	COMDAT ??_C@_0EC@PIHBGAHH@c?3?2users?2public?2desktop?2projects@FNODOBFM@
text$s	SEGMENT
??_C@_0EC@PIHBGAHH@c?3?2users?2public?2desktop?2projects@FNODOBFM@ DB 'c:'
	DB	'\users\public\desktop\projects\ciphershed\src\driver\ntdriver'
	DB	'.c', 00H					;  ?? ::FNODOBFM::`string'
text$s	ENDS
;	COMDAT ??_C@_0EI@NJLFEPKD@Removable?5device?5?$CFd?5has?5DO_VERIF@FNODOBFM@
text$s	SEGMENT
??_C@_0EI@NJLFEPKD@Removable?5device?5?$CFd?5has?5DO_VERIF@FNODOBFM@ DB 'R'
	DB	'emovable device %d has DO_VERIFY_VOLUME flag: STATUS_DEVICE_N'
	DB	'OT_READY', 0aH, 00H				;  ?? ::FNODOBFM::`string'
text$s	ENDS
;	COMDAT ??_C@_0DA@HGPNLENJ@Device?5?$CFd?5shutting?5down?3?5STATUS_@FNODOBFM@
text$s	SEGMENT
??_C@_0DA@HGPNLENJ@Device?5?$CFd?5shutting?5down?3?5STATUS_@FNODOBFM@ DB 'D'
	DB	'evice %d shutting down: STATUS_DELETE_PENDING', 0aH, 00H ;  ?? ::FNODOBFM::`string'
text$s	ENDS
;	COMDAT ??_C@_0BG@JHFMBFJC@Driver?5shutting?5down?6?$AA@FNODOBFM@
text$s	SEGMENT
??_C@_0BG@JHFMBFJC@Driver?5shutting?5down?6?$AA@FNODOBFM@ DB 'Driver shut'
	DB	'ting down', 0aH, 00H			;  ?? ::FNODOBFM::`string'
text$s	ENDS
;	COMDAT ??_C@_0P@CMDFIGFB@?$CFls?5?$CI0x?$CFx?5?$CFd?$CJ?6?$AA@FNODOBFM@
text$s	SEGMENT
??_C@_0P@CMDFIGFB@?$CFls?5?$CI0x?$CFx?5?$CFd?$CJ?6?$AA@FNODOBFM@ DB '%ls '
	DB	'(0x%x %d)', 0aH, 00H			;  ?? ::FNODOBFM::`string'
text$s	ENDS
;	COMDAT ??_C@_0FE@HIDEPCAO@STATUS_BUFFER_TOO_SMALL?5ioctl?$DN0x@FNODOBFM@
text$s	SEGMENT
??_C@_0FE@HIDEPCAO@STATUS_BUFFER_TOO_SMALL?5ioctl?$DN0x@FNODOBFM@ DB 'STA'
	DB	'TUS_BUFFER_TOO_SMALL ioctl=0x%x,%d in=%d out=%d reqsize=%d in'
	DB	'size=%d outsize=%d', 0aH, 00H		;  ?? ::FNODOBFM::`string'
text$s	ENDS
;	COMDAT ??_C@_0DF@IHIBAGEA@0x?$CF08p?5?5?$CF02x?5?$CF02x?5?$CF02x?5?$CF02x?5?$CF02x@FNODOBFM@
text$s	SEGMENT
??_C@_0DF@IHIBAGEA@0x?$CF08p?5?5?$CF02x?5?$CF02x?5?$CF02x?5?$CF02x?5?$CF02x@FNODOBFM@ DB '0'
	DB	'x%08p  %02x %02x %02x %02x %02x %02x %02x %02x  %s', 0aH, 00H ;  ?? ::FNODOBFM::`string'
text$s	ENDS
;	COMDAT ??_C@_0BN@PIELMKDH@Volume?5pdo?$DN?$CFp?5interface?$DN?$CFws?6?$AA@FNODOBFM@
text$s	SEGMENT
??_C@_0BN@PIELMKDH@Volume?5pdo?$DN?$CFp?5interface?$DN?$CFws?6?$AA@FNODOBFM@ DB 'V'
	DB	'olume pdo=%p interface=%ws', 0aH, 00H	;  ?? ::FNODOBFM::`string'
text$s	ENDS
;	COMDAT ??_C@_0CD@FCIMJPEM@AddDevice?5pdo?$DN?$CFp?5type?$DN?$CFx?5name?$DN?$CFw@FNODOBFM@
text$s	SEGMENT
??_C@_0CD@FCIMJPEM@AddDevice?5pdo?$DN?$CFp?5type?$DN?$CFx?5name?$DN?$CFw@FNODOBFM@ DB 'A'
	DB	'ddDevice pdo=%p type=%x name=%ws', 0aH, 00H	;  ?? ::FNODOBFM::`string'
text$s	ENDS
;	COMDAT ??_C@_13HGPDMIBE@?$AA?$DP?$AA?$AA@FNODOBFM@
text$s	SEGMENT
??_C@_13HGPDMIBE@?$AA?$DP?$AA?$AA@FNODOBFM@ DB '?', 00H, 00H, 00H ;  ?? ::FNODOBFM::`string'
text$s	ENDS
;	COMDAT ??_C@_1M@IOJLKPKK@?$AAS?$AAt?$AAa?$AAr?$AAt?$AA?$AA@PBOPGDP@
INIT$s	SEGMENT
??_C@_1M@IOJLKPKK@?$AAS?$AAt?$AAa?$AAr?$AAt?$AA?$AA@PBOPGDP@ DB 'S', 00H, 't'
	DB	00H, 'a', 00H, 'r', 00H, 't', 00H, 00H, 00H	;  ?? ::PBOPGDP::`string'
INIT$s	ENDS
;	COMDAT ??_C@_1CE@IPABBIFA@?$AA?2?$AAD?$AAe?$AAv?$AAi?$AAc?$AAe?$AA?2?$AAT?$AAr?$AAu?$AAe?$AAC?$AAr?$AAy?$AAp?$AAt?$AA?$AA@PBOPGDP@
INIT$s	SEGMENT
??_C@_1CE@IPABBIFA@?$AA?2?$AAD?$AAe?$AAv?$AAi?$AAc?$AAe?$AA?2?$AAT?$AAr?$AAu?$AAe?$AAC?$AAr?$AAy?$AAp?$AAt?$AA?$AA@PBOPGDP@ DB '\'
	DB	00H, 'D', 00H, 'e', 00H, 'v', 00H, 'i', 00H, 'c', 00H, 'e', 00H
	DB	'\', 00H, 'T', 00H, 'r', 00H, 'u', 00H, 'e', 00H, 'C', 00H, 'r'
	DB	00H, 'y', 00H, 'p', 00H, 't', 00H, 00H, 00H	;  ?? ::PBOPGDP::`string'
INIT$s	ENDS
;	COMDAT ??_C@_0BO@OAMALJLL@DriverEntry?5CipherShed?50?47?43?6?$AA@PBOPGDP@
INIT$s	SEGMENT
??_C@_0BO@OAMALJLL@DriverEntry?5CipherShed?50?47?43?6?$AA@PBOPGDP@ DB 'Dr'
	DB	'iverEntry CipherShed 0.7.3', 0aH, 00H	;  ?? ::PBOPGDP::`string'
PUBLIC	IsOSAtLeast
;	COMDAT pdata
; File c:\users\public\desktop\projects\ciphershed\src\driver\ntdriver.c
pdata	SEGMENT
$pdata$IsOSAtLeast DD imagerel $LN18
	DD	imagerel $LN18+416
	DD	imagerel $unwind$IsOSAtLeast
pdata	ENDS
;	COMDAT xdata
xdata	SEGMENT
$unwind$IsOSAtLeast DD 010801H
	DD	0a208H
; Function compile flags: /Odtp
xdata	ENDS
;	COMDAT IsOSAtLeast
_TEXT	SEGMENT
minor$ = 48
major$ = 52
tv69 = 56
tv70 = 60
tv85 = 64
reqMinOS$ = 96
IsOSAtLeast PROC					; COMDAT

; 3319 : {

$LN18:
  00000	89 4c 24 08	 mov	 DWORD PTR [rsp+8], ecx
  00004	48 83 ec 58	 sub	 rsp, 88			; 00000058H

; 3320 : 	/* When updating this function, update IsOSVersionAtLeast() in Dlgcode.c too. */
; 3321 : 
; 3322 : 	ULONG major = 0, minor = 0;

  00008	c7 44 24 34 00
	00 00 00	 mov	 DWORD PTR major$[rsp], 0
  00010	c7 44 24 30 00
	00 00 00	 mov	 DWORD PTR minor$[rsp], 0

; 3323 : 
; 3324 : 	ASSERT (OsMajorVersion != 0);

  00018	83 3d 00 00 00
	00 00		 cmp	 DWORD PTR OsMajorVersion, 0
  0001f	75 27		 jne	 SHORT $LN13@IsOSAtLeas
  00021	45 33 c9	 xor	 r9d, r9d
  00024	41 b8 fc 0c 00
	00		 mov	 r8d, 3324		; 00000cfcH
  0002a	48 8d 15 00 00
	00 00		 lea	 rdx, OFFSET FLAT:??_C@_0EC@PIHBGAHH@c?3?2users?2public?2desktop?2projects@FNODOBFM@
  00031	48 8d 0d 00 00
	00 00		 lea	 rcx, OFFSET FLAT:??_C@_0BE@JBJOLBIB@OsMajorVersion?5?$CB?$DN?50?$AA@FNODOBFM@
  00038	ff 15 00 00 00
	00		 call	 QWORD PTR __imp_RtlAssert
  0003e	c7 44 24 38 00
	00 00 00	 mov	 DWORD PTR tv69[rsp], 0
  00046	eb 08		 jmp	 SHORT $LN14@IsOSAtLeas
$LN13@IsOSAtLeas:
  00048	c7 44 24 38 01
	00 00 00	 mov	 DWORD PTR tv69[rsp], 1
$LN14@IsOSAtLeas:

; 3325 : 
; 3326 : 	switch (reqMinOS)

  00050	8b 44 24 60	 mov	 eax, DWORD PTR reqMinOS$[rsp]
  00054	89 44 24 3c	 mov	 DWORD PTR tv70[rsp], eax
  00058	8b 44 24 3c	 mov	 eax, DWORD PTR tv70[rsp]
  0005c	83 e8 07	 sub	 eax, 7
  0005f	89 44 24 3c	 mov	 DWORD PTR tv70[rsp], eax
  00063	83 7c 24 3c 0c	 cmp	 DWORD PTR tv70[rsp], 12
  00068	0f 87 99 00 00
	00		 ja	 $LN1@IsOSAtLeas
  0006e	48 63 44 24 3c	 movsxd	 rax, DWORD PTR tv70[rsp]
  00073	48 8d 0d 00 00
	00 00		 lea	 rcx, OFFSET FLAT:__ImageBase
  0007a	8b 84 81 00 00
	00 00		 mov	 eax, DWORD PTR $LN17@IsOSAtLeas[rcx+rax*4]
  00081	48 03 c1	 add	 rax, rcx
  00084	ff e0		 jmp	 rax
$LN8@IsOSAtLeas:

; 3327 : 	{
; 3328 : 	case WIN_2000:			major = 5; minor = 0; break;

  00086	c7 44 24 34 05
	00 00 00	 mov	 DWORD PTR major$[rsp], 5
  0008e	c7 44 24 30 00
	00 00 00	 mov	 DWORD PTR minor$[rsp], 0
  00096	e9 8b 00 00 00	 jmp	 $LN9@IsOSAtLeas
$LN7@IsOSAtLeas:

; 3329 : 	case WIN_XP:			major = 5; minor = 1; break;

  0009b	c7 44 24 34 05
	00 00 00	 mov	 DWORD PTR major$[rsp], 5
  000a3	c7 44 24 30 01
	00 00 00	 mov	 DWORD PTR minor$[rsp], 1
  000ab	eb 79		 jmp	 SHORT $LN9@IsOSAtLeas
$LN6@IsOSAtLeas:

; 3330 : 	case WIN_SERVER_2003:	major = 5; minor = 2; break;

  000ad	c7 44 24 34 05
	00 00 00	 mov	 DWORD PTR major$[rsp], 5
  000b5	c7 44 24 30 02
	00 00 00	 mov	 DWORD PTR minor$[rsp], 2
  000bd	eb 67		 jmp	 SHORT $LN9@IsOSAtLeas
$LN5@IsOSAtLeas:

; 3331 : 	case WIN_VISTA:			major = 6; minor = 0; break;

  000bf	c7 44 24 34 06
	00 00 00	 mov	 DWORD PTR major$[rsp], 6
  000c7	c7 44 24 30 00
	00 00 00	 mov	 DWORD PTR minor$[rsp], 0
  000cf	eb 55		 jmp	 SHORT $LN9@IsOSAtLeas
$LN4@IsOSAtLeas:

; 3332 : 	case WIN_7:				major = 6; minor = 1; break;

  000d1	c7 44 24 34 06
	00 00 00	 mov	 DWORD PTR major$[rsp], 6
  000d9	c7 44 24 30 01
	00 00 00	 mov	 DWORD PTR minor$[rsp], 1
  000e1	eb 43		 jmp	 SHORT $LN9@IsOSAtLeas
$LN3@IsOSAtLeas:

; 3333 : 	case WIN_8:				major = 6; minor = 2; break;

  000e3	c7 44 24 34 06
	00 00 00	 mov	 DWORD PTR major$[rsp], 6
  000eb	c7 44 24 30 02
	00 00 00	 mov	 DWORD PTR minor$[rsp], 2
  000f3	eb 31		 jmp	 SHORT $LN9@IsOSAtLeas
$LN2@IsOSAtLeas:

; 3334 : 	case WIN_10:			major = 6; minor = 4; break;

  000f5	c7 44 24 34 06
	00 00 00	 mov	 DWORD PTR major$[rsp], 6
  000fd	c7 44 24 30 04
	00 00 00	 mov	 DWORD PTR minor$[rsp], 4
  00105	eb 1f		 jmp	 SHORT $LN9@IsOSAtLeas
$LN1@IsOSAtLeas:

; 3335 : 
; 3336 : 	default:
; 3337 : 		TC_THROW_FATAL_EXCEPTION;

  00107	48 c7 44 24 20
	43 54 00 00	 mov	 QWORD PTR [rsp+32], 21571 ; 00005443H
  00110	45 33 c9	 xor	 r9d, r9d
  00113	45 33 c0	 xor	 r8d, r8d
  00116	ba 09 0d 00 00	 mov	 edx, 3337		; 00000d09H
  0011b	b9 29 00 00 00	 mov	 ecx, 41			; 00000029H
  00120	ff 15 00 00 00
	00		 call	 QWORD PTR __imp_KeBugCheckEx
$LN9@IsOSAtLeas:

; 3338 : 		break;
; 3339 : 	}
; 3340 : 
; 3341 : 	return ((OsMajorVersion << 16 | OsMinorVersion << 8)
; 3342 : 		>= (major << 16 | minor << 8));

  00126	8b 15 00 00 00
	00		 mov	 edx, DWORD PTR OsMajorVersion
  0012c	c1 e2 10	 shl	 edx, 16
  0012f	8b 05 00 00 00
	00		 mov	 eax, DWORD PTR OsMinorVersion
  00135	c1 e0 08	 shl	 eax, 8
  00138	0b d0		 or	 edx, eax
  0013a	8b 44 24 34	 mov	 eax, DWORD PTR major$[rsp]
  0013e	c1 e0 10	 shl	 eax, 16
  00141	8b 4c 24 30	 mov	 ecx, DWORD PTR minor$[rsp]
  00145	c1 e1 08	 shl	 ecx, 8
  00148	0b c1		 or	 eax, ecx
  0014a	3b d0		 cmp	 edx, eax
  0014c	72 0a		 jb	 SHORT $LN15@IsOSAtLeas
  0014e	c7 44 24 40 01
	00 00 00	 mov	 DWORD PTR tv85[rsp], 1
  00156	eb 08		 jmp	 SHORT $LN16@IsOSAtLeas
$LN15@IsOSAtLeas:
  00158	c7 44 24 40 00
	00 00 00	 mov	 DWORD PTR tv85[rsp], 0
$LN16@IsOSAtLeas:
  00160	8b 44 24 40	 mov	 eax, DWORD PTR tv85[rsp]
$LN12@IsOSAtLeas:

; 3343 : }

  00164	48 83 c4 58	 add	 rsp, 88			; 00000058H
  00168	c3		 ret	 0
  00169	0f 1f 00	 npad	 3
$LN17@IsOSAtLeas:
  0016c	00 00 00 00	 DD	 $LN8@IsOSAtLeas
  00170	00 00 00 00	 DD	 $LN7@IsOSAtLeas
  00174	00 00 00 00	 DD	 $LN1@IsOSAtLeas
  00178	00 00 00 00	 DD	 $LN6@IsOSAtLeas
  0017c	00 00 00 00	 DD	 $LN5@IsOSAtLeas
  00180	00 00 00 00	 DD	 $LN1@IsOSAtLeas
  00184	00 00 00 00	 DD	 $LN4@IsOSAtLeas
  00188	00 00 00 00	 DD	 $LN1@IsOSAtLeas
  0018c	00 00 00 00	 DD	 $LN3@IsOSAtLeas
  00190	00 00 00 00	 DD	 $LN1@IsOSAtLeas
  00194	00 00 00 00	 DD	 $LN1@IsOSAtLeas
  00198	00 00 00 00	 DD	 $LN1@IsOSAtLeas
  0019c	00 00 00 00	 DD	 $LN2@IsOSAtLeas
IsOSAtLeast ENDP
_TEXT	ENDS
PUBLIC	TCReadRegistryKey
;	COMDAT pdata
pdata	SEGMENT
$pdata$TCReadRegistryKey DD imagerel $LN7
	DD	imagerel $LN7+443
	DD	imagerel $unwind$TCReadRegistryKey
pdata	ENDS
;	COMDAT xdata
xdata	SEGMENT
$unwind$TCReadRegistryKey DD 021601H
	DD	0130116H
; Function compile flags: /Odtp
xdata	ENDS
;	COMDAT TCReadRegistryKey
_TEXT	SEGMENT
regObjAttribs$ = 48
size$ = 96
valName$ = 104
regKeyHandle$ = 120
status$ = 128
resultSize$ = 132
keyPath$ = 160
keyValueName$ = 168
keyData$ = 176
TCReadRegistryKey PROC					; COMDAT

; 3013 : {

$LN7:
  00000	4c 89 44 24 18	 mov	 QWORD PTR [rsp+24], r8
  00005	48 89 54 24 10	 mov	 QWORD PTR [rsp+16], rdx
  0000a	48 89 4c 24 08	 mov	 QWORD PTR [rsp+8], rcx
  0000f	48 81 ec 98 00
	00 00		 sub	 rsp, 152		; 00000098H

; 3014 : 	OBJECT_ATTRIBUTES regObjAttribs;
; 3015 : 	HANDLE regKeyHandle;
; 3016 : 	NTSTATUS status;
; 3017 : 	UNICODE_STRING valName;
; 3018 : 	ULONG size = 0;

  00016	c7 44 24 60 00
	00 00 00	 mov	 DWORD PTR size$[rsp], 0

; 3019 : 	ULONG resultSize;
; 3020 : 
; 3021 : 	InitializeObjectAttributes (&regObjAttribs, keyPath, OBJ_KERNEL_HANDLE | OBJ_CASE_INSENSITIVE, NULL, NULL);

  0001e	c7 44 24 30 30
	00 00 00	 mov	 DWORD PTR regObjAttribs$[rsp], 48 ; 00000030H
  00026	48 c7 44 24 38
	00 00 00 00	 mov	 QWORD PTR regObjAttribs$[rsp+8], 0
  0002f	c7 44 24 48 40
	02 00 00	 mov	 DWORD PTR regObjAttribs$[rsp+24], 576 ; 00000240H
  00037	48 8b 84 24 a0
	00 00 00	 mov	 rax, QWORD PTR keyPath$[rsp]
  0003f	48 89 44 24 40	 mov	 QWORD PTR regObjAttribs$[rsp+16], rax
  00044	48 c7 44 24 50
	00 00 00 00	 mov	 QWORD PTR regObjAttribs$[rsp+32], 0
  0004d	48 c7 44 24 58
	00 00 00 00	 mov	 QWORD PTR regObjAttribs$[rsp+40], 0

; 3022 : 	status = ZwOpenKey (&regKeyHandle, KEY_READ, &regObjAttribs);

  00056	4c 8d 44 24 30	 lea	 r8, QWORD PTR regObjAttribs$[rsp]
  0005b	ba 19 00 02 00	 mov	 edx, 131097		; 00020019H
  00060	48 8d 4c 24 78	 lea	 rcx, QWORD PTR regKeyHandle$[rsp]
  00065	ff 15 00 00 00
	00		 call	 QWORD PTR __imp_ZwOpenKey
  0006b	89 84 24 80 00
	00 00		 mov	 DWORD PTR status$[rsp], eax

; 3023 : 	if (!NT_SUCCESS (status))

  00072	83 bc 24 80 00
	00 00 00	 cmp	 DWORD PTR status$[rsp], 0
  0007a	7d 0c		 jge	 SHORT $LN4@TCReadRegi

; 3024 : 		return status;

  0007c	8b 84 24 80 00
	00 00		 mov	 eax, DWORD PTR status$[rsp]
  00083	e9 2b 01 00 00	 jmp	 $LN5@TCReadRegi
$LN4@TCReadRegi:

; 3025 : 
; 3026 : 	RtlInitUnicodeString (&valName, keyValueName);

  00088	48 8b 94 24 a8
	00 00 00	 mov	 rdx, QWORD PTR keyValueName$[rsp]
  00090	48 8d 4c 24 68	 lea	 rcx, QWORD PTR valName$[rsp]
  00095	ff 15 00 00 00
	00		 call	 QWORD PTR __imp_RtlInitUnicodeString

; 3027 : 	status = ZwQueryValueKey (regKeyHandle, &valName, KeyValuePartialInformation, NULL, 0, &size);

  0009b	4c 8d 5c 24 60	 lea	 r11, QWORD PTR size$[rsp]
  000a0	4c 89 5c 24 28	 mov	 QWORD PTR [rsp+40], r11
  000a5	c7 44 24 20 00
	00 00 00	 mov	 DWORD PTR [rsp+32], 0
  000ad	45 33 c9	 xor	 r9d, r9d
  000b0	41 b8 02 00 00
	00		 mov	 r8d, 2
  000b6	48 8d 54 24 68	 lea	 rdx, QWORD PTR valName$[rsp]
  000bb	48 8b 4c 24 78	 mov	 rcx, QWORD PTR regKeyHandle$[rsp]
  000c0	ff 15 00 00 00
	00		 call	 QWORD PTR __imp_ZwQueryValueKey
  000c6	89 84 24 80 00
	00 00		 mov	 DWORD PTR status$[rsp], eax

; 3028 : 		
; 3029 : 	if (!NT_SUCCESS (status) && status != STATUS_BUFFER_OVERFLOW && status != STATUS_BUFFER_TOO_SMALL)

  000cd	83 bc 24 80 00
	00 00 00	 cmp	 DWORD PTR status$[rsp], 0
  000d5	7d 31		 jge	 SHORT $LN3@TCReadRegi
  000d7	81 bc 24 80 00
	00 00 05 00 00
	80		 cmp	 DWORD PTR status$[rsp], -2147483643 ; ffffffff80000005H
  000e2	74 24		 je	 SHORT $LN3@TCReadRegi
  000e4	81 bc 24 80 00
	00 00 23 00 00
	c0		 cmp	 DWORD PTR status$[rsp], -1073741789 ; ffffffffc0000023H
  000ef	74 17		 je	 SHORT $LN3@TCReadRegi

; 3030 : 	{
; 3031 : 		ZwClose (regKeyHandle);

  000f1	48 8b 4c 24 78	 mov	 rcx, QWORD PTR regKeyHandle$[rsp]
  000f6	ff 15 00 00 00
	00		 call	 QWORD PTR __imp_ZwClose

; 3032 : 		return status;

  000fc	8b 84 24 80 00
	00 00		 mov	 eax, DWORD PTR status$[rsp]
  00103	e9 ab 00 00 00	 jmp	 $LN5@TCReadRegi
$LN3@TCReadRegi:

; 3033 : 	}
; 3034 : 
; 3035 : 	if (size == 0)

  00108	83 7c 24 60 00	 cmp	 DWORD PTR size$[rsp], 0
  0010d	75 15		 jne	 SHORT $LN2@TCReadRegi

; 3036 : 	{
; 3037 : 		ZwClose (regKeyHandle);

  0010f	48 8b 4c 24 78	 mov	 rcx, QWORD PTR regKeyHandle$[rsp]
  00114	ff 15 00 00 00
	00		 call	 QWORD PTR __imp_ZwClose

; 3038 : 		return STATUS_NO_DATA_DETECTED;

  0011a	b8 22 00 00 80	 mov	 eax, -2147483614	; ffffffff80000022H
  0011f	e9 8f 00 00 00	 jmp	 $LN5@TCReadRegi
$LN2@TCReadRegi:

; 3039 : 	}
; 3040 : 
; 3041 : 	*keyData = (PKEY_VALUE_PARTIAL_INFORMATION) TCalloc (size);

  00124	8b 54 24 60	 mov	 edx, DWORD PTR size$[rsp]
  00128	41 b8 54 43 4d
	4d		 mov	 r8d, 1296909140		; 4d4d4354H
  0012e	33 c9		 xor	 ecx, ecx
  00130	ff 15 00 00 00
	00		 call	 QWORD PTR __imp_ExAllocatePoolWithTag
  00136	4c 8b d8	 mov	 r11, rax
  00139	48 8b 84 24 b0
	00 00 00	 mov	 rax, QWORD PTR keyData$[rsp]
  00141	4c 89 18	 mov	 QWORD PTR [rax], r11

; 3042 : 	if (!*keyData)

  00144	48 8b 84 24 b0
	00 00 00	 mov	 rax, QWORD PTR keyData$[rsp]
  0014c	48 83 38 00	 cmp	 QWORD PTR [rax], 0
  00150	75 12		 jne	 SHORT $LN1@TCReadRegi

; 3043 : 	{
; 3044 : 		ZwClose (regKeyHandle);

  00152	48 8b 4c 24 78	 mov	 rcx, QWORD PTR regKeyHandle$[rsp]
  00157	ff 15 00 00 00
	00		 call	 QWORD PTR __imp_ZwClose

; 3045 : 		return STATUS_INSUFFICIENT_RESOURCES;

  0015d	b8 9a 00 00 c0	 mov	 eax, -1073741670	; ffffffffc000009aH
  00162	eb 4f		 jmp	 SHORT $LN5@TCReadRegi
$LN1@TCReadRegi:

; 3046 : 	}
; 3047 : 
; 3048 : 	status = ZwQueryValueKey (regKeyHandle, &valName, KeyValuePartialInformation, *keyData, size, &resultSize);

  00164	48 8d 84 24 84
	00 00 00	 lea	 rax, QWORD PTR resultSize$[rsp]
  0016c	48 89 44 24 28	 mov	 QWORD PTR [rsp+40], rax
  00171	8b 44 24 60	 mov	 eax, DWORD PTR size$[rsp]
  00175	89 44 24 20	 mov	 DWORD PTR [rsp+32], eax
  00179	4c 8b 8c 24 b0
	00 00 00	 mov	 r9, QWORD PTR keyData$[rsp]
  00181	4d 8b 09	 mov	 r9, QWORD PTR [r9]
  00184	41 b8 02 00 00
	00		 mov	 r8d, 2
  0018a	48 8d 54 24 68	 lea	 rdx, QWORD PTR valName$[rsp]
  0018f	48 8b 4c 24 78	 mov	 rcx, QWORD PTR regKeyHandle$[rsp]
  00194	ff 15 00 00 00
	00		 call	 QWORD PTR __imp_ZwQueryValueKey
  0019a	89 84 24 80 00
	00 00		 mov	 DWORD PTR status$[rsp], eax

; 3049 : 
; 3050 : 	ZwClose (regKeyHandle);

  001a1	48 8b 4c 24 78	 mov	 rcx, QWORD PTR regKeyHandle$[rsp]
  001a6	ff 15 00 00 00
	00		 call	 QWORD PTR __imp_ZwClose

; 3051 : 	return status;

  001ac	8b 84 24 80 00
	00 00		 mov	 eax, DWORD PTR status$[rsp]
$LN5@TCReadRegi:

; 3052 : }

  001b3	48 81 c4 98 00
	00 00		 add	 rsp, 152		; 00000098H
  001ba	c3		 ret	 0
TCReadRegistryKey ENDP
_TEXT	ENDS
PUBLIC	EnsureNullTerminatedString
;	COMDAT pdata
pdata	SEGMENT
$pdata$EnsureNullTerminatedString DD imagerel $LN5
	DD	imagerel $LN5+111
	DD	imagerel $unwind$EnsureNullTerminatedString
pdata	ENDS
;	COMDAT xdata
xdata	SEGMENT
$unwind$EnsureNullTerminatedString DD 010e01H
	DD	0620eH
; Function compile flags: /Odtp
xdata	ENDS
;	COMDAT EnsureNullTerminatedString
_TEXT	SEGMENT
tv70 = 32
str$ = 64
maxSizeInBytes$ = 72
EnsureNullTerminatedString PROC				; COMDAT

; 2981 : {

$LN5:
  00000	48 89 54 24 10	 mov	 QWORD PTR [rsp+16], rdx
  00005	48 89 4c 24 08	 mov	 QWORD PTR [rsp+8], rcx
  0000a	48 83 ec 38	 sub	 rsp, 56			; 00000038H

; 2982 : 	ASSERT ((maxSizeInBytes & 1) == 0);

  0000e	48 8b 44 24 48	 mov	 rax, QWORD PTR maxSizeInBytes$[rsp]
  00013	48 83 e0 01	 and	 rax, 1
  00017	48 85 c0	 test	 rax, rax
  0001a	74 27		 je	 SHORT $LN3@EnsureNull
  0001c	45 33 c9	 xor	 r9d, r9d
  0001f	41 b8 a6 0b 00
	00		 mov	 r8d, 2982		; 00000ba6H
  00025	48 8d 15 00 00
	00 00		 lea	 rdx, OFFSET FLAT:??_C@_0EC@PIHBGAHH@c?3?2users?2public?2desktop?2projects@FNODOBFM@
  0002c	48 8d 0d 00 00
	00 00		 lea	 rcx, OFFSET FLAT:??_C@_0BK@BGEEJMHD@?$CImaxSizeInBytes?5?$CG?51?$CJ?5?$DN?$DN?50?$AA@FNODOBFM@
  00033	ff 15 00 00 00
	00		 call	 QWORD PTR __imp_RtlAssert
  00039	c7 44 24 20 00
	00 00 00	 mov	 DWORD PTR tv70[rsp], 0
  00041	eb 08		 jmp	 SHORT $LN4@EnsureNull
$LN3@EnsureNull:
  00043	c7 44 24 20 01
	00 00 00	 mov	 DWORD PTR tv70[rsp], 1
$LN4@EnsureNull:

; 2983 : 	str[maxSizeInBytes / sizeof (wchar_t) - 1] = 0;

  0004b	33 d2		 xor	 edx, edx
  0004d	48 8b 44 24 48	 mov	 rax, QWORD PTR maxSizeInBytes$[rsp]
  00052	b9 02 00 00 00	 mov	 ecx, 2
  00057	48 f7 f1	 div	 rcx
  0005a	4c 8b c0	 mov	 r8, rax
  0005d	33 c9		 xor	 ecx, ecx
  0005f	48 8b 44 24 40	 mov	 rax, QWORD PTR str$[rsp]
  00064	66 42 89 4c 40
	fe		 mov	 WORD PTR [rax+r8*2-2], cx

; 2984 : }

  0006a	48 83 c4 38	 add	 rsp, 56			; 00000038H
  0006e	c3		 ret	 0
EnsureNullTerminatedString ENDP
_TEXT	ENDS
PUBLIC	GetCpuCount
;	COMDAT pdata
pdata	SEGMENT
$pdata$GetCpuCount DD imagerel $LN7
	DD	imagerel $LN7+130
	DD	imagerel $unwind$GetCpuCount
pdata	ENDS
;	COMDAT xdata
xdata	SEGMENT
$unwind$GetCpuCount DD 010401H
	DD	08204H
; Function compile flags: /Odtp
xdata	ENDS
;	COMDAT GetCpuCount
_TEXT	SEGMENT
mapSize$ = 32
activeCpuMap$ = 40
cpuCount$ = 48
GetCpuCount PROC					; COMDAT

; 2960 : {

$LN7:
  00000	48 83 ec 48	 sub	 rsp, 72			; 00000048H

; 2961 : 	KAFFINITY activeCpuMap = KeQueryActiveProcessors();

  00004	ff 15 00 00 00
	00		 call	 QWORD PTR __imp_KeQueryActiveProcessors
  0000a	48 89 44 24 28	 mov	 QWORD PTR activeCpuMap$[rsp], rax

; 2962 : 	size_t mapSize = sizeof (activeCpuMap) * 8;

  0000f	48 c7 44 24 20
	40 00 00 00	 mov	 QWORD PTR mapSize$[rsp], 64 ; 00000040H

; 2963 : 	size_t cpuCount = 0;

  00018	48 c7 44 24 30
	00 00 00 00	 mov	 QWORD PTR cpuCount$[rsp], 0
$LN4@GetCpuCoun:

; 2964 : 
; 2965 : 	while (mapSize--)

  00021	48 8b 4c 24 20	 mov	 rcx, QWORD PTR mapSize$[rsp]
  00026	48 8b 44 24 20	 mov	 rax, QWORD PTR mapSize$[rsp]
  0002b	48 83 e8 01	 sub	 rax, 1
  0002f	48 89 44 24 20	 mov	 QWORD PTR mapSize$[rsp], rax
  00034	48 85 c9	 test	 rcx, rcx
  00037	74 2b		 je	 SHORT $LN3@GetCpuCoun

; 2966 : 	{
; 2967 : 		if (activeCpuMap & 1)

  00039	48 8b 44 24 28	 mov	 rax, QWORD PTR activeCpuMap$[rsp]
  0003e	48 83 e0 01	 and	 rax, 1
  00042	48 85 c0	 test	 rax, rax
  00045	74 0e		 je	 SHORT $LN2@GetCpuCoun

; 2968 : 			++cpuCount;

  00047	48 8b 44 24 30	 mov	 rax, QWORD PTR cpuCount$[rsp]
  0004c	48 83 c0 01	 add	 rax, 1
  00050	48 89 44 24 30	 mov	 QWORD PTR cpuCount$[rsp], rax
$LN2@GetCpuCoun:

; 2969 : 
; 2970 : 		activeCpuMap >>= 1;

  00055	48 8b 44 24 28	 mov	 rax, QWORD PTR activeCpuMap$[rsp]
  0005a	48 d1 e8	 shr	 rax, 1
  0005d	48 89 44 24 28	 mov	 QWORD PTR activeCpuMap$[rsp], rax

; 2971 : 	}

  00062	eb bd		 jmp	 SHORT $LN4@GetCpuCoun
$LN3@GetCpuCoun:

; 2972 : 
; 2973 : 	if (cpuCount == 0)

  00064	48 83 7c 24 30
	00		 cmp	 QWORD PTR cpuCount$[rsp], 0
  0006a	75 0c		 jne	 SHORT $LN1@GetCpuCoun

; 2974 : 		return 1;

  0006c	48 b8 01 00 00
	00 00 00 00 00	 mov	 rax, 1
  00076	eb 05		 jmp	 SHORT $LN5@GetCpuCoun
$LN1@GetCpuCoun:

; 2975 : 
; 2976 : 	return cpuCount;

  00078	48 8b 44 24 30	 mov	 rax, QWORD PTR cpuCount$[rsp]
$LN5@GetCpuCoun:

; 2977 : }

  0007d	48 83 c4 48	 add	 rsp, 72			; 00000048H
  00081	c3		 ret	 0
GetCpuCount ENDP
_TEXT	ENDS
PUBLIC	TCCompleteDiskIrp
;	COMDAT pdata
pdata	SEGMENT
$pdata$TCCompleteDiskIrp DD imagerel $LN5
	DD	imagerel $LN5+94
	DD	imagerel $unwind$TCCompleteDiskIrp
pdata	ENDS
;	COMDAT xdata
xdata	SEGMENT
$unwind$TCCompleteDiskIrp DD 011201H
	DD	06212H
; Function compile flags: /Odtp
xdata	ENDS
;	COMDAT TCCompleteDiskIrp
_TEXT	SEGMENT
tv67 = 32
irp$ = 64
status$ = 72
information$ = 80
TCCompleteDiskIrp PROC					; COMDAT

; 2951 : {

$LN5:
  00000	4c 89 44 24 18	 mov	 QWORD PTR [rsp+24], r8
  00005	89 54 24 10	 mov	 DWORD PTR [rsp+16], edx
  00009	48 89 4c 24 08	 mov	 QWORD PTR [rsp+8], rcx
  0000e	48 83 ec 38	 sub	 rsp, 56			; 00000038H

; 2952 : 	irp->IoStatus.Status = status;

  00012	48 8b 4c 24 40	 mov	 rcx, QWORD PTR irp$[rsp]
  00017	8b 44 24 48	 mov	 eax, DWORD PTR status$[rsp]
  0001b	89 41 30	 mov	 DWORD PTR [rcx+48], eax

; 2953 : 	irp->IoStatus.Information = information;

  0001e	48 8b 4c 24 40	 mov	 rcx, QWORD PTR irp$[rsp]
  00023	48 8b 44 24 50	 mov	 rax, QWORD PTR information$[rsp]
  00028	48 89 41 38	 mov	 QWORD PTR [rcx+56], rax

; 2954 : 	IoCompleteRequest (irp, NT_SUCCESS (status) ? IO_DISK_INCREMENT : IO_NO_INCREMENT);

  0002c	83 7c 24 48 00	 cmp	 DWORD PTR status$[rsp], 0
  00031	7c 0a		 jl	 SHORT $LN3@TCComplete
  00033	c7 44 24 20 01
	00 00 00	 mov	 DWORD PTR tv67[rsp], 1
  0003b	eb 08		 jmp	 SHORT $LN4@TCComplete
$LN3@TCComplete:
  0003d	c7 44 24 20 00
	00 00 00	 mov	 DWORD PTR tv67[rsp], 0
$LN4@TCComplete:
  00045	0f b6 54 24 20	 movzx	 edx, BYTE PTR tv67[rsp]
  0004a	48 8b 4c 24 40	 mov	 rcx, QWORD PTR irp$[rsp]
  0004f	ff 15 00 00 00
	00		 call	 QWORD PTR __imp_IofCompleteRequest

; 2955 : 	return status;

  00055	8b 44 24 48	 mov	 eax, DWORD PTR status$[rsp]

; 2956 : }

  00059	48 83 c4 38	 add	 rsp, 56			; 00000038H
  0005d	c3		 ret	 0
TCCompleteDiskIrp ENDP
_TEXT	ENDS
PUBLIC	TCCompleteIrp
;	COMDAT pdata
pdata	SEGMENT
$pdata$TCCompleteIrp DD imagerel $LN3
	DD	imagerel $LN3+66
	DD	imagerel $unwind$TCCompleteIrp
pdata	ENDS
;	COMDAT xdata
xdata	SEGMENT
$unwind$TCCompleteIrp DD 011201H
	DD	04212H
; Function compile flags: /Odtp
xdata	ENDS
;	COMDAT TCCompleteIrp
_TEXT	SEGMENT
irp$ = 48
status$ = 56
information$ = 64
TCCompleteIrp PROC					; COMDAT

; 2942 : {

$LN3:
  00000	4c 89 44 24 18	 mov	 QWORD PTR [rsp+24], r8
  00005	89 54 24 10	 mov	 DWORD PTR [rsp+16], edx
  00009	48 89 4c 24 08	 mov	 QWORD PTR [rsp+8], rcx
  0000e	48 83 ec 28	 sub	 rsp, 40			; 00000028H

; 2943 : 	irp->IoStatus.Status = status;

  00012	48 8b 4c 24 30	 mov	 rcx, QWORD PTR irp$[rsp]
  00017	8b 44 24 38	 mov	 eax, DWORD PTR status$[rsp]
  0001b	89 41 30	 mov	 DWORD PTR [rcx+48], eax

; 2944 : 	irp->IoStatus.Information = information;

  0001e	48 8b 4c 24 30	 mov	 rcx, QWORD PTR irp$[rsp]
  00023	48 8b 44 24 40	 mov	 rax, QWORD PTR information$[rsp]
  00028	48 89 41 38	 mov	 QWORD PTR [rcx+56], rax

; 2945 : 	IoCompleteRequest (irp, IO_NO_INCREMENT);

  0002c	33 d2		 xor	 edx, edx
  0002e	48 8b 4c 24 30	 mov	 rcx, QWORD PTR irp$[rsp]
  00033	ff 15 00 00 00
	00		 call	 QWORD PTR __imp_IofCompleteRequest

; 2946 : 	return status;

  00039	8b 44 24 38	 mov	 eax, DWORD PTR status$[rsp]

; 2947 : }

  0003d	48 83 c4 28	 add	 rsp, 40			; 00000028H
  00041	c3		 ret	 0
TCCompleteIrp ENDP
_TEXT	ENDS
PUBLIC	GetIntersection
;	COMDAT pdata
pdata	SEGMENT
$pdata$GetIntersection DD imagerel $LN10
	DD	imagerel $LN10+217
	DD	imagerel $unwind$GetIntersection
pdata	ENDS
;	COMDAT xdata
xdata	SEGMENT
$unwind$GetIntersection DD 011701H
	DD	06217H
; Function compile flags: /Odtp
xdata	ENDS
;	COMDAT GetIntersection
_TEXT	SEGMENT
intersectEnd$ = 0
end1$ = 8
tv68 = 16
tv70 = 24
tv74 = 32
start1$ = 64
length1$ = 72
start2$ = 80
end2$ = 88
intersectStart$ = 96
intersectLength$ = 104
GetIntersection PROC					; COMDAT

; 2852 : {

$LN10:
  00000	4c 89 4c 24 20	 mov	 QWORD PTR [rsp+32], r9
  00005	4c 89 44 24 18	 mov	 QWORD PTR [rsp+24], r8
  0000a	89 54 24 10	 mov	 DWORD PTR [rsp+16], edx
  0000e	48 89 4c 24 08	 mov	 QWORD PTR [rsp+8], rcx
  00013	48 83 ec 38	 sub	 rsp, 56			; 00000038H

; 2853 : 	uint64 end1 = start1 + length1 - 1;

  00017	8b 4c 24 48	 mov	 ecx, DWORD PTR length1$[rsp]
  0001b	48 8b 44 24 40	 mov	 rax, QWORD PTR start1$[rsp]
  00020	48 8d 44 08 ff	 lea	 rax, QWORD PTR [rax+rcx-1]
  00025	48 89 44 24 08	 mov	 QWORD PTR end1$[rsp], rax

; 2854 : 	uint64 intersectEnd = (end1 <= end2) ? end1 : end2;

  0002a	48 8b 44 24 58	 mov	 rax, QWORD PTR end2$[rsp]
  0002f	48 39 44 24 08	 cmp	 QWORD PTR end1$[rsp], rax
  00034	77 0c		 ja	 SHORT $LN4@GetInterse
  00036	48 8b 44 24 08	 mov	 rax, QWORD PTR end1$[rsp]
  0003b	48 89 44 24 10	 mov	 QWORD PTR tv68[rsp], rax
  00040	eb 0a		 jmp	 SHORT $LN5@GetInterse
$LN4@GetInterse:
  00042	48 8b 44 24 58	 mov	 rax, QWORD PTR end2$[rsp]
  00047	48 89 44 24 10	 mov	 QWORD PTR tv68[rsp], rax
$LN5@GetInterse:
  0004c	48 8b 44 24 10	 mov	 rax, QWORD PTR tv68[rsp]
  00051	48 89 04 24	 mov	 QWORD PTR intersectEnd$[rsp], rax

; 2855 : 	
; 2856 : 	*intersectStart = (start1 >= start2) ? start1 : start2;

  00055	48 8b 44 24 50	 mov	 rax, QWORD PTR start2$[rsp]
  0005a	48 39 44 24 40	 cmp	 QWORD PTR start1$[rsp], rax
  0005f	72 0c		 jb	 SHORT $LN6@GetInterse
  00061	48 8b 44 24 40	 mov	 rax, QWORD PTR start1$[rsp]
  00066	48 89 44 24 18	 mov	 QWORD PTR tv70[rsp], rax
  0006b	eb 0a		 jmp	 SHORT $LN7@GetInterse
$LN6@GetInterse:
  0006d	48 8b 44 24 50	 mov	 rax, QWORD PTR start2$[rsp]
  00072	48 89 44 24 18	 mov	 QWORD PTR tv70[rsp], rax
$LN7@GetInterse:
  00077	48 8b 4c 24 60	 mov	 rcx, QWORD PTR intersectStart$[rsp]
  0007c	48 8b 44 24 18	 mov	 rax, QWORD PTR tv70[rsp]
  00081	48 89 01	 mov	 QWORD PTR [rcx], rax

; 2857 : 	*intersectLength = (uint32) ((*intersectStart > intersectEnd) ? 0 : intersectEnd + 1 - *intersectStart);

  00084	48 8b 4c 24 60	 mov	 rcx, QWORD PTR intersectStart$[rsp]
  00089	48 8b 04 24	 mov	 rax, QWORD PTR intersectEnd$[rsp]
  0008d	48 39 01	 cmp	 QWORD PTR [rcx], rax
  00090	76 0b		 jbe	 SHORT $LN8@GetInterse
  00092	48 c7 44 24 20
	00 00 00 00	 mov	 QWORD PTR tv74[rsp], 0
  0009b	eb 15		 jmp	 SHORT $LN9@GetInterse
$LN8@GetInterse:
  0009d	48 8b 04 24	 mov	 rax, QWORD PTR intersectEnd$[rsp]
  000a1	48 83 c0 01	 add	 rax, 1
  000a5	48 8b 4c 24 60	 mov	 rcx, QWORD PTR intersectStart$[rsp]
  000aa	48 2b 01	 sub	 rax, QWORD PTR [rcx]
  000ad	48 89 44 24 20	 mov	 QWORD PTR tv74[rsp], rax
$LN9@GetInterse:
  000b2	48 8b 4c 24 68	 mov	 rcx, QWORD PTR intersectLength$[rsp]
  000b7	8b 44 24 20	 mov	 eax, DWORD PTR tv74[rsp]
  000bb	89 01		 mov	 DWORD PTR [rcx], eax

; 2858 : 	
; 2859 : 	if (*intersectLength == 0)

  000bd	48 8b 44 24 68	 mov	 rax, QWORD PTR intersectLength$[rsp]
  000c2	83 38 00	 cmp	 DWORD PTR [rax], 0
  000c5	75 0d		 jne	 SHORT $LN1@GetInterse

; 2860 : 		*intersectStart = start1;

  000c7	48 8b 4c 24 60	 mov	 rcx, QWORD PTR intersectStart$[rsp]
  000cc	48 8b 44 24 40	 mov	 rax, QWORD PTR start1$[rsp]
  000d1	48 89 01	 mov	 QWORD PTR [rcx], rax
$LN1@GetInterse:

; 2861 : }

  000d4	48 83 c4 38	 add	 rsp, 56			; 00000038H
  000d8	c3		 ret	 0
GetIntersection ENDP
_TEXT	ENDS
PUBLIC	RegionsOverlap
;	COMDAT pdata
pdata	SEGMENT
$pdata$RegionsOverlap DD imagerel $LN9
	DD	imagerel $LN9+120
	DD	imagerel $unwind$RegionsOverlap
pdata	ENDS
;	COMDAT xdata
xdata	SEGMENT
$unwind$RegionsOverlap DD 011801H
	DD	02218H
; Function compile flags: /Odtp
xdata	ENDS
;	COMDAT RegionsOverlap
_TEXT	SEGMENT
tv68 = 0
tv69 = 4
tv67 = 8
start1$ = 32
end1$ = 40
start2$ = 48
end2$ = 56
RegionsOverlap PROC					; COMDAT

; 2846 : {

$LN9:
  00000	4c 89 4c 24 20	 mov	 QWORD PTR [rsp+32], r9
  00005	4c 89 44 24 18	 mov	 QWORD PTR [rsp+24], r8
  0000a	48 89 54 24 10	 mov	 QWORD PTR [rsp+16], rdx
  0000f	48 89 4c 24 08	 mov	 QWORD PTR [rsp+8], rcx
  00014	48 83 ec 18	 sub	 rsp, 24

; 2847 : 	return (start1 < start2) ? (end1 >= start2) : (start1 <= end2);

  00018	48 8b 44 24 30	 mov	 rax, QWORD PTR start2$[rsp]
  0001d	48 39 44 24 20	 cmp	 QWORD PTR start1$[rsp], rax
  00022	73 25		 jae	 SHORT $LN7@RegionsOve
  00024	48 8b 44 24 30	 mov	 rax, QWORD PTR start2$[rsp]
  00029	48 39 44 24 28	 cmp	 QWORD PTR end1$[rsp], rax
  0002e	72 09		 jb	 SHORT $LN5@RegionsOve
  00030	c7 04 24 01 00
	00 00		 mov	 DWORD PTR tv68[rsp], 1
  00037	eb 07		 jmp	 SHORT $LN6@RegionsOve
$LN5@RegionsOve:
  00039	c7 04 24 00 00
	00 00		 mov	 DWORD PTR tv68[rsp], 0
$LN6@RegionsOve:
  00040	8b 04 24	 mov	 eax, DWORD PTR tv68[rsp]
  00043	89 44 24 04	 mov	 DWORD PTR tv69[rsp], eax
  00047	eb 26		 jmp	 SHORT $LN8@RegionsOve
$LN7@RegionsOve:
  00049	48 8b 44 24 38	 mov	 rax, QWORD PTR end2$[rsp]
  0004e	48 39 44 24 20	 cmp	 QWORD PTR start1$[rsp], rax
  00053	77 0a		 ja	 SHORT $LN3@RegionsOve
  00055	c7 44 24 08 01
	00 00 00	 mov	 DWORD PTR tv67[rsp], 1
  0005d	eb 08		 jmp	 SHORT $LN4@RegionsOve
$LN3@RegionsOve:
  0005f	c7 44 24 08 00
	00 00 00	 mov	 DWORD PTR tv67[rsp], 0
$LN4@RegionsOve:
  00067	8b 44 24 08	 mov	 eax, DWORD PTR tv67[rsp]
  0006b	89 44 24 04	 mov	 DWORD PTR tv69[rsp], eax
$LN8@RegionsOve:
  0006f	8b 44 24 04	 mov	 eax, DWORD PTR tv69[rsp]

; 2848 : }

  00073	48 83 c4 18	 add	 rsp, 24
  00077	c3		 ret	 0
RegionsOverlap ENDP
_TEXT	ENDS
PUBLIC	SymbolicLinkToTarget
;	COMDAT pdata
pdata	SEGMENT
$pdata$SymbolicLinkToTarget DD imagerel $LN4
	DD	imagerel $LN4+228
	DD	imagerel $unwind$SymbolicLinkToTarget
pdata	ENDS
;	COMDAT xdata
xdata	SEGMENT
$unwind$SymbolicLinkToTarget DD 021801H
	DD	07011f218H
; Function compile flags: /Odtp
xdata	ENDS
;	COMDAT SymbolicLinkToTarget
_TEXT	SEGMENT
objectAttributes$ = 32
ntStatus$ = 80
fullFileName$ = 88
handle$ = 104
target$33109 = 112
symlinkName$ = 144
targetName$ = 152
maxTargetNameLength$ = 160
SymbolicLinkToTarget PROC				; COMDAT

; 2816 : {

$LN4:
  00000	66 44 89 44 24
	18		 mov	 WORD PTR [rsp+24], r8w
  00006	48 89 54 24 10	 mov	 QWORD PTR [rsp+16], rdx
  0000b	48 89 4c 24 08	 mov	 QWORD PTR [rsp+8], rcx
  00010	57		 push	 rdi
  00011	48 81 ec 80 00
	00 00		 sub	 rsp, 128		; 00000080H

; 2817 : 	NTSTATUS ntStatus;
; 2818 : 	OBJECT_ATTRIBUTES objectAttributes;
; 2819 : 	UNICODE_STRING fullFileName;
; 2820 : 	HANDLE handle;
; 2821 : 
; 2822 : 	RtlInitUnicodeString (&fullFileName, symlinkName);

  00018	48 8b 94 24 90
	00 00 00	 mov	 rdx, QWORD PTR symlinkName$[rsp]
  00020	48 8d 4c 24 58	 lea	 rcx, QWORD PTR fullFileName$[rsp]
  00025	ff 15 00 00 00
	00		 call	 QWORD PTR __imp_RtlInitUnicodeString

; 2823 : 	InitializeObjectAttributes (&objectAttributes, &fullFileName, OBJ_KERNEL_HANDLE | OBJ_CASE_INSENSITIVE, NULL, NULL);

  0002b	c7 44 24 20 30
	00 00 00	 mov	 DWORD PTR objectAttributes$[rsp], 48 ; 00000030H
  00033	48 c7 44 24 28
	00 00 00 00	 mov	 QWORD PTR objectAttributes$[rsp+8], 0
  0003c	c7 44 24 38 40
	02 00 00	 mov	 DWORD PTR objectAttributes$[rsp+24], 576 ; 00000240H
  00044	48 8d 44 24 58	 lea	 rax, QWORD PTR fullFileName$[rsp]
  00049	48 89 44 24 30	 mov	 QWORD PTR objectAttributes$[rsp+16], rax
  0004e	48 c7 44 24 40
	00 00 00 00	 mov	 QWORD PTR objectAttributes$[rsp+32], 0
  00057	48 c7 44 24 48
	00 00 00 00	 mov	 QWORD PTR objectAttributes$[rsp+40], 0

; 2824 : 
; 2825 : 	ntStatus = ZwOpenSymbolicLinkObject (&handle, GENERIC_READ, &objectAttributes);

  00060	4c 8d 44 24 20	 lea	 r8, QWORD PTR objectAttributes$[rsp]
  00065	ba 00 00 00 80	 mov	 edx, -2147483648	; 80000000H
  0006a	48 8d 4c 24 68	 lea	 rcx, QWORD PTR handle$[rsp]
  0006f	ff 15 00 00 00
	00		 call	 QWORD PTR __imp_ZwOpenSymbolicLinkObject
  00075	89 44 24 50	 mov	 DWORD PTR ntStatus$[rsp], eax

; 2826 : 
; 2827 : 	if (NT_SUCCESS (ntStatus))

  00079	83 7c 24 50 00	 cmp	 DWORD PTR ntStatus$[rsp], 0
  0007e	7c 57		 jl	 SHORT $LN1@SymbolicLi

; 2828 : 	{
; 2829 : 		UNICODE_STRING target;
; 2830 : 		target.Buffer = targetName;

  00080	48 8b 84 24 98
	00 00 00	 mov	 rax, QWORD PTR targetName$[rsp]
  00088	48 89 44 24 78	 mov	 QWORD PTR target$33109[rsp+8], rax

; 2831 : 		target.Length = 0;

  0008d	33 c0		 xor	 eax, eax
  0008f	66 89 44 24 70	 mov	 WORD PTR target$33109[rsp], ax

; 2832 : 		target.MaximumLength = maxTargetNameLength;

  00094	0f b7 84 24 a0
	00 00 00	 movzx	 eax, WORD PTR maxTargetNameLength$[rsp]
  0009c	66 89 44 24 72	 mov	 WORD PTR target$33109[rsp+2], ax

; 2833 : 		memset (targetName, 0, maxTargetNameLength);

  000a1	0f b7 8c 24 a0
	00 00 00	 movzx	 ecx, WORD PTR maxTargetNameLength$[rsp]
  000a9	48 8b bc 24 98
	00 00 00	 mov	 rdi, QWORD PTR targetName$[rsp]
  000b1	33 c0		 xor	 eax, eax
  000b3	f3 aa		 rep stosb

; 2834 : 
; 2835 : 		ntStatus = ZwQuerySymbolicLinkObject (handle, &target, NULL);

  000b5	45 33 c0	 xor	 r8d, r8d
  000b8	48 8d 54 24 70	 lea	 rdx, QWORD PTR target$33109[rsp]
  000bd	48 8b 4c 24 68	 mov	 rcx, QWORD PTR handle$[rsp]
  000c2	ff 15 00 00 00
	00		 call	 QWORD PTR __imp_ZwQuerySymbolicLinkObject
  000c8	89 44 24 50	 mov	 DWORD PTR ntStatus$[rsp], eax

; 2836 : 
; 2837 : 		ZwClose (handle);

  000cc	48 8b 4c 24 68	 mov	 rcx, QWORD PTR handle$[rsp]
  000d1	ff 15 00 00 00
	00		 call	 QWORD PTR __imp_ZwClose
$LN1@SymbolicLi:

; 2838 : 	}
; 2839 : 
; 2840 : 	return ntStatus;

  000d7	8b 44 24 50	 mov	 eax, DWORD PTR ntStatus$[rsp]

; 2841 : }

  000db	48 81 c4 80 00
	00 00		 add	 rsp, 128		; 00000080H
  000e2	5f		 pop	 rdi
  000e3	c3		 ret	 0
SymbolicLinkToTarget ENDP
_TEXT	ENDS
PUBLIC	getToken
; Function compile flags: /Odtp
;	COMDAT getToken
_TEXT	SEGMENT
psubContext$ = 8
getToken PROC						; COMDAT

; 2519 : {

  00000	48 89 4c 24 08	 mov	 QWORD PTR [rsp+8], rcx

; 2520 : 	if (!psubContext) 

  00005	48 83 7c 24 08
	00		 cmp	 QWORD PTR psubContext$[rsp], 0
  0000b	75 06		 jne	 SHORT $LN4@getToken

; 2521 : 	{
; 2522 : 		return NULL;

  0000d	33 c0		 xor	 eax, eax
  0000f	eb 2d		 jmp	 SHORT $LN5@getToken
  00011	eb 2b		 jmp	 SHORT $LN3@getToken
$LN4@getToken:

; 2523 : 	}
; 2524 : 	else if (psubContext->ClientToken && psubContext->ImpersonationLevel >= SecurityImpersonation)

  00013	48 8b 44 24 08	 mov	 rax, QWORD PTR psubContext$[rsp]
  00018	48 83 38 00	 cmp	 QWORD PTR [rax], 0
  0001c	74 17		 je	 SHORT $LN2@getToken
  0001e	48 8b 44 24 08	 mov	 rax, QWORD PTR psubContext$[rsp]
  00023	83 78 08 02	 cmp	 DWORD PTR [rax+8], 2
  00027	7c 0c		 jl	 SHORT $LN2@getToken

; 2525 : 	{
; 2526 : 		return psubContext->ClientToken;

  00029	48 8b 44 24 08	 mov	 rax, QWORD PTR psubContext$[rsp]
  0002e	48 8b 00	 mov	 rax, QWORD PTR [rax]
  00031	eb 0b		 jmp	 SHORT $LN5@getToken

; 2527 : 	}
; 2528 : 	else

  00033	eb 09		 jmp	 SHORT $LN1@getToken
$LN2@getToken:

; 2529 : 	{
; 2530 : 		return psubContext->PrimaryToken;

  00035	48 8b 44 24 08	 mov	 rax, QWORD PTR psubContext$[rsp]
  0003a	48 8b 40 10	 mov	 rax, QWORD PTR [rax+16]
$LN1@getToken:
$LN3@getToken:
$LN5@getToken:

; 2531 : 	}
; 2532 : }

  0003e	f3 c3		 fatret	 0
getToken ENDP
_TEXT	ENDS
PUBLIC	TCCloseFsVolume
;	COMDAT pdata
pdata	SEGMENT
$pdata$TCCloseFsVolume DD imagerel $LN3
	DD	imagerel $LN3+41
	DD	imagerel $unwind$TCCloseFsVolume
pdata	ENDS
;	COMDAT xdata
xdata	SEGMENT
$unwind$TCCloseFsVolume DD 010e01H
	DD	0420eH
; Function compile flags: /Odtp
xdata	ENDS
;	COMDAT TCCloseFsVolume
_TEXT	SEGMENT
volumeHandle$ = 48
fileObject$ = 56
TCCloseFsVolume PROC					; COMDAT

; 2334 : {

$LN3:
  00000	48 89 54 24 10	 mov	 QWORD PTR [rsp+16], rdx
  00005	48 89 4c 24 08	 mov	 QWORD PTR [rsp+8], rcx
  0000a	48 83 ec 28	 sub	 rsp, 40			; 00000028H

; 2335 : 	ObDereferenceObject (fileObject);

  0000e	48 8b 4c 24 38	 mov	 rcx, QWORD PTR fileObject$[rsp]
  00013	ff 15 00 00 00
	00		 call	 QWORD PTR __imp_ObfDereferenceObject

; 2336 : 	ZwClose (volumeHandle);

  00019	48 8b 4c 24 30	 mov	 rcx, QWORD PTR volumeHandle$[rsp]
  0001e	ff 15 00 00 00
	00		 call	 QWORD PTR __imp_ZwClose

; 2337 : }

  00024	48 83 c4 28	 add	 rsp, 40			; 00000028H
  00028	c3		 ret	 0
TCCloseFsVolume ENDP
_TEXT	ENDS
PUBLIC	SendDeviceIoControlRequest
;	COMDAT pdata
pdata	SEGMENT
$pdata$SendDeviceIoControlRequestWorkItemRoutine DD imagerel SendDeviceIoControlRequestWorkItemRoutine
	DD	imagerel SendDeviceIoControlRequestWorkItemRoutine+116
	DD	imagerel $unwind$SendDeviceIoControlRequestWorkItemRoutine
pdata	ENDS
;	COMDAT xdata
xdata	SEGMENT
$unwind$SendDeviceIoControlRequestWorkItemRoutine DD 010e01H
	DD	0620eH
; Function compile flags: /Odtp
xdata	ENDS
;	COMDAT SendDeviceIoControlRequestWorkItemRoutine
_TEXT	SEGMENT
rootDeviceObject$ = 64
arg$ = 72
SendDeviceIoControlRequestWorkItemRoutine PROC		; COMDAT

; 2179 : {

  00000	48 89 54 24 10	 mov	 QWORD PTR [rsp+16], rdx
  00005	48 89 4c 24 08	 mov	 QWORD PTR [rsp+8], rcx
  0000a	48 83 ec 38	 sub	 rsp, 56			; 00000038H

; 2180 : 	arg->Status = SendDeviceIoControlRequest (arg->deviceObject, arg->ioControlCode, arg->inputBuffer, arg->inputBufferSize, arg->outputBuffer, arg->outputBufferSize);

  0000e	48 8b 44 24 48	 mov	 rax, QWORD PTR arg$[rsp]
  00013	8b 40 28	 mov	 eax, DWORD PTR [rax+40]
  00016	89 44 24 28	 mov	 DWORD PTR [rsp+40], eax
  0001a	48 8b 44 24 48	 mov	 rax, QWORD PTR arg$[rsp]
  0001f	48 8b 40 20	 mov	 rax, QWORD PTR [rax+32]
  00023	48 89 44 24 20	 mov	 QWORD PTR [rsp+32], rax
  00028	48 8b 44 24 48	 mov	 rax, QWORD PTR arg$[rsp]
  0002d	44 8b 48 18	 mov	 r9d, DWORD PTR [rax+24]
  00031	4c 8b 44 24 48	 mov	 r8, QWORD PTR arg$[rsp]
  00036	4d 8b 40 10	 mov	 r8, QWORD PTR [r8+16]
  0003a	48 8b 44 24 48	 mov	 rax, QWORD PTR arg$[rsp]
  0003f	8b 50 08	 mov	 edx, DWORD PTR [rax+8]
  00042	48 8b 4c 24 48	 mov	 rcx, QWORD PTR arg$[rsp]
  00047	48 8b 09	 mov	 rcx, QWORD PTR [rcx]
  0004a	e8 00 00 00 00	 call	 SendDeviceIoControlRequest
  0004f	44 8b d8	 mov	 r11d, eax
  00052	48 8b 44 24 48	 mov	 rax, QWORD PTR arg$[rsp]
  00057	44 89 58 2c	 mov	 DWORD PTR [rax+44], r11d

; 2181 : 	KeSetEvent (&arg->WorkItemCompletedEvent, IO_NO_INCREMENT, FALSE);

  0005b	48 8b 4c 24 48	 mov	 rcx, QWORD PTR arg$[rsp]
  00060	48 83 c1 30	 add	 rcx, 48			; 00000030H
  00064	45 33 c0	 xor	 r8d, r8d
  00067	33 d2		 xor	 edx, edx
  00069	ff 15 00 00 00
	00		 call	 QWORD PTR __imp_KeSetEvent

; 2182 : }

  0006f	48 83 c4 38	 add	 rsp, 56			; 00000038H
  00073	c3		 ret	 0
SendDeviceIoControlRequestWorkItemRoutine ENDP
_TEXT	ENDS
PUBLIC	TCTranslateCode
;	COMDAT pdata
pdata	SEGMENT
$pdata$TCTranslateCode DD imagerel $LN153
	DD	imagerel $LN153+2249
	DD	imagerel $unwind$TCTranslateCode
pdata	ENDS
;	COMDAT xdata
xdata	SEGMENT
$unwind$TCTranslateCode DD 010801H
	DD	02208H
; Function compile flags: /Odtp
xdata	ENDS
;	COMDAT TCTranslateCode
_TEXT	SEGMENT
tv64 = 0
ulCode$ = 32
TCTranslateCode PROC					; COMDAT

; 1868 : {

$LN153:
  00000	89 4c 24 08	 mov	 DWORD PTR [rsp+8], ecx
  00004	48 83 ec 18	 sub	 rsp, 24

; 1869 : 	switch (ulCode)

  00008	8b 44 24 20	 mov	 eax, DWORD PTR ulCode$[rsp]
  0000c	89 04 24	 mov	 DWORD PTR tv64[rsp], eax
  0000f	81 3c 24 00 00
	56 00		 cmp	 DWORD PTR tv64[rsp], 5636096 ; 00560000H
  00016	77 43		 ja	 SHORT $LN150@TCTranslat
  00018	81 3c 24 00 00
	56 00		 cmp	 DWORD PTR tv64[rsp], 5636096 ; 00560000H
  0001f	0f 84 03 02 00
	00		 je	 $LN107@TCTranslat
  00025	8b 04 24	 mov	 eax, DWORD PTR tv64[rsp]
  00028	2d 04 20 22 00	 sub	 eax, 2236420		; 00222004H
  0002d	89 04 24	 mov	 DWORD PTR tv64[rsp], eax
  00030	81 3c 24 94 00
	00 00		 cmp	 DWORD PTR tv64[rsp], 148 ; 00000094H
  00037	0f 87 f7 01 00
	00		 ja	 $LN146@TCTranslat
  0003d	8b 04 24	 mov	 eax, DWORD PTR tv64[rsp]
  00040	48 8d 0d 00 00
	00 00		 lea	 rcx, OFFSET FLAT:__ImageBase
  00047	0f b6 84 01 00
	00 00 00	 movzx	 eax, BYTE PTR $LN151@TCTranslat[rcx+rax]
  0004f	8b 84 81 00 00
	00 00		 mov	 eax, DWORD PTR $LN152@TCTranslat[rcx+rax*4]
  00056	48 03 c1	 add	 rax, rcx
  00059	ff e0		 jmp	 rax
$LN150@TCTranslat:
  0005b	e9 d4 01 00 00	 jmp	 $LN146@TCTranslat
$LN145@TCTranslat:

; 1870 : 	{
; 1871 : #define TC_CASE_RET_NAME(CODE) case CODE : return L###CODE
; 1872 : 
; 1873 : 		TC_CASE_RET_NAME (TC_IOCTL_ABORT_BOOT_ENCRYPTION_SETUP);

  00060	48 8d 05 00 00
	00 00		 lea	 rax, OFFSET FLAT:??_C@_1EK@CMLLEBIK@?$AAT?$AAC?$AA_?$AAI?$AAO?$AAC?$AAT?$AAL?$AA_?$AAA?$AAB?$AAO?$AAR?$AAT?$AA_?$AAB?$AAO?$AAO?$AAT?$AA_?$AAE?$AAN?$AAC?$AAR?$AAY?$AAP?$AAT?$AAI?$AAO?$AAN?$AA_?$AAS@FNODOBFM@
  00067	e9 24 07 00 00	 jmp	 $LN148@TCTranslat
$LN144@TCTranslat:

; 1874 : 		TC_CASE_RET_NAME (TC_IOCTL_ABORT_DECOY_SYSTEM_WIPE);

  0006c	48 8d 05 00 00
	00 00		 lea	 rax, OFFSET FLAT:??_C@_1EC@HMNCILMA@?$AAT?$AAC?$AA_?$AAI?$AAO?$AAC?$AAT?$AAL?$AA_?$AAA?$AAB?$AAO?$AAR?$AAT?$AA_?$AAD?$AAE?$AAC?$AAO?$AAY?$AA_?$AAS?$AAY?$AAS?$AAT?$AAE?$AAM?$AA_?$AAW?$AAI?$AAP?$AAE@FNODOBFM@
  00073	e9 18 07 00 00	 jmp	 $LN148@TCTranslat
$LN143@TCTranslat:

; 1875 : 		TC_CASE_RET_NAME (TC_IOCTL_BOOT_ENCRYPTION_SETUP);

  00078	48 8d 05 00 00
	00 00		 lea	 rax, OFFSET FLAT:??_C@_1DO@JPMJPMCJ@?$AAT?$AAC?$AA_?$AAI?$AAO?$AAC?$AAT?$AAL?$AA_?$AAB?$AAO?$AAO?$AAT?$AA_?$AAE?$AAN?$AAC?$AAR?$AAY?$AAP?$AAT?$AAI?$AAO?$AAN?$AA_?$AAS?$AAE?$AAT?$AAU?$AAP?$AA?$AA@FNODOBFM@
  0007f	e9 0c 07 00 00	 jmp	 $LN148@TCTranslat
$LN142@TCTranslat:

; 1876 : 		TC_CASE_RET_NAME (TC_IOCTL_DISMOUNT_ALL_VOLUMES);

  00084	48 8d 05 00 00
	00 00		 lea	 rax, OFFSET FLAT:??_C@_1DM@OLONGNGL@?$AAT?$AAC?$AA_?$AAI?$AAO?$AAC?$AAT?$AAL?$AA_?$AAD?$AAI?$AAS?$AAM?$AAO?$AAU?$AAN?$AAT?$AA_?$AAA?$AAL?$AAL?$AA_?$AAV?$AAO?$AAL?$AAU?$AAM?$AAE?$AAS?$AA?$AA@FNODOBFM@
  0008b	e9 00 07 00 00	 jmp	 $LN148@TCTranslat
$LN141@TCTranslat:

; 1877 : 		TC_CASE_RET_NAME (TC_IOCTL_DISMOUNT_VOLUME);

  00090	48 8d 05 00 00
	00 00		 lea	 rax, OFFSET FLAT:??_C@_1DC@CLEBJPLG@?$AAT?$AAC?$AA_?$AAI?$AAO?$AAC?$AAT?$AAL?$AA_?$AAD?$AAI?$AAS?$AAM?$AAO?$AAU?$AAN?$AAT?$AA_?$AAV?$AAO?$AAL?$AAU?$AAM?$AAE?$AA?$AA@FNODOBFM@
  00097	e9 f4 06 00 00	 jmp	 $LN148@TCTranslat
$LN140@TCTranslat:

; 1878 : 		TC_CASE_RET_NAME (TC_IOCTL_GET_BOOT_DRIVE_VOLUME_PROPERTIES);

  0009c	48 8d 05 00 00
	00 00		 lea	 rax, OFFSET FLAT:??_C@_1FE@BEJBLKBA@?$AAT?$AAC?$AA_?$AAI?$AAO?$AAC?$AAT?$AAL?$AA_?$AAG?$AAE?$AAT?$AA_?$AAB?$AAO?$AAO?$AAT?$AA_?$AAD?$AAR?$AAI?$AAV?$AAE?$AA_?$AAV?$AAO?$AAL?$AAU?$AAM?$AAE?$AA_?$AAP@FNODOBFM@
  000a3	e9 e8 06 00 00	 jmp	 $LN148@TCTranslat
$LN139@TCTranslat:

; 1879 : 		TC_CASE_RET_NAME (TC_IOCTL_GET_BOOT_ENCRYPTION_ALGORITHM_NAME);

  000a8	48 8d 05 00 00
	00 00		 lea	 rax, OFFSET FLAT:??_C@_1FI@CDJGLMPJ@?$AAT?$AAC?$AA_?$AAI?$AAO?$AAC?$AAT?$AAL?$AA_?$AAG?$AAE?$AAT?$AA_?$AAB?$AAO?$AAO?$AAT?$AA_?$AAE?$AAN?$AAC?$AAR?$AAY?$AAP?$AAT?$AAI?$AAO?$AAN?$AA_?$AAA?$AAL?$AAG@FNODOBFM@
  000af	e9 dc 06 00 00	 jmp	 $LN148@TCTranslat
$LN138@TCTranslat:

; 1880 : 		TC_CASE_RET_NAME (TC_IOCTL_GET_BOOT_ENCRYPTION_SETUP_RESULT);

  000b4	48 8d 05 00 00
	00 00		 lea	 rax, OFFSET FLAT:??_C@_1FE@OJNNCONL@?$AAT?$AAC?$AA_?$AAI?$AAO?$AAC?$AAT?$AAL?$AA_?$AAG?$AAE?$AAT?$AA_?$AAB?$AAO?$AAO?$AAT?$AA_?$AAE?$AAN?$AAC?$AAR?$AAY?$AAP?$AAT?$AAI?$AAO?$AAN?$AA_?$AAS?$AAE?$AAT@FNODOBFM@
  000bb	e9 d0 06 00 00	 jmp	 $LN148@TCTranslat
$LN137@TCTranslat:

; 1881 : 		TC_CASE_RET_NAME (TC_IOCTL_GET_BOOT_ENCRYPTION_STATUS);

  000c0	48 8d 05 00 00
	00 00		 lea	 rax, OFFSET FLAT:??_C@_1EI@GAKLFLAF@?$AAT?$AAC?$AA_?$AAI?$AAO?$AAC?$AAT?$AAL?$AA_?$AAG?$AAE?$AAT?$AA_?$AAB?$AAO?$AAO?$AAT?$AA_?$AAE?$AAN?$AAC?$AAR?$AAY?$AAP?$AAT?$AAI?$AAO?$AAN?$AA_?$AAS?$AAT?$AAA@FNODOBFM@
  000c7	e9 c4 06 00 00	 jmp	 $LN148@TCTranslat
$LN136@TCTranslat:

; 1882 : 		TC_CASE_RET_NAME (TC_IOCTL_GET_BOOT_LOADER_VERSION);

  000cc	48 8d 05 00 00
	00 00		 lea	 rax, OFFSET FLAT:??_C@_1EC@OPCJHCIG@?$AAT?$AAC?$AA_?$AAI?$AAO?$AAC?$AAT?$AAL?$AA_?$AAG?$AAE?$AAT?$AA_?$AAB?$AAO?$AAO?$AAT?$AA_?$AAL?$AAO?$AAA?$AAD?$AAE?$AAR?$AA_?$AAV?$AAE?$AAR?$AAS?$AAI?$AAO?$AAN@FNODOBFM@
  000d3	e9 b8 06 00 00	 jmp	 $LN148@TCTranslat
$LN135@TCTranslat:

; 1883 : 		TC_CASE_RET_NAME (TC_IOCTL_GET_DECOY_SYSTEM_WIPE_RESULT);

  000d8	48 8d 05 00 00
	00 00		 lea	 rax, OFFSET FLAT:??_C@_1EM@OAEBJACE@?$AAT?$AAC?$AA_?$AAI?$AAO?$AAC?$AAT?$AAL?$AA_?$AAG?$AAE?$AAT?$AA_?$AAD?$AAE?$AAC?$AAO?$AAY?$AA_?$AAS?$AAY?$AAS?$AAT?$AAE?$AAM?$AA_?$AAW?$AAI?$AAP?$AAE?$AA_?$AAR@FNODOBFM@
  000df	e9 ac 06 00 00	 jmp	 $LN148@TCTranslat
$LN134@TCTranslat:

; 1884 : 		TC_CASE_RET_NAME (TC_IOCTL_GET_DECOY_SYSTEM_WIPE_STATUS);

  000e4	48 8d 05 00 00
	00 00		 lea	 rax, OFFSET FLAT:??_C@_1EM@LMAMOKGA@?$AAT?$AAC?$AA_?$AAI?$AAO?$AAC?$AAT?$AAL?$AA_?$AAG?$AAE?$AAT?$AA_?$AAD?$AAE?$AAC?$AAO?$AAY?$AA_?$AAS?$AAY?$AAS?$AAT?$AAE?$AAM?$AA_?$AAW?$AAI?$AAP?$AAE?$AA_?$AAS@FNODOBFM@
  000eb	e9 a0 06 00 00	 jmp	 $LN148@TCTranslat
$LN133@TCTranslat:

; 1885 : 		TC_CASE_RET_NAME (TC_IOCTL_GET_DEVICE_REFCOUNT);

  000f0	48 8d 05 00 00
	00 00		 lea	 rax, OFFSET FLAT:??_C@_1DK@DFEJGDBK@?$AAT?$AAC?$AA_?$AAI?$AAO?$AAC?$AAT?$AAL?$AA_?$AAG?$AAE?$AAT?$AA_?$AAD?$AAE?$AAV?$AAI?$AAC?$AAE?$AA_?$AAR?$AAE?$AAF?$AAC?$AAO?$AAU?$AAN?$AAT?$AA?$AA@FNODOBFM@
  000f7	e9 94 06 00 00	 jmp	 $LN148@TCTranslat
$LN132@TCTranslat:

; 1886 : 		TC_CASE_RET_NAME (TC_IOCTL_GET_DRIVE_GEOMETRY);

  000fc	48 8d 05 00 00
	00 00		 lea	 rax, OFFSET FLAT:??_C@_1DI@LAIAIOML@?$AAT?$AAC?$AA_?$AAI?$AAO?$AAC?$AAT?$AAL?$AA_?$AAG?$AAE?$AAT?$AA_?$AAD?$AAR?$AAI?$AAV?$AAE?$AA_?$AAG?$AAE?$AAO?$AAM?$AAE?$AAT?$AAR?$AAY?$AA?$AA@FNODOBFM@
  00103	e9 88 06 00 00	 jmp	 $LN148@TCTranslat
$LN131@TCTranslat:

; 1887 : 		TC_CASE_RET_NAME (TC_IOCTL_GET_DRIVE_PARTITION_INFO);

  00108	48 8d 05 00 00
	00 00		 lea	 rax, OFFSET FLAT:??_C@_1EE@HEELFNND@?$AAT?$AAC?$AA_?$AAI?$AAO?$AAC?$AAT?$AAL?$AA_?$AAG?$AAE?$AAT?$AA_?$AAD?$AAR?$AAI?$AAV?$AAE?$AA_?$AAP?$AAA?$AAR?$AAT?$AAI?$AAT?$AAI?$AAO?$AAN?$AA_?$AAI?$AAN?$AAF@FNODOBFM@
  0010f	e9 7c 06 00 00	 jmp	 $LN148@TCTranslat
$LN130@TCTranslat:

; 1888 : 		TC_CASE_RET_NAME (TC_IOCTL_GET_DRIVER_VERSION);

  00114	48 8d 05 00 00
	00 00		 lea	 rax, OFFSET FLAT:??_C@_1DI@ODPPPDDO@?$AAT?$AAC?$AA_?$AAI?$AAO?$AAC?$AAT?$AAL?$AA_?$AAG?$AAE?$AAT?$AA_?$AAD?$AAR?$AAI?$AAV?$AAE?$AAR?$AA_?$AAV?$AAE?$AAR?$AAS?$AAI?$AAO?$AAN?$AA?$AA@FNODOBFM@
  0011b	e9 70 06 00 00	 jmp	 $LN148@TCTranslat
$LN129@TCTranslat:

; 1889 : 		TC_CASE_RET_NAME (TC_IOCTL_GET_MOUNTED_VOLUMES);

  00120	48 8d 05 00 00
	00 00		 lea	 rax, OFFSET FLAT:??_C@_1DK@KJKOFIJA@?$AAT?$AAC?$AA_?$AAI?$AAO?$AAC?$AAT?$AAL?$AA_?$AAG?$AAE?$AAT?$AA_?$AAM?$AAO?$AAU?$AAN?$AAT?$AAE?$AAD?$AA_?$AAV?$AAO?$AAL?$AAU?$AAM?$AAE?$AAS?$AA?$AA@FNODOBFM@
  00127	e9 64 06 00 00	 jmp	 $LN148@TCTranslat
$LN128@TCTranslat:

; 1890 : 		TC_CASE_RET_NAME (TC_IOCTL_GET_PASSWORD_CACHE_STATUS);

  0012c	48 8d 05 00 00
	00 00		 lea	 rax, OFFSET FLAT:??_C@_1EG@LLJHBPJF@?$AAT?$AAC?$AA_?$AAI?$AAO?$AAC?$AAT?$AAL?$AA_?$AAG?$AAE?$AAT?$AA_?$AAP?$AAA?$AAS?$AAS?$AAW?$AAO?$AAR?$AAD?$AA_?$AAC?$AAA?$AAC?$AAH?$AAE?$AA_?$AAS?$AAT?$AAA?$AAT@FNODOBFM@
  00133	e9 58 06 00 00	 jmp	 $LN148@TCTranslat
$LN127@TCTranslat:

; 1891 : 		TC_CASE_RET_NAME (TC_IOCTL_GET_SYSTEM_DRIVE_CONFIG);

  00138	48 8d 05 00 00
	00 00		 lea	 rax, OFFSET FLAT:??_C@_1EC@FADHDJPK@?$AAT?$AAC?$AA_?$AAI?$AAO?$AAC?$AAT?$AAL?$AA_?$AAG?$AAE?$AAT?$AA_?$AAS?$AAY?$AAS?$AAT?$AAE?$AAM?$AA_?$AAD?$AAR?$AAI?$AAV?$AAE?$AA_?$AAC?$AAO?$AAN?$AAF?$AAI?$AAG@FNODOBFM@
  0013f	e9 4c 06 00 00	 jmp	 $LN148@TCTranslat
$LN126@TCTranslat:

; 1892 : 		TC_CASE_RET_NAME (TC_IOCTL_GET_PORTABLE_MODE_STATUS);

  00144	48 8d 05 00 00
	00 00		 lea	 rax, OFFSET FLAT:??_C@_1EE@IPNJBDEG@?$AAT?$AAC?$AA_?$AAI?$AAO?$AAC?$AAT?$AAL?$AA_?$AAG?$AAE?$AAT?$AA_?$AAP?$AAO?$AAR?$AAT?$AAA?$AAB?$AAL?$AAE?$AA_?$AAM?$AAO?$AAD?$AAE?$AA_?$AAS?$AAT?$AAA?$AAT?$AAU@FNODOBFM@
  0014b	e9 40 06 00 00	 jmp	 $LN148@TCTranslat
$LN125@TCTranslat:

; 1893 : 		TC_CASE_RET_NAME (TC_IOCTL_SET_PORTABLE_MODE_STATUS);

  00150	48 8d 05 00 00
	00 00		 lea	 rax, OFFSET FLAT:??_C@_1EE@NMKCMMBM@?$AAT?$AAC?$AA_?$AAI?$AAO?$AAC?$AAT?$AAL?$AA_?$AAS?$AAE?$AAT?$AA_?$AAP?$AAO?$AAR?$AAT?$AAA?$AAB?$AAL?$AAE?$AA_?$AAM?$AAO?$AAD?$AAE?$AA_?$AAS?$AAT?$AAA?$AAT?$AAU@FNODOBFM@
  00157	e9 34 06 00 00	 jmp	 $LN148@TCTranslat
$LN124@TCTranslat:

; 1894 : 		TC_CASE_RET_NAME (TC_IOCTL_GET_RESOLVED_SYMLINK);

  0015c	48 8d 05 00 00
	00 00		 lea	 rax, OFFSET FLAT:??_C@_1DM@GFCMCNDC@?$AAT?$AAC?$AA_?$AAI?$AAO?$AAC?$AAT?$AAL?$AA_?$AAG?$AAE?$AAT?$AA_?$AAR?$AAE?$AAS?$AAO?$AAL?$AAV?$AAE?$AAD?$AA_?$AAS?$AAY?$AAM?$AAL?$AAI?$AAN?$AAK?$AA?$AA@FNODOBFM@
  00163	e9 28 06 00 00	 jmp	 $LN148@TCTranslat
$LN123@TCTranslat:

; 1895 : 		TC_CASE_RET_NAME (TC_IOCTL_GET_SYSTEM_DRIVE_DUMP_CONFIG);

  00168	48 8d 05 00 00
	00 00		 lea	 rax, OFFSET FLAT:??_C@_1EM@GFDNBFC@?$AAT?$AAC?$AA_?$AAI?$AAO?$AAC?$AAT?$AAL?$AA_?$AAG?$AAE?$AAT?$AA_?$AAS?$AAY?$AAS?$AAT?$AAE?$AAM?$AA_?$AAD?$AAR?$AAI?$AAV?$AAE?$AA_?$AAD?$AAU?$AAM?$AAP?$AA_?$AAC@FNODOBFM@
  0016f	e9 1c 06 00 00	 jmp	 $LN148@TCTranslat
$LN122@TCTranslat:

; 1896 : 		TC_CASE_RET_NAME (TC_IOCTL_GET_VOLUME_PROPERTIES);

  00174	48 8d 05 00 00
	00 00		 lea	 rax, OFFSET FLAT:??_C@_1DO@DMIHGGIB@?$AAT?$AAC?$AA_?$AAI?$AAO?$AAC?$AAT?$AAL?$AA_?$AAG?$AAE?$AAT?$AA_?$AAV?$AAO?$AAL?$AAU?$AAM?$AAE?$AA_?$AAP?$AAR?$AAO?$AAP?$AAE?$AAR?$AAT?$AAI?$AAE?$AAS?$AA?$AA@FNODOBFM@
  0017b	e9 10 06 00 00	 jmp	 $LN148@TCTranslat
$LN121@TCTranslat:

; 1897 : 		TC_CASE_RET_NAME (TC_IOCTL_GET_WARNING_FLAGS);

  00180	48 8d 05 00 00
	00 00		 lea	 rax, OFFSET FLAT:??_C@_1DG@LBDEDPBA@?$AAT?$AAC?$AA_?$AAI?$AAO?$AAC?$AAT?$AAL?$AA_?$AAG?$AAE?$AAT?$AA_?$AAW?$AAA?$AAR?$AAN?$AAI?$AAN?$AAG?$AA_?$AAF?$AAL?$AAA?$AAG?$AAS?$AA?$AA@FNODOBFM@
  00187	e9 04 06 00 00	 jmp	 $LN148@TCTranslat
$LN120@TCTranslat:

; 1898 : 		TC_CASE_RET_NAME (TC_IOCTL_DISK_IS_WRITABLE);

  0018c	48 8d 05 00 00
	00 00		 lea	 rax, OFFSET FLAT:??_C@_1DE@JNPINMHP@?$AAT?$AAC?$AA_?$AAI?$AAO?$AAC?$AAT?$AAL?$AA_?$AAD?$AAI?$AAS?$AAK?$AA_?$AAI?$AAS?$AA_?$AAW?$AAR?$AAI?$AAT?$AAA?$AAB?$AAL?$AAE?$AA?$AA@FNODOBFM@
  00193	e9 f8 05 00 00	 jmp	 $LN148@TCTranslat
$LN119@TCTranslat:

; 1899 : 		TC_CASE_RET_NAME (TC_IOCTL_IS_ANY_VOLUME_MOUNTED);

  00198	48 8d 05 00 00
	00 00		 lea	 rax, OFFSET FLAT:??_C@_1DO@ICDMEENM@?$AAT?$AAC?$AA_?$AAI?$AAO?$AAC?$AAT?$AAL?$AA_?$AAI?$AAS?$AA_?$AAA?$AAN?$AAY?$AA_?$AAV?$AAO?$AAL?$AAU?$AAM?$AAE?$AA_?$AAM?$AAO?$AAU?$AAN?$AAT?$AAE?$AAD?$AA?$AA@FNODOBFM@
  0019f	e9 ec 05 00 00	 jmp	 $LN148@TCTranslat
$LN118@TCTranslat:

; 1900 : 		TC_CASE_RET_NAME (TC_IOCTL_IS_DRIVER_UNLOAD_DISABLED);

  001a4	48 8d 05 00 00
	00 00		 lea	 rax, OFFSET FLAT:??_C@_1EG@HPLFHOOO@?$AAT?$AAC?$AA_?$AAI?$AAO?$AAC?$AAT?$AAL?$AA_?$AAI?$AAS?$AA_?$AAD?$AAR?$AAI?$AAV?$AAE?$AAR?$AA_?$AAU?$AAN?$AAL?$AAO?$AAA?$AAD?$AA_?$AAD?$AAI?$AAS?$AAA?$AAB?$AAL@FNODOBFM@
  001ab	e9 e0 05 00 00	 jmp	 $LN148@TCTranslat
$LN117@TCTranslat:

; 1901 : 		TC_CASE_RET_NAME (TC_IOCTL_IS_HIDDEN_SYSTEM_RUNNING);

  001b0	48 8d 05 00 00
	00 00		 lea	 rax, OFFSET FLAT:??_C@_1EE@HPDOLCKH@?$AAT?$AAC?$AA_?$AAI?$AAO?$AAC?$AAT?$AAL?$AA_?$AAI?$AAS?$AA_?$AAH?$AAI?$AAD?$AAD?$AAE?$AAN?$AA_?$AAS?$AAY?$AAS?$AAT?$AAE?$AAM?$AA_?$AAR?$AAU?$AAN?$AAN?$AAI?$AAN@FNODOBFM@
  001b7	e9 d4 05 00 00	 jmp	 $LN148@TCTranslat
$LN116@TCTranslat:

; 1902 : 		TC_CASE_RET_NAME (TC_IOCTL_MOUNT_VOLUME);

  001bc	48 8d 05 00 00
	00 00		 lea	 rax, OFFSET FLAT:??_C@_1CM@HJCGFKAD@?$AAT?$AAC?$AA_?$AAI?$AAO?$AAC?$AAT?$AAL?$AA_?$AAM?$AAO?$AAU?$AAN?$AAT?$AA_?$AAV?$AAO?$AAL?$AAU?$AAM?$AAE?$AA?$AA@FNODOBFM@
  001c3	e9 c8 05 00 00	 jmp	 $LN148@TCTranslat
$LN115@TCTranslat:

; 1903 : 		TC_CASE_RET_NAME (TC_IOCTL_OPEN_TEST);

  001c8	48 8d 05 00 00
	00 00		 lea	 rax, OFFSET FLAT:??_C@_1CG@HPPKKEKP@?$AAT?$AAC?$AA_?$AAI?$AAO?$AAC?$AAT?$AAL?$AA_?$AAO?$AAP?$AAE?$AAN?$AA_?$AAT?$AAE?$AAS?$AAT?$AA?$AA@FNODOBFM@
  001cf	e9 bc 05 00 00	 jmp	 $LN148@TCTranslat
$LN114@TCTranslat:

; 1904 : 		TC_CASE_RET_NAME (TC_IOCTL_PROBE_REAL_DRIVE_SIZE);

  001d4	48 8d 05 00 00
	00 00		 lea	 rax, OFFSET FLAT:??_C@_1DO@BKHLMLHN@?$AAT?$AAC?$AA_?$AAI?$AAO?$AAC?$AAT?$AAL?$AA_?$AAP?$AAR?$AAO?$AAB?$AAE?$AA_?$AAR?$AAE?$AAA?$AAL?$AA_?$AAD?$AAR?$AAI?$AAV?$AAE?$AA_?$AAS?$AAI?$AAZ?$AAE?$AA?$AA@FNODOBFM@
  001db	e9 b0 05 00 00	 jmp	 $LN148@TCTranslat
$LN113@TCTranslat:

; 1905 : 		TC_CASE_RET_NAME (TC_IOCTL_REOPEN_BOOT_VOLUME_HEADER);

  001e0	48 8d 05 00 00
	00 00		 lea	 rax, OFFSET FLAT:??_C@_1EG@GGODONFK@?$AAT?$AAC?$AA_?$AAI?$AAO?$AAC?$AAT?$AAL?$AA_?$AAR?$AAE?$AAO?$AAP?$AAE?$AAN?$AA_?$AAB?$AAO?$AAO?$AAT?$AA_?$AAV?$AAO?$AAL?$AAU?$AAM?$AAE?$AA_?$AAH?$AAE?$AAA?$AAD@FNODOBFM@
  001e7	e9 a4 05 00 00	 jmp	 $LN148@TCTranslat
$LN112@TCTranslat:

; 1906 : 		TC_CASE_RET_NAME (TC_IOCTL_REREAD_DRIVER_CONFIG);

  001ec	48 8d 05 00 00
	00 00		 lea	 rax, OFFSET FLAT:??_C@_1DM@JFJLBNLP@?$AAT?$AAC?$AA_?$AAI?$AAO?$AAC?$AAT?$AAL?$AA_?$AAR?$AAE?$AAR?$AAE?$AAA?$AAD?$AA_?$AAD?$AAR?$AAI?$AAV?$AAE?$AAR?$AA_?$AAC?$AAO?$AAN?$AAF?$AAI?$AAG?$AA?$AA@FNODOBFM@
  001f3	e9 98 05 00 00	 jmp	 $LN148@TCTranslat
$LN111@TCTranslat:

; 1907 : 		TC_CASE_RET_NAME (TC_IOCTL_SET_SYSTEM_FAVORITE_VOLUME_DIRTY);

  001f8	48 8d 05 00 00
	00 00		 lea	 rax, OFFSET FLAT:??_C@_1FE@EBAIHKDI@?$AAT?$AAC?$AA_?$AAI?$AAO?$AAC?$AAT?$AAL?$AA_?$AAS?$AAE?$AAT?$AA_?$AAS?$AAY?$AAS?$AAT?$AAE?$AAM?$AA_?$AAF?$AAA?$AAV?$AAO?$AAR?$AAI?$AAT?$AAE?$AA_?$AAV?$AAO?$AAL@FNODOBFM@
  001ff	e9 8c 05 00 00	 jmp	 $LN148@TCTranslat
$LN110@TCTranslat:

; 1908 : 		TC_CASE_RET_NAME (TC_IOCTL_START_DECOY_SYSTEM_WIPE);

  00204	48 8d 05 00 00
	00 00		 lea	 rax, OFFSET FLAT:??_C@_1EC@FGBEDIDI@?$AAT?$AAC?$AA_?$AAI?$AAO?$AAC?$AAT?$AAL?$AA_?$AAS?$AAT?$AAA?$AAR?$AAT?$AA_?$AAD?$AAE?$AAC?$AAO?$AAY?$AA_?$AAS?$AAY?$AAS?$AAT?$AAE?$AAM?$AA_?$AAW?$AAI?$AAP?$AAE@FNODOBFM@
  0020b	e9 80 05 00 00	 jmp	 $LN148@TCTranslat
$LN109@TCTranslat:

; 1909 : 		TC_CASE_RET_NAME (TC_IOCTL_WIPE_PASSWORD_CACHE);

  00210	48 8d 05 00 00
	00 00		 lea	 rax, OFFSET FLAT:??_C@_1DK@BNKDMLAM@?$AAT?$AAC?$AA_?$AAI?$AAO?$AAC?$AAT?$AAL?$AA_?$AAW?$AAI?$AAP?$AAE?$AA_?$AAP?$AAA?$AAS?$AAS?$AAW?$AAO?$AAR?$AAD?$AA_?$AAC?$AAA?$AAC?$AAH?$AAE?$AA?$AA@FNODOBFM@
  00217	e9 74 05 00 00	 jmp	 $LN148@TCTranslat
$LN108@TCTranslat:

; 1910 : 		TC_CASE_RET_NAME (TC_IOCTL_WRITE_BOOT_DRIVE_SECTOR);

  0021c	48 8d 05 00 00
	00 00		 lea	 rax, OFFSET FLAT:??_C@_1EC@FOOPNHFI@?$AAT?$AAC?$AA_?$AAI?$AAO?$AAC?$AAT?$AAL?$AA_?$AAW?$AAR?$AAI?$AAT?$AAE?$AA_?$AAB?$AAO?$AAO?$AAT?$AA_?$AAD?$AAR?$AAI?$AAV?$AAE?$AA_?$AAS?$AAE?$AAC?$AAT?$AAO?$AAR@FNODOBFM@
  00223	e9 68 05 00 00	 jmp	 $LN148@TCTranslat
$LN107@TCTranslat:

; 1911 : 
; 1912 : 		TC_CASE_RET_NAME (IOCTL_VOLUME_GET_VOLUME_DISK_EXTENTS);

  00228	48 8d 05 00 00
	00 00		 lea	 rax, OFFSET FLAT:??_C@_1EK@FDCJEFAP@?$AAI?$AAO?$AAC?$AAT?$AAL?$AA_?$AAV?$AAO?$AAL?$AAU?$AAM?$AAE?$AA_?$AAG?$AAE?$AAT?$AA_?$AAV?$AAO?$AAL?$AAU?$AAM?$AAE?$AA_?$AAD?$AAI?$AAS?$AAK?$AA_?$AAE?$AAX?$AAT@FNODOBFM@
  0022f	e9 5c 05 00 00	 jmp	 $LN148@TCTranslat
$LN146@TCTranslat:

; 1913 : 
; 1914 : #undef TC_CASE_RET_NAME
; 1915 : 	}
; 1916 : 
; 1917 : 	if (ulCode ==			 IOCTL_DISK_GET_DRIVE_GEOMETRY)

  00234	81 7c 24 20 00
	00 07 00	 cmp	 DWORD PTR ulCode$[rsp], 458752 ; 00070000H
  0023c	75 11		 jne	 SHORT $LN106@TCTranslat

; 1918 : 		return (LPWSTR) _T ("IOCTL_DISK_GET_DRIVE_GEOMETRY");

  0023e	48 8d 05 00 00
	00 00		 lea	 rax, OFFSET FLAT:??_C@_1DM@KPKDNCHM@?$AAI?$AAO?$AAC?$AAT?$AAL?$AA_?$AAD?$AAI?$AAS?$AAK?$AA_?$AAG?$AAE?$AAT?$AA_?$AAD?$AAR?$AAI?$AAV?$AAE?$AA_?$AAG?$AAE?$AAO?$AAM?$AAE?$AAT?$AAR?$AAY?$AA?$AA@FNODOBFM@
  00245	e9 46 05 00 00	 jmp	 $LN148@TCTranslat
  0024a	e9 41 05 00 00	 jmp	 $LN105@TCTranslat
$LN106@TCTranslat:

; 1919 : 	else if (ulCode ==		 IOCTL_DISK_GET_DRIVE_GEOMETRY_EX)

  0024f	81 7c 24 20 a0
	00 07 00	 cmp	 DWORD PTR ulCode$[rsp], 458912 ; 000700a0H
  00257	75 11		 jne	 SHORT $LN104@TCTranslat

; 1920 : 		return (LPWSTR) _T ("IOCTL_DISK_GET_DRIVE_GEOMETRY_EX");

  00259	48 8d 05 00 00
	00 00		 lea	 rax, OFFSET FLAT:??_C@_1EC@NPAFBAMN@?$AAI?$AAO?$AAC?$AAT?$AAL?$AA_?$AAD?$AAI?$AAS?$AAK?$AA_?$AAG?$AAE?$AAT?$AA_?$AAD?$AAR?$AAI?$AAV?$AAE?$AA_?$AAG?$AAE?$AAO?$AAM?$AAE?$AAT?$AAR?$AAY?$AA_?$AAE?$AAX@FNODOBFM@
  00260	e9 2b 05 00 00	 jmp	 $LN148@TCTranslat
  00265	e9 26 05 00 00	 jmp	 $LN103@TCTranslat
$LN104@TCTranslat:

; 1921 : 	else if (ulCode ==		 IOCTL_MOUNTDEV_QUERY_DEVICE_NAME)

  0026a	81 7c 24 20 08
	00 4d 00	 cmp	 DWORD PTR ulCode$[rsp], 5046280 ; 004d0008H
  00272	75 11		 jne	 SHORT $LN102@TCTranslat

; 1922 : 		return (LPWSTR) _T ("IOCTL_MOUNTDEV_QUERY_DEVICE_NAME");

  00274	48 8d 05 00 00
	00 00		 lea	 rax, OFFSET FLAT:??_C@_1EC@HFOIOEOM@?$AAI?$AAO?$AAC?$AAT?$AAL?$AA_?$AAM?$AAO?$AAU?$AAN?$AAT?$AAD?$AAE?$AAV?$AA_?$AAQ?$AAU?$AAE?$AAR?$AAY?$AA_?$AAD?$AAE?$AAV?$AAI?$AAC?$AAE?$AA_?$AAN?$AAA?$AAM?$AAE@FNODOBFM@
  0027b	e9 10 05 00 00	 jmp	 $LN148@TCTranslat
  00280	e9 0b 05 00 00	 jmp	 $LN101@TCTranslat
$LN102@TCTranslat:

; 1923 : 	else if (ulCode ==		 IOCTL_MOUNTDEV_QUERY_SUGGESTED_LINK_NAME)

  00285	81 7c 24 20 0c
	00 4d 00	 cmp	 DWORD PTR ulCode$[rsp], 5046284 ; 004d000cH
  0028d	75 11		 jne	 SHORT $LN100@TCTranslat

; 1924 : 		return (LPWSTR) _T ("IOCTL_MOUNTDEV_QUERY_SUGGESTED_LINK_NAME");

  0028f	48 8d 05 00 00
	00 00		 lea	 rax, OFFSET FLAT:??_C@_1FC@MNMCPAAJ@?$AAI?$AAO?$AAC?$AAT?$AAL?$AA_?$AAM?$AAO?$AAU?$AAN?$AAT?$AAD?$AAE?$AAV?$AA_?$AAQ?$AAU?$AAE?$AAR?$AAY?$AA_?$AAS?$AAU?$AAG?$AAG?$AAE?$AAS?$AAT?$AAE?$AAD?$AA_?$AAL@FNODOBFM@
  00296	e9 f5 04 00 00	 jmp	 $LN148@TCTranslat
  0029b	e9 f0 04 00 00	 jmp	 $LN99@TCTranslat
$LN100@TCTranslat:

; 1925 : 	else if (ulCode ==		 IOCTL_MOUNTDEV_QUERY_UNIQUE_ID)

  002a0	81 7c 24 20 00
	00 4d 00	 cmp	 DWORD PTR ulCode$[rsp], 5046272 ; 004d0000H
  002a8	75 11		 jne	 SHORT $LN98@TCTranslat

; 1926 : 		return (LPWSTR) _T ("IOCTL_MOUNTDEV_QUERY_UNIQUE_ID");

  002aa	48 8d 05 00 00
	00 00		 lea	 rax, OFFSET FLAT:??_C@_1DO@OGNDJPNH@?$AAI?$AAO?$AAC?$AAT?$AAL?$AA_?$AAM?$AAO?$AAU?$AAN?$AAT?$AAD?$AAE?$AAV?$AA_?$AAQ?$AAU?$AAE?$AAR?$AAY?$AA_?$AAU?$AAN?$AAI?$AAQ?$AAU?$AAE?$AA_?$AAI?$AAD?$AA?$AA@FNODOBFM@
  002b1	e9 da 04 00 00	 jmp	 $LN148@TCTranslat
  002b6	e9 d5 04 00 00	 jmp	 $LN97@TCTranslat
$LN98@TCTranslat:

; 1927 : 	else if (ulCode ==		 IOCTL_VOLUME_ONLINE)

  002bb	81 7c 24 20 08
	c0 56 00	 cmp	 DWORD PTR ulCode$[rsp], 5685256 ; 0056c008H
  002c3	75 11		 jne	 SHORT $LN96@TCTranslat

; 1928 : 		return (LPWSTR) _T ("IOCTL_VOLUME_ONLINE");

  002c5	48 8d 05 00 00
	00 00		 lea	 rax, OFFSET FLAT:??_C@_1CI@DJEMJCBH@?$AAI?$AAO?$AAC?$AAT?$AAL?$AA_?$AAV?$AAO?$AAL?$AAU?$AAM?$AAE?$AA_?$AAO?$AAN?$AAL?$AAI?$AAN?$AAE?$AA?$AA@FNODOBFM@
  002cc	e9 bf 04 00 00	 jmp	 $LN148@TCTranslat
  002d1	e9 ba 04 00 00	 jmp	 $LN95@TCTranslat
$LN96@TCTranslat:

; 1929 : 	else if (ulCode ==		 IOCTL_MOUNTDEV_LINK_CREATED)

  002d6	81 7c 24 20 10
	c0 4d 00	 cmp	 DWORD PTR ulCode$[rsp], 5095440 ; 004dc010H
  002de	75 11		 jne	 SHORT $LN94@TCTranslat

; 1930 : 		return (LPWSTR) _T ("IOCTL_MOUNTDEV_LINK_CREATED");

  002e0	48 8d 05 00 00
	00 00		 lea	 rax, OFFSET FLAT:??_C@_1DI@HGGIOGFM@?$AAI?$AAO?$AAC?$AAT?$AAL?$AA_?$AAM?$AAO?$AAU?$AAN?$AAT?$AAD?$AAE?$AAV?$AA_?$AAL?$AAI?$AAN?$AAK?$AA_?$AAC?$AAR?$AAE?$AAA?$AAT?$AAE?$AAD?$AA?$AA@FNODOBFM@
  002e7	e9 a4 04 00 00	 jmp	 $LN148@TCTranslat
  002ec	e9 9f 04 00 00	 jmp	 $LN93@TCTranslat
$LN94@TCTranslat:

; 1931 : 	else if (ulCode ==		 IOCTL_MOUNTDEV_LINK_DELETED)

  002f1	81 7c 24 20 14
	c0 4d 00	 cmp	 DWORD PTR ulCode$[rsp], 5095444 ; 004dc014H
  002f9	75 11		 jne	 SHORT $LN92@TCTranslat

; 1932 : 		return (LPWSTR) _T ("IOCTL_MOUNTDEV_LINK_DELETED");

  002fb	48 8d 05 00 00
	00 00		 lea	 rax, OFFSET FLAT:??_C@_1DI@BMKMBCGO@?$AAI?$AAO?$AAC?$AAT?$AAL?$AA_?$AAM?$AAO?$AAU?$AAN?$AAT?$AAD?$AAE?$AAV?$AA_?$AAL?$AAI?$AAN?$AAK?$AA_?$AAD?$AAE?$AAL?$AAE?$AAT?$AAE?$AAD?$AA?$AA@FNODOBFM@
  00302	e9 89 04 00 00	 jmp	 $LN148@TCTranslat
  00307	e9 84 04 00 00	 jmp	 $LN91@TCTranslat
$LN92@TCTranslat:

; 1933 : 	else if (ulCode ==		 IOCTL_MOUNTMGR_QUERY_POINTS)

  0030c	81 7c 24 20 08
	00 6d 00	 cmp	 DWORD PTR ulCode$[rsp], 7143432 ; 006d0008H
  00314	75 11		 jne	 SHORT $LN90@TCTranslat

; 1934 : 		return (LPWSTR) _T ("IOCTL_MOUNTMGR_QUERY_POINTS");

  00316	48 8d 05 00 00
	00 00		 lea	 rax, OFFSET FLAT:??_C@_1DI@LFNEEBHO@?$AAI?$AAO?$AAC?$AAT?$AAL?$AA_?$AAM?$AAO?$AAU?$AAN?$AAT?$AAM?$AAG?$AAR?$AA_?$AAQ?$AAU?$AAE?$AAR?$AAY?$AA_?$AAP?$AAO?$AAI?$AAN?$AAT?$AAS?$AA?$AA@FNODOBFM@
  0031d	e9 6e 04 00 00	 jmp	 $LN148@TCTranslat
  00322	e9 69 04 00 00	 jmp	 $LN89@TCTranslat
$LN90@TCTranslat:

; 1935 : 	else if (ulCode ==		 IOCTL_MOUNTMGR_VOLUME_MOUNT_POINT_CREATED)

  00327	81 7c 24 20 18
	c0 6d 00	 cmp	 DWORD PTR ulCode$[rsp], 7192600 ; 006dc018H
  0032f	75 11		 jne	 SHORT $LN88@TCTranslat

; 1936 : 		return (LPWSTR) _T ("IOCTL_MOUNTMGR_VOLUME_MOUNT_POINT_CREATED");

  00331	48 8d 05 00 00
	00 00		 lea	 rax, OFFSET FLAT:??_C@_1FE@CLAOKMGL@?$AAI?$AAO?$AAC?$AAT?$AAL?$AA_?$AAM?$AAO?$AAU?$AAN?$AAT?$AAM?$AAG?$AAR?$AA_?$AAV?$AAO?$AAL?$AAU?$AAM?$AAE?$AA_?$AAM?$AAO?$AAU?$AAN?$AAT?$AA_?$AAP?$AAO?$AAI?$AAN@FNODOBFM@
  00338	e9 53 04 00 00	 jmp	 $LN148@TCTranslat
  0033d	e9 4e 04 00 00	 jmp	 $LN87@TCTranslat
$LN88@TCTranslat:

; 1937 : 	else if (ulCode ==		 IOCTL_MOUNTMGR_VOLUME_MOUNT_POINT_DELETED)

  00342	81 7c 24 20 1c
	c0 6d 00	 cmp	 DWORD PTR ulCode$[rsp], 7192604 ; 006dc01cH
  0034a	75 11		 jne	 SHORT $LN86@TCTranslat

; 1938 : 		return (LPWSTR) _T ("IOCTL_MOUNTMGR_VOLUME_MOUNT_POINT_DELETED");

  0034c	48 8d 05 00 00
	00 00		 lea	 rax, OFFSET FLAT:??_C@_1FE@EBMKFIFJ@?$AAI?$AAO?$AAC?$AAT?$AAL?$AA_?$AAM?$AAO?$AAU?$AAN?$AAT?$AAM?$AAG?$AAR?$AA_?$AAV?$AAO?$AAL?$AAU?$AAM?$AAE?$AA_?$AAM?$AAO?$AAU?$AAN?$AAT?$AA_?$AAP?$AAO?$AAI?$AAN@FNODOBFM@
  00353	e9 38 04 00 00	 jmp	 $LN148@TCTranslat
  00358	e9 33 04 00 00	 jmp	 $LN85@TCTranslat
$LN86@TCTranslat:

; 1939 : 	else if (ulCode ==		 IOCTL_DISK_GET_LENGTH_INFO)

  0035d	81 7c 24 20 5c
	40 07 00	 cmp	 DWORD PTR ulCode$[rsp], 475228 ; 0007405cH
  00365	75 11		 jne	 SHORT $LN84@TCTranslat

; 1940 : 		return (LPWSTR) _T ("IOCTL_DISK_GET_LENGTH_INFO");

  00367	48 8d 05 00 00
	00 00		 lea	 rax, OFFSET FLAT:??_C@_1DG@DLDFECDE@?$AAI?$AAO?$AAC?$AAT?$AAL?$AA_?$AAD?$AAI?$AAS?$AAK?$AA_?$AAG?$AAE?$AAT?$AA_?$AAL?$AAE?$AAN?$AAG?$AAT?$AAH?$AA_?$AAI?$AAN?$AAF?$AAO?$AA?$AA@FNODOBFM@
  0036e	e9 1d 04 00 00	 jmp	 $LN148@TCTranslat
  00373	e9 18 04 00 00	 jmp	 $LN83@TCTranslat
$LN84@TCTranslat:

; 1941 : 	else if (ulCode ==		 IOCTL_STORAGE_GET_DEVICE_NUMBER)

  00378	81 7c 24 20 80
	10 2d 00	 cmp	 DWORD PTR ulCode$[rsp], 2953344 ; 002d1080H
  00380	75 11		 jne	 SHORT $LN82@TCTranslat

; 1942 : 		return (LPWSTR) _T ("IOCTL_STORAGE_GET_DEVICE_NUMBER");

  00382	48 8d 05 00 00
	00 00		 lea	 rax, OFFSET FLAT:??_C@_1EA@IKPNDHCL@?$AAI?$AAO?$AAC?$AAT?$AAL?$AA_?$AAS?$AAT?$AAO?$AAR?$AAA?$AAG?$AAE?$AA_?$AAG?$AAE?$AAT?$AA_?$AAD?$AAE?$AAV?$AAI?$AAC?$AAE?$AA_?$AAN?$AAU?$AAM?$AAB?$AAE?$AAR?$AA?$AA@FNODOBFM@
  00389	e9 02 04 00 00	 jmp	 $LN148@TCTranslat
  0038e	e9 fd 03 00 00	 jmp	 $LN81@TCTranslat
$LN82@TCTranslat:

; 1943 : 	else if (ulCode ==		 IOCTL_DISK_GET_PARTITION_INFO)

  00393	81 7c 24 20 04
	40 07 00	 cmp	 DWORD PTR ulCode$[rsp], 475140 ; 00074004H
  0039b	75 11		 jne	 SHORT $LN80@TCTranslat

; 1944 : 		return (LPWSTR) _T ("IOCTL_DISK_GET_PARTITION_INFO");

  0039d	48 8d 05 00 00
	00 00		 lea	 rax, OFFSET FLAT:??_C@_1DM@LOAKHCPB@?$AAI?$AAO?$AAC?$AAT?$AAL?$AA_?$AAD?$AAI?$AAS?$AAK?$AA_?$AAG?$AAE?$AAT?$AA_?$AAP?$AAA?$AAR?$AAT?$AAI?$AAT?$AAI?$AAO?$AAN?$AA_?$AAI?$AAN?$AAF?$AAO?$AA?$AA@FNODOBFM@
  003a4	e9 e7 03 00 00	 jmp	 $LN148@TCTranslat
  003a9	e9 e2 03 00 00	 jmp	 $LN79@TCTranslat
$LN80@TCTranslat:

; 1945 : 	else if (ulCode ==		 IOCTL_DISK_GET_PARTITION_INFO_EX)

  003ae	81 7c 24 20 48
	00 07 00	 cmp	 DWORD PTR ulCode$[rsp], 458824 ; 00070048H
  003b6	75 11		 jne	 SHORT $LN78@TCTranslat

; 1946 : 		return (LPWSTR) _T ("IOCTL_DISK_GET_PARTITION_INFO_EX");

  003b8	48 8d 05 00 00
	00 00		 lea	 rax, OFFSET FLAT:??_C@_1EC@CAILBHJF@?$AAI?$AAO?$AAC?$AAT?$AAL?$AA_?$AAD?$AAI?$AAS?$AAK?$AA_?$AAG?$AAE?$AAT?$AA_?$AAP?$AAA?$AAR?$AAT?$AAI?$AAT?$AAI?$AAO?$AAN?$AA_?$AAI?$AAN?$AAF?$AAO?$AA_?$AAE?$AAX@FNODOBFM@
  003bf	e9 cc 03 00 00	 jmp	 $LN148@TCTranslat
  003c4	e9 c7 03 00 00	 jmp	 $LN77@TCTranslat
$LN78@TCTranslat:

; 1947 : 	else if (ulCode ==		 IOCTL_DISK_SET_PARTITION_INFO)

  003c9	81 7c 24 20 08
	c0 07 00	 cmp	 DWORD PTR ulCode$[rsp], 507912 ; 0007c008H
  003d1	75 11		 jne	 SHORT $LN76@TCTranslat

; 1948 : 		return (LPWSTR) _T ("IOCTL_DISK_SET_PARTITION_INFO");

  003d3	48 8d 05 00 00
	00 00		 lea	 rax, OFFSET FLAT:??_C@_1DM@FAAIHMNH@?$AAI?$AAO?$AAC?$AAT?$AAL?$AA_?$AAD?$AAI?$AAS?$AAK?$AA_?$AAS?$AAE?$AAT?$AA_?$AAP?$AAA?$AAR?$AAT?$AAI?$AAT?$AAI?$AAO?$AAN?$AA_?$AAI?$AAN?$AAF?$AAO?$AA?$AA@FNODOBFM@
  003da	e9 b1 03 00 00	 jmp	 $LN148@TCTranslat
  003df	e9 ac 03 00 00	 jmp	 $LN75@TCTranslat
$LN76@TCTranslat:

; 1949 : 	else if (ulCode ==		 IOCTL_DISK_GET_DRIVE_LAYOUT)

  003e4	81 7c 24 20 0c
	40 07 00	 cmp	 DWORD PTR ulCode$[rsp], 475148 ; 0007400cH
  003ec	75 11		 jne	 SHORT $LN74@TCTranslat

; 1950 : 		return (LPWSTR) _T ("IOCTL_DISK_GET_DRIVE_LAYOUT");

  003ee	48 8d 05 00 00
	00 00		 lea	 rax, OFFSET FLAT:??_C@_1DI@CCDFFIEC@?$AAI?$AAO?$AAC?$AAT?$AAL?$AA_?$AAD?$AAI?$AAS?$AAK?$AA_?$AAG?$AAE?$AAT?$AA_?$AAD?$AAR?$AAI?$AAV?$AAE?$AA_?$AAL?$AAA?$AAY?$AAO?$AAU?$AAT?$AA?$AA@FNODOBFM@
  003f5	e9 96 03 00 00	 jmp	 $LN148@TCTranslat
  003fa	e9 91 03 00 00	 jmp	 $LN73@TCTranslat
$LN74@TCTranslat:

; 1951 : 	else if (ulCode ==		 IOCTL_DISK_SET_DRIVE_LAYOUT_EX)

  003ff	81 7c 24 20 54
	c0 07 00	 cmp	 DWORD PTR ulCode$[rsp], 507988 ; 0007c054H
  00407	75 11		 jne	 SHORT $LN72@TCTranslat

; 1952 : 		return (LPWSTR) _T ("IOCTL_DISK_SET_DRIVE_LAYOUT_EX");

  00409	48 8d 05 00 00
	00 00		 lea	 rax, OFFSET FLAT:??_C@_1DO@EPIDKIKJ@?$AAI?$AAO?$AAC?$AAT?$AAL?$AA_?$AAD?$AAI?$AAS?$AAK?$AA_?$AAS?$AAE?$AAT?$AA_?$AAD?$AAR?$AAI?$AAV?$AAE?$AA_?$AAL?$AAA?$AAY?$AAO?$AAU?$AAT?$AA_?$AAE?$AAX?$AA?$AA@FNODOBFM@
  00410	e9 7b 03 00 00	 jmp	 $LN148@TCTranslat
  00415	e9 76 03 00 00	 jmp	 $LN71@TCTranslat
$LN72@TCTranslat:

; 1953 : 	else if (ulCode ==		 IOCTL_DISK_VERIFY)

  0041a	81 7c 24 20 14
	00 07 00	 cmp	 DWORD PTR ulCode$[rsp], 458772 ; 00070014H
  00422	75 11		 jne	 SHORT $LN70@TCTranslat

; 1954 : 		return (LPWSTR) _T ("IOCTL_DISK_VERIFY");

  00424	48 8d 05 00 00
	00 00		 lea	 rax, OFFSET FLAT:??_C@_1CE@LGEELOJE@?$AAI?$AAO?$AAC?$AAT?$AAL?$AA_?$AAD?$AAI?$AAS?$AAK?$AA_?$AAV?$AAE?$AAR?$AAI?$AAF?$AAY?$AA?$AA@FNODOBFM@
  0042b	e9 60 03 00 00	 jmp	 $LN148@TCTranslat
  00430	e9 5b 03 00 00	 jmp	 $LN69@TCTranslat
$LN70@TCTranslat:

; 1955 : 	else if (ulCode == IOCTL_DISK_FORMAT_TRACKS)

  00435	81 7c 24 20 18
	c0 07 00	 cmp	 DWORD PTR ulCode$[rsp], 507928 ; 0007c018H
  0043d	75 11		 jne	 SHORT $LN68@TCTranslat

; 1956 : 		return (LPWSTR) _T ("IOCTL_DISK_FORMAT_TRACKS");

  0043f	48 8d 05 00 00
	00 00		 lea	 rax, OFFSET FLAT:??_C@_1DC@PCKIDBBB@?$AAI?$AAO?$AAC?$AAT?$AAL?$AA_?$AAD?$AAI?$AAS?$AAK?$AA_?$AAF?$AAO?$AAR?$AAM?$AAA?$AAT?$AA_?$AAT?$AAR?$AAA?$AAC?$AAK?$AAS?$AA?$AA@FNODOBFM@
  00446	e9 45 03 00 00	 jmp	 $LN148@TCTranslat
  0044b	e9 40 03 00 00	 jmp	 $LN67@TCTranslat
$LN68@TCTranslat:

; 1957 : 	else if (ulCode == IOCTL_DISK_REASSIGN_BLOCKS)

  00450	81 7c 24 20 1c
	c0 07 00	 cmp	 DWORD PTR ulCode$[rsp], 507932 ; 0007c01cH
  00458	75 11		 jne	 SHORT $LN66@TCTranslat

; 1958 : 		return (LPWSTR) _T ("IOCTL_DISK_REASSIGN_BLOCKS");

  0045a	48 8d 05 00 00
	00 00		 lea	 rax, OFFSET FLAT:??_C@_1DG@HPLPDECO@?$AAI?$AAO?$AAC?$AAT?$AAL?$AA_?$AAD?$AAI?$AAS?$AAK?$AA_?$AAR?$AAE?$AAA?$AAS?$AAS?$AAI?$AAG?$AAN?$AA_?$AAB?$AAL?$AAO?$AAC?$AAK?$AAS?$AA?$AA@FNODOBFM@
  00461	e9 2a 03 00 00	 jmp	 $LN148@TCTranslat
  00466	e9 25 03 00 00	 jmp	 $LN65@TCTranslat
$LN66@TCTranslat:

; 1959 : 	else if (ulCode == IOCTL_DISK_PERFORMANCE)

  0046b	81 7c 24 20 20
	00 07 00	 cmp	 DWORD PTR ulCode$[rsp], 458784 ; 00070020H
  00473	75 11		 jne	 SHORT $LN64@TCTranslat

; 1960 : 		return (LPWSTR) _T ("IOCTL_DISK_PERFORMANCE");

  00475	48 8d 05 00 00
	00 00		 lea	 rax, OFFSET FLAT:??_C@_1CO@LEDAJMII@?$AAI?$AAO?$AAC?$AAT?$AAL?$AA_?$AAD?$AAI?$AAS?$AAK?$AA_?$AAP?$AAE?$AAR?$AAF?$AAO?$AAR?$AAM?$AAA?$AAN?$AAC?$AAE?$AA?$AA@FNODOBFM@
  0047c	e9 0f 03 00 00	 jmp	 $LN148@TCTranslat
  00481	e9 0a 03 00 00	 jmp	 $LN63@TCTranslat
$LN64@TCTranslat:

; 1961 : 	else if (ulCode == IOCTL_DISK_IS_WRITABLE)

  00486	81 7c 24 20 24
	00 07 00	 cmp	 DWORD PTR ulCode$[rsp], 458788 ; 00070024H
  0048e	75 11		 jne	 SHORT $LN62@TCTranslat

; 1962 : 		return (LPWSTR) _T ("IOCTL_DISK_IS_WRITABLE");

  00490	48 8d 05 00 00
	00 00		 lea	 rax, OFFSET FLAT:??_C@_1CO@MFHKENAI@?$AAI?$AAO?$AAC?$AAT?$AAL?$AA_?$AAD?$AAI?$AAS?$AAK?$AA_?$AAI?$AAS?$AA_?$AAW?$AAR?$AAI?$AAT?$AAA?$AAB?$AAL?$AAE?$AA?$AA@FNODOBFM@
  00497	e9 f4 02 00 00	 jmp	 $LN148@TCTranslat
  0049c	e9 ef 02 00 00	 jmp	 $LN61@TCTranslat
$LN62@TCTranslat:

; 1963 : 	else if (ulCode == IOCTL_DISK_LOGGING)

  004a1	81 7c 24 20 28
	00 07 00	 cmp	 DWORD PTR ulCode$[rsp], 458792 ; 00070028H
  004a9	75 11		 jne	 SHORT $LN60@TCTranslat

; 1964 : 		return (LPWSTR) _T ("IOCTL_DISK_LOGGING");

  004ab	48 8d 05 00 00
	00 00		 lea	 rax, OFFSET FLAT:??_C@_1CG@LCBFNDKM@?$AAI?$AAO?$AAC?$AAT?$AAL?$AA_?$AAD?$AAI?$AAS?$AAK?$AA_?$AAL?$AAO?$AAG?$AAG?$AAI?$AAN?$AAG?$AA?$AA@FNODOBFM@
  004b2	e9 d9 02 00 00	 jmp	 $LN148@TCTranslat
  004b7	e9 d4 02 00 00	 jmp	 $LN59@TCTranslat
$LN60@TCTranslat:

; 1965 : 	else if (ulCode == IOCTL_DISK_FORMAT_TRACKS_EX)

  004bc	81 7c 24 20 2c
	c0 07 00	 cmp	 DWORD PTR ulCode$[rsp], 507948 ; 0007c02cH
  004c4	75 11		 jne	 SHORT $LN58@TCTranslat

; 1966 : 		return (LPWSTR) _T ("IOCTL_DISK_FORMAT_TRACKS_EX");

  004c6	48 8d 05 00 00
	00 00		 lea	 rax, OFFSET FLAT:??_C@_1DI@LHHOILKE@?$AAI?$AAO?$AAC?$AAT?$AAL?$AA_?$AAD?$AAI?$AAS?$AAK?$AA_?$AAF?$AAO?$AAR?$AAM?$AAA?$AAT?$AA_?$AAT?$AAR?$AAA?$AAC?$AAK?$AAS?$AA_?$AAE?$AAX?$AA?$AA@FNODOBFM@
  004cd	e9 be 02 00 00	 jmp	 $LN148@TCTranslat
  004d2	e9 b9 02 00 00	 jmp	 $LN57@TCTranslat
$LN58@TCTranslat:

; 1967 : 	else if (ulCode == IOCTL_DISK_HISTOGRAM_STRUCTURE)

  004d7	81 7c 24 20 30
	00 07 00	 cmp	 DWORD PTR ulCode$[rsp], 458800 ; 00070030H
  004df	75 11		 jne	 SHORT $LN56@TCTranslat

; 1968 : 		return (LPWSTR) _T ("IOCTL_DISK_HISTOGRAM_STRUCTURE");

  004e1	48 8d 05 00 00
	00 00		 lea	 rax, OFFSET FLAT:??_C@_1DO@JMICENAF@?$AAI?$AAO?$AAC?$AAT?$AAL?$AA_?$AAD?$AAI?$AAS?$AAK?$AA_?$AAH?$AAI?$AAS?$AAT?$AAO?$AAG?$AAR?$AAA?$AAM?$AA_?$AAS?$AAT?$AAR?$AAU?$AAC?$AAT?$AAU?$AAR?$AAE?$AA?$AA@FNODOBFM@
  004e8	e9 a3 02 00 00	 jmp	 $LN148@TCTranslat
  004ed	e9 9e 02 00 00	 jmp	 $LN55@TCTranslat
$LN56@TCTranslat:

; 1969 : 	else if (ulCode == IOCTL_DISK_HISTOGRAM_DATA)

  004f2	81 7c 24 20 34
	00 07 00	 cmp	 DWORD PTR ulCode$[rsp], 458804 ; 00070034H
  004fa	75 11		 jne	 SHORT $LN54@TCTranslat

; 1970 : 		return (LPWSTR) _T ("IOCTL_DISK_HISTOGRAM_DATA");

  004fc	48 8d 05 00 00
	00 00		 lea	 rax, OFFSET FLAT:??_C@_1DE@OGHADOL@?$AAI?$AAO?$AAC?$AAT?$AAL?$AA_?$AAD?$AAI?$AAS?$AAK?$AA_?$AAH?$AAI?$AAS?$AAT?$AAO?$AAG?$AAR?$AAA?$AAM?$AA_?$AAD?$AAA?$AAT?$AAA?$AA?$AA@FNODOBFM@
  00503	e9 88 02 00 00	 jmp	 $LN148@TCTranslat
  00508	e9 83 02 00 00	 jmp	 $LN53@TCTranslat
$LN54@TCTranslat:

; 1971 : 	else if (ulCode == IOCTL_DISK_HISTOGRAM_RESET)

  0050d	81 7c 24 20 38
	00 07 00	 cmp	 DWORD PTR ulCode$[rsp], 458808 ; 00070038H
  00515	75 11		 jne	 SHORT $LN52@TCTranslat

; 1972 : 		return (LPWSTR) _T ("IOCTL_DISK_HISTOGRAM_RESET");

  00517	48 8d 05 00 00
	00 00		 lea	 rax, OFFSET FLAT:??_C@_1DG@BLHGEOGG@?$AAI?$AAO?$AAC?$AAT?$AAL?$AA_?$AAD?$AAI?$AAS?$AAK?$AA_?$AAH?$AAI?$AAS?$AAT?$AAO?$AAG?$AAR?$AAA?$AAM?$AA_?$AAR?$AAE?$AAS?$AAE?$AAT?$AA?$AA@FNODOBFM@
  0051e	e9 6d 02 00 00	 jmp	 $LN148@TCTranslat
  00523	e9 68 02 00 00	 jmp	 $LN51@TCTranslat
$LN52@TCTranslat:

; 1973 : 	else if (ulCode == IOCTL_DISK_REQUEST_STRUCTURE)

  00528	81 7c 24 20 3c
	00 07 00	 cmp	 DWORD PTR ulCode$[rsp], 458812 ; 0007003cH
  00530	75 11		 jne	 SHORT $LN50@TCTranslat

; 1974 : 		return (LPWSTR) _T ("IOCTL_DISK_REQUEST_STRUCTURE");

  00532	48 8d 05 00 00
	00 00		 lea	 rax, OFFSET FLAT:??_C@_1DK@EFIEFEEG@?$AAI?$AAO?$AAC?$AAT?$AAL?$AA_?$AAD?$AAI?$AAS?$AAK?$AA_?$AAR?$AAE?$AAQ?$AAU?$AAE?$AAS?$AAT?$AA_?$AAS?$AAT?$AAR?$AAU?$AAC?$AAT?$AAU?$AAR?$AAE?$AA?$AA@FNODOBFM@
  00539	e9 52 02 00 00	 jmp	 $LN148@TCTranslat
  0053e	e9 4d 02 00 00	 jmp	 $LN49@TCTranslat
$LN50@TCTranslat:

; 1975 : 	else if (ulCode == IOCTL_DISK_REQUEST_DATA)

  00543	81 7c 24 20 40
	00 07 00	 cmp	 DWORD PTR ulCode$[rsp], 458816 ; 00070040H
  0054b	75 11		 jne	 SHORT $LN48@TCTranslat

; 1976 : 		return (LPWSTR) _T ("IOCTL_DISK_REQUEST_DATA");

  0054d	48 8d 05 00 00
	00 00		 lea	 rax, OFFSET FLAT:??_C@_1DA@EGLLKJNO@?$AAI?$AAO?$AAC?$AAT?$AAL?$AA_?$AAD?$AAI?$AAS?$AAK?$AA_?$AAR?$AAE?$AAQ?$AAU?$AAE?$AAS?$AAT?$AA_?$AAD?$AAA?$AAT?$AAA?$AA?$AA@FNODOBFM@
  00554	e9 37 02 00 00	 jmp	 $LN148@TCTranslat
  00559	e9 32 02 00 00	 jmp	 $LN47@TCTranslat
$LN48@TCTranslat:

; 1977 : 	else if (ulCode == IOCTL_DISK_CONTROLLER_NUMBER)

  0055e	81 7c 24 20 44
	00 07 00	 cmp	 DWORD PTR ulCode$[rsp], 458820 ; 00070044H
  00566	75 11		 jne	 SHORT $LN46@TCTranslat

; 1978 : 		return (LPWSTR) _T ("IOCTL_DISK_CONTROLLER_NUMBER");

  00568	48 8d 05 00 00
	00 00		 lea	 rax, OFFSET FLAT:??_C@_1DK@NNJOEKIN@?$AAI?$AAO?$AAC?$AAT?$AAL?$AA_?$AAD?$AAI?$AAS?$AAK?$AA_?$AAC?$AAO?$AAN?$AAT?$AAR?$AAO?$AAL?$AAL?$AAE?$AAR?$AA_?$AAN?$AAU?$AAM?$AAB?$AAE?$AAR?$AA?$AA@FNODOBFM@
  0056f	e9 1c 02 00 00	 jmp	 $LN148@TCTranslat
  00574	e9 17 02 00 00	 jmp	 $LN45@TCTranslat
$LN46@TCTranslat:

; 1979 : 	else if (ulCode == SMART_GET_VERSION)

  00579	81 7c 24 20 80
	40 07 00	 cmp	 DWORD PTR ulCode$[rsp], 475264 ; 00074080H
  00581	75 11		 jne	 SHORT $LN44@TCTranslat

; 1980 : 		return (LPWSTR) _T ("SMART_GET_VERSION");

  00583	48 8d 05 00 00
	00 00		 lea	 rax, OFFSET FLAT:??_C@_1CE@PLNOGJJD@?$AAS?$AAM?$AAA?$AAR?$AAT?$AA_?$AAG?$AAE?$AAT?$AA_?$AAV?$AAE?$AAR?$AAS?$AAI?$AAO?$AAN?$AA?$AA@FNODOBFM@
  0058a	e9 01 02 00 00	 jmp	 $LN148@TCTranslat
  0058f	e9 fc 01 00 00	 jmp	 $LN43@TCTranslat
$LN44@TCTranslat:

; 1981 : 	else if (ulCode == SMART_SEND_DRIVE_COMMAND)

  00594	81 7c 24 20 84
	c0 07 00	 cmp	 DWORD PTR ulCode$[rsp], 508036 ; 0007c084H
  0059c	75 11		 jne	 SHORT $LN42@TCTranslat

; 1982 : 		return (LPWSTR) _T ("SMART_SEND_DRIVE_COMMAND");

  0059e	48 8d 05 00 00
	00 00		 lea	 rax, OFFSET FLAT:??_C@_1DC@MGFPICHJ@?$AAS?$AAM?$AAA?$AAR?$AAT?$AA_?$AAS?$AAE?$AAN?$AAD?$AA_?$AAD?$AAR?$AAI?$AAV?$AAE?$AA_?$AAC?$AAO?$AAM?$AAM?$AAA?$AAN?$AAD?$AA?$AA@FNODOBFM@
  005a5	e9 e6 01 00 00	 jmp	 $LN148@TCTranslat
  005aa	e9 e1 01 00 00	 jmp	 $LN41@TCTranslat
$LN42@TCTranslat:

; 1983 : 	else if (ulCode == SMART_RCV_DRIVE_DATA)

  005af	81 7c 24 20 88
	c0 07 00	 cmp	 DWORD PTR ulCode$[rsp], 508040 ; 0007c088H
  005b7	75 11		 jne	 SHORT $LN40@TCTranslat

; 1984 : 		return (LPWSTR) _T ("SMART_RCV_DRIVE_DATA");

  005b9	48 8d 05 00 00
	00 00		 lea	 rax, OFFSET FLAT:??_C@_1CK@JCHEBCIE@?$AAS?$AAM?$AAA?$AAR?$AAT?$AA_?$AAR?$AAC?$AAV?$AA_?$AAD?$AAR?$AAI?$AAV?$AAE?$AA_?$AAD?$AAA?$AAT?$AAA?$AA?$AA@FNODOBFM@
  005c0	e9 cb 01 00 00	 jmp	 $LN148@TCTranslat
  005c5	e9 c6 01 00 00	 jmp	 $LN39@TCTranslat
$LN40@TCTranslat:

; 1985 : 	else if (ulCode == IOCTL_DISK_INTERNAL_SET_VERIFY)

  005ca	81 7c 24 20 03
	04 07 00	 cmp	 DWORD PTR ulCode$[rsp], 459779 ; 00070403H
  005d2	75 11		 jne	 SHORT $LN38@TCTranslat

; 1986 : 		return (LPWSTR) _T ("IOCTL_DISK_INTERNAL_SET_VERIFY");

  005d4	48 8d 05 00 00
	00 00		 lea	 rax, OFFSET FLAT:??_C@_1DO@JKPDDEIN@?$AAI?$AAO?$AAC?$AAT?$AAL?$AA_?$AAD?$AAI?$AAS?$AAK?$AA_?$AAI?$AAN?$AAT?$AAE?$AAR?$AAN?$AAA?$AAL?$AA_?$AAS?$AAE?$AAT?$AA_?$AAV?$AAE?$AAR?$AAI?$AAF?$AAY?$AA?$AA@FNODOBFM@
  005db	e9 b0 01 00 00	 jmp	 $LN148@TCTranslat
  005e0	e9 ab 01 00 00	 jmp	 $LN37@TCTranslat
$LN38@TCTranslat:

; 1987 : 	else if (ulCode == IOCTL_DISK_INTERNAL_CLEAR_VERIFY)

  005e5	81 7c 24 20 07
	04 07 00	 cmp	 DWORD PTR ulCode$[rsp], 459783 ; 00070407H
  005ed	75 11		 jne	 SHORT $LN36@TCTranslat

; 1988 : 		return (LPWSTR) _T ("IOCTL_DISK_INTERNAL_CLEAR_VERIFY");

  005ef	48 8d 05 00 00
	00 00		 lea	 rax, OFFSET FLAT:??_C@_1EC@JFOBAPGC@?$AAI?$AAO?$AAC?$AAT?$AAL?$AA_?$AAD?$AAI?$AAS?$AAK?$AA_?$AAI?$AAN?$AAT?$AAE?$AAR?$AAN?$AAA?$AAL?$AA_?$AAC?$AAL?$AAE?$AAA?$AAR?$AA_?$AAV?$AAE?$AAR?$AAI?$AAF?$AAY@FNODOBFM@
  005f6	e9 95 01 00 00	 jmp	 $LN148@TCTranslat
  005fb	e9 90 01 00 00	 jmp	 $LN35@TCTranslat
$LN36@TCTranslat:

; 1989 : 	else if (ulCode == IOCTL_DISK_CHECK_VERIFY)

  00600	81 7c 24 20 00
	48 07 00	 cmp	 DWORD PTR ulCode$[rsp], 477184 ; 00074800H
  00608	75 11		 jne	 SHORT $LN34@TCTranslat

; 1990 : 		return (LPWSTR) _T ("IOCTL_DISK_CHECK_VERIFY");

  0060a	48 8d 05 00 00
	00 00		 lea	 rax, OFFSET FLAT:??_C@_1DA@DLMBEKMN@?$AAI?$AAO?$AAC?$AAT?$AAL?$AA_?$AAD?$AAI?$AAS?$AAK?$AA_?$AAC?$AAH?$AAE?$AAC?$AAK?$AA_?$AAV?$AAE?$AAR?$AAI?$AAF?$AAY?$AA?$AA@FNODOBFM@
  00611	e9 7a 01 00 00	 jmp	 $LN148@TCTranslat
  00616	e9 75 01 00 00	 jmp	 $LN33@TCTranslat
$LN34@TCTranslat:

; 1991 : 	else if (ulCode == IOCTL_DISK_MEDIA_REMOVAL)

  0061b	81 7c 24 20 04
	48 07 00	 cmp	 DWORD PTR ulCode$[rsp], 477188 ; 00074804H
  00623	75 11		 jne	 SHORT $LN32@TCTranslat

; 1992 : 		return (LPWSTR) _T ("IOCTL_DISK_MEDIA_REMOVAL");

  00625	48 8d 05 00 00
	00 00		 lea	 rax, OFFSET FLAT:??_C@_1DC@NMJCPDJD@?$AAI?$AAO?$AAC?$AAT?$AAL?$AA_?$AAD?$AAI?$AAS?$AAK?$AA_?$AAM?$AAE?$AAD?$AAI?$AAA?$AA_?$AAR?$AAE?$AAM?$AAO?$AAV?$AAA?$AAL?$AA?$AA@FNODOBFM@
  0062c	e9 5f 01 00 00	 jmp	 $LN148@TCTranslat
  00631	e9 5a 01 00 00	 jmp	 $LN31@TCTranslat
$LN32@TCTranslat:

; 1993 : 	else if (ulCode == IOCTL_DISK_EJECT_MEDIA)

  00636	81 7c 24 20 08
	48 07 00	 cmp	 DWORD PTR ulCode$[rsp], 477192 ; 00074808H
  0063e	75 11		 jne	 SHORT $LN30@TCTranslat

; 1994 : 		return (LPWSTR) _T ("IOCTL_DISK_EJECT_MEDIA");

  00640	48 8d 05 00 00
	00 00		 lea	 rax, OFFSET FLAT:??_C@_1CO@KHEOABCH@?$AAI?$AAO?$AAC?$AAT?$AAL?$AA_?$AAD?$AAI?$AAS?$AAK?$AA_?$AAE?$AAJ?$AAE?$AAC?$AAT?$AA_?$AAM?$AAE?$AAD?$AAI?$AAA?$AA?$AA@FNODOBFM@
  00647	e9 44 01 00 00	 jmp	 $LN148@TCTranslat
  0064c	e9 3f 01 00 00	 jmp	 $LN29@TCTranslat
$LN30@TCTranslat:

; 1995 : 	else if (ulCode == IOCTL_DISK_LOAD_MEDIA)

  00651	81 7c 24 20 0c
	48 07 00	 cmp	 DWORD PTR ulCode$[rsp], 477196 ; 0007480cH
  00659	75 11		 jne	 SHORT $LN28@TCTranslat

; 1996 : 		return (LPWSTR) _T ("IOCTL_DISK_LOAD_MEDIA");

  0065b	48 8d 05 00 00
	00 00		 lea	 rax, OFFSET FLAT:??_C@_1CM@GNBBIMEE@?$AAI?$AAO?$AAC?$AAT?$AAL?$AA_?$AAD?$AAI?$AAS?$AAK?$AA_?$AAL?$AAO?$AAA?$AAD?$AA_?$AAM?$AAE?$AAD?$AAI?$AAA?$AA?$AA@FNODOBFM@
  00662	e9 29 01 00 00	 jmp	 $LN148@TCTranslat
  00667	e9 24 01 00 00	 jmp	 $LN27@TCTranslat
$LN28@TCTranslat:

; 1997 : 	else if (ulCode == IOCTL_DISK_RESERVE)

  0066c	81 7c 24 20 10
	48 07 00	 cmp	 DWORD PTR ulCode$[rsp], 477200 ; 00074810H
  00674	75 11		 jne	 SHORT $LN26@TCTranslat

; 1998 : 		return (LPWSTR) _T ("IOCTL_DISK_RESERVE");

  00676	48 8d 05 00 00
	00 00		 lea	 rax, OFFSET FLAT:??_C@_1CG@MJDBKCLM@?$AAI?$AAO?$AAC?$AAT?$AAL?$AA_?$AAD?$AAI?$AAS?$AAK?$AA_?$AAR?$AAE?$AAS?$AAE?$AAR?$AAV?$AAE?$AA?$AA@FNODOBFM@
  0067d	e9 0e 01 00 00	 jmp	 $LN148@TCTranslat
  00682	e9 09 01 00 00	 jmp	 $LN25@TCTranslat
$LN26@TCTranslat:

; 1999 : 	else if (ulCode == IOCTL_DISK_RELEASE)

  00687	81 7c 24 20 14
	48 07 00	 cmp	 DWORD PTR ulCode$[rsp], 477204 ; 00074814H
  0068f	75 11		 jne	 SHORT $LN24@TCTranslat

; 2000 : 		return (LPWSTR) _T ("IOCTL_DISK_RELEASE");

  00691	48 8d 05 00 00
	00 00		 lea	 rax, OFFSET FLAT:??_C@_1CG@BFEEHHEK@?$AAI?$AAO?$AAC?$AAT?$AAL?$AA_?$AAD?$AAI?$AAS?$AAK?$AA_?$AAR?$AAE?$AAL?$AAE?$AAA?$AAS?$AAE?$AA?$AA@FNODOBFM@
  00698	e9 f3 00 00 00	 jmp	 $LN148@TCTranslat
  0069d	e9 ee 00 00 00	 jmp	 $LN23@TCTranslat
$LN24@TCTranslat:

; 2001 : 	else if (ulCode == IOCTL_DISK_FIND_NEW_DEVICES)

  006a2	81 7c 24 20 18
	48 07 00	 cmp	 DWORD PTR ulCode$[rsp], 477208 ; 00074818H
  006aa	75 11		 jne	 SHORT $LN22@TCTranslat

; 2002 : 		return (LPWSTR) _T ("IOCTL_DISK_FIND_NEW_DEVICES");

  006ac	48 8d 05 00 00
	00 00		 lea	 rax, OFFSET FLAT:??_C@_1DI@EBJJOMKC@?$AAI?$AAO?$AAC?$AAT?$AAL?$AA_?$AAD?$AAI?$AAS?$AAK?$AA_?$AAF?$AAI?$AAN?$AAD?$AA_?$AAN?$AAE?$AAW?$AA_?$AAD?$AAE?$AAV?$AAI?$AAC?$AAE?$AAS?$AA?$AA@FNODOBFM@
  006b3	e9 d8 00 00 00	 jmp	 $LN148@TCTranslat
  006b8	e9 d3 00 00 00	 jmp	 $LN21@TCTranslat
$LN22@TCTranslat:

; 2003 : 	else if (ulCode == IOCTL_DISK_GET_MEDIA_TYPES)

  006bd	81 7c 24 20 00
	0c 07 00	 cmp	 DWORD PTR ulCode$[rsp], 461824 ; 00070c00H
  006c5	75 11		 jne	 SHORT $LN20@TCTranslat

; 2004 : 		return (LPWSTR) _T ("IOCTL_DISK_GET_MEDIA_TYPES");

  006c7	48 8d 05 00 00
	00 00		 lea	 rax, OFFSET FLAT:??_C@_1DG@MIHPHMPG@?$AAI?$AAO?$AAC?$AAT?$AAL?$AA_?$AAD?$AAI?$AAS?$AAK?$AA_?$AAG?$AAE?$AAT?$AA_?$AAM?$AAE?$AAD?$AAI?$AAA?$AA_?$AAT?$AAY?$AAP?$AAE?$AAS?$AA?$AA@FNODOBFM@
  006ce	e9 bd 00 00 00	 jmp	 $LN148@TCTranslat
  006d3	e9 b8 00 00 00	 jmp	 $LN19@TCTranslat
$LN20@TCTranslat:

; 2005 : 	else if (ulCode == IOCTL_STORAGE_SET_HOTPLUG_INFO)

  006d8	81 7c 24 20 18
	cc 2d 00	 cmp	 DWORD PTR ulCode$[rsp], 3001368 ; 002dcc18H
  006e0	75 11		 jne	 SHORT $LN18@TCTranslat

; 2006 : 		return (LPWSTR) _T ("IOCTL_STORAGE_SET_HOTPLUG_INFO");

  006e2	48 8d 05 00 00
	00 00		 lea	 rax, OFFSET FLAT:??_C@_1DO@MEELNMKF@?$AAI?$AAO?$AAC?$AAT?$AAL?$AA_?$AAS?$AAT?$AAO?$AAR?$AAA?$AAG?$AAE?$AA_?$AAS?$AAE?$AAT?$AA_?$AAH?$AAO?$AAT?$AAP?$AAL?$AAU?$AAG?$AA_?$AAI?$AAN?$AAF?$AAO?$AA?$AA@FNODOBFM@
  006e9	e9 a2 00 00 00	 jmp	 $LN148@TCTranslat
  006ee	e9 9d 00 00 00	 jmp	 $LN17@TCTranslat
$LN18@TCTranslat:

; 2007 : 	else if (ulCode == IRP_MJ_READ)

  006f3	83 7c 24 20 03	 cmp	 DWORD PTR ulCode$[rsp], 3
  006f8	75 11		 jne	 SHORT $LN16@TCTranslat

; 2008 : 		return (LPWSTR) _T ("IRP_MJ_READ");

  006fa	48 8d 05 00 00
	00 00		 lea	 rax, OFFSET FLAT:??_C@_1BI@CFPHGFDN@?$AAI?$AAR?$AAP?$AA_?$AAM?$AAJ?$AA_?$AAR?$AAE?$AAA?$AAD?$AA?$AA@FNODOBFM@
  00701	e9 8a 00 00 00	 jmp	 $LN148@TCTranslat
  00706	e9 85 00 00 00	 jmp	 $LN15@TCTranslat
$LN16@TCTranslat:

; 2009 : 	else if (ulCode == IRP_MJ_WRITE)

  0070b	83 7c 24 20 04	 cmp	 DWORD PTR ulCode$[rsp], 4
  00710	75 0b		 jne	 SHORT $LN14@TCTranslat

; 2010 : 		return (LPWSTR) _T ("IRP_MJ_WRITE");

  00712	48 8d 05 00 00
	00 00		 lea	 rax, OFFSET FLAT:??_C@_1BK@HGBIKEDO@?$AAI?$AAR?$AAP?$AA_?$AAM?$AAJ?$AA_?$AAW?$AAR?$AAI?$AAT?$AAE?$AA?$AA@FNODOBFM@
  00719	eb 75		 jmp	 SHORT $LN148@TCTranslat
  0071b	eb 73		 jmp	 SHORT $LN13@TCTranslat
$LN14@TCTranslat:

; 2011 : 	else if (ulCode == IRP_MJ_CREATE)

  0071d	83 7c 24 20 00	 cmp	 DWORD PTR ulCode$[rsp], 0
  00722	75 0b		 jne	 SHORT $LN12@TCTranslat

; 2012 : 		return (LPWSTR) _T ("IRP_MJ_CREATE");

  00724	48 8d 05 00 00
	00 00		 lea	 rax, OFFSET FLAT:??_C@_1BM@KFEHBPBD@?$AAI?$AAR?$AAP?$AA_?$AAM?$AAJ?$AA_?$AAC?$AAR?$AAE?$AAA?$AAT?$AAE?$AA?$AA@FNODOBFM@
  0072b	eb 63		 jmp	 SHORT $LN148@TCTranslat
  0072d	eb 61		 jmp	 SHORT $LN11@TCTranslat
$LN12@TCTranslat:

; 2013 : 	else if (ulCode == IRP_MJ_CLOSE)

  0072f	83 7c 24 20 02	 cmp	 DWORD PTR ulCode$[rsp], 2
  00734	75 0b		 jne	 SHORT $LN10@TCTranslat

; 2014 : 		return (LPWSTR) _T ("IRP_MJ_CLOSE");

  00736	48 8d 05 00 00
	00 00		 lea	 rax, OFFSET FLAT:??_C@_1BK@JLALPKNJ@?$AAI?$AAR?$AAP?$AA_?$AAM?$AAJ?$AA_?$AAC?$AAL?$AAO?$AAS?$AAE?$AA?$AA@FNODOBFM@
  0073d	eb 51		 jmp	 SHORT $LN148@TCTranslat
  0073f	eb 4f		 jmp	 SHORT $LN9@TCTranslat
$LN10@TCTranslat:

; 2015 : 	else if (ulCode == IRP_MJ_CLEANUP)

  00741	83 7c 24 20 12	 cmp	 DWORD PTR ulCode$[rsp], 18
  00746	75 0b		 jne	 SHORT $LN8@TCTranslat

; 2016 : 		return (LPWSTR) _T ("IRP_MJ_CLEANUP");

  00748	48 8d 05 00 00
	00 00		 lea	 rax, OFFSET FLAT:??_C@_1BO@GEGOKABG@?$AAI?$AAR?$AAP?$AA_?$AAM?$AAJ?$AA_?$AAC?$AAL?$AAE?$AAA?$AAN?$AAU?$AAP?$AA?$AA@FNODOBFM@
  0074f	eb 3f		 jmp	 SHORT $LN148@TCTranslat
  00751	eb 3d		 jmp	 SHORT $LN7@TCTranslat
$LN8@TCTranslat:

; 2017 : 	else if (ulCode == IRP_MJ_FLUSH_BUFFERS)

  00753	83 7c 24 20 09	 cmp	 DWORD PTR ulCode$[rsp], 9
  00758	75 0b		 jne	 SHORT $LN6@TCTranslat

; 2018 : 		return (LPWSTR) _T ("IRP_MJ_FLUSH_BUFFERS");

  0075a	48 8d 05 00 00
	00 00		 lea	 rax, OFFSET FLAT:??_C@_1CK@MCKHKFDD@?$AAI?$AAR?$AAP?$AA_?$AAM?$AAJ?$AA_?$AAF?$AAL?$AAU?$AAS?$AAH?$AA_?$AAB?$AAU?$AAF?$AAF?$AAE?$AAR?$AAS?$AA?$AA@FNODOBFM@
  00761	eb 2d		 jmp	 SHORT $LN148@TCTranslat
  00763	eb 2b		 jmp	 SHORT $LN5@TCTranslat
$LN6@TCTranslat:

; 2019 : 	else if (ulCode == IRP_MJ_SHUTDOWN)

  00765	83 7c 24 20 10	 cmp	 DWORD PTR ulCode$[rsp], 16
  0076a	75 0b		 jne	 SHORT $LN4@TCTranslat

; 2020 : 		return (LPWSTR) _T ("IRP_MJ_SHUTDOWN");

  0076c	48 8d 05 00 00
	00 00		 lea	 rax, OFFSET FLAT:??_C@_1CA@FOECGGNC@?$AAI?$AAR?$AAP?$AA_?$AAM?$AAJ?$AA_?$AAS?$AAH?$AAU?$AAT?$AAD?$AAO?$AAW?$AAN?$AA?$AA@FNODOBFM@
  00773	eb 1b		 jmp	 SHORT $LN148@TCTranslat
  00775	eb 19		 jmp	 SHORT $LN3@TCTranslat
$LN4@TCTranslat:

; 2021 : 	else if (ulCode == IRP_MJ_DEVICE_CONTROL)

  00777	83 7c 24 20 0e	 cmp	 DWORD PTR ulCode$[rsp], 14
  0077c	75 0b		 jne	 SHORT $LN2@TCTranslat

; 2022 : 		return (LPWSTR) _T ("IRP_MJ_DEVICE_CONTROL");

  0077e	48 8d 05 00 00
	00 00		 lea	 rax, OFFSET FLAT:??_C@_1CM@DKLAEDLO@?$AAI?$AAR?$AAP?$AA_?$AAM?$AAJ?$AA_?$AAD?$AAE?$AAV?$AAI?$AAC?$AAE?$AA_?$AAC?$AAO?$AAN?$AAT?$AAR?$AAO?$AAL?$AA?$AA@FNODOBFM@
  00785	eb 09		 jmp	 SHORT $LN148@TCTranslat

; 2023 : 	else

  00787	eb 07		 jmp	 SHORT $LN1@TCTranslat
$LN2@TCTranslat:

; 2024 : 	{
; 2025 : 		return (LPWSTR) _T ("IOCTL");

  00789	48 8d 05 00 00
	00 00		 lea	 rax, OFFSET FLAT:??_C@_1M@KHJOIALG@?$AAI?$AAO?$AAC?$AAT?$AAL?$AA?$AA@FNODOBFM@
$LN1@TCTranslat:
$LN3@TCTranslat:
$LN5@TCTranslat:
$LN7@TCTranslat:
$LN9@TCTranslat:
$LN11@TCTranslat:
$LN13@TCTranslat:
$LN15@TCTranslat:
$LN17@TCTranslat:
$LN19@TCTranslat:
$LN21@TCTranslat:
$LN23@TCTranslat:
$LN25@TCTranslat:
$LN27@TCTranslat:
$LN29@TCTranslat:
$LN31@TCTranslat:
$LN33@TCTranslat:
$LN35@TCTranslat:
$LN37@TCTranslat:
$LN39@TCTranslat:
$LN41@TCTranslat:
$LN43@TCTranslat:
$LN45@TCTranslat:
$LN47@TCTranslat:
$LN49@TCTranslat:
$LN51@TCTranslat:
$LN53@TCTranslat:
$LN55@TCTranslat:
$LN57@TCTranslat:
$LN59@TCTranslat:
$LN61@TCTranslat:
$LN63@TCTranslat:
$LN65@TCTranslat:
$LN67@TCTranslat:
$LN69@TCTranslat:
$LN71@TCTranslat:
$LN73@TCTranslat:
$LN75@TCTranslat:
$LN77@TCTranslat:
$LN79@TCTranslat:
$LN81@TCTranslat:
$LN83@TCTranslat:
$LN85@TCTranslat:
$LN87@TCTranslat:
$LN89@TCTranslat:
$LN91@TCTranslat:
$LN93@TCTranslat:
$LN95@TCTranslat:
$LN97@TCTranslat:
$LN99@TCTranslat:
$LN101@TCTranslat:
$LN103@TCTranslat:
$LN105@TCTranslat:
$LN148@TCTranslat:

; 2026 : 	}
; 2027 : }

  00790	48 83 c4 18	 add	 rsp, 24
  00794	c3		 ret	 0
  00795	0f 1f 00	 npad	 3
$LN152@TCTranslat:
  00798	00 00 00 00	 DD	 $LN130@TCTranslat
  0079c	00 00 00 00	 DD	 $LN136@TCTranslat
  007a0	00 00 00 00	 DD	 $LN116@TCTranslat
  007a4	00 00 00 00	 DD	 $LN141@TCTranslat
  007a8	00 00 00 00	 DD	 $LN142@TCTranslat
  007ac	00 00 00 00	 DD	 $LN129@TCTranslat
  007b0	00 00 00 00	 DD	 $LN122@TCTranslat
  007b4	00 00 00 00	 DD	 $LN133@TCTranslat
  007b8	00 00 00 00	 DD	 $LN118@TCTranslat
  007bc	00 00 00 00	 DD	 $LN119@TCTranslat
  007c0	00 00 00 00	 DD	 $LN128@TCTranslat
  007c4	00 00 00 00	 DD	 $LN109@TCTranslat
  007c8	00 00 00 00	 DD	 $LN115@TCTranslat
  007cc	00 00 00 00	 DD	 $LN131@TCTranslat
  007d0	00 00 00 00	 DD	 $LN132@TCTranslat
  007d4	00 00 00 00	 DD	 $LN114@TCTranslat
  007d8	00 00 00 00	 DD	 $LN124@TCTranslat
  007dc	00 00 00 00	 DD	 $LN137@TCTranslat
  007e0	00 00 00 00	 DD	 $LN143@TCTranslat
  007e4	00 00 00 00	 DD	 $LN145@TCTranslat
  007e8	00 00 00 00	 DD	 $LN138@TCTranslat
  007ec	00 00 00 00	 DD	 $LN140@TCTranslat
  007f0	00 00 00 00	 DD	 $LN113@TCTranslat
  007f4	00 00 00 00	 DD	 $LN139@TCTranslat
  007f8	00 00 00 00	 DD	 $LN126@TCTranslat
  007fc	00 00 00 00	 DD	 $LN125@TCTranslat
  00800	00 00 00 00	 DD	 $LN117@TCTranslat
  00804	00 00 00 00	 DD	 $LN127@TCTranslat
  00808	00 00 00 00	 DD	 $LN120@TCTranslat
  0080c	00 00 00 00	 DD	 $LN110@TCTranslat
  00810	00 00 00 00	 DD	 $LN144@TCTranslat
  00814	00 00 00 00	 DD	 $LN134@TCTranslat
  00818	00 00 00 00	 DD	 $LN135@TCTranslat
  0081c	00 00 00 00	 DD	 $LN108@TCTranslat
  00820	00 00 00 00	 DD	 $LN121@TCTranslat
  00824	00 00 00 00	 DD	 $LN111@TCTranslat
  00828	00 00 00 00	 DD	 $LN112@TCTranslat
  0082c	00 00 00 00	 DD	 $LN123@TCTranslat
  00830	00 00 00 00	 DD	 $LN146@TCTranslat
$LN151@TCTranslat:
  00834	00		 DB	 0
  00835	26		 DB	 38			; 00000026H
  00836	26		 DB	 38			; 00000026H
  00837	26		 DB	 38			; 00000026H
  00838	01		 DB	 1
  00839	26		 DB	 38			; 00000026H
  0083a	26		 DB	 38			; 00000026H
  0083b	26		 DB	 38			; 00000026H
  0083c	02		 DB	 2
  0083d	26		 DB	 38			; 00000026H
  0083e	26		 DB	 38			; 00000026H
  0083f	26		 DB	 38			; 00000026H
  00840	03		 DB	 3
  00841	26		 DB	 38			; 00000026H
  00842	26		 DB	 38			; 00000026H
  00843	26		 DB	 38			; 00000026H
  00844	04		 DB	 4
  00845	26		 DB	 38			; 00000026H
  00846	26		 DB	 38			; 00000026H
  00847	26		 DB	 38			; 00000026H
  00848	05		 DB	 5
  00849	26		 DB	 38			; 00000026H
  0084a	26		 DB	 38			; 00000026H
  0084b	26		 DB	 38			; 00000026H
  0084c	06		 DB	 6
  0084d	26		 DB	 38			; 00000026H
  0084e	26		 DB	 38			; 00000026H
  0084f	26		 DB	 38			; 00000026H
  00850	07		 DB	 7
  00851	26		 DB	 38			; 00000026H
  00852	26		 DB	 38			; 00000026H
  00853	26		 DB	 38			; 00000026H
  00854	08		 DB	 8
  00855	26		 DB	 38			; 00000026H
  00856	26		 DB	 38			; 00000026H
  00857	26		 DB	 38			; 00000026H
  00858	09		 DB	 9
  00859	26		 DB	 38			; 00000026H
  0085a	26		 DB	 38			; 00000026H
  0085b	26		 DB	 38			; 00000026H
  0085c	0a		 DB	 10
  0085d	26		 DB	 38			; 00000026H
  0085e	26		 DB	 38			; 00000026H
  0085f	26		 DB	 38			; 00000026H
  00860	0b		 DB	 11
  00861	26		 DB	 38			; 00000026H
  00862	26		 DB	 38			; 00000026H
  00863	26		 DB	 38			; 00000026H
  00864	0c		 DB	 12
  00865	26		 DB	 38			; 00000026H
  00866	26		 DB	 38			; 00000026H
  00867	26		 DB	 38			; 00000026H
  00868	0d		 DB	 13
  00869	26		 DB	 38			; 00000026H
  0086a	26		 DB	 38			; 00000026H
  0086b	26		 DB	 38			; 00000026H
  0086c	0e		 DB	 14
  0086d	26		 DB	 38			; 00000026H
  0086e	26		 DB	 38			; 00000026H
  0086f	26		 DB	 38			; 00000026H
  00870	0f		 DB	 15
  00871	26		 DB	 38			; 00000026H
  00872	26		 DB	 38			; 00000026H
  00873	26		 DB	 38			; 00000026H
  00874	10		 DB	 16
  00875	26		 DB	 38			; 00000026H
  00876	26		 DB	 38			; 00000026H
  00877	26		 DB	 38			; 00000026H
  00878	11		 DB	 17
  00879	26		 DB	 38			; 00000026H
  0087a	26		 DB	 38			; 00000026H
  0087b	26		 DB	 38			; 00000026H
  0087c	12		 DB	 18
  0087d	26		 DB	 38			; 00000026H
  0087e	26		 DB	 38			; 00000026H
  0087f	26		 DB	 38			; 00000026H
  00880	13		 DB	 19
  00881	26		 DB	 38			; 00000026H
  00882	26		 DB	 38			; 00000026H
  00883	26		 DB	 38			; 00000026H
  00884	14		 DB	 20
  00885	26		 DB	 38			; 00000026H
  00886	26		 DB	 38			; 00000026H
  00887	26		 DB	 38			; 00000026H
  00888	15		 DB	 21
  00889	26		 DB	 38			; 00000026H
  0088a	26		 DB	 38			; 00000026H
  0088b	26		 DB	 38			; 00000026H
  0088c	16		 DB	 22
  0088d	26		 DB	 38			; 00000026H
  0088e	26		 DB	 38			; 00000026H
  0088f	26		 DB	 38			; 00000026H
  00890	17		 DB	 23
  00891	26		 DB	 38			; 00000026H
  00892	26		 DB	 38			; 00000026H
  00893	26		 DB	 38			; 00000026H
  00894	18		 DB	 24
  00895	26		 DB	 38			; 00000026H
  00896	26		 DB	 38			; 00000026H
  00897	26		 DB	 38			; 00000026H
  00898	19		 DB	 25
  00899	26		 DB	 38			; 00000026H
  0089a	26		 DB	 38			; 00000026H
  0089b	26		 DB	 38			; 00000026H
  0089c	1a		 DB	 26
  0089d	26		 DB	 38			; 00000026H
  0089e	26		 DB	 38			; 00000026H
  0089f	26		 DB	 38			; 00000026H
  008a0	1b		 DB	 27
  008a1	26		 DB	 38			; 00000026H
  008a2	26		 DB	 38			; 00000026H
  008a3	26		 DB	 38			; 00000026H
  008a4	1c		 DB	 28
  008a5	26		 DB	 38			; 00000026H
  008a6	26		 DB	 38			; 00000026H
  008a7	26		 DB	 38			; 00000026H
  008a8	1d		 DB	 29
  008a9	26		 DB	 38			; 00000026H
  008aa	26		 DB	 38			; 00000026H
  008ab	26		 DB	 38			; 00000026H
  008ac	1e		 DB	 30
  008ad	26		 DB	 38			; 00000026H
  008ae	26		 DB	 38			; 00000026H
  008af	26		 DB	 38			; 00000026H
  008b0	1f		 DB	 31
  008b1	26		 DB	 38			; 00000026H
  008b2	26		 DB	 38			; 00000026H
  008b3	26		 DB	 38			; 00000026H
  008b4	20		 DB	 32			; 00000020H
  008b5	26		 DB	 38			; 00000026H
  008b6	26		 DB	 38			; 00000026H
  008b7	26		 DB	 38			; 00000026H
  008b8	21		 DB	 33			; 00000021H
  008b9	26		 DB	 38			; 00000026H
  008ba	26		 DB	 38			; 00000026H
  008bb	26		 DB	 38			; 00000026H
  008bc	22		 DB	 34			; 00000022H
  008bd	26		 DB	 38			; 00000026H
  008be	26		 DB	 38			; 00000026H
  008bf	26		 DB	 38			; 00000026H
  008c0	23		 DB	 35			; 00000023H
  008c1	26		 DB	 38			; 00000026H
  008c2	26		 DB	 38			; 00000026H
  008c3	26		 DB	 38			; 00000026H
  008c4	24		 DB	 36			; 00000024H
  008c5	26		 DB	 38			; 00000026H
  008c6	26		 DB	 38			; 00000026H
  008c7	26		 DB	 38			; 00000026H
  008c8	25		 DB	 37			; 00000025H
TCTranslateCode ENDP
_TEXT	ENDS
PUBLIC	__$ArrayPad$
PUBLIC	TCGetDosNameFromNumber
EXTRN	__GSHandlerCheck:PROC
EXTRN	__security_cookie:QWORD
;	COMDAT pdata
pdata	SEGMENT
$pdata$TCGetDosNameFromNumber DD imagerel $LN5
	DD	imagerel $LN5+232
	DD	imagerel $unwind$TCGetDosNameFromNumber
pdata	ENDS
;	COMDAT xdata
xdata	SEGMENT
$unwind$TCGetDosNameFromNumber DD 021d19H
	DD	0700a720eH
	DD	imagerel __GSHandlerCheck
	DD	038H
; Function compile flags: /Odtp
xdata	ENDS
;	COMDAT TCGetDosNameFromNumber
_TEXT	SEGMENT
tmp$ = 8
j$ = 16
tv66 = 24
tv67 = 32
tv68 = 40
tv69 = 48
__$ArrayPad$ = 56
dosname$ = 80
nDriveNo$ = 88
TCGetDosNameFromNumber PROC				; COMDAT

; 1855 : {

$LN5:
  00000	89 54 24 10	 mov	 DWORD PTR [rsp+16], edx
  00004	48 89 4c 24 08	 mov	 QWORD PTR [rsp+8], rcx
  00009	57		 push	 rdi
  0000a	48 83 ec 40	 sub	 rsp, 64			; 00000040H
  0000e	48 8b 05 00 00
	00 00		 mov	 rax, QWORD PTR __security_cookie
  00015	48 33 c4	 xor	 rax, rsp
  00018	48 89 44 24 38	 mov	 QWORD PTR __$ArrayPad$[rsp], rax

; 1856 : 	WCHAR tmp[3] =
; 1857 : 	{0, ':', 0};

  0001d	33 c0		 xor	 eax, eax
  0001f	66 89 44 24 08	 mov	 WORD PTR tmp$[rsp], ax
  00024	b8 3a 00 00 00	 mov	 eax, 58			; 0000003aH
  00029	66 89 44 24 0a	 mov	 WORD PTR tmp$[rsp+2], ax
  0002e	33 c0		 xor	 eax, eax
  00030	66 89 44 24 0c	 mov	 WORD PTR tmp$[rsp+4], ax

; 1858 : 	int j = nDriveNo + (WCHAR) 'A';

  00035	8b 44 24 58	 mov	 eax, DWORD PTR nDriveNo$[rsp]
  00039	83 c0 41	 add	 eax, 65			; 00000041H
  0003c	89 44 24 10	 mov	 DWORD PTR j$[rsp], eax

; 1859 : 
; 1860 : 	tmp[0] = (short) j;

  00040	0f b7 44 24 10	 movzx	 eax, WORD PTR j$[rsp]
  00045	66 89 44 24 08	 mov	 WORD PTR tmp$[rsp], ax

; 1861 : 	//This is a risk point from CVE-2015-7358, there are global and per user mounts, need more logic here.
; 1862 : 	wcscpy (dosname, (LPWSTR) DOS_MOUNT_PREFIX);

  0004a	48 8d 05 00 00
	00 00		 lea	 rax, OFFSET FLAT:??_C@_1BK@LABJKOM@?$AA?2?$AAD?$AAo?$AAs?$AAD?$AAe?$AAv?$AAi?$AAc?$AAe?$AAs?$AA?2?$AA?$AA@FNODOBFM@
  00051	48 89 44 24 18	 mov	 QWORD PTR tv66[rsp], rax
  00056	48 8b 44 24 50	 mov	 rax, QWORD PTR dosname$[rsp]
  0005b	48 89 44 24 20	 mov	 QWORD PTR tv67[rsp], rax
  00060	48 8b 44 24 20	 mov	 rax, QWORD PTR tv67[rsp]
  00065	48 89 44 24 28	 mov	 QWORD PTR tv68[rsp], rax
$LN3@TCGetDosNa:
  0006a	48 8b 44 24 18	 mov	 rax, QWORD PTR tv66[rsp]
  0006f	0f b7 00	 movzx	 eax, WORD PTR [rax]
  00072	66 89 44 24 30	 mov	 WORD PTR tv69[rsp], ax
  00077	48 8b 4c 24 20	 mov	 rcx, QWORD PTR tv67[rsp]
  0007c	0f b7 44 24 30	 movzx	 eax, WORD PTR tv69[rsp]
  00081	66 89 01	 mov	 WORD PTR [rcx], ax
  00084	48 8b 44 24 18	 mov	 rax, QWORD PTR tv66[rsp]
  00089	48 83 c0 02	 add	 rax, 2
  0008d	48 89 44 24 18	 mov	 QWORD PTR tv66[rsp], rax
  00092	48 8b 44 24 20	 mov	 rax, QWORD PTR tv67[rsp]
  00097	48 83 c0 02	 add	 rax, 2
  0009b	48 89 44 24 20	 mov	 QWORD PTR tv67[rsp], rax
  000a0	66 83 7c 24 30
	00		 cmp	 WORD PTR tv69[rsp], 0
  000a6	75 c2		 jne	 SHORT $LN3@TCGetDosNa

; 1863 : 	wcscat (dosname, tmp);

  000a8	48 8b 7c 24 50	 mov	 rdi, QWORD PTR dosname$[rsp]
  000ad	33 c0		 xor	 eax, eax
  000af	48 c7 c1 ff ff
	ff ff		 mov	 rcx, -1
  000b6	66 f2 af	 repne scasw
  000b9	48 83 ef 02	 sub	 rdi, 2
  000bd	48 8d 54 24 08	 lea	 rdx, QWORD PTR tmp$[rsp]
  000c2	33 c9		 xor	 ecx, ecx
$LL4@TCGetDosNa:
  000c4	0f b7 04 0a	 movzx	 eax, WORD PTR [rdx+rcx]
  000c8	66 89 04 0f	 mov	 WORD PTR [rdi+rcx], ax
  000cc	48 83 c1 02	 add	 rcx, 2
  000d0	66 85 c0	 test	 ax, ax
  000d3	75 ef		 jne	 SHORT $LL4@TCGetDosNa

; 1864 : }

  000d5	48 8b 4c 24 38	 mov	 rcx, QWORD PTR __$ArrayPad$[rsp]
  000da	48 33 cc	 xor	 rcx, rsp
  000dd	e8 00 00 00 00	 call	 __security_check_cookie
  000e2	48 83 c4 40	 add	 rsp, 64			; 00000040H
  000e6	5f		 pop	 rdi
  000e7	c3		 ret	 0
TCGetDosNameFromNumber ENDP
_TEXT	ENDS
PUBLIC	__$ArrayPad$
PUBLIC	TCGetNTNameFromNumber
;	COMDAT pdata
pdata	SEGMENT
$pdata$TCGetNTNameFromNumber DD imagerel $LN4
	DD	imagerel $LN4+207
	DD	imagerel $unwind$TCGetNTNameFromNumber
pdata	ENDS
;	COMDAT xdata
xdata	SEGMENT
$unwind$TCGetNTNameFromNumber DD 011c19H
	DD	0c20dH
	DD	imagerel __GSHandlerCheck
	DD	058H
; Function compile flags: /Odtp
xdata	ENDS
;	COMDAT TCGetNTNameFromNumber
_TEXT	SEGMENT
tmp$ = 40
j$ = 48
tv66 = 56
tv67 = 64
tv68 = 72
tv69 = 80
__$ArrayPad$ = 88
ntname$ = 112
nDriveNo$ = 120
TCGetNTNameFromNumber PROC				; COMDAT

; 1844 : {

$LN4:
  00000	89 54 24 10	 mov	 DWORD PTR [rsp+16], edx
  00004	48 89 4c 24 08	 mov	 QWORD PTR [rsp+8], rcx
  00009	48 83 ec 68	 sub	 rsp, 104		; 00000068H
  0000d	48 8b 05 00 00
	00 00		 mov	 rax, QWORD PTR __security_cookie
  00014	48 33 c4	 xor	 rax, rsp
  00017	48 89 44 24 58	 mov	 QWORD PTR __$ArrayPad$[rsp], rax

; 1845 : 	WCHAR tmp[3] =
; 1846 : 	{0, ':', 0};

  0001c	33 c0		 xor	 eax, eax
  0001e	66 89 44 24 28	 mov	 WORD PTR tmp$[rsp], ax
  00023	b8 3a 00 00 00	 mov	 eax, 58			; 0000003aH
  00028	66 89 44 24 2a	 mov	 WORD PTR tmp$[rsp+2], ax
  0002d	33 c0		 xor	 eax, eax
  0002f	66 89 44 24 2c	 mov	 WORD PTR tmp$[rsp+4], ax

; 1847 : 	int j = nDriveNo + (WCHAR) 'A';

  00034	8b 44 24 78	 mov	 eax, DWORD PTR nDriveNo$[rsp]
  00038	83 c0 41	 add	 eax, 65			; 00000041H
  0003b	89 44 24 30	 mov	 DWORD PTR j$[rsp], eax

; 1848 : 
; 1849 : 	tmp[0] = (short) j;

  0003f	0f b7 44 24 30	 movzx	 eax, WORD PTR j$[rsp]
  00044	66 89 44 24 28	 mov	 WORD PTR tmp$[rsp], ax

; 1850 : 	wcscpy (ntname, (LPWSTR) NT_MOUNT_PREFIX);

  00049	48 8d 05 00 00
	00 00		 lea	 rax, OFFSET FLAT:??_C@_1DA@GMJGMIMP@?$AA?2?$AAD?$AAe?$AAv?$AAi?$AAc?$AAe?$AA?2?$AAT?$AAr?$AAu?$AAe?$AAC?$AAr?$AAy?$AAp?$AAt?$AAV?$AAo?$AAl?$AAu?$AAm?$AAe?$AA?$AA@FNODOBFM@
  00050	48 89 44 24 38	 mov	 QWORD PTR tv66[rsp], rax
  00055	48 8b 44 24 70	 mov	 rax, QWORD PTR ntname$[rsp]
  0005a	48 89 44 24 40	 mov	 QWORD PTR tv67[rsp], rax
  0005f	48 8b 44 24 40	 mov	 rax, QWORD PTR tv67[rsp]
  00064	48 89 44 24 48	 mov	 QWORD PTR tv68[rsp], rax
$LN3@TCGetNTNam:
  00069	48 8b 44 24 38	 mov	 rax, QWORD PTR tv66[rsp]
  0006e	0f b7 00	 movzx	 eax, WORD PTR [rax]
  00071	66 89 44 24 50	 mov	 WORD PTR tv69[rsp], ax
  00076	48 8b 4c 24 40	 mov	 rcx, QWORD PTR tv67[rsp]
  0007b	0f b7 44 24 50	 movzx	 eax, WORD PTR tv69[rsp]
  00080	66 89 01	 mov	 WORD PTR [rcx], ax
  00083	48 8b 44 24 38	 mov	 rax, QWORD PTR tv66[rsp]
  00088	48 83 c0 02	 add	 rax, 2
  0008c	48 89 44 24 38	 mov	 QWORD PTR tv66[rsp], rax
  00091	48 8b 44 24 40	 mov	 rax, QWORD PTR tv67[rsp]
  00096	48 83 c0 02	 add	 rax, 2
  0009a	48 89 44 24 40	 mov	 QWORD PTR tv67[rsp], rax
  0009f	66 83 7c 24 50
	00		 cmp	 WORD PTR tv69[rsp], 0
  000a5	75 c2		 jne	 SHORT $LN3@TCGetNTNam

; 1851 : 	wcsncat (ntname, tmp, 1);

  000a7	41 b8 01 00 00
	00		 mov	 r8d, 1
  000ad	48 8d 54 24 28	 lea	 rdx, QWORD PTR tmp$[rsp]
  000b2	48 8b 4c 24 70	 mov	 rcx, QWORD PTR ntname$[rsp]
  000b7	ff 15 00 00 00
	00		 call	 QWORD PTR __imp_wcsncat

; 1852 : }

  000bd	48 8b 4c 24 58	 mov	 rcx, QWORD PTR __$ArrayPad$[rsp]
  000c2	48 33 cc	 xor	 rcx, rsp
  000c5	e8 00 00 00 00	 call	 __security_check_cookie
  000ca	48 83 c4 68	 add	 rsp, 104		; 00000068H
  000ce	c3		 ret	 0
TCGetNTNameFromNumber ENDP
_TEXT	ENDS
PUBLIC	TCSleep
;	COMDAT pdata
pdata	SEGMENT
$pdata$TCSleep DD imagerel $LN4
	DD	imagerel $LN4+143
	DD	imagerel $unwind$TCSleep
pdata	ENDS
;	COMDAT xdata
xdata	SEGMENT
$unwind$TCSleep DD 010801H
	DD	08208H
; Function compile flags: /Odtp
xdata	ENDS
;	COMDAT TCSleep
_TEXT	SEGMENT
timer$ = 48
duetime$ = 56
milliSeconds$ = 80
TCSleep	PROC						; COMDAT

; 1719 : {

$LN4:
  00000	89 4c 24 08	 mov	 DWORD PTR [rsp+8], ecx
  00004	48 83 ec 48	 sub	 rsp, 72			; 00000048H

; 1720 : 	PKTIMER timer = (PKTIMER) TCalloc (sizeof (KTIMER));

  00008	41 b8 54 43 4d
	4d		 mov	 r8d, 1296909140		; 4d4d4354H
  0000e	ba 40 00 00 00	 mov	 edx, 64			; 00000040H
  00013	33 c9		 xor	 ecx, ecx
  00015	ff 15 00 00 00
	00		 call	 QWORD PTR __imp_ExAllocatePoolWithTag
  0001b	48 89 44 24 30	 mov	 QWORD PTR timer$[rsp], rax

; 1721 : 	LARGE_INTEGER duetime;
; 1722 : 
; 1723 : 	if (!timer)

  00020	48 83 7c 24 30
	00		 cmp	 QWORD PTR timer$[rsp], 0
  00026	75 02		 jne	 SHORT $LN1@TCSleep

; 1724 : 		return;

  00028	eb 60		 jmp	 SHORT $LN2@TCSleep
$LN1@TCSleep:

; 1725 : 
; 1726 : 	duetime.QuadPart = (__int64) milliSeconds * -10000;

  0002a	48 63 44 24 50	 movsxd	 rax, DWORD PTR milliSeconds$[rsp]
  0002f	48 69 c0 f0 d8
	ff ff		 imul	 rax, -10000		; ffffffffffffd8f0H
  00036	48 89 44 24 38	 mov	 QWORD PTR duetime$[rsp], rax

; 1727 : 	KeInitializeTimerEx(timer, NotificationTimer);

  0003b	33 d2		 xor	 edx, edx
  0003d	48 8b 4c 24 30	 mov	 rcx, QWORD PTR timer$[rsp]
  00042	ff 15 00 00 00
	00		 call	 QWORD PTR __imp_KeInitializeTimerEx

; 1728 : 	KeSetTimerEx(timer, duetime, 0, NULL);

  00048	45 33 c9	 xor	 r9d, r9d
  0004b	45 33 c0	 xor	 r8d, r8d
  0004e	48 8b 54 24 38	 mov	 rdx, QWORD PTR duetime$[rsp]
  00053	48 8b 4c 24 30	 mov	 rcx, QWORD PTR timer$[rsp]
  00058	ff 15 00 00 00
	00		 call	 QWORD PTR __imp_KeSetTimerEx

; 1729 : 
; 1730 : 	KeWaitForSingleObject (timer, Executive, KernelMode, FALSE, NULL);

  0005e	48 c7 44 24 20
	00 00 00 00	 mov	 QWORD PTR [rsp+32], 0
  00067	45 33 c9	 xor	 r9d, r9d
  0006a	45 33 c0	 xor	 r8d, r8d
  0006d	33 d2		 xor	 edx, edx
  0006f	48 8b 4c 24 30	 mov	 rcx, QWORD PTR timer$[rsp]
  00074	ff 15 00 00 00
	00		 call	 QWORD PTR __imp_KeWaitForSingleObject

; 1731 : 
; 1732 : 	TCfree (timer);

  0007a	ba 54 43 4d 4d	 mov	 edx, 1296909140		; 4d4d4354H
  0007f	48 8b 4c 24 30	 mov	 rcx, QWORD PTR timer$[rsp]
  00084	ff 15 00 00 00
	00		 call	 QWORD PTR __imp_ExFreePoolWithTag
$LN2@TCSleep:

; 1733 : }

  0008a	48 83 c4 48	 add	 rsp, 72			; 00000048H
  0008e	c3		 ret	 0
TCSleep	ENDP
_TEXT	ENDS
PUBLIC	TCStopVolumeThread
;	COMDAT pdata
pdata	SEGMENT
$pdata$TCStopVolumeThread DD imagerel $LN6
	DD	imagerel $LN6+200
	DD	imagerel $unwind$TCStopVolumeThread
pdata	ENDS
;	COMDAT xdata
xdata	SEGMENT
$unwind$TCStopVolumeThread DD 010e01H
	DD	0820eH
; Function compile flags: /Odtp
xdata	ENDS
;	COMDAT TCStopVolumeThread
_TEXT	SEGMENT
ntStatus$ = 48
tv84 = 52
DeviceObject$ = 80
Extension$ = 88
TCStopVolumeThread PROC					; COMDAT

; 1688 : {

$LN6:
  00000	48 89 54 24 10	 mov	 QWORD PTR [rsp+16], rdx
  00005	48 89 4c 24 08	 mov	 QWORD PTR [rsp+8], rcx
  0000a	48 83 ec 48	 sub	 rsp, 72			; 00000048H

; 1689 : 	NTSTATUS ntStatus;
; 1690 : 
; 1691 : 	if (DeviceObject);	/* Remove compiler warning */
; 1692 : 
; 1693 : 	Dump ("Signalling thread to quit...\n");

  0000e	48 8d 0d 00 00
	00 00		 lea	 rcx, OFFSET FLAT:??_C@_0BO@IDJGLOL@Signalling?5thread?5to?5quit?4?4?4?6?$AA@FNODOBFM@
  00015	e8 00 00 00 00	 call	 DbgPrint

; 1694 : 
; 1695 : 	Extension->bThreadShouldQuit = TRUE;

  0001a	4c 8b 5c 24 58	 mov	 r11, QWORD PTR Extension$[rsp]
  0001f	41 c7 43 1c 01
	00 00 00	 mov	 DWORD PTR [r11+28], 1

; 1696 : 
; 1697 : 	KeReleaseSemaphore (&Extension->RequestSemaphore,
; 1698 : 			    0,
; 1699 : 			    1,
; 1700 : 			    TRUE);

  00027	48 8b 4c 24 58	 mov	 rcx, QWORD PTR Extension$[rsp]
  0002c	48 83 c1 58	 add	 rcx, 88			; 00000058H
  00030	41 b1 01	 mov	 r9b, 1
  00033	41 b8 01 00 00
	00		 mov	 r8d, 1
  00039	33 d2		 xor	 edx, edx
  0003b	ff 15 00 00 00
	00		 call	 QWORD PTR __imp_KeReleaseSemaphore

; 1701 : 
; 1702 : 	ntStatus = KeWaitForSingleObject (Extension->peThread,
; 1703 : 					  Executive,
; 1704 : 					  KernelMode,
; 1705 : 					  FALSE,
; 1706 : 					  NULL);

  00041	48 c7 44 24 20
	00 00 00 00	 mov	 QWORD PTR [rsp+32], 0
  0004a	45 33 c9	 xor	 r9d, r9d
  0004d	45 33 c0	 xor	 r8d, r8d
  00050	33 d2		 xor	 edx, edx
  00052	48 8b 4c 24 58	 mov	 rcx, QWORD PTR Extension$[rsp]
  00057	48 8b 49 20	 mov	 rcx, QWORD PTR [rcx+32]
  0005b	ff 15 00 00 00
	00		 call	 QWORD PTR __imp_KeWaitForSingleObject
  00061	89 44 24 30	 mov	 DWORD PTR ntStatus$[rsp], eax

; 1707 : 
; 1708 : 	ASSERT (NT_SUCCESS (ntStatus));

  00065	83 7c 24 30 00	 cmp	 DWORD PTR ntStatus$[rsp], 0
  0006a	7d 27		 jge	 SHORT $LN4@TCStopVolu
  0006c	45 33 c9	 xor	 r9d, r9d
  0006f	41 b8 ac 06 00
	00		 mov	 r8d, 1708		; 000006acH
  00075	48 8d 15 00 00
	00 00		 lea	 rdx, OFFSET FLAT:??_C@_0EC@PIHBGAHH@c?3?2users?2public?2desktop?2projects@FNODOBFM@
  0007c	48 8d 0d 00 00
	00 00		 lea	 rcx, OFFSET FLAT:??_C@_0BG@MEOILBFO@NT_SUCCESS?5?$CIntStatus?$CJ?$AA@FNODOBFM@
  00083	ff 15 00 00 00
	00		 call	 QWORD PTR __imp_RtlAssert
  00089	c7 44 24 34 00
	00 00 00	 mov	 DWORD PTR tv84[rsp], 0
  00091	eb 08		 jmp	 SHORT $LN5@TCStopVolu
$LN4@TCStopVolu:
  00093	c7 44 24 34 01
	00 00 00	 mov	 DWORD PTR tv84[rsp], 1
$LN5@TCStopVolu:

; 1709 : 
; 1710 : 	ObDereferenceObject (Extension->peThread);

  0009b	48 8b 4c 24 58	 mov	 rcx, QWORD PTR Extension$[rsp]
  000a0	48 8b 49 20	 mov	 rcx, QWORD PTR [rcx+32]
  000a4	ff 15 00 00 00
	00		 call	 QWORD PTR __imp_ObfDereferenceObject

; 1711 : 	Extension->peThread = NULL;

  000aa	4c 8b 5c 24 58	 mov	 r11, QWORD PTR Extension$[rsp]
  000af	49 c7 43 20 00
	00 00 00	 mov	 QWORD PTR [r11+32], 0

; 1712 : 
; 1713 : 	Dump ("Thread exited\n");

  000b7	48 8d 0d 00 00
	00 00		 lea	 rcx, OFFSET FLAT:??_C@_0P@OPFPPFJJ@Thread?5exited?6?$AA@FNODOBFM@
  000be	e8 00 00 00 00	 call	 DbgPrint

; 1714 : }

  000c3	48 83 c4 48	 add	 rsp, 72			; 00000048H
  000c7	c3		 ret	 0
TCStopVolumeThread ENDP
_TEXT	ENDS
PUBLIC	TCStopThread
;	COMDAT pdata
pdata	SEGMENT
$pdata$TCStopThread DD imagerel $LN4
	DD	imagerel $LN4+82
	DD	imagerel $unwind$TCStopThread
pdata	ENDS
;	COMDAT xdata
xdata	SEGMENT
$unwind$TCStopThread DD 010e01H
	DD	0620eH
; Function compile flags: /Odtp
xdata	ENDS
;	COMDAT TCStopThread
_TEXT	SEGMENT
kThread$ = 64
wakeUpEvent$ = 72
TCStopThread PROC					; COMDAT

; 1601 : {

$LN4:
  00000	48 89 54 24 10	 mov	 QWORD PTR [rsp+16], rdx
  00005	48 89 4c 24 08	 mov	 QWORD PTR [rsp+8], rcx
  0000a	48 83 ec 38	 sub	 rsp, 56			; 00000038H

; 1602 : 	if (wakeUpEvent)

  0000e	48 83 7c 24 48
	00		 cmp	 QWORD PTR wakeUpEvent$[rsp], 0
  00014	74 10		 je	 SHORT $LN1@TCStopThre

; 1603 : 		KeSetEvent (wakeUpEvent, 0, FALSE);

  00016	45 33 c0	 xor	 r8d, r8d
  00019	33 d2		 xor	 edx, edx
  0001b	48 8b 4c 24 48	 mov	 rcx, QWORD PTR wakeUpEvent$[rsp]
  00020	ff 15 00 00 00
	00		 call	 QWORD PTR __imp_KeSetEvent
$LN1@TCStopThre:

; 1604 : 
; 1605 : 	KeWaitForSingleObject (kThread, Executive, KernelMode, FALSE, NULL);

  00026	48 c7 44 24 20
	00 00 00 00	 mov	 QWORD PTR [rsp+32], 0
  0002f	45 33 c9	 xor	 r9d, r9d
  00032	45 33 c0	 xor	 r8d, r8d
  00035	33 d2		 xor	 edx, edx
  00037	48 8b 4c 24 40	 mov	 rcx, QWORD PTR kThread$[rsp]
  0003c	ff 15 00 00 00
	00		 call	 QWORD PTR __imp_KeWaitForSingleObject

; 1606 : 	ObDereferenceObject (kThread);

  00042	48 8b 4c 24 40	 mov	 rcx, QWORD PTR kThread$[rsp]
  00047	ff 15 00 00 00
	00		 call	 QWORD PTR __imp_ObfDereferenceObject

; 1607 : }

  0004d	48 83 c4 38	 add	 rsp, 56			; 00000038H
  00051	c3		 ret	 0
TCStopThread ENDP
_TEXT	ENDS
PUBLIC	TCStartThreadInProcess
;	COMDAT pdata
pdata	SEGMENT
$pdata$TCStartThreadInProcess DD imagerel $LN8
	DD	imagerel $LN8+403
	DD	imagerel $unwind$TCStartThreadInProcess
pdata	ENDS
;	COMDAT xdata
xdata	SEGMENT
$unwind$TCStartThreadInProcess DD 021b01H
	DD	013011bH
; Function compile flags: /Odtp
xdata	ENDS
;	COMDAT TCStartThreadInProcess
_TEXT	SEGMENT
threadObjAttributes$ = 64
processHandle$ = 112
threadHandle$ = 120
status$ = 128
threadProc$ = 160
threadArg$ = 168
kThread$ = 176
process$ = 184
TCStartThreadInProcess PROC				; COMDAT

; 1565 : {

$LN8:
  00000	4c 89 4c 24 20	 mov	 QWORD PTR [rsp+32], r9
  00005	4c 89 44 24 18	 mov	 QWORD PTR [rsp+24], r8
  0000a	48 89 54 24 10	 mov	 QWORD PTR [rsp+16], rdx
  0000f	48 89 4c 24 08	 mov	 QWORD PTR [rsp+8], rcx
  00014	48 81 ec 98 00
	00 00		 sub	 rsp, 152		; 00000098H

; 1566 : 	NTSTATUS status;
; 1567 : 	HANDLE threadHandle;
; 1568 : 	HANDLE processHandle = NULL;

  0001b	48 c7 44 24 70
	00 00 00 00	 mov	 QWORD PTR processHandle$[rsp], 0

; 1569 : 	OBJECT_ATTRIBUTES threadObjAttributes;
; 1570 : 
; 1571 : 	if (process)

  00024	48 83 bc 24 b8
	00 00 00 00	 cmp	 QWORD PTR process$[rsp], 0
  0002d	74 4e		 je	 SHORT $LN5@TCStartThr

; 1572 : 	{
; 1573 : 		status = ObOpenObjectByPointer (process, OBJ_KERNEL_HANDLE, NULL, 0, NULL, KernelMode, &processHandle);

  0002f	48 8d 44 24 70	 lea	 rax, QWORD PTR processHandle$[rsp]
  00034	48 89 44 24 30	 mov	 QWORD PTR [rsp+48], rax
  00039	c6 44 24 28 00	 mov	 BYTE PTR [rsp+40], 0
  0003e	48 c7 44 24 20
	00 00 00 00	 mov	 QWORD PTR [rsp+32], 0
  00047	45 33 c9	 xor	 r9d, r9d
  0004a	45 33 c0	 xor	 r8d, r8d
  0004d	ba 00 02 00 00	 mov	 edx, 512		; 00000200H
  00052	48 8b 8c 24 b8
	00 00 00	 mov	 rcx, QWORD PTR process$[rsp]
  0005a	ff 15 00 00 00
	00		 call	 QWORD PTR __imp_ObOpenObjectByPointer
  00060	89 84 24 80 00
	00 00		 mov	 DWORD PTR status$[rsp], eax

; 1574 : 		if (!NT_SUCCESS (status))

  00067	83 bc 24 80 00
	00 00 00	 cmp	 DWORD PTR status$[rsp], 0
  0006f	7d 0c		 jge	 SHORT $LN4@TCStartThr

; 1575 : 			return status;

  00071	8b 84 24 80 00
	00 00		 mov	 eax, DWORD PTR status$[rsp]
  00078	e9 0e 01 00 00	 jmp	 $LN6@TCStartThr
$LN4@TCStartThr:
$LN5@TCStartThr:

; 1576 : 	}
; 1577 : 
; 1578 : 	InitializeObjectAttributes (&threadObjAttributes, NULL, OBJ_KERNEL_HANDLE, NULL, NULL);

  0007d	c7 44 24 40 30
	00 00 00	 mov	 DWORD PTR threadObjAttributes$[rsp], 48 ; 00000030H
  00085	48 c7 44 24 48
	00 00 00 00	 mov	 QWORD PTR threadObjAttributes$[rsp+8], 0
  0008e	c7 44 24 58 00
	02 00 00	 mov	 DWORD PTR threadObjAttributes$[rsp+24], 512 ; 00000200H
  00096	48 c7 44 24 50
	00 00 00 00	 mov	 QWORD PTR threadObjAttributes$[rsp+16], 0
  0009f	48 c7 44 24 60
	00 00 00 00	 mov	 QWORD PTR threadObjAttributes$[rsp+32], 0
  000a8	48 c7 44 24 68
	00 00 00 00	 mov	 QWORD PTR threadObjAttributes$[rsp+40], 0

; 1579 : 	
; 1580 : 	status = PsCreateSystemThread (&threadHandle, THREAD_ALL_ACCESS, &threadObjAttributes, processHandle, NULL, threadProc, threadArg);

  000b1	48 8b 84 24 a8
	00 00 00	 mov	 rax, QWORD PTR threadArg$[rsp]
  000b9	48 89 44 24 30	 mov	 QWORD PTR [rsp+48], rax
  000be	48 8b 84 24 a0
	00 00 00	 mov	 rax, QWORD PTR threadProc$[rsp]
  000c6	48 89 44 24 28	 mov	 QWORD PTR [rsp+40], rax
  000cb	48 c7 44 24 20
	00 00 00 00	 mov	 QWORD PTR [rsp+32], 0
  000d4	4c 8b 4c 24 70	 mov	 r9, QWORD PTR processHandle$[rsp]
  000d9	4c 8d 44 24 40	 lea	 r8, QWORD PTR threadObjAttributes$[rsp]
  000de	ba ff 03 1f 00	 mov	 edx, 2032639		; 001f03ffH
  000e3	48 8d 4c 24 78	 lea	 rcx, QWORD PTR threadHandle$[rsp]
  000e8	ff 15 00 00 00
	00		 call	 QWORD PTR __imp_PsCreateSystemThread
  000ee	89 84 24 80 00
	00 00		 mov	 DWORD PTR status$[rsp], eax

; 1581 : 	if (!NT_SUCCESS (status))

  000f5	83 bc 24 80 00
	00 00 00	 cmp	 DWORD PTR status$[rsp], 0
  000fd	7d 0c		 jge	 SHORT $LN3@TCStartThr

; 1582 : 		return status;

  000ff	8b 84 24 80 00
	00 00		 mov	 eax, DWORD PTR status$[rsp]
  00106	e9 80 00 00 00	 jmp	 $LN6@TCStartThr
$LN3@TCStartThr:

; 1583 : 
; 1584 : 	status = ObReferenceObjectByHandle (threadHandle, THREAD_ALL_ACCESS, NULL, KernelMode, (PVOID *) kThread, NULL);

  0010b	48 c7 44 24 28
	00 00 00 00	 mov	 QWORD PTR [rsp+40], 0
  00114	48 8b 84 24 b0
	00 00 00	 mov	 rax, QWORD PTR kThread$[rsp]
  0011c	48 89 44 24 20	 mov	 QWORD PTR [rsp+32], rax
  00121	45 33 c9	 xor	 r9d, r9d
  00124	45 33 c0	 xor	 r8d, r8d
  00127	ba ff 03 1f 00	 mov	 edx, 2032639		; 001f03ffH
  0012c	48 8b 4c 24 78	 mov	 rcx, QWORD PTR threadHandle$[rsp]
  00131	ff 15 00 00 00
	00		 call	 QWORD PTR __imp_ObReferenceObjectByHandle
  00137	89 84 24 80 00
	00 00		 mov	 DWORD PTR status$[rsp], eax

; 1585 : 	if (!NT_SUCCESS (status))

  0013e	83 bc 24 80 00
	00 00 00	 cmp	 DWORD PTR status$[rsp], 0
  00146	7d 23		 jge	 SHORT $LN2@TCStartThr

; 1586 : 	{
; 1587 : 		ZwClose (threadHandle);

  00148	48 8b 4c 24 78	 mov	 rcx, QWORD PTR threadHandle$[rsp]
  0014d	ff 15 00 00 00
	00		 call	 QWORD PTR __imp_ZwClose

; 1588 : 		*kThread = NULL;

  00153	4c 8b 9c 24 b0
	00 00 00	 mov	 r11, QWORD PTR kThread$[rsp]
  0015b	49 c7 03 00 00
	00 00		 mov	 QWORD PTR [r11], 0

; 1589 : 		return status;

  00162	8b 84 24 80 00
	00 00		 mov	 eax, DWORD PTR status$[rsp]
  00169	eb 20		 jmp	 SHORT $LN6@TCStartThr
$LN2@TCStartThr:

; 1590 : 	}
; 1591 : 
; 1592 : 	if (processHandle)

  0016b	48 83 7c 24 70
	00		 cmp	 QWORD PTR processHandle$[rsp], 0
  00171	74 0b		 je	 SHORT $LN1@TCStartThr

; 1593 : 		ZwClose (processHandle);

  00173	48 8b 4c 24 70	 mov	 rcx, QWORD PTR processHandle$[rsp]
  00178	ff 15 00 00 00
	00		 call	 QWORD PTR __imp_ZwClose
$LN1@TCStartThr:

; 1594 : 
; 1595 : 	ZwClose (threadHandle);

  0017e	48 8b 4c 24 78	 mov	 rcx, QWORD PTR threadHandle$[rsp]
  00183	ff 15 00 00 00
	00		 call	 QWORD PTR __imp_ZwClose

; 1596 : 	return STATUS_SUCCESS;

  00189	33 c0		 xor	 eax, eax
$LN6@TCStartThr:

; 1597 : }

  0018b	48 81 c4 98 00
	00 00		 add	 rsp, 152		; 00000098H
  00192	c3		 ret	 0
TCStartThreadInProcess ENDP
_TEXT	ENDS
PUBLIC	TCStartThread
;	COMDAT pdata
pdata	SEGMENT
$pdata$TCStartThread DD imagerel $LN3
	DD	imagerel $LN3+47
	DD	imagerel $unwind$TCStartThread
pdata	ENDS
;	COMDAT xdata
xdata	SEGMENT
$unwind$TCStartThread DD 011301H
	DD	04213H
; Function compile flags: /Odtp
xdata	ENDS
;	COMDAT TCStartThread
_TEXT	SEGMENT
threadProc$ = 48
threadArg$ = 56
kThread$ = 64
TCStartThread PROC					; COMDAT

; 1559 : {

$LN3:
  00000	4c 89 44 24 18	 mov	 QWORD PTR [rsp+24], r8
  00005	48 89 54 24 10	 mov	 QWORD PTR [rsp+16], rdx
  0000a	48 89 4c 24 08	 mov	 QWORD PTR [rsp+8], rcx
  0000f	48 83 ec 28	 sub	 rsp, 40			; 00000028H

; 1560 : 	return TCStartThreadInProcess (threadProc, threadArg, kThread, NULL);

  00013	45 33 c9	 xor	 r9d, r9d
  00016	4c 8b 44 24 40	 mov	 r8, QWORD PTR kThread$[rsp]
  0001b	48 8b 54 24 38	 mov	 rdx, QWORD PTR threadArg$[rsp]
  00020	48 8b 4c 24 30	 mov	 rcx, QWORD PTR threadProc$[rsp]
  00025	e8 00 00 00 00	 call	 TCStartThreadInProcess

; 1561 : }

  0002a	48 83 c4 28	 add	 rsp, 40			; 00000028H
  0002e	c3		 ret	 0
TCStartThread ENDP
_TEXT	ENDS
PUBLIC	RootDeviceControlMutexRelease
RootDeviceControlMutex DB 038H DUP (?)
;	COMDAT pdata
pdata	SEGMENT
$pdata$RootDeviceControlMutexRelease DD imagerel $LN3
	DD	imagerel $LN3+24
	DD	imagerel $unwind$RootDeviceControlMutexRelease
pdata	ENDS
;	COMDAT xdata
xdata	SEGMENT
$unwind$RootDeviceControlMutexRelease DD 010401H
	DD	04204H
; Function compile flags: /Odtp
xdata	ENDS
;	COMDAT RootDeviceControlMutexRelease
_TEXT	SEGMENT
RootDeviceControlMutexRelease PROC			; COMDAT

; 490  : {

$LN3:
  00000	48 83 ec 28	 sub	 rsp, 40			; 00000028H

; 491  : 	KeReleaseMutex (&RootDeviceControlMutex, FALSE);

  00004	33 d2		 xor	 edx, edx
  00006	48 8d 0d 00 00
	00 00		 lea	 rcx, OFFSET FLAT:RootDeviceControlMutex
  0000d	ff 15 00 00 00
	00		 call	 QWORD PTR __imp_KeReleaseMutex

; 492  : }

  00013	48 83 c4 28	 add	 rsp, 40			; 00000028H
  00017	c3		 ret	 0
RootDeviceControlMutexRelease ENDP
_TEXT	ENDS
PUBLIC	RootDeviceControlMutexAcquireNoWait
;	COMDAT pdata
pdata	SEGMENT
$pdata$RootDeviceControlMutexAcquireNoWait DD imagerel $LN5
	DD	imagerel $LN5+92
	DD	imagerel $unwind$RootDeviceControlMutexAcquireNoWait
pdata	ENDS
;	COMDAT xdata
xdata	SEGMENT
$unwind$RootDeviceControlMutexAcquireNoWait DD 010401H
	DD	0a204H
; Function compile flags: /Odtp
xdata	ENDS
;	COMDAT RootDeviceControlMutexAcquireNoWait
_TEXT	SEGMENT
status$ = 48
timeout$ = 56
tv72 = 64
RootDeviceControlMutexAcquireNoWait PROC		; COMDAT

; 479  : {

$LN5:
  00000	48 83 ec 58	 sub	 rsp, 88			; 00000058H

; 480  : 	NTSTATUS status;
; 481  : 	LARGE_INTEGER timeout;
; 482  : 	timeout.QuadPart = 0;

  00004	48 c7 44 24 38
	00 00 00 00	 mov	 QWORD PTR timeout$[rsp], 0

; 483  : 
; 484  : 	status = KeWaitForMutexObject (&RootDeviceControlMutex, Executive, KernelMode, FALSE, &timeout);

  0000d	48 8d 44 24 38	 lea	 rax, QWORD PTR timeout$[rsp]
  00012	48 89 44 24 20	 mov	 QWORD PTR [rsp+32], rax
  00017	45 33 c9	 xor	 r9d, r9d
  0001a	45 33 c0	 xor	 r8d, r8d
  0001d	33 d2		 xor	 edx, edx
  0001f	48 8d 0d 00 00
	00 00		 lea	 rcx, OFFSET FLAT:RootDeviceControlMutex
  00026	ff 15 00 00 00
	00		 call	 QWORD PTR __imp_KeWaitForSingleObject
  0002c	89 44 24 30	 mov	 DWORD PTR status$[rsp], eax

; 485  : 	return NT_SUCCESS (status) && status != STATUS_TIMEOUT;

  00030	83 7c 24 30 00	 cmp	 DWORD PTR status$[rsp], 0
  00035	7c 14		 jl	 SHORT $LN3@RootDevice
  00037	81 7c 24 30 02
	01 00 00	 cmp	 DWORD PTR status$[rsp], 258 ; 00000102H
  0003f	74 0a		 je	 SHORT $LN3@RootDevice
  00041	c7 44 24 40 01
	00 00 00	 mov	 DWORD PTR tv72[rsp], 1
  00049	eb 08		 jmp	 SHORT $LN4@RootDevice
$LN3@RootDevice:
  0004b	c7 44 24 40 00
	00 00 00	 mov	 DWORD PTR tv72[rsp], 0
$LN4@RootDevice:
  00053	8b 44 24 40	 mov	 eax, DWORD PTR tv72[rsp]

; 486  : }

  00057	48 83 c4 58	 add	 rsp, 88			; 00000058H
  0005b	c3		 ret	 0
RootDeviceControlMutexAcquireNoWait ENDP
_TEXT	ENDS
PUBLIC	GetVirtualVolumeDeviceObject
; Function compile flags: /Odtp
;	COMDAT GetVirtualVolumeDeviceObject
_TEXT	SEGMENT
driveNumber$ = 8
GetVirtualVolumeDeviceObject PROC			; COMDAT

; 191  : {

  00000	89 4c 24 08	 mov	 DWORD PTR [rsp+8], ecx

; 192  : 	if (driveNumber < MIN_MOUNTED_VOLUME_DRIVE_NUMBER || driveNumber > MAX_MOUNTED_VOLUME_DRIVE_NUMBER)

  00004	83 7c 24 08 00	 cmp	 DWORD PTR driveNumber$[rsp], 0
  00009	7c 07		 jl	 SHORT $LN1@GetVirtual
  0000b	83 7c 24 08 19	 cmp	 DWORD PTR driveNumber$[rsp], 25
  00010	7e 04		 jle	 SHORT $LN2@GetVirtual
$LN1@GetVirtual:

; 193  : 		return NULL;

  00012	33 c0		 xor	 eax, eax
  00014	eb 10		 jmp	 SHORT $LN3@GetVirtual
$LN2@GetVirtual:

; 194  : 
; 195  : 	return VirtualVolumeDeviceObjects[driveNumber];

  00016	48 63 4c 24 08	 movsxd	 rcx, DWORD PTR driveNumber$[rsp]
  0001b	48 8d 05 00 00
	00 00		 lea	 rax, OFFSET FLAT:VirtualVolumeDeviceObjects
  00022	48 8b 04 c8	 mov	 rax, QWORD PTR [rax+rcx*8]
$LN3@GetVirtual:

; 196  : }

  00026	f3 c3		 fatret	 0
GetVirtualVolumeDeviceObject ENDP
_TEXT	ENDS
PUBLIC	__$ArrayPad$
PUBLIC	DumpMemory
;	COMDAT pdata
pdata	SEGMENT
$pdata$DumpMemory DD imagerel $LN11
	DD	imagerel $LN11+386
	DD	imagerel $unwind$DumpMemory
pdata	ENDS
;	COMDAT xdata
xdata	SEGMENT
$unwind$DumpMemory DD 042419H
	DD	0150112H
	DD	0300a700bH
	DD	imagerel __GSHandlerCheck
	DD	090H
; Function compile flags: /Odtp
xdata	ENDS
;	COMDAT DumpMemory
_TEXT	SEGMENT
i$ = 96
j$ = 100
m$ = 104
str$ = 120
__$ArrayPad$ = 144
mem$ = 192
size$ = 200
DumpMemory PROC						; COMDAT

; 143  : {

$LN11:
  00000	89 54 24 10	 mov	 DWORD PTR [rsp+16], edx
  00004	48 89 4c 24 08	 mov	 QWORD PTR [rsp+8], rcx
  00009	53		 push	 rbx
  0000a	57		 push	 rdi
  0000b	48 81 ec a8 00
	00 00		 sub	 rsp, 168		; 000000a8H
  00012	48 8b 05 00 00
	00 00		 mov	 rax, QWORD PTR __security_cookie
  00019	48 33 c4	 xor	 rax, rsp
  0001c	48 89 84 24 90
	00 00 00	 mov	 QWORD PTR __$ArrayPad$[rsp], rax

; 144  : 	unsigned char str[20];
; 145  : 	unsigned char *m = mem;

  00024	48 8b 84 24 c0
	00 00 00	 mov	 rax, QWORD PTR mem$[rsp]
  0002c	48 89 44 24 68	 mov	 QWORD PTR m$[rsp], rax

; 146  : 	int i,j;
; 147  : 
; 148  : 	for (j = 0; j < size / 8; j++)

  00031	c7 44 24 64 00
	00 00 00	 mov	 DWORD PTR j$[rsp], 0
  00039	eb 0b		 jmp	 SHORT $LN8@DumpMemory
$LN7@DumpMemory:
  0003b	8b 44 24 64	 mov	 eax, DWORD PTR j$[rsp]
  0003f	83 c0 01	 add	 eax, 1
  00042	89 44 24 64	 mov	 DWORD PTR j$[rsp], eax
$LN8@DumpMemory:
  00046	8b 84 24 c8 00
	00 00		 mov	 eax, DWORD PTR size$[rsp]
  0004d	99		 cdq
  0004e	83 e2 07	 and	 edx, 7
  00051	03 c2		 add	 eax, edx
  00053	c1 f8 03	 sar	 eax, 3
  00056	39 44 24 64	 cmp	 DWORD PTR j$[rsp], eax
  0005a	0f 8d 08 01 00
	00		 jge	 $LN6@DumpMemory

; 149  : 	{
; 150  : 		memset (str,0,sizeof str);

  00060	48 8d 7c 24 78	 lea	 rdi, QWORD PTR str$[rsp]
  00065	33 c0		 xor	 eax, eax
  00067	b9 14 00 00 00	 mov	 ecx, 20
  0006c	f3 aa		 rep stosb

; 151  : 		for (i = 0; i < 8; i++) 

  0006e	c7 44 24 60 00
	00 00 00	 mov	 DWORD PTR i$[rsp], 0
  00076	eb 0b		 jmp	 SHORT $LN5@DumpMemory
$LN4@DumpMemory:
  00078	8b 44 24 60	 mov	 eax, DWORD PTR i$[rsp]
  0007c	83 c0 01	 add	 eax, 1
  0007f	89 44 24 60	 mov	 DWORD PTR i$[rsp], eax
$LN5@DumpMemory:
  00083	83 7c 24 60 08	 cmp	 DWORD PTR i$[rsp], 8
  00088	7d 4b		 jge	 SHORT $LN3@DumpMemory

; 152  : 		{
; 153  : 			if (m[i] > ' ' && m[i] <= '~')

  0008a	48 63 4c 24 60	 movsxd	 rcx, DWORD PTR i$[rsp]
  0008f	48 8b 44 24 68	 mov	 rax, QWORD PTR m$[rsp]
  00094	0f b6 04 08	 movzx	 eax, BYTE PTR [rax+rcx]
  00098	83 f8 20	 cmp	 eax, 32			; 00000020H
  0009b	7e 2c		 jle	 SHORT $LN2@DumpMemory
  0009d	48 63 4c 24 60	 movsxd	 rcx, DWORD PTR i$[rsp]
  000a2	48 8b 44 24 68	 mov	 rax, QWORD PTR m$[rsp]
  000a7	0f b6 04 08	 movzx	 eax, BYTE PTR [rax+rcx]
  000ab	83 f8 7e	 cmp	 eax, 126		; 0000007eH
  000ae	7f 19		 jg	 SHORT $LN2@DumpMemory

; 154  : 				str[i]=m[i];

  000b0	48 63 54 24 60	 movsxd	 rdx, DWORD PTR i$[rsp]
  000b5	48 63 4c 24 60	 movsxd	 rcx, DWORD PTR i$[rsp]
  000ba	48 8b 44 24 68	 mov	 rax, QWORD PTR m$[rsp]
  000bf	0f b6 04 10	 movzx	 eax, BYTE PTR [rax+rdx]
  000c3	88 44 0c 78	 mov	 BYTE PTR str$[rsp+rcx], al

; 155  : 			else

  000c7	eb 0a		 jmp	 SHORT $LN1@DumpMemory
$LN2@DumpMemory:

; 156  : 				str[i]='.';

  000c9	48 63 44 24 60	 movsxd	 rax, DWORD PTR i$[rsp]
  000ce	c6 44 04 78 2e	 mov	 BYTE PTR str$[rsp+rax], 46 ; 0000002eH
$LN1@DumpMemory:

; 157  : 		}

  000d3	eb a3		 jmp	 SHORT $LN4@DumpMemory
$LN3@DumpMemory:

; 158  : 
; 159  : 		Dump ("0x%08p  %02x %02x %02x %02x %02x %02x %02x %02x  %s\n",
; 160  : 			m, m[0], m[1], m[2], m[3], m[4], m[5], m[6], m[7], str);

  000d5	48 8b 44 24 68	 mov	 rax, QWORD PTR m$[rsp]
  000da	0f b6 58 07	 movzx	 ebx, BYTE PTR [rax+7]
  000de	48 8b 44 24 68	 mov	 rax, QWORD PTR m$[rsp]
  000e3	44 0f b6 58 06	 movzx	 r11d, BYTE PTR [rax+6]
  000e8	48 8b 44 24 68	 mov	 rax, QWORD PTR m$[rsp]
  000ed	44 0f b6 50 05	 movzx	 r10d, BYTE PTR [rax+5]
  000f2	48 8b 44 24 68	 mov	 rax, QWORD PTR m$[rsp]
  000f7	0f b6 78 04	 movzx	 edi, BYTE PTR [rax+4]
  000fb	48 8b 44 24 68	 mov	 rax, QWORD PTR m$[rsp]
  00100	0f b6 50 03	 movzx	 edx, BYTE PTR [rax+3]
  00104	48 8b 44 24 68	 mov	 rax, QWORD PTR m$[rsp]
  00109	0f b6 48 02	 movzx	 ecx, BYTE PTR [rax+2]
  0010d	48 8b 44 24 68	 mov	 rax, QWORD PTR m$[rsp]
  00112	44 0f b6 48 01	 movzx	 r9d, BYTE PTR [rax+1]
  00117	48 8b 44 24 68	 mov	 rax, QWORD PTR m$[rsp]
  0011c	44 0f b6 00	 movzx	 r8d, BYTE PTR [rax]
  00120	48 8d 44 24 78	 lea	 rax, QWORD PTR str$[rsp]
  00125	48 89 44 24 50	 mov	 QWORD PTR [rsp+80], rax
  0012a	89 5c 24 48	 mov	 DWORD PTR [rsp+72], ebx
  0012e	44 89 5c 24 40	 mov	 DWORD PTR [rsp+64], r11d
  00133	44 89 54 24 38	 mov	 DWORD PTR [rsp+56], r10d
  00138	89 7c 24 30	 mov	 DWORD PTR [rsp+48], edi
  0013c	89 54 24 28	 mov	 DWORD PTR [rsp+40], edx
  00140	89 4c 24 20	 mov	 DWORD PTR [rsp+32], ecx
  00144	48 8b 54 24 68	 mov	 rdx, QWORD PTR m$[rsp]
  00149	48 8d 0d 00 00
	00 00		 lea	 rcx, OFFSET FLAT:??_C@_0DF@IHIBAGEA@0x?$CF08p?5?5?$CF02x?5?$CF02x?5?$CF02x?5?$CF02x?5?$CF02x@FNODOBFM@
  00150	e8 00 00 00 00	 call	 DbgPrint

; 161  : 
; 162  : 		m+=8;

  00155	48 8b 44 24 68	 mov	 rax, QWORD PTR m$[rsp]
  0015a	48 83 c0 08	 add	 rax, 8
  0015e	48 89 44 24 68	 mov	 QWORD PTR m$[rsp], rax

; 163  : 	}

  00163	e9 d3 fe ff ff	 jmp	 $LN7@DumpMemory
$LN6@DumpMemory:

; 164  : }

  00168	48 8b 8c 24 90
	00 00 00	 mov	 rcx, QWORD PTR __$ArrayPad$[rsp]
  00170	48 33 cc	 xor	 rcx, rsp
  00173	e8 00 00 00 00	 call	 __security_check_cookie
  00178	48 81 c4 a8 00
	00 00		 add	 rsp, 168		; 000000a8H
  0017f	5f		 pop	 rdi
  00180	5b		 pop	 rbx
  00181	c3		 ret	 0
DumpMemory ENDP
PUBLIC	ReadRegistryConfigFlags
;	COMDAT pdata
pdata	SEGMENT
$pdata$ReadRegistryConfigFlags DD imagerel $LN13
	DD	imagerel $LN13+307
	DD	imagerel $unwind$ReadRegistryConfigFlags
pdata	ENDS
;	COMDAT xdata
xdata	SEGMENT
$unwind$ReadRegistryConfigFlags DD 010801H
	DD	0a208H
; Function compile flags: /Odtp
xdata	ENDS
;	COMDAT ReadRegistryConfigFlags
_TEXT	SEGMENT
flags$ = 32
name$ = 40
status$ = 56
data$ = 64
tv83 = 72
driverEntry$ = 96
ReadRegistryConfigFlags PROC				; COMDAT

; 3119 : {

$LN13:
  00000	89 4c 24 08	 mov	 DWORD PTR [rsp+8], ecx
  00004	48 83 ec 58	 sub	 rsp, 88			; 00000058H

; 3120 : 	PKEY_VALUE_PARTIAL_INFORMATION data;
; 3121 : 	UNICODE_STRING name;
; 3122 : 	NTSTATUS status;
; 3123 : 	uint32 flags = 0;

  00008	c7 44 24 20 00
	00 00 00	 mov	 DWORD PTR flags$[rsp], 0

; 3124 : 
