; Listing generated by Microsoft (R) Optimizing Compiler Version 15.00.30729.207 

	TITLE	c:\users\public\desktop\projects\ciphershed\src\crypto\serpent.c
	.686P
	.XMM
	include listing.inc
	.model	flat

INCLUDELIB LIBCMT
INCLUDELIB OLDNAMES

PUBLIC	_serpent_set_key@12
; Function compile flags: /Odtp
; File c:\users\public\desktop\projects\ciphershed\src\crypto\serpent.c
;	COMDAT _serpent_set_key@12
_TEXT	SEGMENT
_e$ = -32						; size = 4
_t$ = -28						; size = 4
_c$ = -24						; size = 4
_d$ = -20						; size = 4
_k$ = -16						; size = 4
_b$ = -12						; size = 4
_i$ = -8						; size = 4
_a$ = -4						; size = 4
_userKey$ = 8						; size = 4
_keylen$ = 12						; size = 4
_ks$ = 16						; size = 4
_serpent_set_key@12 PROC				; COMDAT

; 634  : {

  00000	8b ff		 npad	 2
  00002	55		 push	 ebp
  00003	8b ec		 mov	 ebp, esp
  00005	83 ec 20	 sub	 esp, 32			; 00000020H
  00008	56		 push	 esi
  00009	57		 push	 edi

; 635  : 	unsigned __int32 a,b,c,d,e;
; 636  : 	unsigned __int32 *k = (unsigned __int32 *)ks;

  0000a	8b 45 10	 mov	 eax, DWORD PTR _ks$[ebp]
  0000d	89 45 f0	 mov	 DWORD PTR _k$[ebp], eax

; 637  : 	unsigned __int32 t;
; 638  : 	int i;
; 639  : 
; 640  : 	for (i = 0; i < keylen / (int)sizeof(__int32); i++)

  00010	c7 45 f8 00 00
	00 00		 mov	 DWORD PTR _i$[ebp], 0
  00017	eb 09		 jmp	 SHORT $LN10@serpent_se
$LN9@serpent_se:
  00019	8b 4d f8	 mov	 ecx, DWORD PTR _i$[ebp]
  0001c	83 c1 01	 add	 ecx, 1
  0001f	89 4d f8	 mov	 DWORD PTR _i$[ebp], ecx
$LN10@serpent_se:
  00022	8b 45 0c	 mov	 eax, DWORD PTR _keylen$[ebp]
  00025	99		 cdq
  00026	83 e2 03	 and	 edx, 3
  00029	03 c2		 add	 eax, edx
  0002b	c1 f8 02	 sar	 eax, 2
  0002e	39 45 f8	 cmp	 DWORD PTR _i$[ebp], eax
  00031	7d 14		 jge	 SHORT $LN8@serpent_se

; 641  : 		k[i] = LE32(((unsigned __int32*)userKey)[i]);

  00033	8b 55 f8	 mov	 edx, DWORD PTR _i$[ebp]
  00036	8b 45 f0	 mov	 eax, DWORD PTR _k$[ebp]
  00039	8b 4d f8	 mov	 ecx, DWORD PTR _i$[ebp]
  0003c	8b 75 08	 mov	 esi, DWORD PTR _userKey$[ebp]
  0003f	8b 0c 8e	 mov	 ecx, DWORD PTR [esi+ecx*4]
  00042	89 0c 90	 mov	 DWORD PTR [eax+edx*4], ecx
  00045	eb d2		 jmp	 SHORT $LN9@serpent_se
$LN8@serpent_se:

; 642  : 
; 643  : 	if (keylen < 32)

  00047	83 7d 0c 20	 cmp	 DWORD PTR _keylen$[ebp], 32 ; 00000020H
  0004b	7d 3e		 jge	 SHORT $LN7@serpent_se

; 644  : 		k[keylen/4] |= (unsigned __int32)1 << ((keylen%4)*8);

  0004d	8b 45 0c	 mov	 eax, DWORD PTR _keylen$[ebp]
  00050	99		 cdq
  00051	83 e2 03	 and	 edx, 3
  00054	03 c2		 add	 eax, edx
  00056	c1 f8 02	 sar	 eax, 2
  00059	8b 4d 0c	 mov	 ecx, DWORD PTR _keylen$[ebp]
  0005c	81 e1 03 00 00
	80		 and	 ecx, -2147483645	; 80000003H
  00062	79 05		 jns	 SHORT $LN13@serpent_se
  00064	49		 dec	 ecx
  00065	83 c9 fc	 or	 ecx, -4			; fffffffcH
  00068	41		 inc	 ecx
$LN13@serpent_se:
  00069	c1 e1 03	 shl	 ecx, 3
  0006c	be 01 00 00 00	 mov	 esi, 1
  00071	d3 e6		 shl	 esi, cl
  00073	8b 55 f0	 mov	 edx, DWORD PTR _k$[ebp]
  00076	0b 34 82	 or	 esi, DWORD PTR [edx+eax*4]
  00079	8b 45 0c	 mov	 eax, DWORD PTR _keylen$[ebp]
  0007c	99		 cdq
  0007d	83 e2 03	 and	 edx, 3
  00080	03 c2		 add	 eax, edx
  00082	c1 f8 02	 sar	 eax, 2
  00085	8b 4d f0	 mov	 ecx, DWORD PTR _k$[ebp]
  00088	89 34 81	 mov	 DWORD PTR [ecx+eax*4], esi
$LN7@serpent_se:

; 645  : 
; 646  : 	k += 8;

  0008b	8b 55 f0	 mov	 edx, DWORD PTR _k$[ebp]
  0008e	83 c2 20	 add	 edx, 32			; 00000020H
  00091	89 55 f0	 mov	 DWORD PTR _k$[ebp], edx

; 647  : 	t = k[-1];

  00094	8b 45 f0	 mov	 eax, DWORD PTR _k$[ebp]
  00097	8b 48 fc	 mov	 ecx, DWORD PTR [eax-4]
  0009a	89 4d e4	 mov	 DWORD PTR _t$[ebp], ecx

; 648  : 	for (i = 0; i < 132; ++i)

  0009d	c7 45 f8 00 00
	00 00		 mov	 DWORD PTR _i$[ebp], 0
  000a4	eb 09		 jmp	 SHORT $LN6@serpent_se
$LN5@serpent_se:
  000a6	8b 55 f8	 mov	 edx, DWORD PTR _i$[ebp]
  000a9	83 c2 01	 add	 edx, 1
  000ac	89 55 f8	 mov	 DWORD PTR _i$[ebp], edx
$LN6@serpent_se:
  000af	81 7d f8 84 00
	00 00		 cmp	 DWORD PTR _i$[ebp], 132	; 00000084H
  000b6	7d 6c		 jge	 SHORT $LN4@serpent_se

; 649  : 		k[i] = t = rotlFixed(k[i-8] ^ k[i-5] ^ k[i-3] ^ t ^ 0x9e3779b9 ^ i, 11);

  000b8	8b 45 f8	 mov	 eax, DWORD PTR _i$[ebp]
  000bb	8b 4d f0	 mov	 ecx, DWORD PTR _k$[ebp]
  000be	8b 55 f8	 mov	 edx, DWORD PTR _i$[ebp]
  000c1	8b 75 f0	 mov	 esi, DWORD PTR _k$[ebp]
  000c4	8b 44 81 e0	 mov	 eax, DWORD PTR [ecx+eax*4-32]
  000c8	33 44 96 ec	 xor	 eax, DWORD PTR [esi+edx*4-20]
  000cc	8b 4d f8	 mov	 ecx, DWORD PTR _i$[ebp]
  000cf	8b 55 f0	 mov	 edx, DWORD PTR _k$[ebp]
  000d2	33 44 8a f4	 xor	 eax, DWORD PTR [edx+ecx*4-12]
  000d6	33 45 e4	 xor	 eax, DWORD PTR _t$[ebp]
  000d9	35 b9 79 37 9e	 xor	 eax, -1640531527	; 9e3779b9H
  000de	33 45 f8	 xor	 eax, DWORD PTR _i$[ebp]
  000e1	c1 e0 0b	 shl	 eax, 11			; 0000000bH
  000e4	8b 4d f8	 mov	 ecx, DWORD PTR _i$[ebp]
  000e7	8b 55 f0	 mov	 edx, DWORD PTR _k$[ebp]
  000ea	8b 75 f8	 mov	 esi, DWORD PTR _i$[ebp]
  000ed	8b 7d f0	 mov	 edi, DWORD PTR _k$[ebp]
  000f0	8b 4c 8a e0	 mov	 ecx, DWORD PTR [edx+ecx*4-32]
  000f4	33 4c b7 ec	 xor	 ecx, DWORD PTR [edi+esi*4-20]
  000f8	8b 55 f8	 mov	 edx, DWORD PTR _i$[ebp]
  000fb	8b 75 f0	 mov	 esi, DWORD PTR _k$[ebp]
  000fe	33 4c 96 f4	 xor	 ecx, DWORD PTR [esi+edx*4-12]
  00102	33 4d e4	 xor	 ecx, DWORD PTR _t$[ebp]
  00105	81 f1 b9 79 37
	9e		 xor	 ecx, -1640531527	; 9e3779b9H
  0010b	33 4d f8	 xor	 ecx, DWORD PTR _i$[ebp]
  0010e	c1 e9 15	 shr	 ecx, 21			; 00000015H
  00111	0b c1		 or	 eax, ecx
  00113	89 45 e4	 mov	 DWORD PTR _t$[ebp], eax
  00116	8b 45 f8	 mov	 eax, DWORD PTR _i$[ebp]
  00119	8b 4d f0	 mov	 ecx, DWORD PTR _k$[ebp]
  0011c	8b 55 e4	 mov	 edx, DWORD PTR _t$[ebp]
  0011f	89 14 81	 mov	 DWORD PTR [ecx+eax*4], edx
  00122	eb 82		 jmp	 SHORT $LN5@serpent_se
$LN4@serpent_se:

; 650  : 	k -= 20;

  00124	8b 45 f0	 mov	 eax, DWORD PTR _k$[ebp]
  00127	83 e8 50	 sub	 eax, 80			; 00000050H
  0012a	89 45 f0	 mov	 DWORD PTR _k$[ebp], eax

; 651  : 
; 652  : #define LK(r, a, b, c, d, e)	{\
; 653  : 	a = k[(8-r)*4 + 0];		\
; 654  : 	b = k[(8-r)*4 + 1];		\
; 655  : 	c = k[(8-r)*4 + 2];		\
; 656  : 	d = k[(8-r)*4 + 3];}
; 657  : 
; 658  : #define SK(r, a, b, c, d, e)	{\
; 659  : 	k[(8-r)*4 + 4] = a;		\
; 660  : 	k[(8-r)*4 + 5] = b;		\
; 661  : 	k[(8-r)*4 + 6] = c;		\
; 662  : 	k[(8-r)*4 + 7] = d;}	\
; 663  : 
; 664  : 	for (i=0; i<4; i++)

  0012d	c7 45 f8 00 00
	00 00		 mov	 DWORD PTR _i$[ebp], 0
  00134	eb 09		 jmp	 SHORT $LN3@serpent_se
$LN2@serpent_se:
  00136	8b 4d f8	 mov	 ecx, DWORD PTR _i$[ebp]
  00139	83 c1 01	 add	 ecx, 1
  0013c	89 4d f8	 mov	 DWORD PTR _i$[ebp], ecx
$LN3@serpent_se:
  0013f	83 7d f8 04	 cmp	 DWORD PTR _i$[ebp], 4
  00143	0f 8d 74 07 00
	00		 jge	 $LN1@serpent_se

; 665  : 	{
; 666  : 		afterS2(LK); afterS2(S3); afterS3(SK);

  00149	8b 55 f0	 mov	 edx, DWORD PTR _k$[ebp]
  0014c	8b 42 50	 mov	 eax, DWORD PTR [edx+80]
  0014f	89 45 fc	 mov	 DWORD PTR _a$[ebp], eax
  00152	8b 4d f0	 mov	 ecx, DWORD PTR _k$[ebp]
  00155	8b 51 54	 mov	 edx, DWORD PTR [ecx+84]
  00158	89 55 e0	 mov	 DWORD PTR _e$[ebp], edx
  0015b	8b 45 f0	 mov	 eax, DWORD PTR _k$[ebp]
  0015e	8b 48 58	 mov	 ecx, DWORD PTR [eax+88]
  00161	89 4d f4	 mov	 DWORD PTR _b$[ebp], ecx
  00164	8b 55 f0	 mov	 edx, DWORD PTR _k$[ebp]
  00167	8b 42 5c	 mov	 eax, DWORD PTR [edx+92]
  0016a	89 45 ec	 mov	 DWORD PTR _d$[ebp], eax
  0016d	8b 4d fc	 mov	 ecx, DWORD PTR _a$[ebp]
  00170	89 4d e8	 mov	 DWORD PTR _c$[ebp], ecx
  00173	8b 55 fc	 mov	 edx, DWORD PTR _a$[ebp]
  00176	0b 55 ec	 or	 edx, DWORD PTR _d$[ebp]
  00179	89 55 fc	 mov	 DWORD PTR _a$[ebp], edx
  0017c	8b 45 ec	 mov	 eax, DWORD PTR _d$[ebp]
  0017f	33 45 e0	 xor	 eax, DWORD PTR _e$[ebp]
  00182	89 45 ec	 mov	 DWORD PTR _d$[ebp], eax
  00185	8b 4d e0	 mov	 ecx, DWORD PTR _e$[ebp]
  00188	23 4d e8	 and	 ecx, DWORD PTR _c$[ebp]
  0018b	89 4d e0	 mov	 DWORD PTR _e$[ebp], ecx
  0018e	8b 55 e8	 mov	 edx, DWORD PTR _c$[ebp]
  00191	33 55 f4	 xor	 edx, DWORD PTR _b$[ebp]
  00194	89 55 e8	 mov	 DWORD PTR _c$[ebp], edx
  00197	8b 45 f4	 mov	 eax, DWORD PTR _b$[ebp]
  0019a	33 45 ec	 xor	 eax, DWORD PTR _d$[ebp]
  0019d	89 45 f4	 mov	 DWORD PTR _b$[ebp], eax
  001a0	8b 4d ec	 mov	 ecx, DWORD PTR _d$[ebp]
  001a3	23 4d fc	 and	 ecx, DWORD PTR _a$[ebp]
  001a6	89 4d ec	 mov	 DWORD PTR _d$[ebp], ecx
  001a9	8b 55 e8	 mov	 edx, DWORD PTR _c$[ebp]
  001ac	0b 55 e0	 or	 edx, DWORD PTR _e$[ebp]
  001af	89 55 e8	 mov	 DWORD PTR _c$[ebp], edx
  001b2	8b 45 ec	 mov	 eax, DWORD PTR _d$[ebp]
  001b5	33 45 e8	 xor	 eax, DWORD PTR _c$[ebp]
  001b8	89 45 ec	 mov	 DWORD PTR _d$[ebp], eax
  001bb	8b 4d fc	 mov	 ecx, DWORD PTR _a$[ebp]
  001be	33 4d e0	 xor	 ecx, DWORD PTR _e$[ebp]
  001c1	89 4d fc	 mov	 DWORD PTR _a$[ebp], ecx
  001c4	8b 55 e8	 mov	 edx, DWORD PTR _c$[ebp]
  001c7	23 55 fc	 and	 edx, DWORD PTR _a$[ebp]
  001ca	89 55 e8	 mov	 DWORD PTR _c$[ebp], edx
  001cd	8b 45 e0	 mov	 eax, DWORD PTR _e$[ebp]
  001d0	33 45 ec	 xor	 eax, DWORD PTR _d$[ebp]
  001d3	89 45 e0	 mov	 DWORD PTR _e$[ebp], eax
  001d6	8b 4d e8	 mov	 ecx, DWORD PTR _c$[ebp]
  001d9	33 4d f4	 xor	 ecx, DWORD PTR _b$[ebp]
  001dc	89 4d e8	 mov	 DWORD PTR _c$[ebp], ecx
  001df	8b 55 e0	 mov	 edx, DWORD PTR _e$[ebp]
  001e2	0b 55 fc	 or	 edx, DWORD PTR _a$[ebp]
  001e5	89 55 e0	 mov	 DWORD PTR _e$[ebp], edx
  001e8	8b 45 e0	 mov	 eax, DWORD PTR _e$[ebp]
  001eb	33 45 f4	 xor	 eax, DWORD PTR _b$[ebp]
  001ee	89 45 e0	 mov	 DWORD PTR _e$[ebp], eax
  001f1	8b 4d fc	 mov	 ecx, DWORD PTR _a$[ebp]
  001f4	33 4d ec	 xor	 ecx, DWORD PTR _d$[ebp]
  001f7	89 4d fc	 mov	 DWORD PTR _a$[ebp], ecx
  001fa	8b 55 e0	 mov	 edx, DWORD PTR _e$[ebp]
  001fd	89 55 f4	 mov	 DWORD PTR _b$[ebp], edx
  00200	8b 45 e0	 mov	 eax, DWORD PTR _e$[ebp]
  00203	0b 45 ec	 or	 eax, DWORD PTR _d$[ebp]
  00206	89 45 e0	 mov	 DWORD PTR _e$[ebp], eax
  00209	8b 4d e0	 mov	 ecx, DWORD PTR _e$[ebp]
  0020c	33 4d fc	 xor	 ecx, DWORD PTR _a$[ebp]
  0020f	89 4d e0	 mov	 DWORD PTR _e$[ebp], ecx
  00212	8b 55 f0	 mov	 edx, DWORD PTR _k$[ebp]
  00215	8b 45 e0	 mov	 eax, DWORD PTR _e$[ebp]
  00218	89 42 50	 mov	 DWORD PTR [edx+80], eax
  0021b	8b 4d f0	 mov	 ecx, DWORD PTR _k$[ebp]
  0021e	8b 55 f4	 mov	 edx, DWORD PTR _b$[ebp]
  00221	89 51 54	 mov	 DWORD PTR [ecx+84], edx
  00224	8b 45 f0	 mov	 eax, DWORD PTR _k$[ebp]
  00227	8b 4d ec	 mov	 ecx, DWORD PTR _d$[ebp]
  0022a	89 48 58	 mov	 DWORD PTR [eax+88], ecx
  0022d	8b 55 f0	 mov	 edx, DWORD PTR _k$[ebp]
  00230	8b 45 e8	 mov	 eax, DWORD PTR _c$[ebp]
  00233	89 42 5c	 mov	 DWORD PTR [edx+92], eax

; 667  : 		afterS1(LK); afterS1(S2); afterS2(SK);

  00236	8b 4d f0	 mov	 ecx, DWORD PTR _k$[ebp]
  00239	8b 51 60	 mov	 edx, DWORD PTR [ecx+96]
  0023c	89 55 e8	 mov	 DWORD PTR _c$[ebp], edx
  0023f	8b 45 f0	 mov	 eax, DWORD PTR _k$[ebp]
  00242	8b 48 64	 mov	 ecx, DWORD PTR [eax+100]
  00245	89 4d f4	 mov	 DWORD PTR _b$[ebp], ecx
  00248	8b 55 f0	 mov	 edx, DWORD PTR _k$[ebp]
  0024b	8b 42 68	 mov	 eax, DWORD PTR [edx+104]
  0024e	89 45 fc	 mov	 DWORD PTR _a$[ebp], eax
  00251	8b 4d f0	 mov	 ecx, DWORD PTR _k$[ebp]
  00254	8b 51 6c	 mov	 edx, DWORD PTR [ecx+108]
  00257	89 55 e0	 mov	 DWORD PTR _e$[ebp], edx
  0025a	8b 45 e8	 mov	 eax, DWORD PTR _c$[ebp]
  0025d	89 45 ec	 mov	 DWORD PTR _d$[ebp], eax
  00260	8b 4d e8	 mov	 ecx, DWORD PTR _c$[ebp]
  00263	23 4d fc	 and	 ecx, DWORD PTR _a$[ebp]
  00266	89 4d e8	 mov	 DWORD PTR _c$[ebp], ecx
  00269	8b 55 e8	 mov	 edx, DWORD PTR _c$[ebp]
  0026c	33 55 e0	 xor	 edx, DWORD PTR _e$[ebp]
  0026f	89 55 e8	 mov	 DWORD PTR _c$[ebp], edx
  00272	8b 45 fc	 mov	 eax, DWORD PTR _a$[ebp]
  00275	33 45 f4	 xor	 eax, DWORD PTR _b$[ebp]
  00278	89 45 fc	 mov	 DWORD PTR _a$[ebp], eax
  0027b	8b 4d fc	 mov	 ecx, DWORD PTR _a$[ebp]
  0027e	33 4d e8	 xor	 ecx, DWORD PTR _c$[ebp]
  00281	89 4d fc	 mov	 DWORD PTR _a$[ebp], ecx
  00284	8b 55 e0	 mov	 edx, DWORD PTR _e$[ebp]
  00287	0b 55 ec	 or	 edx, DWORD PTR _d$[ebp]
  0028a	89 55 e0	 mov	 DWORD PTR _e$[ebp], edx
  0028d	8b 45 e0	 mov	 eax, DWORD PTR _e$[ebp]
  00290	33 45 f4	 xor	 eax, DWORD PTR _b$[ebp]
  00293	89 45 e0	 mov	 DWORD PTR _e$[ebp], eax
  00296	8b 4d ec	 mov	 ecx, DWORD PTR _d$[ebp]
  00299	33 4d fc	 xor	 ecx, DWORD PTR _a$[ebp]
  0029c	89 4d ec	 mov	 DWORD PTR _d$[ebp], ecx
  0029f	8b 55 e0	 mov	 edx, DWORD PTR _e$[ebp]
  002a2	89 55 f4	 mov	 DWORD PTR _b$[ebp], edx
  002a5	8b 45 e0	 mov	 eax, DWORD PTR _e$[ebp]
  002a8	0b 45 ec	 or	 eax, DWORD PTR _d$[ebp]
  002ab	89 45 e0	 mov	 DWORD PTR _e$[ebp], eax
  002ae	8b 4d e0	 mov	 ecx, DWORD PTR _e$[ebp]
  002b1	33 4d e8	 xor	 ecx, DWORD PTR _c$[ebp]
  002b4	89 4d e0	 mov	 DWORD PTR _e$[ebp], ecx
  002b7	8b 55 e8	 mov	 edx, DWORD PTR _c$[ebp]
  002ba	23 55 f4	 and	 edx, DWORD PTR _b$[ebp]
  002bd	89 55 e8	 mov	 DWORD PTR _c$[ebp], edx
  002c0	8b 45 ec	 mov	 eax, DWORD PTR _d$[ebp]
  002c3	33 45 e8	 xor	 eax, DWORD PTR _c$[ebp]
  002c6	89 45 ec	 mov	 DWORD PTR _d$[ebp], eax
  002c9	8b 4d f4	 mov	 ecx, DWORD PTR _b$[ebp]
  002cc	33 4d e0	 xor	 ecx, DWORD PTR _e$[ebp]
  002cf	89 4d f4	 mov	 DWORD PTR _b$[ebp], ecx
  002d2	8b 55 f4	 mov	 edx, DWORD PTR _b$[ebp]
  002d5	33 55 ec	 xor	 edx, DWORD PTR _d$[ebp]
  002d8	89 55 f4	 mov	 DWORD PTR _b$[ebp], edx
  002db	8b 45 ec	 mov	 eax, DWORD PTR _d$[ebp]
  002de	f7 d0		 not	 eax
  002e0	89 45 ec	 mov	 DWORD PTR _d$[ebp], eax
  002e3	8b 4d f0	 mov	 ecx, DWORD PTR _k$[ebp]
  002e6	8b 55 fc	 mov	 edx, DWORD PTR _a$[ebp]
  002e9	89 51 60	 mov	 DWORD PTR [ecx+96], edx
  002ec	8b 45 f0	 mov	 eax, DWORD PTR _k$[ebp]
  002ef	8b 4d e0	 mov	 ecx, DWORD PTR _e$[ebp]
  002f2	89 48 64	 mov	 DWORD PTR [eax+100], ecx
  002f5	8b 55 f0	 mov	 edx, DWORD PTR _k$[ebp]
  002f8	8b 45 f4	 mov	 eax, DWORD PTR _b$[ebp]
  002fb	89 42 68	 mov	 DWORD PTR [edx+104], eax
  002fe	8b 4d f0	 mov	 ecx, DWORD PTR _k$[ebp]
  00301	8b 55 ec	 mov	 edx, DWORD PTR _d$[ebp]
  00304	89 51 6c	 mov	 DWORD PTR [ecx+108], edx

; 668  : 		afterS0(LK); afterS0(S1); afterS1(SK);

  00307	8b 45 f0	 mov	 eax, DWORD PTR _k$[ebp]
  0030a	8b 48 70	 mov	 ecx, DWORD PTR [eax+112]
  0030d	89 4d f4	 mov	 DWORD PTR _b$[ebp], ecx
  00310	8b 55 f0	 mov	 edx, DWORD PTR _k$[ebp]
  00313	8b 42 74	 mov	 eax, DWORD PTR [edx+116]
  00316	89 45 e0	 mov	 DWORD PTR _e$[ebp], eax
  00319	8b 4d f0	 mov	 ecx, DWORD PTR _k$[ebp]
  0031c	8b 51 78	 mov	 edx, DWORD PTR [ecx+120]
  0031f	89 55 e8	 mov	 DWORD PTR _c$[ebp], edx
  00322	8b 45 f0	 mov	 eax, DWORD PTR _k$[ebp]
  00325	8b 48 7c	 mov	 ecx, DWORD PTR [eax+124]
  00328	89 4d fc	 mov	 DWORD PTR _a$[ebp], ecx
  0032b	8b 55 f4	 mov	 edx, DWORD PTR _b$[ebp]
  0032e	f7 d2		 not	 edx
  00330	89 55 f4	 mov	 DWORD PTR _b$[ebp], edx
  00333	8b 45 e8	 mov	 eax, DWORD PTR _c$[ebp]
  00336	f7 d0		 not	 eax
  00338	89 45 e8	 mov	 DWORD PTR _c$[ebp], eax
  0033b	8b 4d f4	 mov	 ecx, DWORD PTR _b$[ebp]
  0033e	89 4d ec	 mov	 DWORD PTR _d$[ebp], ecx
  00341	8b 55 f4	 mov	 edx, DWORD PTR _b$[ebp]
  00344	23 55 e0	 and	 edx, DWORD PTR _e$[ebp]
  00347	89 55 f4	 mov	 DWORD PTR _b$[ebp], edx
  0034a	8b 45 e8	 mov	 eax, DWORD PTR _c$[ebp]
  0034d	33 45 f4	 xor	 eax, DWORD PTR _b$[ebp]
  00350	89 45 e8	 mov	 DWORD PTR _c$[ebp], eax
  00353	8b 4d f4	 mov	 ecx, DWORD PTR _b$[ebp]
  00356	0b 4d fc	 or	 ecx, DWORD PTR _a$[ebp]
  00359	89 4d f4	 mov	 DWORD PTR _b$[ebp], ecx
  0035c	8b 55 fc	 mov	 edx, DWORD PTR _a$[ebp]
  0035f	33 55 e8	 xor	 edx, DWORD PTR _c$[ebp]
  00362	89 55 fc	 mov	 DWORD PTR _a$[ebp], edx
  00365	8b 45 e0	 mov	 eax, DWORD PTR _e$[ebp]
  00368	33 45 f4	 xor	 eax, DWORD PTR _b$[ebp]
  0036b	89 45 e0	 mov	 DWORD PTR _e$[ebp], eax
  0036e	8b 4d f4	 mov	 ecx, DWORD PTR _b$[ebp]
  00371	33 4d ec	 xor	 ecx, DWORD PTR _d$[ebp]
  00374	89 4d f4	 mov	 DWORD PTR _b$[ebp], ecx
  00377	8b 55 ec	 mov	 edx, DWORD PTR _d$[ebp]
  0037a	0b 55 e0	 or	 edx, DWORD PTR _e$[ebp]
  0037d	89 55 ec	 mov	 DWORD PTR _d$[ebp], edx
  00380	8b 45 e0	 mov	 eax, DWORD PTR _e$[ebp]
  00383	33 45 fc	 xor	 eax, DWORD PTR _a$[ebp]
  00386	89 45 e0	 mov	 DWORD PTR _e$[ebp], eax
  00389	8b 4d e8	 mov	 ecx, DWORD PTR _c$[ebp]
  0038c	0b 4d f4	 or	 ecx, DWORD PTR _b$[ebp]
  0038f	89 4d e8	 mov	 DWORD PTR _c$[ebp], ecx
  00392	8b 55 e8	 mov	 edx, DWORD PTR _c$[ebp]
  00395	23 55 ec	 and	 edx, DWORD PTR _d$[ebp]
  00398	89 55 e8	 mov	 DWORD PTR _c$[ebp], edx
  0039b	8b 45 f4	 mov	 eax, DWORD PTR _b$[ebp]
  0039e	33 45 e0	 xor	 eax, DWORD PTR _e$[ebp]
  003a1	89 45 f4	 mov	 DWORD PTR _b$[ebp], eax
  003a4	8b 4d e0	 mov	 ecx, DWORD PTR _e$[ebp]
  003a7	23 4d e8	 and	 ecx, DWORD PTR _c$[ebp]
  003aa	89 4d e0	 mov	 DWORD PTR _e$[ebp], ecx
  003ad	8b 55 e0	 mov	 edx, DWORD PTR _e$[ebp]
  003b0	33 55 f4	 xor	 edx, DWORD PTR _b$[ebp]
  003b3	89 55 e0	 mov	 DWORD PTR _e$[ebp], edx
  003b6	8b 45 f4	 mov	 eax, DWORD PTR _b$[ebp]
  003b9	23 45 e8	 and	 eax, DWORD PTR _c$[ebp]
  003bc	89 45 f4	 mov	 DWORD PTR _b$[ebp], eax
  003bf	8b 4d f4	 mov	 ecx, DWORD PTR _b$[ebp]
  003c2	33 4d ec	 xor	 ecx, DWORD PTR _d$[ebp]
  003c5	89 4d f4	 mov	 DWORD PTR _b$[ebp], ecx
  003c8	8b 55 f0	 mov	 edx, DWORD PTR _k$[ebp]
  003cb	8b 45 e8	 mov	 eax, DWORD PTR _c$[ebp]
  003ce	89 42 70	 mov	 DWORD PTR [edx+112], eax
  003d1	8b 4d f0	 mov	 ecx, DWORD PTR _k$[ebp]
  003d4	8b 55 f4	 mov	 edx, DWORD PTR _b$[ebp]
  003d7	89 51 74	 mov	 DWORD PTR [ecx+116], edx
  003da	8b 45 f0	 mov	 eax, DWORD PTR _k$[ebp]
  003dd	8b 4d fc	 mov	 ecx, DWORD PTR _a$[ebp]
  003e0	89 48 78	 mov	 DWORD PTR [eax+120], ecx
  003e3	8b 55 f0	 mov	 edx, DWORD PTR _k$[ebp]
  003e6	8b 45 e0	 mov	 eax, DWORD PTR _e$[ebp]
  003e9	89 42 7c	 mov	 DWORD PTR [edx+124], eax

; 669  : 		beforeS0(LK); beforeS0(S0); afterS0(SK);

  003ec	8b 4d f0	 mov	 ecx, DWORD PTR _k$[ebp]
  003ef	8b 91 80 00 00
	00		 mov	 edx, DWORD PTR [ecx+128]
  003f5	89 55 fc	 mov	 DWORD PTR _a$[ebp], edx
  003f8	8b 45 f0	 mov	 eax, DWORD PTR _k$[ebp]
  003fb	8b 88 84 00 00
	00		 mov	 ecx, DWORD PTR [eax+132]
  00401	89 4d f4	 mov	 DWORD PTR _b$[ebp], ecx
  00404	8b 55 f0	 mov	 edx, DWORD PTR _k$[ebp]
  00407	8b 82 88 00 00
	00		 mov	 eax, DWORD PTR [edx+136]
  0040d	89 45 e8	 mov	 DWORD PTR _c$[ebp], eax
  00410	8b 4d f0	 mov	 ecx, DWORD PTR _k$[ebp]
  00413	8b 91 8c 00 00
	00		 mov	 edx, DWORD PTR [ecx+140]
  00419	89 55 ec	 mov	 DWORD PTR _d$[ebp], edx
  0041c	8b 45 ec	 mov	 eax, DWORD PTR _d$[ebp]
  0041f	33 45 fc	 xor	 eax, DWORD PTR _a$[ebp]
  00422	89 45 ec	 mov	 DWORD PTR _d$[ebp], eax
  00425	8b 4d f4	 mov	 ecx, DWORD PTR _b$[ebp]
  00428	89 4d e0	 mov	 DWORD PTR _e$[ebp], ecx
  0042b	8b 55 f4	 mov	 edx, DWORD PTR _b$[ebp]
  0042e	23 55 ec	 and	 edx, DWORD PTR _d$[ebp]
  00431	89 55 f4	 mov	 DWORD PTR _b$[ebp], edx
  00434	8b 45 e0	 mov	 eax, DWORD PTR _e$[ebp]
  00437	33 45 e8	 xor	 eax, DWORD PTR _c$[ebp]
  0043a	89 45 e0	 mov	 DWORD PTR _e$[ebp], eax
  0043d	8b 4d f4	 mov	 ecx, DWORD PTR _b$[ebp]
  00440	33 4d fc	 xor	 ecx, DWORD PTR _a$[ebp]
  00443	89 4d f4	 mov	 DWORD PTR _b$[ebp], ecx
  00446	8b 55 fc	 mov	 edx, DWORD PTR _a$[ebp]
  00449	0b 55 ec	 or	 edx, DWORD PTR _d$[ebp]
  0044c	89 55 fc	 mov	 DWORD PTR _a$[ebp], edx
  0044f	8b 45 fc	 mov	 eax, DWORD PTR _a$[ebp]
  00452	33 45 e0	 xor	 eax, DWORD PTR _e$[ebp]
  00455	89 45 fc	 mov	 DWORD PTR _a$[ebp], eax
  00458	8b 4d e0	 mov	 ecx, DWORD PTR _e$[ebp]
  0045b	33 4d ec	 xor	 ecx, DWORD PTR _d$[ebp]
  0045e	89 4d e0	 mov	 DWORD PTR _e$[ebp], ecx
  00461	8b 55 ec	 mov	 edx, DWORD PTR _d$[ebp]
  00464	33 55 e8	 xor	 edx, DWORD PTR _c$[ebp]
  00467	89 55 ec	 mov	 DWORD PTR _d$[ebp], edx
  0046a	8b 45 e8	 mov	 eax, DWORD PTR _c$[ebp]
  0046d	0b 45 f4	 or	 eax, DWORD PTR _b$[ebp]
  00470	89 45 e8	 mov	 DWORD PTR _c$[ebp], eax
  00473	8b 4d e8	 mov	 ecx, DWORD PTR _c$[ebp]
  00476	33 4d e0	 xor	 ecx, DWORD PTR _e$[ebp]
  00479	89 4d e8	 mov	 DWORD PTR _c$[ebp], ecx
  0047c	8b 55 e0	 mov	 edx, DWORD PTR _e$[ebp]
  0047f	f7 d2		 not	 edx
  00481	89 55 e0	 mov	 DWORD PTR _e$[ebp], edx
  00484	8b 45 e0	 mov	 eax, DWORD PTR _e$[ebp]
  00487	0b 45 f4	 or	 eax, DWORD PTR _b$[ebp]
  0048a	89 45 e0	 mov	 DWORD PTR _e$[ebp], eax
  0048d	8b 4d f4	 mov	 ecx, DWORD PTR _b$[ebp]
  00490	33 4d ec	 xor	 ecx, DWORD PTR _d$[ebp]
  00493	89 4d f4	 mov	 DWORD PTR _b$[ebp], ecx
  00496	8b 55 f4	 mov	 edx, DWORD PTR _b$[ebp]
  00499	33 55 e0	 xor	 edx, DWORD PTR _e$[ebp]
  0049c	89 55 f4	 mov	 DWORD PTR _b$[ebp], edx
  0049f	8b 45 ec	 mov	 eax, DWORD PTR _d$[ebp]
  004a2	0b 45 fc	 or	 eax, DWORD PTR _a$[ebp]
  004a5	89 45 ec	 mov	 DWORD PTR _d$[ebp], eax
  004a8	8b 4d f4	 mov	 ecx, DWORD PTR _b$[ebp]
  004ab	33 4d ec	 xor	 ecx, DWORD PTR _d$[ebp]
  004ae	89 4d f4	 mov	 DWORD PTR _b$[ebp], ecx
  004b1	8b 55 e0	 mov	 edx, DWORD PTR _e$[ebp]
  004b4	33 55 ec	 xor	 edx, DWORD PTR _d$[ebp]
  004b7	89 55 e0	 mov	 DWORD PTR _e$[ebp], edx
  004ba	8b 45 f0	 mov	 eax, DWORD PTR _k$[ebp]
  004bd	8b 4d f4	 mov	 ecx, DWORD PTR _b$[ebp]
  004c0	89 88 80 00 00
	00		 mov	 DWORD PTR [eax+128], ecx
  004c6	8b 55 f0	 mov	 edx, DWORD PTR _k$[ebp]
  004c9	8b 45 e0	 mov	 eax, DWORD PTR _e$[ebp]
  004cc	89 82 84 00 00
	00		 mov	 DWORD PTR [edx+132], eax
  004d2	8b 4d f0	 mov	 ecx, DWORD PTR _k$[ebp]
  004d5	8b 55 e8	 mov	 edx, DWORD PTR _c$[ebp]
  004d8	89 91 88 00 00
	00		 mov	 DWORD PTR [ecx+136], edx
  004de	8b 45 f0	 mov	 eax, DWORD PTR _k$[ebp]
  004e1	8b 4d fc	 mov	 ecx, DWORD PTR _a$[ebp]
  004e4	89 88 8c 00 00
	00		 mov	 DWORD PTR [eax+140], ecx

; 670  : 		k += 8*4;

  004ea	8b 55 f0	 mov	 edx, DWORD PTR _k$[ebp]
  004ed	81 c2 80 00 00
	00		 add	 edx, 128		; 00000080H
  004f3	89 55 f0	 mov	 DWORD PTR _k$[ebp], edx

; 671  : 		afterS6(LK); afterS6(S7); afterS7(SK);

  004f6	8b 45 f0	 mov	 eax, DWORD PTR _k$[ebp]
  004f9	8b 48 10	 mov	 ecx, DWORD PTR [eax+16]
  004fc	89 4d fc	 mov	 DWORD PTR _a$[ebp], ecx
  004ff	8b 55 f0	 mov	 edx, DWORD PTR _k$[ebp]
  00502	8b 42 14	 mov	 eax, DWORD PTR [edx+20]
  00505	89 45 e8	 mov	 DWORD PTR _c$[ebp], eax
  00508	8b 4d f0	 mov	 ecx, DWORD PTR _k$[ebp]
  0050b	8b 51 18	 mov	 edx, DWORD PTR [ecx+24]
  0050e	89 55 ec	 mov	 DWORD PTR _d$[ebp], edx
  00511	8b 45 f0	 mov	 eax, DWORD PTR _k$[ebp]
  00514	8b 48 1c	 mov	 ecx, DWORD PTR [eax+28]
  00517	89 4d f4	 mov	 DWORD PTR _b$[ebp], ecx
  0051a	8b 55 ec	 mov	 edx, DWORD PTR _d$[ebp]
  0051d	89 55 e0	 mov	 DWORD PTR _e$[ebp], edx
  00520	8b 45 ec	 mov	 eax, DWORD PTR _d$[ebp]
  00523	23 45 e8	 and	 eax, DWORD PTR _c$[ebp]
  00526	89 45 ec	 mov	 DWORD PTR _d$[ebp], eax
  00529	8b 4d ec	 mov	 ecx, DWORD PTR _d$[ebp]
  0052c	33 4d f4	 xor	 ecx, DWORD PTR _b$[ebp]
  0052f	89 4d ec	 mov	 DWORD PTR _d$[ebp], ecx
  00532	8b 55 f4	 mov	 edx, DWORD PTR _b$[ebp]
  00535	23 55 e8	 and	 edx, DWORD PTR _c$[ebp]
  00538	89 55 f4	 mov	 DWORD PTR _b$[ebp], edx
  0053b	8b 45 e0	 mov	 eax, DWORD PTR _e$[ebp]
  0053e	33 45 ec	 xor	 eax, DWORD PTR _d$[ebp]
  00541	89 45 e0	 mov	 DWORD PTR _e$[ebp], eax
  00544	8b 4d ec	 mov	 ecx, DWORD PTR _d$[ebp]
  00547	33 4d e8	 xor	 ecx, DWORD PTR _c$[ebp]
  0054a	89 4d ec	 mov	 DWORD PTR _d$[ebp], ecx
  0054d	8b 55 e8	 mov	 edx, DWORD PTR _c$[ebp]
  00550	33 55 fc	 xor	 edx, DWORD PTR _a$[ebp]
  00553	89 55 e8	 mov	 DWORD PTR _c$[ebp], edx
  00556	8b 45 fc	 mov	 eax, DWORD PTR _a$[ebp]
  00559	0b 45 e0	 or	 eax, DWORD PTR _e$[ebp]
  0055c	89 45 fc	 mov	 DWORD PTR _a$[ebp], eax
  0055f	8b 4d fc	 mov	 ecx, DWORD PTR _a$[ebp]
  00562	33 4d ec	 xor	 ecx, DWORD PTR _d$[ebp]
  00565	89 4d fc	 mov	 DWORD PTR _a$[ebp], ecx
  00568	8b 55 f4	 mov	 edx, DWORD PTR _b$[ebp]
  0056b	33 55 e8	 xor	 edx, DWORD PTR _c$[ebp]
  0056e	89 55 f4	 mov	 DWORD PTR _b$[ebp], edx
  00571	8b 45 ec	 mov	 eax, DWORD PTR _d$[ebp]
  00574	33 45 f4	 xor	 eax, DWORD PTR _b$[ebp]
  00577	89 45 ec	 mov	 DWORD PTR _d$[ebp], eax
  0057a	8b 4d f4	 mov	 ecx, DWORD PTR _b$[ebp]
  0057d	23 4d fc	 and	 ecx, DWORD PTR _a$[ebp]
  00580	89 4d f4	 mov	 DWORD PTR _b$[ebp], ecx
  00583	8b 55 f4	 mov	 edx, DWORD PTR _b$[ebp]
  00586	33 55 e0	 xor	 edx, DWORD PTR _e$[ebp]
  00589	89 55 f4	 mov	 DWORD PTR _b$[ebp], edx
  0058c	8b 45 e0	 mov	 eax, DWORD PTR _e$[ebp]
  0058f	33 45 ec	 xor	 eax, DWORD PTR _d$[ebp]
  00592	89 45 e0	 mov	 DWORD PTR _e$[ebp], eax
  00595	8b 4d ec	 mov	 ecx, DWORD PTR _d$[ebp]
  00598	23 4d fc	 and	 ecx, DWORD PTR _a$[ebp]
  0059b	89 4d ec	 mov	 DWORD PTR _d$[ebp], ecx
  0059e	8b 55 e0	 mov	 edx, DWORD PTR _e$[ebp]
  005a1	f7 d2		 not	 edx
  005a3	89 55 e0	 mov	 DWORD PTR _e$[ebp], edx
  005a6	8b 45 ec	 mov	 eax, DWORD PTR _d$[ebp]
  005a9	33 45 e0	 xor	 eax, DWORD PTR _e$[ebp]
  005ac	89 45 ec	 mov	 DWORD PTR _d$[ebp], eax
  005af	8b 4d e0	 mov	 ecx, DWORD PTR _e$[ebp]
  005b2	23 4d fc	 and	 ecx, DWORD PTR _a$[ebp]
  005b5	89 4d e0	 mov	 DWORD PTR _e$[ebp], ecx
  005b8	8b 55 e8	 mov	 edx, DWORD PTR _c$[ebp]
  005bb	33 55 f4	 xor	 edx, DWORD PTR _b$[ebp]
  005be	89 55 e8	 mov	 DWORD PTR _c$[ebp], edx
  005c1	8b 45 e0	 mov	 eax, DWORD PTR _e$[ebp]
  005c4	33 45 e8	 xor	 eax, DWORD PTR _c$[ebp]
  005c7	89 45 e0	 mov	 DWORD PTR _e$[ebp], eax
  005ca	8b 4d f0	 mov	 ecx, DWORD PTR _k$[ebp]
  005cd	8b 55 ec	 mov	 edx, DWORD PTR _d$[ebp]
  005d0	89 51 10	 mov	 DWORD PTR [ecx+16], edx
  005d3	8b 45 f0	 mov	 eax, DWORD PTR _k$[ebp]
  005d6	8b 4d e0	 mov	 ecx, DWORD PTR _e$[ebp]
  005d9	89 48 14	 mov	 DWORD PTR [eax+20], ecx
  005dc	8b 55 f0	 mov	 edx, DWORD PTR _k$[ebp]
  005df	8b 45 f4	 mov	 eax, DWORD PTR _b$[ebp]
  005e2	89 42 18	 mov	 DWORD PTR [edx+24], eax
  005e5	8b 4d f0	 mov	 ecx, DWORD PTR _k$[ebp]
  005e8	8b 55 fc	 mov	 edx, DWORD PTR _a$[ebp]
  005eb	89 51 1c	 mov	 DWORD PTR [ecx+28], edx

; 672  : 		afterS5(LK); afterS5(S6); afterS6(SK);

  005ee	8b 45 f0	 mov	 eax, DWORD PTR _k$[ebp]
  005f1	8b 48 20	 mov	 ecx, DWORD PTR [eax+32]
  005f4	89 4d fc	 mov	 DWORD PTR _a$[ebp], ecx
  005f7	8b 55 f0	 mov	 edx, DWORD PTR _k$[ebp]
  005fa	8b 42 24	 mov	 eax, DWORD PTR [edx+36]
  005fd	89 45 e8	 mov	 DWORD PTR _c$[ebp], eax
  00600	8b 4d f0	 mov	 ecx, DWORD PTR _k$[ebp]
  00603	8b 51 28	 mov	 edx, DWORD PTR [ecx+40]
  00606	89 55 f4	 mov	 DWORD PTR _b$[ebp], edx
  00609	8b 45 f0	 mov	 eax, DWORD PTR _k$[ebp]
  0060c	8b 48 2c	 mov	 ecx, DWORD PTR [eax+44]
  0060f	89 4d e0	 mov	 DWORD PTR _e$[ebp], ecx
  00612	8b 55 f4	 mov	 edx, DWORD PTR _b$[ebp]
  00615	f7 d2		 not	 edx
  00617	89 55 f4	 mov	 DWORD PTR _b$[ebp], edx
  0061a	8b 45 e0	 mov	 eax, DWORD PTR _e$[ebp]
  0061d	89 45 ec	 mov	 DWORD PTR _d$[ebp], eax
  00620	8b 4d e0	 mov	 ecx, DWORD PTR _e$[ebp]
  00623	23 4d fc	 and	 ecx, DWORD PTR _a$[ebp]
  00626	89 4d e0	 mov	 DWORD PTR _e$[ebp], ecx
  00629	8b 55 fc	 mov	 edx, DWORD PTR _a$[ebp]
  0062c	33 55 ec	 xor	 edx, DWORD PTR _d$[ebp]
  0062f	89 55 fc	 mov	 DWORD PTR _a$[ebp], edx
  00632	8b 45 e0	 mov	 eax, DWORD PTR _e$[ebp]
  00635	33 45 f4	 xor	 eax, DWORD PTR _b$[ebp]
  00638	89 45 e0	 mov	 DWORD PTR _e$[ebp], eax
  0063b	8b 4d f4	 mov	 ecx, DWORD PTR _b$[ebp]
  0063e	0b 4d ec	 or	 ecx, DWORD PTR _d$[ebp]
  00641	89 4d f4	 mov	 DWORD PTR _b$[ebp], ecx
  00644	8b 55 e8	 mov	 edx, DWORD PTR _c$[ebp]
  00647	33 55 e0	 xor	 edx, DWORD PTR _e$[ebp]
  0064a	89 55 e8	 mov	 DWORD PTR _c$[ebp], edx
  0064d	8b 45 f4	 mov	 eax, DWORD PTR _b$[ebp]
  00650	33 45 fc	 xor	 eax, DWORD PTR _a$[ebp]
  00653	89 45 f4	 mov	 DWORD PTR _b$[ebp], eax
  00656	8b 4d fc	 mov	 ecx, DWORD PTR _a$[ebp]
  00659	0b 4d e8	 or	 ecx, DWORD PTR _c$[ebp]
  0065c	89 4d fc	 mov	 DWORD PTR _a$[ebp], ecx
  0065f	8b 55 f4	 mov	 edx, DWORD PTR _b$[ebp]
  00662	33 55 e8	 xor	 edx, DWORD PTR _c$[ebp]
  00665	89 55 f4	 mov	 DWORD PTR _b$[ebp], edx
  00668	8b 45 ec	 mov	 eax, DWORD PTR _d$[ebp]
  0066b	33 45 fc	 xor	 eax, DWORD PTR _a$[ebp]
  0066e	89 45 ec	 mov	 DWORD PTR _d$[ebp], eax
  00671	8b 4d fc	 mov	 ecx, DWORD PTR _a$[ebp]
  00674	0b 4d e0	 or	 ecx, DWORD PTR _e$[ebp]
  00677	89 4d fc	 mov	 DWORD PTR _a$[ebp], ecx
  0067a	8b 55 fc	 mov	 edx, DWORD PTR _a$[ebp]
  0067d	33 55 f4	 xor	 edx, DWORD PTR _b$[ebp]
  00680	89 55 fc	 mov	 DWORD PTR _a$[ebp], edx
  00683	8b 45 ec	 mov	 eax, DWORD PTR _d$[ebp]
  00686	33 45 e0	 xor	 eax, DWORD PTR _e$[ebp]
  00689	89 45 ec	 mov	 DWORD PTR _d$[ebp], eax
  0068c	8b 4d ec	 mov	 ecx, DWORD PTR _d$[ebp]
  0068f	33 4d fc	 xor	 ecx, DWORD PTR _a$[ebp]
  00692	89 4d ec	 mov	 DWORD PTR _d$[ebp], ecx
  00695	8b 55 e0	 mov	 edx, DWORD PTR _e$[ebp]
  00698	f7 d2		 not	 edx
  0069a	89 55 e0	 mov	 DWORD PTR _e$[ebp], edx
  0069d	8b 45 f4	 mov	 eax, DWORD PTR _b$[ebp]
  006a0	23 45 ec	 and	 eax, DWORD PTR _d$[ebp]
  006a3	89 45 f4	 mov	 DWORD PTR _b$[ebp], eax
  006a6	8b 4d f4	 mov	 ecx, DWORD PTR _b$[ebp]
  006a9	33 4d e0	 xor	 ecx, DWORD PTR _e$[ebp]
  006ac	89 4d f4	 mov	 DWORD PTR _b$[ebp], ecx
  006af	8b 55 f0	 mov	 edx, DWORD PTR _k$[ebp]
  006b2	8b 45 fc	 mov	 eax, DWORD PTR _a$[ebp]
  006b5	89 42 20	 mov	 DWORD PTR [edx+32], eax
  006b8	8b 4d f0	 mov	 ecx, DWORD PTR _k$[ebp]
  006bb	8b 55 e8	 mov	 edx, DWORD PTR _c$[ebp]
  006be	89 51 24	 mov	 DWORD PTR [ecx+36], edx
  006c1	8b 45 f0	 mov	 eax, DWORD PTR _k$[ebp]
  006c4	8b 4d ec	 mov	 ecx, DWORD PTR _d$[ebp]
  006c7	89 48 28	 mov	 DWORD PTR [eax+40], ecx
  006ca	8b 55 f0	 mov	 edx, DWORD PTR _k$[ebp]
  006cd	8b 45 f4	 mov	 eax, DWORD PTR _b$[ebp]
  006d0	89 42 2c	 mov	 DWORD PTR [edx+44], eax

; 673  : 		afterS4(LK); afterS4(S5); afterS5(SK);

  006d3	8b 4d f0	 mov	 ecx, DWORD PTR _k$[ebp]
  006d6	8b 51 30	 mov	 edx, DWORD PTR [ecx+48]
  006d9	89 55 f4	 mov	 DWORD PTR _b$[ebp], edx
  006dc	8b 45 f0	 mov	 eax, DWORD PTR _k$[ebp]
  006df	8b 48 34	 mov	 ecx, DWORD PTR [eax+52]
  006e2	89 4d fc	 mov	 DWORD PTR _a$[ebp], ecx
  006e5	8b 55 f0	 mov	 edx, DWORD PTR _k$[ebp]
  006e8	8b 42 38	 mov	 eax, DWORD PTR [edx+56]
  006eb	89 45 e0	 mov	 DWORD PTR _e$[ebp], eax
  006ee	8b 4d f0	 mov	 ecx, DWORD PTR _k$[ebp]
  006f1	8b 51 3c	 mov	 edx, DWORD PTR [ecx+60]
  006f4	89 55 e8	 mov	 DWORD PTR _c$[ebp], edx
  006f7	8b 45 f4	 mov	 eax, DWORD PTR _b$[ebp]
  006fa	33 45 fc	 xor	 eax, DWORD PTR _a$[ebp]
  006fd	89 45 f4	 mov	 DWORD PTR _b$[ebp], eax
  00700	8b 4d fc	 mov	 ecx, DWORD PTR _a$[ebp]
  00703	33 4d e8	 xor	 ecx, DWORD PTR _c$[ebp]
  00706	89 4d fc	 mov	 DWORD PTR _a$[ebp], ecx
  00709	8b 55 e8	 mov	 edx, DWORD PTR _c$[ebp]
  0070c	f7 d2		 not	 edx
  0070e	89 55 e8	 mov	 DWORD PTR _c$[ebp], edx
  00711	8b 45 fc	 mov	 eax, DWORD PTR _a$[ebp]
  00714	89 45 ec	 mov	 DWORD PTR _d$[ebp], eax
  00717	8b 4d fc	 mov	 ecx, DWORD PTR _a$[ebp]
  0071a	23 4d f4	 and	 ecx, DWORD PTR _b$[ebp]
  0071d	89 4d fc	 mov	 DWORD PTR _a$[ebp], ecx
  00720	8b 55 e0	 mov	 edx, DWORD PTR _e$[ebp]
  00723	33 55 e8	 xor	 edx, DWORD PTR _c$[ebp]
  00726	89 55 e0	 mov	 DWORD PTR _e$[ebp], edx
  00729	8b 45 fc	 mov	 eax, DWORD PTR _a$[ebp]
  0072c	33 45 e0	 xor	 eax, DWORD PTR _e$[ebp]
  0072f	89 45 fc	 mov	 DWORD PTR _a$[ebp], eax
  00732	8b 4d e0	 mov	 ecx, DWORD PTR _e$[ebp]
  00735	0b 4d ec	 or	 ecx, DWORD PTR _d$[ebp]
  00738	89 4d e0	 mov	 DWORD PTR _e$[ebp], ecx
  0073b	8b 55 ec	 mov	 edx, DWORD PTR _d$[ebp]
  0073e	33 55 e8	 xor	 edx, DWORD PTR _c$[ebp]
  00741	89 55 ec	 mov	 DWORD PTR _d$[ebp], edx
  00744	8b 45 e8	 mov	 eax, DWORD PTR _c$[ebp]
  00747	23 45 fc	 and	 eax, DWORD PTR _a$[ebp]
  0074a	89 45 e8	 mov	 DWORD PTR _c$[ebp], eax
  0074d	8b 4d e8	 mov	 ecx, DWORD PTR _c$[ebp]
  00750	33 4d f4	 xor	 ecx, DWORD PTR _b$[ebp]
  00753	89 4d e8	 mov	 DWORD PTR _c$[ebp], ecx
  00756	8b 55 ec	 mov	 edx, DWORD PTR _d$[ebp]
  00759	33 55 fc	 xor	 edx, DWORD PTR _a$[ebp]
  0075c	89 55 ec	 mov	 DWORD PTR _d$[ebp], edx
  0075f	8b 45 ec	 mov	 eax, DWORD PTR _d$[ebp]
  00762	33 45 e0	 xor	 eax, DWORD PTR _e$[ebp]
  00765	89 45 ec	 mov	 DWORD PTR _d$[ebp], eax
  00768	8b 4d e0	 mov	 ecx, DWORD PTR _e$[ebp]
  0076b	33 4d f4	 xor	 ecx, DWORD PTR _b$[ebp]
  0076e	89 4d e0	 mov	 DWORD PTR _e$[ebp], ecx
  00771	8b 55 f4	 mov	 edx, DWORD PTR _b$[ebp]
  00774	23 55 e8	 and	 edx, DWORD PTR _c$[ebp]
  00777	89 55 f4	 mov	 DWORD PTR _b$[ebp], edx
  0077a	8b 45 e0	 mov	 eax, DWORD PTR _e$[ebp]
  0077d	f7 d0		 not	 eax
  0077f	89 45 e0	 mov	 DWORD PTR _e$[ebp], eax
  00782	8b 4d f4	 mov	 ecx, DWORD PTR _b$[ebp]
  00785	33 4d ec	 xor	 ecx, DWORD PTR _d$[ebp]
  00788	89 4d f4	 mov	 DWORD PTR _b$[ebp], ecx
  0078b	8b 55 ec	 mov	 edx, DWORD PTR _d$[ebp]
  0078e	0b 55 e8	 or	 edx, DWORD PTR _c$[ebp]
  00791	89 55 ec	 mov	 DWORD PTR _d$[ebp], edx
  00794	8b 45 e0	 mov	 eax, DWORD PTR _e$[ebp]
  00797	33 45 ec	 xor	 eax, DWORD PTR _d$[ebp]
  0079a	89 45 e0	 mov	 DWORD PTR _e$[ebp], eax
  0079d	8b 4d f0	 mov	 ecx, DWORD PTR _k$[ebp]
  007a0	8b 55 fc	 mov	 edx, DWORD PTR _a$[ebp]
  007a3	89 51 30	 mov	 DWORD PTR [ecx+48], edx
  007a6	8b 45 f0	 mov	 eax, DWORD PTR _k$[ebp]
  007a9	8b 4d e8	 mov	 ecx, DWORD PTR _c$[ebp]
  007ac	89 48 34	 mov	 DWORD PTR [eax+52], ecx
  007af	8b 55 f0	 mov	 edx, DWORD PTR _k$[ebp]
  007b2	8b 45 f4	 mov	 eax, DWORD PTR _b$[ebp]
  007b5	89 42 38	 mov	 DWORD PTR [edx+56], eax
  007b8	8b 4d f0	 mov	 ecx, DWORD PTR _k$[ebp]
  007bb	8b 55 e0	 mov	 edx, DWORD PTR _e$[ebp]
  007be	89 51 3c	 mov	 DWORD PTR [ecx+60], edx

; 674  : 		afterS3(LK); afterS3(S4); afterS4(SK);

  007c1	8b 45 f0	 mov	 eax, DWORD PTR _k$[ebp]
  007c4	8b 48 40	 mov	 ecx, DWORD PTR [eax+64]
  007c7	89 4d e0	 mov	 DWORD PTR _e$[ebp], ecx
  007ca	8b 55 f0	 mov	 edx, DWORD PTR _k$[ebp]
  007cd	8b 42 44	 mov	 eax, DWORD PTR [edx+68]
  007d0	89 45 f4	 mov	 DWORD PTR _b$[ebp], eax
  007d3	8b 4d f0	 mov	 ecx, DWORD PTR _k$[ebp]
  007d6	8b 51 48	 mov	 edx, DWORD PTR [ecx+72]
  007d9	89 55 ec	 mov	 DWORD PTR _d$[ebp], edx
  007dc	8b 45 f0	 mov	 eax, DWORD PTR _k$[ebp]
  007df	8b 48 4c	 mov	 ecx, DWORD PTR [eax+76]
  007e2	89 4d e8	 mov	 DWORD PTR _c$[ebp], ecx
  007e5	8b 55 f4	 mov	 edx, DWORD PTR _b$[ebp]
  007e8	33 55 e8	 xor	 edx, DWORD PTR _c$[ebp]
  007eb	89 55 f4	 mov	 DWORD PTR _b$[ebp], edx
  007ee	8b 45 e8	 mov	 eax, DWORD PTR _c$[ebp]
  007f1	f7 d0		 not	 eax
  007f3	89 45 e8	 mov	 DWORD PTR _c$[ebp], eax
  007f6	8b 4d ec	 mov	 ecx, DWORD PTR _d$[ebp]
  007f9	33 4d e8	 xor	 ecx, DWORD PTR _c$[ebp]
  007fc	89 4d ec	 mov	 DWORD PTR _d$[ebp], ecx
  007ff	8b 55 e8	 mov	 edx, DWORD PTR _c$[ebp]
  00802	33 55 e0	 xor	 edx, DWORD PTR _e$[ebp]
  00805	89 55 e8	 mov	 DWORD PTR _c$[ebp], edx
  00808	8b 45 f4	 mov	 eax, DWORD PTR _b$[ebp]
  0080b	89 45 fc	 mov	 DWORD PTR _a$[ebp], eax
  0080e	8b 4d f4	 mov	 ecx, DWORD PTR _b$[ebp]
  00811	23 4d e8	 and	 ecx, DWORD PTR _c$[ebp]
  00814	89 4d f4	 mov	 DWORD PTR _b$[ebp], ecx
  00817	8b 55 f4	 mov	 edx, DWORD PTR _b$[ebp]
  0081a	33 55 ec	 xor	 edx, DWORD PTR _d$[ebp]
  0081d	89 55 f4	 mov	 DWORD PTR _b$[ebp], edx
  00820	8b 45 fc	 mov	 eax, DWORD PTR _a$[ebp]
  00823	33 45 e8	 xor	 eax, DWORD PTR _c$[ebp]
  00826	89 45 fc	 mov	 DWORD PTR _a$[ebp], eax
  00829	8b 4d e0	 mov	 ecx, DWORD PTR _e$[ebp]
  0082c	33 4d fc	 xor	 ecx, DWORD PTR _a$[ebp]
  0082f	89 4d e0	 mov	 DWORD PTR _e$[ebp], ecx
  00832	8b 55 ec	 mov	 edx, DWORD PTR _d$[ebp]
  00835	23 55 fc	 and	 edx, DWORD PTR _a$[ebp]
  00838	89 55 ec	 mov	 DWORD PTR _d$[ebp], edx
  0083b	8b 45 ec	 mov	 eax, DWORD PTR _d$[ebp]
  0083e	33 45 e0	 xor	 eax, DWORD PTR _e$[ebp]
  00841	89 45 ec	 mov	 DWORD PTR _d$[ebp], eax
  00844	8b 4d e0	 mov	 ecx, DWORD PTR _e$[ebp]
  00847	23 4d f4	 and	 ecx, DWORD PTR _b$[ebp]
  0084a	89 4d e0	 mov	 DWORD PTR _e$[ebp], ecx
  0084d	8b 55 e8	 mov	 edx, DWORD PTR _c$[ebp]
  00850	33 55 e0	 xor	 edx, DWORD PTR _e$[ebp]
  00853	89 55 e8	 mov	 DWORD PTR _c$[ebp], edx
  00856	8b 45 fc	 mov	 eax, DWORD PTR _a$[ebp]
  00859	0b 45 f4	 or	 eax, DWORD PTR _b$[ebp]
  0085c	89 45 fc	 mov	 DWORD PTR _a$[ebp], eax
  0085f	8b 4d fc	 mov	 ecx, DWORD PTR _a$[ebp]
  00862	33 4d e0	 xor	 ecx, DWORD PTR _e$[ebp]
  00865	89 4d fc	 mov	 DWORD PTR _a$[ebp], ecx
  00868	8b 55 e0	 mov	 edx, DWORD PTR _e$[ebp]
  0086b	0b 55 e8	 or	 edx, DWORD PTR _c$[ebp]
  0086e	89 55 e0	 mov	 DWORD PTR _e$[ebp], edx
  00871	8b 45 e0	 mov	 eax, DWORD PTR _e$[ebp]
  00874	33 45 ec	 xor	 eax, DWORD PTR _d$[ebp]
  00877	89 45 e0	 mov	 DWORD PTR _e$[ebp], eax
  0087a	8b 4d ec	 mov	 ecx, DWORD PTR _d$[ebp]
  0087d	23 4d e8	 and	 ecx, DWORD PTR _c$[ebp]
  00880	89 4d ec	 mov	 DWORD PTR _d$[ebp], ecx
  00883	8b 55 e0	 mov	 edx, DWORD PTR _e$[ebp]
  00886	f7 d2		 not	 edx
  00888	89 55 e0	 mov	 DWORD PTR _e$[ebp], edx
  0088b	8b 45 fc	 mov	 eax, DWORD PTR _a$[ebp]
  0088e	33 45 ec	 xor	 eax, DWORD PTR _d$[ebp]
  00891	89 45 fc	 mov	 DWORD PTR _a$[ebp], eax
  00894	8b 4d f0	 mov	 ecx, DWORD PTR _k$[ebp]
  00897	8b 55 f4	 mov	 edx, DWORD PTR _b$[ebp]
  0089a	89 51 40	 mov	 DWORD PTR [ecx+64], edx
  0089d	8b 45 f0	 mov	 eax, DWORD PTR _k$[ebp]
  008a0	8b 4d fc	 mov	 ecx, DWORD PTR _a$[ebp]
  008a3	89 48 44	 mov	 DWORD PTR [eax+68], ecx
  008a6	8b 55 f0	 mov	 edx, DWORD PTR _k$[ebp]
  008a9	8b 45 e0	 mov	 eax, DWORD PTR _e$[ebp]
  008ac	89 42 48	 mov	 DWORD PTR [edx+72], eax
  008af	8b 4d f0	 mov	 ecx, DWORD PTR _k$[ebp]
  008b2	8b 55 e8	 mov	 edx, DWORD PTR _c$[ebp]
  008b5	89 51 4c	 mov	 DWORD PTR [ecx+76], edx

; 675  : 	}

  008b8	e9 79 f8 ff ff	 jmp	 $LN2@serpent_se
$LN1@serpent_se:

; 676  : 	afterS2(LK); afterS2(S3); afterS3(SK);

  008bd	8b 45 f0	 mov	 eax, DWORD PTR _k$[ebp]
  008c0	8b 48 50	 mov	 ecx, DWORD PTR [eax+80]
  008c3	89 4d fc	 mov	 DWORD PTR _a$[ebp], ecx
  008c6	8b 55 f0	 mov	 edx, DWORD PTR _k$[ebp]
  008c9	8b 42 54	 mov	 eax, DWORD PTR [edx+84]
  008cc	89 45 e0	 mov	 DWORD PTR _e$[ebp], eax
  008cf	8b 4d f0	 mov	 ecx, DWORD PTR _k$[ebp]
  008d2	8b 51 58	 mov	 edx, DWORD PTR [ecx+88]
  008d5	89 55 f4	 mov	 DWORD PTR _b$[ebp], edx
  008d8	8b 45 f0	 mov	 eax, DWORD PTR _k$[ebp]
  008db	8b 48 5c	 mov	 ecx, DWORD PTR [eax+92]
  008de	89 4d ec	 mov	 DWORD PTR _d$[ebp], ecx
  008e1	8b 55 fc	 mov	 edx, DWORD PTR _a$[ebp]
  008e4	89 55 e8	 mov	 DWORD PTR _c$[ebp], edx
  008e7	8b 45 fc	 mov	 eax, DWORD PTR _a$[ebp]
  008ea	0b 45 ec	 or	 eax, DWORD PTR _d$[ebp]
  008ed	89 45 fc	 mov	 DWORD PTR _a$[ebp], eax
  008f0	8b 4d ec	 mov	 ecx, DWORD PTR _d$[ebp]
  008f3	33 4d e0	 xor	 ecx, DWORD PTR _e$[ebp]
  008f6	89 4d ec	 mov	 DWORD PTR _d$[ebp], ecx
  008f9	8b 55 e0	 mov	 edx, DWORD PTR _e$[ebp]
  008fc	23 55 e8	 and	 edx, DWORD PTR _c$[ebp]
  008ff	89 55 e0	 mov	 DWORD PTR _e$[ebp], edx
  00902	8b 45 e8	 mov	 eax, DWORD PTR _c$[ebp]
  00905	33 45 f4	 xor	 eax, DWORD PTR _b$[ebp]
  00908	89 45 e8	 mov	 DWORD PTR _c$[ebp], eax
  0090b	8b 4d f4	 mov	 ecx, DWORD PTR _b$[ebp]
  0090e	33 4d ec	 xor	 ecx, DWORD PTR _d$[ebp]
  00911	89 4d f4	 mov	 DWORD PTR _b$[ebp], ecx
  00914	8b 55 ec	 mov	 edx, DWORD PTR _d$[ebp]
  00917	23 55 fc	 and	 edx, DWORD PTR _a$[ebp]
  0091a	89 55 ec	 mov	 DWORD PTR _d$[ebp], edx
  0091d	8b 45 e8	 mov	 eax, DWORD PTR _c$[ebp]
  00920	0b 45 e0	 or	 eax, DWORD PTR _e$[ebp]
  00923	89 45 e8	 mov	 DWORD PTR _c$[ebp], eax
  00926	8b 4d ec	 mov	 ecx, DWORD PTR _d$[ebp]
  00929	33 4d e8	 xor	 ecx, DWORD PTR _c$[ebp]
  0092c	89 4d ec	 mov	 DWORD PTR _d$[ebp], ecx
  0092f	8b 55 fc	 mov	 edx, DWORD PTR _a$[ebp]
  00932	33 55 e0	 xor	 edx, DWORD PTR _e$[ebp]
  00935	89 55 fc	 mov	 DWORD PTR _a$[ebp], edx
  00938	8b 45 e8	 mov	 eax, DWORD PTR _c$[ebp]
  0093b	23 45 fc	 and	 eax, DWORD PTR _a$[ebp]
  0093e	89 45 e8	 mov	 DWORD PTR _c$[ebp], eax
  00941	8b 4d e0	 mov	 ecx, DWORD PTR _e$[ebp]
  00944	33 4d ec	 xor	 ecx, DWORD PTR _d$[ebp]
  00947	89 4d e0	 mov	 DWORD PTR _e$[ebp], ecx
  0094a	8b 55 e8	 mov	 edx, DWORD PTR _c$[ebp]
  0094d	33 55 f4	 xor	 edx, DWORD PTR _b$[ebp]
  00950	89 55 e8	 mov	 DWORD PTR _c$[ebp], edx
  00953	8b 45 e0	 mov	 eax, DWORD PTR _e$[ebp]
  00956	0b 45 fc	 or	 eax, DWORD PTR _a$[ebp]
  00959	89 45 e0	 mov	 DWORD PTR _e$[ebp], eax
  0095c	8b 4d e0	 mov	 ecx, DWORD PTR _e$[ebp]
  0095f	33 4d f4	 xor	 ecx, DWORD PTR _b$[ebp]
  00962	89 4d e0	 mov	 DWORD PTR _e$[ebp], ecx
  00965	8b 55 fc	 mov	 edx, DWORD PTR _a$[ebp]
  00968	33 55 ec	 xor	 edx, DWORD PTR _d$[ebp]
  0096b	89 55 fc	 mov	 DWORD PTR _a$[ebp], edx
  0096e	8b 45 e0	 mov	 eax, DWORD PTR _e$[ebp]
  00971	89 45 f4	 mov	 DWORD PTR _b$[ebp], eax
  00974	8b 4d e0	 mov	 ecx, DWORD PTR _e$[ebp]
  00977	0b 4d ec	 or	 ecx, DWORD PTR _d$[ebp]
  0097a	89 4d e0	 mov	 DWORD PTR _e$[ebp], ecx
  0097d	8b 55 e0	 mov	 edx, DWORD PTR _e$[ebp]
  00980	33 55 fc	 xor	 edx, DWORD PTR _a$[ebp]
  00983	89 55 e0	 mov	 DWORD PTR _e$[ebp], edx
  00986	8b 45 f0	 mov	 eax, DWORD PTR _k$[ebp]
  00989	8b 4d e0	 mov	 ecx, DWORD PTR _e$[ebp]
  0098c	89 48 50	 mov	 DWORD PTR [eax+80], ecx
  0098f	8b 55 f0	 mov	 edx, DWORD PTR _k$[ebp]
  00992	8b 45 f4	 mov	 eax, DWORD PTR _b$[ebp]
  00995	89 42 54	 mov	 DWORD PTR [edx+84], eax
  00998	8b 4d f0	 mov	 ecx, DWORD PTR _k$[ebp]
  0099b	8b 55 ec	 mov	 edx, DWORD PTR _d$[ebp]
  0099e	89 51 58	 mov	 DWORD PTR [ecx+88], edx
  009a1	8b 45 f0	 mov	 eax, DWORD PTR _k$[ebp]
  009a4	8b 4d e8	 mov	 ecx, DWORD PTR _c$[ebp]
  009a7	89 48 5c	 mov	 DWORD PTR [eax+92], ecx

; 677  : }

  009aa	5f		 pop	 edi
  009ab	5e		 pop	 esi
  009ac	8b e5		 mov	 esp, ebp
  009ae	5d		 pop	 ebp
  009af	c2 0c 00	 ret	 12			; 0000000cH
_serpent_set_key@12 ENDP
_TEXT	ENDS
PUBLIC	_serpent_encrypt@12
; Function compile flags: /Odtp
;	COMDAT _serpent_encrypt@12
_TEXT	SEGMENT
_e$ = -36						; size = 4
_out$ = -32						; size = 4
_c$ = -28						; size = 4
_d$ = -24						; size = 4
_k$ = -20						; size = 4
_b$ = -16						; size = 4
_in$ = -12						; size = 4
_i$ = -8						; size = 4
_a$ = -4						; size = 4
_inBlock$ = 8						; size = 4
_outBlock$ = 12						; size = 4
_ks$ = 16						; size = 4
_serpent_encrypt@12 PROC				; COMDAT

; 737  : {

  00000	8b ff		 npad	 2
  00002	55		 push	 ebp
  00003	8b ec		 mov	 ebp, esp
  00005	83 ec 24	 sub	 esp, 36			; 00000024H

; 738  : 	unsigned __int32 a, b, c, d, e;
; 739  : 	unsigned int i=1;

  00008	c7 45 f8 01 00
	00 00		 mov	 DWORD PTR _i$[ebp], 1

; 740  : 	const unsigned __int32 *k = (unsigned __int32 *)ks + 8;

  0000f	8b 45 10	 mov	 eax, DWORD PTR _ks$[ebp]
  00012	83 c0 20	 add	 eax, 32			; 00000020H
  00015	89 45 ec	 mov	 DWORD PTR _k$[ebp], eax

; 741  : 	unsigned __int32 *in = (unsigned __int32 *) inBlock;

  00018	8b 4d 08	 mov	 ecx, DWORD PTR _inBlock$[ebp]
  0001b	89 4d f4	 mov	 DWORD PTR _in$[ebp], ecx

; 742  : 	unsigned __int32 *out = (unsigned __int32 *) outBlock;

  0001e	8b 55 0c	 mov	 edx, DWORD PTR _outBlock$[ebp]
  00021	89 55 e0	 mov	 DWORD PTR _out$[ebp], edx

; 743  : 
; 744  :     a = LE32(in[0]);

  00024	8b 45 f4	 mov	 eax, DWORD PTR _in$[ebp]
  00027	8b 08		 mov	 ecx, DWORD PTR [eax]
  00029	89 4d fc	 mov	 DWORD PTR _a$[ebp], ecx

; 745  : 	b = LE32(in[1]);

  0002c	8b 55 f4	 mov	 edx, DWORD PTR _in$[ebp]
  0002f	8b 42 04	 mov	 eax, DWORD PTR [edx+4]
  00032	89 45 f0	 mov	 DWORD PTR _b$[ebp], eax

; 746  : 	c = LE32(in[2]);

  00035	8b 4d f4	 mov	 ecx, DWORD PTR _in$[ebp]
  00038	8b 51 08	 mov	 edx, DWORD PTR [ecx+8]
  0003b	89 55 e4	 mov	 DWORD PTR _c$[ebp], edx

; 747  : 	d = LE32(in[3]);

  0003e	8b 45 f4	 mov	 eax, DWORD PTR _in$[ebp]
  00041	8b 48 0c	 mov	 ecx, DWORD PTR [eax+12]
  00044	89 4d e8	 mov	 DWORD PTR _d$[ebp], ecx
$LN4@serpent_en:

; 748  : 
; 749  : 	do
; 750  : 	{
; 751  : 		beforeS0(KX); beforeS0(S0); afterS0(LT);

  00047	8b 55 ec	 mov	 edx, DWORD PTR _k$[ebp]
  0004a	8b 45 fc	 mov	 eax, DWORD PTR _a$[ebp]
  0004d	33 02		 xor	 eax, DWORD PTR [edx]
  0004f	89 45 fc	 mov	 DWORD PTR _a$[ebp], eax
  00052	8b 4d ec	 mov	 ecx, DWORD PTR _k$[ebp]
  00055	8b 55 f0	 mov	 edx, DWORD PTR _b$[ebp]
  00058	33 51 04	 xor	 edx, DWORD PTR [ecx+4]
  0005b	89 55 f0	 mov	 DWORD PTR _b$[ebp], edx
  0005e	8b 45 ec	 mov	 eax, DWORD PTR _k$[ebp]
  00061	8b 4d e4	 mov	 ecx, DWORD PTR _c$[ebp]
  00064	33 48 08	 xor	 ecx, DWORD PTR [eax+8]
  00067	89 4d e4	 mov	 DWORD PTR _c$[ebp], ecx
  0006a	8b 55 ec	 mov	 edx, DWORD PTR _k$[ebp]
  0006d	8b 45 e8	 mov	 eax, DWORD PTR _d$[ebp]
  00070	33 42 0c	 xor	 eax, DWORD PTR [edx+12]
  00073	89 45 e8	 mov	 DWORD PTR _d$[ebp], eax
  00076	8b 4d e8	 mov	 ecx, DWORD PTR _d$[ebp]
  00079	33 4d fc	 xor	 ecx, DWORD PTR _a$[ebp]
  0007c	89 4d e8	 mov	 DWORD PTR _d$[ebp], ecx
  0007f	8b 55 f0	 mov	 edx, DWORD PTR _b$[ebp]
  00082	89 55 dc	 mov	 DWORD PTR _e$[ebp], edx
  00085	8b 45 f0	 mov	 eax, DWORD PTR _b$[ebp]
  00088	23 45 e8	 and	 eax, DWORD PTR _d$[ebp]
  0008b	89 45 f0	 mov	 DWORD PTR _b$[ebp], eax
  0008e	8b 4d dc	 mov	 ecx, DWORD PTR _e$[ebp]
  00091	33 4d e4	 xor	 ecx, DWORD PTR _c$[ebp]
  00094	89 4d dc	 mov	 DWORD PTR _e$[ebp], ecx
  00097	8b 55 f0	 mov	 edx, DWORD PTR _b$[ebp]
  0009a	33 55 fc	 xor	 edx, DWORD PTR _a$[ebp]
  0009d	89 55 f0	 mov	 DWORD PTR _b$[ebp], edx
  000a0	8b 45 fc	 mov	 eax, DWORD PTR _a$[ebp]
  000a3	0b 45 e8	 or	 eax, DWORD PTR _d$[ebp]
  000a6	89 45 fc	 mov	 DWORD PTR _a$[ebp], eax
  000a9	8b 4d fc	 mov	 ecx, DWORD PTR _a$[ebp]
  000ac	33 4d dc	 xor	 ecx, DWORD PTR _e$[ebp]
  000af	89 4d fc	 mov	 DWORD PTR _a$[ebp], ecx
  000b2	8b 55 dc	 mov	 edx, DWORD PTR _e$[ebp]
  000b5	33 55 e8	 xor	 edx, DWORD PTR _d$[ebp]
  000b8	89 55 dc	 mov	 DWORD PTR _e$[ebp], edx
  000bb	8b 45 e8	 mov	 eax, DWORD PTR _d$[ebp]
  000be	33 45 e4	 xor	 eax, DWORD PTR _c$[ebp]
  000c1	89 45 e8	 mov	 DWORD PTR _d$[ebp], eax
  000c4	8b 4d e4	 mov	 ecx, DWORD PTR _c$[ebp]
  000c7	0b 4d f0	 or	 ecx, DWORD PTR _b$[ebp]
  000ca	89 4d e4	 mov	 DWORD PTR _c$[ebp], ecx
  000cd	8b 55 e4	 mov	 edx, DWORD PTR _c$[ebp]
  000d0	33 55 dc	 xor	 edx, DWORD PTR _e$[ebp]
  000d3	89 55 e4	 mov	 DWORD PTR _c$[ebp], edx
  000d6	8b 45 dc	 mov	 eax, DWORD PTR _e$[ebp]
  000d9	f7 d0		 not	 eax
  000db	89 45 dc	 mov	 DWORD PTR _e$[ebp], eax
  000de	8b 4d dc	 mov	 ecx, DWORD PTR _e$[ebp]
  000e1	0b 4d f0	 or	 ecx, DWORD PTR _b$[ebp]
  000e4	89 4d dc	 mov	 DWORD PTR _e$[ebp], ecx
  000e7	8b 55 f0	 mov	 edx, DWORD PTR _b$[ebp]
  000ea	33 55 e8	 xor	 edx, DWORD PTR _d$[ebp]
  000ed	89 55 f0	 mov	 DWORD PTR _b$[ebp], edx
  000f0	8b 45 f0	 mov	 eax, DWORD PTR _b$[ebp]
  000f3	33 45 dc	 xor	 eax, DWORD PTR _e$[ebp]
  000f6	89 45 f0	 mov	 DWORD PTR _b$[ebp], eax
  000f9	8b 4d e8	 mov	 ecx, DWORD PTR _d$[ebp]
  000fc	0b 4d fc	 or	 ecx, DWORD PTR _a$[ebp]
  000ff	89 4d e8	 mov	 DWORD PTR _d$[ebp], ecx
  00102	8b 55 f0	 mov	 edx, DWORD PTR _b$[ebp]
  00105	33 55 e8	 xor	 edx, DWORD PTR _d$[ebp]
  00108	89 55 f0	 mov	 DWORD PTR _b$[ebp], edx
  0010b	8b 45 dc	 mov	 eax, DWORD PTR _e$[ebp]
  0010e	33 45 e8	 xor	 eax, DWORD PTR _d$[ebp]
  00111	89 45 dc	 mov	 DWORD PTR _e$[ebp], eax
  00114	8b 4d f0	 mov	 ecx, DWORD PTR _b$[ebp]
  00117	c1 e1 0d	 shl	 ecx, 13			; 0000000dH
  0011a	8b 55 f0	 mov	 edx, DWORD PTR _b$[ebp]
  0011d	c1 ea 13	 shr	 edx, 19			; 00000013H
  00120	0b ca		 or	 ecx, edx
  00122	89 4d f0	 mov	 DWORD PTR _b$[ebp], ecx
  00125	8b 45 e4	 mov	 eax, DWORD PTR _c$[ebp]
  00128	c1 e0 03	 shl	 eax, 3
  0012b	8b 4d e4	 mov	 ecx, DWORD PTR _c$[ebp]
  0012e	c1 e9 1d	 shr	 ecx, 29			; 0000001dH
  00131	0b c1		 or	 eax, ecx
  00133	89 45 e4	 mov	 DWORD PTR _c$[ebp], eax
  00136	8b 55 fc	 mov	 edx, DWORD PTR _a$[ebp]
  00139	33 55 e4	 xor	 edx, DWORD PTR _c$[ebp]
  0013c	8b 45 f0	 mov	 eax, DWORD PTR _b$[ebp]
  0013f	c1 e0 03	 shl	 eax, 3
  00142	33 d0		 xor	 edx, eax
  00144	c1 e2 07	 shl	 edx, 7
  00147	8b 4d fc	 mov	 ecx, DWORD PTR _a$[ebp]
  0014a	33 4d e4	 xor	 ecx, DWORD PTR _c$[ebp]
  0014d	8b 45 f0	 mov	 eax, DWORD PTR _b$[ebp]
  00150	c1 e0 03	 shl	 eax, 3
  00153	33 c8		 xor	 ecx, eax
  00155	c1 e9 19	 shr	 ecx, 25			; 00000019H
  00158	0b d1		 or	 edx, ecx
  0015a	89 55 fc	 mov	 DWORD PTR _a$[ebp], edx
  0015d	8b 4d dc	 mov	 ecx, DWORD PTR _e$[ebp]
  00160	33 4d f0	 xor	 ecx, DWORD PTR _b$[ebp]
  00163	33 4d e4	 xor	 ecx, DWORD PTR _c$[ebp]
  00166	d1 e1		 shl	 ecx, 1
  00168	8b 55 dc	 mov	 edx, DWORD PTR _e$[ebp]
  0016b	33 55 f0	 xor	 edx, DWORD PTR _b$[ebp]
  0016e	33 55 e4	 xor	 edx, DWORD PTR _c$[ebp]
  00171	c1 ea 1f	 shr	 edx, 31			; 0000001fH
  00174	0b ca		 or	 ecx, edx
  00176	89 4d dc	 mov	 DWORD PTR _e$[ebp], ecx
  00179	8b 45 f0	 mov	 eax, DWORD PTR _b$[ebp]
  0017c	33 45 dc	 xor	 eax, DWORD PTR _e$[ebp]
  0017f	33 45 fc	 xor	 eax, DWORD PTR _a$[ebp]
  00182	c1 e0 05	 shl	 eax, 5
  00185	8b 4d f0	 mov	 ecx, DWORD PTR _b$[ebp]
  00188	33 4d dc	 xor	 ecx, DWORD PTR _e$[ebp]
  0018b	33 4d fc	 xor	 ecx, DWORD PTR _a$[ebp]
  0018e	c1 e9 1b	 shr	 ecx, 27			; 0000001bH
  00191	0b c1		 or	 eax, ecx
  00193	89 45 f0	 mov	 DWORD PTR _b$[ebp], eax
  00196	8b 55 e4	 mov	 edx, DWORD PTR _c$[ebp]
  00199	33 55 fc	 xor	 edx, DWORD PTR _a$[ebp]
  0019c	8b 45 dc	 mov	 eax, DWORD PTR _e$[ebp]
  0019f	c1 e0 07	 shl	 eax, 7
  001a2	33 d0		 xor	 edx, eax
  001a4	c1 e2 16	 shl	 edx, 22			; 00000016H
  001a7	8b 4d e4	 mov	 ecx, DWORD PTR _c$[ebp]
  001aa	33 4d fc	 xor	 ecx, DWORD PTR _a$[ebp]
  001ad	8b 45 dc	 mov	 eax, DWORD PTR _e$[ebp]
  001b0	c1 e0 07	 shl	 eax, 7
  001b3	33 c8		 xor	 ecx, eax
  001b5	c1 e9 0a	 shr	 ecx, 10			; 0000000aH
  001b8	0b d1		 or	 edx, ecx
  001ba	89 55 e4	 mov	 DWORD PTR _c$[ebp], edx

; 752  : 		afterS0(KX); afterS0(S1); afterS1(LT);

  001bd	8b 4d ec	 mov	 ecx, DWORD PTR _k$[ebp]
  001c0	8b 55 f0	 mov	 edx, DWORD PTR _b$[ebp]
  001c3	33 51 10	 xor	 edx, DWORD PTR [ecx+16]
  001c6	89 55 f0	 mov	 DWORD PTR _b$[ebp], edx
  001c9	8b 45 ec	 mov	 eax, DWORD PTR _k$[ebp]
  001cc	8b 4d dc	 mov	 ecx, DWORD PTR _e$[ebp]
  001cf	33 48 14	 xor	 ecx, DWORD PTR [eax+20]
  001d2	89 4d dc	 mov	 DWORD PTR _e$[ebp], ecx
  001d5	8b 55 ec	 mov	 edx, DWORD PTR _k$[ebp]
  001d8	8b 45 e4	 mov	 eax, DWORD PTR _c$[ebp]
  001db	33 42 18	 xor	 eax, DWORD PTR [edx+24]
  001de	89 45 e4	 mov	 DWORD PTR _c$[ebp], eax
  001e1	8b 4d ec	 mov	 ecx, DWORD PTR _k$[ebp]
  001e4	8b 55 fc	 mov	 edx, DWORD PTR _a$[ebp]
  001e7	33 51 1c	 xor	 edx, DWORD PTR [ecx+28]
  001ea	89 55 fc	 mov	 DWORD PTR _a$[ebp], edx
  001ed	8b 45 f0	 mov	 eax, DWORD PTR _b$[ebp]
  001f0	f7 d0		 not	 eax
  001f2	89 45 f0	 mov	 DWORD PTR _b$[ebp], eax
  001f5	8b 4d e4	 mov	 ecx, DWORD PTR _c$[ebp]
  001f8	f7 d1		 not	 ecx
  001fa	89 4d e4	 mov	 DWORD PTR _c$[ebp], ecx
  001fd	8b 55 f0	 mov	 edx, DWORD PTR _b$[ebp]
  00200	89 55 e8	 mov	 DWORD PTR _d$[ebp], edx
  00203	8b 45 f0	 mov	 eax, DWORD PTR _b$[ebp]
  00206	23 45 dc	 and	 eax, DWORD PTR _e$[ebp]
  00209	89 45 f0	 mov	 DWORD PTR _b$[ebp], eax
  0020c	8b 4d e4	 mov	 ecx, DWORD PTR _c$[ebp]
  0020f	33 4d f0	 xor	 ecx, DWORD PTR _b$[ebp]
  00212	89 4d e4	 mov	 DWORD PTR _c$[ebp], ecx
  00215	8b 55 f0	 mov	 edx, DWORD PTR _b$[ebp]
  00218	0b 55 fc	 or	 edx, DWORD PTR _a$[ebp]
  0021b	89 55 f0	 mov	 DWORD PTR _b$[ebp], edx
  0021e	8b 45 fc	 mov	 eax, DWORD PTR _a$[ebp]
  00221	33 45 e4	 xor	 eax, DWORD PTR _c$[ebp]
  00224	89 45 fc	 mov	 DWORD PTR _a$[ebp], eax
  00227	8b 4d dc	 mov	 ecx, DWORD PTR _e$[ebp]
  0022a	33 4d f0	 xor	 ecx, DWORD PTR _b$[ebp]
  0022d	89 4d dc	 mov	 DWORD PTR _e$[ebp], ecx
  00230	8b 55 f0	 mov	 edx, DWORD PTR _b$[ebp]
  00233	33 55 e8	 xor	 edx, DWORD PTR _d$[ebp]
  00236	89 55 f0	 mov	 DWORD PTR _b$[ebp], edx
  00239	8b 45 e8	 mov	 eax, DWORD PTR _d$[ebp]
  0023c	0b 45 dc	 or	 eax, DWORD PTR _e$[ebp]
  0023f	89 45 e8	 mov	 DWORD PTR _d$[ebp], eax
  00242	8b 4d dc	 mov	 ecx, DWORD PTR _e$[ebp]
  00245	33 4d fc	 xor	 ecx, DWORD PTR _a$[ebp]
  00248	89 4d dc	 mov	 DWORD PTR _e$[ebp], ecx
  0024b	8b 55 e4	 mov	 edx, DWORD PTR _c$[ebp]
  0024e	0b 55 f0	 or	 edx, DWORD PTR _b$[ebp]
  00251	89 55 e4	 mov	 DWORD PTR _c$[ebp], edx
  00254	8b 45 e4	 mov	 eax, DWORD PTR _c$[ebp]
  00257	23 45 e8	 and	 eax, DWORD PTR _d$[ebp]
  0025a	89 45 e4	 mov	 DWORD PTR _c$[ebp], eax
  0025d	8b 4d f0	 mov	 ecx, DWORD PTR _b$[ebp]
  00260	33 4d dc	 xor	 ecx, DWORD PTR _e$[ebp]
  00263	89 4d f0	 mov	 DWORD PTR _b$[ebp], ecx
  00266	8b 55 dc	 mov	 edx, DWORD PTR _e$[ebp]
  00269	23 55 e4	 and	 edx, DWORD PTR _c$[ebp]
  0026c	89 55 dc	 mov	 DWORD PTR _e$[ebp], edx
  0026f	8b 45 dc	 mov	 eax, DWORD PTR _e$[ebp]
  00272	33 45 f0	 xor	 eax, DWORD PTR _b$[ebp]
  00275	89 45 dc	 mov	 DWORD PTR _e$[ebp], eax
  00278	8b 4d f0	 mov	 ecx, DWORD PTR _b$[ebp]
  0027b	23 4d e4	 and	 ecx, DWORD PTR _c$[ebp]
  0027e	89 4d f0	 mov	 DWORD PTR _b$[ebp], ecx
  00281	8b 55 f0	 mov	 edx, DWORD PTR _b$[ebp]
  00284	33 55 e8	 xor	 edx, DWORD PTR _d$[ebp]
  00287	89 55 f0	 mov	 DWORD PTR _b$[ebp], edx
  0028a	8b 45 e4	 mov	 eax, DWORD PTR _c$[ebp]
  0028d	c1 e0 0d	 shl	 eax, 13			; 0000000dH
  00290	8b 4d e4	 mov	 ecx, DWORD PTR _c$[ebp]
  00293	c1 e9 13	 shr	 ecx, 19			; 00000013H
  00296	0b c1		 or	 eax, ecx
  00298	89 45 e4	 mov	 DWORD PTR _c$[ebp], eax
  0029b	8b 55 fc	 mov	 edx, DWORD PTR _a$[ebp]
  0029e	c1 e2 03	 shl	 edx, 3
  002a1	8b 45 fc	 mov	 eax, DWORD PTR _a$[ebp]
  002a4	c1 e8 1d	 shr	 eax, 29			; 0000001dH
  002a7	0b d0		 or	 edx, eax
  002a9	89 55 fc	 mov	 DWORD PTR _a$[ebp], edx
  002ac	8b 4d dc	 mov	 ecx, DWORD PTR _e$[ebp]
  002af	33 4d fc	 xor	 ecx, DWORD PTR _a$[ebp]
  002b2	8b 55 e4	 mov	 edx, DWORD PTR _c$[ebp]
  002b5	c1 e2 03	 shl	 edx, 3
  002b8	33 ca		 xor	 ecx, edx
  002ba	c1 e1 07	 shl	 ecx, 7
  002bd	8b 45 dc	 mov	 eax, DWORD PTR _e$[ebp]
  002c0	33 45 fc	 xor	 eax, DWORD PTR _a$[ebp]
  002c3	8b 55 e4	 mov	 edx, DWORD PTR _c$[ebp]
  002c6	c1 e2 03	 shl	 edx, 3
  002c9	33 c2		 xor	 eax, edx
  002cb	c1 e8 19	 shr	 eax, 25			; 00000019H
  002ce	0b c8		 or	 ecx, eax
  002d0	89 4d dc	 mov	 DWORD PTR _e$[ebp], ecx
  002d3	8b 45 f0	 mov	 eax, DWORD PTR _b$[ebp]
  002d6	33 45 e4	 xor	 eax, DWORD PTR _c$[ebp]
  002d9	33 45 fc	 xor	 eax, DWORD PTR _a$[ebp]
  002dc	d1 e0		 shl	 eax, 1
  002de	8b 4d f0	 mov	 ecx, DWORD PTR _b$[ebp]
  002e1	33 4d e4	 xor	 ecx, DWORD PTR _c$[ebp]
  002e4	33 4d fc	 xor	 ecx, DWORD PTR _a$[ebp]
  002e7	c1 e9 1f	 shr	 ecx, 31			; 0000001fH
  002ea	0b c1		 or	 eax, ecx
  002ec	89 45 f0	 mov	 DWORD PTR _b$[ebp], eax
  002ef	8b 55 e4	 mov	 edx, DWORD PTR _c$[ebp]
  002f2	33 55 f0	 xor	 edx, DWORD PTR _b$[ebp]
  002f5	33 55 dc	 xor	 edx, DWORD PTR _e$[ebp]
  002f8	c1 e2 05	 shl	 edx, 5
  002fb	8b 45 e4	 mov	 eax, DWORD PTR _c$[ebp]
  002fe	33 45 f0	 xor	 eax, DWORD PTR _b$[ebp]
  00301	33 45 dc	 xor	 eax, DWORD PTR _e$[ebp]
  00304	c1 e8 1b	 shr	 eax, 27			; 0000001bH
  00307	0b d0		 or	 edx, eax
  00309	89 55 e4	 mov	 DWORD PTR _c$[ebp], edx
  0030c	8b 4d fc	 mov	 ecx, DWORD PTR _a$[ebp]
  0030f	33 4d dc	 xor	 ecx, DWORD PTR _e$[ebp]
  00312	8b 55 f0	 mov	 edx, DWORD PTR _b$[ebp]
  00315	c1 e2 07	 shl	 edx, 7
  00318	33 ca		 xor	 ecx, edx
  0031a	c1 e1 16	 shl	 ecx, 22			; 00000016H
  0031d	8b 45 fc	 mov	 eax, DWORD PTR _a$[ebp]
  00320	33 45 dc	 xor	 eax, DWORD PTR _e$[ebp]
  00323	8b 55 f0	 mov	 edx, DWORD PTR _b$[ebp]
  00326	c1 e2 07	 shl	 edx, 7
  00329	33 c2		 xor	 eax, edx
  0032b	c1 e8 0a	 shr	 eax, 10			; 0000000aH
  0032e	0b c8		 or	 ecx, eax
  00330	89 4d fc	 mov	 DWORD PTR _a$[ebp], ecx

; 753  : 		afterS1(KX); afterS1(S2); afterS2(LT);

  00333	8b 45 ec	 mov	 eax, DWORD PTR _k$[ebp]
  00336	8b 4d e4	 mov	 ecx, DWORD PTR _c$[ebp]
  00339	33 48 20	 xor	 ecx, DWORD PTR [eax+32]
  0033c	89 4d e4	 mov	 DWORD PTR _c$[ebp], ecx
  0033f	8b 55 ec	 mov	 edx, DWORD PTR _k$[ebp]
  00342	8b 45 f0	 mov	 eax, DWORD PTR _b$[ebp]
  00345	33 42 24	 xor	 eax, DWORD PTR [edx+36]
  00348	89 45 f0	 mov	 DWORD PTR _b$[ebp], eax
  0034b	8b 4d ec	 mov	 ecx, DWORD PTR _k$[ebp]
  0034e	8b 55 fc	 mov	 edx, DWORD PTR _a$[ebp]
  00351	33 51 28	 xor	 edx, DWORD PTR [ecx+40]
  00354	89 55 fc	 mov	 DWORD PTR _a$[ebp], edx
  00357	8b 45 ec	 mov	 eax, DWORD PTR _k$[ebp]
  0035a	8b 4d dc	 mov	 ecx, DWORD PTR _e$[ebp]
  0035d	33 48 2c	 xor	 ecx, DWORD PTR [eax+44]
  00360	89 4d dc	 mov	 DWORD PTR _e$[ebp], ecx
  00363	8b 55 e4	 mov	 edx, DWORD PTR _c$[ebp]
  00366	89 55 e8	 mov	 DWORD PTR _d$[ebp], edx
  00369	8b 45 e4	 mov	 eax, DWORD PTR _c$[ebp]
  0036c	23 45 fc	 and	 eax, DWORD PTR _a$[ebp]
  0036f	89 45 e4	 mov	 DWORD PTR _c$[ebp], eax
  00372	8b 4d e4	 mov	 ecx, DWORD PTR _c$[ebp]
  00375	33 4d dc	 xor	 ecx, DWORD PTR _e$[ebp]
  00378	89 4d e4	 mov	 DWORD PTR _c$[ebp], ecx
  0037b	8b 55 fc	 mov	 edx, DWORD PTR _a$[ebp]
  0037e	33 55 f0	 xor	 edx, DWORD PTR _b$[ebp]
  00381	89 55 fc	 mov	 DWORD PTR _a$[ebp], edx
  00384	8b 45 fc	 mov	 eax, DWORD PTR _a$[ebp]
  00387	33 45 e4	 xor	 eax, DWORD PTR _c$[ebp]
  0038a	89 45 fc	 mov	 DWORD PTR _a$[ebp], eax
  0038d	8b 4d dc	 mov	 ecx, DWORD PTR _e$[ebp]
  00390	0b 4d e8	 or	 ecx, DWORD PTR _d$[ebp]
  00393	89 4d dc	 mov	 DWORD PTR _e$[ebp], ecx
  00396	8b 55 dc	 mov	 edx, DWORD PTR _e$[ebp]
  00399	33 55 f0	 xor	 edx, DWORD PTR _b$[ebp]
  0039c	89 55 dc	 mov	 DWORD PTR _e$[ebp], edx
  0039f	8b 45 e8	 mov	 eax, DWORD PTR _d$[ebp]
  003a2	33 45 fc	 xor	 eax, DWORD PTR _a$[ebp]
  003a5	89 45 e8	 mov	 DWORD PTR _d$[ebp], eax
  003a8	8b 4d dc	 mov	 ecx, DWORD PTR _e$[ebp]
  003ab	89 4d f0	 mov	 DWORD PTR _b$[ebp], ecx
  003ae	8b 55 dc	 mov	 edx, DWORD PTR _e$[ebp]
  003b1	0b 55 e8	 or	 edx, DWORD PTR _d$[ebp]
  003b4	89 55 dc	 mov	 DWORD PTR _e$[ebp], edx
  003b7	8b 45 dc	 mov	 eax, DWORD PTR _e$[ebp]
  003ba	33 45 e4	 xor	 eax, DWORD PTR _c$[ebp]
  003bd	89 45 dc	 mov	 DWORD PTR _e$[ebp], eax
  003c0	8b 4d e4	 mov	 ecx, DWORD PTR _c$[ebp]
  003c3	23 4d f0	 and	 ecx, DWORD PTR _b$[ebp]
  003c6	89 4d e4	 mov	 DWORD PTR _c$[ebp], ecx
  003c9	8b 55 e8	 mov	 edx, DWORD PTR _d$[ebp]
  003cc	33 55 e4	 xor	 edx, DWORD PTR _c$[ebp]
  003cf	89 55 e8	 mov	 DWORD PTR _d$[ebp], edx
  003d2	8b 45 f0	 mov	 eax, DWORD PTR _b$[ebp]
  003d5	33 45 dc	 xor	 eax, DWORD PTR _e$[ebp]
  003d8	89 45 f0	 mov	 DWORD PTR _b$[ebp], eax
  003db	8b 4d f0	 mov	 ecx, DWORD PTR _b$[ebp]
  003de	33 4d e8	 xor	 ecx, DWORD PTR _d$[ebp]
  003e1	89 4d f0	 mov	 DWORD PTR _b$[ebp], ecx
  003e4	8b 55 e8	 mov	 edx, DWORD PTR _d$[ebp]
  003e7	f7 d2		 not	 edx
  003e9	89 55 e8	 mov	 DWORD PTR _d$[ebp], edx
  003ec	8b 45 fc	 mov	 eax, DWORD PTR _a$[ebp]
  003ef	c1 e0 0d	 shl	 eax, 13			; 0000000dH
  003f2	8b 4d fc	 mov	 ecx, DWORD PTR _a$[ebp]
  003f5	c1 e9 13	 shr	 ecx, 19			; 00000013H
  003f8	0b c1		 or	 eax, ecx
  003fa	89 45 fc	 mov	 DWORD PTR _a$[ebp], eax
  003fd	8b 55 f0	 mov	 edx, DWORD PTR _b$[ebp]
  00400	c1 e2 03	 shl	 edx, 3
  00403	8b 45 f0	 mov	 eax, DWORD PTR _b$[ebp]
  00406	c1 e8 1d	 shr	 eax, 29			; 0000001dH
  00409	0b d0		 or	 edx, eax
  0040b	89 55 f0	 mov	 DWORD PTR _b$[ebp], edx
  0040e	8b 4d e8	 mov	 ecx, DWORD PTR _d$[ebp]
  00411	33 4d f0	 xor	 ecx, DWORD PTR _b$[ebp]
  00414	8b 55 fc	 mov	 edx, DWORD PTR _a$[ebp]
  00417	c1 e2 03	 shl	 edx, 3
  0041a	33 ca		 xor	 ecx, edx
  0041c	c1 e1 07	 shl	 ecx, 7
  0041f	8b 45 e8	 mov	 eax, DWORD PTR _d$[ebp]
  00422	33 45 f0	 xor	 eax, DWORD PTR _b$[ebp]
  00425	8b 55 fc	 mov	 edx, DWORD PTR _a$[ebp]
  00428	c1 e2 03	 shl	 edx, 3
  0042b	33 c2		 xor	 eax, edx
  0042d	c1 e8 19	 shr	 eax, 25			; 00000019H
  00430	0b c8		 or	 ecx, eax
  00432	89 4d e8	 mov	 DWORD PTR _d$[ebp], ecx
  00435	8b 45 dc	 mov	 eax, DWORD PTR _e$[ebp]
  00438	33 45 fc	 xor	 eax, DWORD PTR _a$[ebp]
  0043b	33 45 f0	 xor	 eax, DWORD PTR _b$[ebp]
  0043e	d1 e0		 shl	 eax, 1
  00440	8b 4d dc	 mov	 ecx, DWORD PTR _e$[ebp]
  00443	33 4d fc	 xor	 ecx, DWORD PTR _a$[ebp]
  00446	33 4d f0	 xor	 ecx, DWORD PTR _b$[ebp]
  00449	c1 e9 1f	 shr	 ecx, 31			; 0000001fH
  0044c	0b c1		 or	 eax, ecx
  0044e	89 45 dc	 mov	 DWORD PTR _e$[ebp], eax
  00451	8b 55 fc	 mov	 edx, DWORD PTR _a$[ebp]
  00454	33 55 dc	 xor	 edx, DWORD PTR _e$[ebp]
  00457	33 55 e8	 xor	 edx, DWORD PTR _d$[ebp]
  0045a	c1 e2 05	 shl	 edx, 5
  0045d	8b 45 fc	 mov	 eax, DWORD PTR _a$[ebp]
  00460	33 45 dc	 xor	 eax, DWORD PTR _e$[ebp]
  00463	33 45 e8	 xor	 eax, DWORD PTR _d$[ebp]
  00466	c1 e8 1b	 shr	 eax, 27			; 0000001bH
  00469	0b d0		 or	 edx, eax
  0046b	89 55 fc	 mov	 DWORD PTR _a$[ebp], edx
  0046e	8b 4d f0	 mov	 ecx, DWORD PTR _b$[ebp]
  00471	33 4d e8	 xor	 ecx, DWORD PTR _d$[ebp]
  00474	8b 55 dc	 mov	 edx, DWORD PTR _e$[ebp]
  00477	c1 e2 07	 shl	 edx, 7
  0047a	33 ca		 xor	 ecx, edx
  0047c	c1 e1 16	 shl	 ecx, 22			; 00000016H
  0047f	8b 45 f0	 mov	 eax, DWORD PTR _b$[ebp]
  00482	33 45 e8	 xor	 eax, DWORD PTR _d$[ebp]
  00485	8b 55 dc	 mov	 edx, DWORD PTR _e$[ebp]
  00488	c1 e2 07	 shl	 edx, 7
  0048b	33 c2		 xor	 eax, edx
  0048d	c1 e8 0a	 shr	 eax, 10			; 0000000aH
  00490	0b c8		 or	 ecx, eax
  00492	89 4d f0	 mov	 DWORD PTR _b$[ebp], ecx

; 754  : 		afterS2(KX); afterS2(S3); afterS3(LT);

  00495	8b 45 ec	 mov	 eax, DWORD PTR _k$[ebp]
  00498	8b 4d fc	 mov	 ecx, DWORD PTR _a$[ebp]
  0049b	33 48 30	 xor	 ecx, DWORD PTR [eax+48]
  0049e	89 4d fc	 mov	 DWORD PTR _a$[ebp], ecx
  004a1	8b 55 ec	 mov	 edx, DWORD PTR _k$[ebp]
  004a4	8b 45 dc	 mov	 eax, DWORD PTR _e$[ebp]
  004a7	33 42 34	 xor	 eax, DWORD PTR [edx+52]
  004aa	89 45 dc	 mov	 DWORD PTR _e$[ebp], eax
  004ad	8b 4d ec	 mov	 ecx, DWORD PTR _k$[ebp]
  004b0	8b 55 f0	 mov	 edx, DWORD PTR _b$[ebp]
  004b3	33 51 38	 xor	 edx, DWORD PTR [ecx+56]
  004b6	89 55 f0	 mov	 DWORD PTR _b$[ebp], edx
  004b9	8b 45 ec	 mov	 eax, DWORD PTR _k$[ebp]
  004bc	8b 4d e8	 mov	 ecx, DWORD PTR _d$[ebp]
  004bf	33 48 3c	 xor	 ecx, DWORD PTR [eax+60]
  004c2	89 4d e8	 mov	 DWORD PTR _d$[ebp], ecx
  004c5	8b 55 fc	 mov	 edx, DWORD PTR _a$[ebp]
  004c8	89 55 e4	 mov	 DWORD PTR _c$[ebp], edx
  004cb	8b 45 fc	 mov	 eax, DWORD PTR _a$[ebp]
  004ce	0b 45 e8	 or	 eax, DWORD PTR _d$[ebp]
  004d1	89 45 fc	 mov	 DWORD PTR _a$[ebp], eax
  004d4	8b 4d e8	 mov	 ecx, DWORD PTR _d$[ebp]
  004d7	33 4d dc	 xor	 ecx, DWORD PTR _e$[ebp]
  004da	89 4d e8	 mov	 DWORD PTR _d$[ebp], ecx
  004dd	8b 55 dc	 mov	 edx, DWORD PTR _e$[ebp]
  004e0	23 55 e4	 and	 edx, DWORD PTR _c$[ebp]
  004e3	89 55 dc	 mov	 DWORD PTR _e$[ebp], edx
  004e6	8b 45 e4	 mov	 eax, DWORD PTR _c$[ebp]
  004e9	33 45 f0	 xor	 eax, DWORD PTR _b$[ebp]
  004ec	89 45 e4	 mov	 DWORD PTR _c$[ebp], eax
  004ef	8b 4d f0	 mov	 ecx, DWORD PTR _b$[ebp]
  004f2	33 4d e8	 xor	 ecx, DWORD PTR _d$[ebp]
  004f5	89 4d f0	 mov	 DWORD PTR _b$[ebp], ecx
  004f8	8b 55 e8	 mov	 edx, DWORD PTR _d$[ebp]
  004fb	23 55 fc	 and	 edx, DWORD PTR _a$[ebp]
  004fe	89 55 e8	 mov	 DWORD PTR _d$[ebp], edx
  00501	8b 45 e4	 mov	 eax, DWORD PTR _c$[ebp]
  00504	0b 45 dc	 or	 eax, DWORD PTR _e$[ebp]
  00507	89 45 e4	 mov	 DWORD PTR _c$[ebp], eax
  0050a	8b 4d e8	 mov	 ecx, DWORD PTR _d$[ebp]
  0050d	33 4d e4	 xor	 ecx, DWORD PTR _c$[ebp]
  00510	89 4d e8	 mov	 DWORD PTR _d$[ebp], ecx
  00513	8b 55 fc	 mov	 edx, DWORD PTR _a$[ebp]
  00516	33 55 dc	 xor	 edx, DWORD PTR _e$[ebp]
  00519	89 55 fc	 mov	 DWORD PTR _a$[ebp], edx
  0051c	8b 45 e4	 mov	 eax, DWORD PTR _c$[ebp]
  0051f	23 45 fc	 and	 eax, DWORD PTR _a$[ebp]
  00522	89 45 e4	 mov	 DWORD PTR _c$[ebp], eax
  00525	8b 4d dc	 mov	 ecx, DWORD PTR _e$[ebp]
  00528	33 4d e8	 xor	 ecx, DWORD PTR _d$[ebp]
  0052b	89 4d dc	 mov	 DWORD PTR _e$[ebp], ecx
  0052e	8b 55 e4	 mov	 edx, DWORD PTR _c$[ebp]
  00531	33 55 f0	 xor	 edx, DWORD PTR _b$[ebp]
  00534	89 55 e4	 mov	 DWORD PTR _c$[ebp], edx
  00537	8b 45 dc	 mov	 eax, DWORD PTR _e$[ebp]
  0053a	0b 45 fc	 or	 eax, DWORD PTR _a$[ebp]
  0053d	89 45 dc	 mov	 DWORD PTR _e$[ebp], eax
  00540	8b 4d dc	 mov	 ecx, DWORD PTR _e$[ebp]
  00543	33 4d f0	 xor	 ecx, DWORD PTR _b$[ebp]
  00546	89 4d dc	 mov	 DWORD PTR _e$[ebp], ecx
  00549	8b 55 fc	 mov	 edx, DWORD PTR _a$[ebp]
  0054c	33 55 e8	 xor	 edx, DWORD PTR _d$[ebp]
  0054f	89 55 fc	 mov	 DWORD PTR _a$[ebp], edx
  00552	8b 45 dc	 mov	 eax, DWORD PTR _e$[ebp]
  00555	89 45 f0	 mov	 DWORD PTR _b$[ebp], eax
  00558	8b 4d dc	 mov	 ecx, DWORD PTR _e$[ebp]
  0055b	0b 4d e8	 or	 ecx, DWORD PTR _d$[ebp]
  0055e	89 4d dc	 mov	 DWORD PTR _e$[ebp], ecx
  00561	8b 55 dc	 mov	 edx, DWORD PTR _e$[ebp]
  00564	33 55 fc	 xor	 edx, DWORD PTR _a$[ebp]
  00567	89 55 dc	 mov	 DWORD PTR _e$[ebp], edx
  0056a	8b 45 dc	 mov	 eax, DWORD PTR _e$[ebp]
  0056d	c1 e0 0d	 shl	 eax, 13			; 0000000dH
  00570	8b 4d dc	 mov	 ecx, DWORD PTR _e$[ebp]
  00573	c1 e9 13	 shr	 ecx, 19			; 00000013H
  00576	0b c1		 or	 eax, ecx
  00578	89 45 dc	 mov	 DWORD PTR _e$[ebp], eax
  0057b	8b 55 e8	 mov	 edx, DWORD PTR _d$[ebp]
  0057e	c1 e2 03	 shl	 edx, 3
  00581	8b 45 e8	 mov	 eax, DWORD PTR _d$[ebp]
  00584	c1 e8 1d	 shr	 eax, 29			; 0000001dH
  00587	0b d0		 or	 edx, eax
  00589	89 55 e8	 mov	 DWORD PTR _d$[ebp], edx
  0058c	8b 4d e4	 mov	 ecx, DWORD PTR _c$[ebp]
  0058f	33 4d e8	 xor	 ecx, DWORD PTR _d$[ebp]
  00592	8b 55 dc	 mov	 edx, DWORD PTR _e$[ebp]
  00595	c1 e2 03	 shl	 edx, 3
  00598	33 ca		 xor	 ecx, edx
  0059a	c1 e1 07	 shl	 ecx, 7
  0059d	8b 45 e4	 mov	 eax, DWORD PTR _c$[ebp]
  005a0	33 45 e8	 xor	 eax, DWORD PTR _d$[ebp]
  005a3	8b 55 dc	 mov	 edx, DWORD PTR _e$[ebp]
  005a6	c1 e2 03	 shl	 edx, 3
  005a9	33 c2		 xor	 eax, edx
  005ab	c1 e8 19	 shr	 eax, 25			; 00000019H
  005ae	0b c8		 or	 ecx, eax
  005b0	89 4d e4	 mov	 DWORD PTR _c$[ebp], ecx
  005b3	8b 45 f0	 mov	 eax, DWORD PTR _b$[ebp]
  005b6	33 45 dc	 xor	 eax, DWORD PTR _e$[ebp]
  005b9	33 45 e8	 xor	 eax, DWORD PTR _d$[ebp]
  005bc	d1 e0		 shl	 eax, 1
  005be	8b 4d f0	 mov	 ecx, DWORD PTR _b$[ebp]
  005c1	33 4d dc	 xor	 ecx, DWORD PTR _e$[ebp]
  005c4	33 4d e8	 xor	 ecx, DWORD PTR _d$[ebp]
  005c7	c1 e9 1f	 shr	 ecx, 31			; 0000001fH
  005ca	0b c1		 or	 eax, ecx
  005cc	89 45 f0	 mov	 DWORD PTR _b$[ebp], eax
  005cf	8b 55 dc	 mov	 edx, DWORD PTR _e$[ebp]
  005d2	33 55 f0	 xor	 edx, DWORD PTR _b$[ebp]
  005d5	33 55 e4	 xor	 edx, DWORD PTR _c$[ebp]
  005d8	c1 e2 05	 shl	 edx, 5
  005db	8b 45 dc	 mov	 eax, DWORD PTR _e$[ebp]
  005de	33 45 f0	 xor	 eax, DWORD PTR _b$[ebp]
  005e1	33 45 e4	 xor	 eax, DWORD PTR _c$[ebp]
  005e4	c1 e8 1b	 shr	 eax, 27			; 0000001bH
  005e7	0b d0		 or	 edx, eax
  005e9	89 55 dc	 mov	 DWORD PTR _e$[ebp], edx
  005ec	8b 4d e8	 mov	 ecx, DWORD PTR _d$[ebp]
  005ef	33 4d e4	 xor	 ecx, DWORD PTR _c$[ebp]
  005f2	8b 55 f0	 mov	 edx, DWORD PTR _b$[ebp]
  005f5	c1 e2 07	 shl	 edx, 7
  005f8	33 ca		 xor	 ecx, edx
  005fa	c1 e1 16	 shl	 ecx, 22			; 00000016H
  005fd	8b 45 e8	 mov	 eax, DWORD PTR _d$[ebp]
  00600	33 45 e4	 xor	 eax, DWORD PTR _c$[ebp]
  00603	8b 55 f0	 mov	 edx, DWORD PTR _b$[ebp]
  00606	c1 e2 07	 shl	 edx, 7
  00609	33 c2		 xor	 eax, edx
  0060b	c1 e8 0a	 shr	 eax, 10			; 0000000aH
  0060e	0b c8		 or	 ecx, eax
  00610	89 4d e8	 mov	 DWORD PTR _d$[ebp], ecx

; 755  : 		afterS3(KX); afterS3(S4); afterS4(LT);

  00613	8b 45 ec	 mov	 eax, DWORD PTR _k$[ebp]
  00616	8b 4d dc	 mov	 ecx, DWORD PTR _e$[ebp]
  00619	33 48 40	 xor	 ecx, DWORD PTR [eax+64]
  0061c	89 4d dc	 mov	 DWORD PTR _e$[ebp], ecx
  0061f	8b 55 ec	 mov	 edx, DWORD PTR _k$[ebp]
  00622	8b 45 f0	 mov	 eax, DWORD PTR _b$[ebp]
  00625	33 42 44	 xor	 eax, DWORD PTR [edx+68]
  00628	89 45 f0	 mov	 DWORD PTR _b$[ebp], eax
  0062b	8b 4d ec	 mov	 ecx, DWORD PTR _k$[ebp]
  0062e	8b 55 e8	 mov	 edx, DWORD PTR _d$[ebp]
  00631	33 51 48	 xor	 edx, DWORD PTR [ecx+72]
  00634	89 55 e8	 mov	 DWORD PTR _d$[ebp], edx
  00637	8b 45 ec	 mov	 eax, DWORD PTR _k$[ebp]
  0063a	8b 4d e4	 mov	 ecx, DWORD PTR _c$[ebp]
  0063d	33 48 4c	 xor	 ecx, DWORD PTR [eax+76]
  00640	89 4d e4	 mov	 DWORD PTR _c$[ebp], ecx
  00643	8b 55 f0	 mov	 edx, DWORD PTR _b$[ebp]
  00646	33 55 e4	 xor	 edx, DWORD PTR _c$[ebp]
  00649	89 55 f0	 mov	 DWORD PTR _b$[ebp], edx
  0064c	8b 45 e4	 mov	 eax, DWORD PTR _c$[ebp]
  0064f	f7 d0		 not	 eax
  00651	89 45 e4	 mov	 DWORD PTR _c$[ebp], eax
  00654	8b 4d e8	 mov	 ecx, DWORD PTR _d$[ebp]
  00657	33 4d e4	 xor	 ecx, DWORD PTR _c$[ebp]
  0065a	89 4d e8	 mov	 DWORD PTR _d$[ebp], ecx
  0065d	8b 55 e4	 mov	 edx, DWORD PTR _c$[ebp]
  00660	33 55 dc	 xor	 edx, DWORD PTR _e$[ebp]
  00663	89 55 e4	 mov	 DWORD PTR _c$[ebp], edx
  00666	8b 45 f0	 mov	 eax, DWORD PTR _b$[ebp]
  00669	89 45 fc	 mov	 DWORD PTR _a$[ebp], eax
  0066c	8b 4d f0	 mov	 ecx, DWORD PTR _b$[ebp]
  0066f	23 4d e4	 and	 ecx, DWORD PTR _c$[ebp]
  00672	89 4d f0	 mov	 DWORD PTR _b$[ebp], ecx
  00675	8b 55 f0	 mov	 edx, DWORD PTR _b$[ebp]
  00678	33 55 e8	 xor	 edx, DWORD PTR _d$[ebp]
  0067b	89 55 f0	 mov	 DWORD PTR _b$[ebp], edx
  0067e	8b 45 fc	 mov	 eax, DWORD PTR _a$[ebp]
  00681	33 45 e4	 xor	 eax, DWORD PTR _c$[ebp]
  00684	89 45 fc	 mov	 DWORD PTR _a$[ebp], eax
  00687	8b 4d dc	 mov	 ecx, DWORD PTR _e$[ebp]
  0068a	33 4d fc	 xor	 ecx, DWORD PTR _a$[ebp]
  0068d	89 4d dc	 mov	 DWORD PTR _e$[ebp], ecx
  00690	8b 55 e8	 mov	 edx, DWORD PTR _d$[ebp]
  00693	23 55 fc	 and	 edx, DWORD PTR _a$[ebp]
  00696	89 55 e8	 mov	 DWORD PTR _d$[ebp], edx
  00699	8b 45 e8	 mov	 eax, DWORD PTR _d$[ebp]
  0069c	33 45 dc	 xor	 eax, DWORD PTR _e$[ebp]
  0069f	89 45 e8	 mov	 DWORD PTR _d$[ebp], eax
  006a2	8b 4d dc	 mov	 ecx, DWORD PTR _e$[ebp]
  006a5	23 4d f0	 and	 ecx, DWORD PTR _b$[ebp]
  006a8	89 4d dc	 mov	 DWORD PTR _e$[ebp], ecx
  006ab	8b 55 e4	 mov	 edx, DWORD PTR _c$[ebp]
  006ae	33 55 dc	 xor	 edx, DWORD PTR _e$[ebp]
  006b1	89 55 e4	 mov	 DWORD PTR _c$[ebp], edx
  006b4	8b 45 fc	 mov	 eax, DWORD PTR _a$[ebp]
  006b7	0b 45 f0	 or	 eax, DWORD PTR _b$[ebp]
  006ba	89 45 fc	 mov	 DWORD PTR _a$[ebp], eax
  006bd	8b 4d fc	 mov	 ecx, DWORD PTR _a$[ebp]
  006c0	33 4d dc	 xor	 ecx, DWORD PTR _e$[ebp]
  006c3	89 4d fc	 mov	 DWORD PTR _a$[ebp], ecx
  006c6	8b 55 dc	 mov	 edx, DWORD PTR _e$[ebp]
  006c9	0b 55 e4	 or	 edx, DWORD PTR _c$[ebp]
  006cc	89 55 dc	 mov	 DWORD PTR _e$[ebp], edx
  006cf	8b 45 dc	 mov	 eax, DWORD PTR _e$[ebp]
  006d2	33 45 e8	 xor	 eax, DWORD PTR _d$[ebp]
  006d5	89 45 dc	 mov	 DWORD PTR _e$[ebp], eax
  006d8	8b 4d e8	 mov	 ecx, DWORD PTR _d$[ebp]
  006db	23 4d e4	 and	 ecx, DWORD PTR _c$[ebp]
  006de	89 4d e8	 mov	 DWORD PTR _d$[ebp], ecx
  006e1	8b 55 dc	 mov	 edx, DWORD PTR _e$[ebp]
  006e4	f7 d2		 not	 edx
  006e6	89 55 dc	 mov	 DWORD PTR _e$[ebp], edx
  006e9	8b 45 fc	 mov	 eax, DWORD PTR _a$[ebp]
  006ec	33 45 e8	 xor	 eax, DWORD PTR _d$[ebp]
  006ef	89 45 fc	 mov	 DWORD PTR _a$[ebp], eax
  006f2	8b 4d f0	 mov	 ecx, DWORD PTR _b$[ebp]
  006f5	c1 e1 0d	 shl	 ecx, 13			; 0000000dH
  006f8	8b 55 f0	 mov	 edx, DWORD PTR _b$[ebp]
  006fb	c1 ea 13	 shr	 edx, 19			; 00000013H
  006fe	0b ca		 or	 ecx, edx
  00700	89 4d f0	 mov	 DWORD PTR _b$[ebp], ecx
  00703	8b 45 dc	 mov	 eax, DWORD PTR _e$[ebp]
  00706	c1 e0 03	 shl	 eax, 3
  00709	8b 4d dc	 mov	 ecx, DWORD PTR _e$[ebp]
  0070c	c1 e9 1d	 shr	 ecx, 29			; 0000001dH
  0070f	0b c1		 or	 eax, ecx
  00711	89 45 dc	 mov	 DWORD PTR _e$[ebp], eax
  00714	8b 55 e4	 mov	 edx, DWORD PTR _c$[ebp]
  00717	33 55 dc	 xor	 edx, DWORD PTR _e$[ebp]
  0071a	8b 45 f0	 mov	 eax, DWORD PTR _b$[ebp]
  0071d	c1 e0 03	 shl	 eax, 3
  00720	33 d0		 xor	 edx, eax
  00722	c1 e2 07	 shl	 edx, 7
  00725	8b 4d e4	 mov	 ecx, DWORD PTR _c$[ebp]
  00728	33 4d dc	 xor	 ecx, DWORD PTR _e$[ebp]
  0072b	8b 45 f0	 mov	 eax, DWORD PTR _b$[ebp]
  0072e	c1 e0 03	 shl	 eax, 3
  00731	33 c8		 xor	 ecx, eax
  00733	c1 e9 19	 shr	 ecx, 25			; 00000019H
  00736	0b d1		 or	 edx, ecx
  00738	89 55 e4	 mov	 DWORD PTR _c$[ebp], edx
  0073b	8b 4d fc	 mov	 ecx, DWORD PTR _a$[ebp]
  0073e	33 4d f0	 xor	 ecx, DWORD PTR _b$[ebp]
  00741	33 4d dc	 xor	 ecx, DWORD PTR _e$[ebp]
  00744	d1 e1		 shl	 ecx, 1
  00746	8b 55 fc	 mov	 edx, DWORD PTR _a$[ebp]
  00749	33 55 f0	 xor	 edx, DWORD PTR _b$[ebp]
  0074c	33 55 dc	 xor	 edx, DWORD PTR _e$[ebp]
  0074f	c1 ea 1f	 shr	 edx, 31			; 0000001fH
  00752	0b ca		 or	 ecx, edx
  00754	89 4d fc	 mov	 DWORD PTR _a$[ebp], ecx
  00757	8b 45 f0	 mov	 eax, DWORD PTR _b$[ebp]
  0075a	33 45 fc	 xor	 eax, DWORD PTR _a$[ebp]
  0075d	33 45 e4	 xor	 eax, DWORD PTR _c$[ebp]
  00760	c1 e0 05	 shl	 eax, 5
  00763	8b 4d f0	 mov	 ecx, DWORD PTR _b$[ebp]
  00766	33 4d fc	 xor	 ecx, DWORD PTR _a$[ebp]
  00769	33 4d e4	 xor	 ecx, DWORD PTR _c$[ebp]
  0076c	c1 e9 1b	 shr	 ecx, 27			; 0000001bH
  0076f	0b c1		 or	 eax, ecx
  00771	89 45 f0	 mov	 DWORD PTR _b$[ebp], eax
  00774	8b 55 dc	 mov	 edx, DWORD PTR _e$[ebp]
  00777	33 55 e4	 xor	 edx, DWORD PTR _c$[ebp]
  0077a	8b 45 fc	 mov	 eax, DWORD PTR _a$[ebp]
  0077d	c1 e0 07	 shl	 eax, 7
  00780	33 d0		 xor	 edx, eax
  00782	c1 e2 16	 shl	 edx, 22			; 00000016H
  00785	8b 4d dc	 mov	 ecx, DWORD PTR _e$[ebp]
  00788	33 4d e4	 xor	 ecx, DWORD PTR _c$[ebp]
  0078b	8b 45 fc	 mov	 eax, DWORD PTR _a$[ebp]
  0078e	c1 e0 07	 shl	 eax, 7
  00791	33 c8		 xor	 ecx, eax
  00793	c1 e9 0a	 shr	 ecx, 10			; 0000000aH
  00796	0b d1		 or	 edx, ecx
  00798	89 55 dc	 mov	 DWORD PTR _e$[ebp], edx

; 756  : 		afterS4(KX); afterS4(S5); afterS5(LT);

  0079b	8b 4d ec	 mov	 ecx, DWORD PTR _k$[ebp]
  0079e	8b 55 f0	 mov	 edx, DWORD PTR _b$[ebp]
  007a1	33 51 50	 xor	 edx, DWORD PTR [ecx+80]
  007a4	89 55 f0	 mov	 DWORD PTR _b$[ebp], edx
  007a7	8b 45 ec	 mov	 eax, DWORD PTR _k$[ebp]
  007aa	8b 4d fc	 mov	 ecx, DWORD PTR _a$[ebp]
  007ad	33 48 54	 xor	 ecx, DWORD PTR [eax+84]
  007b0	89 4d fc	 mov	 DWORD PTR _a$[ebp], ecx
  007b3	8b 55 ec	 mov	 edx, DWORD PTR _k$[ebp]
  007b6	8b 45 dc	 mov	 eax, DWORD PTR _e$[ebp]
  007b9	33 42 58	 xor	 eax, DWORD PTR [edx+88]
  007bc	89 45 dc	 mov	 DWORD PTR _e$[ebp], eax
  007bf	8b 4d ec	 mov	 ecx, DWORD PTR _k$[ebp]
  007c2	8b 55 e4	 mov	 edx, DWORD PTR _c$[ebp]
  007c5	33 51 5c	 xor	 edx, DWORD PTR [ecx+92]
  007c8	89 55 e4	 mov	 DWORD PTR _c$[ebp], edx
  007cb	8b 45 f0	 mov	 eax, DWORD PTR _b$[ebp]
  007ce	33 45 fc	 xor	 eax, DWORD PTR _a$[ebp]
  007d1	89 45 f0	 mov	 DWORD PTR _b$[ebp], eax
  007d4	8b 4d fc	 mov	 ecx, DWORD PTR _a$[ebp]
  007d7	33 4d e4	 xor	 ecx, DWORD PTR _c$[ebp]
  007da	89 4d fc	 mov	 DWORD PTR _a$[ebp], ecx
  007dd	8b 55 e4	 mov	 edx, DWORD PTR _c$[ebp]
  007e0	f7 d2		 not	 edx
  007e2	89 55 e4	 mov	 DWORD PTR _c$[ebp], edx
  007e5	8b 45 fc	 mov	 eax, DWORD PTR _a$[ebp]
  007e8	89 45 e8	 mov	 DWORD PTR _d$[ebp], eax
  007eb	8b 4d fc	 mov	 ecx, DWORD PTR _a$[ebp]
  007ee	23 4d f0	 and	 ecx, DWORD PTR _b$[ebp]
  007f1	89 4d fc	 mov	 DWORD PTR _a$[ebp], ecx
  007f4	8b 55 dc	 mov	 edx, DWORD PTR _e$[ebp]
  007f7	33 55 e4	 xor	 edx, DWORD PTR _c$[ebp]
  007fa	89 55 dc	 mov	 DWORD PTR _e$[ebp], edx
  007fd	8b 45 fc	 mov	 eax, DWORD PTR _a$[ebp]
  00800	33 45 dc	 xor	 eax, DWORD PTR _e$[ebp]
  00803	89 45 fc	 mov	 DWORD PTR _a$[ebp], eax
  00806	8b 4d dc	 mov	 ecx, DWORD PTR _e$[ebp]
  00809	0b 4d e8	 or	 ecx, DWORD PTR _d$[ebp]
  0080c	89 4d dc	 mov	 DWORD PTR _e$[ebp], ecx
  0080f	8b 55 e8	 mov	 edx, DWORD PTR _d$[ebp]
  00812	33 55 e4	 xor	 edx, DWORD PTR _c$[ebp]
  00815	89 55 e8	 mov	 DWORD PTR _d$[ebp], edx
  00818	8b 45 e4	 mov	 eax, DWORD PTR _c$[ebp]
  0081b	23 45 fc	 and	 eax, DWORD PTR _a$[ebp]
  0081e	89 45 e4	 mov	 DWORD PTR _c$[ebp], eax
  00821	8b 4d e4	 mov	 ecx, DWORD PTR _c$[ebp]
  00824	33 4d f0	 xor	 ecx, DWORD PTR _b$[ebp]
  00827	89 4d e4	 mov	 DWORD PTR _c$[ebp], ecx
  0082a	8b 55 e8	 mov	 edx, DWORD PTR _d$[ebp]
  0082d	33 55 fc	 xor	 edx, DWORD PTR _a$[ebp]
  00830	89 55 e8	 mov	 DWORD PTR _d$[ebp], edx
  00833	8b 45 e8	 mov	 eax, DWORD PTR _d$[ebp]
  00836	33 45 dc	 xor	 eax, DWORD PTR _e$[ebp]
  00839	89 45 e8	 mov	 DWORD PTR _d$[ebp], eax
  0083c	8b 4d dc	 mov	 ecx, DWORD PTR _e$[ebp]
  0083f	33 4d f0	 xor	 ecx, DWORD PTR _b$[ebp]
  00842	89 4d dc	 mov	 DWORD PTR _e$[ebp], ecx
  00845	8b 55 f0	 mov	 edx, DWORD PTR _b$[ebp]
  00848	23 55 e4	 and	 edx, DWORD PTR _c$[ebp]
  0084b	89 55 f0	 mov	 DWORD PTR _b$[ebp], edx
  0084e	8b 45 dc	 mov	 eax, DWORD PTR _e$[ebp]
  00851	f7 d0		 not	 eax
  00853	89 45 dc	 mov	 DWORD PTR _e$[ebp], eax
  00856	8b 4d f0	 mov	 ecx, DWORD PTR _b$[ebp]
  00859	33 4d e8	 xor	 ecx, DWORD PTR _d$[ebp]
  0085c	89 4d f0	 mov	 DWORD PTR _b$[ebp], ecx
  0085f	8b 55 e8	 mov	 edx, DWORD PTR _d$[ebp]
  00862	0b 55 e4	 or	 edx, DWORD PTR _c$[ebp]
  00865	89 55 e8	 mov	 DWORD PTR _d$[ebp], edx
  00868	8b 45 dc	 mov	 eax, DWORD PTR _e$[ebp]
  0086b	33 45 e8	 xor	 eax, DWORD PTR _d$[ebp]
  0086e	89 45 dc	 mov	 DWORD PTR _e$[ebp], eax
  00871	8b 4d fc	 mov	 ecx, DWORD PTR _a$[ebp]
  00874	c1 e1 0d	 shl	 ecx, 13			; 0000000dH
  00877	8b 55 fc	 mov	 edx, DWORD PTR _a$[ebp]
  0087a	c1 ea 13	 shr	 edx, 19			; 00000013H
  0087d	0b ca		 or	 ecx, edx
  0087f	89 4d fc	 mov	 DWORD PTR _a$[ebp], ecx
  00882	8b 45 f0	 mov	 eax, DWORD PTR _b$[ebp]
  00885	c1 e0 03	 shl	 eax, 3
  00888	8b 4d f0	 mov	 ecx, DWORD PTR _b$[ebp]
  0088b	c1 e9 1d	 shr	 ecx, 29			; 0000001dH
  0088e	0b c1		 or	 eax, ecx
  00890	89 45 f0	 mov	 DWORD PTR _b$[ebp], eax
  00893	8b 55 dc	 mov	 edx, DWORD PTR _e$[ebp]
  00896	33 55 f0	 xor	 edx, DWORD PTR _b$[ebp]
  00899	8b 45 fc	 mov	 eax, DWORD PTR _a$[ebp]
  0089c	c1 e0 03	 shl	 eax, 3
  0089f	33 d0		 xor	 edx, eax
  008a1	c1 e2 07	 shl	 edx, 7
  008a4	8b 4d dc	 mov	 ecx, DWORD PTR _e$[ebp]
  008a7	33 4d f0	 xor	 ecx, DWORD PTR _b$[ebp]
  008aa	8b 45 fc	 mov	 eax, DWORD PTR _a$[ebp]
  008ad	c1 e0 03	 shl	 eax, 3
  008b0	33 c8		 xor	 ecx, eax
  008b2	c1 e9 19	 shr	 ecx, 25			; 00000019H
  008b5	0b d1		 or	 edx, ecx
  008b7	89 55 dc	 mov	 DWORD PTR _e$[ebp], edx
  008ba	8b 4d e4	 mov	 ecx, DWORD PTR _c$[ebp]
  008bd	33 4d fc	 xor	 ecx, DWORD PTR _a$[ebp]
  008c0	33 4d f0	 xor	 ecx, DWORD PTR _b$[ebp]
  008c3	d1 e1		 shl	 ecx, 1
  008c5	8b 55 e4	 mov	 edx, DWORD PTR _c$[ebp]
  008c8	33 55 fc	 xor	 edx, DWORD PTR _a$[ebp]
  008cb	33 55 f0	 xor	 edx, DWORD PTR _b$[ebp]
  008ce	c1 ea 1f	 shr	 edx, 31			; 0000001fH
  008d1	0b ca		 or	 ecx, edx
  008d3	89 4d e4	 mov	 DWORD PTR _c$[ebp], ecx
  008d6	8b 45 fc	 mov	 eax, DWORD PTR _a$[ebp]
  008d9	33 45 e4	 xor	 eax, DWORD PTR _c$[ebp]
  008dc	33 45 dc	 xor	 eax, DWORD PTR _e$[ebp]
  008df	c1 e0 05	 shl	 eax, 5
  008e2	8b 4d fc	 mov	 ecx, DWORD PTR _a$[ebp]
  008e5	33 4d e4	 xor	 ecx, DWORD PTR _c$[ebp]
  008e8	33 4d dc	 xor	 ecx, DWORD PTR _e$[ebp]
  008eb	c1 e9 1b	 shr	 ecx, 27			; 0000001bH
  008ee	0b c1		 or	 eax, ecx
  008f0	89 45 fc	 mov	 DWORD PTR _a$[ebp], eax
  008f3	8b 55 f0	 mov	 edx, DWORD PTR _b$[ebp]
  008f6	33 55 dc	 xor	 edx, DWORD PTR _e$[ebp]
  008f9	8b 45 e4	 mov	 eax, DWORD PTR _c$[ebp]
  008fc	c1 e0 07	 shl	 eax, 7
  008ff	33 d0		 xor	 edx, eax
  00901	c1 e2 16	 shl	 edx, 22			; 00000016H
  00904	8b 4d f0	 mov	 ecx, DWORD PTR _b$[ebp]
  00907	33 4d dc	 xor	 ecx, DWORD PTR _e$[ebp]
  0090a	8b 45 e4	 mov	 eax, DWORD PTR _c$[ebp]
  0090d	c1 e0 07	 shl	 eax, 7
  00910	33 c8		 xor	 ecx, eax
  00912	c1 e9 0a	 shr	 ecx, 10			; 0000000aH
  00915	0b d1		 or	 edx, ecx
  00917	89 55 f0	 mov	 DWORD PTR _b$[ebp], edx

; 757  : 		afterS5(KX); afterS5(S6); afterS6(LT);

  0091a	8b 4d ec	 mov	 ecx, DWORD PTR _k$[ebp]
  0091d	8b 55 fc	 mov	 edx, DWORD PTR _a$[ebp]
  00920	33 51 60	 xor	 edx, DWORD PTR [ecx+96]
  00923	89 55 fc	 mov	 DWORD PTR _a$[ebp], edx
  00926	8b 45 ec	 mov	 eax, DWORD PTR _k$[ebp]
  00929	8b 4d e4	 mov	 ecx, DWORD PTR _c$[ebp]
  0092c	33 48 64	 xor	 ecx, DWORD PTR [eax+100]
  0092f	89 4d e4	 mov	 DWORD PTR _c$[ebp], ecx
  00932	8b 55 ec	 mov	 edx, DWORD PTR _k$[ebp]
  00935	8b 45 f0	 mov	 eax, DWORD PTR _b$[ebp]
  00938	33 42 68	 xor	 eax, DWORD PTR [edx+104]
  0093b	89 45 f0	 mov	 DWORD PTR _b$[ebp], eax
  0093e	8b 4d ec	 mov	 ecx, DWORD PTR _k$[ebp]
  00941	8b 55 dc	 mov	 edx, DWORD PTR _e$[ebp]
  00944	33 51 6c	 xor	 edx, DWORD PTR [ecx+108]
  00947	89 55 dc	 mov	 DWORD PTR _e$[ebp], edx
  0094a	8b 45 f0	 mov	 eax, DWORD PTR _b$[ebp]
  0094d	f7 d0		 not	 eax
  0094f	89 45 f0	 mov	 DWORD PTR _b$[ebp], eax
  00952	8b 4d dc	 mov	 ecx, DWORD PTR _e$[ebp]
  00955	89 4d e8	 mov	 DWORD PTR _d$[ebp], ecx
  00958	8b 55 dc	 mov	 edx, DWORD PTR _e$[ebp]
  0095b	23 55 fc	 and	 edx, DWORD PTR _a$[ebp]
  0095e	89 55 dc	 mov	 DWORD PTR _e$[ebp], edx
  00961	8b 45 fc	 mov	 eax, DWORD PTR _a$[ebp]
  00964	33 45 e8	 xor	 eax, DWORD PTR _d$[ebp]
  00967	89 45 fc	 mov	 DWORD PTR _a$[ebp], eax
  0096a	8b 4d dc	 mov	 ecx, DWORD PTR _e$[ebp]
  0096d	33 4d f0	 xor	 ecx, DWORD PTR _b$[ebp]
  00970	89 4d dc	 mov	 DWORD PTR _e$[ebp], ecx
  00973	8b 55 f0	 mov	 edx, DWORD PTR _b$[ebp]
  00976	0b 55 e8	 or	 edx, DWORD PTR _d$[ebp]
  00979	89 55 f0	 mov	 DWORD PTR _b$[ebp], edx
  0097c	8b 45 e4	 mov	 eax, DWORD PTR _c$[ebp]
  0097f	33 45 dc	 xor	 eax, DWORD PTR _e$[ebp]
  00982	89 45 e4	 mov	 DWORD PTR _c$[ebp], eax
  00985	8b 4d f0	 mov	 ecx, DWORD PTR _b$[ebp]
  00988	33 4d fc	 xor	 ecx, DWORD PTR _a$[ebp]
  0098b	89 4d f0	 mov	 DWORD PTR _b$[ebp], ecx
  0098e	8b 55 fc	 mov	 edx, DWORD PTR _a$[ebp]
  00991	0b 55 e4	 or	 edx, DWORD PTR _c$[ebp]
  00994	89 55 fc	 mov	 DWORD PTR _a$[ebp], edx
  00997	8b 45 f0	 mov	 eax, DWORD PTR _b$[ebp]
  0099a	33 45 e4	 xor	 eax, DWORD PTR _c$[ebp]
  0099d	89 45 f0	 mov	 DWORD PTR _b$[ebp], eax
  009a0	8b 4d e8	 mov	 ecx, DWORD PTR _d$[ebp]
  009a3	33 4d fc	 xor	 ecx, DWORD PTR _a$[ebp]
  009a6	89 4d e8	 mov	 DWORD PTR _d$[ebp], ecx
  009a9	8b 55 fc	 mov	 edx, DWORD PTR _a$[ebp]
  009ac	0b 55 dc	 or	 edx, DWORD PTR _e$[ebp]
  009af	89 55 fc	 mov	 DWORD PTR _a$[ebp], edx
  009b2	8b 45 fc	 mov	 eax, DWORD PTR _a$[ebp]
  009b5	33 45 f0	 xor	 eax, DWORD PTR _b$[ebp]
  009b8	89 45 fc	 mov	 DWORD PTR _a$[ebp], eax
  009bb	8b 4d e8	 mov	 ecx, DWORD PTR _d$[ebp]
  009be	33 4d dc	 xor	 ecx, DWORD PTR _e$[ebp]
  009c1	89 4d e8	 mov	 DWORD PTR _d$[ebp], ecx
  009c4	8b 55 e8	 mov	 edx, DWORD PTR _d$[ebp]
  009c7	33 55 fc	 xor	 edx, DWORD PTR _a$[ebp]
  009ca	89 55 e8	 mov	 DWORD PTR _d$[ebp], edx
  009cd	8b 45 dc	 mov	 eax, DWORD PTR _e$[ebp]
  009d0	f7 d0		 not	 eax
  009d2	89 45 dc	 mov	 DWORD PTR _e$[ebp], eax
  009d5	8b 4d f0	 mov	 ecx, DWORD PTR _b$[ebp]
  009d8	23 4d e8	 and	 ecx, DWORD PTR _d$[ebp]
  009db	89 4d f0	 mov	 DWORD PTR _b$[ebp], ecx
  009de	8b 55 f0	 mov	 edx, DWORD PTR _b$[ebp]
  009e1	33 55 dc	 xor	 edx, DWORD PTR _e$[ebp]
  009e4	89 55 f0	 mov	 DWORD PTR _b$[ebp], edx
  009e7	8b 45 fc	 mov	 eax, DWORD PTR _a$[ebp]
  009ea	c1 e0 0d	 shl	 eax, 13			; 0000000dH
  009ed	8b 4d fc	 mov	 ecx, DWORD PTR _a$[ebp]
  009f0	c1 e9 13	 shr	 ecx, 19			; 00000013H
  009f3	0b c1		 or	 eax, ecx
  009f5	89 45 fc	 mov	 DWORD PTR _a$[ebp], eax
  009f8	8b 55 e8	 mov	 edx, DWORD PTR _d$[ebp]
  009fb	c1 e2 03	 shl	 edx, 3
  009fe	8b 45 e8	 mov	 eax, DWORD PTR _d$[ebp]
  00a01	c1 e8 1d	 shr	 eax, 29			; 0000001dH
  00a04	0b d0		 or	 edx, eax
  00a06	89 55 e8	 mov	 DWORD PTR _d$[ebp], edx
  00a09	8b 4d f0	 mov	 ecx, DWORD PTR _b$[ebp]
  00a0c	33 4d e8	 xor	 ecx, DWORD PTR _d$[ebp]
  00a0f	8b 55 fc	 mov	 edx, DWORD PTR _a$[ebp]
  00a12	c1 e2 03	 shl	 edx, 3
  00a15	33 ca		 xor	 ecx, edx
  00a17	c1 e1 07	 shl	 ecx, 7
  00a1a	8b 45 f0	 mov	 eax, DWORD PTR _b$[ebp]
  00a1d	33 45 e8	 xor	 eax, DWORD PTR _d$[ebp]
  00a20	8b 55 fc	 mov	 edx, DWORD PTR _a$[ebp]
  00a23	c1 e2 03	 shl	 edx, 3
  00a26	33 c2		 xor	 eax, edx
  00a28	c1 e8 19	 shr	 eax, 25			; 00000019H
  00a2b	0b c8		 or	 ecx, eax
  00a2d	89 4d f0	 mov	 DWORD PTR _b$[ebp], ecx
  00a30	8b 45 e4	 mov	 eax, DWORD PTR _c$[ebp]
  00a33	33 45 fc	 xor	 eax, DWORD PTR _a$[ebp]
  00a36	33 45 e8	 xor	 eax, DWORD PTR _d$[ebp]
  00a39	d1 e0		 shl	 eax, 1
  00a3b	8b 4d e4	 mov	 ecx, DWORD PTR _c$[ebp]
  00a3e	33 4d fc	 xor	 ecx, DWORD PTR _a$[ebp]
  00a41	33 4d e8	 xor	 ecx, DWORD PTR _d$[ebp]
  00a44	c1 e9 1f	 shr	 ecx, 31			; 0000001fH
  00a47	0b c1		 or	 eax, ecx
  00a49	89 45 e4	 mov	 DWORD PTR _c$[ebp], eax
  00a4c	8b 55 fc	 mov	 edx, DWORD PTR _a$[ebp]
  00a4f	33 55 e4	 xor	 edx, DWORD PTR _c$[ebp]
  00a52	33 55 f0	 xor	 edx, DWORD PTR _b$[ebp]
  00a55	c1 e2 05	 shl	 edx, 5
  00a58	8b 45 fc	 mov	 eax, DWORD PTR _a$[ebp]
  00a5b	33 45 e4	 xor	 eax, DWORD PTR _c$[ebp]
  00a5e	33 45 f0	 xor	 eax, DWORD PTR _b$[ebp]
  00a61	c1 e8 1b	 shr	 eax, 27			; 0000001bH
  00a64	0b d0		 or	 edx, eax
  00a66	89 55 fc	 mov	 DWORD PTR _a$[ebp], edx
  00a69	8b 4d e8	 mov	 ecx, DWORD PTR _d$[ebp]
  00a6c	33 4d f0	 xor	 ecx, DWORD PTR _b$[ebp]
  00a6f	8b 55 e4	 mov	 edx, DWORD PTR _c$[ebp]
  00a72	c1 e2 07	 shl	 edx, 7
  00a75	33 ca		 xor	 ecx, edx
  00a77	c1 e1 16	 shl	 ecx, 22			; 00000016H
  00a7a	8b 45 e8	 mov	 eax, DWORD PTR _d$[ebp]
  00a7d	33 45 f0	 xor	 eax, DWORD PTR _b$[ebp]
  00a80	8b 55 e4	 mov	 edx, DWORD PTR _c$[ebp]
  00a83	c1 e2 07	 shl	 edx, 7
  00a86	33 c2		 xor	 eax, edx
  00a88	c1 e8 0a	 shr	 eax, 10			; 0000000aH
  00a8b	0b c8		 or	 ecx, eax
  00a8d	89 4d e8	 mov	 DWORD PTR _d$[ebp], ecx

; 758  : 		afterS6(KX); afterS6(S7);

  00a90	8b 45 ec	 mov	 eax, DWORD PTR _k$[ebp]
  00a93	8b 4d fc	 mov	 ecx, DWORD PTR _a$[ebp]
  00a96	33 48 70	 xor	 ecx, DWORD PTR [eax+112]
  00a99	89 4d fc	 mov	 DWORD PTR _a$[ebp], ecx
  00a9c	8b 55 ec	 mov	 edx, DWORD PTR _k$[ebp]
  00a9f	8b 45 e4	 mov	 eax, DWORD PTR _c$[ebp]
  00aa2	33 42 74	 xor	 eax, DWORD PTR [edx+116]
  00aa5	89 45 e4	 mov	 DWORD PTR _c$[ebp], eax
  00aa8	8b 4d ec	 mov	 ecx, DWORD PTR _k$[ebp]
  00aab	8b 55 e8	 mov	 edx, DWORD PTR _d$[ebp]
  00aae	33 51 78	 xor	 edx, DWORD PTR [ecx+120]
  00ab1	89 55 e8	 mov	 DWORD PTR _d$[ebp], edx
  00ab4	8b 45 ec	 mov	 eax, DWORD PTR _k$[ebp]
  00ab7	8b 4d f0	 mov	 ecx, DWORD PTR _b$[ebp]
  00aba	33 48 7c	 xor	 ecx, DWORD PTR [eax+124]
  00abd	89 4d f0	 mov	 DWORD PTR _b$[ebp], ecx
  00ac0	8b 55 e8	 mov	 edx, DWORD PTR _d$[ebp]
  00ac3	89 55 dc	 mov	 DWORD PTR _e$[ebp], edx
  00ac6	8b 45 e8	 mov	 eax, DWORD PTR _d$[ebp]
  00ac9	23 45 e4	 and	 eax, DWORD PTR _c$[ebp]
  00acc	89 45 e8	 mov	 DWORD PTR _d$[ebp], eax
  00acf	8b 4d e8	 mov	 ecx, DWORD PTR _d$[ebp]
  00ad2	33 4d f0	 xor	 ecx, DWORD PTR _b$[ebp]
  00ad5	89 4d e8	 mov	 DWORD PTR _d$[ebp], ecx
  00ad8	8b 55 f0	 mov	 edx, DWORD PTR _b$[ebp]
  00adb	23 55 e4	 and	 edx, DWORD PTR _c$[ebp]
  00ade	89 55 f0	 mov	 DWORD PTR _b$[ebp], edx
  00ae1	8b 45 dc	 mov	 eax, DWORD PTR _e$[ebp]
  00ae4	33 45 e8	 xor	 eax, DWORD PTR _d$[ebp]
  00ae7	89 45 dc	 mov	 DWORD PTR _e$[ebp], eax
  00aea	8b 4d e8	 mov	 ecx, DWORD PTR _d$[ebp]
  00aed	33 4d e4	 xor	 ecx, DWORD PTR _c$[ebp]
  00af0	89 4d e8	 mov	 DWORD PTR _d$[ebp], ecx
  00af3	8b 55 e4	 mov	 edx, DWORD PTR _c$[ebp]
  00af6	33 55 fc	 xor	 edx, DWORD PTR _a$[ebp]
  00af9	89 55 e4	 mov	 DWORD PTR _c$[ebp], edx
  00afc	8b 45 fc	 mov	 eax, DWORD PTR _a$[ebp]
  00aff	0b 45 dc	 or	 eax, DWORD PTR _e$[ebp]
  00b02	89 45 fc	 mov	 DWORD PTR _a$[ebp], eax
  00b05	8b 4d fc	 mov	 ecx, DWORD PTR _a$[ebp]
  00b08	33 4d e8	 xor	 ecx, DWORD PTR _d$[ebp]
  00b0b	89 4d fc	 mov	 DWORD PTR _a$[ebp], ecx
  00b0e	8b 55 f0	 mov	 edx, DWORD PTR _b$[ebp]
  00b11	33 55 e4	 xor	 edx, DWORD PTR _c$[ebp]
  00b14	89 55 f0	 mov	 DWORD PTR _b$[ebp], edx
  00b17	8b 45 e8	 mov	 eax, DWORD PTR _d$[ebp]
  00b1a	33 45 f0	 xor	 eax, DWORD PTR _b$[ebp]
  00b1d	89 45 e8	 mov	 DWORD PTR _d$[ebp], eax
  00b20	8b 4d f0	 mov	 ecx, DWORD PTR _b$[ebp]
  00b23	23 4d fc	 and	 ecx, DWORD PTR _a$[ebp]
  00b26	89 4d f0	 mov	 DWORD PTR _b$[ebp], ecx
  00b29	8b 55 f0	 mov	 edx, DWORD PTR _b$[ebp]
  00b2c	33 55 dc	 xor	 edx, DWORD PTR _e$[ebp]
  00b2f	89 55 f0	 mov	 DWORD PTR _b$[ebp], edx
  00b32	8b 45 dc	 mov	 eax, DWORD PTR _e$[ebp]
  00b35	33 45 e8	 xor	 eax, DWORD PTR _d$[ebp]
  00b38	89 45 dc	 mov	 DWORD PTR _e$[ebp], eax
  00b3b	8b 4d e8	 mov	 ecx, DWORD PTR _d$[ebp]
  00b3e	23 4d fc	 and	 ecx, DWORD PTR _a$[ebp]
  00b41	89 4d e8	 mov	 DWORD PTR _d$[ebp], ecx
  00b44	8b 55 dc	 mov	 edx, DWORD PTR _e$[ebp]
  00b47	f7 d2		 not	 edx
  00b49	89 55 dc	 mov	 DWORD PTR _e$[ebp], edx
  00b4c	8b 45 e8	 mov	 eax, DWORD PTR _d$[ebp]
  00b4f	33 45 dc	 xor	 eax, DWORD PTR _e$[ebp]
  00b52	89 45 e8	 mov	 DWORD PTR _d$[ebp], eax
  00b55	8b 4d dc	 mov	 ecx, DWORD PTR _e$[ebp]
  00b58	23 4d fc	 and	 ecx, DWORD PTR _a$[ebp]
  00b5b	89 4d dc	 mov	 DWORD PTR _e$[ebp], ecx
  00b5e	8b 55 e4	 mov	 edx, DWORD PTR _c$[ebp]
  00b61	33 55 f0	 xor	 edx, DWORD PTR _b$[ebp]
  00b64	89 55 e4	 mov	 DWORD PTR _c$[ebp], edx
  00b67	8b 45 dc	 mov	 eax, DWORD PTR _e$[ebp]
  00b6a	33 45 e4	 xor	 eax, DWORD PTR _c$[ebp]
  00b6d	89 45 dc	 mov	 DWORD PTR _e$[ebp], eax

; 759  : 
; 760  : 		if (i == 4)

  00b70	83 7d f8 04	 cmp	 DWORD PTR _i$[ebp], 4
  00b74	75 05		 jne	 SHORT $LN1@serpent_en

; 761  : 			break;

  00b76	e9 e9 00 00 00	 jmp	 $LN2@serpent_en
$LN1@serpent_en:

; 762  : 
; 763  : 		++i;

  00b7b	8b 4d f8	 mov	 ecx, DWORD PTR _i$[ebp]
  00b7e	83 c1 01	 add	 ecx, 1
  00b81	89 4d f8	 mov	 DWORD PTR _i$[ebp], ecx

; 764  : 		c = b;

  00b84	8b 55 f0	 mov	 edx, DWORD PTR _b$[ebp]
  00b87	89 55 e4	 mov	 DWORD PTR _c$[ebp], edx

; 765  : 		b = e;

  00b8a	8b 45 dc	 mov	 eax, DWORD PTR _e$[ebp]
  00b8d	89 45 f0	 mov	 DWORD PTR _b$[ebp], eax

; 766  : 		e = d;

  00b90	8b 4d e8	 mov	 ecx, DWORD PTR _d$[ebp]
  00b93	89 4d dc	 mov	 DWORD PTR _e$[ebp], ecx

; 767  : 		d = a;

  00b96	8b 55 fc	 mov	 edx, DWORD PTR _a$[ebp]
  00b99	89 55 e8	 mov	 DWORD PTR _d$[ebp], edx

; 768  : 		a = e;

  00b9c	8b 45 dc	 mov	 eax, DWORD PTR _e$[ebp]
  00b9f	89 45 fc	 mov	 DWORD PTR _a$[ebp], eax

; 769  : 		k += 32;

  00ba2	8b 4d ec	 mov	 ecx, DWORD PTR _k$[ebp]
  00ba5	81 c1 80 00 00
	00		 add	 ecx, 128		; 00000080H
  00bab	89 4d ec	 mov	 DWORD PTR _k$[ebp], ecx

; 770  : 		beforeS0(LT);

  00bae	8b 55 fc	 mov	 edx, DWORD PTR _a$[ebp]
  00bb1	c1 e2 0d	 shl	 edx, 13			; 0000000dH
  00bb4	8b 45 fc	 mov	 eax, DWORD PTR _a$[ebp]
  00bb7	c1 e8 13	 shr	 eax, 19			; 00000013H
  00bba	0b d0		 or	 edx, eax
  00bbc	89 55 fc	 mov	 DWORD PTR _a$[ebp], edx
  00bbf	8b 4d e4	 mov	 ecx, DWORD PTR _c$[ebp]
  00bc2	c1 e1 03	 shl	 ecx, 3
  00bc5	8b 55 e4	 mov	 edx, DWORD PTR _c$[ebp]
  00bc8	c1 ea 1d	 shr	 edx, 29			; 0000001dH
  00bcb	0b ca		 or	 ecx, edx
  00bcd	89 4d e4	 mov	 DWORD PTR _c$[ebp], ecx
  00bd0	8b 45 e8	 mov	 eax, DWORD PTR _d$[ebp]
  00bd3	33 45 e4	 xor	 eax, DWORD PTR _c$[ebp]
  00bd6	8b 4d fc	 mov	 ecx, DWORD PTR _a$[ebp]
  00bd9	c1 e1 03	 shl	 ecx, 3
  00bdc	33 c1		 xor	 eax, ecx
  00bde	c1 e0 07	 shl	 eax, 7
  00be1	8b 55 e8	 mov	 edx, DWORD PTR _d$[ebp]
  00be4	33 55 e4	 xor	 edx, DWORD PTR _c$[ebp]
  00be7	8b 4d fc	 mov	 ecx, DWORD PTR _a$[ebp]
  00bea	c1 e1 03	 shl	 ecx, 3
  00bed	33 d1		 xor	 edx, ecx
  00bef	c1 ea 19	 shr	 edx, 25			; 00000019H
  00bf2	0b c2		 or	 eax, edx
  00bf4	89 45 e8	 mov	 DWORD PTR _d$[ebp], eax
  00bf7	8b 55 f0	 mov	 edx, DWORD PTR _b$[ebp]
  00bfa	33 55 fc	 xor	 edx, DWORD PTR _a$[ebp]
  00bfd	33 55 e4	 xor	 edx, DWORD PTR _c$[ebp]
  00c00	d1 e2		 shl	 edx, 1
  00c02	8b 45 f0	 mov	 eax, DWORD PTR _b$[ebp]
  00c05	33 45 fc	 xor	 eax, DWORD PTR _a$[ebp]
  00c08	33 45 e4	 xor	 eax, DWORD PTR _c$[ebp]
  00c0b	c1 e8 1f	 shr	 eax, 31			; 0000001fH
  00c0e	0b d0		 or	 edx, eax
  00c10	89 55 f0	 mov	 DWORD PTR _b$[ebp], edx
  00c13	8b 4d fc	 mov	 ecx, DWORD PTR _a$[ebp]
  00c16	33 4d f0	 xor	 ecx, DWORD PTR _b$[ebp]
  00c19	33 4d e8	 xor	 ecx, DWORD PTR _d$[ebp]
  00c1c	c1 e1 05	 shl	 ecx, 5
  00c1f	8b 55 fc	 mov	 edx, DWORD PTR _a$[ebp]
  00c22	33 55 f0	 xor	 edx, DWORD PTR _b$[ebp]
  00c25	33 55 e8	 xor	 edx, DWORD PTR _d$[ebp]
  00c28	c1 ea 1b	 shr	 edx, 27			; 0000001bH
  00c2b	0b ca		 or	 ecx, edx
  00c2d	89 4d fc	 mov	 DWORD PTR _a$[ebp], ecx
  00c30	8b 45 e4	 mov	 eax, DWORD PTR _c$[ebp]
  00c33	33 45 e8	 xor	 eax, DWORD PTR _d$[ebp]
  00c36	8b 4d f0	 mov	 ecx, DWORD PTR _b$[ebp]
  00c39	c1 e1 07	 shl	 ecx, 7
  00c3c	33 c1		 xor	 eax, ecx
  00c3e	c1 e0 16	 shl	 eax, 22			; 00000016H
  00c41	8b 55 e4	 mov	 edx, DWORD PTR _c$[ebp]
  00c44	33 55 e8	 xor	 edx, DWORD PTR _d$[ebp]
  00c47	8b 4d f0	 mov	 ecx, DWORD PTR _b$[ebp]
  00c4a	c1 e1 07	 shl	 ecx, 7
  00c4d	33 d1		 xor	 edx, ecx
  00c4f	c1 ea 0a	 shr	 edx, 10			; 0000000aH
  00c52	0b c2		 or	 eax, edx
  00c54	89 45 e4	 mov	 DWORD PTR _c$[ebp], eax

; 771  : 	}
; 772  : 	while (1);

  00c57	ba 01 00 00 00	 mov	 edx, 1
  00c5c	85 d2		 test	 edx, edx
  00c5e	0f 85 e3 f3 ff
	ff		 jne	 $LN4@serpent_en
$LN2@serpent_en:

; 773  : 
; 774  : 	afterS7(KX);

  00c64	8b 45 ec	 mov	 eax, DWORD PTR _k$[ebp]
  00c67	8b 4d e8	 mov	 ecx, DWORD PTR _d$[ebp]
  00c6a	33 88 80 00 00
	00		 xor	 ecx, DWORD PTR [eax+128]
  00c70	89 4d e8	 mov	 DWORD PTR _d$[ebp], ecx
  00c73	8b 55 ec	 mov	 edx, DWORD PTR _k$[ebp]
  00c76	8b 45 dc	 mov	 eax, DWORD PTR _e$[ebp]
  00c79	33 82 84 00 00
	00		 xor	 eax, DWORD PTR [edx+132]
  00c7f	89 45 dc	 mov	 DWORD PTR _e$[ebp], eax
  00c82	8b 4d ec	 mov	 ecx, DWORD PTR _k$[ebp]
  00c85	8b 55 f0	 mov	 edx, DWORD PTR _b$[ebp]
  00c88	33 91 88 00 00
	00		 xor	 edx, DWORD PTR [ecx+136]
  00c8e	89 55 f0	 mov	 DWORD PTR _b$[ebp], edx
  00c91	8b 45 ec	 mov	 eax, DWORD PTR _k$[ebp]
  00c94	8b 4d fc	 mov	 ecx, DWORD PTR _a$[ebp]
  00c97	33 88 8c 00 00
	00		 xor	 ecx, DWORD PTR [eax+140]
  00c9d	89 4d fc	 mov	 DWORD PTR _a$[ebp], ecx

; 775  : 	
; 776  :     out[0] = LE32(d);

  00ca0	8b 55 e0	 mov	 edx, DWORD PTR _out$[ebp]
  00ca3	8b 45 e8	 mov	 eax, DWORD PTR _d$[ebp]
  00ca6	89 02		 mov	 DWORD PTR [edx], eax

; 777  : 	out[1] = LE32(e);

  00ca8	8b 4d e0	 mov	 ecx, DWORD PTR _out$[ebp]
  00cab	8b 55 dc	 mov	 edx, DWORD PTR _e$[ebp]
  00cae	89 51 04	 mov	 DWORD PTR [ecx+4], edx

; 778  : 	out[2] = LE32(b);

  00cb1	8b 45 e0	 mov	 eax, DWORD PTR _out$[ebp]
  00cb4	8b 4d f0	 mov	 ecx, DWORD PTR _b$[ebp]
  00cb7	89 48 08	 mov	 DWORD PTR [eax+8], ecx

; 779  : 	out[3] = LE32(a);

  00cba	8b 55 e0	 mov	 edx, DWORD PTR _out$[ebp]
  00cbd	8b 45 fc	 mov	 eax, DWORD PTR _a$[ebp]
  00cc0	89 42 0c	 mov	 DWORD PTR [edx+12], eax

; 780  : }

  00cc3	8b e5		 mov	 esp, ebp
  00cc5	5d		 pop	 ebp
  00cc6	c2 0c 00	 ret	 12			; 0000000cH
_serpent_encrypt@12 ENDP
_TEXT	ENDS
PUBLIC	_serpent_decrypt@12
; Function compile flags: /Odtp
;	COMDAT _serpent_decrypt@12
_TEXT	SEGMENT
_e$ = -36						; size = 4
_out$ = -32						; size = 4
_c$ = -28						; size = 4
_d$ = -24						; size = 4
_k$ = -20						; size = 4
_b$ = -16						; size = 4
_in$ = -12						; size = 4
_i$ = -8						; size = 4
_a$ = -4						; size = 4
_inBlock$ = 8						; size = 4
_outBlock$ = 12						; size = 4
_ks$ = 16						; size = 4
_serpent_decrypt@12 PROC				; COMDAT

; 847  : {

  00000	8b ff		 npad	 2
  00002	55		 push	 ebp
  00003	8b ec		 mov	 ebp, esp
  00005	83 ec 24	 sub	 esp, 36			; 00000024H

; 848  : 	unsigned __int32 a, b, c, d, e;
; 849  : 	const unsigned __int32 *k = (unsigned __int32 *)ks + 104;

  00008	8b 45 10	 mov	 eax, DWORD PTR _ks$[ebp]
  0000b	05 a0 01 00 00	 add	 eax, 416		; 000001a0H
  00010	89 45 ec	 mov	 DWORD PTR _k$[ebp], eax

; 850  : 	unsigned int i=4;

  00013	c7 45 f8 04 00
	00 00		 mov	 DWORD PTR _i$[ebp], 4

; 851  : 	unsigned __int32 *in = (unsigned __int32 *) inBlock;

  0001a	8b 4d 08	 mov	 ecx, DWORD PTR _inBlock$[ebp]
  0001d	89 4d f4	 mov	 DWORD PTR _in$[ebp], ecx

; 852  : 	unsigned __int32 *out = (unsigned __int32 *) outBlock;

  00020	8b 55 0c	 mov	 edx, DWORD PTR _outBlock$[ebp]
  00023	89 55 e0	 mov	 DWORD PTR _out$[ebp], edx

; 853  : 
; 854  :     a = LE32(in[0]);

  00026	8b 45 f4	 mov	 eax, DWORD PTR _in$[ebp]
  00029	8b 08		 mov	 ecx, DWORD PTR [eax]
  0002b	89 4d fc	 mov	 DWORD PTR _a$[ebp], ecx

; 855  : 	b = LE32(in[1]);

  0002e	8b 55 f4	 mov	 edx, DWORD PTR _in$[ebp]
  00031	8b 42 04	 mov	 eax, DWORD PTR [edx+4]
  00034	89 45 f0	 mov	 DWORD PTR _b$[ebp], eax

; 856  : 	c = LE32(in[2]);

  00037	8b 4d f4	 mov	 ecx, DWORD PTR _in$[ebp]
  0003a	8b 51 08	 mov	 edx, DWORD PTR [ecx+8]
  0003d	89 55 e4	 mov	 DWORD PTR _c$[ebp], edx

; 857  : 	d = LE32(in[3]);

  00040	8b 45 f4	 mov	 eax, DWORD PTR _in$[ebp]
  00043	8b 48 0c	 mov	 ecx, DWORD PTR [eax+12]
  00046	89 4d e8	 mov	 DWORD PTR _d$[ebp], ecx

; 858  : 
; 859  : 	beforeI7(KX);

  00049	8b 55 ec	 mov	 edx, DWORD PTR _k$[ebp]
  0004c	8b 45 fc	 mov	 eax, DWORD PTR _a$[ebp]
  0004f	33 82 80 00 00
	00		 xor	 eax, DWORD PTR [edx+128]
  00055	89 45 fc	 mov	 DWORD PTR _a$[ebp], eax
  00058	8b 4d ec	 mov	 ecx, DWORD PTR _k$[ebp]
  0005b	8b 55 f0	 mov	 edx, DWORD PTR _b$[ebp]
  0005e	33 91 84 00 00
	00		 xor	 edx, DWORD PTR [ecx+132]
  00064	89 55 f0	 mov	 DWORD PTR _b$[ebp], edx
  00067	8b 45 ec	 mov	 eax, DWORD PTR _k$[ebp]
  0006a	8b 4d e4	 mov	 ecx, DWORD PTR _c$[ebp]
  0006d	33 88 88 00 00
	00		 xor	 ecx, DWORD PTR [eax+136]
  00073	89 4d e4	 mov	 DWORD PTR _c$[ebp], ecx
  00076	8b 55 ec	 mov	 edx, DWORD PTR _k$[ebp]
  00079	8b 45 e8	 mov	 eax, DWORD PTR _d$[ebp]
  0007c	33 82 8c 00 00
	00		 xor	 eax, DWORD PTR [edx+140]
  00082	89 45 e8	 mov	 DWORD PTR _d$[ebp], eax

; 860  : 	goto start;

  00085	e9 b5 00 00 00	 jmp	 $start$24853
$LN3@serpent_de:

; 861  : 
; 862  : 	do
; 863  : 	{
; 864  : 		c = b;

  0008a	8b 4d f0	 mov	 ecx, DWORD PTR _b$[ebp]
  0008d	89 4d e4	 mov	 DWORD PTR _c$[ebp], ecx

; 865  : 		b = d;

  00090	8b 55 e8	 mov	 edx, DWORD PTR _d$[ebp]
  00093	89 55 f0	 mov	 DWORD PTR _b$[ebp], edx

; 866  : 		d = e;

  00096	8b 45 dc	 mov	 eax, DWORD PTR _e$[ebp]
  00099	89 45 e8	 mov	 DWORD PTR _d$[ebp], eax

; 867  : 		k -= 32;

  0009c	8b 4d ec	 mov	 ecx, DWORD PTR _k$[ebp]
  0009f	81 e9 80 00 00
	00		 sub	 ecx, 128		; 00000080H
  000a5	89 4d ec	 mov	 DWORD PTR _k$[ebp], ecx

; 868  : 		beforeI7(ILT);

  000a8	8b 55 e4	 mov	 edx, DWORD PTR _c$[ebp]
  000ab	c1 ea 16	 shr	 edx, 22			; 00000016H
  000ae	8b 45 e4	 mov	 eax, DWORD PTR _c$[ebp]
  000b1	c1 e0 0a	 shl	 eax, 10			; 0000000aH
  000b4	0b d0		 or	 edx, eax
  000b6	89 55 e4	 mov	 DWORD PTR _c$[ebp], edx
  000b9	8b 4d fc	 mov	 ecx, DWORD PTR _a$[ebp]
  000bc	c1 e9 05	 shr	 ecx, 5
  000bf	8b 55 fc	 mov	 edx, DWORD PTR _a$[ebp]
  000c2	c1 e2 1b	 shl	 edx, 27			; 0000001bH
  000c5	0b ca		 or	 ecx, edx
  000c7	89 4d fc	 mov	 DWORD PTR _a$[ebp], ecx
  000ca	8b 45 f0	 mov	 eax, DWORD PTR _b$[ebp]
  000cd	c1 e0 07	 shl	 eax, 7
  000d0	33 45 e8	 xor	 eax, DWORD PTR _d$[ebp]
  000d3	33 45 e4	 xor	 eax, DWORD PTR _c$[ebp]
  000d6	89 45 e4	 mov	 DWORD PTR _c$[ebp], eax
  000d9	8b 4d f0	 mov	 ecx, DWORD PTR _b$[ebp]
  000dc	33 4d e8	 xor	 ecx, DWORD PTR _d$[ebp]
  000df	33 4d fc	 xor	 ecx, DWORD PTR _a$[ebp]
  000e2	89 4d fc	 mov	 DWORD PTR _a$[ebp], ecx
  000e5	8b 55 f0	 mov	 edx, DWORD PTR _b$[ebp]
  000e8	d1 ea		 shr	 edx, 1
  000ea	8b 45 f0	 mov	 eax, DWORD PTR _b$[ebp]
  000ed	c1 e0 1f	 shl	 eax, 31			; 0000001fH
  000f0	0b d0		 or	 edx, eax
  000f2	89 55 f0	 mov	 DWORD PTR _b$[ebp], edx
  000f5	8b 4d e8	 mov	 ecx, DWORD PTR _d$[ebp]
  000f8	c1 e9 07	 shr	 ecx, 7
  000fb	8b 55 e8	 mov	 edx, DWORD PTR _d$[ebp]
  000fe	c1 e2 19	 shl	 edx, 25			; 00000019H
  00101	0b ca		 or	 ecx, edx
  00103	33 4d e4	 xor	 ecx, DWORD PTR _c$[ebp]
  00106	8b 45 fc	 mov	 eax, DWORD PTR _a$[ebp]
  00109	c1 e0 03	 shl	 eax, 3
  0010c	33 c8		 xor	 ecx, eax
  0010e	89 4d e8	 mov	 DWORD PTR _d$[ebp], ecx
  00111	8b 4d fc	 mov	 ecx, DWORD PTR _a$[ebp]
  00114	33 4d e4	 xor	 ecx, DWORD PTR _c$[ebp]
  00117	33 4d f0	 xor	 ecx, DWORD PTR _b$[ebp]
  0011a	89 4d f0	 mov	 DWORD PTR _b$[ebp], ecx
  0011d	8b 55 e4	 mov	 edx, DWORD PTR _c$[ebp]
  00120	c1 ea 03	 shr	 edx, 3
  00123	8b 45 e4	 mov	 eax, DWORD PTR _c$[ebp]
  00126	c1 e0 1d	 shl	 eax, 29			; 0000001dH
  00129	0b d0		 or	 edx, eax
  0012b	89 55 e4	 mov	 DWORD PTR _c$[ebp], edx
  0012e	8b 4d fc	 mov	 ecx, DWORD PTR _a$[ebp]
  00131	c1 e9 0d	 shr	 ecx, 13			; 0000000dH
  00134	8b 55 fc	 mov	 edx, DWORD PTR _a$[ebp]
  00137	c1 e2 13	 shl	 edx, 19			; 00000013H
  0013a	0b ca		 or	 ecx, edx
  0013c	89 4d fc	 mov	 DWORD PTR _a$[ebp], ecx
$start$24853:

; 869  : start:
; 870  : 		beforeI7(I7); afterI7(KX); 

  0013f	8b 45 e4	 mov	 eax, DWORD PTR _c$[ebp]
  00142	89 45 dc	 mov	 DWORD PTR _e$[ebp], eax
  00145	8b 4d e4	 mov	 ecx, DWORD PTR _c$[ebp]
  00148	33 4d fc	 xor	 ecx, DWORD PTR _a$[ebp]
  0014b	89 4d e4	 mov	 DWORD PTR _c$[ebp], ecx
  0014e	8b 55 fc	 mov	 edx, DWORD PTR _a$[ebp]
  00151	23 55 e8	 and	 edx, DWORD PTR _d$[ebp]
  00154	89 55 fc	 mov	 DWORD PTR _a$[ebp], edx
  00157	8b 45 e4	 mov	 eax, DWORD PTR _c$[ebp]
  0015a	f7 d0		 not	 eax
  0015c	89 45 e4	 mov	 DWORD PTR _c$[ebp], eax
  0015f	8b 4d dc	 mov	 ecx, DWORD PTR _e$[ebp]
  00162	0b 4d e8	 or	 ecx, DWORD PTR _d$[ebp]
  00165	89 4d dc	 mov	 DWORD PTR _e$[ebp], ecx
  00168	8b 55 e8	 mov	 edx, DWORD PTR _d$[ebp]
  0016b	33 55 f0	 xor	 edx, DWORD PTR _b$[ebp]
  0016e	89 55 e8	 mov	 DWORD PTR _d$[ebp], edx
  00171	8b 45 f0	 mov	 eax, DWORD PTR _b$[ebp]
  00174	0b 45 fc	 or	 eax, DWORD PTR _a$[ebp]
  00177	89 45 f0	 mov	 DWORD PTR _b$[ebp], eax
  0017a	8b 4d fc	 mov	 ecx, DWORD PTR _a$[ebp]
  0017d	33 4d e4	 xor	 ecx, DWORD PTR _c$[ebp]
  00180	89 4d fc	 mov	 DWORD PTR _a$[ebp], ecx
  00183	8b 55 e4	 mov	 edx, DWORD PTR _c$[ebp]
  00186	23 55 dc	 and	 edx, DWORD PTR _e$[ebp]
  00189	89 55 e4	 mov	 DWORD PTR _c$[ebp], edx
  0018c	8b 45 f0	 mov	 eax, DWORD PTR _b$[ebp]
  0018f	33 45 e4	 xor	 eax, DWORD PTR _c$[ebp]
  00192	89 45 f0	 mov	 DWORD PTR _b$[ebp], eax
  00195	8b 4d e4	 mov	 ecx, DWORD PTR _c$[ebp]
  00198	33 4d fc	 xor	 ecx, DWORD PTR _a$[ebp]
  0019b	89 4d e4	 mov	 DWORD PTR _c$[ebp], ecx
  0019e	8b 55 fc	 mov	 edx, DWORD PTR _a$[ebp]
  001a1	0b 55 e4	 or	 edx, DWORD PTR _c$[ebp]
  001a4	89 55 fc	 mov	 DWORD PTR _a$[ebp], edx
  001a7	8b 45 e8	 mov	 eax, DWORD PTR _d$[ebp]
  001aa	23 45 dc	 and	 eax, DWORD PTR _e$[ebp]
  001ad	89 45 e8	 mov	 DWORD PTR _d$[ebp], eax
  001b0	8b 4d fc	 mov	 ecx, DWORD PTR _a$[ebp]
  001b3	33 4d e8	 xor	 ecx, DWORD PTR _d$[ebp]
  001b6	89 4d fc	 mov	 DWORD PTR _a$[ebp], ecx
  001b9	8b 55 dc	 mov	 edx, DWORD PTR _e$[ebp]
  001bc	33 55 f0	 xor	 edx, DWORD PTR _b$[ebp]
  001bf	89 55 dc	 mov	 DWORD PTR _e$[ebp], edx
  001c2	8b 45 e8	 mov	 eax, DWORD PTR _d$[ebp]
  001c5	33 45 dc	 xor	 eax, DWORD PTR _e$[ebp]
  001c8	89 45 e8	 mov	 DWORD PTR _d$[ebp], eax
  001cb	8b 4d dc	 mov	 ecx, DWORD PTR _e$[ebp]
  001ce	0b 4d fc	 or	 ecx, DWORD PTR _a$[ebp]
  001d1	89 4d dc	 mov	 DWORD PTR _e$[ebp], ecx
  001d4	8b 55 e8	 mov	 edx, DWORD PTR _d$[ebp]
  001d7	33 55 e4	 xor	 edx, DWORD PTR _c$[ebp]
  001da	89 55 e8	 mov	 DWORD PTR _d$[ebp], edx
  001dd	8b 45 dc	 mov	 eax, DWORD PTR _e$[ebp]
  001e0	33 45 e4	 xor	 eax, DWORD PTR _c$[ebp]
  001e3	89 45 dc	 mov	 DWORD PTR _e$[ebp], eax
  001e6	8b 4d ec	 mov	 ecx, DWORD PTR _k$[ebp]
  001e9	8b 55 e8	 mov	 edx, DWORD PTR _d$[ebp]
  001ec	33 51 70	 xor	 edx, DWORD PTR [ecx+112]
  001ef	89 55 e8	 mov	 DWORD PTR _d$[ebp], edx
  001f2	8b 45 ec	 mov	 eax, DWORD PTR _k$[ebp]
  001f5	8b 4d fc	 mov	 ecx, DWORD PTR _a$[ebp]
  001f8	33 48 74	 xor	 ecx, DWORD PTR [eax+116]
  001fb	89 4d fc	 mov	 DWORD PTR _a$[ebp], ecx
  001fe	8b 55 ec	 mov	 edx, DWORD PTR _k$[ebp]
  00201	8b 45 f0	 mov	 eax, DWORD PTR _b$[ebp]
  00204	33 42 78	 xor	 eax, DWORD PTR [edx+120]
  00207	89 45 f0	 mov	 DWORD PTR _b$[ebp], eax
  0020a	8b 4d ec	 mov	 ecx, DWORD PTR _k$[ebp]
  0020d	8b 55 dc	 mov	 edx, DWORD PTR _e$[ebp]
  00210	33 51 7c	 xor	 edx, DWORD PTR [ecx+124]
  00213	89 55 dc	 mov	 DWORD PTR _e$[ebp], edx

; 871  : 		afterI7(ILT); afterI7(I6); afterI6(KX); 

  00216	8b 45 f0	 mov	 eax, DWORD PTR _b$[ebp]
  00219	c1 e8 16	 shr	 eax, 22			; 00000016H
  0021c	8b 4d f0	 mov	 ecx, DWORD PTR _b$[ebp]
  0021f	c1 e1 0a	 shl	 ecx, 10			; 0000000aH
  00222	0b c1		 or	 eax, ecx
  00224	89 45 f0	 mov	 DWORD PTR _b$[ebp], eax
  00227	8b 55 e8	 mov	 edx, DWORD PTR _d$[ebp]
  0022a	c1 ea 05	 shr	 edx, 5
  0022d	8b 45 e8	 mov	 eax, DWORD PTR _d$[ebp]
  00230	c1 e0 1b	 shl	 eax, 27			; 0000001bH
  00233	0b d0		 or	 edx, eax
  00235	89 55 e8	 mov	 DWORD PTR _d$[ebp], edx
  00238	8b 4d fc	 mov	 ecx, DWORD PTR _a$[ebp]
  0023b	c1 e1 07	 shl	 ecx, 7
  0023e	33 4d dc	 xor	 ecx, DWORD PTR _e$[ebp]
  00241	33 4d f0	 xor	 ecx, DWORD PTR _b$[ebp]
  00244	89 4d f0	 mov	 DWORD PTR _b$[ebp], ecx
  00247	8b 55 fc	 mov	 edx, DWORD PTR _a$[ebp]
  0024a	33 55 dc	 xor	 edx, DWORD PTR _e$[ebp]
  0024d	33 55 e8	 xor	 edx, DWORD PTR _d$[ebp]
  00250	89 55 e8	 mov	 DWORD PTR _d$[ebp], edx
  00253	8b 45 fc	 mov	 eax, DWORD PTR _a$[ebp]
  00256	d1 e8		 shr	 eax, 1
  00258	8b 4d fc	 mov	 ecx, DWORD PTR _a$[ebp]
  0025b	c1 e1 1f	 shl	 ecx, 31			; 0000001fH
  0025e	0b c1		 or	 eax, ecx
  00260	89 45 fc	 mov	 DWORD PTR _a$[ebp], eax
  00263	8b 55 dc	 mov	 edx, DWORD PTR _e$[ebp]
  00266	c1 ea 07	 shr	 edx, 7
  00269	8b 45 dc	 mov	 eax, DWORD PTR _e$[ebp]
  0026c	c1 e0 19	 shl	 eax, 25			; 00000019H
  0026f	0b d0		 or	 edx, eax
  00271	33 55 f0	 xor	 edx, DWORD PTR _b$[ebp]
  00274	8b 4d e8	 mov	 ecx, DWORD PTR _d$[ebp]
  00277	c1 e1 03	 shl	 ecx, 3
  0027a	33 d1		 xor	 edx, ecx
  0027c	89 55 dc	 mov	 DWORD PTR _e$[ebp], edx
  0027f	8b 55 e8	 mov	 edx, DWORD PTR _d$[ebp]
  00282	33 55 f0	 xor	 edx, DWORD PTR _b$[ebp]
  00285	33 55 fc	 xor	 edx, DWORD PTR _a$[ebp]
  00288	89 55 fc	 mov	 DWORD PTR _a$[ebp], edx
  0028b	8b 45 f0	 mov	 eax, DWORD PTR _b$[ebp]
  0028e	c1 e8 03	 shr	 eax, 3
  00291	8b 4d f0	 mov	 ecx, DWORD PTR _b$[ebp]
  00294	c1 e1 1d	 shl	 ecx, 29			; 0000001dH
  00297	0b c1		 or	 eax, ecx
  00299	89 45 f0	 mov	 DWORD PTR _b$[ebp], eax
  0029c	8b 55 e8	 mov	 edx, DWORD PTR _d$[ebp]
  0029f	c1 ea 0d	 shr	 edx, 13			; 0000000dH
  002a2	8b 45 e8	 mov	 eax, DWORD PTR _d$[ebp]
  002a5	c1 e0 13	 shl	 eax, 19			; 00000013H
  002a8	0b d0		 or	 edx, eax
  002aa	89 55 e8	 mov	 DWORD PTR _d$[ebp], edx
  002ad	8b 4d e8	 mov	 ecx, DWORD PTR _d$[ebp]
  002b0	33 4d f0	 xor	 ecx, DWORD PTR _b$[ebp]
  002b3	89 4d e8	 mov	 DWORD PTR _d$[ebp], ecx
  002b6	8b 55 f0	 mov	 edx, DWORD PTR _b$[ebp]
  002b9	89 55 e4	 mov	 DWORD PTR _c$[ebp], edx
  002bc	8b 45 f0	 mov	 eax, DWORD PTR _b$[ebp]
  002bf	23 45 e8	 and	 eax, DWORD PTR _d$[ebp]
  002c2	89 45 f0	 mov	 DWORD PTR _b$[ebp], eax
  002c5	8b 4d e4	 mov	 ecx, DWORD PTR _c$[ebp]
  002c8	33 4d dc	 xor	 ecx, DWORD PTR _e$[ebp]
  002cb	89 4d e4	 mov	 DWORD PTR _c$[ebp], ecx
  002ce	8b 55 f0	 mov	 edx, DWORD PTR _b$[ebp]
  002d1	f7 d2		 not	 edx
  002d3	89 55 f0	 mov	 DWORD PTR _b$[ebp], edx
  002d6	8b 45 dc	 mov	 eax, DWORD PTR _e$[ebp]
  002d9	33 45 fc	 xor	 eax, DWORD PTR _a$[ebp]
  002dc	89 45 dc	 mov	 DWORD PTR _e$[ebp], eax
  002df	8b 4d f0	 mov	 ecx, DWORD PTR _b$[ebp]
  002e2	33 4d dc	 xor	 ecx, DWORD PTR _e$[ebp]
  002e5	89 4d f0	 mov	 DWORD PTR _b$[ebp], ecx
  002e8	8b 55 e4	 mov	 edx, DWORD PTR _c$[ebp]
  002eb	0b 55 e8	 or	 edx, DWORD PTR _d$[ebp]
  002ee	89 55 e4	 mov	 DWORD PTR _c$[ebp], edx
  002f1	8b 45 e8	 mov	 eax, DWORD PTR _d$[ebp]
  002f4	33 45 f0	 xor	 eax, DWORD PTR _b$[ebp]
  002f7	89 45 e8	 mov	 DWORD PTR _d$[ebp], eax
  002fa	8b 4d dc	 mov	 ecx, DWORD PTR _e$[ebp]
  002fd	33 4d e4	 xor	 ecx, DWORD PTR _c$[ebp]
  00300	89 4d dc	 mov	 DWORD PTR _e$[ebp], ecx
  00303	8b 55 e4	 mov	 edx, DWORD PTR _c$[ebp]
  00306	33 55 fc	 xor	 edx, DWORD PTR _a$[ebp]
  00309	89 55 e4	 mov	 DWORD PTR _c$[ebp], edx
  0030c	8b 45 fc	 mov	 eax, DWORD PTR _a$[ebp]
  0030f	23 45 dc	 and	 eax, DWORD PTR _e$[ebp]
  00312	89 45 fc	 mov	 DWORD PTR _a$[ebp], eax
  00315	8b 4d fc	 mov	 ecx, DWORD PTR _a$[ebp]
  00318	33 4d e8	 xor	 ecx, DWORD PTR _d$[ebp]
  0031b	89 4d fc	 mov	 DWORD PTR _a$[ebp], ecx
  0031e	8b 55 e8	 mov	 edx, DWORD PTR _d$[ebp]
  00321	33 55 dc	 xor	 edx, DWORD PTR _e$[ebp]
  00324	89 55 e8	 mov	 DWORD PTR _d$[ebp], edx
  00327	8b 45 e8	 mov	 eax, DWORD PTR _d$[ebp]
  0032a	0b 45 f0	 or	 eax, DWORD PTR _b$[ebp]
  0032d	89 45 e8	 mov	 DWORD PTR _d$[ebp], eax
  00330	8b 4d dc	 mov	 ecx, DWORD PTR _e$[ebp]
  00333	33 4d fc	 xor	 ecx, DWORD PTR _a$[ebp]
  00336	89 4d dc	 mov	 DWORD PTR _e$[ebp], ecx
  00339	8b 55 e4	 mov	 edx, DWORD PTR _c$[ebp]
  0033c	33 55 e8	 xor	 edx, DWORD PTR _d$[ebp]
  0033f	89 55 e4	 mov	 DWORD PTR _c$[ebp], edx
  00342	8b 45 ec	 mov	 eax, DWORD PTR _k$[ebp]
  00345	8b 4d fc	 mov	 ecx, DWORD PTR _a$[ebp]
  00348	33 48 60	 xor	 ecx, DWORD PTR [eax+96]
  0034b	89 4d fc	 mov	 DWORD PTR _a$[ebp], ecx
  0034e	8b 55 ec	 mov	 edx, DWORD PTR _k$[ebp]
  00351	8b 45 f0	 mov	 eax, DWORD PTR _b$[ebp]
  00354	33 42 64	 xor	 eax, DWORD PTR [edx+100]
  00357	89 45 f0	 mov	 DWORD PTR _b$[ebp], eax
  0035a	8b 4d ec	 mov	 ecx, DWORD PTR _k$[ebp]
  0035d	8b 55 e4	 mov	 edx, DWORD PTR _c$[ebp]
  00360	33 51 68	 xor	 edx, DWORD PTR [ecx+104]
  00363	89 55 e4	 mov	 DWORD PTR _c$[ebp], edx
  00366	8b 45 ec	 mov	 eax, DWORD PTR _k$[ebp]
  00369	8b 4d dc	 mov	 ecx, DWORD PTR _e$[ebp]
  0036c	33 48 6c	 xor	 ecx, DWORD PTR [eax+108]
  0036f	89 4d dc	 mov	 DWORD PTR _e$[ebp], ecx

; 872  : 		afterI6(ILT); afterI6(I5); afterI5(KX); 

  00372	8b 55 e4	 mov	 edx, DWORD PTR _c$[ebp]
  00375	c1 ea 16	 shr	 edx, 22			; 00000016H
  00378	8b 45 e4	 mov	 eax, DWORD PTR _c$[ebp]
  0037b	c1 e0 0a	 shl	 eax, 10			; 0000000aH
  0037e	0b d0		 or	 edx, eax
  00380	89 55 e4	 mov	 DWORD PTR _c$[ebp], edx
  00383	8b 4d fc	 mov	 ecx, DWORD PTR _a$[ebp]
  00386	c1 e9 05	 shr	 ecx, 5
  00389	8b 55 fc	 mov	 edx, DWORD PTR _a$[ebp]
  0038c	c1 e2 1b	 shl	 edx, 27			; 0000001bH
  0038f	0b ca		 or	 ecx, edx
  00391	89 4d fc	 mov	 DWORD PTR _a$[ebp], ecx
  00394	8b 45 f0	 mov	 eax, DWORD PTR _b$[ebp]
  00397	c1 e0 07	 shl	 eax, 7
  0039a	33 45 dc	 xor	 eax, DWORD PTR _e$[ebp]
  0039d	33 45 e4	 xor	 eax, DWORD PTR _c$[ebp]
  003a0	89 45 e4	 mov	 DWORD PTR _c$[ebp], eax
  003a3	8b 4d f0	 mov	 ecx, DWORD PTR _b$[ebp]
  003a6	33 4d dc	 xor	 ecx, DWORD PTR _e$[ebp]
  003a9	33 4d fc	 xor	 ecx, DWORD PTR _a$[ebp]
  003ac	89 4d fc	 mov	 DWORD PTR _a$[ebp], ecx
  003af	8b 55 f0	 mov	 edx, DWORD PTR _b$[ebp]
  003b2	d1 ea		 shr	 edx, 1
  003b4	8b 45 f0	 mov	 eax, DWORD PTR _b$[ebp]
  003b7	c1 e0 1f	 shl	 eax, 31			; 0000001fH
  003ba	0b d0		 or	 edx, eax
  003bc	89 55 f0	 mov	 DWORD PTR _b$[ebp], edx
  003bf	8b 4d dc	 mov	 ecx, DWORD PTR _e$[ebp]
  003c2	c1 e9 07	 shr	 ecx, 7
  003c5	8b 55 dc	 mov	 edx, DWORD PTR _e$[ebp]
  003c8	c1 e2 19	 shl	 edx, 25			; 00000019H
  003cb	0b ca		 or	 ecx, edx
  003cd	33 4d e4	 xor	 ecx, DWORD PTR _c$[ebp]
  003d0	8b 45 fc	 mov	 eax, DWORD PTR _a$[ebp]
  003d3	c1 e0 03	 shl	 eax, 3
  003d6	33 c8		 xor	 ecx, eax
  003d8	89 4d dc	 mov	 DWORD PTR _e$[ebp], ecx
  003db	8b 4d fc	 mov	 ecx, DWORD PTR _a$[ebp]
  003de	33 4d e4	 xor	 ecx, DWORD PTR _c$[ebp]
  003e1	33 4d f0	 xor	 ecx, DWORD PTR _b$[ebp]
  003e4	89 4d f0	 mov	 DWORD PTR _b$[ebp], ecx
  003e7	8b 55 e4	 mov	 edx, DWORD PTR _c$[ebp]
  003ea	c1 ea 03	 shr	 edx, 3
  003ed	8b 45 e4	 mov	 eax, DWORD PTR _c$[ebp]
  003f0	c1 e0 1d	 shl	 eax, 29			; 0000001dH
  003f3	0b d0		 or	 edx, eax
  003f5	89 55 e4	 mov	 DWORD PTR _c$[ebp], edx
  003f8	8b 4d fc	 mov	 ecx, DWORD PTR _a$[ebp]
  003fb	c1 e9 0d	 shr	 ecx, 13			; 0000000dH
  003fe	8b 55 fc	 mov	 edx, DWORD PTR _a$[ebp]
  00401	c1 e2 13	 shl	 edx, 19			; 00000013H
  00404	0b ca		 or	 ecx, edx
  00406	89 4d fc	 mov	 DWORD PTR _a$[ebp], ecx
  00409	8b 45 f0	 mov	 eax, DWORD PTR _b$[ebp]
  0040c	f7 d0		 not	 eax
  0040e	89 45 f0	 mov	 DWORD PTR _b$[ebp], eax
  00411	8b 4d dc	 mov	 ecx, DWORD PTR _e$[ebp]
  00414	89 4d e8	 mov	 DWORD PTR _d$[ebp], ecx
  00417	8b 55 e4	 mov	 edx, DWORD PTR _c$[ebp]
  0041a	33 55 f0	 xor	 edx, DWORD PTR _b$[ebp]
  0041d	89 55 e4	 mov	 DWORD PTR _c$[ebp], edx
  00420	8b 45 dc	 mov	 eax, DWORD PTR _e$[ebp]
  00423	0b 45 fc	 or	 eax, DWORD PTR _a$[ebp]
  00426	89 45 dc	 mov	 DWORD PTR _e$[ebp], eax
  00429	8b 4d dc	 mov	 ecx, DWORD PTR _e$[ebp]
  0042c	33 4d e4	 xor	 ecx, DWORD PTR _c$[ebp]
  0042f	89 4d dc	 mov	 DWORD PTR _e$[ebp], ecx
  00432	8b 55 e4	 mov	 edx, DWORD PTR _c$[ebp]
  00435	0b 55 f0	 or	 edx, DWORD PTR _b$[ebp]
  00438	89 55 e4	 mov	 DWORD PTR _c$[ebp], edx
  0043b	8b 45 e4	 mov	 eax, DWORD PTR _c$[ebp]
  0043e	23 45 fc	 and	 eax, DWORD PTR _a$[ebp]
  00441	89 45 e4	 mov	 DWORD PTR _c$[ebp], eax
  00444	8b 4d e8	 mov	 ecx, DWORD PTR _d$[ebp]
  00447	33 4d dc	 xor	 ecx, DWORD PTR _e$[ebp]
  0044a	89 4d e8	 mov	 DWORD PTR _d$[ebp], ecx
  0044d	8b 55 e4	 mov	 edx, DWORD PTR _c$[ebp]
  00450	33 55 e8	 xor	 edx, DWORD PTR _d$[ebp]
  00453	89 55 e4	 mov	 DWORD PTR _c$[ebp], edx
  00456	8b 45 e8	 mov	 eax, DWORD PTR _d$[ebp]
  00459	0b 45 fc	 or	 eax, DWORD PTR _a$[ebp]
  0045c	89 45 e8	 mov	 DWORD PTR _d$[ebp], eax
  0045f	8b 4d e8	 mov	 ecx, DWORD PTR _d$[ebp]
  00462	33 4d f0	 xor	 ecx, DWORD PTR _b$[ebp]
  00465	89 4d e8	 mov	 DWORD PTR _d$[ebp], ecx
  00468	8b 55 f0	 mov	 edx, DWORD PTR _b$[ebp]
  0046b	23 55 e4	 and	 edx, DWORD PTR _c$[ebp]
  0046e	89 55 f0	 mov	 DWORD PTR _b$[ebp], edx
  00471	8b 45 f0	 mov	 eax, DWORD PTR _b$[ebp]
  00474	33 45 dc	 xor	 eax, DWORD PTR _e$[ebp]
  00477	89 45 f0	 mov	 DWORD PTR _b$[ebp], eax
  0047a	8b 4d e8	 mov	 ecx, DWORD PTR _d$[ebp]
  0047d	33 4d e4	 xor	 ecx, DWORD PTR _c$[ebp]
  00480	89 4d e8	 mov	 DWORD PTR _d$[ebp], ecx
  00483	8b 55 dc	 mov	 edx, DWORD PTR _e$[ebp]
  00486	23 55 e8	 and	 edx, DWORD PTR _d$[ebp]
  00489	89 55 dc	 mov	 DWORD PTR _e$[ebp], edx
  0048c	8b 45 e8	 mov	 eax, DWORD PTR _d$[ebp]
  0048f	33 45 f0	 xor	 eax, DWORD PTR _b$[ebp]
  00492	89 45 e8	 mov	 DWORD PTR _d$[ebp], eax
  00495	8b 4d dc	 mov	 ecx, DWORD PTR _e$[ebp]
  00498	33 4d fc	 xor	 ecx, DWORD PTR _a$[ebp]
  0049b	89 4d dc	 mov	 DWORD PTR _e$[ebp], ecx
  0049e	8b 55 dc	 mov	 edx, DWORD PTR _e$[ebp]
  004a1	33 55 e8	 xor	 edx, DWORD PTR _d$[ebp]
  004a4	89 55 dc	 mov	 DWORD PTR _e$[ebp], edx
  004a7	8b 45 e8	 mov	 eax, DWORD PTR _d$[ebp]
  004aa	f7 d0		 not	 eax
  004ac	89 45 e8	 mov	 DWORD PTR _d$[ebp], eax
  004af	8b 4d ec	 mov	 ecx, DWORD PTR _k$[ebp]
  004b2	8b 55 f0	 mov	 edx, DWORD PTR _b$[ebp]
  004b5	33 51 50	 xor	 edx, DWORD PTR [ecx+80]
  004b8	89 55 f0	 mov	 DWORD PTR _b$[ebp], edx
  004bb	8b 45 ec	 mov	 eax, DWORD PTR _k$[ebp]
  004be	8b 4d e8	 mov	 ecx, DWORD PTR _d$[ebp]
  004c1	33 48 54	 xor	 ecx, DWORD PTR [eax+84]
  004c4	89 4d e8	 mov	 DWORD PTR _d$[ebp], ecx
  004c7	8b 55 ec	 mov	 edx, DWORD PTR _k$[ebp]
  004ca	8b 45 dc	 mov	 eax, DWORD PTR _e$[ebp]
  004cd	33 42 58	 xor	 eax, DWORD PTR [edx+88]
  004d0	89 45 dc	 mov	 DWORD PTR _e$[ebp], eax
  004d3	8b 4d ec	 mov	 ecx, DWORD PTR _k$[ebp]
  004d6	8b 55 e4	 mov	 edx, DWORD PTR _c$[ebp]
  004d9	33 51 5c	 xor	 edx, DWORD PTR [ecx+92]
  004dc	89 55 e4	 mov	 DWORD PTR _c$[ebp], edx

; 873  : 		afterI5(ILT); afterI5(I4); afterI4(KX); 

  004df	8b 45 dc	 mov	 eax, DWORD PTR _e$[ebp]
  004e2	c1 e8 16	 shr	 eax, 22			; 00000016H
  004e5	8b 4d dc	 mov	 ecx, DWORD PTR _e$[ebp]
  004e8	c1 e1 0a	 shl	 ecx, 10			; 0000000aH
  004eb	0b c1		 or	 eax, ecx
  004ed	89 45 dc	 mov	 DWORD PTR _e$[ebp], eax
  004f0	8b 55 f0	 mov	 edx, DWORD PTR _b$[ebp]
  004f3	c1 ea 05	 shr	 edx, 5
  004f6	8b 45 f0	 mov	 eax, DWORD PTR _b$[ebp]
  004f9	c1 e0 1b	 shl	 eax, 27			; 0000001bH
  004fc	0b d0		 or	 edx, eax
  004fe	89 55 f0	 mov	 DWORD PTR _b$[ebp], edx
  00501	8b 4d e8	 mov	 ecx, DWORD PTR _d$[ebp]
  00504	c1 e1 07	 shl	 ecx, 7
  00507	33 4d e4	 xor	 ecx, DWORD PTR _c$[ebp]
  0050a	33 4d dc	 xor	 ecx, DWORD PTR _e$[ebp]
  0050d	89 4d dc	 mov	 DWORD PTR _e$[ebp], ecx
  00510	8b 55 e8	 mov	 edx, DWORD PTR _d$[ebp]
  00513	33 55 e4	 xor	 edx, DWORD PTR _c$[ebp]
  00516	33 55 f0	 xor	 edx, DWORD PTR _b$[ebp]
  00519	89 55 f0	 mov	 DWORD PTR _b$[ebp], edx
  0051c	8b 45 e8	 mov	 eax, DWORD PTR _d$[ebp]
  0051f	d1 e8		 shr	 eax, 1
  00521	8b 4d e8	 mov	 ecx, DWORD PTR _d$[ebp]
  00524	c1 e1 1f	 shl	 ecx, 31			; 0000001fH
  00527	0b c1		 or	 eax, ecx
  00529	89 45 e8	 mov	 DWORD PTR _d$[ebp], eax
  0052c	8b 55 e4	 mov	 edx, DWORD PTR _c$[ebp]
  0052f	c1 ea 07	 shr	 edx, 7
  00532	8b 45 e4	 mov	 eax, DWORD PTR _c$[ebp]
  00535	c1 e0 19	 shl	 eax, 25			; 00000019H
  00538	0b d0		 or	 edx, eax
  0053a	33 55 dc	 xor	 edx, DWORD PTR _e$[ebp]
  0053d	8b 4d f0	 mov	 ecx, DWORD PTR _b$[ebp]
  00540	c1 e1 03	 shl	 ecx, 3
  00543	33 d1		 xor	 edx, ecx
  00545	89 55 e4	 mov	 DWORD PTR _c$[ebp], edx
  00548	8b 55 f0	 mov	 edx, DWORD PTR _b$[ebp]
  0054b	33 55 dc	 xor	 edx, DWORD PTR _e$[ebp]
  0054e	33 55 e8	 xor	 edx, DWORD PTR _d$[ebp]
  00551	89 55 e8	 mov	 DWORD PTR _d$[ebp], edx
  00554	8b 45 dc	 mov	 eax, DWORD PTR _e$[ebp]
  00557	c1 e8 03	 shr	 eax, 3
  0055a	8b 4d dc	 mov	 ecx, DWORD PTR _e$[ebp]
  0055d	c1 e1 1d	 shl	 ecx, 29			; 0000001dH
  00560	0b c1		 or	 eax, ecx
  00562	89 45 dc	 mov	 DWORD PTR _e$[ebp], eax
  00565	8b 55 f0	 mov	 edx, DWORD PTR _b$[ebp]
  00568	c1 ea 0d	 shr	 edx, 13			; 0000000dH
  0056b	8b 45 f0	 mov	 eax, DWORD PTR _b$[ebp]
  0056e	c1 e0 13	 shl	 eax, 19			; 00000013H
  00571	0b d0		 or	 edx, eax
  00573	89 55 f0	 mov	 DWORD PTR _b$[ebp], edx
  00576	8b 4d dc	 mov	 ecx, DWORD PTR _e$[ebp]
  00579	89 4d fc	 mov	 DWORD PTR _a$[ebp], ecx
  0057c	8b 55 dc	 mov	 edx, DWORD PTR _e$[ebp]
  0057f	23 55 e4	 and	 edx, DWORD PTR _c$[ebp]
  00582	89 55 dc	 mov	 DWORD PTR _e$[ebp], edx
  00585	8b 45 dc	 mov	 eax, DWORD PTR _e$[ebp]
  00588	33 45 e8	 xor	 eax, DWORD PTR _d$[ebp]
  0058b	89 45 dc	 mov	 DWORD PTR _e$[ebp], eax
  0058e	8b 4d e8	 mov	 ecx, DWORD PTR _d$[ebp]
  00591	0b 4d e4	 or	 ecx, DWORD PTR _c$[ebp]
  00594	89 4d e8	 mov	 DWORD PTR _d$[ebp], ecx
  00597	8b 55 e8	 mov	 edx, DWORD PTR _d$[ebp]
  0059a	23 55 f0	 and	 edx, DWORD PTR _b$[ebp]
  0059d	89 55 e8	 mov	 DWORD PTR _d$[ebp], edx
  005a0	8b 45 fc	 mov	 eax, DWORD PTR _a$[ebp]
  005a3	33 45 dc	 xor	 eax, DWORD PTR _e$[ebp]
  005a6	89 45 fc	 mov	 DWORD PTR _a$[ebp], eax
  005a9	8b 4d fc	 mov	 ecx, DWORD PTR _a$[ebp]
  005ac	33 4d e8	 xor	 ecx, DWORD PTR _d$[ebp]
  005af	89 4d fc	 mov	 DWORD PTR _a$[ebp], ecx
  005b2	8b 55 e8	 mov	 edx, DWORD PTR _d$[ebp]
  005b5	23 55 dc	 and	 edx, DWORD PTR _e$[ebp]
  005b8	89 55 e8	 mov	 DWORD PTR _d$[ebp], edx
  005bb	8b 45 f0	 mov	 eax, DWORD PTR _b$[ebp]
  005be	f7 d0		 not	 eax
  005c0	89 45 f0	 mov	 DWORD PTR _b$[ebp], eax
  005c3	8b 4d e4	 mov	 ecx, DWORD PTR _c$[ebp]
  005c6	33 4d fc	 xor	 ecx, DWORD PTR _a$[ebp]
  005c9	89 4d e4	 mov	 DWORD PTR _c$[ebp], ecx
  005cc	8b 55 e8	 mov	 edx, DWORD PTR _d$[ebp]
  005cf	33 55 e4	 xor	 edx, DWORD PTR _c$[ebp]
  005d2	89 55 e8	 mov	 DWORD PTR _d$[ebp], edx
  005d5	8b 45 e4	 mov	 eax, DWORD PTR _c$[ebp]
  005d8	23 45 f0	 and	 eax, DWORD PTR _b$[ebp]
  005db	89 45 e4	 mov	 DWORD PTR _c$[ebp], eax
  005de	8b 4d e4	 mov	 ecx, DWORD PTR _c$[ebp]
  005e1	33 4d dc	 xor	 ecx, DWORD PTR _e$[ebp]
  005e4	89 4d e4	 mov	 DWORD PTR _c$[ebp], ecx
  005e7	8b 55 f0	 mov	 edx, DWORD PTR _b$[ebp]
  005ea	33 55 e8	 xor	 edx, DWORD PTR _d$[ebp]
  005ed	89 55 f0	 mov	 DWORD PTR _b$[ebp], edx
  005f0	8b 45 dc	 mov	 eax, DWORD PTR _e$[ebp]
  005f3	23 45 f0	 and	 eax, DWORD PTR _b$[ebp]
  005f6	89 45 dc	 mov	 DWORD PTR _e$[ebp], eax
  005f9	8b 4d e4	 mov	 ecx, DWORD PTR _c$[ebp]
  005fc	33 4d f0	 xor	 ecx, DWORD PTR _b$[ebp]
  005ff	89 4d e4	 mov	 DWORD PTR _c$[ebp], ecx
  00602	8b 55 dc	 mov	 edx, DWORD PTR _e$[ebp]
  00605	33 55 fc	 xor	 edx, DWORD PTR _a$[ebp]
  00608	89 55 dc	 mov	 DWORD PTR _e$[ebp], edx
  0060b	8b 45 dc	 mov	 eax, DWORD PTR _e$[ebp]
  0060e	0b 45 e4	 or	 eax, DWORD PTR _c$[ebp]
  00611	89 45 dc	 mov	 DWORD PTR _e$[ebp], eax
  00614	8b 4d e4	 mov	 ecx, DWORD PTR _c$[ebp]
  00617	33 4d f0	 xor	 ecx, DWORD PTR _b$[ebp]
  0061a	89 4d e4	 mov	 DWORD PTR _c$[ebp], ecx
  0061d	8b 55 dc	 mov	 edx, DWORD PTR _e$[ebp]
  00620	33 55 e8	 xor	 edx, DWORD PTR _d$[ebp]
  00623	89 55 dc	 mov	 DWORD PTR _e$[ebp], edx
  00626	8b 45 ec	 mov	 eax, DWORD PTR _k$[ebp]
  00629	8b 4d f0	 mov	 ecx, DWORD PTR _b$[ebp]
  0062c	33 48 40	 xor	 ecx, DWORD PTR [eax+64]
  0062f	89 4d f0	 mov	 DWORD PTR _b$[ebp], ecx
  00632	8b 55 ec	 mov	 edx, DWORD PTR _k$[ebp]
  00635	8b 45 e4	 mov	 eax, DWORD PTR _c$[ebp]
  00638	33 42 44	 xor	 eax, DWORD PTR [edx+68]
  0063b	89 45 e4	 mov	 DWORD PTR _c$[ebp], eax
  0063e	8b 4d ec	 mov	 ecx, DWORD PTR _k$[ebp]
  00641	8b 55 dc	 mov	 edx, DWORD PTR _e$[ebp]
  00644	33 51 48	 xor	 edx, DWORD PTR [ecx+72]
  00647	89 55 dc	 mov	 DWORD PTR _e$[ebp], edx
  0064a	8b 45 ec	 mov	 eax, DWORD PTR _k$[ebp]
  0064d	8b 4d fc	 mov	 ecx, DWORD PTR _a$[ebp]
  00650	33 48 4c	 xor	 ecx, DWORD PTR [eax+76]
  00653	89 4d fc	 mov	 DWORD PTR _a$[ebp], ecx

; 874  : 		afterI4(ILT); afterI4(I3); afterI3(KX); 

  00656	8b 55 dc	 mov	 edx, DWORD PTR _e$[ebp]
  00659	c1 ea 16	 shr	 edx, 22			; 00000016H
  0065c	8b 45 dc	 mov	 eax, DWORD PTR _e$[ebp]
  0065f	c1 e0 0a	 shl	 eax, 10			; 0000000aH
  00662	0b d0		 or	 edx, eax
  00664	89 55 dc	 mov	 DWORD PTR _e$[ebp], edx
  00667	8b 4d f0	 mov	 ecx, DWORD PTR _b$[ebp]
  0066a	c1 e9 05	 shr	 ecx, 5
  0066d	8b 55 f0	 mov	 edx, DWORD PTR _b$[ebp]
  00670	c1 e2 1b	 shl	 edx, 27			; 0000001bH
  00673	0b ca		 or	 ecx, edx
  00675	89 4d f0	 mov	 DWORD PTR _b$[ebp], ecx
  00678	8b 45 e4	 mov	 eax, DWORD PTR _c$[ebp]
  0067b	c1 e0 07	 shl	 eax, 7
  0067e	33 45 fc	 xor	 eax, DWORD PTR _a$[ebp]
  00681	33 45 dc	 xor	 eax, DWORD PTR _e$[ebp]
  00684	89 45 dc	 mov	 DWORD PTR _e$[ebp], eax
  00687	8b 4d e4	 mov	 ecx, DWORD PTR _c$[ebp]
  0068a	33 4d fc	 xor	 ecx, DWORD PTR _a$[ebp]
  0068d	33 4d f0	 xor	 ecx, DWORD PTR _b$[ebp]
  00690	89 4d f0	 mov	 DWORD PTR _b$[ebp], ecx
  00693	8b 55 e4	 mov	 edx, DWORD PTR _c$[ebp]
  00696	d1 ea		 shr	 edx, 1
  00698	8b 45 e4	 mov	 eax, DWORD PTR _c$[ebp]
  0069b	c1 e0 1f	 shl	 eax, 31			; 0000001fH
  0069e	0b d0		 or	 edx, eax
  006a0	89 55 e4	 mov	 DWORD PTR _c$[ebp], edx
  006a3	8b 4d fc	 mov	 ecx, DWORD PTR _a$[ebp]
  006a6	c1 e9 07	 shr	 ecx, 7
  006a9	8b 55 fc	 mov	 edx, DWORD PTR _a$[ebp]
  006ac	c1 e2 19	 shl	 edx, 25			; 00000019H
  006af	0b ca		 or	 ecx, edx
  006b1	33 4d dc	 xor	 ecx, DWORD PTR _e$[ebp]
  006b4	8b 45 f0	 mov	 eax, DWORD PTR _b$[ebp]
  006b7	c1 e0 03	 shl	 eax, 3
  006ba	33 c8		 xor	 ecx, eax
  006bc	89 4d fc	 mov	 DWORD PTR _a$[ebp], ecx
  006bf	8b 4d f0	 mov	 ecx, DWORD PTR _b$[ebp]
  006c2	33 4d dc	 xor	 ecx, DWORD PTR _e$[ebp]
  006c5	33 4d e4	 xor	 ecx, DWORD PTR _c$[ebp]
  006c8	89 4d e4	 mov	 DWORD PTR _c$[ebp], ecx
  006cb	8b 55 dc	 mov	 edx, DWORD PTR _e$[ebp]
  006ce	c1 ea 03	 shr	 edx, 3
  006d1	8b 45 dc	 mov	 eax, DWORD PTR _e$[ebp]
  006d4	c1 e0 1d	 shl	 eax, 29			; 0000001dH
  006d7	0b d0		 or	 edx, eax
  006d9	89 55 dc	 mov	 DWORD PTR _e$[ebp], edx
  006dc	8b 4d f0	 mov	 ecx, DWORD PTR _b$[ebp]
  006df	c1 e9 0d	 shr	 ecx, 13			; 0000000dH
  006e2	8b 55 f0	 mov	 edx, DWORD PTR _b$[ebp]
  006e5	c1 e2 13	 shl	 edx, 19			; 00000013H
  006e8	0b ca		 or	 ecx, edx
  006ea	89 4d f0	 mov	 DWORD PTR _b$[ebp], ecx
  006ed	8b 45 dc	 mov	 eax, DWORD PTR _e$[ebp]
  006f0	89 45 e8	 mov	 DWORD PTR _d$[ebp], eax
  006f3	8b 4d dc	 mov	 ecx, DWORD PTR _e$[ebp]
  006f6	33 4d e4	 xor	 ecx, DWORD PTR _c$[ebp]
  006f9	89 4d dc	 mov	 DWORD PTR _e$[ebp], ecx
  006fc	8b 55 e4	 mov	 edx, DWORD PTR _c$[ebp]
  006ff	23 55 dc	 and	 edx, DWORD PTR _e$[ebp]
  00702	89 55 e4	 mov	 DWORD PTR _c$[ebp], edx
  00705	8b 45 e4	 mov	 eax, DWORD PTR _c$[ebp]
  00708	33 45 f0	 xor	 eax, DWORD PTR _b$[ebp]
  0070b	89 45 e4	 mov	 DWORD PTR _c$[ebp], eax
  0070e	8b 4d f0	 mov	 ecx, DWORD PTR _b$[ebp]
  00711	23 4d e8	 and	 ecx, DWORD PTR _d$[ebp]
  00714	89 4d f0	 mov	 DWORD PTR _b$[ebp], ecx
  00717	8b 55 e8	 mov	 edx, DWORD PTR _d$[ebp]
  0071a	33 55 fc	 xor	 edx, DWORD PTR _a$[ebp]
  0071d	89 55 e8	 mov	 DWORD PTR _d$[ebp], edx
  00720	8b 45 fc	 mov	 eax, DWORD PTR _a$[ebp]
  00723	0b 45 e4	 or	 eax, DWORD PTR _c$[ebp]
  00726	89 45 fc	 mov	 DWORD PTR _a$[ebp], eax
  00729	8b 4d fc	 mov	 ecx, DWORD PTR _a$[ebp]
  0072c	33 4d dc	 xor	 ecx, DWORD PTR _e$[ebp]
  0072f	89 4d fc	 mov	 DWORD PTR _a$[ebp], ecx
  00732	8b 55 f0	 mov	 edx, DWORD PTR _b$[ebp]
  00735	33 55 e8	 xor	 edx, DWORD PTR _d$[ebp]
  00738	89 55 f0	 mov	 DWORD PTR _b$[ebp], edx
  0073b	8b 45 dc	 mov	 eax, DWORD PTR _e$[ebp]
  0073e	33 45 f0	 xor	 eax, DWORD PTR _b$[ebp]
  00741	89 45 dc	 mov	 DWORD PTR _e$[ebp], eax
  00744	8b 4d f0	 mov	 ecx, DWORD PTR _b$[ebp]
  00747	0b 4d fc	 or	 ecx, DWORD PTR _a$[ebp]
  0074a	89 4d f0	 mov	 DWORD PTR _b$[ebp], ecx
  0074d	8b 55 f0	 mov	 edx, DWORD PTR _b$[ebp]
  00750	33 55 e4	 xor	 edx, DWORD PTR _c$[ebp]
  00753	89 55 f0	 mov	 DWORD PTR _b$[ebp], edx
  00756	8b 45 e8	 mov	 eax, DWORD PTR _d$[ebp]
  00759	33 45 dc	 xor	 eax, DWORD PTR _e$[ebp]
  0075c	89 45 e8	 mov	 DWORD PTR _d$[ebp], eax
  0075f	8b 4d dc	 mov	 ecx, DWORD PTR _e$[ebp]
  00762	23 4d fc	 and	 ecx, DWORD PTR _a$[ebp]
  00765	89 4d dc	 mov	 DWORD PTR _e$[ebp], ecx
  00768	8b 55 e4	 mov	 edx, DWORD PTR _c$[ebp]
  0076b	0b 55 fc	 or	 edx, DWORD PTR _a$[ebp]
  0076e	89 55 e4	 mov	 DWORD PTR _c$[ebp], edx
  00771	8b 45 e4	 mov	 eax, DWORD PTR _c$[ebp]
  00774	33 45 dc	 xor	 eax, DWORD PTR _e$[ebp]
  00777	89 45 e4	 mov	 DWORD PTR _c$[ebp], eax
  0077a	8b 4d e8	 mov	 ecx, DWORD PTR _d$[ebp]
  0077d	33 4d f0	 xor	 ecx, DWORD PTR _b$[ebp]
  00780	89 4d e8	 mov	 DWORD PTR _d$[ebp], ecx
  00783	8b 55 dc	 mov	 edx, DWORD PTR _e$[ebp]
  00786	33 55 e8	 xor	 edx, DWORD PTR _d$[ebp]
  00789	89 55 dc	 mov	 DWORD PTR _e$[ebp], edx
  0078c	8b 45 ec	 mov	 eax, DWORD PTR _k$[ebp]
  0078f	8b 4d fc	 mov	 ecx, DWORD PTR _a$[ebp]
  00792	33 48 30	 xor	 ecx, DWORD PTR [eax+48]
  00795	89 4d fc	 mov	 DWORD PTR _a$[ebp], ecx
  00798	8b 55 ec	 mov	 edx, DWORD PTR _k$[ebp]
  0079b	8b 45 f0	 mov	 eax, DWORD PTR _b$[ebp]
  0079e	33 42 34	 xor	 eax, DWORD PTR [edx+52]
  007a1	89 45 f0	 mov	 DWORD PTR _b$[ebp], eax
  007a4	8b 4d ec	 mov	 ecx, DWORD PTR _k$[ebp]
  007a7	8b 55 dc	 mov	 edx, DWORD PTR _e$[ebp]
  007aa	33 51 38	 xor	 edx, DWORD PTR [ecx+56]
  007ad	89 55 dc	 mov	 DWORD PTR _e$[ebp], edx
  007b0	8b 45 ec	 mov	 eax, DWORD PTR _k$[ebp]
  007b3	8b 4d e4	 mov	 ecx, DWORD PTR _c$[ebp]
  007b6	33 48 3c	 xor	 ecx, DWORD PTR [eax+60]
  007b9	89 4d e4	 mov	 DWORD PTR _c$[ebp], ecx

; 875  : 		afterI3(ILT); afterI3(I2); afterI2(KX); 

  007bc	8b 55 dc	 mov	 edx, DWORD PTR _e$[ebp]
  007bf	c1 ea 16	 shr	 edx, 22			; 00000016H
  007c2	8b 45 dc	 mov	 eax, DWORD PTR _e$[ebp]
  007c5	c1 e0 0a	 shl	 eax, 10			; 0000000aH
  007c8	0b d0		 or	 edx, eax
  007ca	89 55 dc	 mov	 DWORD PTR _e$[ebp], edx
  007cd	8b 4d fc	 mov	 ecx, DWORD PTR _a$[ebp]
  007d0	c1 e9 05	 shr	 ecx, 5
  007d3	8b 55 fc	 mov	 edx, DWORD PTR _a$[ebp]
  007d6	c1 e2 1b	 shl	 edx, 27			; 0000001bH
  007d9	0b ca		 or	 ecx, edx
  007db	89 4d fc	 mov	 DWORD PTR _a$[ebp], ecx
  007de	8b 45 f0	 mov	 eax, DWORD PTR _b$[ebp]
  007e1	c1 e0 07	 shl	 eax, 7
  007e4	33 45 e4	 xor	 eax, DWORD PTR _c$[ebp]
  007e7	33 45 dc	 xor	 eax, DWORD PTR _e$[ebp]
  007ea	89 45 dc	 mov	 DWORD PTR _e$[ebp], eax
  007ed	8b 4d f0	 mov	 ecx, DWORD PTR _b$[ebp]
  007f0	33 4d e4	 xor	 ecx, DWORD PTR _c$[ebp]
  007f3	33 4d fc	 xor	 ecx, DWORD PTR _a$[ebp]
  007f6	89 4d fc	 mov	 DWORD PTR _a$[ebp], ecx
  007f9	8b 55 f0	 mov	 edx, DWORD PTR _b$[ebp]
  007fc	d1 ea		 shr	 edx, 1
  007fe	8b 45 f0	 mov	 eax, DWORD PTR _b$[ebp]
  00801	c1 e0 1f	 shl	 eax, 31			; 0000001fH
  00804	0b d0		 or	 edx, eax
  00806	89 55 f0	 mov	 DWORD PTR _b$[ebp], edx
  00809	8b 4d e4	 mov	 ecx, DWORD PTR _c$[ebp]
  0080c	c1 e9 07	 shr	 ecx, 7
  0080f	8b 55 e4	 mov	 edx, DWORD PTR _c$[ebp]
  00812	c1 e2 19	 shl	 edx, 25			; 00000019H
  00815	0b ca		 or	 ecx, edx
  00817	33 4d dc	 xor	 ecx, DWORD PTR _e$[ebp]
  0081a	8b 45 fc	 mov	 eax, DWORD PTR _a$[ebp]
  0081d	c1 e0 03	 shl	 eax, 3
  00820	33 c8		 xor	 ecx, eax
  00822	89 4d e4	 mov	 DWORD PTR _c$[ebp], ecx
  00825	8b 4d fc	 mov	 ecx, DWORD PTR _a$[ebp]
  00828	33 4d dc	 xor	 ecx, DWORD PTR _e$[ebp]
  0082b	33 4d f0	 xor	 ecx, DWORD PTR _b$[ebp]
  0082e	89 4d f0	 mov	 DWORD PTR _b$[ebp], ecx
  00831	8b 55 dc	 mov	 edx, DWORD PTR _e$[ebp]
  00834	c1 ea 03	 shr	 edx, 3
  00837	8b 45 dc	 mov	 eax, DWORD PTR _e$[ebp]
  0083a	c1 e0 1d	 shl	 eax, 29			; 0000001dH
  0083d	0b d0		 or	 edx, eax
  0083f	89 55 dc	 mov	 DWORD PTR _e$[ebp], edx
  00842	8b 4d fc	 mov	 ecx, DWORD PTR _a$[ebp]
  00845	c1 e9 0d	 shr	 ecx, 13			; 0000000dH
  00848	8b 55 fc	 mov	 edx, DWORD PTR _a$[ebp]
  0084b	c1 e2 13	 shl	 edx, 19			; 00000013H
  0084e	0b ca		 or	 ecx, edx
  00850	89 4d fc	 mov	 DWORD PTR _a$[ebp], ecx
  00853	8b 45 dc	 mov	 eax, DWORD PTR _e$[ebp]
  00856	33 45 e4	 xor	 eax, DWORD PTR _c$[ebp]
  00859	89 45 dc	 mov	 DWORD PTR _e$[ebp], eax
  0085c	8b 4d e4	 mov	 ecx, DWORD PTR _c$[ebp]
  0085f	33 4d fc	 xor	 ecx, DWORD PTR _a$[ebp]
  00862	89 4d e4	 mov	 DWORD PTR _c$[ebp], ecx
  00865	8b 55 e4	 mov	 edx, DWORD PTR _c$[ebp]
  00868	89 55 e8	 mov	 DWORD PTR _d$[ebp], edx
  0086b	8b 45 e4	 mov	 eax, DWORD PTR _c$[ebp]
  0086e	23 45 dc	 and	 eax, DWORD PTR _e$[ebp]
  00871	89 45 e4	 mov	 DWORD PTR _c$[ebp], eax
  00874	8b 4d e4	 mov	 ecx, DWORD PTR _c$[ebp]
  00877	33 4d f0	 xor	 ecx, DWORD PTR _b$[ebp]
  0087a	89 4d e4	 mov	 DWORD PTR _c$[ebp], ecx
  0087d	8b 55 f0	 mov	 edx, DWORD PTR _b$[ebp]
  00880	0b 55 dc	 or	 edx, DWORD PTR _e$[ebp]
  00883	89 55 f0	 mov	 DWORD PTR _b$[ebp], edx
  00886	8b 45 f0	 mov	 eax, DWORD PTR _b$[ebp]
  00889	33 45 e8	 xor	 eax, DWORD PTR _d$[ebp]
  0088c	89 45 f0	 mov	 DWORD PTR _b$[ebp], eax
  0088f	8b 4d e8	 mov	 ecx, DWORD PTR _d$[ebp]
  00892	23 4d e4	 and	 ecx, DWORD PTR _c$[ebp]
  00895	89 4d e8	 mov	 DWORD PTR _d$[ebp], ecx
  00898	8b 55 dc	 mov	 edx, DWORD PTR _e$[ebp]
  0089b	33 55 e4	 xor	 edx, DWORD PTR _c$[ebp]
  0089e	89 55 dc	 mov	 DWORD PTR _e$[ebp], edx
  008a1	8b 45 e8	 mov	 eax, DWORD PTR _d$[ebp]
  008a4	23 45 fc	 and	 eax, DWORD PTR _a$[ebp]
  008a7	89 45 e8	 mov	 DWORD PTR _d$[ebp], eax
  008aa	8b 4d e8	 mov	 ecx, DWORD PTR _d$[ebp]
  008ad	33 4d dc	 xor	 ecx, DWORD PTR _e$[ebp]
  008b0	89 4d e8	 mov	 DWORD PTR _d$[ebp], ecx
  008b3	8b 55 dc	 mov	 edx, DWORD PTR _e$[ebp]
  008b6	23 55 f0	 and	 edx, DWORD PTR _b$[ebp]
  008b9	89 55 dc	 mov	 DWORD PTR _e$[ebp], edx
  008bc	8b 45 dc	 mov	 eax, DWORD PTR _e$[ebp]
  008bf	0b 45 fc	 or	 eax, DWORD PTR _a$[ebp]
  008c2	89 45 dc	 mov	 DWORD PTR _e$[ebp], eax
  008c5	8b 4d e4	 mov	 ecx, DWORD PTR _c$[ebp]
  008c8	f7 d1		 not	 ecx
  008ca	89 4d e4	 mov	 DWORD PTR _c$[ebp], ecx
  008cd	8b 55 dc	 mov	 edx, DWORD PTR _e$[ebp]
  008d0	33 55 e4	 xor	 edx, DWORD PTR _c$[ebp]
  008d3	89 55 dc	 mov	 DWORD PTR _e$[ebp], edx
  008d6	8b 45 fc	 mov	 eax, DWORD PTR _a$[ebp]
  008d9	33 45 e4	 xor	 eax, DWORD PTR _c$[ebp]
  008dc	89 45 fc	 mov	 DWORD PTR _a$[ebp], eax
  008df	8b 4d fc	 mov	 ecx, DWORD PTR _a$[ebp]
  008e2	23 4d f0	 and	 ecx, DWORD PTR _b$[ebp]
  008e5	89 4d fc	 mov	 DWORD PTR _a$[ebp], ecx
  008e8	8b 55 e4	 mov	 edx, DWORD PTR _c$[ebp]
  008eb	33 55 e8	 xor	 edx, DWORD PTR _d$[ebp]
  008ee	89 55 e4	 mov	 DWORD PTR _c$[ebp], edx
  008f1	8b 45 e4	 mov	 eax, DWORD PTR _c$[ebp]
  008f4	33 45 fc	 xor	 eax, DWORD PTR _a$[ebp]
  008f7	89 45 e4	 mov	 DWORD PTR _c$[ebp], eax
  008fa	8b 4d ec	 mov	 ecx, DWORD PTR _k$[ebp]
  008fd	8b 55 f0	 mov	 edx, DWORD PTR _b$[ebp]
  00900	33 51 20	 xor	 edx, DWORD PTR [ecx+32]
  00903	89 55 f0	 mov	 DWORD PTR _b$[ebp], edx
  00906	8b 45 ec	 mov	 eax, DWORD PTR _k$[ebp]
  00909	8b 4d e8	 mov	 ecx, DWORD PTR _d$[ebp]
  0090c	33 48 24	 xor	 ecx, DWORD PTR [eax+36]
  0090f	89 4d e8	 mov	 DWORD PTR _d$[ebp], ecx
  00912	8b 55 ec	 mov	 edx, DWORD PTR _k$[ebp]
  00915	8b 45 dc	 mov	 eax, DWORD PTR _e$[ebp]
  00918	33 42 28	 xor	 eax, DWORD PTR [edx+40]
  0091b	89 45 dc	 mov	 DWORD PTR _e$[ebp], eax
  0091e	8b 4d ec	 mov	 ecx, DWORD PTR _k$[ebp]
  00921	8b 55 e4	 mov	 edx, DWORD PTR _c$[ebp]
  00924	33 51 2c	 xor	 edx, DWORD PTR [ecx+44]
  00927	89 55 e4	 mov	 DWORD PTR _c$[ebp], edx

; 876  : 		afterI2(ILT); afterI2(I1); afterI1(KX); 

  0092a	8b 45 dc	 mov	 eax, DWORD PTR _e$[ebp]
  0092d	c1 e8 16	 shr	 eax, 22			; 00000016H
  00930	8b 4d dc	 mov	 ecx, DWORD PTR _e$[ebp]
  00933	c1 e1 0a	 shl	 ecx, 10			; 0000000aH
  00936	0b c1		 or	 eax, ecx
  00938	89 45 dc	 mov	 DWORD PTR _e$[ebp], eax
  0093b	8b 55 f0	 mov	 edx, DWORD PTR _b$[ebp]
  0093e	c1 ea 05	 shr	 edx, 5
  00941	8b 45 f0	 mov	 eax, DWORD PTR _b$[ebp]
  00944	c1 e0 1b	 shl	 eax, 27			; 0000001bH
  00947	0b d0		 or	 edx, eax
  00949	89 55 f0	 mov	 DWORD PTR _b$[ebp], edx
  0094c	8b 4d e8	 mov	 ecx, DWORD PTR _d$[ebp]
  0094f	c1 e1 07	 shl	 ecx, 7
  00952	33 4d e4	 xor	 ecx, DWORD PTR _c$[ebp]
  00955	33 4d dc	 xor	 ecx, DWORD PTR _e$[ebp]
  00958	89 4d dc	 mov	 DWORD PTR _e$[ebp], ecx
  0095b	8b 55 e8	 mov	 edx, DWORD PTR _d$[ebp]
  0095e	33 55 e4	 xor	 edx, DWORD PTR _c$[ebp]
  00961	33 55 f0	 xor	 edx, DWORD PTR _b$[ebp]
  00964	89 55 f0	 mov	 DWORD PTR _b$[ebp], edx
  00967	8b 45 e8	 mov	 eax, DWORD PTR _d$[ebp]
  0096a	d1 e8		 shr	 eax, 1
  0096c	8b 4d e8	 mov	 ecx, DWORD PTR _d$[ebp]
  0096f	c1 e1 1f	 shl	 ecx, 31			; 0000001fH
  00972	0b c1		 or	 eax, ecx
  00974	89 45 e8	 mov	 DWORD PTR _d$[ebp], eax
  00977	8b 55 e4	 mov	 edx, DWORD PTR _c$[ebp]
  0097a	c1 ea 07	 shr	 edx, 7
  0097d	8b 45 e4	 mov	 eax, DWORD PTR _c$[ebp]
  00980	c1 e0 19	 shl	 eax, 25			; 00000019H
  00983	0b d0		 or	 edx, eax
  00985	33 55 dc	 xor	 edx, DWORD PTR _e$[ebp]
  00988	8b 4d f0	 mov	 ecx, DWORD PTR _b$[ebp]
  0098b	c1 e1 03	 shl	 ecx, 3
  0098e	33 d1		 xor	 edx, ecx
  00990	89 55 e4	 mov	 DWORD PTR _c$[ebp], edx
  00993	8b 55 f0	 mov	 edx, DWORD PTR _b$[ebp]
  00996	33 55 dc	 xor	 edx, DWORD PTR _e$[ebp]
  00999	33 55 e8	 xor	 edx, DWORD PTR _d$[ebp]
  0099c	89 55 e8	 mov	 DWORD PTR _d$[ebp], edx
  0099f	8b 45 dc	 mov	 eax, DWORD PTR _e$[ebp]
  009a2	c1 e8 03	 shr	 eax, 3
  009a5	8b 4d dc	 mov	 ecx, DWORD PTR _e$[ebp]
  009a8	c1 e1 1d	 shl	 ecx, 29			; 0000001dH
  009ab	0b c1		 or	 eax, ecx
  009ad	89 45 dc	 mov	 DWORD PTR _e$[ebp], eax
  009b0	8b 55 f0	 mov	 edx, DWORD PTR _b$[ebp]
  009b3	c1 ea 0d	 shr	 edx, 13			; 0000000dH
  009b6	8b 45 f0	 mov	 eax, DWORD PTR _b$[ebp]
  009b9	c1 e0 13	 shl	 eax, 19			; 00000013H
  009bc	0b d0		 or	 edx, eax
  009be	89 55 f0	 mov	 DWORD PTR _b$[ebp], edx
  009c1	8b 4d e8	 mov	 ecx, DWORD PTR _d$[ebp]
  009c4	89 4d fc	 mov	 DWORD PTR _a$[ebp], ecx
  009c7	8b 55 e8	 mov	 edx, DWORD PTR _d$[ebp]
  009ca	33 55 e4	 xor	 edx, DWORD PTR _c$[ebp]
  009cd	89 55 e8	 mov	 DWORD PTR _d$[ebp], edx
  009d0	8b 45 e4	 mov	 eax, DWORD PTR _c$[ebp]
  009d3	23 45 e8	 and	 eax, DWORD PTR _d$[ebp]
  009d6	89 45 e4	 mov	 DWORD PTR _c$[ebp], eax
  009d9	8b 4d fc	 mov	 ecx, DWORD PTR _a$[ebp]
  009dc	33 4d dc	 xor	 ecx, DWORD PTR _e$[ebp]
  009df	89 4d fc	 mov	 DWORD PTR _a$[ebp], ecx
  009e2	8b 55 e4	 mov	 edx, DWORD PTR _c$[ebp]
  009e5	33 55 f0	 xor	 edx, DWORD PTR _b$[ebp]
  009e8	89 55 e4	 mov	 DWORD PTR _c$[ebp], edx
  009eb	8b 45 f0	 mov	 eax, DWORD PTR _b$[ebp]
  009ee	0b 45 e8	 or	 eax, DWORD PTR _d$[ebp]
  009f1	89 45 f0	 mov	 DWORD PTR _b$[ebp], eax
  009f4	8b 4d dc	 mov	 ecx, DWORD PTR _e$[ebp]
  009f7	33 4d e4	 xor	 ecx, DWORD PTR _c$[ebp]
  009fa	89 4d dc	 mov	 DWORD PTR _e$[ebp], ecx
  009fd	8b 55 f0	 mov	 edx, DWORD PTR _b$[ebp]
  00a00	33 55 fc	 xor	 edx, DWORD PTR _a$[ebp]
  00a03	89 55 f0	 mov	 DWORD PTR _b$[ebp], edx
  00a06	8b 45 f0	 mov	 eax, DWORD PTR _b$[ebp]
  00a09	0b 45 dc	 or	 eax, DWORD PTR _e$[ebp]
  00a0c	89 45 f0	 mov	 DWORD PTR _b$[ebp], eax
  00a0f	8b 4d e8	 mov	 ecx, DWORD PTR _d$[ebp]
  00a12	33 4d e4	 xor	 ecx, DWORD PTR _c$[ebp]
  00a15	89 4d e8	 mov	 DWORD PTR _d$[ebp], ecx
  00a18	8b 55 f0	 mov	 edx, DWORD PTR _b$[ebp]
  00a1b	33 55 e8	 xor	 edx, DWORD PTR _d$[ebp]
  00a1e	89 55 f0	 mov	 DWORD PTR _b$[ebp], edx
  00a21	8b 45 e8	 mov	 eax, DWORD PTR _d$[ebp]
  00a24	0b 45 e4	 or	 eax, DWORD PTR _c$[ebp]
  00a27	89 45 e8	 mov	 DWORD PTR _d$[ebp], eax
  00a2a	8b 4d e8	 mov	 ecx, DWORD PTR _d$[ebp]
  00a2d	33 4d f0	 xor	 ecx, DWORD PTR _b$[ebp]
  00a30	89 4d e8	 mov	 DWORD PTR _d$[ebp], ecx
  00a33	8b 55 fc	 mov	 edx, DWORD PTR _a$[ebp]
  00a36	f7 d2		 not	 edx
  00a38	89 55 fc	 mov	 DWORD PTR _a$[ebp], edx
  00a3b	8b 45 fc	 mov	 eax, DWORD PTR _a$[ebp]
  00a3e	33 45 e8	 xor	 eax, DWORD PTR _d$[ebp]
  00a41	89 45 fc	 mov	 DWORD PTR _a$[ebp], eax
  00a44	8b 4d e8	 mov	 ecx, DWORD PTR _d$[ebp]
  00a47	0b 4d f0	 or	 ecx, DWORD PTR _b$[ebp]
  00a4a	89 4d e8	 mov	 DWORD PTR _d$[ebp], ecx
  00a4d	8b 55 e8	 mov	 edx, DWORD PTR _d$[ebp]
  00a50	33 55 f0	 xor	 edx, DWORD PTR _b$[ebp]
  00a53	89 55 e8	 mov	 DWORD PTR _d$[ebp], edx
  00a56	8b 45 e8	 mov	 eax, DWORD PTR _d$[ebp]
  00a59	0b 45 fc	 or	 eax, DWORD PTR _a$[ebp]
  00a5c	89 45 e8	 mov	 DWORD PTR _d$[ebp], eax
  00a5f	8b 4d e4	 mov	 ecx, DWORD PTR _c$[ebp]
  00a62	33 4d e8	 xor	 ecx, DWORD PTR _d$[ebp]
  00a65	89 4d e4	 mov	 DWORD PTR _c$[ebp], ecx
  00a68	8b 55 ec	 mov	 edx, DWORD PTR _k$[ebp]
  00a6b	8b 45 fc	 mov	 eax, DWORD PTR _a$[ebp]
  00a6e	33 42 10	 xor	 eax, DWORD PTR [edx+16]
  00a71	89 45 fc	 mov	 DWORD PTR _a$[ebp], eax
  00a74	8b 4d ec	 mov	 ecx, DWORD PTR _k$[ebp]
  00a77	8b 55 f0	 mov	 edx, DWORD PTR _b$[ebp]
  00a7a	33 51 14	 xor	 edx, DWORD PTR [ecx+20]
  00a7d	89 55 f0	 mov	 DWORD PTR _b$[ebp], edx
  00a80	8b 45 ec	 mov	 eax, DWORD PTR _k$[ebp]
  00a83	8b 4d e4	 mov	 ecx, DWORD PTR _c$[ebp]
  00a86	33 48 18	 xor	 ecx, DWORD PTR [eax+24]
  00a89	89 4d e4	 mov	 DWORD PTR _c$[ebp], ecx
  00a8c	8b 55 ec	 mov	 edx, DWORD PTR _k$[ebp]
  00a8f	8b 45 dc	 mov	 eax, DWORD PTR _e$[ebp]
  00a92	33 42 1c	 xor	 eax, DWORD PTR [edx+28]
  00a95	89 45 dc	 mov	 DWORD PTR _e$[ebp], eax

; 877  : 		afterI1(ILT); afterI1(I0); afterI0(KX);

  00a98	8b 4d e4	 mov	 ecx, DWORD PTR _c$[ebp]
  00a9b	c1 e9 16	 shr	 ecx, 22			; 00000016H
  00a9e	8b 55 e4	 mov	 edx, DWORD PTR _c$[ebp]
  00aa1	c1 e2 0a	 shl	 edx, 10			; 0000000aH
  00aa4	0b ca		 or	 ecx, edx
  00aa6	89 4d e4	 mov	 DWORD PTR _c$[ebp], ecx
  00aa9	8b 45 fc	 mov	 eax, DWORD PTR _a$[ebp]
  00aac	c1 e8 05	 shr	 eax, 5
  00aaf	8b 4d fc	 mov	 ecx, DWORD PTR _a$[ebp]
  00ab2	c1 e1 1b	 shl	 ecx, 27			; 0000001bH
  00ab5	0b c1		 or	 eax, ecx
  00ab7	89 45 fc	 mov	 DWORD PTR _a$[ebp], eax
  00aba	8b 55 f0	 mov	 edx, DWORD PTR _b$[ebp]
  00abd	c1 e2 07	 shl	 edx, 7
  00ac0	33 55 dc	 xor	 edx, DWORD PTR _e$[ebp]
  00ac3	33 55 e4	 xor	 edx, DWORD PTR _c$[ebp]
  00ac6	89 55 e4	 mov	 DWORD PTR _c$[ebp], edx
  00ac9	8b 45 f0	 mov	 eax, DWORD PTR _b$[ebp]
  00acc	33 45 dc	 xor	 eax, DWORD PTR _e$[ebp]
  00acf	33 45 fc	 xor	 eax, DWORD PTR _a$[ebp]
  00ad2	89 45 fc	 mov	 DWORD PTR _a$[ebp], eax
  00ad5	8b 4d f0	 mov	 ecx, DWORD PTR _b$[ebp]
  00ad8	d1 e9		 shr	 ecx, 1
  00ada	8b 55 f0	 mov	 edx, DWORD PTR _b$[ebp]
  00add	c1 e2 1f	 shl	 edx, 31			; 0000001fH
  00ae0	0b ca		 or	 ecx, edx
  00ae2	89 4d f0	 mov	 DWORD PTR _b$[ebp], ecx
  00ae5	8b 45 dc	 mov	 eax, DWORD PTR _e$[ebp]
  00ae8	c1 e8 07	 shr	 eax, 7
  00aeb	8b 4d dc	 mov	 ecx, DWORD PTR _e$[ebp]
  00aee	c1 e1 19	 shl	 ecx, 25			; 00000019H
  00af1	0b c1		 or	 eax, ecx
  00af3	33 45 e4	 xor	 eax, DWORD PTR _c$[ebp]
  00af6	8b 55 fc	 mov	 edx, DWORD PTR _a$[ebp]
  00af9	c1 e2 03	 shl	 edx, 3
  00afc	33 c2		 xor	 eax, edx
  00afe	89 45 dc	 mov	 DWORD PTR _e$[ebp], eax
  00b01	8b 45 fc	 mov	 eax, DWORD PTR _a$[ebp]
  00b04	33 45 e4	 xor	 eax, DWORD PTR _c$[ebp]
  00b07	33 45 f0	 xor	 eax, DWORD PTR _b$[ebp]
  00b0a	89 45 f0	 mov	 DWORD PTR _b$[ebp], eax
  00b0d	8b 4d e4	 mov	 ecx, DWORD PTR _c$[ebp]
  00b10	c1 e9 03	 shr	 ecx, 3
  00b13	8b 55 e4	 mov	 edx, DWORD PTR _c$[ebp]
  00b16	c1 e2 1d	 shl	 edx, 29			; 0000001dH
  00b19	0b ca		 or	 ecx, edx
  00b1b	89 4d e4	 mov	 DWORD PTR _c$[ebp], ecx
  00b1e	8b 45 fc	 mov	 eax, DWORD PTR _a$[ebp]
  00b21	c1 e8 0d	 shr	 eax, 13			; 0000000dH
  00b24	8b 4d fc	 mov	 ecx, DWORD PTR _a$[ebp]
  00b27	c1 e1 13	 shl	 ecx, 19			; 00000013H
  00b2a	0b c1		 or	 eax, ecx
  00b2c	89 45 fc	 mov	 DWORD PTR _a$[ebp], eax
  00b2f	8b 55 e4	 mov	 edx, DWORD PTR _c$[ebp]
  00b32	f7 d2		 not	 edx
  00b34	89 55 e4	 mov	 DWORD PTR _c$[ebp], edx
  00b37	8b 45 f0	 mov	 eax, DWORD PTR _b$[ebp]
  00b3a	89 45 e8	 mov	 DWORD PTR _d$[ebp], eax
  00b3d	8b 4d f0	 mov	 ecx, DWORD PTR _b$[ebp]
  00b40	0b 4d fc	 or	 ecx, DWORD PTR _a$[ebp]
  00b43	89 4d f0	 mov	 DWORD PTR _b$[ebp], ecx
  00b46	8b 55 e8	 mov	 edx, DWORD PTR _d$[ebp]
  00b49	f7 d2		 not	 edx
  00b4b	89 55 e8	 mov	 DWORD PTR _d$[ebp], edx
  00b4e	8b 45 f0	 mov	 eax, DWORD PTR _b$[ebp]
  00b51	33 45 e4	 xor	 eax, DWORD PTR _c$[ebp]
  00b54	89 45 f0	 mov	 DWORD PTR _b$[ebp], eax
  00b57	8b 4d e4	 mov	 ecx, DWORD PTR _c$[ebp]
  00b5a	0b 4d e8	 or	 ecx, DWORD PTR _d$[ebp]
  00b5d	89 4d e4	 mov	 DWORD PTR _c$[ebp], ecx
  00b60	8b 55 f0	 mov	 edx, DWORD PTR _b$[ebp]
  00b63	33 55 dc	 xor	 edx, DWORD PTR _e$[ebp]
  00b66	89 55 f0	 mov	 DWORD PTR _b$[ebp], edx
  00b69	8b 45 fc	 mov	 eax, DWORD PTR _a$[ebp]
  00b6c	33 45 e8	 xor	 eax, DWORD PTR _d$[ebp]
  00b6f	89 45 fc	 mov	 DWORD PTR _a$[ebp], eax
  00b72	8b 4d e4	 mov	 ecx, DWORD PTR _c$[ebp]
  00b75	33 4d fc	 xor	 ecx, DWORD PTR _a$[ebp]
  00b78	89 4d e4	 mov	 DWORD PTR _c$[ebp], ecx
  00b7b	8b 55 fc	 mov	 edx, DWORD PTR _a$[ebp]
  00b7e	23 55 dc	 and	 edx, DWORD PTR _e$[ebp]
  00b81	89 55 fc	 mov	 DWORD PTR _a$[ebp], edx
  00b84	8b 45 e8	 mov	 eax, DWORD PTR _d$[ebp]
  00b87	33 45 fc	 xor	 eax, DWORD PTR _a$[ebp]
  00b8a	89 45 e8	 mov	 DWORD PTR _d$[ebp], eax
  00b8d	8b 4d fc	 mov	 ecx, DWORD PTR _a$[ebp]
  00b90	0b 4d f0	 or	 ecx, DWORD PTR _b$[ebp]
  00b93	89 4d fc	 mov	 DWORD PTR _a$[ebp], ecx
  00b96	8b 55 fc	 mov	 edx, DWORD PTR _a$[ebp]
  00b99	33 55 e4	 xor	 edx, DWORD PTR _c$[ebp]
  00b9c	89 55 fc	 mov	 DWORD PTR _a$[ebp], edx
  00b9f	8b 45 dc	 mov	 eax, DWORD PTR _e$[ebp]
  00ba2	33 45 e8	 xor	 eax, DWORD PTR _d$[ebp]
  00ba5	89 45 dc	 mov	 DWORD PTR _e$[ebp], eax
  00ba8	8b 4d e4	 mov	 ecx, DWORD PTR _c$[ebp]
  00bab	33 4d f0	 xor	 ecx, DWORD PTR _b$[ebp]
  00bae	89 4d e4	 mov	 DWORD PTR _c$[ebp], ecx
  00bb1	8b 55 dc	 mov	 edx, DWORD PTR _e$[ebp]
  00bb4	33 55 fc	 xor	 edx, DWORD PTR _a$[ebp]
  00bb7	89 55 dc	 mov	 DWORD PTR _e$[ebp], edx
  00bba	8b 45 dc	 mov	 eax, DWORD PTR _e$[ebp]
  00bbd	33 45 f0	 xor	 eax, DWORD PTR _b$[ebp]
  00bc0	89 45 dc	 mov	 DWORD PTR _e$[ebp], eax
  00bc3	8b 4d e4	 mov	 ecx, DWORD PTR _c$[ebp]
  00bc6	23 4d dc	 and	 ecx, DWORD PTR _e$[ebp]
  00bc9	89 4d e4	 mov	 DWORD PTR _c$[ebp], ecx
  00bcc	8b 55 e8	 mov	 edx, DWORD PTR _d$[ebp]
  00bcf	33 55 e4	 xor	 edx, DWORD PTR _c$[ebp]
  00bd2	89 55 e8	 mov	 DWORD PTR _d$[ebp], edx
  00bd5	8b 45 ec	 mov	 eax, DWORD PTR _k$[ebp]
  00bd8	8b 4d fc	 mov	 ecx, DWORD PTR _a$[ebp]
  00bdb	33 08		 xor	 ecx, DWORD PTR [eax]
  00bdd	89 4d fc	 mov	 DWORD PTR _a$[ebp], ecx
  00be0	8b 55 ec	 mov	 edx, DWORD PTR _k$[ebp]
  00be3	8b 45 e8	 mov	 eax, DWORD PTR _d$[ebp]
  00be6	33 42 04	 xor	 eax, DWORD PTR [edx+4]
  00be9	89 45 e8	 mov	 DWORD PTR _d$[ebp], eax
  00bec	8b 4d ec	 mov	 ecx, DWORD PTR _k$[ebp]
  00bef	8b 55 f0	 mov	 edx, DWORD PTR _b$[ebp]
  00bf2	33 51 08	 xor	 edx, DWORD PTR [ecx+8]
  00bf5	89 55 f0	 mov	 DWORD PTR _b$[ebp], edx
  00bf8	8b 45 ec	 mov	 eax, DWORD PTR _k$[ebp]
  00bfb	8b 4d dc	 mov	 ecx, DWORD PTR _e$[ebp]
  00bfe	33 48 0c	 xor	 ecx, DWORD PTR [eax+12]
  00c01	89 4d dc	 mov	 DWORD PTR _e$[ebp], ecx

; 878  : 	}
; 879  : 	while (--i != 0);

  00c04	8b 55 f8	 mov	 edx, DWORD PTR _i$[ebp]
  00c07	83 ea 01	 sub	 edx, 1
  00c0a	89 55 f8	 mov	 DWORD PTR _i$[ebp], edx
  00c0d	0f 85 77 f4 ff
	ff		 jne	 $LN3@serpent_de

; 880  : 	
; 881  :     out[0] = LE32(a);

  00c13	8b 45 e0	 mov	 eax, DWORD PTR _out$[ebp]
  00c16	8b 4d fc	 mov	 ecx, DWORD PTR _a$[ebp]
  00c19	89 08		 mov	 DWORD PTR [eax], ecx

; 882  : 	out[1] = LE32(d);

  00c1b	8b 55 e0	 mov	 edx, DWORD PTR _out$[ebp]
  00c1e	8b 45 e8	 mov	 eax, DWORD PTR _d$[ebp]
  00c21	89 42 04	 mov	 DWORD PTR [edx+4], eax

; 883  : 	out[2] = LE32(b);

  00c24	8b 4d e0	 mov	 ecx, DWORD PTR _out$[ebp]
  00c27	8b 55 f0	 mov	 edx, DWORD PTR _b$[ebp]
  00c2a	89 51 08	 mov	 DWORD PTR [ecx+8], edx

; 884  : 	out[3] = LE32(e);

  00c2d	8b 45 e0	 mov	 eax, DWORD PTR _out$[ebp]
  00c30	8b 4d dc	 mov	 ecx, DWORD PTR _e$[ebp]
  00c33	89 48 0c	 mov	 DWORD PTR [eax+12], ecx

; 885  : }

  00c36	8b e5		 mov	 esp, ebp
  00c38	5d		 pop	 ebp
  00c39	c2 0c 00	 ret	 12			; 0000000cH
_serpent_decrypt@12 ENDP
_TEXT	ENDS
END
