; Listing generated by Microsoft (R) Optimizing Compiler Version 15.00.30729.01 

	TITLE	c:\home\public\Desktop\projects\ciphershed.build\src\Common\Keyfiles.c
	.686P
	.XMM
	include listing.inc
	.model	flat

INCLUDELIB LIBCMT
INCLUDELIB OLDNAMES

PUBLIC	??_C@_0P@GHFPNOJB@bad?5allocation?$AA@		; `string'
PUBLIC	?_Value@?$_Is_swap_move@U_Swap_move_tag@std@@@std@@2_NB ; std::_Is_swap_move<std::_Swap_move_tag>::_Value
PUBLIC	?collate@?$_Locbase@H@std@@2HB			; std::_Locbase<int>::collate
PUBLIC	?ctype@?$_Locbase@H@std@@2HB			; std::_Locbase<int>::ctype
PUBLIC	?monetary@?$_Locbase@H@std@@2HB			; std::_Locbase<int>::monetary
PUBLIC	?numeric@?$_Locbase@H@std@@2HB			; std::_Locbase<int>::numeric
PUBLIC	?time@?$_Locbase@H@std@@2HB			; std::_Locbase<int>::time
PUBLIC	?messages@?$_Locbase@H@std@@2HB			; std::_Locbase<int>::messages
PUBLIC	?all@?$_Locbase@H@std@@2HB			; std::_Locbase<int>::all
PUBLIC	?none@?$_Locbase@H@std@@2HB			; std::_Locbase<int>::none
PUBLIC	?table_size@?$ctype@D@std@@2IB			; std::ctype<char>::table_size
PUBLIC	?skipws@?$_Iosb@H@std@@2W4_Fmtflags@12@B	; std::_Iosb<int>::skipws
PUBLIC	?unitbuf@?$_Iosb@H@std@@2W4_Fmtflags@12@B	; std::_Iosb<int>::unitbuf
PUBLIC	?uppercase@?$_Iosb@H@std@@2W4_Fmtflags@12@B	; std::_Iosb<int>::uppercase
PUBLIC	?showbase@?$_Iosb@H@std@@2W4_Fmtflags@12@B	; std::_Iosb<int>::showbase
PUBLIC	?showpoint@?$_Iosb@H@std@@2W4_Fmtflags@12@B	; std::_Iosb<int>::showpoint
PUBLIC	?showpos@?$_Iosb@H@std@@2W4_Fmtflags@12@B	; std::_Iosb<int>::showpos
PUBLIC	?left@?$_Iosb@H@std@@2W4_Fmtflags@12@B		; std::_Iosb<int>::left
PUBLIC	?right@?$_Iosb@H@std@@2W4_Fmtflags@12@B		; std::_Iosb<int>::right
PUBLIC	?internal@?$_Iosb@H@std@@2W4_Fmtflags@12@B	; std::_Iosb<int>::internal
PUBLIC	?dec@?$_Iosb@H@std@@2W4_Fmtflags@12@B		; std::_Iosb<int>::dec
PUBLIC	?oct@?$_Iosb@H@std@@2W4_Fmtflags@12@B		; std::_Iosb<int>::oct
PUBLIC	?hex@?$_Iosb@H@std@@2W4_Fmtflags@12@B		; std::_Iosb<int>::hex
PUBLIC	?scientific@?$_Iosb@H@std@@2W4_Fmtflags@12@B	; std::_Iosb<int>::scientific
PUBLIC	?fixed@?$_Iosb@H@std@@2W4_Fmtflags@12@B		; std::_Iosb<int>::fixed
PUBLIC	?hexfloat@?$_Iosb@H@std@@2W4_Fmtflags@12@B	; std::_Iosb<int>::hexfloat
PUBLIC	?boolalpha@?$_Iosb@H@std@@2W4_Fmtflags@12@B	; std::_Iosb<int>::boolalpha
PUBLIC	?_Stdio@?$_Iosb@H@std@@2W4_Fmtflags@12@B	; std::_Iosb<int>::_Stdio
PUBLIC	?adjustfield@?$_Iosb@H@std@@2W4_Fmtflags@12@B	; std::_Iosb<int>::adjustfield
PUBLIC	?basefield@?$_Iosb@H@std@@2W4_Fmtflags@12@B	; std::_Iosb<int>::basefield
PUBLIC	?floatfield@?$_Iosb@H@std@@2W4_Fmtflags@12@B	; std::_Iosb<int>::floatfield
PUBLIC	?goodbit@?$_Iosb@H@std@@2W4_Iostate@12@B	; std::_Iosb<int>::goodbit
PUBLIC	?eofbit@?$_Iosb@H@std@@2W4_Iostate@12@B		; std::_Iosb<int>::eofbit
PUBLIC	?failbit@?$_Iosb@H@std@@2W4_Iostate@12@B	; std::_Iosb<int>::failbit
PUBLIC	?badbit@?$_Iosb@H@std@@2W4_Iostate@12@B		; std::_Iosb<int>::badbit
PUBLIC	?_Hardfail@?$_Iosb@H@std@@2W4_Iostate@12@B	; std::_Iosb<int>::_Hardfail
PUBLIC	?in@?$_Iosb@H@std@@2W4_Openmode@12@B		; std::_Iosb<int>::in
PUBLIC	?out@?$_Iosb@H@std@@2W4_Openmode@12@B		; std::_Iosb<int>::out
PUBLIC	?ate@?$_Iosb@H@std@@2W4_Openmode@12@B		; std::_Iosb<int>::ate
PUBLIC	?app@?$_Iosb@H@std@@2W4_Openmode@12@B		; std::_Iosb<int>::app
PUBLIC	?trunc@?$_Iosb@H@std@@2W4_Openmode@12@B		; std::_Iosb<int>::trunc
PUBLIC	?_Nocreate@?$_Iosb@H@std@@2W4_Openmode@12@B	; std::_Iosb<int>::_Nocreate
PUBLIC	?_Noreplace@?$_Iosb@H@std@@2W4_Openmode@12@B	; std::_Iosb<int>::_Noreplace
PUBLIC	?binary@?$_Iosb@H@std@@2W4_Openmode@12@B	; std::_Iosb<int>::binary
PUBLIC	?beg@?$_Iosb@H@std@@2W4_Seekdir@12@B		; std::_Iosb<int>::beg
PUBLIC	?cur@?$_Iosb@H@std@@2W4_Seekdir@12@B		; std::_Iosb<int>::cur
PUBLIC	?end@?$_Iosb@H@std@@2W4_Seekdir@12@B		; std::_Iosb<int>::end
PUBLIC	?value@?$integral_constant@_N$0A@@tr1@std@@2_NB	; std::tr1::integral_constant<bool,0>::value
PUBLIC	?value@?$integral_constant@_N$00@tr1@std@@2_NB	; std::tr1::integral_constant<bool,1>::value
PUBLIC	?MaxPasswordLength@SecurityToken@CipherShed@@2IB ; CipherShed::SecurityToken::MaxPasswordLength
PUBLIC	_HiddenFilesPresentInKeyfilePath
_BSS	SEGMENT
_HiddenFilesPresentInKeyfilePath DD 01H DUP (?)
_BSS	ENDS
;	COMDAT ?MaxPasswordLength@SecurityToken@CipherShed@@2IB
CONST	SEGMENT
?MaxPasswordLength@SecurityToken@CipherShed@@2IB DD 080H ; CipherShed::SecurityToken::MaxPasswordLength
CONST	ENDS
;	COMDAT ?value@?$integral_constant@_N$00@tr1@std@@2_NB
CONST	SEGMENT
?value@?$integral_constant@_N$00@tr1@std@@2_NB DB 01H	; std::tr1::integral_constant<bool,1>::value
CONST	ENDS
;	COMDAT ?value@?$integral_constant@_N$0A@@tr1@std@@2_NB
CONST	SEGMENT
?value@?$integral_constant@_N$0A@@tr1@std@@2_NB DB 00H	; std::tr1::integral_constant<bool,0>::value
CONST	ENDS
;	COMDAT ?end@?$_Iosb@H@std@@2W4_Seekdir@12@B
CONST	SEGMENT
?end@?$_Iosb@H@std@@2W4_Seekdir@12@B DD 02H		; std::_Iosb<int>::end
CONST	ENDS
;	COMDAT ?cur@?$_Iosb@H@std@@2W4_Seekdir@12@B
CONST	SEGMENT
?cur@?$_Iosb@H@std@@2W4_Seekdir@12@B DD 01H		; std::_Iosb<int>::cur
CONST	ENDS
;	COMDAT ?beg@?$_Iosb@H@std@@2W4_Seekdir@12@B
CONST	SEGMENT
?beg@?$_Iosb@H@std@@2W4_Seekdir@12@B DD 00H		; std::_Iosb<int>::beg
CONST	ENDS
;	COMDAT ?binary@?$_Iosb@H@std@@2W4_Openmode@12@B
CONST	SEGMENT
?binary@?$_Iosb@H@std@@2W4_Openmode@12@B DD 020H	; std::_Iosb<int>::binary
CONST	ENDS
;	COMDAT ?_Noreplace@?$_Iosb@H@std@@2W4_Openmode@12@B
CONST	SEGMENT
?_Noreplace@?$_Iosb@H@std@@2W4_Openmode@12@B DD 080H	; std::_Iosb<int>::_Noreplace
CONST	ENDS
;	COMDAT ?_Nocreate@?$_Iosb@H@std@@2W4_Openmode@12@B
CONST	SEGMENT
?_Nocreate@?$_Iosb@H@std@@2W4_Openmode@12@B DD 040H	; std::_Iosb<int>::_Nocreate
CONST	ENDS
;	COMDAT ?trunc@?$_Iosb@H@std@@2W4_Openmode@12@B
CONST	SEGMENT
?trunc@?$_Iosb@H@std@@2W4_Openmode@12@B DD 010H		; std::_Iosb<int>::trunc
CONST	ENDS
;	COMDAT ?app@?$_Iosb@H@std@@2W4_Openmode@12@B
CONST	SEGMENT
?app@?$_Iosb@H@std@@2W4_Openmode@12@B DD 08H		; std::_Iosb<int>::app
CONST	ENDS
;	COMDAT ?ate@?$_Iosb@H@std@@2W4_Openmode@12@B
CONST	SEGMENT
?ate@?$_Iosb@H@std@@2W4_Openmode@12@B DD 04H		; std::_Iosb<int>::ate
CONST	ENDS
;	COMDAT ?out@?$_Iosb@H@std@@2W4_Openmode@12@B
CONST	SEGMENT
?out@?$_Iosb@H@std@@2W4_Openmode@12@B DD 02H		; std::_Iosb<int>::out
CONST	ENDS
;	COMDAT ?in@?$_Iosb@H@std@@2W4_Openmode@12@B
CONST	SEGMENT
?in@?$_Iosb@H@std@@2W4_Openmode@12@B DD 01H		; std::_Iosb<int>::in
CONST	ENDS
;	COMDAT ?_Hardfail@?$_Iosb@H@std@@2W4_Iostate@12@B
CONST	SEGMENT
?_Hardfail@?$_Iosb@H@std@@2W4_Iostate@12@B DD 010H	; std::_Iosb<int>::_Hardfail
CONST	ENDS
;	COMDAT ?badbit@?$_Iosb@H@std@@2W4_Iostate@12@B
CONST	SEGMENT
?badbit@?$_Iosb@H@std@@2W4_Iostate@12@B DD 04H		; std::_Iosb<int>::badbit
CONST	ENDS
;	COMDAT ?failbit@?$_Iosb@H@std@@2W4_Iostate@12@B
CONST	SEGMENT
?failbit@?$_Iosb@H@std@@2W4_Iostate@12@B DD 02H		; std::_Iosb<int>::failbit
CONST	ENDS
;	COMDAT ?eofbit@?$_Iosb@H@std@@2W4_Iostate@12@B
CONST	SEGMENT
?eofbit@?$_Iosb@H@std@@2W4_Iostate@12@B DD 01H		; std::_Iosb<int>::eofbit
CONST	ENDS
;	COMDAT ?goodbit@?$_Iosb@H@std@@2W4_Iostate@12@B
CONST	SEGMENT
?goodbit@?$_Iosb@H@std@@2W4_Iostate@12@B DD 00H		; std::_Iosb<int>::goodbit
CONST	ENDS
;	COMDAT ?floatfield@?$_Iosb@H@std@@2W4_Fmtflags@12@B
CONST	SEGMENT
?floatfield@?$_Iosb@H@std@@2W4_Fmtflags@12@B DD 03000H	; std::_Iosb<int>::floatfield
CONST	ENDS
;	COMDAT ?basefield@?$_Iosb@H@std@@2W4_Fmtflags@12@B
CONST	SEGMENT
?basefield@?$_Iosb@H@std@@2W4_Fmtflags@12@B DD 0e00H	; std::_Iosb<int>::basefield
CONST	ENDS
;	COMDAT ?adjustfield@?$_Iosb@H@std@@2W4_Fmtflags@12@B
CONST	SEGMENT
?adjustfield@?$_Iosb@H@std@@2W4_Fmtflags@12@B DD 01c0H	; std::_Iosb<int>::adjustfield
CONST	ENDS
;	COMDAT ?_Stdio@?$_Iosb@H@std@@2W4_Fmtflags@12@B
CONST	SEGMENT
?_Stdio@?$_Iosb@H@std@@2W4_Fmtflags@12@B DD 08000H	; std::_Iosb<int>::_Stdio
CONST	ENDS
;	COMDAT ?boolalpha@?$_Iosb@H@std@@2W4_Fmtflags@12@B
CONST	SEGMENT
?boolalpha@?$_Iosb@H@std@@2W4_Fmtflags@12@B DD 04000H	; std::_Iosb<int>::boolalpha
CONST	ENDS
;	COMDAT ?hexfloat@?$_Iosb@H@std@@2W4_Fmtflags@12@B
CONST	SEGMENT
?hexfloat@?$_Iosb@H@std@@2W4_Fmtflags@12@B DD 03000H	; std::_Iosb<int>::hexfloat
CONST	ENDS
;	COMDAT ?fixed@?$_Iosb@H@std@@2W4_Fmtflags@12@B
CONST	SEGMENT
?fixed@?$_Iosb@H@std@@2W4_Fmtflags@12@B DD 02000H	; std::_Iosb<int>::fixed
CONST	ENDS
;	COMDAT ?scientific@?$_Iosb@H@std@@2W4_Fmtflags@12@B
CONST	SEGMENT
?scientific@?$_Iosb@H@std@@2W4_Fmtflags@12@B DD 01000H	; std::_Iosb<int>::scientific
CONST	ENDS
;	COMDAT ?hex@?$_Iosb@H@std@@2W4_Fmtflags@12@B
CONST	SEGMENT
?hex@?$_Iosb@H@std@@2W4_Fmtflags@12@B DD 0800H		; std::_Iosb<int>::hex
CONST	ENDS
;	COMDAT ?oct@?$_Iosb@H@std@@2W4_Fmtflags@12@B
CONST	SEGMENT
?oct@?$_Iosb@H@std@@2W4_Fmtflags@12@B DD 0400H		; std::_Iosb<int>::oct
CONST	ENDS
;	COMDAT ?dec@?$_Iosb@H@std@@2W4_Fmtflags@12@B
CONST	SEGMENT
?dec@?$_Iosb@H@std@@2W4_Fmtflags@12@B DD 0200H		; std::_Iosb<int>::dec
CONST	ENDS
;	COMDAT ?internal@?$_Iosb@H@std@@2W4_Fmtflags@12@B
CONST	SEGMENT
?internal@?$_Iosb@H@std@@2W4_Fmtflags@12@B DD 0100H	; std::_Iosb<int>::internal
CONST	ENDS
;	COMDAT ?right@?$_Iosb@H@std@@2W4_Fmtflags@12@B
CONST	SEGMENT
?right@?$_Iosb@H@std@@2W4_Fmtflags@12@B DD 080H		; std::_Iosb<int>::right
CONST	ENDS
;	COMDAT ?left@?$_Iosb@H@std@@2W4_Fmtflags@12@B
CONST	SEGMENT
?left@?$_Iosb@H@std@@2W4_Fmtflags@12@B DD 040H		; std::_Iosb<int>::left
CONST	ENDS
;	COMDAT ?showpos@?$_Iosb@H@std@@2W4_Fmtflags@12@B
CONST	SEGMENT
?showpos@?$_Iosb@H@std@@2W4_Fmtflags@12@B DD 020H	; std::_Iosb<int>::showpos
CONST	ENDS
;	COMDAT ?showpoint@?$_Iosb@H@std@@2W4_Fmtflags@12@B
CONST	SEGMENT
?showpoint@?$_Iosb@H@std@@2W4_Fmtflags@12@B DD 010H	; std::_Iosb<int>::showpoint
CONST	ENDS
;	COMDAT ?showbase@?$_Iosb@H@std@@2W4_Fmtflags@12@B
CONST	SEGMENT
?showbase@?$_Iosb@H@std@@2W4_Fmtflags@12@B DD 08H	; std::_Iosb<int>::showbase
CONST	ENDS
;	COMDAT ?uppercase@?$_Iosb@H@std@@2W4_Fmtflags@12@B
CONST	SEGMENT
?uppercase@?$_Iosb@H@std@@2W4_Fmtflags@12@B DD 04H	; std::_Iosb<int>::uppercase
CONST	ENDS
;	COMDAT ?unitbuf@?$_Iosb@H@std@@2W4_Fmtflags@12@B
CONST	SEGMENT
?unitbuf@?$_Iosb@H@std@@2W4_Fmtflags@12@B DD 02H	; std::_Iosb<int>::unitbuf
CONST	ENDS
;	COMDAT ?skipws@?$_Iosb@H@std@@2W4_Fmtflags@12@B
CONST	SEGMENT
?skipws@?$_Iosb@H@std@@2W4_Fmtflags@12@B DD 01H		; std::_Iosb<int>::skipws
CONST	ENDS
;	COMDAT ?table_size@?$ctype@D@std@@2IB
CONST	SEGMENT
?table_size@?$ctype@D@std@@2IB DD 0100H			; std::ctype<char>::table_size
CONST	ENDS
;	COMDAT ?none@?$_Locbase@H@std@@2HB
CONST	SEGMENT
?none@?$_Locbase@H@std@@2HB DD 00H			; std::_Locbase<int>::none
CONST	ENDS
;	COMDAT ?all@?$_Locbase@H@std@@2HB
CONST	SEGMENT
?all@?$_Locbase@H@std@@2HB DD 03fH			; std::_Locbase<int>::all
CONST	ENDS
;	COMDAT ?messages@?$_Locbase@H@std@@2HB
CONST	SEGMENT
?messages@?$_Locbase@H@std@@2HB DD 020H			; std::_Locbase<int>::messages
CONST	ENDS
;	COMDAT ?time@?$_Locbase@H@std@@2HB
CONST	SEGMENT
?time@?$_Locbase@H@std@@2HB DD 010H			; std::_Locbase<int>::time
CONST	ENDS
;	COMDAT ?numeric@?$_Locbase@H@std@@2HB
CONST	SEGMENT
?numeric@?$_Locbase@H@std@@2HB DD 08H			; std::_Locbase<int>::numeric
CONST	ENDS
;	COMDAT ?monetary@?$_Locbase@H@std@@2HB
CONST	SEGMENT
?monetary@?$_Locbase@H@std@@2HB DD 04H			; std::_Locbase<int>::monetary
CONST	ENDS
;	COMDAT ?ctype@?$_Locbase@H@std@@2HB
CONST	SEGMENT
?ctype@?$_Locbase@H@std@@2HB DD 02H			; std::_Locbase<int>::ctype
CONST	ENDS
;	COMDAT ?collate@?$_Locbase@H@std@@2HB
CONST	SEGMENT
?collate@?$_Locbase@H@std@@2HB DD 01H			; std::_Locbase<int>::collate
CONST	ENDS
;	COMDAT ?_Value@?$_Is_swap_move@U_Swap_move_tag@std@@@std@@2_NB
CONST	SEGMENT
?_Value@?$_Is_swap_move@U_Swap_move_tag@std@@@std@@2_NB DB 01H ; std::_Is_swap_move<std::_Swap_move_tag>::_Value
CONST	ENDS
_DATA	SEGMENT
__bad_alloc_Message DD FLAT:??_C@_0P@GHFPNOJB@bad?5allocation?$AA@
_DATA	ENDS
;	COMDAT ??_C@_0P@GHFPNOJB@bad?5allocation?$AA@
CONST	SEGMENT
??_C@_0P@GHFPNOJB@bad?5allocation?$AA@ DB 'bad allocation', 00H ; `string'
CONST	ENDS
PUBLIC	_RtlSecureZeroMemory
; Function compile flags: /Ogtpy
; File c:\program files\microsoft sdks\windows\v7.1\include\winnt.h
;	COMDAT _RtlSecureZeroMemory
_TEXT	SEGMENT
_ptr$ = 8						; size = 4
_cnt$ = 12						; size = 4
_RtlSecureZeroMemory PROC				; COMDAT

; 13070:     volatile char *vptr = (volatile char *)ptr;
; 13071: 
; 13072: #if defined(_M_AMD64)
; 13073: 
; 13074:         __stosb((PBYTE )((DWORD64)vptr), 0, cnt);
; 13075: 
; 13076: #else
; 13077: 
; 13078:     while (cnt) {

  00000	8b 54 24 08	 mov	 edx, DWORD PTR _cnt$[esp-4]
  00004	8b 44 24 04	 mov	 eax, DWORD PTR _ptr$[esp-4]
  00008	8b c8		 mov	 ecx, eax
  0000a	85 d2		 test	 edx, edx
  0000c	74 0b		 je	 SHORT $LN1@RtlSecureZ
  0000e	8b ff		 npad	 2
$LL2@RtlSecureZ:

; 13079:         *vptr = 0;

  00010	c6 01 00	 mov	 BYTE PTR [ecx], 0

; 13080:         vptr++;

  00013	41		 inc	 ecx

; 13081:         cnt--;

  00014	83 ea 01	 sub	 edx, 1
  00017	75 f7		 jne	 SHORT $LL2@RtlSecureZ
$LN1@RtlSecureZ:

; 13082:     }
; 13083: 
; 13084: #endif
; 13085: 
; 13086:     return ptr;
; 13087: }

  00019	c3		 ret	 0
_RtlSecureZeroMemory ENDP
_TEXT	ENDS
PUBLIC	??_7bad_alloc@std@@6B@				; std::bad_alloc::`vftable'
PUBLIC	??0bad_alloc@std@@QAE@PBD@Z			; std::bad_alloc::bad_alloc
PUBLIC	??_R4bad_alloc@std@@6B@				; std::bad_alloc::`RTTI Complete Object Locator'
PUBLIC	??_R0?AVbad_alloc@std@@@8			; std::bad_alloc `RTTI Type Descriptor'
PUBLIC	??_R3bad_alloc@std@@8				; std::bad_alloc::`RTTI Class Hierarchy Descriptor'
PUBLIC	??_R2bad_alloc@std@@8				; std::bad_alloc::`RTTI Base Class Array'
PUBLIC	??_R1A@?0A@EA@bad_alloc@std@@8			; std::bad_alloc::`RTTI Base Class Descriptor at (0,-1,0,64)'
PUBLIC	??_R1A@?0A@EA@exception@std@@8			; std::exception::`RTTI Base Class Descriptor at (0,-1,0,64)'
PUBLIC	??_R0?AVexception@std@@@8			; std::exception `RTTI Type Descriptor'
PUBLIC	??_R3exception@std@@8				; std::exception::`RTTI Class Hierarchy Descriptor'
PUBLIC	??_R2exception@std@@8				; std::exception::`RTTI Base Class Array'
EXTRN	??0exception@std@@QAE@ABQBD@Z:PROC		; std::exception::exception
EXTRN	??_7type_info@@6B@:QWORD			; type_info::`vftable'
EXTRN	??_Ebad_alloc@std@@UAEPAXI@Z:PROC		; std::bad_alloc::`vector deleting destructor'
EXTRN	?what@exception@std@@UBEPBDXZ:PROC		; std::exception::what
;	COMDAT ??_R2exception@std@@8
; File c:\program files (x86)\microsoft visual studio 9.0\vc\include\exception
rdata$r	SEGMENT
??_R2exception@std@@8 DD FLAT:??_R1A@?0A@EA@exception@std@@8 ; std::exception::`RTTI Base Class Array'
rdata$r	ENDS
;	COMDAT ??_R3exception@std@@8
rdata$r	SEGMENT
??_R3exception@std@@8 DD 00H				; std::exception::`RTTI Class Hierarchy Descriptor'
	DD	00H
	DD	01H
	DD	FLAT:??_R2exception@std@@8
rdata$r	ENDS
;	COMDAT ??_R0?AVexception@std@@@8
_DATA	SEGMENT
??_R0?AVexception@std@@@8 DD FLAT:??_7type_info@@6B@	; std::exception `RTTI Type Descriptor'
	DD	00H
	DB	'.?AVexception@std@@', 00H
_DATA	ENDS
;	COMDAT ??_R1A@?0A@EA@exception@std@@8
rdata$r	SEGMENT
??_R1A@?0A@EA@exception@std@@8 DD FLAT:??_R0?AVexception@std@@@8 ; std::exception::`RTTI Base Class Descriptor at (0,-1,0,64)'
	DD	00H
	DD	00H
	DD	0ffffffffH
	DD	00H
	DD	040H
	DD	FLAT:??_R3exception@std@@8
rdata$r	ENDS
;	COMDAT ??_R1A@?0A@EA@bad_alloc@std@@8
rdata$r	SEGMENT
??_R1A@?0A@EA@bad_alloc@std@@8 DD FLAT:??_R0?AVbad_alloc@std@@@8 ; std::bad_alloc::`RTTI Base Class Descriptor at (0,-1,0,64)'
	DD	01H
	DD	00H
	DD	0ffffffffH
	DD	00H
	DD	040H
	DD	FLAT:??_R3bad_alloc@std@@8
rdata$r	ENDS
;	COMDAT ??_R2bad_alloc@std@@8
rdata$r	SEGMENT
??_R2bad_alloc@std@@8 DD FLAT:??_R1A@?0A@EA@bad_alloc@std@@8 ; std::bad_alloc::`RTTI Base Class Array'
	DD	FLAT:??_R1A@?0A@EA@exception@std@@8
rdata$r	ENDS
;	COMDAT ??_R3bad_alloc@std@@8
rdata$r	SEGMENT
??_R3bad_alloc@std@@8 DD 00H				; std::bad_alloc::`RTTI Class Hierarchy Descriptor'
	DD	00H
	DD	02H
	DD	FLAT:??_R2bad_alloc@std@@8
rdata$r	ENDS
;	COMDAT ??_R0?AVbad_alloc@std@@@8
_DATA	SEGMENT
??_R0?AVbad_alloc@std@@@8 DD FLAT:??_7type_info@@6B@	; std::bad_alloc `RTTI Type Descriptor'
	DD	00H
	DB	'.?AVbad_alloc@std@@', 00H
_DATA	ENDS
;	COMDAT ??_R4bad_alloc@std@@6B@
rdata$r	SEGMENT
??_R4bad_alloc@std@@6B@ DD 00H				; std::bad_alloc::`RTTI Complete Object Locator'
	DD	00H
	DD	00H
	DD	FLAT:??_R0?AVbad_alloc@std@@@8
	DD	FLAT:??_R3bad_alloc@std@@8
rdata$r	ENDS
;	COMDAT ??_7bad_alloc@std@@6B@
CONST	SEGMENT
??_7bad_alloc@std@@6B@ DD FLAT:??_R4bad_alloc@std@@6B@	; std::bad_alloc::`vftable'
	DD	FLAT:??_Ebad_alloc@std@@UAEPAXI@Z
	DD	FLAT:?what@exception@std@@UBEPBDXZ
; Function compile flags: /Ogtpy
CONST	ENDS
;	COMDAT ??0bad_alloc@std@@QAE@PBD@Z
_TEXT	SEGMENT
__Message$ = 8						; size = 4
??0bad_alloc@std@@QAE@PBD@Z PROC			; std::bad_alloc::bad_alloc, COMDAT
; _this$ = ecx

; 371  : 		{	// construct from message string

  00000	56		 push	 esi
  00001	8d 44 24 08	 lea	 eax, DWORD PTR __Message$[esp]
  00005	50		 push	 eax
  00006	8b f1		 mov	 esi, ecx
  00008	e8 00 00 00 00	 call	 ??0exception@std@@QAE@ABQBD@Z ; std::exception::exception
  0000d	c7 06 00 00 00
	00		 mov	 DWORD PTR [esi], OFFSET ??_7bad_alloc@std@@6B@

; 372  : 		}

  00013	8b c6		 mov	 eax, esi
  00015	5e		 pop	 esi
  00016	c2 04 00	 ret	 4
??0bad_alloc@std@@QAE@PBD@Z ENDP			; std::bad_alloc::bad_alloc
_TEXT	ENDS
PUBLIC	??1bad_alloc@std@@UAE@XZ			; std::bad_alloc::~bad_alloc
EXTRN	??1exception@std@@UAE@XZ:PROC			; std::exception::~exception
; Function compile flags: /Ogtpy
;	COMDAT ??1bad_alloc@std@@UAE@XZ
_TEXT	SEGMENT
??1bad_alloc@std@@UAE@XZ PROC				; std::bad_alloc::~bad_alloc, COMDAT
; _this$ = ecx

; 380  : 		{	// destroy the object

  00000	c7 01 00 00 00
	00		 mov	 DWORD PTR [ecx], OFFSET ??_7bad_alloc@std@@6B@

; 381  : 		}

  00006	e9 00 00 00 00	 jmp	 ??1exception@std@@UAE@XZ ; std::exception::~exception
??1bad_alloc@std@@UAE@XZ ENDP				; std::bad_alloc::~bad_alloc
_TEXT	ENDS
EXTRN	??3@YAXPAX@Z:PROC				; operator delete
; Function compile flags: /Ogtpy
;	COMDAT ??_Gbad_alloc@std@@UAEPAXI@Z
_TEXT	SEGMENT
___flags$ = 8						; size = 4
??_Gbad_alloc@std@@UAEPAXI@Z PROC			; std::bad_alloc::`scalar deleting destructor', COMDAT
; _this$ = ecx
  00000	56		 push	 esi
  00001	8b f1		 mov	 esi, ecx
  00003	c7 06 00 00 00
	00		 mov	 DWORD PTR [esi], OFFSET ??_7bad_alloc@std@@6B@
  00009	e8 00 00 00 00	 call	 ??1exception@std@@UAE@XZ ; std::exception::~exception
  0000e	f6 44 24 08 01	 test	 BYTE PTR ___flags$[esp], 1
  00013	74 09		 je	 SHORT $LN6@scalar
  00015	56		 push	 esi
  00016	e8 00 00 00 00	 call	 ??3@YAXPAX@Z		; operator delete
  0001b	83 c4 04	 add	 esp, 4
$LN6@scalar:
  0001e	8b c6		 mov	 eax, esi
  00020	5e		 pop	 esi
  00021	c2 04 00	 ret	 4
??_Gbad_alloc@std@@UAEPAXI@Z ENDP			; std::bad_alloc::`scalar deleting destructor'
_TEXT	ENDS
PUBLIC	??2@YAPAXIPAX@Z					; operator new
; Function compile flags: /Ogtpy
; File c:\program files (x86)\microsoft visual studio 9.0\vc\include\new
;	COMDAT ??2@YAPAXIPAX@Z
_TEXT	SEGMENT
___formal$ = 8						; size = 4
__Where$ = 12						; size = 4
??2@YAPAXIPAX@Z PROC					; operator new, COMDAT

; 59   : 	return (_Where);

  00000	8b 44 24 08	 mov	 eax, DWORD PTR __Where$[esp-4]

; 60   : 	}

  00004	c3		 ret	 0
??2@YAPAXIPAX@Z ENDP					; operator new
_TEXT	ENDS
PUBLIC	??3@YAXPAX0@Z					; operator delete
; Function compile flags: /Ogtpy
;	COMDAT ??3@YAXPAX0@Z
_TEXT	SEGMENT
___formal$ = 8						; size = 4
___formal$ = 12						; size = 4
??3@YAXPAX0@Z PROC					; operator delete, COMDAT

; 64   : 	}

  00000	c3		 ret	 0
??3@YAXPAX0@Z ENDP					; operator delete
_TEXT	ENDS
PUBLIC	_wmemcpy_s
EXTRN	_memcpy_s:PROC
; Function compile flags: /Ogtpy
; File c:\program files (x86)\microsoft visual studio 9.0\vc\include\wchar.h
;	COMDAT _wmemcpy_s
_TEXT	SEGMENT
__S1$ = 8						; size = 4
__N1$ = 12						; size = 4
__S2$ = 16						; size = 4
__N$ = 20						; size = 4
_wmemcpy_s PROC						; COMDAT

; 1232 : #pragma warning( push )
; 1233 : #pragma warning( disable : 6386 )
; 1234 :             return memcpy_s(_S1, _N1*sizeof(wchar_t), _S2, _N*sizeof(wchar_t));

  00000	8b 44 24 10	 mov	 eax, DWORD PTR __N$[esp-4]
  00004	8d 0c 00	 lea	 ecx, DWORD PTR [eax+eax]
  00007	89 4c 24 10	 mov	 DWORD PTR __N$[esp-4], ecx
  0000b	8b 44 24 08	 mov	 eax, DWORD PTR __N1$[esp-4]
  0000f	8d 0c 00	 lea	 ecx, DWORD PTR [eax+eax]
  00012	89 4c 24 08	 mov	 DWORD PTR __N1$[esp-4], ecx
  00016	e9 00 00 00 00	 jmp	 _memcpy_s
_wmemcpy_s ENDP
_TEXT	ENDS
PUBLIC	_wmemmove_s
EXTRN	_memmove_s:PROC
; Function compile flags: /Ogtpy
;	COMDAT _wmemmove_s
_TEXT	SEGMENT
__S1$ = 8						; size = 4
__N1$ = 12						; size = 4
__S2$ = 16						; size = 4
__N$ = 20						; size = 4
_wmemmove_s PROC					; COMDAT

; 1252 : #pragma warning( push )
; 1253 : #pragma warning( disable : 6386 )
; 1254 :             return memmove_s(_S1, _N1*sizeof(wchar_t), _S2, _N*sizeof(wchar_t));

  00000	8b 44 24 10	 mov	 eax, DWORD PTR __N$[esp-4]
  00004	8d 0c 00	 lea	 ecx, DWORD PTR [eax+eax]
  00007	89 4c 24 10	 mov	 DWORD PTR __N$[esp-4], ecx
  0000b	8b 44 24 08	 mov	 eax, DWORD PTR __N1$[esp-4]
  0000f	8d 0c 00	 lea	 ecx, DWORD PTR [eax+eax]
  00012	89 4c 24 08	 mov	 DWORD PTR __N1$[esp-4], ecx
  00016	e9 00 00 00 00	 jmp	 _memmove_s
_wmemmove_s ENDP
_TEXT	ENDS
PUBLIC	?assign@?$char_traits@_W@std@@SAXAA_WAB_W@Z	; std::char_traits<wchar_t>::assign
; Function compile flags: /Ogtpy
; File c:\program files (x86)\microsoft visual studio 9.0\vc\include\iosfwd
;	COMDAT ?assign@?$char_traits@_W@std@@SAXAA_WAB_W@Z
_TEXT	SEGMENT
__Left$ = 8						; size = 4
__Right$ = 12						; size = 4
?assign@?$char_traits@_W@std@@SAXAA_WAB_W@Z PROC	; std::char_traits<wchar_t>::assign, COMDAT

; 310  : 		_Left = _Right;

  00000	8b 44 24 08	 mov	 eax, DWORD PTR __Right$[esp-4]
  00004	66 8b 08	 mov	 cx, WORD PTR [eax]
  00007	8b 54 24 04	 mov	 edx, DWORD PTR __Left$[esp-4]
  0000b	66 89 0a	 mov	 WORD PTR [edx], cx

; 311  : 		}

  0000e	c3		 ret	 0
?assign@?$char_traits@_W@std@@SAXAA_WAB_W@Z ENDP	; std::char_traits<wchar_t>::assign
_TEXT	ENDS
PUBLIC	?length@?$char_traits@_W@std@@SAIPB_W@Z		; std::char_traits<wchar_t>::length
; Function compile flags: /Ogtpy
;	COMDAT ?length@?$char_traits@_W@std@@SAIPB_W@Z
_TEXT	SEGMENT
__First$ = 8						; size = 4
?length@?$char_traits@_W@std@@SAIPB_W@Z PROC		; std::char_traits<wchar_t>::length, COMDAT

; 333  : //		_DEBUG_POINTER(_First);
; 334  : 		return (::wcslen(_First));

  00000	8b 44 24 04	 mov	 eax, DWORD PTR __First$[esp-4]
  00004	8d 50 02	 lea	 edx, DWORD PTR [eax+2]
$LL3@length:
  00007	66 8b 08	 mov	 cx, WORD PTR [eax]
  0000a	83 c0 02	 add	 eax, 2
  0000d	66 85 c9	 test	 cx, cx
  00010	75 f5		 jne	 SHORT $LL3@length
  00012	2b c2		 sub	 eax, edx
  00014	d1 f8		 sar	 eax, 1

; 335  : 		}

  00016	c3		 ret	 0
?length@?$char_traits@_W@std@@SAIPB_W@Z ENDP		; std::char_traits<wchar_t>::length
_TEXT	ENDS
PUBLIC	?_Copy_s@?$char_traits@_W@std@@SAPA_WPA_WIPB_WI@Z ; std::char_traits<wchar_t>::_Copy_s
; Function compile flags: /Ogtpy
;	COMDAT ?_Copy_s@?$char_traits@_W@std@@SAPA_WPA_WIPB_WI@Z
_TEXT	SEGMENT
__First1$ = 8						; size = 4
__Size_in_words$ = 12					; size = 4
__First2$ = 16						; size = 4
__Count$ = 20						; size = 4
?_Copy_s@?$char_traits@_W@std@@SAPA_WPA_WIPB_WI@Z PROC	; std::char_traits<wchar_t>::_Copy_s, COMDAT

; 348  : //		_DEBUG_POINTER(_First1);
; 349  : //		_DEBUG_POINTER(_First2);
; 350  : 		_CRT_SECURE_WMEMCPY(_First1, _Size_in_words, _First2, _Count);

  00000	8b 44 24 10	 mov	 eax, DWORD PTR __Count$[esp-4]
  00004	8b 54 24 0c	 mov	 edx, DWORD PTR __First2$[esp-4]
  00008	56		 push	 esi
  00009	8b 74 24 08	 mov	 esi, DWORD PTR __First1$[esp]
  0000d	8d 0c 00	 lea	 ecx, DWORD PTR [eax+eax]
  00010	8b 44 24 0c	 mov	 eax, DWORD PTR __Size_in_words$[esp]
  00014	51		 push	 ecx
  00015	52		 push	 edx
  00016	8d 0c 00	 lea	 ecx, DWORD PTR [eax+eax]
  00019	51		 push	 ecx
  0001a	56		 push	 esi
  0001b	e8 00 00 00 00	 call	 _memcpy_s
  00020	83 c4 10	 add	 esp, 16			; 00000010H

; 351  : 		return _First1;

  00023	8b c6		 mov	 eax, esi
  00025	5e		 pop	 esi

; 352  : 		}

  00026	c3		 ret	 0
?_Copy_s@?$char_traits@_W@std@@SAPA_WPA_WIPB_WI@Z ENDP	; std::char_traits<wchar_t>::_Copy_s
_TEXT	ENDS
PUBLIC	?_Move_s@?$char_traits@_W@std@@SAPA_WPA_WIPB_WI@Z ; std::char_traits<wchar_t>::_Move_s
; Function compile flags: /Ogtpy
;	COMDAT ?_Move_s@?$char_traits@_W@std@@SAPA_WPA_WIPB_WI@Z
_TEXT	SEGMENT
__First1$ = 8						; size = 4
__Size_in_words$ = 12					; size = 4
__First2$ = 16						; size = 4
__Count$ = 20						; size = 4
?_Move_s@?$char_traits@_W@std@@SAPA_WPA_WIPB_WI@Z PROC	; std::char_traits<wchar_t>::_Move_s, COMDAT

; 372  : //		_DEBUG_POINTER(_First1);
; 373  : //		_DEBUG_POINTER(_First2);
; 374  : 		_CRT_SECURE_WMEMMOVE(_First1, _Size_in_words, _First2, _Count);

  00000	8b 44 24 10	 mov	 eax, DWORD PTR __Count$[esp-4]
  00004	8b 54 24 0c	 mov	 edx, DWORD PTR __First2$[esp-4]
  00008	56		 push	 esi
  00009	8b 74 24 08	 mov	 esi, DWORD PTR __First1$[esp]
  0000d	8d 0c 00	 lea	 ecx, DWORD PTR [eax+eax]
  00010	8b 44 24 0c	 mov	 eax, DWORD PTR __Size_in_words$[esp]
  00014	51		 push	 ecx
  00015	52		 push	 edx
  00016	8d 0c 00	 lea	 ecx, DWORD PTR [eax+eax]
  00019	51		 push	 ecx
  0001a	56		 push	 esi
  0001b	e8 00 00 00 00	 call	 _memmove_s
  00020	83 c4 10	 add	 esp, 16			; 00000010H

; 375  : 		return (_Elem *)_First1;

  00023	8b c6		 mov	 eax, esi
  00025	5e		 pop	 esi

; 376  : 		}

  00026	c3		 ret	 0
?_Move_s@?$char_traits@_W@std@@SAPA_WPA_WIPB_WI@Z ENDP	; std::char_traits<wchar_t>::_Move_s
_TEXT	ENDS
PUBLIC	?assign@?$char_traits@D@std@@SAXAADABD@Z	; std::char_traits<char>::assign
; Function compile flags: /Ogtpy
;	COMDAT ?assign@?$char_traits@D@std@@SAXAADABD@Z
_TEXT	SEGMENT
__Left$ = 8						; size = 4
__Right$ = 12						; size = 4
?assign@?$char_traits@D@std@@SAXAADABD@Z PROC		; std::char_traits<char>::assign, COMDAT

; 425  : 		_Left = _Right;

  00000	8b 44 24 08	 mov	 eax, DWORD PTR __Right$[esp-4]
  00004	8a 08		 mov	 cl, BYTE PTR [eax]
  00006	8b 54 24 04	 mov	 edx, DWORD PTR __Left$[esp-4]
  0000a	88 0a		 mov	 BYTE PTR [edx], cl

; 426  : 		}

  0000c	c3		 ret	 0
?assign@?$char_traits@D@std@@SAXAADABD@Z ENDP		; std::char_traits<char>::assign
_TEXT	ENDS
PUBLIC	?length@?$char_traits@D@std@@SAIPBD@Z		; std::char_traits<char>::length
; Function compile flags: /Ogtpy
;	COMDAT ?length@?$char_traits@D@std@@SAIPBD@Z
_TEXT	SEGMENT
__First$ = 8						; size = 4
?length@?$char_traits@D@std@@SAIPBD@Z PROC		; std::char_traits<char>::length, COMDAT

; 448  : //		_DEBUG_POINTER(_First);
; 449  : 		return (::strlen(_First));

  00000	8b 44 24 04	 mov	 eax, DWORD PTR __First$[esp-4]
  00004	8d 50 01	 lea	 edx, DWORD PTR [eax+1]
$LL3@length@2:
  00007	8a 08		 mov	 cl, BYTE PTR [eax]
  00009	40		 inc	 eax
  0000a	84 c9		 test	 cl, cl
  0000c	75 f9		 jne	 SHORT $LL3@length@2
  0000e	2b c2		 sub	 eax, edx

; 450  : 		}

  00010	c3		 ret	 0
?length@?$char_traits@D@std@@SAIPBD@Z ENDP		; std::char_traits<char>::length
_TEXT	ENDS
PUBLIC	?_Copy_s@?$char_traits@D@std@@SAPADPADIPBDI@Z	; std::char_traits<char>::_Copy_s
; Function compile flags: /Ogtpy
;	COMDAT ?_Copy_s@?$char_traits@D@std@@SAPADPADIPBDI@Z
_TEXT	SEGMENT
__First1$ = 8						; size = 4
__Size_in_bytes$ = 12					; size = 4
__First2$ = 16						; size = 4
__Count$ = 20						; size = 4
?_Copy_s@?$char_traits@D@std@@SAPADPADIPBDI@Z PROC	; std::char_traits<char>::_Copy_s, COMDAT

; 463  : //		_DEBUG_POINTER(_First1);
; 464  : //		_DEBUG_POINTER(_First2);
; 465  : 		_CRT_SECURE_MEMCPY(_First1, _Size_in_bytes, _First2, _Count);

  00000	8b 44 24 10	 mov	 eax, DWORD PTR __Count$[esp-4]
  00004	8b 4c 24 0c	 mov	 ecx, DWORD PTR __First2$[esp-4]
  00008	8b 54 24 08	 mov	 edx, DWORD PTR __Size_in_bytes$[esp-4]
  0000c	56		 push	 esi
  0000d	8b 74 24 08	 mov	 esi, DWORD PTR __First1$[esp]
  00011	50		 push	 eax
  00012	51		 push	 ecx
  00013	52		 push	 edx
  00014	56		 push	 esi
  00015	e8 00 00 00 00	 call	 _memcpy_s
  0001a	83 c4 10	 add	 esp, 16			; 00000010H

; 466  : 		return _First1;

  0001d	8b c6		 mov	 eax, esi
  0001f	5e		 pop	 esi

; 467  : 		}

  00020	c3		 ret	 0
?_Copy_s@?$char_traits@D@std@@SAPADPADIPBDI@Z ENDP	; std::char_traits<char>::_Copy_s
_TEXT	ENDS
PUBLIC	?_Move_s@?$char_traits@D@std@@SAPADPADIPBDI@Z	; std::char_traits<char>::_Move_s
; Function compile flags: /Ogtpy
;	COMDAT ?_Move_s@?$char_traits@D@std@@SAPADPADIPBDI@Z
_TEXT	SEGMENT
__First1$ = 8						; size = 4
__Size_in_bytes$ = 12					; size = 4
__First2$ = 16						; size = 4
__Count$ = 20						; size = 4
?_Move_s@?$char_traits@D@std@@SAPADPADIPBDI@Z PROC	; std::char_traits<char>::_Move_s, COMDAT

; 487  : //		_DEBUG_POINTER(_First1);
; 488  : //		_DEBUG_POINTER(_First2);
; 489  : 		_CRT_SECURE_MEMMOVE(_First1, _Size_in_bytes, _First2, _Count);

  00000	8b 44 24 10	 mov	 eax, DWORD PTR __Count$[esp-4]
  00004	8b 4c 24 0c	 mov	 ecx, DWORD PTR __First2$[esp-4]
  00008	8b 54 24 08	 mov	 edx, DWORD PTR __Size_in_bytes$[esp-4]
  0000c	56		 push	 esi
  0000d	8b 74 24 08	 mov	 esi, DWORD PTR __First1$[esp]
  00011	50		 push	 eax
  00012	51		 push	 ecx
  00013	52		 push	 edx
  00014	56		 push	 esi
  00015	e8 00 00 00 00	 call	 _memmove_s
  0001a	83 c4 10	 add	 esp, 16			; 00000010H

; 490  : 		return _First1;

  0001d	8b c6		 mov	 eax, esi
  0001f	5e		 pop	 esi

; 491  : 		}

  00020	c3		 ret	 0
?_Move_s@?$char_traits@D@std@@SAPADPADIPBDI@Z ENDP	; std::char_traits<char>::_Move_s
_TEXT	ENDS
PUBLIC	??0_Aux_cont@std@@QAE@QBV_Container_base_aux@1@@Z ; std::_Aux_cont::_Aux_cont
; Function compile flags: /Ogtpy
; File c:\program files (x86)\microsoft visual studio 9.0\vc\include\xutility
;	COMDAT ??0_Aux_cont@std@@QAE@QBV_Container_base_aux@1@@Z
_TEXT	SEGMENT
__Pcont$ = 8						; size = 4
??0_Aux_cont@std@@QAE@QBV_Container_base_aux@1@@Z PROC	; std::_Aux_cont::_Aux_cont, COMDAT
; _this$ = ecx

; 364  : 	explicit _Aux_cont(const _Container_base_aux * const _Pcont)

  00000	8b c1		 mov	 eax, ecx
  00002	8b 4c 24 04	 mov	 ecx, DWORD PTR __Pcont$[esp-4]
  00006	89 08		 mov	 DWORD PTR [eax], ecx
  00008	c2 04 00	 ret	 4
??0_Aux_cont@std@@QAE@QBV_Container_base_aux@1@@Z ENDP	; std::_Aux_cont::_Aux_cont
_TEXT	ENDS
PUBLIC	?_Getcont@_Aux_cont@std@@QBEPBV_Container_base_aux@2@XZ ; std::_Aux_cont::_Getcont
; Function compile flags: /Ogtpy
;	COMDAT ?_Getcont@_Aux_cont@std@@QBEPBV_Container_base_aux@2@XZ
_TEXT	SEGMENT
?_Getcont@_Aux_cont@std@@QBEPBV_Container_base_aux@2@XZ PROC ; std::_Aux_cont::_Getcont, COMDAT
; _this$ = ecx

; 369  : 		return _Mycontainer;

  00000	8b 01		 mov	 eax, DWORD PTR [ecx]

; 370  : 		}

  00002	c3		 ret	 0
?_Getcont@_Aux_cont@std@@QBEPBV_Container_base_aux@2@XZ ENDP ; std::_Aux_cont::_Getcont
_TEXT	ENDS
PUBLIC	??0_Container_base_aux@std@@QAE@XZ		; std::_Container_base_aux::_Container_base_aux
; Function compile flags: /Ogtpy
;	COMDAT ??0_Container_base_aux@std@@QAE@XZ
_TEXT	SEGMENT
??0_Container_base_aux@std@@QAE@XZ PROC			; std::_Container_base_aux::_Container_base_aux, COMDAT
; _this$ = ecx

; 379  : 	_Container_base_aux()

  00000	8b c1		 mov	 eax, ecx

; 380  : 		{
; 381  : 		// Do nothing: _Container_base_aux_alloc_real() will construct the aux object.
; 382  : 		}

  00002	c3		 ret	 0
??0_Container_base_aux@std@@QAE@XZ ENDP			; std::_Container_base_aux::_Container_base_aux
_TEXT	ENDS
PUBLIC	??1_Container_base_aux@std@@QAE@XZ		; std::_Container_base_aux::~_Container_base_aux
; Function compile flags: /Ogtpy
;	COMDAT ??1_Container_base_aux@std@@QAE@XZ
_TEXT	SEGMENT
??1_Container_base_aux@std@@QAE@XZ PROC			; std::_Container_base_aux::~_Container_base_aux, COMDAT
; _this$ = ecx

; 403  : 		// Do nothing: ~_Container_base_aux_alloc_real() previously destroyed the aux object.
; 404  : 		}

  00000	c3		 ret	 0
??1_Container_base_aux@std@@QAE@XZ ENDP			; std::_Container_base_aux::~_Container_base_aux
_TEXT	ENDS
PUBLIC	??0_Iterator_base_aux@std@@QAE@XZ		; std::_Iterator_base_aux::_Iterator_base_aux
; Function compile flags: /Ogtpy
;	COMDAT ??0_Iterator_base_aux@std@@QAE@XZ
_TEXT	SEGMENT
??0_Iterator_base_aux@std@@QAE@XZ PROC			; std::_Iterator_base_aux::_Iterator_base_aux, COMDAT
; _this$ = ecx

; 448  : 	_Iterator_base_aux()

  00000	8b c1		 mov	 eax, ecx
  00002	c7 00 00 00 00
	00		 mov	 DWORD PTR [eax], 0
  00008	c3		 ret	 0
??0_Iterator_base_aux@std@@QAE@XZ ENDP			; std::_Iterator_base_aux::_Iterator_base_aux
_TEXT	ENDS
PUBLIC	?_Set_container@_Iterator_base_aux@std@@QAEXQBV_Container_base_aux@2@@Z ; std::_Iterator_base_aux::_Set_container
; Function compile flags: /Ogtpy
;	COMDAT ?_Set_container@_Iterator_base_aux@std@@QAEXQBV_Container_base_aux@2@@Z
_TEXT	SEGMENT
__Pcont$ = 8						; size = 4
?_Set_container@_Iterator_base_aux@std@@QAEXQBV_Container_base_aux@2@@Z PROC ; std::_Iterator_base_aux::_Set_container, COMDAT
; _this$ = ecx

; 453  : 		_Myaux = _Pcont->_Myownedaux;

  00000	8b 44 24 04	 mov	 eax, DWORD PTR __Pcont$[esp-4]
  00004	8b 10		 mov	 edx, DWORD PTR [eax]
  00006	89 11		 mov	 DWORD PTR [ecx], edx

; 454  : 		}

  00008	c2 04 00	 ret	 4
?_Set_container@_Iterator_base_aux@std@@QAEXQBV_Container_base_aux@2@@Z ENDP ; std::_Iterator_base_aux::_Set_container
_TEXT	ENDS
PUBLIC	?_Getmycont@_Iterator_base_aux@std@@QBEPBV_Container_base_aux@2@XZ ; std::_Iterator_base_aux::_Getmycont
; Function compile flags: /Ogtpy
;	COMDAT ?_Getmycont@_Iterator_base_aux@std@@QBEPBV_Container_base_aux@2@XZ
_TEXT	SEGMENT
?_Getmycont@_Iterator_base_aux@std@@QBEPBV_Container_base_aux@2@XZ PROC ; std::_Iterator_base_aux::_Getmycont, COMDAT
; _this$ = ecx

; 458  : 		return _Myaux ? _Myaux->_Getcont() : 0;

  00000	8b 01		 mov	 eax, DWORD PTR [ecx]
  00002	85 c0		 test	 eax, eax
  00004	74 03		 je	 SHORT $LN3@Getmycont
  00006	8b 00		 mov	 eax, DWORD PTR [eax]

; 459  : 		}

  00008	c3		 ret	 0
$LN3@Getmycont:

; 458  : 		return _Myaux ? _Myaux->_Getcont() : 0;

  00009	33 c0		 xor	 eax, eax

; 459  : 		}

  0000b	c3		 ret	 0
?_Getmycont@_Iterator_base_aux@std@@QBEPBV_Container_base_aux@2@XZ ENDP ; std::_Iterator_base_aux::_Getmycont
_TEXT	ENDS
PUBLIC	?_Same_container@_Iterator_base_aux@std@@QBE_NABV12@@Z ; std::_Iterator_base_aux::_Same_container
; Function compile flags: /Ogtpy
;	COMDAT ?_Same_container@_Iterator_base_aux@std@@QBE_NABV12@@Z
_TEXT	SEGMENT
__Other$ = 8						; size = 4
?_Same_container@_Iterator_base_aux@std@@QBE_NABV12@@Z PROC ; std::_Iterator_base_aux::_Same_container, COMDAT
; _this$ = ecx

; 463  : 		return _Myaux == _Other._Myaux;

  00000	8b 01		 mov	 eax, DWORD PTR [ecx]
  00002	8b 54 24 04	 mov	 edx, DWORD PTR __Other$[esp-4]
  00006	33 c9		 xor	 ecx, ecx
  00008	3b 02		 cmp	 eax, DWORD PTR [edx]
  0000a	0f 94 c1	 sete	 cl
  0000d	8a c1		 mov	 al, cl

; 464  : 		}

  0000f	c2 04 00	 ret	 4
?_Same_container@_Iterator_base_aux@std@@QBE_NABV12@@Z ENDP ; std::_Iterator_base_aux::_Same_container
_TEXT	ENDS
PUBLIC	?_Has_container@_Iterator_base_aux@std@@QBE_NXZ	; std::_Iterator_base_aux::_Has_container
; Function compile flags: /Ogtpy
;	COMDAT ?_Has_container@_Iterator_base_aux@std@@QBE_NXZ
_TEXT	SEGMENT
?_Has_container@_Iterator_base_aux@std@@QBE_NXZ PROC	; std::_Iterator_base_aux::_Has_container, COMDAT
; _this$ = ecx

; 468  : 		return _Myaux != 0;

  00000	33 c0		 xor	 eax, eax
  00002	39 01		 cmp	 DWORD PTR [ecx], eax
  00004	0f 95 c0	 setne	 al

; 469  : 		}

  00007	c3		 ret	 0
?_Has_container@_Iterator_base_aux@std@@QBE_NXZ ENDP	; std::_Iterator_base_aux::_Has_container
_TEXT	ENDS
PUBLIC	??_7Container@ForEach@CipherShed@@6B@		; CipherShed::ForEach::Container::`vftable'
PUBLIC	??0Container@ForEach@CipherShed@@QAE@XZ		; CipherShed::ForEach::Container::Container
PUBLIC	??_R4Container@ForEach@CipherShed@@6B@		; CipherShed::ForEach::Container::`RTTI Complete Object Locator'
PUBLIC	??_R0?AUContainer@ForEach@CipherShed@@@8	; CipherShed::ForEach::Container `RTTI Type Descriptor'
PUBLIC	??_R3Container@ForEach@CipherShed@@8		; CipherShed::ForEach::Container::`RTTI Class Hierarchy Descriptor'
PUBLIC	??_R2Container@ForEach@CipherShed@@8		; CipherShed::ForEach::Container::`RTTI Base Class Array'
PUBLIC	??_R1A@?0A@EA@Container@ForEach@CipherShed@@8	; CipherShed::ForEach::Container::`RTTI Base Class Descriptor at (0,-1,0,64)'
EXTRN	??_EContainer@ForEach@CipherShed@@UAEPAXI@Z:PROC ; CipherShed::ForEach::Container::`vector deleting destructor'
EXTRN	__purecall:PROC
;	COMDAT ??_R1A@?0A@EA@Container@ForEach@CipherShed@@8
; File c:\home\public\desktop\projects\ciphershed.build\src\platform\foreach.h
rdata$r	SEGMENT
??_R1A@?0A@EA@Container@ForEach@CipherShed@@8 DD FLAT:??_R0?AUContainer@ForEach@CipherShed@@@8 ; CipherShed::ForEach::Container::`RTTI Base Class Descriptor at (0,-1,0,64)'
	DD	00H
	DD	00H
	DD	0ffffffffH
	DD	00H
	DD	040H
	DD	FLAT:??_R3Container@ForEach@CipherShed@@8
rdata$r	ENDS
;	COMDAT ??_R2Container@ForEach@CipherShed@@8
rdata$r	SEGMENT
??_R2Container@ForEach@CipherShed@@8 DD FLAT:??_R1A@?0A@EA@Container@ForEach@CipherShed@@8 ; CipherShed::ForEach::Container::`RTTI Base Class Array'
rdata$r	ENDS
;	COMDAT ??_R3Container@ForEach@CipherShed@@8
rdata$r	SEGMENT
??_R3Container@ForEach@CipherShed@@8 DD 00H		; CipherShed::ForEach::Container::`RTTI Class Hierarchy Descriptor'
	DD	00H
	DD	01H
	DD	FLAT:??_R2Container@ForEach@CipherShed@@8
rdata$r	ENDS
;	COMDAT ??_R0?AUContainer@ForEach@CipherShed@@@8
_DATA	SEGMENT
??_R0?AUContainer@ForEach@CipherShed@@@8 DD FLAT:??_7type_info@@6B@ ; CipherShed::ForEach::Container `RTTI Type Descriptor'
	DD	00H
	DB	'.?AUContainer@ForEach@CipherShed@@', 00H
_DATA	ENDS
;	COMDAT ??_R4Container@ForEach@CipherShed@@6B@
rdata$r	SEGMENT
??_R4Container@ForEach@CipherShed@@6B@ DD 00H		; CipherShed::ForEach::Container::`RTTI Complete Object Locator'
	DD	00H
	DD	00H
	DD	FLAT:??_R0?AUContainer@ForEach@CipherShed@@@8
	DD	FLAT:??_R3Container@ForEach@CipherShed@@8
rdata$r	ENDS
;	COMDAT ??_7Container@ForEach@CipherShed@@6B@
CONST	SEGMENT
??_7Container@ForEach@CipherShed@@6B@ DD FLAT:??_R4Container@ForEach@CipherShed@@6B@ ; CipherShed::ForEach::Container::`vftable'
	DD	FLAT:??_EContainer@ForEach@CipherShed@@UAEPAXI@Z
	DD	FLAT:__purecall
	DD	FLAT:__purecall
; Function compile flags: /Ogtpy
CONST	ENDS
;	COMDAT ??0Container@ForEach@CipherShed@@QAE@XZ
_TEXT	SEGMENT
??0Container@ForEach@CipherShed@@QAE@XZ PROC		; CipherShed::ForEach::Container::Container, COMDAT
; _this$ = ecx

; 19   : 			Container () : InnerContinue (true), InnerEndCondition (false) { }

  00000	8b c1		 mov	 eax, ecx
  00002	c7 00 00 00 00
	00		 mov	 DWORD PTR [eax], OFFSET ??_7Container@ForEach@CipherShed@@6B@
  00008	c6 40 04 01	 mov	 BYTE PTR [eax+4], 1
  0000c	c6 40 05 00	 mov	 BYTE PTR [eax+5], 0
  00010	c3		 ret	 0
??0Container@ForEach@CipherShed@@QAE@XZ ENDP		; CipherShed::ForEach::Container::Container
_TEXT	ENDS
PUBLIC	??1Container@ForEach@CipherShed@@UAE@XZ		; CipherShed::ForEach::Container::~Container
; Function compile flags: /Ogtpy
;	COMDAT ??1Container@ForEach@CipherShed@@UAE@XZ
_TEXT	SEGMENT
??1Container@ForEach@CipherShed@@UAE@XZ PROC		; CipherShed::ForEach::Container::~Container, COMDAT
; _this$ = ecx

; 20   : 			virtual ~Container () { }

  00000	c7 01 00 00 00
	00		 mov	 DWORD PTR [ecx], OFFSET ??_7Container@ForEach@CipherShed@@6B@
  00006	c3		 ret	 0
??1Container@ForEach@CipherShed@@UAE@XZ ENDP		; CipherShed::ForEach::Container::~Container
_TEXT	ENDS
PUBLIC	?Continue@Container@ForEach@CipherShed@@QBEXXZ	; CipherShed::ForEach::Container::Continue
; Function compile flags: /Ogtpy
;	COMDAT ?Continue@Container@ForEach@CipherShed@@QBEXXZ
_TEXT	SEGMENT
?Continue@Container@ForEach@CipherShed@@QBEXXZ PROC	; CipherShed::ForEach::Container::Continue, COMDAT
; _this$ = ecx

; 22   : 			void Continue () const { InnerContinue = true; }

  00000	c6 41 04 01	 mov	 BYTE PTR [ecx+4], 1
  00004	c3		 ret	 0
?Continue@Container@ForEach@CipherShed@@QBEXXZ ENDP	; CipherShed::ForEach::Container::Continue
_TEXT	ENDS
PUBLIC	?InnerIsNotEnd@Container@ForEach@CipherShed@@QBE_NXZ ; CipherShed::ForEach::Container::InnerIsNotEnd
; Function compile flags: /Ogtpy
;	COMDAT ?InnerIsNotEnd@Container@ForEach@CipherShed@@QBE_NXZ
_TEXT	SEGMENT
?InnerIsNotEnd@Container@ForEach@CipherShed@@QBE_NXZ PROC ; CipherShed::ForEach::Container::InnerIsNotEnd, COMDAT
; _this$ = ecx

; 23   : 			bool InnerIsNotEnd () const { return InnerEndCondition = !InnerEndCondition; }

  00000	80 79 05 00	 cmp	 BYTE PTR [ecx+5], 0
  00004	0f 94 c0	 sete	 al
  00007	88 41 05	 mov	 BYTE PTR [ecx+5], al
  0000a	c3		 ret	 0
?InnerIsNotEnd@Container@ForEach@CipherShed@@QBE_NXZ ENDP ; CipherShed::ForEach::Container::InnerIsNotEnd
; Function compile flags: /Ogtpy
_TEXT	ENDS
;	COMDAT ??_GContainer@ForEach@CipherShed@@UAEPAXI@Z
_TEXT	SEGMENT
___flags$ = 8						; size = 4
??_GContainer@ForEach@CipherShed@@UAEPAXI@Z PROC	; CipherShed::ForEach::Container::`scalar deleting destructor', COMDAT
; _this$ = ecx
  00000	f6 44 24 04 01	 test	 BYTE PTR ___flags$[esp-4], 1
  00005	56		 push	 esi
  00006	8b f1		 mov	 esi, ecx
  00008	c7 06 00 00 00
	00		 mov	 DWORD PTR [esi], OFFSET ??_7Container@ForEach@CipherShed@@6B@
  0000e	74 09		 je	 SHORT $LN6@scalar@2
  00010	56		 push	 esi
  00011	e8 00 00 00 00	 call	 ??3@YAXPAX@Z		; operator delete
  00016	83 c4 04	 add	 esp, 4
$LN6@scalar@2:
  00019	8b c6		 mov	 eax, esi
  0001b	5e		 pop	 esi
  0001c	c2 04 00	 ret	 4
??_GContainer@ForEach@CipherShed@@UAEPAXI@Z ENDP	; CipherShed::ForEach::Container::`scalar deleting destructor'
_TEXT	ENDS
PUBLIC	_KeyFileAdd
; Function compile flags: /Ogtpy
; File c:\home\public\desktop\projects\ciphershed.build\src\common\keyfiles.c
;	COMDAT _KeyFileAdd
_TEXT	SEGMENT
_firstKeyFile$ = 8					; size = 4
_keyFile$ = 12						; size = 4
_KeyFileAdd PROC					; COMDAT

; 39   : 	KeyFile *kf = firstKeyFile;

  00000	8b 44 24 04	 mov	 eax, DWORD PTR _firstKeyFile$[esp-4]
  00004	8b d0		 mov	 edx, eax

; 40   : 
; 41   : 	if (firstKeyFile != NULL)

  00006	85 c0		 test	 eax, eax
  00008	74 3c		 je	 SHORT $LN4@KeyFileAdd

; 42   : 	{
; 43   : 		while (kf->Next)

  0000a	83 b8 04 01 00
	00 00		 cmp	 DWORD PTR [eax+260], 0
  00011	8d 88 04 01 00
	00		 lea	 ecx, DWORD PTR [eax+260]
  00017	74 18		 je	 SHORT $LN2@KeyFileAdd
  00019	8d a4 24 00 00
	00 00		 npad	 7
$LL3@KeyFileAdd:

; 44   : 			kf = kf->Next;

  00020	8b 11		 mov	 edx, DWORD PTR [ecx]
  00022	83 ba 04 01 00
	00 00		 cmp	 DWORD PTR [edx+260], 0
  00029	8d 8a 04 01 00
	00		 lea	 ecx, DWORD PTR [edx+260]
  0002f	75 ef		 jne	 SHORT $LL3@KeyFileAdd
$LN2@KeyFileAdd:

; 45   : 
; 46   : 		kf->Next = keyFile;

  00031	8b 4c 24 08	 mov	 ecx, DWORD PTR _keyFile$[esp-4]
  00035	89 8a 04 01 00
	00		 mov	 DWORD PTR [edx+260], ecx

; 50   : 
; 51   : 	keyFile->Next = NULL;

  0003b	c7 81 04 01 00
	00 00 00 00 00	 mov	 DWORD PTR [ecx+260], 0

; 52   : 
; 53   : 	return firstKeyFile;
; 54   : }

  00045	c3		 ret	 0
$LN4@KeyFileAdd:

; 47   : 	}
; 48   : 	else
; 49   : 		firstKeyFile = keyFile;

  00046	8b 44 24 08	 mov	 eax, DWORD PTR _keyFile$[esp-4]

; 50   : 
; 51   : 	keyFile->Next = NULL;

  0004a	c7 80 04 01 00
	00 00 00 00 00	 mov	 DWORD PTR [eax+260], 0

; 52   : 
; 53   : 	return firstKeyFile;
; 54   : }

  00054	c3		 ret	 0
_KeyFileAdd ENDP
_TEXT	ENDS
EXTRN	_free:PROC
; Function compile flags: /Ogtpy
;	COMDAT ?KeyFileRemove@@YAPAUKeyFileStruct@@PAU1@0@Z
_TEXT	SEGMENT
?KeyFileRemove@@YAPAUKeyFileStruct@@PAU1@0@Z PROC	; KeyFileRemove, COMDAT
; _firstKeyFile$ = eax
; _keyFile$ = edi

; 59   : {

  00000	53		 push	 ebx
  00001	8b d8		 mov	 ebx, eax

; 60   : 	KeyFile *prevkf = NULL, *kf = firstKeyFile;

  00003	33 c9		 xor	 ecx, ecx

; 61   : 
; 62   : 	if (firstKeyFile == NULL) return NULL;

  00005	85 db		 test	 ebx, ebx
  00007	75 07		 jne	 SHORT $LL11@KeyFileRem
  00009	5b		 pop	 ebx

; 81   : }

  0000a	c3		 ret	 0
  0000b	eb 03 8d 49 00	 npad	 5
$LL11@KeyFileRem:

; 63   : 	do
; 64   : 	{
; 65   : 		if (kf == keyFile)

  00010	3b c7		 cmp	 eax, edi
  00012	74 10		 je	 SHORT $LN22@KeyFileRem

; 74   : 			break;
; 75   : 		}
; 76   : 		prevkf = kf;

  00014	8b c8		 mov	 ecx, eax

; 77   : 	}
; 78   : 	while (kf = kf->Next);

  00016	8b 80 04 01 00
	00		 mov	 eax, DWORD PTR [eax+260]
  0001c	85 c0		 test	 eax, eax
  0001e	75 f0		 jne	 SHORT $LL11@KeyFileRem

; 79   : 
; 80   : 	return firstKeyFile;

  00020	8b c3		 mov	 eax, ebx
  00022	5b		 pop	 ebx

; 81   : }

  00023	c3		 ret	 0
$LN22@KeyFileRem:

; 66   : 		{
; 67   : 			if (prevkf == NULL)

  00024	85 c9		 test	 ecx, ecx
  00026	75 08		 jne	 SHORT $LN7@KeyFileRem

; 68   : 				firstKeyFile = kf->Next;

  00028	8b 98 04 01 00
	00		 mov	 ebx, DWORD PTR [eax+260]

; 69   : 			else

  0002e	eb 0c		 jmp	 SHORT $LN5@KeyFileRem
$LN7@KeyFileRem:

; 70   : 				prevkf->Next = kf->Next;

  00030	8b 80 04 01 00
	00		 mov	 eax, DWORD PTR [eax+260]
  00036	89 81 04 01 00
	00		 mov	 DWORD PTR [ecx+260], eax
$LN5@KeyFileRem:

; 71   : 
; 72   : 			burn (keyFile, sizeof(*keyFile));	// wipe

  0003c	b9 08 01 00 00	 mov	 ecx, 264		; 00000108H
  00041	56		 push	 esi
  00042	8b d7		 mov	 edx, edi
  00044	8b f1		 mov	 esi, ecx
  00046	8b c7		 mov	 eax, edi
$LL16@KeyFileRem:
  00048	c6 00 00	 mov	 BYTE PTR [eax], 0
  0004b	40		 inc	 eax
  0004c	83 ee 01	 sub	 esi, 1
  0004f	75 f7		 jne	 SHORT $LL16@KeyFileRem
  00051	5e		 pop	 esi
$LL2@KeyFileRem:
  00052	49		 dec	 ecx
  00053	c6 02 00	 mov	 BYTE PTR [edx], 0
  00056	42		 inc	 edx
  00057	85 c9		 test	 ecx, ecx
  00059	75 f7		 jne	 SHORT $LL2@KeyFileRem

; 73   : 			free (keyFile);

  0005b	57		 push	 edi
  0005c	e8 00 00 00 00	 call	 _free
  00061	83 c4 04	 add	 esp, 4

; 79   : 
; 80   : 	return firstKeyFile;

  00064	8b c3		 mov	 eax, ebx
  00066	5b		 pop	 ebx

; 81   : }

  00067	c3		 ret	 0
?KeyFileRemove@@YAPAUKeyFileStruct@@PAU1@0@Z ENDP	; KeyFileRemove
_TEXT	ENDS
PUBLIC	_KeyFileRemoveAll
; Function compile flags: /Ogtpy
;	COMDAT _KeyFileRemoveAll
_TEXT	SEGMENT
_firstKeyFile$ = 8					; size = 4
_KeyFileRemoveAll PROC					; COMDAT

; 85   : {

  00000	55		 push	 ebp

; 86   : 	KeyFile *kf = *firstKeyFile;

  00001	8b 6c 24 08	 mov	 ebp, DWORD PTR _firstKeyFile$[esp]
  00005	56		 push	 esi
  00006	8b 75 00	 mov	 esi, DWORD PTR [ebp]

; 87   : 	while (kf != NULL)

  00009	85 f6		 test	 esi, esi
  0000b	74 3b		 je	 SHORT $LN24@KeyFileRem@2
  0000d	53		 push	 ebx
  0000e	57		 push	 edi
  0000f	90		 npad	 1
$LL7@KeyFileRem@2:

; 88   : 	{
; 89   : 		KeyFile *d = kf;

  00010	8b fe		 mov	 edi, esi

; 90   : 		kf = kf->Next;

  00012	8b b6 04 01 00
	00		 mov	 esi, DWORD PTR [esi+260]

; 91   : 		burn (d, sizeof(*d));	// wipe

  00018	b9 08 01 00 00	 mov	 ecx, 264		; 00000108H
  0001d	8b d7		 mov	 edx, edi
  0001f	8b d9		 mov	 ebx, ecx
  00021	8b c7		 mov	 eax, edi
$LL11@KeyFileRem@2:
  00023	c6 00 00	 mov	 BYTE PTR [eax], 0
  00026	40		 inc	 eax
  00027	83 eb 01	 sub	 ebx, 1
  0002a	75 f7		 jne	 SHORT $LL11@KeyFileRem@2
  0002c	8d 64 24 00	 npad	 4
$LL2@KeyFileRem@2:
  00030	49		 dec	 ecx
  00031	c6 02 00	 mov	 BYTE PTR [edx], 0
  00034	42		 inc	 edx
  00035	85 c9		 test	 ecx, ecx
  00037	75 f7		 jne	 SHORT $LL2@KeyFileRem@2

; 92   : 		free (d);

  00039	57		 push	 edi
  0003a	e8 00 00 00 00	 call	 _free
  0003f	83 c4 04	 add	 esp, 4
  00042	85 f6		 test	 esi, esi
  00044	75 ca		 jne	 SHORT $LL7@KeyFileRem@2
  00046	5f		 pop	 edi
  00047	5b		 pop	 ebx
$LN24@KeyFileRem@2:
  00048	5e		 pop	 esi

; 93   : 	}
; 94   : 
; 95   : 	*firstKeyFile = NULL;

  00049	c7 45 00 00 00
	00 00		 mov	 DWORD PTR [ebp], 0
  00050	5d		 pop	 ebp

; 96   : }

  00051	c3		 ret	 0
_KeyFileRemoveAll ENDP
_TEXT	ENDS
PUBLIC	_KeyFileClone
EXTRN	_malloc:PROC
; Function compile flags: /Ogtpy
;	COMDAT _KeyFileClone
_TEXT	SEGMENT
_keyFile$ = 8						; size = 4
_KeyFileClone PROC					; COMDAT

; 100  : {

  00000	57		 push	 edi

; 101  : 	KeyFile *clone;
; 102  : 
; 103  : 	if (keyFile == NULL) return NULL;

  00001	8b 7c 24 08	 mov	 edi, DWORD PTR _keyFile$[esp]
  00005	85 ff		 test	 edi, edi
  00007	75 04		 jne	 SHORT $LN1@KeyFileClo
  00009	33 c0		 xor	 eax, eax
  0000b	5f		 pop	 edi

; 108  : 	return clone;
; 109  : }

  0000c	c3		 ret	 0
$LN1@KeyFileClo:
  0000d	56		 push	 esi

; 104  : 
; 105  : 	clone = (KeyFile *) malloc (sizeof (KeyFile));

  0000e	68 08 01 00 00	 push	 264			; 00000108H
  00013	e8 00 00 00 00	 call	 _malloc

; 106  : 	strcpy (clone->FileName, keyFile->FileName);

  00018	8b f0		 mov	 esi, eax
  0001a	83 c4 04	 add	 esp, 4
  0001d	8b cf		 mov	 ecx, edi
  0001f	2b f7		 sub	 esi, edi
$LL4@KeyFileClo:
  00021	8a 11		 mov	 dl, BYTE PTR [ecx]
  00023	88 14 0e	 mov	 BYTE PTR [esi+ecx], dl
  00026	41		 inc	 ecx
  00027	84 d2		 test	 dl, dl
  00029	75 f6		 jne	 SHORT $LL4@KeyFileClo
  0002b	5e		 pop	 esi

; 107  : 	clone->Next = NULL;

  0002c	c7 80 04 01 00
	00 00 00 00 00	 mov	 DWORD PTR [eax+260], 0
  00036	5f		 pop	 edi

; 108  : 	return clone;
; 109  : }

  00037	c3		 ret	 0
_KeyFileClone ENDP
_TEXT	ENDS
PUBLIC	_KeyFileCloneAll
; Function compile flags: /Ogtpy
;	COMDAT _KeyFileCloneAll
_TEXT	SEGMENT
_firstKeyFile$ = 8					; size = 4
_KeyFileCloneAll PROC					; COMDAT

; 113  : {

  00000	55		 push	 ebp
  00001	56		 push	 esi

; 114  : 	KeyFile *cloneFirstKeyFile = KeyFileClone (firstKeyFile);

  00002	8b 74 24 0c	 mov	 esi, DWORD PTR _firstKeyFile$[esp+4]
  00006	56		 push	 esi
  00007	e8 00 00 00 00	 call	 _KeyFileClone
  0000c	83 c4 04	 add	 esp, 4
  0000f	8b e8		 mov	 ebp, eax

; 115  : 	KeyFile *kf;
; 116  : 
; 117  : 	if (firstKeyFile == NULL) return NULL;

  00011	85 f6		 test	 esi, esi
  00013	75 05		 jne	 SHORT $LN3@KeyFileClo@2
  00015	5e		 pop	 esi
  00016	33 c0		 xor	 eax, eax
  00018	5d		 pop	 ebp

; 126  : }

  00019	c3		 ret	 0
$LN3@KeyFileClo@2:
  0001a	57		 push	 edi

; 118  : 	kf = firstKeyFile->Next;

  0001b	8b be 04 01 00
	00		 mov	 edi, DWORD PTR [esi+260]

; 119  : 	while (kf != NULL)

  00021	85 ff		 test	 edi, edi
  00023	74 3b		 je	 SHORT $LN1@KeyFileClo@2

; 120  : 	{
; 121  : 		KeyFileAdd (cloneFirstKeyFile, KeyFileClone (kf));

$LN6@KeyFileClo@2:
  00025	68 08 01 00 00	 push	 264			; 00000108H
  0002a	e8 00 00 00 00	 call	 _malloc
  0002f	8b f0		 mov	 esi, eax
  00031	83 c4 04	 add	 esp, 4
  00034	8b cf		 mov	 ecx, edi
  00036	2b f7		 sub	 esi, edi
$LL9@KeyFileClo@2:
  00038	8a 11		 mov	 dl, BYTE PTR [ecx]
  0003a	88 14 0e	 mov	 BYTE PTR [esi+ecx], dl
  0003d	41		 inc	 ecx
  0003e	84 d2		 test	 dl, dl
  00040	75 f6		 jne	 SHORT $LL9@KeyFileClo@2
  00042	50		 push	 eax
  00043	55		 push	 ebp
  00044	c7 80 04 01 00
	00 00 00 00 00	 mov	 DWORD PTR [eax+260], 0
  0004e	e8 00 00 00 00	 call	 _KeyFileAdd

; 122  : 		kf = kf->Next;

  00053	8b bf 04 01 00
	00		 mov	 edi, DWORD PTR [edi+260]
  00059	83 c4 08	 add	 esp, 8
  0005c	85 ff		 test	 edi, edi
  0005e	75 c5		 jne	 SHORT $LN6@KeyFileClo@2
$LN1@KeyFileClo@2:
  00060	5f		 pop	 edi
  00061	5e		 pop	 esi

; 123  : 	}
; 124  : 
; 125  : 	return cloneFirstKeyFile;

  00062	8b c5		 mov	 eax, ebp
  00064	5d		 pop	 ebp

; 126  : }

  00065	c3		 ret	 0
_KeyFileCloneAll ENDP
; Function compile flags: /Ogtpy
_TEXT	ENDS
;	COMDAT ??0Finally161@?6??KeyFileProcess@@YAHPAEPAUKeyFileStruct@@@Z@QAE@PAX@Z
_TEXT	SEGMENT
??0Finally161@?6??KeyFileProcess@@YAHPAEPAUKeyFileStruct@@@Z@QAE@PAX@Z PROC ; `KeyFileProcess'::`7'::Finally161::Finally161, COMDAT
; _this$ = eax
; _a$ = ecx

; 161  : 	});

  00000	89 08		 mov	 DWORD PTR [eax], ecx
  00002	c3		 ret	 0
??0Finally161@?6??KeyFileProcess@@YAHPAEPAUKeyFileStruct@@@Z@QAE@PAX@Z ENDP ; `KeyFileProcess'::`7'::Finally161::Finally161
_TEXT	ENDS
EXTRN	__imp__CloseHandle@4:PROC
; Function compile flags: /Ogtpy
;	COMDAT ??1Finally161@?6??KeyFileProcess@@YAHPAEPAUKeyFileStruct@@@Z@QAE@XZ
_TEXT	SEGMENT
??1Finally161@?6??KeyFileProcess@@YAHPAEPAUKeyFileStruct@@@Z@QAE@XZ PROC ; `KeyFileProcess'::`7'::Finally161::~Finally161, COMDAT
; _this$ = eax

; 161  : 	});

  00000	8b 00		 mov	 eax, DWORD PTR [eax]
  00002	83 f8 ff	 cmp	 eax, -1
  00005	74 07		 je	 SHORT $LN1@Finally161
  00007	50		 push	 eax
  00008	ff 15 00 00 00
	00		 call	 DWORD PTR __imp__CloseHandle@4
$LN1@Finally161:
  0000e	c3		 ret	 0
??1Finally161@?6??KeyFileProcess@@YAHPAEPAUKeyFileStruct@@@Z@QAE@XZ ENDP ; `KeyFileProcess'::`7'::Finally161::~Finally161
_TEXT	ENDS
EXTRN	_SetCheckBox:PROC
EXTRN	__imp__EnableWindow@8:PROC
EXTRN	__imp__SendMessageA@16:PROC
EXTRN	__imp__GetDlgItem@8:PROC
EXTRN	_memset:PROC
; Function compile flags: /Ogtpy
;	COMDAT ?LoadKeyList@@YAXPAUHWND__@@PAUKeyFileStruct@@@Z
_TEXT	SEGMENT
tv160 = -56						; size = 4
_LvItem$ = -52						; size = 52
?LoadKeyList@@YAXPAUHWND__@@PAUKeyFileStruct@@@Z PROC	; LoadKeyList, COMDAT
; _hwndDlg$ = ecx
; _firstKeyFile$ = eax

; 392  : {

  00000	83 ec 38	 sub	 esp, 56			; 00000038H
  00003	53		 push	 ebx
  00004	55		 push	 ebp
  00005	56		 push	 esi
  00006	57		 push	 edi
  00007	8b d9		 mov	 ebx, ecx

; 393  : 	KeyFile *kf;
; 394  : 	LVITEM LvItem;
; 395  : 	int line = 0;
; 396  : 	HWND hList = GetDlgItem (hwndDlg, IDC_KEYLIST);

  00009	68 b4 13 00 00	 push	 5044			; 000013b4H
  0000e	53		 push	 ebx
  0000f	8b f0		 mov	 esi, eax
  00011	33 ff		 xor	 edi, edi
  00013	ff 15 00 00 00
	00		 call	 DWORD PTR __imp__GetDlgItem@8

; 397  : 
; 398  : 	ListView_DeleteAllItems (hList);

  00019	57		 push	 edi
  0001a	57		 push	 edi
  0001b	8b e8		 mov	 ebp, eax
  0001d	68 09 10 00 00	 push	 4105			; 00001009H
  00022	55		 push	 ebp
  00023	ff 15 00 00 00
	00		 call	 DWORD PTR __imp__SendMessageA@16

; 399  : 	EnableWindow (GetDlgItem (hwndDlg, IDC_KEYREMOVE), FALSE);

  00029	57		 push	 edi
  0002a	68 c3 13 00 00	 push	 5059			; 000013c3H
  0002f	53		 push	 ebx
  00030	ff 15 00 00 00
	00		 call	 DWORD PTR __imp__GetDlgItem@8
  00036	50		 push	 eax
  00037	ff 15 00 00 00
	00		 call	 DWORD PTR __imp__EnableWindow@8

; 400  : 	EnableWindow (GetDlgItem (hwndDlg, IDC_KEYREMOVEALL), firstKeyFile != NULL);

  0003d	33 c0		 xor	 eax, eax
  0003f	85 f6		 test	 esi, esi
  00041	0f 95 c0	 setne	 al
  00044	50		 push	 eax
  00045	68 c4 13 00 00	 push	 5060			; 000013c4H
  0004a	53		 push	 ebx
  0004b	89 44 24 1c	 mov	 DWORD PTR tv160[esp+84], eax
  0004f	ff 15 00 00 00
	00		 call	 DWORD PTR __imp__GetDlgItem@8
  00055	50		 push	 eax
  00056	ff 15 00 00 00
	00		 call	 DWORD PTR __imp__EnableWindow@8

; 401  : 	SetCheckBox (hwndDlg, IDC_KEYFILES_ENABLE, firstKeyFile != NULL);

  0005c	8b 44 24 10	 mov	 eax, DWORD PTR tv160[esp+72]
  00060	50		 push	 eax
  00061	68 c5 13 00 00	 push	 5061			; 000013c5H
  00066	53		 push	 ebx
  00067	e8 00 00 00 00	 call	 _SetCheckBox
  0006c	83 c4 0c	 add	 esp, 12			; 0000000cH

; 402  : 
; 403  : 	for (kf = firstKeyFile; kf != NULL; kf = kf->Next)

  0006f	85 f6		 test	 esi, esi
  00071	74 4a		 je	 SHORT $LN1@LoadKeyLis
  00073	8d 5f 05	 lea	 ebx, DWORD PTR [edi+5]
$LL8@LoadKeyLis:

; 404  : 	{
; 405  : 		memset (&LvItem,0,sizeof(LvItem));

  00076	6a 34		 push	 52			; 00000034H
  00078	8d 4c 24 18	 lea	 ecx, DWORD PTR _LvItem$[esp+76]
  0007c	6a 00		 push	 0
  0007e	51		 push	 ecx
  0007f	e8 00 00 00 00	 call	 _memset
  00084	83 c4 0c	 add	 esp, 12			; 0000000cH

; 406  : 		LvItem.mask = LVIF_TEXT|LVIF_PARAM;
; 407  : 		LvItem.iItem = line++;
; 408  : 		LvItem.iSubItem = 0;
; 409  : 		LvItem.pszText = kf->FileName;
; 410  : 		LvItem.lParam = (LPARAM) kf;
; 411  : 		SendMessage (hList, LVM_INSERTITEM, 0, (LPARAM)&LvItem);

  00087	8d 54 24 14	 lea	 edx, DWORD PTR _LvItem$[esp+72]
  0008b	52		 push	 edx
  0008c	6a 00		 push	 0
  0008e	68 07 10 00 00	 push	 4103			; 00001007H
  00093	89 7c 24 24	 mov	 DWORD PTR _LvItem$[esp+88], edi
  00097	55		 push	 ebp
  00098	89 5c 24 24	 mov	 DWORD PTR _LvItem$[esp+88], ebx
  0009c	47		 inc	 edi
  0009d	c7 44 24 2c 00
	00 00 00	 mov	 DWORD PTR _LvItem$[esp+96], 0
  000a5	89 74 24 38	 mov	 DWORD PTR _LvItem$[esp+108], esi
  000a9	89 74 24 44	 mov	 DWORD PTR _LvItem$[esp+120], esi
  000ad	ff 15 00 00 00
	00		 call	 DWORD PTR __imp__SendMessageA@16
  000b3	8b b6 04 01 00
	00		 mov	 esi, DWORD PTR [esi+260]
  000b9	85 f6		 test	 esi, esi
  000bb	75 b9		 jne	 SHORT $LL8@LoadKeyLis
$LN1@LoadKeyLis:
  000bd	5f		 pop	 edi
  000be	5e		 pop	 esi
  000bf	5d		 pop	 ebp
  000c0	5b		 pop	 ebx

; 412  : 	}
; 413  : }

  000c1	83 c4 38	 add	 esp, 56			; 00000038H
  000c4	c3		 ret	 0
?LoadKeyList@@YAXPAUHWND__@@PAUKeyFileStruct@@@Z ENDP	; LoadKeyList
_TEXT	ENDS
PUBLIC	?size@?$basic_string@DU?$char_traits@D@std@@V?$allocator@D@2@@std@@QBEIXZ ; std::basic_string<char,std::char_traits<char>,std::allocator<char> >::size
; Function compile flags: /Ogtpy
; File c:\program files (x86)\microsoft visual studio 9.0\vc\include\xstring
;	COMDAT ?size@?$basic_string@DU?$char_traits@D@std@@V?$allocator@D@2@@std@@QBEIXZ
_TEXT	SEGMENT
?size@?$basic_string@DU?$char_traits@D@std@@V?$allocator@D@2@@std@@QBEIXZ PROC ; std::basic_string<char,std::char_traits<char>,std::allocator<char> >::size, COMDAT
; _this$ = ecx

; 1666 : 		return (_Mysize);

  00000	8b 41 14	 mov	 eax, DWORD PTR [ecx+20]

; 1667 : 		}

  00003	c3		 ret	 0
?size@?$basic_string@DU?$char_traits@D@std@@V?$allocator@D@2@@std@@QBEIXZ ENDP ; std::basic_string<char,std::char_traits<char>,std::allocator<char> >::size
_TEXT	ENDS
PUBLIC	?size@?$basic_string@_WU?$char_traits@_W@std@@V?$allocator@_W@2@@std@@QBEIXZ ; std::basic_string<wchar_t,std::char_traits<wchar_t>,std::allocator<wchar_t> >::size
; Function compile flags: /Ogtpy
;	COMDAT ?size@?$basic_string@_WU?$char_traits@_W@std@@V?$allocator@_W@2@@std@@QBEIXZ
_TEXT	SEGMENT
?size@?$basic_string@_WU?$char_traits@_W@std@@V?$allocator@_W@2@@std@@QBEIXZ PROC ; std::basic_string<wchar_t,std::char_traits<wchar_t>,std::allocator<wchar_t> >::size, COMDAT
; _this$ = ecx

; 1666 : 		return (_Mysize);

  00000	8b 41 14	 mov	 eax, DWORD PTR [ecx+20]

; 1667 : 		}

  00003	c3		 ret	 0
?size@?$basic_string@_WU?$char_traits@_W@std@@V?$allocator@_W@2@@std@@QBEIXZ ENDP ; std::basic_string<wchar_t,std::char_traits<wchar_t>,std::allocator<wchar_t> >::size
_TEXT	ENDS
PUBLIC	?size@?$vector@EV?$allocator@E@std@@@std@@QBEIXZ ; std::vector<unsigned char,std::allocator<unsigned char> >::size
; Function compile flags: /Ogtpy
; File c:\program files (x86)\microsoft visual studio 9.0\vc\include\vector
;	COMDAT ?size@?$vector@EV?$allocator@E@std@@@std@@QBEIXZ
_TEXT	SEGMENT
?size@?$vector@EV?$allocator@E@std@@@std@@QBEIXZ PROC	; std::vector<unsigned char,std::allocator<unsigned char> >::size, COMDAT
; _this$ = ecx

; 726  : 		return (_Mylast - _Myfirst);

  00000	8b 41 10	 mov	 eax, DWORD PTR [ecx+16]
  00003	2b 41 0c	 sub	 eax, DWORD PTR [ecx+12]

; 727  : 		}

  00006	c3		 ret	 0
?size@?$vector@EV?$allocator@E@std@@@std@@QBEIXZ ENDP	; std::vector<unsigned char,std::allocator<unsigned char> >::size
_TEXT	ENDS
PUBLIC	?empty@?$vector@EV?$allocator@E@std@@@std@@QBE_NXZ ; std::vector<unsigned char,std::allocator<unsigned char> >::empty
; Function compile flags: /Ogtpy
;	COMDAT ?empty@?$vector@EV?$allocator@E@std@@@std@@QBE_NXZ
_TEXT	SEGMENT
?empty@?$vector@EV?$allocator@E@std@@@std@@QBE_NXZ PROC	; std::vector<unsigned char,std::allocator<unsigned char> >::empty, COMDAT
; _this$ = ecx

; 736  : 		return (size() == 0);

  00000	8b 41 10	 mov	 eax, DWORD PTR [ecx+16]
  00003	2b 41 0c	 sub	 eax, DWORD PTR [ecx+12]
  00006	f7 d8		 neg	 eax
  00008	1b c0		 sbb	 eax, eax
  0000a	40		 inc	 eax

; 737  : 		}

  0000b	c3		 ret	 0
?empty@?$vector@EV?$allocator@E@std@@@std@@QBE_NXZ ENDP	; std::vector<unsigned char,std::allocator<unsigned char> >::empty
_TEXT	ENDS
PUBLIC	??A?$vector@EV?$allocator@E@std@@@std@@QAEAAEI@Z ; std::vector<unsigned char,std::allocator<unsigned char> >::operator[]
EXTRN	__invalid_parameter_noinfo:PROC
; Function compile flags: /Ogtpy
;	COMDAT ??A?$vector@EV?$allocator@E@std@@@std@@QAEAAEI@Z
_TEXT	SEGMENT
__Pos$ = 8						; size = 4
??A?$vector@EV?$allocator@E@std@@@std@@QAEAAEI@Z PROC	; std::vector<unsigned char,std::allocator<unsigned char> >::operator[], COMDAT
; _this$ = ecx

; 774  : 		{	// subscript mutable sequence

  00000	56		 push	 esi
  00001	8b f1		 mov	 esi, ecx

; 775  : 
; 776  :  #if _HAS_ITERATOR_DEBUGGING
; 777  : 		if (size() <= _Pos)
; 778  : 			{
; 779  : 			_DEBUG_ERROR("vector subscript out of range");
; 780  : 			_SCL_SECURE_OUT_OF_RANGE;
; 781  : 			}
; 782  :  #endif /* _HAS_ITERATOR_DEBUGGING */
; 783  : 		_SCL_SECURE_VALIDATE_RANGE(_Pos < size());

  00003	8b 46 10	 mov	 eax, DWORD PTR [esi+16]
  00006	2b 46 0c	 sub	 eax, DWORD PTR [esi+12]
  00009	57		 push	 edi
  0000a	8b 7c 24 0c	 mov	 edi, DWORD PTR __Pos$[esp+4]
  0000e	3b f8		 cmp	 edi, eax
  00010	72 05		 jb	 SHORT $LN3@operator
  00012	e8 00 00 00 00	 call	 __invalid_parameter_noinfo
$LN3@operator:

; 784  : 
; 785  : 		return (*(_Myfirst + _Pos));

  00017	8b 46 0c	 mov	 eax, DWORD PTR [esi+12]
  0001a	03 c7		 add	 eax, edi
  0001c	5f		 pop	 edi
  0001d	5e		 pop	 esi

; 786  : 		}

  0001e	c2 04 00	 ret	 4
??A?$vector@EV?$allocator@E@std@@@std@@QAEAAEI@Z ENDP	; std::vector<unsigned char,std::allocator<unsigned char> >::operator[]
_TEXT	ENDS
PUBLIC	?_Myptr@?$basic_string@DU?$char_traits@D@std@@V?$allocator@D@2@@std@@IBEPBDXZ ; std::basic_string<char,std::char_traits<char>,std::allocator<char> >::_Myptr
; Function compile flags: /Ogtpy
; File c:\program files (x86)\microsoft visual studio 9.0\vc\include\xstring
;	COMDAT ?_Myptr@?$basic_string@DU?$char_traits@D@std@@V?$allocator@D@2@@std@@IBEPBDXZ
_TEXT	SEGMENT
?_Myptr@?$basic_string@DU?$char_traits@D@std@@V?$allocator@D@2@@std@@IBEPBDXZ PROC ; std::basic_string<char,std::char_traits<char>,std::allocator<char> >::_Myptr, COMDAT
; _this$ = ecx

; 2175 : 		return (_BUF_SIZE <= _Myres ? _Bx._Ptr : _Bx._Buf);

  00000	83 79 18 10	 cmp	 DWORD PTR [ecx+24], 16	; 00000010H
  00004	72 04		 jb	 SHORT $LN3@Myptr
  00006	8b 41 04	 mov	 eax, DWORD PTR [ecx+4]

; 2176 : 		}

  00009	c3		 ret	 0
$LN3@Myptr:

; 2175 : 		return (_BUF_SIZE <= _Myres ? _Bx._Ptr : _Bx._Buf);

  0000a	8d 41 04	 lea	 eax, DWORD PTR [ecx+4]

; 2176 : 		}

  0000d	c3		 ret	 0
?_Myptr@?$basic_string@DU?$char_traits@D@std@@V?$allocator@D@2@@std@@IBEPBDXZ ENDP ; std::basic_string<char,std::char_traits<char>,std::allocator<char> >::_Myptr
_TEXT	ENDS
PUBLIC	??0?$allocator@D@std@@QAE@XZ			; std::allocator<char>::allocator<char>
; Function compile flags: /Ogtpy
; File c:\program files (x86)\microsoft visual studio 9.0\vc\include\xmemory
;	COMDAT ??0?$allocator@D@std@@QAE@XZ
_TEXT	SEGMENT
??0?$allocator@D@std@@QAE@XZ PROC			; std::allocator<char>::allocator<char>, COMDAT
; _this$ = ecx

; 119  : 	allocator() _THROW0()

  00000	8b c1		 mov	 eax, ecx

; 120  : 		{	// construct default allocator (do nothing)
; 121  : 		}

  00002	c3		 ret	 0
??0?$allocator@D@std@@QAE@XZ ENDP			; std::allocator<char>::allocator<char>
_TEXT	ENDS
PUBLIC	?_Myptr@?$basic_string@_WU?$char_traits@_W@std@@V?$allocator@_W@2@@std@@IBEPB_WXZ ; std::basic_string<wchar_t,std::char_traits<wchar_t>,std::allocator<wchar_t> >::_Myptr
; Function compile flags: /Ogtpy
; File c:\program files (x86)\microsoft visual studio 9.0\vc\include\xstring
;	COMDAT ?_Myptr@?$basic_string@_WU?$char_traits@_W@std@@V?$allocator@_W@2@@std@@IBEPB_WXZ
_TEXT	SEGMENT
?_Myptr@?$basic_string@_WU?$char_traits@_W@std@@V?$allocator@_W@2@@std@@IBEPB_WXZ PROC ; std::basic_string<wchar_t,std::char_traits<wchar_t>,std::allocator<wchar_t> >::_Myptr, COMDAT
; _this$ = ecx

; 2175 : 		return (_BUF_SIZE <= _Myres ? _Bx._Ptr : _Bx._Buf);

  00000	83 79 18 08	 cmp	 DWORD PTR [ecx+24], 8
  00004	72 04		 jb	 SHORT $LN3@Myptr@2
  00006	8b 41 04	 mov	 eax, DWORD PTR [ecx+4]

; 2176 : 		}

  00009	c3		 ret	 0
$LN3@Myptr@2:

; 2175 : 		return (_BUF_SIZE <= _Myres ? _Bx._Ptr : _Bx._Buf);

  0000a	8d 41 04	 lea	 eax, DWORD PTR [ecx+4]

; 2176 : 		}

  0000d	c3		 ret	 0
?_Myptr@?$basic_string@_WU?$char_traits@_W@std@@V?$allocator@_W@2@@std@@IBEPB_WXZ ENDP ; std::basic_string<wchar_t,std::char_traits<wchar_t>,std::allocator<wchar_t> >::_Myptr
_TEXT	ENDS
PUBLIC	??0?$allocator@_W@std@@QAE@XZ			; std::allocator<wchar_t>::allocator<wchar_t>
; Function compile flags: /Ogtpy
; File c:\program files (x86)\microsoft visual studio 9.0\vc\include\xmemory
;	COMDAT ??0?$allocator@_W@std@@QAE@XZ
_TEXT	SEGMENT
??0?$allocator@_W@std@@QAE@XZ PROC			; std::allocator<wchar_t>::allocator<wchar_t>, COMDAT
; _this$ = ecx

; 119  : 	allocator() _THROW0()

  00000	8b c1		 mov	 eax, ecx

; 120  : 		{	// construct default allocator (do nothing)
; 121  : 		}

  00002	c3		 ret	 0
??0?$allocator@_W@std@@QAE@XZ ENDP			; std::allocator<wchar_t>::allocator<wchar_t>
_TEXT	ENDS
PUBLIC	??0?$allocator@E@std@@QAE@XZ			; std::allocator<unsigned char>::allocator<unsigned char>
; Function compile flags: /Ogtpy
;	COMDAT ??0?$allocator@E@std@@QAE@XZ
_TEXT	SEGMENT
??0?$allocator@E@std@@QAE@XZ PROC			; std::allocator<unsigned char>::allocator<unsigned char>, COMDAT
; _this$ = ecx

; 119  : 	allocator() _THROW0()

  00000	8b c1		 mov	 eax, ecx

; 120  : 		{	// construct default allocator (do nothing)
; 121  : 		}

  00002	c3		 ret	 0
??0?$allocator@E@std@@QAE@XZ ENDP			; std::allocator<unsigned char>::allocator<unsigned char>
_TEXT	ENDS
PUBLIC	?_Myval@?$list@USecurityTokenKeyfilePath@CipherShed@@V?$allocator@USecurityTokenKeyfilePath@CipherShed@@@std@@@std@@KAAAUSecurityTokenKeyfilePath@CipherShed@@PAU_Node@?$_List_nod@USecurityTokenKeyfilePath@CipherShed@@V?$allocator@USecurityTokenKeyfilePath@CipherShed@@@std@@@2@@Z ; std::list<CipherShed::SecurityTokenKeyfilePath,std::allocator<CipherShed::SecurityTokenKeyfilePath> >::_Myval
; Function compile flags: /Ogtpy
; File c:\program files (x86)\microsoft visual studio 9.0\vc\include\list
;	COMDAT ?_Myval@?$list@USecurityTokenKeyfilePath@CipherShed@@V?$allocator@USecurityTokenKeyfilePath@CipherShed@@@std@@@std@@KAAAUSecurityTokenKeyfilePath@CipherShed@@PAU_Node@?$_List_nod@USecurityTokenKeyfilePath@CipherShed@@V?$allocator@USecurityTokenKeyfilePath@CipherShed@@@std@@@2@@Z
_TEXT	SEGMENT
__Pnode$ = 8						; size = 4
?_Myval@?$list@USecurityTokenKeyfilePath@CipherShed@@V?$allocator@USecurityTokenKeyfilePath@CipherShed@@@std@@@std@@KAAAUSecurityTokenKeyfilePath@CipherShed@@PAU_Node@?$_List_nod@USecurityTokenKeyfilePath@CipherShed@@V?$allocator@USecurityTokenKeyfilePath@CipherShed@@@std@@@2@@Z PROC ; std::list<CipherShed::SecurityTokenKeyfilePath,std::allocator<CipherShed::SecurityTokenKeyfilePath> >::_Myval, COMDAT

; 125  : 		return ((_Vref)(*_Pnode)._Myval);

  00000	8b 44 24 04	 mov	 eax, DWORD PTR __Pnode$[esp-4]
  00004	83 c0 08	 add	 eax, 8

; 126  : 		}

  00007	c3		 ret	 0
?_Myval@?$list@USecurityTokenKeyfilePath@CipherShed@@V?$allocator@USecurityTokenKeyfilePath@CipherShed@@@std@@@std@@KAAAUSecurityTokenKeyfilePath@CipherShed@@PAU_Node@?$_List_nod@USecurityTokenKeyfilePath@CipherShed@@V?$allocator@USecurityTokenKeyfilePath@CipherShed@@@std@@@2@@Z ENDP ; std::list<CipherShed::SecurityTokenKeyfilePath,std::allocator<CipherShed::SecurityTokenKeyfilePath> >::_Myval
_TEXT	ENDS
PUBLIC	??0?$allocator@USecurityTokenKeyfilePath@CipherShed@@@std@@QAE@XZ ; std::allocator<CipherShed::SecurityTokenKeyfilePath>::allocator<CipherShed::SecurityTokenKeyfilePath>
; Function compile flags: /Ogtpy
; File c:\program files (x86)\microsoft visual studio 9.0\vc\include\xmemory
;	COMDAT ??0?$allocator@USecurityTokenKeyfilePath@CipherShed@@@std@@QAE@XZ
_TEXT	SEGMENT
??0?$allocator@USecurityTokenKeyfilePath@CipherShed@@@std@@QAE@XZ PROC ; std::allocator<CipherShed::SecurityTokenKeyfilePath>::allocator<CipherShed::SecurityTokenKeyfilePath>, COMDAT
; _this$ = ecx

; 119  : 	allocator() _THROW0()

  00000	8b c1		 mov	 eax, ecx

; 120  : 		{	// construct default allocator (do nothing)
; 121  : 		}

  00002	c3		 ret	 0
??0?$allocator@USecurityTokenKeyfilePath@CipherShed@@@std@@QAE@XZ ENDP ; std::allocator<CipherShed::SecurityTokenKeyfilePath>::allocator<CipherShed::SecurityTokenKeyfilePath>
_TEXT	ENDS
PUBLIC	?_Myptr@?$basic_string@DU?$char_traits@D@std@@V?$allocator@D@2@@std@@IAEPADXZ ; std::basic_string<char,std::char_traits<char>,std::allocator<char> >::_Myptr
; Function compile flags: /Ogtpy
; File c:\program files (x86)\microsoft visual studio 9.0\vc\include\xstring
;	COMDAT ?_Myptr@?$basic_string@DU?$char_traits@D@std@@V?$allocator@D@2@@std@@IAEPADXZ
_TEXT	SEGMENT
?_Myptr@?$basic_string@DU?$char_traits@D@std@@V?$allocator@D@2@@std@@IAEPADXZ PROC ; std::basic_string<char,std::char_traits<char>,std::allocator<char> >::_Myptr, COMDAT
; _this$ = ecx

; 2170 : 		return (_BUF_SIZE <= _Myres ? _Bx._Ptr : _Bx._Buf);

  00000	83 79 18 10	 cmp	 DWORD PTR [ecx+24], 16	; 00000010H
  00004	72 04		 jb	 SHORT $LN3@Myptr@3
  00006	8b 41 04	 mov	 eax, DWORD PTR [ecx+4]

; 2171 : 		}

  00009	c3		 ret	 0
$LN3@Myptr@3:

; 2170 : 		return (_BUF_SIZE <= _Myres ? _Bx._Ptr : _Bx._Buf);

  0000a	8d 41 04	 lea	 eax, DWORD PTR [ecx+4]

; 2171 : 		}

  0000d	c3		 ret	 0
?_Myptr@?$basic_string@DU?$char_traits@D@std@@V?$allocator@D@2@@std@@IAEPADXZ ENDP ; std::basic_string<char,std::char_traits<char>,std::allocator<char> >::_Myptr
_TEXT	ENDS
PUBLIC	??0?$allocator@D@std@@QAE@ABV01@@Z		; std::allocator<char>::allocator<char>
; Function compile flags: /Ogtpy
; File c:\program files (x86)\microsoft visual studio 9.0\vc\include\xmemory
;	COMDAT ??0?$allocator@D@std@@QAE@ABV01@@Z
_TEXT	SEGMENT
___formal$ = 8						; size = 4
??0?$allocator@D@std@@QAE@ABV01@@Z PROC			; std::allocator<char>::allocator<char>, COMDAT
; _this$ = ecx

; 123  : 	allocator(const allocator<_Ty>&) _THROW0()

  00000	8b c1		 mov	 eax, ecx

; 124  : 		{	// construct by copying (do nothing)
; 125  : 		}

  00002	c2 04 00	 ret	 4
??0?$allocator@D@std@@QAE@ABV01@@Z ENDP			; std::allocator<char>::allocator<char>
_TEXT	ENDS
PUBLIC	?deallocate@?$allocator@D@std@@QAEXPADI@Z	; std::allocator<char>::deallocate
; Function compile flags: /Ogtpy
;	COMDAT ?deallocate@?$allocator@D@std@@QAEXPADI@Z
_TEXT	SEGMENT
__Ptr$ = 8						; size = 4
___formal$ = 12						; size = 4
?deallocate@?$allocator@D@std@@QAEXPADI@Z PROC		; std::allocator<char>::deallocate, COMDAT
; _this$ = ecx

; 140  : 		::operator delete(_Ptr);

  00000	8b 44 24 04	 mov	 eax, DWORD PTR __Ptr$[esp-4]
  00004	50		 push	 eax
  00005	e8 00 00 00 00	 call	 ??3@YAXPAX@Z		; operator delete
  0000a	59		 pop	 ecx

; 141  : 		}

  0000b	c2 08 00	 ret	 8
?deallocate@?$allocator@D@std@@QAEXPADI@Z ENDP		; std::allocator<char>::deallocate
_TEXT	ENDS
PUBLIC	?_Myptr@?$basic_string@_WU?$char_traits@_W@std@@V?$allocator@_W@2@@std@@IAEPA_WXZ ; std::basic_string<wchar_t,std::char_traits<wchar_t>,std::allocator<wchar_t> >::_Myptr
; Function compile flags: /Ogtpy
; File c:\program files (x86)\microsoft visual studio 9.0\vc\include\xstring
;	COMDAT ?_Myptr@?$basic_string@_WU?$char_traits@_W@std@@V?$allocator@_W@2@@std@@IAEPA_WXZ
_TEXT	SEGMENT
?_Myptr@?$basic_string@_WU?$char_traits@_W@std@@V?$allocator@_W@2@@std@@IAEPA_WXZ PROC ; std::basic_string<wchar_t,std::char_traits<wchar_t>,std::allocator<wchar_t> >::_Myptr, COMDAT
; _this$ = ecx

; 2170 : 		return (_BUF_SIZE <= _Myres ? _Bx._Ptr : _Bx._Buf);

  00000	83 79 18 08	 cmp	 DWORD PTR [ecx+24], 8
  00004	72 04		 jb	 SHORT $LN3@Myptr@4
  00006	8b 41 04	 mov	 eax, DWORD PTR [ecx+4]

; 2171 : 		}

  00009	c3		 ret	 0
$LN3@Myptr@4:

; 2170 : 		return (_BUF_SIZE <= _Myres ? _Bx._Ptr : _Bx._Buf);

  0000a	8d 41 04	 lea	 eax, DWORD PTR [ecx+4]

; 2171 : 		}

  0000d	c3		 ret	 0
?_Myptr@?$basic_string@_WU?$char_traits@_W@std@@V?$allocator@_W@2@@std@@IAEPA_WXZ ENDP ; std::basic_string<wchar_t,std::char_traits<wchar_t>,std::allocator<wchar_t> >::_Myptr
_TEXT	ENDS
PUBLIC	??0?$allocator@_W@std@@QAE@ABV01@@Z		; std::allocator<wchar_t>::allocator<wchar_t>
; Function compile flags: /Ogtpy
; File c:\program files (x86)\microsoft visual studio 9.0\vc\include\xmemory
;	COMDAT ??0?$allocator@_W@std@@QAE@ABV01@@Z
_TEXT	SEGMENT
___formal$ = 8						; size = 4
??0?$allocator@_W@std@@QAE@ABV01@@Z PROC		; std::allocator<wchar_t>::allocator<wchar_t>, COMDAT
; _this$ = ecx

; 123  : 	allocator(const allocator<_Ty>&) _THROW0()

  00000	8b c1		 mov	 eax, ecx

; 124  : 		{	// construct by copying (do nothing)
; 125  : 		}

  00002	c2 04 00	 ret	 4
??0?$allocator@_W@std@@QAE@ABV01@@Z ENDP		; std::allocator<wchar_t>::allocator<wchar_t>
_TEXT	ENDS
PUBLIC	?deallocate@?$allocator@_W@std@@QAEXPA_WI@Z	; std::allocator<wchar_t>::deallocate
; Function compile flags: /Ogtpy
;	COMDAT ?deallocate@?$allocator@_W@std@@QAEXPA_WI@Z
_TEXT	SEGMENT
__Ptr$ = 8						; size = 4
___formal$ = 12						; size = 4
?deallocate@?$allocator@_W@std@@QAEXPA_WI@Z PROC	; std::allocator<wchar_t>::deallocate, COMDAT
; _this$ = ecx

; 140  : 		::operator delete(_Ptr);

  00000	8b 44 24 04	 mov	 eax, DWORD PTR __Ptr$[esp-4]
  00004	50		 push	 eax
  00005	e8 00 00 00 00	 call	 ??3@YAXPAX@Z		; operator delete
  0000a	59		 pop	 ecx

; 141  : 		}

  0000b	c2 08 00	 ret	 8
?deallocate@?$allocator@_W@std@@QAEXPA_WI@Z ENDP	; std::allocator<wchar_t>::deallocate
_TEXT	ENDS
PUBLIC	?deallocate@?$allocator@V_Aux_cont@std@@@std@@QAEXPAV_Aux_cont@2@I@Z ; std::allocator<std::_Aux_cont>::deallocate
; Function compile flags: /Ogtpy
;	COMDAT ?deallocate@?$allocator@V_Aux_cont@std@@@std@@QAEXPAV_Aux_cont@2@I@Z
_TEXT	SEGMENT
__Ptr$ = 8						; size = 4
___formal$ = 12						; size = 4
?deallocate@?$allocator@V_Aux_cont@std@@@std@@QAEXPAV_Aux_cont@2@I@Z PROC ; std::allocator<std::_Aux_cont>::deallocate, COMDAT
; _this$ = ecx

; 140  : 		::operator delete(_Ptr);

  00000	8b 44 24 04	 mov	 eax, DWORD PTR __Ptr$[esp-4]
  00004	50		 push	 eax
  00005	e8 00 00 00 00	 call	 ??3@YAXPAX@Z		; operator delete
  0000a	59		 pop	 ecx

; 141  : 		}

  0000b	c2 08 00	 ret	 8
?deallocate@?$allocator@V_Aux_cont@std@@@std@@QAEXPAV_Aux_cont@2@I@Z ENDP ; std::allocator<std::_Aux_cont>::deallocate
_TEXT	ENDS
PUBLIC	??0?$allocator@E@std@@QAE@ABV01@@Z		; std::allocator<unsigned char>::allocator<unsigned char>
; Function compile flags: /Ogtpy
;	COMDAT ??0?$allocator@E@std@@QAE@ABV01@@Z
_TEXT	SEGMENT
___formal$ = 8						; size = 4
??0?$allocator@E@std@@QAE@ABV01@@Z PROC			; std::allocator<unsigned char>::allocator<unsigned char>, COMDAT
; _this$ = ecx

; 123  : 	allocator(const allocator<_Ty>&) _THROW0()

  00000	8b c1		 mov	 eax, ecx

; 124  : 		{	// construct by copying (do nothing)
; 125  : 		}

  00002	c2 04 00	 ret	 4
??0?$allocator@E@std@@QAE@ABV01@@Z ENDP			; std::allocator<unsigned char>::allocator<unsigned char>
_TEXT	ENDS
PUBLIC	?deallocate@?$allocator@E@std@@QAEXPAEI@Z	; std::allocator<unsigned char>::deallocate
; Function compile flags: /Ogtpy
;	COMDAT ?deallocate@?$allocator@E@std@@QAEXPAEI@Z
_TEXT	SEGMENT
__Ptr$ = 8						; size = 4
___formal$ = 12						; size = 4
?deallocate@?$allocator@E@std@@QAEXPAEI@Z PROC		; std::allocator<unsigned char>::deallocate, COMDAT
; _this$ = ecx

; 140  : 		::operator delete(_Ptr);

  00000	8b 44 24 04	 mov	 eax, DWORD PTR __Ptr$[esp-4]
  00004	50		 push	 eax
  00005	e8 00 00 00 00	 call	 ??3@YAXPAX@Z		; operator delete
  0000a	59		 pop	 ecx

; 141  : 		}

  0000b	c2 08 00	 ret	 8
?deallocate@?$allocator@E@std@@QAEXPAEI@Z ENDP		; std::allocator<unsigned char>::deallocate
_TEXT	ENDS
PUBLIC	?_Nextnode@?$list@USecurityTokenKeyfilePath@CipherShed@@V?$allocator@USecurityTokenKeyfilePath@CipherShed@@@std@@@std@@KAAAPAU_Node@?$_List_nod@USecurityTokenKeyfilePath@CipherShed@@V?$allocator@USecurityTokenKeyfilePath@CipherShed@@@std@@@2@PAU342@@Z ; std::list<CipherShed::SecurityTokenKeyfilePath,std::allocator<CipherShed::SecurityTokenKeyfilePath> >::_Nextnode
; Function compile flags: /Ogtpy
; File c:\program files (x86)\microsoft visual studio 9.0\vc\include\list
;	COMDAT ?_Nextnode@?$list@USecurityTokenKeyfilePath@CipherShed@@V?$allocator@USecurityTokenKeyfilePath@CipherShed@@@std@@@std@@KAAAPAU_Node@?$_List_nod@USecurityTokenKeyfilePath@CipherShed@@V?$allocator@USecurityTokenKeyfilePath@CipherShed@@@std@@@2@PAU342@@Z
_TEXT	SEGMENT
__Pnode$ = 8						; size = 4
?_Nextnode@?$list@USecurityTokenKeyfilePath@CipherShed@@V?$allocator@USecurityTokenKeyfilePath@CipherShed@@@std@@@std@@KAAAPAU_Node@?$_List_nod@USecurityTokenKeyfilePath@CipherShed@@V?$allocator@USecurityTokenKeyfilePath@CipherShed@@@std@@@2@PAU342@@Z PROC ; std::list<CipherShed::SecurityTokenKeyfilePath,std::allocator<CipherShed::SecurityTokenKeyfilePath> >::_Nextnode, COMDAT

; 115  : 		return ((_Nodepref)(*_Pnode)._Next);

  00000	8b 44 24 04	 mov	 eax, DWORD PTR __Pnode$[esp-4]

; 116  : 		}

  00004	c3		 ret	 0
?_Nextnode@?$list@USecurityTokenKeyfilePath@CipherShed@@V?$allocator@USecurityTokenKeyfilePath@CipherShed@@@std@@@std@@KAAAPAU_Node@?$_List_nod@USecurityTokenKeyfilePath@CipherShed@@V?$allocator@USecurityTokenKeyfilePath@CipherShed@@@std@@@2@PAU342@@Z ENDP ; std::list<CipherShed::SecurityTokenKeyfilePath,std::allocator<CipherShed::SecurityTokenKeyfilePath> >::_Nextnode
_TEXT	ENDS
PUBLIC	?_Prevnode@?$list@USecurityTokenKeyfilePath@CipherShed@@V?$allocator@USecurityTokenKeyfilePath@CipherShed@@@std@@@std@@KAAAPAU_Node@?$_List_nod@USecurityTokenKeyfilePath@CipherShed@@V?$allocator@USecurityTokenKeyfilePath@CipherShed@@@std@@@2@PAU342@@Z ; std::list<CipherShed::SecurityTokenKeyfilePath,std::allocator<CipherShed::SecurityTokenKeyfilePath> >::_Prevnode
; Function compile flags: /Ogtpy
;	COMDAT ?_Prevnode@?$list@USecurityTokenKeyfilePath@CipherShed@@V?$allocator@USecurityTokenKeyfilePath@CipherShed@@@std@@@std@@KAAAPAU_Node@?$_List_nod@USecurityTokenKeyfilePath@CipherShed@@V?$allocator@USecurityTokenKeyfilePath@CipherShed@@@std@@@2@PAU342@@Z
_TEXT	SEGMENT
__Pnode$ = 8						; size = 4
?_Prevnode@?$list@USecurityTokenKeyfilePath@CipherShed@@V?$allocator@USecurityTokenKeyfilePath@CipherShed@@@std@@@std@@KAAAPAU_Node@?$_List_nod@USecurityTokenKeyfilePath@CipherShed@@V?$allocator@USecurityTokenKeyfilePath@CipherShed@@@std@@@2@PAU342@@Z PROC ; std::list<CipherShed::SecurityTokenKeyfilePath,std::allocator<CipherShed::SecurityTokenKeyfilePath> >::_Prevnode, COMDAT

; 120  : 		return ((_Nodepref)(*_Pnode)._Prev);

  00000	8b 44 24 04	 mov	 eax, DWORD PTR __Pnode$[esp-4]
  00004	83 c0 04	 add	 eax, 4

; 121  : 		}

  00007	c3		 ret	 0
?_Prevnode@?$list@USecurityTokenKeyfilePath@CipherShed@@V?$allocator@USecurityTokenKeyfilePath@CipherShed@@@std@@@std@@KAAAPAU_Node@?$_List_nod@USecurityTokenKeyfilePath@CipherShed@@V?$allocator@USecurityTokenKeyfilePath@CipherShed@@@std@@@2@PAU342@@Z ENDP ; std::list<CipherShed::SecurityTokenKeyfilePath,std::allocator<CipherShed::SecurityTokenKeyfilePath> >::_Prevnode
_TEXT	ENDS
PUBLIC	??0?$allocator@USecurityTokenKeyfilePath@CipherShed@@@std@@QAE@ABV01@@Z ; std::allocator<CipherShed::SecurityTokenKeyfilePath>::allocator<CipherShed::SecurityTokenKeyfilePath>
; Function compile flags: /Ogtpy
; File c:\program files (x86)\microsoft visual studio 9.0\vc\include\xmemory
;	COMDAT ??0?$allocator@USecurityTokenKeyfilePath@CipherShed@@@std@@QAE@ABV01@@Z
_TEXT	SEGMENT
___formal$ = 8						; size = 4
??0?$allocator@USecurityTokenKeyfilePath@CipherShed@@@std@@QAE@ABV01@@Z PROC ; std::allocator<CipherShed::SecurityTokenKeyfilePath>::allocator<CipherShed::SecurityTokenKeyfilePath>, COMDAT
; _this$ = ecx

; 123  : 	allocator(const allocator<_Ty>&) _THROW0()

  00000	8b c1		 mov	 eax, ecx

; 124  : 		{	// construct by copying (do nothing)
; 125  : 		}

  00002	c2 04 00	 ret	 4
??0?$allocator@USecurityTokenKeyfilePath@CipherShed@@@std@@QAE@ABV01@@Z ENDP ; std::allocator<CipherShed::SecurityTokenKeyfilePath>::allocator<CipherShed::SecurityTokenKeyfilePath>
_TEXT	ENDS
PUBLIC	?deallocate@?$allocator@U_Node@?$_List_nod@USecurityTokenKeyfilePath@CipherShed@@V?$allocator@USecurityTokenKeyfilePath@CipherShed@@@std@@@std@@@std@@QAEXPAU_Node@?$_List_nod@USecurityTokenKeyfilePath@CipherShed@@V?$allocator@USecurityTokenKeyfilePath@CipherShed@@@std@@@2@I@Z ; std::allocator<std::_List_nod<CipherShed::SecurityTokenKeyfilePath,std::allocator<CipherShed::SecurityTokenKeyfilePath> >::_Node>::deallocate
; Function compile flags: /Ogtpy
;	COMDAT ?deallocate@?$allocator@U_Node@?$_List_nod@USecurityTokenKeyfilePath@CipherShed@@V?$allocator@USecurityTokenKeyfilePath@CipherShed@@@std@@@std@@@std@@QAEXPAU_Node@?$_List_nod@USecurityTokenKeyfilePath@CipherShed@@V?$allocator@USecurityTokenKeyfilePath@CipherShed@@@std@@@2@I@Z
_TEXT	SEGMENT
__Ptr$ = 8						; size = 4
___formal$ = 12						; size = 4
?deallocate@?$allocator@U_Node@?$_List_nod@USecurityTokenKeyfilePath@CipherShed@@V?$allocator@USecurityTokenKeyfilePath@CipherShed@@@std@@@std@@@std@@QAEXPAU_Node@?$_List_nod@USecurityTokenKeyfilePath@CipherShed@@V?$allocator@USecurityTokenKeyfilePath@CipherShed@@@std@@@2@I@Z PROC ; std::allocator<std::_List_nod<CipherShed::SecurityTokenKeyfilePath,std::allocator<CipherShed::SecurityTokenKeyfilePath> >::_Node>::deallocate, COMDAT
; _this$ = ecx

; 140  : 		::operator delete(_Ptr);

  00000	8b 44 24 04	 mov	 eax, DWORD PTR __Ptr$[esp-4]
  00004	50		 push	 eax
  00005	e8 00 00 00 00	 call	 ??3@YAXPAX@Z		; operator delete
  0000a	59		 pop	 ecx

; 141  : 		}

  0000b	c2 08 00	 ret	 8
?deallocate@?$allocator@U_Node@?$_List_nod@USecurityTokenKeyfilePath@CipherShed@@V?$allocator@USecurityTokenKeyfilePath@CipherShed@@@std@@@std@@@std@@QAEXPAU_Node@?$_List_nod@USecurityTokenKeyfilePath@CipherShed@@V?$allocator@USecurityTokenKeyfilePath@CipherShed@@@std@@@2@I@Z ENDP ; std::allocator<std::_List_nod<CipherShed::SecurityTokenKeyfilePath,std::allocator<CipherShed::SecurityTokenKeyfilePath> >::_Node>::deallocate
_TEXT	ENDS
PUBLIC	??8?$_Const_iterator@$00@?$list@USecurityTokenKeyfilePath@CipherShed@@V?$allocator@USecurityTokenKeyfilePath@CipherShed@@@std@@@std@@QBE_NABV012@@Z ; std::list<CipherShed::SecurityTokenKeyfilePath,std::allocator<CipherShed::SecurityTokenKeyfilePath> >::_Const_iterator<1>::operator==
; Function compile flags: /Ogtpy
; File c:\program files (x86)\microsoft visual studio 9.0\vc\include\list
;	COMDAT ??8?$_Const_iterator@$00@?$list@USecurityTokenKeyfilePath@CipherShed@@V?$allocator@USecurityTokenKeyfilePath@CipherShed@@@std@@@std@@QBE_NABV012@@Z
_TEXT	SEGMENT
__Right$ = 8						; size = 4
??8?$_Const_iterator@$00@?$list@USecurityTokenKeyfilePath@CipherShed@@V?$allocator@USecurityTokenKeyfilePath@CipherShed@@@std@@@std@@QBE_NABV012@@Z PROC ; std::list<CipherShed::SecurityTokenKeyfilePath,std::allocator<CipherShed::SecurityTokenKeyfilePath> >::_Const_iterator<1>::operator==, COMDAT
; _this$ = ecx

; 290  : 			{	// test for iterator equality

  00000	56		 push	 esi
  00001	8b f1		 mov	 esi, ecx

; 291  : 
; 292  :  #if _HAS_ITERATOR_DEBUGGING
; 293  : 			_Compat(_Right);
; 294  :  #else
; 295  : 			_SCL_SECURE_TRAITS_VALIDATE(this->_Has_container() && this->_Same_container(_Right));

  00003	8b 06		 mov	 eax, DWORD PTR [esi]
  00005	57		 push	 edi
  00006	8b 7c 24 0c	 mov	 edi, DWORD PTR __Right$[esp+4]
  0000a	85 c0		 test	 eax, eax
  0000c	74 04		 je	 SHORT $LN4@operator@2
  0000e	3b 07		 cmp	 eax, DWORD PTR [edi]
  00010	74 05		 je	 SHORT $LN3@operator@2
$LN4@operator@2:
  00012	e8 00 00 00 00	 call	 __invalid_parameter_noinfo
$LN3@operator@2:

; 296  :  #endif /* _HAS_ITERATOR_DEBUGGING */
; 297  : 
; 298  : 			return (_Ptr == _Right._Ptr);

  00017	8b 46 04	 mov	 eax, DWORD PTR [esi+4]
  0001a	33 c9		 xor	 ecx, ecx
  0001c	3b 47 04	 cmp	 eax, DWORD PTR [edi+4]
  0001f	5f		 pop	 edi
  00020	0f 94 c1	 sete	 cl
  00023	8a c1		 mov	 al, cl
  00025	5e		 pop	 esi

; 299  : 			}

  00026	c2 04 00	 ret	 4
??8?$_Const_iterator@$00@?$list@USecurityTokenKeyfilePath@CipherShed@@V?$allocator@USecurityTokenKeyfilePath@CipherShed@@@std@@@std@@QBE_NABV012@@Z ENDP ; std::list<CipherShed::SecurityTokenKeyfilePath,std::allocator<CipherShed::SecurityTokenKeyfilePath> >::_Const_iterator<1>::operator==
_TEXT	ENDS
PUBLIC	??D?$_Vector_const_iterator@EV?$allocator@E@std@@@std@@QBEABEXZ ; std::_Vector_const_iterator<unsigned char,std::allocator<unsigned char> >::operator*
; Function compile flags: /Ogtpy
; File c:\program files (x86)\microsoft visual studio 9.0\vc\include\vector
;	COMDAT ??D?$_Vector_const_iterator@EV?$allocator@E@std@@@std@@QBEABEXZ
_TEXT	SEGMENT
??D?$_Vector_const_iterator@EV?$allocator@E@std@@@std@@QBEABEXZ PROC ; std::_Vector_const_iterator<unsigned char,std::allocator<unsigned char> >::operator*, COMDAT
; _this$ = ecx

; 91   : 		{	// return designated object

  00000	56		 push	 esi
  00001	8b f1		 mov	 esi, ecx

; 92   : 
; 93   :  #if _HAS_ITERATOR_DEBUGGING
; 94   : 		if (this->_Mycont == 0
; 95   : 			|| _Myptr < ((_Myvec *)this->_Mycont)->_Myfirst
; 96   : 			|| ((_Myvec *)this->_Mycont)->_Mylast <= _Myptr)
; 97   : 			{
; 98   : 			_DEBUG_ERROR("vector iterator not dereferencable");
; 99   : 			_SCL_SECURE_OUT_OF_RANGE;
; 100  : 			}
; 101  :  #else
; 102  :  		_SCL_SECURE_VALIDATE(this->_Has_container());

  00003	8b 06		 mov	 eax, DWORD PTR [esi]
  00005	85 c0		 test	 eax, eax
  00007	75 0b		 jne	 SHORT $LN19@operator@3
  00009	e8 00 00 00 00	 call	 __invalid_parameter_noinfo

; 103  : 		_SCL_SECURE_VALIDATE_RANGE(_Myptr < ((_Myvec *)(this->_Getmycont()))->_Mylast);

  0000e	8b 06		 mov	 eax, DWORD PTR [esi]
  00010	85 c0		 test	 eax, eax
  00012	74 04		 je	 SHORT $LN15@operator@3
$LN19@operator@3:
  00014	8b 00		 mov	 eax, DWORD PTR [eax]
  00016	eb 02		 jmp	 SHORT $LN16@operator@3
$LN15@operator@3:
  00018	33 c0		 xor	 eax, eax
$LN16@operator@3:
  0001a	8b 4e 04	 mov	 ecx, DWORD PTR [esi+4]
  0001d	3b 48 10	 cmp	 ecx, DWORD PTR [eax+16]
  00020	72 0a		 jb	 SHORT $LN20@operator@3
  00022	e8 00 00 00 00	 call	 __invalid_parameter_noinfo

; 104  :  #endif /* _HAS_ITERATOR_DEBUGGING */
; 105  : 
; 106  : 		return (*_Myptr);

  00027	8b 46 04	 mov	 eax, DWORD PTR [esi+4]
  0002a	5e		 pop	 esi

; 107  : 		}

  0002b	c3		 ret	 0
$LN20@operator@3:

; 104  :  #endif /* _HAS_ITERATOR_DEBUGGING */
; 105  : 
; 106  : 		return (*_Myptr);

  0002c	8b c1		 mov	 eax, ecx
  0002e	5e		 pop	 esi

; 107  : 		}

  0002f	c3		 ret	 0
??D?$_Vector_const_iterator@EV?$allocator@E@std@@@std@@QBEABEXZ ENDP ; std::_Vector_const_iterator<unsigned char,std::allocator<unsigned char> >::operator*
_TEXT	ENDS
PUBLIC	?_Inside@?$basic_string@DU?$char_traits@D@std@@V?$allocator@D@2@@std@@IAE_NPBD@Z ; std::basic_string<char,std::char_traits<char>,std::allocator<char> >::_Inside
; Function compile flags: /Ogtpy
; File c:\program files (x86)\microsoft visual studio 9.0\vc\include\xstring
;	COMDAT ?_Inside@?$basic_string@DU?$char_traits@D@std@@V?$allocator@D@2@@std@@IAE_NPBD@Z
_TEXT	SEGMENT
__Ptr$ = 8						; size = 4
?_Inside@?$basic_string@DU?$char_traits@D@std@@V?$allocator@D@2@@std@@IAE_NPBD@Z PROC ; std::basic_string<char,std::char_traits<char>,std::allocator<char> >::_Inside, COMDAT
; _this$ = ecx

; 2133 : 		{	// test if _Ptr points inside string

  00000	56		 push	 esi
  00001	57		 push	 edi

; 2134 : 		if (_Ptr == 0 || _Ptr < _Myptr() || _Myptr() + _Mysize <= _Ptr)

  00002	8b 7c 24 0c	 mov	 edi, DWORD PTR __Ptr$[esp+4]
  00006	85 ff		 test	 edi, edi
  00008	74 2c		 je	 SHORT $LN2@Inside
  0000a	8b 71 18	 mov	 esi, DWORD PTR [ecx+24]
  0000d	8d 41 04	 lea	 eax, DWORD PTR [ecx+4]
  00010	83 fe 10	 cmp	 esi, 16			; 00000010H
  00013	72 04		 jb	 SHORT $LN8@Inside
  00015	8b 10		 mov	 edx, DWORD PTR [eax]
  00017	eb 02		 jmp	 SHORT $LN9@Inside
$LN8@Inside:
  00019	8b d0		 mov	 edx, eax
$LN9@Inside:
  0001b	3b fa		 cmp	 edi, edx
  0001d	72 17		 jb	 SHORT $LN2@Inside
  0001f	83 fe 10	 cmp	 esi, 16			; 00000010H
  00022	72 02		 jb	 SHORT $LN12@Inside
  00024	8b 00		 mov	 eax, DWORD PTR [eax]
$LN12@Inside:
  00026	8b 49 14	 mov	 ecx, DWORD PTR [ecx+20]
  00029	03 c8		 add	 ecx, eax
  0002b	3b cf		 cmp	 ecx, edi
  0002d	76 07		 jbe	 SHORT $LN2@Inside
  0002f	5f		 pop	 edi

; 2136 : 		else
; 2137 : 			return (true);

  00030	b0 01		 mov	 al, 1
  00032	5e		 pop	 esi

; 2138 : 		}

  00033	c2 04 00	 ret	 4
$LN2@Inside:
  00036	5f		 pop	 edi

; 2135 : 			return (false);	// don't ask

  00037	32 c0		 xor	 al, al
  00039	5e		 pop	 esi

; 2138 : 		}

  0003a	c2 04 00	 ret	 4
?_Inside@?$basic_string@DU?$char_traits@D@std@@V?$allocator@D@2@@std@@IAE_NPBD@Z ENDP ; std::basic_string<char,std::char_traits<char>,std::allocator<char> >::_Inside
_TEXT	ENDS
PUBLIC	?_Inside@?$basic_string@_WU?$char_traits@_W@std@@V?$allocator@_W@2@@std@@IAE_NPB_W@Z ; std::basic_string<wchar_t,std::char_traits<wchar_t>,std::allocator<wchar_t> >::_Inside
; Function compile flags: /Ogtpy
;	COMDAT ?_Inside@?$basic_string@_WU?$char_traits@_W@std@@V?$allocator@_W@2@@std@@IAE_NPB_W@Z
_TEXT	SEGMENT
__Ptr$ = 8						; size = 4
?_Inside@?$basic_string@_WU?$char_traits@_W@std@@V?$allocator@_W@2@@std@@IAE_NPB_W@Z PROC ; std::basic_string<wchar_t,std::char_traits<wchar_t>,std::allocator<wchar_t> >::_Inside, COMDAT
; _this$ = ecx

; 2133 : 		{	// test if _Ptr points inside string

  00000	56		 push	 esi
  00001	57		 push	 edi

; 2134 : 		if (_Ptr == 0 || _Ptr < _Myptr() || _Myptr() + _Mysize <= _Ptr)

  00002	8b 7c 24 0c	 mov	 edi, DWORD PTR __Ptr$[esp+4]
  00006	85 ff		 test	 edi, edi
  00008	74 2d		 je	 SHORT $LN2@Inside@2
  0000a	8b 71 18	 mov	 esi, DWORD PTR [ecx+24]
  0000d	8d 41 04	 lea	 eax, DWORD PTR [ecx+4]
  00010	83 fe 08	 cmp	 esi, 8
  00013	72 04		 jb	 SHORT $LN8@Inside@2
  00015	8b 10		 mov	 edx, DWORD PTR [eax]
  00017	eb 02		 jmp	 SHORT $LN9@Inside@2
$LN8@Inside@2:
  00019	8b d0		 mov	 edx, eax
$LN9@Inside@2:
  0001b	3b fa		 cmp	 edi, edx
  0001d	72 18		 jb	 SHORT $LN2@Inside@2
  0001f	83 fe 08	 cmp	 esi, 8
  00022	72 02		 jb	 SHORT $LN12@Inside@2
  00024	8b 00		 mov	 eax, DWORD PTR [eax]
$LN12@Inside@2:
  00026	8b 49 14	 mov	 ecx, DWORD PTR [ecx+20]
  00029	8d 14 48	 lea	 edx, DWORD PTR [eax+ecx*2]
  0002c	3b d7		 cmp	 edx, edi
  0002e	76 07		 jbe	 SHORT $LN2@Inside@2
  00030	5f		 pop	 edi

; 2136 : 		else
; 2137 : 			return (true);

  00031	b0 01		 mov	 al, 1
  00033	5e		 pop	 esi

; 2138 : 		}

  00034	c2 04 00	 ret	 4
$LN2@Inside@2:
  00037	5f		 pop	 edi

; 2135 : 			return (false);	// don't ask

  00038	32 c0		 xor	 al, al
  0003a	5e		 pop	 esi

; 2138 : 		}

  0003b	c2 04 00	 ret	 4
?_Inside@?$basic_string@_WU?$char_traits@_W@std@@V?$allocator@_W@2@@std@@IAE_NPB_W@Z ENDP ; std::basic_string<wchar_t,std::char_traits<wchar_t>,std::allocator<wchar_t> >::_Inside
_TEXT	ENDS
PUBLIC	?max_size@?$allocator@E@std@@QBEIXZ		; std::allocator<unsigned char>::max_size
; Function compile flags: /Ogtpy
; File c:\program files (x86)\microsoft visual studio 9.0\vc\include\xmemory
;	COMDAT ?max_size@?$allocator@E@std@@QBEIXZ
_TEXT	SEGMENT
?max_size@?$allocator@E@std@@QBEIXZ PROC		; std::allocator<unsigned char>::max_size, COMDAT
; _this$ = ecx

; 165  : 		_SIZT _Count = (_SIZT)(-1) / sizeof (_Ty);
; 166  : 		return (0 < _Count ? _Count : 1);

  00000	83 c8 ff	 or	 eax, -1

; 167  : 		}

  00003	c3		 ret	 0
?max_size@?$allocator@E@std@@QBEIXZ ENDP		; std::allocator<unsigned char>::max_size
_TEXT	ENDS
PUBLIC	??0?$_Iterator_with_base@Urandom_access_iterator_tag@std@@EHPBEABEV_Iterator_base_aux@2@@std@@QAE@XZ ; std::_Iterator_with_base<std::random_access_iterator_tag,unsigned char,int,unsigned char const *,unsigned char const &,std::_Iterator_base_aux>::_Iterator_with_base<std::random_access_iterator_tag,unsigned char,int,unsigned char const *,unsigned char const &,std::_Iterator_base_aux>
; Function compile flags: /Ogtpy
;	COMDAT ??0?$_Iterator_with_base@Urandom_access_iterator_tag@std@@EHPBEABEV_Iterator_base_aux@2@@std@@QAE@XZ
_TEXT	SEGMENT
??0?$_Iterator_with_base@Urandom_access_iterator_tag@std@@EHPBEABEV_Iterator_base_aux@2@@std@@QAE@XZ PROC ; std::_Iterator_with_base<std::random_access_iterator_tag,unsigned char,int,unsigned char const *,unsigned char const &,std::_Iterator_base_aux>::_Iterator_with_base<std::random_access_iterator_tag,unsigned char,int,unsigned char const *,unsigned char const &,std::_Iterator_base_aux>, COMDAT
; _this$ = ecx
  00000	8b c1		 mov	 eax, ecx
  00002	c7 00 00 00 00
	00		 mov	 DWORD PTR [eax], 0
  00008	c3		 ret	 0
??0?$_Iterator_with_base@Urandom_access_iterator_tag@std@@EHPBEABEV_Iterator_base_aux@2@@std@@QAE@XZ ENDP ; std::_Iterator_with_base<std::random_access_iterator_tag,unsigned char,int,unsigned char const *,unsigned char const &,std::_Iterator_base_aux>::_Iterator_with_base<std::random_access_iterator_tag,unsigned char,int,unsigned char const *,unsigned char const &,std::_Iterator_base_aux>
_TEXT	ENDS
PUBLIC	?max_size@?$allocator@D@std@@QBEIXZ		; std::allocator<char>::max_size
; Function compile flags: /Ogtpy
;	COMDAT ?max_size@?$allocator@D@std@@QBEIXZ
_TEXT	SEGMENT
?max_size@?$allocator@D@std@@QBEIXZ PROC		; std::allocator<char>::max_size, COMDAT
; _this$ = ecx

; 165  : 		_SIZT _Count = (_SIZT)(-1) / sizeof (_Ty);
; 166  : 		return (0 < _Count ? _Count : 1);

  00000	83 c8 ff	 or	 eax, -1

; 167  : 		}

  00003	c3		 ret	 0
?max_size@?$allocator@D@std@@QBEIXZ ENDP		; std::allocator<char>::max_size
_TEXT	ENDS
PUBLIC	?max_size@?$allocator@_W@std@@QBEIXZ		; std::allocator<wchar_t>::max_size
; Function compile flags: /Ogtpy
;	COMDAT ?max_size@?$allocator@_W@std@@QBEIXZ
_TEXT	SEGMENT
?max_size@?$allocator@_W@std@@QBEIXZ PROC		; std::allocator<wchar_t>::max_size, COMDAT
; _this$ = ecx

; 165  : 		_SIZT _Count = (_SIZT)(-1) / sizeof (_Ty);
; 166  : 		return (0 < _Count ? _Count : 1);

  00000	b8 ff ff ff 7f	 mov	 eax, 2147483647		; 7fffffffH

; 167  : 		}

  00005	c3		 ret	 0
?max_size@?$allocator@_W@std@@QBEIXZ ENDP		; std::allocator<wchar_t>::max_size
_TEXT	ENDS
PUBLIC	??$ToTypeWrapper@V?$list@USecurityTokenKeyfilePath@CipherShed@@V?$allocator@USecurityTokenKeyfilePath@CipherShed@@@std@@@std@@@ForEach@CipherShed@@SA?AU?$TypeWrapper@V?$list@USecurityTokenKeyfilePath@CipherShed@@V?$allocator@USecurityTokenKeyfilePath@CipherShed@@@std@@@std@@@01@ABV?$list@USecurityTokenKeyfilePath@CipherShed@@V?$allocator@USecurityTokenKeyfilePath@CipherShed@@@std@@@std@@@Z ; CipherShed::ForEach::ToTypeWrapper<std::list<CipherShed::SecurityTokenKeyfilePath,std::allocator<CipherShed::SecurityTokenKeyfilePath> > >
; Function compile flags: /Ogtpy
; File c:\home\public\desktop\projects\ciphershed.build\src\platform\foreach.h
;	COMDAT ??$ToTypeWrapper@V?$list@USecurityTokenKeyfilePath@CipherShed@@V?$allocator@USecurityTokenKeyfilePath@CipherShed@@@std@@@std@@@ForEach@CipherShed@@SA?AU?$TypeWrapper@V?$list@USecurityTokenKeyfilePath@CipherShed@@V?$allocator@USecurityTokenKeyfilePath@CipherShed@@@std@@@std@@@01@ABV?$list@USecurityTokenKeyfilePath@CipherShed@@V?$allocator@USecurityTokenKeyfilePath@CipherShed@@@std@@@std@@@Z
_TEXT	SEGMENT
_x$ = 8							; size = 4
??$ToTypeWrapper@V?$list@USecurityTokenKeyfilePath@CipherShed@@V?$allocator@USecurityTokenKeyfilePath@CipherShed@@@std@@@std@@@ForEach@CipherShed@@SA?AU?$TypeWrapper@V?$list@USecurityTokenKeyfilePath@CipherShed@@V?$allocator@USecurityTokenKeyfilePath@CipherShed@@@std@@@std@@@01@ABV?$list@USecurityTokenKeyfilePath@CipherShed@@V?$allocator@USecurityTokenKeyfilePath@CipherShed@@@std@@@std@@@Z PROC ; CipherShed::ForEach::ToTypeWrapper<std::list<CipherShed::SecurityTokenKeyfilePath,std::allocator<CipherShed::SecurityTokenKeyfilePath> > >, COMDAT

; 85   : 		static TypeWrapper <T> ToTypeWrapper (const T &x) { return TypeWrapper <T> (); }

  00000	32 c0		 xor	 al, al
  00002	c3		 ret	 0
??$ToTypeWrapper@V?$list@USecurityTokenKeyfilePath@CipherShed@@V?$allocator@USecurityTokenKeyfilePath@CipherShed@@@std@@@std@@@ForEach@CipherShed@@SA?AU?$TypeWrapper@V?$list@USecurityTokenKeyfilePath@CipherShed@@V?$allocator@USecurityTokenKeyfilePath@CipherShed@@@std@@@std@@@01@ABV?$list@USecurityTokenKeyfilePath@CipherShed@@V?$allocator@USecurityTokenKeyfilePath@CipherShed@@@std@@@std@@@Z ENDP ; CipherShed::ForEach::ToTypeWrapper<std::list<CipherShed::SecurityTokenKeyfilePath,std::allocator<CipherShed::SecurityTokenKeyfilePath> > >
_TEXT	ENDS
PUBLIC	??$?BV?$list@USecurityTokenKeyfilePath@CipherShed@@V?$allocator@USecurityTokenKeyfilePath@CipherShed@@@std@@@std@@@TypeWrapperDummy@ForEach@CipherShed@@QBE?AU?$TypeWrapper@V?$list@USecurityTokenKeyfilePath@CipherShed@@V?$allocator@USecurityTokenKeyfilePath@CipherShed@@@std@@@std@@@12@XZ ; CipherShed::ForEach::TypeWrapperDummy::operator<std::list<CipherShed::SecurityTokenKeyfilePath,std::allocator<CipherShed::SecurityTokenKeyfilePath> > > CipherShed::ForEach::TypeWrapper<std::list<CipherShed::SecurityTokenKeyfilePath,std::allocator<CipherShed::SecurityTokenKeyfilePath> > >
; Function compile flags: /Ogtpy
;	COMDAT ??$?BV?$list@USecurityTokenKeyfilePath@CipherShed@@V?$allocator@USecurityTokenKeyfilePath@CipherShed@@@std@@@std@@@TypeWrapperDummy@ForEach@CipherShed@@QBE?AU?$TypeWrapper@V?$list@USecurityTokenKeyfilePath@CipherShed@@V?$allocator@USecurityTokenKeyfilePath@CipherShed@@@std@@@std@@@12@XZ
_TEXT	SEGMENT
___$ReturnUdt$ = 8					; size = 4
??$?BV?$list@USecurityTokenKeyfilePath@CipherShed@@V?$allocator@USecurityTokenKeyfilePath@CipherShed@@@std@@@std@@@TypeWrapperDummy@ForEach@CipherShed@@QBE?AU?$TypeWrapper@V?$list@USecurityTokenKeyfilePath@CipherShed@@V?$allocator@USecurityTokenKeyfilePath@CipherShed@@@std@@@std@@@12@XZ PROC ; CipherShed::ForEach::TypeWrapperDummy::operator<std::list<CipherShed::SecurityTokenKeyfilePath,std::allocator<CipherShed::SecurityTokenKeyfilePath> > > CipherShed::ForEach::TypeWrapper<std::list<CipherShed::SecurityTokenKeyfilePath,std::allocator<CipherShed::SecurityTokenKeyfilePath> > >, COMDAT
; _this$ = ecx

; 90   : 			operator TypeWrapper <T> () const { return TypeWrapper <T> (); }

  00000	8b 44 24 04	 mov	 eax, DWORD PTR ___$ReturnUdt$[esp-4]
  00004	c2 04 00	 ret	 4
??$?BV?$list@USecurityTokenKeyfilePath@CipherShed@@V?$allocator@USecurityTokenKeyfilePath@CipherShed@@@std@@@std@@@TypeWrapperDummy@ForEach@CipherShed@@QBE?AU?$TypeWrapper@V?$list@USecurityTokenKeyfilePath@CipherShed@@V?$allocator@USecurityTokenKeyfilePath@CipherShed@@@std@@@std@@@12@XZ ENDP ; CipherShed::ForEach::TypeWrapperDummy::operator<std::list<CipherShed::SecurityTokenKeyfilePath,std::allocator<CipherShed::SecurityTokenKeyfilePath> > > CipherShed::ForEach::TypeWrapper<std::list<CipherShed::SecurityTokenKeyfilePath,std::allocator<CipherShed::SecurityTokenKeyfilePath> > >
_TEXT	ENDS
PUBLIC	??$GetContainerForward@V?$list@USecurityTokenKeyfilePath@CipherShed@@V?$allocator@USecurityTokenKeyfilePath@CipherShed@@@std@@@std@@@ForEach@CipherShed@@SAABU?$ContainerForward@V?$list@USecurityTokenKeyfilePath@CipherShed@@V?$allocator@USecurityTokenKeyfilePath@CipherShed@@@std@@@std@@@01@ABUContainer@01@ABU?$TypeWrapper@V?$list@USecurityTokenKeyfilePath@CipherShed@@V?$allocator@USecurityTokenKeyfilePath@CipherShed@@@std@@@std@@@01@@Z ; CipherShed::ForEach::GetContainerForward<std::list<CipherShed::SecurityTokenKeyfilePath,std::allocator<CipherShed::SecurityTokenKeyfilePath> > >
; Function compile flags: /Ogtpy
;	COMDAT ??$GetContainerForward@V?$list@USecurityTokenKeyfilePath@CipherShed@@V?$allocator@USecurityTokenKeyfilePath@CipherShed@@@std@@@std@@@ForEach@CipherShed@@SAABU?$ContainerForward@V?$list@USecurityTokenKeyfilePath@CipherShed@@V?$allocator@USecurityTokenKeyfilePath@CipherShed@@@std@@@std@@@01@ABUContainer@01@ABU?$TypeWrapper@V?$list@USecurityTokenKeyfilePath@CipherShed@@V?$allocator@USecurityTokenKeyfilePath@CipherShed@@@std@@@std@@@01@@Z
_TEXT	SEGMENT
_forEachContainer$ = 8					; size = 4
___formal$ = 12						; size = 4
??$GetContainerForward@V?$list@USecurityTokenKeyfilePath@CipherShed@@V?$allocator@USecurityTokenKeyfilePath@CipherShed@@@std@@@std@@@ForEach@CipherShed@@SAABU?$ContainerForward@V?$list@USecurityTokenKeyfilePath@CipherShed@@V?$allocator@USecurityTokenKeyfilePath@CipherShed@@@std@@@std@@@01@ABUContainer@01@ABU?$TypeWrapper@V?$list@USecurityTokenKeyfilePath@CipherShed@@V?$allocator@USecurityTokenKeyfilePath@CipherShed@@@std@@@std@@@01@@Z PROC ; CipherShed::ForEach::GetContainerForward<std::list<CipherShed::SecurityTokenKeyfilePath,std::allocator<CipherShed::SecurityTokenKeyfilePath> > >, COMDAT

; 96   : 			return static_cast <const ContainerForward <T> &> (forEachContainer);

  00000	8b 44 24 04	 mov	 eax, DWORD PTR _forEachContainer$[esp-4]

; 97   : 		}

  00004	c3		 ret	 0
??$GetContainerForward@V?$list@USecurityTokenKeyfilePath@CipherShed@@V?$allocator@USecurityTokenKeyfilePath@CipherShed@@@std@@@std@@@ForEach@CipherShed@@SAABU?$ContainerForward@V?$list@USecurityTokenKeyfilePath@CipherShed@@V?$allocator@USecurityTokenKeyfilePath@CipherShed@@@std@@@std@@@01@ABUContainer@01@ABU?$TypeWrapper@V?$list@USecurityTokenKeyfilePath@CipherShed@@V?$allocator@USecurityTokenKeyfilePath@CipherShed@@@std@@@std@@@01@@Z ENDP ; CipherShed::ForEach::GetContainerForward<std::list<CipherShed::SecurityTokenKeyfilePath,std::allocator<CipherShed::SecurityTokenKeyfilePath> > >
_TEXT	ENDS
PUBLIC	??$?0E@?$allocator@V_Aux_cont@std@@@std@@QAE@ABV?$allocator@E@1@@Z ; std::allocator<std::_Aux_cont>::allocator<std::_Aux_cont><unsigned char>
; Function compile flags: /Ogtpy
; File c:\program files (x86)\microsoft visual studio 9.0\vc\include\xmemory
;	COMDAT ??$?0E@?$allocator@V_Aux_cont@std@@@std@@QAE@ABV?$allocator@E@1@@Z
_TEXT	SEGMENT
___formal$ = 8						; size = 4
??$?0E@?$allocator@V_Aux_cont@std@@@std@@QAE@ABV?$allocator@E@1@@Z PROC ; std::allocator<std::_Aux_cont>::allocator<std::_Aux_cont><unsigned char>, COMDAT
; _this$ = ecx

; 128  : 		allocator(const allocator<_Other>&) _THROW0()

  00000	8b c1		 mov	 eax, ecx

; 129  : 		{	// construct from a related allocator (do nothing)
; 130  : 		}

  00002	c2 04 00	 ret	 4
??$?0E@?$allocator@V_Aux_cont@std@@@std@@QAE@ABV?$allocator@E@1@@Z ENDP ; std::allocator<std::_Aux_cont>::allocator<std::_Aux_cont><unsigned char>
_TEXT	ENDS
PUBLIC	__TI2?AVbad_alloc@std@@
PUBLIC	??$_Allocate@E@std@@YAPAEIPAE@Z			; std::_Allocate<unsigned char>
PUBLIC	__CTA2?AVbad_alloc@std@@
PUBLIC	__CT??_R0?AVbad_alloc@std@@@8??0bad_alloc@std@@QAE@ABV01@@Z12
PUBLIC	??0bad_alloc@std@@QAE@ABV01@@Z			; std::bad_alloc::bad_alloc
PUBLIC	__CT??_R0?AVexception@std@@@8??0exception@std@@QAE@ABV01@@Z12
EXTRN	??2@YAPAXI@Z:PROC				; operator new
EXTRN	__CxxThrowException@8:PROC
EXTRN	??0exception@std@@QAE@ABV01@@Z:PROC		; std::exception::exception
;	COMDAT __CT??_R0?AVexception@std@@@8??0exception@std@@QAE@ABV01@@Z12
; File c:\program files (x86)\microsoft visual studio 9.0\vc\include\exception
xdata$x	SEGMENT
__CT??_R0?AVexception@std@@@8??0exception@std@@QAE@ABV01@@Z12 DD 00H
	DD	FLAT:??_R0?AVexception@std@@@8
	DD	00H
	DD	0ffffffffH
	ORG $+4
	DD	0cH
	DD	FLAT:??0exception@std@@QAE@ABV01@@Z
xdata$x	ENDS
;	COMDAT __CT??_R0?AVbad_alloc@std@@@8??0bad_alloc@std@@QAE@ABV01@@Z12
xdata$x	SEGMENT
__CT??_R0?AVbad_alloc@std@@@8??0bad_alloc@std@@QAE@ABV01@@Z12 DD 00H
	DD	FLAT:??_R0?AVbad_alloc@std@@@8
	DD	00H
	DD	0ffffffffH
	ORG $+4
	DD	0cH
	DD	FLAT:??0bad_alloc@std@@QAE@ABV01@@Z
xdata$x	ENDS
;	COMDAT __CTA2?AVbad_alloc@std@@
xdata$x	SEGMENT
__CTA2?AVbad_alloc@std@@ DD 02H
	DD	FLAT:__CT??_R0?AVbad_alloc@std@@@8??0bad_alloc@std@@QAE@ABV01@@Z12
	DD	FLAT:__CT??_R0?AVexception@std@@@8??0exception@std@@QAE@ABV01@@Z12
xdata$x	ENDS
;	COMDAT __TI2?AVbad_alloc@std@@
xdata$x	SEGMENT
__TI2?AVbad_alloc@std@@ DD 00H
	DD	FLAT:??1bad_alloc@std@@UAE@XZ
	DD	00H
	DD	FLAT:__CTA2?AVbad_alloc@std@@
; Function compile flags: /Ogtpy
; File c:\program files (x86)\microsoft visual studio 9.0\vc\include\xmemory
xdata$x	ENDS
;	COMDAT ??$_Allocate@E@std@@YAPAEIPAE@Z
_TEXT	SEGMENT
$T123715 = -12						; size = 12
$T123720 = 8						; size = 4
__Count$ = 8						; size = 4
___formal$ = 12						; size = 4
??$_Allocate@E@std@@YAPAEIPAE@Z PROC			; std::_Allocate<unsigned char>, COMDAT

; 37   : 	if (_Count <= 0)

  00000	8b 4c 24 04	 mov	 ecx, DWORD PTR __Count$[esp-4]
  00004	83 ec 0c	 sub	 esp, 12			; 0000000cH
  00007	85 c9		 test	 ecx, ecx
  00009	77 0f		 ja	 SHORT $LN3@Allocate

; 38   : 		_Count = 0;

  0000b	33 c9		 xor	 ecx, ecx
$LN1@Allocate:

; 41   : 
; 42   : 		// allocate storage for _Count elements of type _Ty
; 43   : 	return ((_Ty _FARQ *)::operator new(_Count * sizeof (_Ty)));

  0000d	51		 push	 ecx
  0000e	e8 00 00 00 00	 call	 ??2@YAPAXI@Z		; operator new
  00013	83 c4 04	 add	 esp, 4

; 44   : 	}

  00016	83 c4 0c	 add	 esp, 12			; 0000000cH
  00019	c3		 ret	 0
$LN3@Allocate:

; 39   : 	else if (((_SIZT)(-1) / _Count) < sizeof (_Ty))

  0001a	83 c8 ff	 or	 eax, -1
  0001d	33 d2		 xor	 edx, edx
  0001f	f7 f1		 div	 ecx
  00021	83 f8 01	 cmp	 eax, 1
  00024	73 e7		 jae	 SHORT $LN1@Allocate

; 40   : 		_THROW_NCEE(std::bad_alloc, NULL);

  00026	8d 44 24 10	 lea	 eax, DWORD PTR $T123720[esp+8]
  0002a	50		 push	 eax
  0002b	8d 4c 24 04	 lea	 ecx, DWORD PTR $T123715[esp+16]
  0002f	c7 44 24 14 00
	00 00 00	 mov	 DWORD PTR $T123720[esp+12], 0
  00037	e8 00 00 00 00	 call	 ??0exception@std@@QAE@ABQBD@Z ; std::exception::exception
  0003c	68 00 00 00 00	 push	 OFFSET __TI2?AVbad_alloc@std@@
  00041	8d 4c 24 04	 lea	 ecx, DWORD PTR $T123715[esp+16]
  00045	51		 push	 ecx
  00046	c7 44 24 08 00
	00 00 00	 mov	 DWORD PTR $T123715[esp+20], OFFSET ??_7bad_alloc@std@@6B@
  0004e	e8 00 00 00 00	 call	 __CxxThrowException@8
$LN8@Allocate:
  00053	cc		 int	 3
??$_Allocate@E@std@@YAPAEIPAE@Z ENDP			; std::_Allocate<unsigned char>
_TEXT	ENDS
PUBLIC	??$?0USecurityTokenKeyfilePath@CipherShed@@@?$allocator@PAU_Node@?$_List_nod@USecurityTokenKeyfilePath@CipherShed@@V?$allocator@USecurityTokenKeyfilePath@CipherShed@@@std@@@std@@@std@@QAE@ABV?$allocator@USecurityTokenKeyfilePath@CipherShed@@@1@@Z ; std::allocator<std::_List_nod<CipherShed::SecurityTokenKeyfilePath,std::allocator<CipherShed::SecurityTokenKeyfilePath> >::_Node *>::allocator<std::_List_nod<CipherShed::SecurityTokenKeyfilePath,std::allocator<CipherShed::SecurityTokenKeyfilePath> >::_Node *><CipherShed::SecurityTokenKeyfilePath>
; Function compile flags: /Ogtpy
;	COMDAT ??$?0USecurityTokenKeyfilePath@CipherShed@@@?$allocator@PAU_Node@?$_List_nod@USecurityTokenKeyfilePath@CipherShed@@V?$allocator@USecurityTokenKeyfilePath@CipherShed@@@std@@@std@@@std@@QAE@ABV?$allocator@USecurityTokenKeyfilePath@CipherShed@@@1@@Z
_TEXT	SEGMENT
___formal$ = 8						; size = 4
??$?0USecurityTokenKeyfilePath@CipherShed@@@?$allocator@PAU_Node@?$_List_nod@USecurityTokenKeyfilePath@CipherShed@@V?$allocator@USecurityTokenKeyfilePath@CipherShed@@@std@@@std@@@std@@QAE@ABV?$allocator@USecurityTokenKeyfilePath@CipherShed@@@1@@Z PROC ; std::allocator<std::_List_nod<CipherShed::SecurityTokenKeyfilePath,std::allocator<CipherShed::SecurityTokenKeyfilePath> >::_Node *>::allocator<std::_List_nod<CipherShed::SecurityTokenKeyfilePath,std::allocator<CipherShed::SecurityTokenKeyfilePath> >::_Node *><CipherShed::SecurityTokenKeyfilePath>, COMDAT
; _this$ = ecx

; 128  : 		allocator(const allocator<_Other>&) _THROW0()

  00000	8b c1		 mov	 eax, ecx

; 129  : 		{	// construct from a related allocator (do nothing)
; 130  : 		}

  00002	c2 04 00	 ret	 4
??$?0USecurityTokenKeyfilePath@CipherShed@@@?$allocator@PAU_Node@?$_List_nod@USecurityTokenKeyfilePath@CipherShed@@V?$allocator@USecurityTokenKeyfilePath@CipherShed@@@std@@@std@@@std@@QAE@ABV?$allocator@USecurityTokenKeyfilePath@CipherShed@@@1@@Z ENDP ; std::allocator<std::_List_nod<CipherShed::SecurityTokenKeyfilePath,std::allocator<CipherShed::SecurityTokenKeyfilePath> >::_Node *>::allocator<std::_List_nod<CipherShed::SecurityTokenKeyfilePath,std::allocator<CipherShed::SecurityTokenKeyfilePath> >::_Node *><CipherShed::SecurityTokenKeyfilePath>
_TEXT	ENDS
PUBLIC	??$_Allocate@U_Node@?$_List_nod@USecurityTokenKeyfilePath@CipherShed@@V?$allocator@USecurityTokenKeyfilePath@CipherShed@@@std@@@std@@@std@@YAPAU_Node@?$_List_nod@USecurityTokenKeyfilePath@CipherShed@@V?$allocator@USecurityTokenKeyfilePath@CipherShed@@@std@@@0@IPAU120@@Z ; std::_Allocate<std::_List_nod<CipherShed::SecurityTokenKeyfilePath,std::allocator<CipherShed::SecurityTokenKeyfilePath> >::_Node>
; Function compile flags: /Ogtpy
;	COMDAT ??$_Allocate@U_Node@?$_List_nod@USecurityTokenKeyfilePath@CipherShed@@V?$allocator@USecurityTokenKeyfilePath@CipherShed@@@std@@@std@@@std@@YAPAU_Node@?$_List_nod@USecurityTokenKeyfilePath@CipherShed@@V?$allocator@USecurityTokenKeyfilePath@CipherShed@@@std@@@0@IPAU120@@Z
_TEXT	SEGMENT
$T123726 = -12						; size = 12
$T123730 = 8						; size = 4
__Count$ = 8						; size = 4
___formal$ = 12						; size = 4
??$_Allocate@U_Node@?$_List_nod@USecurityTokenKeyfilePath@CipherShed@@V?$allocator@USecurityTokenKeyfilePath@CipherShed@@@std@@@std@@@std@@YAPAU_Node@?$_List_nod@USecurityTokenKeyfilePath@CipherShed@@V?$allocator@USecurityTokenKeyfilePath@CipherShed@@@std@@@0@IPAU120@@Z PROC ; std::_Allocate<std::_List_nod<CipherShed::SecurityTokenKeyfilePath,std::allocator<CipherShed::SecurityTokenKeyfilePath> >::_Node>, COMDAT

; 37   : 	if (_Count <= 0)

  00000	8b 4c 24 04	 mov	 ecx, DWORD PTR __Count$[esp-4]
  00004	83 ec 0c	 sub	 esp, 12			; 0000000cH
  00007	85 c9		 test	 ecx, ecx
  00009	77 16		 ja	 SHORT $LN3@Allocate@2

; 38   : 		_Count = 0;

  0000b	33 c9		 xor	 ecx, ecx
$LN1@Allocate@2:

; 41   : 
; 42   : 		// allocate storage for _Count elements of type _Ty
; 43   : 	return ((_Ty _FARQ *)::operator new(_Count * sizeof (_Ty)));

  0000d	8d 14 c9	 lea	 edx, DWORD PTR [ecx+ecx*8]
  00010	03 d2		 add	 edx, edx
  00012	03 d2		 add	 edx, edx
  00014	52		 push	 edx
  00015	e8 00 00 00 00	 call	 ??2@YAPAXI@Z		; operator new
  0001a	83 c4 04	 add	 esp, 4

; 44   : 	}

  0001d	83 c4 0c	 add	 esp, 12			; 0000000cH
  00020	c3		 ret	 0
$LN3@Allocate@2:

; 39   : 	else if (((_SIZT)(-1) / _Count) < sizeof (_Ty))

  00021	83 c8 ff	 or	 eax, -1
  00024	33 d2		 xor	 edx, edx
  00026	f7 f1		 div	 ecx
  00028	83 f8 24	 cmp	 eax, 36			; 00000024H
  0002b	73 e0		 jae	 SHORT $LN1@Allocate@2

; 40   : 		_THROW_NCEE(std::bad_alloc, NULL);

  0002d	8d 44 24 10	 lea	 eax, DWORD PTR $T123730[esp+8]
  00031	50		 push	 eax
  00032	8d 4c 24 04	 lea	 ecx, DWORD PTR $T123726[esp+16]
  00036	c7 44 24 14 00
	00 00 00	 mov	 DWORD PTR $T123730[esp+12], 0
  0003e	e8 00 00 00 00	 call	 ??0exception@std@@QAE@ABQBD@Z ; std::exception::exception
  00043	68 00 00 00 00	 push	 OFFSET __TI2?AVbad_alloc@std@@
  00048	8d 4c 24 04	 lea	 ecx, DWORD PTR $T123726[esp+16]
  0004c	51		 push	 ecx
  0004d	c7 44 24 08 00
	00 00 00	 mov	 DWORD PTR $T123726[esp+20], OFFSET ??_7bad_alloc@std@@6B@
  00055	e8 00 00 00 00	 call	 __CxxThrowException@8
$LN8@Allocate@2:
  0005a	cc		 int	 3
??$_Allocate@U_Node@?$_List_nod@USecurityTokenKeyfilePath@CipherShed@@V?$allocator@USecurityTokenKeyfilePath@CipherShed@@@std@@@std@@@std@@YAPAU_Node@?$_List_nod@USecurityTokenKeyfilePath@CipherShed@@V?$allocator@USecurityTokenKeyfilePath@CipherShed@@@std@@@0@IPAU120@@Z ENDP ; std::_Allocate<std::_List_nod<CipherShed::SecurityTokenKeyfilePath,std::allocator<CipherShed::SecurityTokenKeyfilePath> >::_Node>
_TEXT	ENDS
PUBLIC	??$_Construct@PAU_Node@?$_List_nod@USecurityTokenKeyfilePath@CipherShed@@V?$allocator@USecurityTokenKeyfilePath@CipherShed@@@std@@@std@@PAU123@@std@@YAXPAPAU_Node@?$_List_nod@USecurityTokenKeyfilePath@CipherShed@@V?$allocator@USecurityTokenKeyfilePath@CipherShed@@@std@@@0@ABQAU120@@Z ; std::_Construct<std::_List_nod<CipherShed::SecurityTokenKeyfilePath,std::allocator<CipherShed::SecurityTokenKeyfilePath> >::_Node *,std::_List_nod<CipherShed::SecurityTokenKeyfilePath,std::allocator<CipherShed::SecurityTokenKeyfilePath> >::_Node *>
; Function compile flags: /Ogtpy
;	COMDAT ??$_Construct@PAU_Node@?$_List_nod@USecurityTokenKeyfilePath@CipherShed@@V?$allocator@USecurityTokenKeyfilePath@CipherShed@@@std@@@std@@PAU123@@std@@YAXPAPAU_Node@?$_List_nod@USecurityTokenKeyfilePath@CipherShed@@V?$allocator@USecurityTokenKeyfilePath@CipherShed@@@std@@@0@ABQAU120@@Z
_TEXT	SEGMENT
__Ptr$ = 8						; size = 4
__Val$ = 12						; size = 4
??$_Construct@PAU_Node@?$_List_nod@USecurityTokenKeyfilePath@CipherShed@@V?$allocator@USecurityTokenKeyfilePath@CipherShed@@@std@@@std@@PAU123@@std@@YAXPAPAU_Node@?$_List_nod@USecurityTokenKeyfilePath@CipherShed@@V?$allocator@USecurityTokenKeyfilePath@CipherShed@@@std@@@0@ABQAU120@@Z PROC ; std::_Construct<std::_List_nod<CipherShed::SecurityTokenKeyfilePath,std::allocator<CipherShed::SecurityTokenKeyfilePath> >::_Node *,std::_List_nod<CipherShed::SecurityTokenKeyfilePath,std::allocator<CipherShed::SecurityTokenKeyfilePath> >::_Node *>, COMDAT

; 51   : 	void _FARQ *_Vptr = _Ptr;
; 52   : 	::new (_Vptr) _T1(_Val);

  00000	8b 44 24 04	 mov	 eax, DWORD PTR __Ptr$[esp-4]
  00004	85 c0		 test	 eax, eax
  00006	74 08		 je	 SHORT $LN3@Construct
  00008	8b 4c 24 08	 mov	 ecx, DWORD PTR __Val$[esp-4]
  0000c	8b 11		 mov	 edx, DWORD PTR [ecx]
  0000e	89 10		 mov	 DWORD PTR [eax], edx
$LN3@Construct:

; 53   : 	}

  00010	c3		 ret	 0
??$_Construct@PAU_Node@?$_List_nod@USecurityTokenKeyfilePath@CipherShed@@V?$allocator@USecurityTokenKeyfilePath@CipherShed@@@std@@@std@@PAU123@@std@@YAXPAPAU_Node@?$_List_nod@USecurityTokenKeyfilePath@CipherShed@@V?$allocator@USecurityTokenKeyfilePath@CipherShed@@@std@@@0@ABQAU120@@Z ENDP ; std::_Construct<std::_List_nod<CipherShed::SecurityTokenKeyfilePath,std::allocator<CipherShed::SecurityTokenKeyfilePath> >::_Node *,std::_List_nod<CipherShed::SecurityTokenKeyfilePath,std::allocator<CipherShed::SecurityTokenKeyfilePath> >::_Node *>
_TEXT	ENDS
PUBLIC	??$_Destroy@PAU_Node@?$_List_nod@USecurityTokenKeyfilePath@CipherShed@@V?$allocator@USecurityTokenKeyfilePath@CipherShed@@@std@@@std@@@std@@YAXPAPAU_Node@?$_List_nod@USecurityTokenKeyfilePath@CipherShed@@V?$allocator@USecurityTokenKeyfilePath@CipherShed@@@std@@@0@@Z ; std::_Destroy<std::_List_nod<CipherShed::SecurityTokenKeyfilePath,std::allocator<CipherShed::SecurityTokenKeyfilePath> >::_Node *>
; Function compile flags: /Ogtpy
;	COMDAT ??$_Destroy@PAU_Node@?$_List_nod@USecurityTokenKeyfilePath@CipherShed@@V?$allocator@USecurityTokenKeyfilePath@CipherShed@@@std@@@std@@@std@@YAXPAPAU_Node@?$_List_nod@USecurityTokenKeyfilePath@CipherShed@@V?$allocator@USecurityTokenKeyfilePath@CipherShed@@@std@@@0@@Z
_TEXT	SEGMENT
__Ptr$ = 8						; size = 4
??$_Destroy@PAU_Node@?$_List_nod@USecurityTokenKeyfilePath@CipherShed@@V?$allocator@USecurityTokenKeyfilePath@CipherShed@@@std@@@std@@@std@@YAXPAPAU_Node@?$_List_nod@USecurityTokenKeyfilePath@CipherShed@@V?$allocator@USecurityTokenKeyfilePath@CipherShed@@@std@@@0@@Z PROC ; std::_Destroy<std::_List_nod<CipherShed::SecurityTokenKeyfilePath,std::allocator<CipherShed::SecurityTokenKeyfilePath> >::_Node *>, COMDAT

; 59   : 	_DESTRUCTOR(_Ty, _Ptr);
; 60   : 	}

  00000	c3		 ret	 0
??$_Destroy@PAU_Node@?$_List_nod@USecurityTokenKeyfilePath@CipherShed@@V?$allocator@USecurityTokenKeyfilePath@CipherShed@@@std@@@std@@@std@@YAXPAPAU_Node@?$_List_nod@USecurityTokenKeyfilePath@CipherShed@@V?$allocator@USecurityTokenKeyfilePath@CipherShed@@@std@@@0@@Z ENDP ; std::_Destroy<std::_List_nod<CipherShed::SecurityTokenKeyfilePath,std::allocator<CipherShed::SecurityTokenKeyfilePath> >::_Node *>
_TEXT	ENDS
PUBLIC	??$_Allocate@V_Aux_cont@std@@@std@@YAPAV_Aux_cont@0@IPAV10@@Z ; std::_Allocate<std::_Aux_cont>
; Function compile flags: /Ogtpy
;	COMDAT ??$_Allocate@V_Aux_cont@std@@@std@@YAPAV_Aux_cont@0@IPAV10@@Z
_TEXT	SEGMENT
$T123744 = -12						; size = 12
$T123748 = 8						; size = 4
__Count$ = 8						; size = 4
___formal$ = 12						; size = 4
??$_Allocate@V_Aux_cont@std@@@std@@YAPAV_Aux_cont@0@IPAV10@@Z PROC ; std::_Allocate<std::_Aux_cont>, COMDAT

; 37   : 	if (_Count <= 0)

  00000	8b 4c 24 04	 mov	 ecx, DWORD PTR __Count$[esp-4]
  00004	83 ec 0c	 sub	 esp, 12			; 0000000cH
  00007	85 c9		 test	 ecx, ecx
  00009	77 16		 ja	 SHORT $LN3@Allocate@3

; 38   : 		_Count = 0;

  0000b	33 c9		 xor	 ecx, ecx
$LN1@Allocate@3:

; 41   : 
; 42   : 		// allocate storage for _Count elements of type _Ty
; 43   : 	return ((_Ty _FARQ *)::operator new(_Count * sizeof (_Ty)));

  0000d	8d 14 8d 00 00
	00 00		 lea	 edx, DWORD PTR [ecx*4]
  00014	52		 push	 edx
  00015	e8 00 00 00 00	 call	 ??2@YAPAXI@Z		; operator new
  0001a	83 c4 04	 add	 esp, 4

; 44   : 	}

  0001d	83 c4 0c	 add	 esp, 12			; 0000000cH
  00020	c3		 ret	 0
$LN3@Allocate@3:

; 39   : 	else if (((_SIZT)(-1) / _Count) < sizeof (_Ty))

  00021	83 c8 ff	 or	 eax, -1
  00024	33 d2		 xor	 edx, edx
  00026	f7 f1		 div	 ecx
  00028	83 f8 04	 cmp	 eax, 4
  0002b	73 e0		 jae	 SHORT $LN1@Allocate@3

; 40   : 		_THROW_NCEE(std::bad_alloc, NULL);

  0002d	8d 44 24 10	 lea	 eax, DWORD PTR $T123748[esp+8]
  00031	50		 push	 eax
  00032	8d 4c 24 04	 lea	 ecx, DWORD PTR $T123744[esp+16]
  00036	c7 44 24 14 00
	00 00 00	 mov	 DWORD PTR $T123748[esp+12], 0
  0003e	e8 00 00 00 00	 call	 ??0exception@std@@QAE@ABQBD@Z ; std::exception::exception
  00043	68 00 00 00 00	 push	 OFFSET __TI2?AVbad_alloc@std@@
  00048	8d 4c 24 04	 lea	 ecx, DWORD PTR $T123744[esp+16]
  0004c	51		 push	 ecx
  0004d	c7 44 24 08 00
	00 00 00	 mov	 DWORD PTR $T123744[esp+20], OFFSET ??_7bad_alloc@std@@6B@
  00055	e8 00 00 00 00	 call	 __CxxThrowException@8
$LN8@Allocate@3:
  0005a	cc		 int	 3
??$_Allocate@V_Aux_cont@std@@@std@@YAPAV_Aux_cont@0@IPAV10@@Z ENDP ; std::_Allocate<std::_Aux_cont>
_TEXT	ENDS
PUBLIC	??$?0USecurityTokenKeyfilePath@CipherShed@@@?$allocator@U_Node@?$_List_nod@USecurityTokenKeyfilePath@CipherShed@@V?$allocator@USecurityTokenKeyfilePath@CipherShed@@@std@@@std@@@std@@QAE@ABV?$allocator@USecurityTokenKeyfilePath@CipherShed@@@1@@Z ; std::allocator<std::_List_nod<CipherShed::SecurityTokenKeyfilePath,std::allocator<CipherShed::SecurityTokenKeyfilePath> >::_Node>::allocator<std::_List_nod<CipherShed::SecurityTokenKeyfilePath,std::allocator<CipherShed::SecurityTokenKeyfilePath> >::_Node><CipherShed::SecurityTokenKeyfilePath>
; Function compile flags: /Ogtpy
;	COMDAT ??$?0USecurityTokenKeyfilePath@CipherShed@@@?$allocator@U_Node@?$_List_nod@USecurityTokenKeyfilePath@CipherShed@@V?$allocator@USecurityTokenKeyfilePath@CipherShed@@@std@@@std@@@std@@QAE@ABV?$allocator@USecurityTokenKeyfilePath@CipherShed@@@1@@Z
_TEXT	SEGMENT
___formal$ = 8						; size = 4
??$?0USecurityTokenKeyfilePath@CipherShed@@@?$allocator@U_Node@?$_List_nod@USecurityTokenKeyfilePath@CipherShed@@V?$allocator@USecurityTokenKeyfilePath@CipherShed@@@std@@@std@@@std@@QAE@ABV?$allocator@USecurityTokenKeyfilePath@CipherShed@@@1@@Z PROC ; std::allocator<std::_List_nod<CipherShed::SecurityTokenKeyfilePath,std::allocator<CipherShed::SecurityTokenKeyfilePath> >::_Node>::allocator<std::_List_nod<CipherShed::SecurityTokenKeyfilePath,std::allocator<CipherShed::SecurityTokenKeyfilePath> >::_Node><CipherShed::SecurityTokenKeyfilePath>, COMDAT
; _this$ = ecx

; 128  : 		allocator(const allocator<_Other>&) _THROW0()

  00000	8b c1		 mov	 eax, ecx

; 129  : 		{	// construct from a related allocator (do nothing)
; 130  : 		}

  00002	c2 04 00	 ret	 4
??$?0USecurityTokenKeyfilePath@CipherShed@@@?$allocator@U_Node@?$_List_nod@USecurityTokenKeyfilePath@CipherShed@@V?$allocator@USecurityTokenKeyfilePath@CipherShed@@@std@@@std@@@std@@QAE@ABV?$allocator@USecurityTokenKeyfilePath@CipherShed@@@1@@Z ENDP ; std::allocator<std::_List_nod<CipherShed::SecurityTokenKeyfilePath,std::allocator<CipherShed::SecurityTokenKeyfilePath> >::_Node>::allocator<std::_List_nod<CipherShed::SecurityTokenKeyfilePath,std::allocator<CipherShed::SecurityTokenKeyfilePath> >::_Node><CipherShed::SecurityTokenKeyfilePath>
_TEXT	ENDS
PUBLIC	??$_Allocate@D@std@@YAPADIPAD@Z			; std::_Allocate<char>
; Function compile flags: /Ogtpy
;	COMDAT ??$_Allocate@D@std@@YAPADIPAD@Z
_TEXT	SEGMENT
$T123754 = -12						; size = 12
$T123758 = 8						; size = 4
__Count$ = 8						; size = 4
___formal$ = 12						; size = 4
??$_Allocate@D@std@@YAPADIPAD@Z PROC			; std::_Allocate<char>, COMDAT

; 37   : 	if (_Count <= 0)

  00000	8b 4c 24 04	 mov	 ecx, DWORD PTR __Count$[esp-4]
  00004	83 ec 0c	 sub	 esp, 12			; 0000000cH
  00007	85 c9		 test	 ecx, ecx
  00009	77 0f		 ja	 SHORT $LN3@Allocate@4

; 38   : 		_Count = 0;

  0000b	33 c9		 xor	 ecx, ecx
$LN1@Allocate@4:

; 41   : 
; 42   : 		// allocate storage for _Count elements of type _Ty
; 43   : 	return ((_Ty _FARQ *)::operator new(_Count * sizeof (_Ty)));

  0000d	51		 push	 ecx
  0000e	e8 00 00 00 00	 call	 ??2@YAPAXI@Z		; operator new
  00013	83 c4 04	 add	 esp, 4

; 44   : 	}

  00016	83 c4 0c	 add	 esp, 12			; 0000000cH
  00019	c3		 ret	 0
$LN3@Allocate@4:

; 39   : 	else if (((_SIZT)(-1) / _Count) < sizeof (_Ty))

  0001a	83 c8 ff	 or	 eax, -1
  0001d	33 d2		 xor	 edx, edx
  0001f	f7 f1		 div	 ecx
  00021	83 f8 01	 cmp	 eax, 1
  00024	73 e7		 jae	 SHORT $LN1@Allocate@4

; 40   : 		_THROW_NCEE(std::bad_alloc, NULL);

  00026	8d 44 24 10	 lea	 eax, DWORD PTR $T123758[esp+8]
  0002a	50		 push	 eax
  0002b	8d 4c 24 04	 lea	 ecx, DWORD PTR $T123754[esp+16]
  0002f	c7 44 24 14 00
	00 00 00	 mov	 DWORD PTR $T123758[esp+12], 0
  00037	e8 00 00 00 00	 call	 ??0exception@std@@QAE@ABQBD@Z ; std::exception::exception
  0003c	68 00 00 00 00	 push	 OFFSET __TI2?AVbad_alloc@std@@
  00041	8d 4c 24 04	 lea	 ecx, DWORD PTR $T123754[esp+16]
  00045	51		 push	 ecx
  00046	c7 44 24 08 00
	00 00 00	 mov	 DWORD PTR $T123754[esp+20], OFFSET ??_7bad_alloc@std@@6B@
  0004e	e8 00 00 00 00	 call	 __CxxThrowException@8
$LN8@Allocate@4:
  00053	cc		 int	 3
??$_Allocate@D@std@@YAPADIPAD@Z ENDP			; std::_Allocate<char>
_TEXT	ENDS
PUBLIC	??$_Allocate@_W@std@@YAPA_WIPA_W@Z		; std::_Allocate<wchar_t>
; Function compile flags: /Ogtpy
;	COMDAT ??$_Allocate@_W@std@@YAPA_WIPA_W@Z
_TEXT	SEGMENT
$T123762 = -12						; size = 12
$T123766 = 8						; size = 4
__Count$ = 8						; size = 4
___formal$ = 12						; size = 4
??$_Allocate@_W@std@@YAPA_WIPA_W@Z PROC			; std::_Allocate<wchar_t>, COMDAT

; 37   : 	if (_Count <= 0)

  00000	8b 4c 24 04	 mov	 ecx, DWORD PTR __Count$[esp-4]
  00004	83 ec 0c	 sub	 esp, 12			; 0000000cH
  00007	85 c9		 test	 ecx, ecx
  00009	77 12		 ja	 SHORT $LN3@Allocate@5

; 38   : 		_Count = 0;

  0000b	33 c9		 xor	 ecx, ecx
$LN1@Allocate@5:

; 41   : 
; 42   : 		// allocate storage for _Count elements of type _Ty
; 43   : 	return ((_Ty _FARQ *)::operator new(_Count * sizeof (_Ty)));

  0000d	8d 14 09	 lea	 edx, DWORD PTR [ecx+ecx]
  00010	52		 push	 edx
  00011	e8 00 00 00 00	 call	 ??2@YAPAXI@Z		; operator new
  00016	83 c4 04	 add	 esp, 4

; 44   : 	}

  00019	83 c4 0c	 add	 esp, 12			; 0000000cH
  0001c	c3		 ret	 0
$LN3@Allocate@5:

; 39   : 	else if (((_SIZT)(-1) / _Count) < sizeof (_Ty))

  0001d	83 c8 ff	 or	 eax, -1
  00020	33 d2		 xor	 edx, edx
  00022	f7 f1		 div	 ecx
  00024	83 f8 02	 cmp	 eax, 2
  00027	73 e4		 jae	 SHORT $LN1@Allocate@5

; 40   : 		_THROW_NCEE(std::bad_alloc, NULL);

  00029	8d 44 24 10	 lea	 eax, DWORD PTR $T123766[esp+8]
  0002d	50		 push	 eax
  0002e	8d 4c 24 04	 lea	 ecx, DWORD PTR $T123762[esp+16]
  00032	c7 44 24 14 00
	00 00 00	 mov	 DWORD PTR $T123766[esp+12], 0
  0003a	e8 00 00 00 00	 call	 ??0exception@std@@QAE@ABQBD@Z ; std::exception::exception
  0003f	68 00 00 00 00	 push	 OFFSET __TI2?AVbad_alloc@std@@
  00044	8d 4c 24 04	 lea	 ecx, DWORD PTR $T123762[esp+16]
  00048	51		 push	 ecx
  00049	c7 44 24 08 00
	00 00 00	 mov	 DWORD PTR $T123762[esp+20], OFFSET ??_7bad_alloc@std@@6B@
  00051	e8 00 00 00 00	 call	 __CxxThrowException@8
$LN8@Allocate@5:
  00056	cc		 int	 3
??$_Allocate@_W@std@@YAPA_WIPA_W@Z ENDP			; std::_Allocate<wchar_t>
_TEXT	ENDS
PUBLIC	??$?0USecurityTokenKeyfilePath@CipherShed@@@?$allocator@V_Aux_cont@std@@@std@@QAE@ABV?$allocator@USecurityTokenKeyfilePath@CipherShed@@@1@@Z ; std::allocator<std::_Aux_cont>::allocator<std::_Aux_cont><CipherShed::SecurityTokenKeyfilePath>
; Function compile flags: /Ogtpy
;	COMDAT ??$?0USecurityTokenKeyfilePath@CipherShed@@@?$allocator@V_Aux_cont@std@@@std@@QAE@ABV?$allocator@USecurityTokenKeyfilePath@CipherShed@@@1@@Z
_TEXT	SEGMENT
___formal$ = 8						; size = 4
??$?0USecurityTokenKeyfilePath@CipherShed@@@?$allocator@V_Aux_cont@std@@@std@@QAE@ABV?$allocator@USecurityTokenKeyfilePath@CipherShed@@@1@@Z PROC ; std::allocator<std::_Aux_cont>::allocator<std::_Aux_cont><CipherShed::SecurityTokenKeyfilePath>, COMDAT
; _this$ = ecx

; 128  : 		allocator(const allocator<_Other>&) _THROW0()

  00000	8b c1		 mov	 eax, ecx

; 129  : 		{	// construct from a related allocator (do nothing)
; 130  : 		}

  00002	c2 04 00	 ret	 4
??$?0USecurityTokenKeyfilePath@CipherShed@@@?$allocator@V_Aux_cont@std@@@std@@QAE@ABV?$allocator@USecurityTokenKeyfilePath@CipherShed@@@1@@Z ENDP ; std::allocator<std::_Aux_cont>::allocator<std::_Aux_cont><CipherShed::SecurityTokenKeyfilePath>
; Function compile flags: /Ogtpy
_TEXT	ENDS
;	COMDAT ??0bad_alloc@std@@QAE@ABV01@@Z
_TEXT	SEGMENT
___that$ = 8						; size = 4
??0bad_alloc@std@@QAE@ABV01@@Z PROC			; std::bad_alloc::bad_alloc, COMDAT
; _this$ = ecx
  00000	8b 44 24 04	 mov	 eax, DWORD PTR ___that$[esp-4]
  00004	56		 push	 esi
  00005	50		 push	 eax
  00006	8b f1		 mov	 esi, ecx
  00008	e8 00 00 00 00	 call	 ??0exception@std@@QAE@ABV01@@Z ; std::exception::exception
  0000d	c7 06 00 00 00
	00		 mov	 DWORD PTR [esi], OFFSET ??_7bad_alloc@std@@6B@
  00013	8b c6		 mov	 eax, esi
  00015	5e		 pop	 esi
  00016	c2 04 00	 ret	 4
??0bad_alloc@std@@QAE@ABV01@@Z ENDP			; std::bad_alloc::bad_alloc
_TEXT	ENDS
PUBLIC	??0?$_Iterator_with_base@Ubidirectional_iterator_tag@std@@USecurityTokenKeyfilePath@CipherShed@@HPBU34@ABU34@V_Iterator_base_aux@2@@std@@QAE@XZ ; std::_Iterator_with_base<std::bidirectional_iterator_tag,CipherShed::SecurityTokenKeyfilePath,int,CipherShed::SecurityTokenKeyfilePath const *,CipherShed::SecurityTokenKeyfilePath const &,std::_Iterator_base_aux>::_Iterator_with_base<std::bidirectional_iterator_tag,CipherShed::SecurityTokenKeyfilePath,int,CipherShed::SecurityTokenKeyfilePath const *,CipherShed::SecurityTokenKeyfilePath const &,std::_Iterator_base_aux>
; Function compile flags: /Ogtpy
;	COMDAT ??0?$_Iterator_with_base@Ubidirectional_iterator_tag@std@@USecurityTokenKeyfilePath@CipherShed@@HPBU34@ABU34@V_Iterator_base_aux@2@@std@@QAE@XZ
_TEXT	SEGMENT
??0?$_Iterator_with_base@Ubidirectional_iterator_tag@std@@USecurityTokenKeyfilePath@CipherShed@@HPBU34@ABU34@V_Iterator_base_aux@2@@std@@QAE@XZ PROC ; std::_Iterator_with_base<std::bidirectional_iterator_tag,CipherShed::SecurityTokenKeyfilePath,int,CipherShed::SecurityTokenKeyfilePath const *,CipherShed::SecurityTokenKeyfilePath const &,std::_Iterator_base_aux>::_Iterator_with_base<std::bidirectional_iterator_tag,CipherShed::SecurityTokenKeyfilePath,int,CipherShed::SecurityTokenKeyfilePath const *,CipherShed::SecurityTokenKeyfilePath const &,std::_Iterator_base_aux>, COMDAT
; _this$ = ecx
  00000	8b c1		 mov	 eax, ecx
  00002	c7 00 00 00 00
	00		 mov	 DWORD PTR [eax], 0
  00008	c3		 ret	 0
??0?$_Iterator_with_base@Ubidirectional_iterator_tag@std@@USecurityTokenKeyfilePath@CipherShed@@HPBU34@ABU34@V_Iterator_base_aux@2@@std@@QAE@XZ ENDP ; std::_Iterator_with_base<std::bidirectional_iterator_tag,CipherShed::SecurityTokenKeyfilePath,int,CipherShed::SecurityTokenKeyfilePath const *,CipherShed::SecurityTokenKeyfilePath const &,std::_Iterator_base_aux>::_Iterator_with_base<std::bidirectional_iterator_tag,CipherShed::SecurityTokenKeyfilePath,int,CipherShed::SecurityTokenKeyfilePath const *,CipherShed::SecurityTokenKeyfilePath const &,std::_Iterator_base_aux>
_TEXT	ENDS
PUBLIC	??$_Char_traits_cat@U?$char_traits@D@std@@@std@@YA?AU_Secure_char_traits_tag@0@XZ ; std::_Char_traits_cat<std::char_traits<char> >
; Function compile flags: /Ogtpy
; File c:\program files (x86)\microsoft visual studio 9.0\vc\include\iosfwd
;	COMDAT ??$_Char_traits_cat@U?$char_traits@D@std@@@std@@YA?AU_Secure_char_traits_tag@0@XZ
_TEXT	SEGMENT
__Secure$ = -1						; size = 1
??$_Char_traits_cat@U?$char_traits@D@std@@@std@@YA?AU_Secure_char_traits_tag@0@XZ PROC ; std::_Char_traits_cat<std::char_traits<char> >, COMDAT

; 575  : 	{

  00000	51		 push	 ecx

; 576  : 		typename _Char_traits_category<_Traits>::_Secure_char_traits _Secure;
; 577  : 		return (_Secure);

  00001	8a 44 24 03	 mov	 al, BYTE PTR __Secure$[esp+4]

; 578  : 	}

  00005	59		 pop	 ecx
  00006	c3		 ret	 0
??$_Char_traits_cat@U?$char_traits@D@std@@@std@@YA?AU_Secure_char_traits_tag@0@XZ ENDP ; std::_Char_traits_cat<std::char_traits<char> >
_TEXT	ENDS
PUBLIC	??$copy_s@U?$char_traits@D@std@@@_Traits_helper@std@@YAPADPADIPBDIU_Secure_char_traits_tag@1@@Z ; std::_Traits_helper::copy_s<std::char_traits<char> >
; Function compile flags: /Ogtpy
;	COMDAT ??$copy_s@U?$char_traits@D@std@@@_Traits_helper@std@@YAPADPADIPBDIU_Secure_char_traits_tag@1@@Z
_TEXT	SEGMENT
__First1$ = 8						; size = 4
__Size$ = 12						; size = 4
__First2$ = 16						; size = 4
__Count$ = 20						; size = 4
___formal$ = 24						; size = 1
??$copy_s@U?$char_traits@D@std@@@_Traits_helper@std@@YAPADPADIPBDIU_Secure_char_traits_tag@1@@Z PROC ; std::_Traits_helper::copy_s<std::char_traits<char> >, COMDAT

; 597  : 		return _Traits::_Copy_s(_First1, _Size, _First2, _Count);

  00000	8b 44 24 10	 mov	 eax, DWORD PTR __Count$[esp-4]
  00004	8b 4c 24 0c	 mov	 ecx, DWORD PTR __First2$[esp-4]
  00008	8b 54 24 08	 mov	 edx, DWORD PTR __Size$[esp-4]
  0000c	56		 push	 esi
  0000d	8b 74 24 08	 mov	 esi, DWORD PTR __First1$[esp]
  00011	50		 push	 eax
  00012	51		 push	 ecx
  00013	52		 push	 edx
  00014	56		 push	 esi
  00015	e8 00 00 00 00	 call	 _memcpy_s
  0001a	83 c4 10	 add	 esp, 16			; 00000010H
  0001d	8b c6		 mov	 eax, esi
  0001f	5e		 pop	 esi

; 598  : 	}

  00020	c3		 ret	 0
??$copy_s@U?$char_traits@D@std@@@_Traits_helper@std@@YAPADPADIPBDIU_Secure_char_traits_tag@1@@Z ENDP ; std::_Traits_helper::copy_s<std::char_traits<char> >
_TEXT	ENDS
PUBLIC	??$_Char_traits_cat@U?$char_traits@_W@std@@@std@@YA?AU_Secure_char_traits_tag@0@XZ ; std::_Char_traits_cat<std::char_traits<wchar_t> >
; Function compile flags: /Ogtpy
;	COMDAT ??$_Char_traits_cat@U?$char_traits@_W@std@@@std@@YA?AU_Secure_char_traits_tag@0@XZ
_TEXT	SEGMENT
__Secure$ = -1						; size = 1
??$_Char_traits_cat@U?$char_traits@_W@std@@@std@@YA?AU_Secure_char_traits_tag@0@XZ PROC ; std::_Char_traits_cat<std::char_traits<wchar_t> >, COMDAT

; 575  : 	{

  00000	51		 push	 ecx

; 576  : 		typename _Char_traits_category<_Traits>::_Secure_char_traits _Secure;
; 577  : 		return (_Secure);

  00001	8a 44 24 03	 mov	 al, BYTE PTR __Secure$[esp+4]

; 578  : 	}

  00005	59		 pop	 ecx
  00006	c3		 ret	 0
??$_Char_traits_cat@U?$char_traits@_W@std@@@std@@YA?AU_Secure_char_traits_tag@0@XZ ENDP ; std::_Char_traits_cat<std::char_traits<wchar_t> >
_TEXT	ENDS
PUBLIC	??$copy_s@U?$char_traits@_W@std@@@_Traits_helper@std@@YAPA_WPA_WIPB_WIU_Secure_char_traits_tag@1@@Z ; std::_Traits_helper::copy_s<std::char_traits<wchar_t> >
; Function compile flags: /Ogtpy
;	COMDAT ??$copy_s@U?$char_traits@_W@std@@@_Traits_helper@std@@YAPA_WPA_WIPB_WIU_Secure_char_traits_tag@1@@Z
_TEXT	SEGMENT
__First1$ = 8						; size = 4
__Size$ = 12						; size = 4
__First2$ = 16						; size = 4
__Count$ = 20						; size = 4
___formal$ = 24						; size = 1
??$copy_s@U?$char_traits@_W@std@@@_Traits_helper@std@@YAPA_WPA_WIPB_WIU_Secure_char_traits_tag@1@@Z PROC ; std::_Traits_helper::copy_s<std::char_traits<wchar_t> >, COMDAT

; 597  : 		return _Traits::_Copy_s(_First1, _Size, _First2, _Count);

  00000	8b 44 24 10	 mov	 eax, DWORD PTR __Count$[esp-4]
  00004	8b 54 24 0c	 mov	 edx, DWORD PTR __First2$[esp-4]
  00008	56		 push	 esi
  00009	8b 74 24 08	 mov	 esi, DWORD PTR __First1$[esp]
  0000d	8d 0c 00	 lea	 ecx, DWORD PTR [eax+eax]
  00010	8b 44 24 0c	 mov	 eax, DWORD PTR __Size$[esp]
  00014	51		 push	 ecx
  00015	52		 push	 edx
  00016	8d 0c 00	 lea	 ecx, DWORD PTR [eax+eax]
  00019	51		 push	 ecx
  0001a	56		 push	 esi
  0001b	e8 00 00 00 00	 call	 _memcpy_s
  00020	83 c4 10	 add	 esp, 16			; 00000010H
  00023	8b c6		 mov	 eax, esi
  00025	5e		 pop	 esi

; 598  : 	}

  00026	c3		 ret	 0
??$copy_s@U?$char_traits@_W@std@@@_Traits_helper@std@@YAPA_WPA_WIPB_WIU_Secure_char_traits_tag@1@@Z ENDP ; std::_Traits_helper::copy_s<std::char_traits<wchar_t> >
_TEXT	ENDS
PUBLIC	??$move_s@U?$char_traits@D@std@@@_Traits_helper@std@@YAPADPADIPBDIU_Secure_char_traits_tag@1@@Z ; std::_Traits_helper::move_s<std::char_traits<char> >
; Function compile flags: /Ogtpy
;	COMDAT ??$move_s@U?$char_traits@D@std@@@_Traits_helper@std@@YAPADPADIPBDIU_Secure_char_traits_tag@1@@Z
_TEXT	SEGMENT
__First1$ = 8						; size = 4
__Size$ = 12						; size = 4
__First2$ = 16						; size = 4
__Count$ = 20						; size = 4
___formal$ = 24						; size = 1
??$move_s@U?$char_traits@D@std@@@_Traits_helper@std@@YAPADPADIPBDIU_Secure_char_traits_tag@1@@Z PROC ; std::_Traits_helper::move_s<std::char_traits<char> >, COMDAT

; 624  : 		return _Traits::_Move_s(_First1, _Size, _First2, _Count);

  00000	8b 44 24 10	 mov	 eax, DWORD PTR __Count$[esp-4]
  00004	8b 4c 24 0c	 mov	 ecx, DWORD PTR __First2$[esp-4]
  00008	8b 54 24 08	 mov	 edx, DWORD PTR __Size$[esp-4]
  0000c	56		 push	 esi
  0000d	8b 74 24 08	 mov	 esi, DWORD PTR __First1$[esp]
  00011	50		 push	 eax
  00012	51		 push	 ecx
  00013	52		 push	 edx
  00014	56		 push	 esi
  00015	e8 00 00 00 00	 call	 _memmove_s
  0001a	83 c4 10	 add	 esp, 16			; 00000010H
  0001d	8b c6		 mov	 eax, esi
  0001f	5e		 pop	 esi

; 625  : 	}

  00020	c3		 ret	 0
??$move_s@U?$char_traits@D@std@@@_Traits_helper@std@@YAPADPADIPBDIU_Secure_char_traits_tag@1@@Z ENDP ; std::_Traits_helper::move_s<std::char_traits<char> >
_TEXT	ENDS
PUBLIC	??$move_s@U?$char_traits@_W@std@@@_Traits_helper@std@@YAPA_WPA_WIPB_WIU_Secure_char_traits_tag@1@@Z ; std::_Traits_helper::move_s<std::char_traits<wchar_t> >
; Function compile flags: /Ogtpy
;	COMDAT ??$move_s@U?$char_traits@_W@std@@@_Traits_helper@std@@YAPA_WPA_WIPB_WIU_Secure_char_traits_tag@1@@Z
_TEXT	SEGMENT
__First1$ = 8						; size = 4
__Size$ = 12						; size = 4
__First2$ = 16						; size = 4
__Count$ = 20						; size = 4
___formal$ = 24						; size = 1
??$move_s@U?$char_traits@_W@std@@@_Traits_helper@std@@YAPA_WPA_WIPB_WIU_Secure_char_traits_tag@1@@Z PROC ; std::_Traits_helper::move_s<std::char_traits<wchar_t> >, COMDAT

; 624  : 		return _Traits::_Move_s(_First1, _Size, _First2, _Count);

  00000	8b 44 24 10	 mov	 eax, DWORD PTR __Count$[esp-4]
  00004	8b 54 24 0c	 mov	 edx, DWORD PTR __First2$[esp-4]
  00008	56		 push	 esi
  00009	8b 74 24 08	 mov	 esi, DWORD PTR __First1$[esp]
  0000d	8d 0c 00	 lea	 ecx, DWORD PTR [eax+eax]
  00010	8b 44 24 0c	 mov	 eax, DWORD PTR __Size$[esp]
  00014	51		 push	 ecx
  00015	52		 push	 edx
  00016	8d 0c 00	 lea	 ecx, DWORD PTR [eax+eax]
  00019	51		 push	 ecx
  0001a	56		 push	 esi
  0001b	e8 00 00 00 00	 call	 _memmove_s
  00020	83 c4 10	 add	 esp, 16			; 00000010H
  00023	8b c6		 mov	 eax, esi
  00025	5e		 pop	 esi

; 625  : 	}

  00026	c3		 ret	 0
??$move_s@U?$char_traits@_W@std@@@_Traits_helper@std@@YAPA_WPA_WIPB_WIU_Secure_char_traits_tag@1@@Z ENDP ; std::_Traits_helper::move_s<std::char_traits<wchar_t> >
_TEXT	ENDS
PUBLIC	??$_Ptr_cat@PAEPAE@std@@YA?AU_Scalar_ptr_iterator_tag@0@AAPAE0@Z ; std::_Ptr_cat<unsigned char *,unsigned char *>
; Function compile flags: /Ogtpy
; File c:\program files (x86)\microsoft visual studio 9.0\vc\include\xutility
;	COMDAT ??$_Ptr_cat@PAEPAE@std@@YA?AU_Scalar_ptr_iterator_tag@0@AAPAE0@Z
_TEXT	SEGMENT
__Cat$ = -1						; size = 1
___formal$ = 8						; size = 4
___formal$ = 12						; size = 4
??$_Ptr_cat@PAEPAE@std@@YA?AU_Scalar_ptr_iterator_tag@0@AAPAE0@Z PROC ; std::_Ptr_cat<unsigned char *,unsigned char *>, COMDAT

; 1509 : 	{

  00000	51		 push	 ecx

; 1510 : 	typename _Ptr_cat_helper<_T1, _T2>::_Ptr_cat _Cat;
; 1511 : 	return (_Cat);

  00001	8a 44 24 03	 mov	 al, BYTE PTR __Cat$[esp+4]

; 1512 : 	}

  00005	59		 pop	 ecx
  00006	c3		 ret	 0
??$_Ptr_cat@PAEPAE@std@@YA?AU_Scalar_ptr_iterator_tag@0@AAPAE0@Z ENDP ; std::_Ptr_cat<unsigned char *,unsigned char *>
_TEXT	ENDS
PUBLIC	??$_Destroy_range@V?$allocator@E@std@@@std@@YAXPAE0AAV?$allocator@E@0@U_Scalar_ptr_iterator_tag@0@@Z ; std::_Destroy_range<std::allocator<unsigned char> >
; Function compile flags: /Ogtpy
; File c:\program files (x86)\microsoft visual studio 9.0\vc\include\xmemory
;	COMDAT ??$_Destroy_range@V?$allocator@E@std@@@std@@YAXPAE0AAV?$allocator@E@0@U_Scalar_ptr_iterator_tag@0@@Z
_TEXT	SEGMENT
__First$ = 8						; size = 4
__Last$ = 12						; size = 4
__Al$ = 16						; size = 4
___formal$ = 20						; size = 1
??$_Destroy_range@V?$allocator@E@std@@@std@@YAXPAE0AAV?$allocator@E@0@U_Scalar_ptr_iterator_tag@0@@Z PROC ; std::_Destroy_range<std::allocator<unsigned char> >, COMDAT

; 242  : 	}

  00000	c3		 ret	 0
??$_Destroy_range@V?$allocator@E@std@@@std@@YAXPAE0AAV?$allocator@E@0@U_Scalar_ptr_iterator_tag@0@@Z ENDP ; std::_Destroy_range<std::allocator<unsigned char> >
_TEXT	ENDS
PUBLIC	??$_Iter_cat@V?$_Const_iterator@$00@?$list@USecurityTokenKeyfilePath@CipherShed@@V?$allocator@USecurityTokenKeyfilePath@CipherShed@@@std@@@std@@@std@@YA?AUbidirectional_iterator_tag@0@ABV?$_Const_iterator@$00@?$list@USecurityTokenKeyfilePath@CipherShed@@V?$allocator@USecurityTokenKeyfilePath@CipherShed@@@std@@@0@@Z ; std::_Iter_cat<std::list<CipherShed::SecurityTokenKeyfilePath,std::allocator<CipherShed::SecurityTokenKeyfilePath> >::_Const_iterator<1> >
; Function compile flags: /Ogtpy
; File c:\program files (x86)\microsoft visual studio 9.0\vc\include\xutility
;	COMDAT ??$_Iter_cat@V?$_Const_iterator@$00@?$list@USecurityTokenKeyfilePath@CipherShed@@V?$allocator@USecurityTokenKeyfilePath@CipherShed@@@std@@@std@@@std@@YA?AUbidirectional_iterator_tag@0@ABV?$_Const_iterator@$00@?$list@USecurityTokenKeyfilePath@CipherShed@@V?$allocator@USecurityTokenKeyfilePath@CipherShed@@@std@@@0@@Z
_TEXT	SEGMENT
___$ReturnUdt$ = 8					; size = 4
___formal$ = 12						; size = 4
??$_Iter_cat@V?$_Const_iterator@$00@?$list@USecurityTokenKeyfilePath@CipherShed@@V?$allocator@USecurityTokenKeyfilePath@CipherShed@@@std@@@std@@@std@@YA?AUbidirectional_iterator_tag@0@ABV?$_Const_iterator@$00@?$list@USecurityTokenKeyfilePath@CipherShed@@V?$allocator@USecurityTokenKeyfilePath@CipherShed@@@std@@@0@@Z PROC ; std::_Iter_cat<std::list<CipherShed::SecurityTokenKeyfilePath,std::allocator<CipherShed::SecurityTokenKeyfilePath> >::_Const_iterator<1> >, COMDAT

; 953  : 	typename iterator_traits<_Iter>::iterator_category _Cat;
; 954  : 	return (_Cat);

  00000	8b 44 24 04	 mov	 eax, DWORD PTR ___$ReturnUdt$[esp-4]

; 955  : 	}

  00004	c3		 ret	 0
??$_Iter_cat@V?$_Const_iterator@$00@?$list@USecurityTokenKeyfilePath@CipherShed@@V?$allocator@USecurityTokenKeyfilePath@CipherShed@@@std@@@std@@@std@@YA?AUbidirectional_iterator_tag@0@ABV?$_Const_iterator@$00@?$list@USecurityTokenKeyfilePath@CipherShed@@V?$allocator@USecurityTokenKeyfilePath@CipherShed@@@std@@@0@@Z ENDP ; std::_Iter_cat<std::list<CipherShed::SecurityTokenKeyfilePath,std::allocator<CipherShed::SecurityTokenKeyfilePath> >::_Const_iterator<1> >
_TEXT	ENDS
PUBLIC	??F?$_Const_iterator@$00@?$list@USecurityTokenKeyfilePath@CipherShed@@V?$allocator@USecurityTokenKeyfilePath@CipherShed@@@std@@@std@@QAEAAV012@XZ ; std::list<CipherShed::SecurityTokenKeyfilePath,std::allocator<CipherShed::SecurityTokenKeyfilePath> >::_Const_iterator<1>::operator--
; Function compile flags: /Ogtpy
; File c:\program files (x86)\microsoft visual studio 9.0\vc\include\list
;	COMDAT ??F?$_Const_iterator@$00@?$list@USecurityTokenKeyfilePath@CipherShed@@V?$allocator@USecurityTokenKeyfilePath@CipherShed@@@std@@@std@@QAEAAV012@XZ
_TEXT	SEGMENT
??F?$_Const_iterator@$00@?$list@USecurityTokenKeyfilePath@CipherShed@@V?$allocator@USecurityTokenKeyfilePath@CipherShed@@@std@@@std@@QAEAAV012@XZ PROC ; std::list<CipherShed::SecurityTokenKeyfilePath,std::allocator<CipherShed::SecurityTokenKeyfilePath> >::_Const_iterator<1>::operator--, COMDAT
; _this$ = ecx

; 262  : 			{	// predecrement

  00000	56		 push	 esi
  00001	8b f1		 mov	 esi, ecx

; 263  : 
; 264  :  #if _HAS_ITERATOR_DEBUGGING
; 265  : 			if (this->_Mycont == 0
; 266  : 				|| _Ptr == 0
; 267  : 				|| (_Ptr = _Prevnode(_Ptr))
; 268  : 					== ((_Myt *)this->_Mycont)->_Myhead)
; 269  : 				{
; 270  : 				_DEBUG_ERROR("list iterator not decrementable");
; 271  : 				_SCL_SECURE_TRAITS_OUT_OF_RANGE;
; 272  : 				}
; 273  :  #else /* _HAS_ITERATOR_DEBUGGING */
; 274  : 			_SCL_SECURE_TRAITS_VALIDATE(this->_Has_container());

  00003	83 3e 00	 cmp	 DWORD PTR [esi], 0
  00006	75 05		 jne	 SHORT $LN8@operator@4
  00008	e8 00 00 00 00	 call	 __invalid_parameter_noinfo
$LN8@operator@4:

; 275  : 			_Ptr = _Prevnode(_Ptr);

  0000d	8b 46 04	 mov	 eax, DWORD PTR [esi+4]
  00010	8b 48 04	 mov	 ecx, DWORD PTR [eax+4]

; 276  : 			_SCL_SECURE_TRAITS_VALIDATE_RANGE(_Ptr != ((_Myt *)(this->_Getmycont()))->_Myhead);

  00013	8b 06		 mov	 eax, DWORD PTR [esi]
  00015	89 4e 04	 mov	 DWORD PTR [esi+4], ecx
  00018	85 c0		 test	 eax, eax
  0001a	74 04		 je	 SHORT $LN19@operator@4
  0001c	8b 00		 mov	 eax, DWORD PTR [eax]
  0001e	eb 02		 jmp	 SHORT $LN20@operator@4
$LN19@operator@4:
  00020	33 c0		 xor	 eax, eax
$LN20@operator@4:
  00022	3b 48 14	 cmp	 ecx, DWORD PTR [eax+20]
  00025	75 05		 jne	 SHORT $LN23@operator@4
  00027	e8 00 00 00 00	 call	 __invalid_parameter_noinfo
$LN23@operator@4:

; 277  :  #endif /* _HAS_ITERATOR_DEBUGGING */
; 278  : 
; 279  : 			return (*this);

  0002c	8b c6		 mov	 eax, esi
  0002e	5e		 pop	 esi

; 280  : 			}

  0002f	c3		 ret	 0
??F?$_Const_iterator@$00@?$list@USecurityTokenKeyfilePath@CipherShed@@V?$allocator@USecurityTokenKeyfilePath@CipherShed@@@std@@@std@@QAEAAV012@XZ ENDP ; std::list<CipherShed::SecurityTokenKeyfilePath,std::allocator<CipherShed::SecurityTokenKeyfilePath> >::_Const_iterator<1>::operator--
_TEXT	ENDS
PUBLIC	?_Mynode@?$_Const_iterator@$00@?$list@USecurityTokenKeyfilePath@CipherShed@@V?$allocator@USecurityTokenKeyfilePath@CipherShed@@@std@@@std@@QBEPAU_Node@?$_List_nod@USecurityTokenKeyfilePath@CipherShed@@V?$allocator@USecurityTokenKeyfilePath@CipherShed@@@std@@@3@XZ ; std::list<CipherShed::SecurityTokenKeyfilePath,std::allocator<CipherShed::SecurityTokenKeyfilePath> >::_Const_iterator<1>::_Mynode
; Function compile flags: /Ogtpy
;	COMDAT ?_Mynode@?$_Const_iterator@$00@?$list@USecurityTokenKeyfilePath@CipherShed@@V?$allocator@USecurityTokenKeyfilePath@CipherShed@@@std@@@std@@QBEPAU_Node@?$_List_nod@USecurityTokenKeyfilePath@CipherShed@@V?$allocator@USecurityTokenKeyfilePath@CipherShed@@@std@@@3@XZ
_TEXT	SEGMENT
?_Mynode@?$_Const_iterator@$00@?$list@USecurityTokenKeyfilePath@CipherShed@@V?$allocator@USecurityTokenKeyfilePath@CipherShed@@@std@@@std@@QBEPAU_Node@?$_List_nod@USecurityTokenKeyfilePath@CipherShed@@V?$allocator@USecurityTokenKeyfilePath@CipherShed@@@std@@@3@XZ PROC ; std::list<CipherShed::SecurityTokenKeyfilePath,std::allocator<CipherShed::SecurityTokenKeyfilePath> >::_Const_iterator<1>::_Mynode, COMDAT
; _this$ = ecx

; 308  : 			return (_Ptr);

  00000	8b 41 04	 mov	 eax, DWORD PTR [ecx+4]

; 309  : 			}

  00003	c3		 ret	 0
?_Mynode@?$_Const_iterator@$00@?$list@USecurityTokenKeyfilePath@CipherShed@@V?$allocator@USecurityTokenKeyfilePath@CipherShed@@@std@@@std@@QBEPAU_Node@?$_List_nod@USecurityTokenKeyfilePath@CipherShed@@V?$allocator@USecurityTokenKeyfilePath@CipherShed@@@std@@@3@XZ ENDP ; std::list<CipherShed::SecurityTokenKeyfilePath,std::allocator<CipherShed::SecurityTokenKeyfilePath> >::_Const_iterator<1>::_Mynode
_TEXT	ENDS
PUBLIC	?max_size@?$allocator@USecurityTokenKeyfilePath@CipherShed@@@std@@QBEIXZ ; std::allocator<CipherShed::SecurityTokenKeyfilePath>::max_size
; Function compile flags: /Ogtpy
; File c:\program files (x86)\microsoft visual studio 9.0\vc\include\xmemory
;	COMDAT ?max_size@?$allocator@USecurityTokenKeyfilePath@CipherShed@@@std@@QBEIXZ
_TEXT	SEGMENT
?max_size@?$allocator@USecurityTokenKeyfilePath@CipherShed@@@std@@QBEIXZ PROC ; std::allocator<CipherShed::SecurityTokenKeyfilePath>::max_size, COMDAT
; _this$ = ecx

; 165  : 		_SIZT _Count = (_SIZT)(-1) / sizeof (_Ty);
; 166  : 		return (0 < _Count ? _Count : 1);

  00000	b8 49 92 24 09	 mov	 eax, 153391689		; 09249249H

; 167  : 		}

  00005	c3		 ret	 0
?max_size@?$allocator@USecurityTokenKeyfilePath@CipherShed@@@std@@QBEIXZ ENDP ; std::allocator<CipherShed::SecurityTokenKeyfilePath>::max_size
_TEXT	ENDS
PUBLIC	??_C@_02JDPG@rb?$AA@				; `string'
PUBLIC	_keyFile$GSCopy$
PUBLIC	__$ArrayPad$
EXTRN	__imp__SetFileTime@16:PROC
EXTRN	_IsFileOnReadOnlyFilesystem:PROC
EXTRN	_fclose:PROC
EXTRN	__imp__GetLastError@0:PROC
EXTRN	__imp__SetLastError@4:PROC
EXTRN	_crc_32_tab:BYTE
EXTRN	_ferror:PROC
EXTRN	_fread:PROC
EXTRN	_fopen:PROC
EXTRN	__imp__GetFileTime@16:PROC
EXTRN	__imp__CreateFileA@28:PROC
EXTRN	___security_cookie:DWORD
EXTRN	@__security_check_cookie@4:PROC
EXTRN	__chkstk:PROC
;	COMDAT ??_C@_02JDPG@rb?$AA@
; File c:\home\public\desktop\projects\ciphershed.build\src\common\keyfiles.c
CONST	SEGMENT
??_C@_02JDPG@rb?$AA@ DB 'rb', 00H			; `string'
; Function compile flags: /Ogtpy
CONST	ENDS
;	COMDAT ?KeyFileProcess@@YAHPAEPAUKeyFileStruct@@@Z
_TEXT	SEGMENT
_status$ = -65592					; size = 4
_f$ = -65588						; size = 4
_totalRead$ = -65584					; size = 4
_finally161$ = -65580					; size = 4
_bTimeStampValid$ = -65576				; size = 4
_keyFile$GSCopy$ = -65572				; size = 4
_src$ = -65568						; size = 4
_ftLastWriteTime$ = -65564				; size = 8
_ftCreationTime$ = -65556				; size = 8
_ftLastAccessTime$ = -65548				; size = 8
_buffer$ = -65540					; size = 65536
__$ArrayPad$ = -4					; size = 4
_keyFile$ = 8						; size = 4
?KeyFileProcess@@YAHPAEPAUKeyFileStruct@@@Z PROC	; KeyFileProcess, COMDAT
; _keyPool$ = edi

; 130  : {

  00000	b8 38 00 01 00	 mov	 eax, 65592		; 00010038H
  00005	e8 00 00 00 00	 call	 __chkstk
  0000a	a1 00 00 00 00	 mov	 eax, DWORD PTR ___security_cookie
  0000f	33 c4		 xor	 eax, esp
  00011	89 84 24 34 00
	01 00		 mov	 DWORD PTR __$ArrayPad$[esp+65592], eax
  00018	8b 84 24 3c 00
	01 00		 mov	 eax, DWORD PTR _keyFile$[esp+65588]
  0001f	53		 push	 ebx
  00020	55		 push	 ebp
  00021	56		 push	 esi

; 131  : 	FILE *f;
; 132  : 	unsigned __int8 buffer[64 * 1024];
; 133  : 	unsigned __int32 crc = 0xffffffff;
; 134  : 	int writePos = 0;

  00022	33 f6		 xor	 esi, esi

; 135  : 	size_t bytesRead, totalRead = 0;
; 136  : 	int status = TRUE;
; 137  : 
; 138  : 	HANDLE src;
; 139  : 	FILETIME ftCreationTime;
; 140  : 	FILETIME ftLastWriteTime;
; 141  : 	FILETIME ftLastAccessTime;
; 142  : 
; 143  : 	BOOL bTimeStampValid = FALSE;
; 144  : 
; 145  : 	/* Remember the last access time of the keyfile. It will be preserved in order to prevent
; 146  : 	an adversary from determining which file may have been used as keyfile. */
; 147  : 	src = CreateFile (keyFile->FileName,
; 148  : 		GENERIC_READ | GENERIC_WRITE,
; 149  : 		FILE_SHARE_READ | FILE_SHARE_WRITE, NULL, OPEN_EXISTING, 0, NULL);

  00024	56		 push	 esi
  00025	56		 push	 esi
  00026	6a 03		 push	 3
  00028	56		 push	 esi
  00029	6a 03		 push	 3
  0002b	68 00 00 00 c0	 push	 -1073741824		; c0000000H
  00030	50		 push	 eax
  00031	89 44 24 3c	 mov	 DWORD PTR _keyFile$GSCopy$[esp+65632], eax
  00035	83 cb ff	 or	 ebx, -1
  00038	89 74 24 30	 mov	 DWORD PTR _totalRead$[esp+65632], esi
  0003c	c7 44 24 28 01
	00 00 00	 mov	 DWORD PTR _status$[esp+65632], 1
  00044	89 74 24 38	 mov	 DWORD PTR _bTimeStampValid$[esp+65632], esi
  00048	ff 15 00 00 00
	00		 call	 DWORD PTR __imp__CreateFileA@28
  0004e	8b e8		 mov	 ebp, eax
  00050	89 6c 24 24	 mov	 DWORD PTR _src$[esp+65604], ebp

; 150  : 
; 151  : 	if (src != INVALID_HANDLE_VALUE)

  00054	83 fd ff	 cmp	 ebp, -1
  00057	74 22		 je	 SHORT $LN30@KeyFilePro

; 152  : 	{
; 153  : 		if (GetFileTime ((HANDLE) src, &ftCreationTime, &ftLastAccessTime, &ftLastWriteTime))

  00059	8d 44 24 28	 lea	 eax, DWORD PTR _ftLastWriteTime$[esp+65604]
  0005d	50		 push	 eax
  0005e	8d 4c 24 3c	 lea	 ecx, DWORD PTR _ftLastAccessTime$[esp+65608]
  00062	51		 push	 ecx
  00063	8d 54 24 38	 lea	 edx, DWORD PTR _ftCreationTime$[esp+65612]
  00067	52		 push	 edx
  00068	55		 push	 ebp
  00069	ff 15 00 00 00
	00		 call	 DWORD PTR __imp__GetFileTime@16
  0006f	85 c0		 test	 eax, eax
  00071	74 08		 je	 SHORT $LN30@KeyFilePro

; 154  : 			bTimeStampValid = TRUE;

  00073	c7 44 24 1c 01
	00 00 00	 mov	 DWORD PTR _bTimeStampValid$[esp+65604], 1
$LN30@KeyFilePro:

; 155  : 	}
; 156  : 
; 157  : 	finally_do_arg (HANDLE, src,
; 158  : 	{
; 159  : 		if (finally_arg != INVALID_HANDLE_VALUE)
; 160  : 			CloseHandle (finally_arg);
; 161  : 	});
; 162  : 
; 163  : 	f = fopen (keyFile->FileName, "rb");

  0007b	8b 44 24 20	 mov	 eax, DWORD PTR _keyFile$GSCopy$[esp+65604]
  0007f	68 00 00 00 00	 push	 OFFSET ??_C@_02JDPG@rb?$AA@
  00084	50		 push	 eax
  00085	89 6c 24 20	 mov	 DWORD PTR _finally161$[esp+65612], ebp
  00089	e8 00 00 00 00	 call	 _fopen
  0008e	83 c4 08	 add	 esp, 8
  00091	89 44 24 10	 mov	 DWORD PTR _f$[esp+65604], eax

; 164  : 	if (f == NULL) return FALSE;

  00095	85 c0		 test	 eax, eax
  00097	75 23		 jne	 SHORT $LN23@KeyFilePro
  00099	8d 44 24 18	 lea	 eax, DWORD PTR _finally161$[esp+65604]
  0009d	e8 00 00 00 00	 call	 ??1Finally161@?6??KeyFileProcess@@YAHPAEPAUKeyFileStruct@@@Z@QAE@XZ ; `KeyFileProcess'::`7'::Finally161::~Finally161
  000a2	5e		 pop	 esi
  000a3	5d		 pop	 ebp
  000a4	33 c0		 xor	 eax, eax
  000a6	5b		 pop	 ebx

; 215  : }

  000a7	8b 8c 24 34 00
	01 00		 mov	 ecx, DWORD PTR __$ArrayPad$[esp+65592]
  000ae	33 cc		 xor	 ecx, esp
  000b0	e8 00 00 00 00	 call	 @__security_check_cookie@4
  000b5	81 c4 38 00 01
	00		 add	 esp, 65592		; 00010038H
  000bb	c3		 ret	 0
$LN23@KeyFilePro:

; 165  : 
; 166  : 	while ((bytesRead = fread (buffer, 1, sizeof (buffer), f)) > 0)

  000bc	50		 push	 eax
  000bd	68 00 00 01 00	 push	 65536			; 00010000H
  000c2	8d 4c 24 48	 lea	 ecx, DWORD PTR _buffer$[esp+65612]
  000c6	6a 01		 push	 1
  000c8	51		 push	 ecx
  000c9	e8 00 00 00 00	 call	 _fread
  000ce	8b e8		 mov	 ebp, eax
  000d0	83 c4 10	 add	 esp, 16			; 00000010H
  000d3	85 ed		 test	 ebp, ebp
  000d5	0f 86 9b 00 00
	00		 jbe	 $LN13@KeyFilePro
  000db	eb 03 8d 49 00	 npad	 5
$LL14@KeyFilePro:

; 167  : 	{
; 168  : 		size_t i;
; 169  : 
; 170  : 		if (ferror (f))

  000e0	8b 54 24 10	 mov	 edx, DWORD PTR _f$[esp+65604]
  000e4	52		 push	 edx
  000e5	e8 00 00 00 00	 call	 _ferror
  000ea	83 c4 04	 add	 esp, 4
  000ed	85 c0		 test	 eax, eax
  000ef	0f 85 92 00 00
	00		 jne	 $LN26@KeyFilePro

; 171  : 		{
; 172  : 			status = FALSE;
; 173  : 			goto close;
; 174  : 		}
; 175  : 
; 176  : 		for (i = 0; i < bytesRead; i++)

  000f5	33 c9		 xor	 ecx, ecx
  000f7	85 ed		 test	 ebp, ebp
  000f9	76 58		 jbe	 SHORT $LN8@KeyFilePro
  000fb	8b c3		 mov	 eax, ebx
  000fd	c1 e8 08	 shr	 eax, 8
$LL10@KeyFilePro:

; 177  : 		{
; 178  : 			crc = UPDC32 (buffer[i], crc);

  00100	0f b6 54 0c 40	 movzx	 edx, BYTE PTR _buffer$[esp+ecx+65604]
  00105	33 d3		 xor	 edx, ebx
  00107	81 e2 ff 00 00
	00		 and	 edx, 255		; 000000ffH
  0010d	8b 1c 95 00 00
	00 00		 mov	 ebx, DWORD PTR _crc_32_tab[edx*4]
  00114	33 d8		 xor	 ebx, eax

; 179  : 
; 180  : 			keyPool[writePos++] += (unsigned __int8) (crc >> 24);

  00116	8b c3		 mov	 eax, ebx
  00118	c1 e8 18	 shr	 eax, 24			; 00000018H
  0011b	00 04 37	 add	 BYTE PTR [edi+esi], al
  0011e	46		 inc	 esi

; 181  : 			keyPool[writePos++] += (unsigned __int8) (crc >> 16);

  0011f	8b d3		 mov	 edx, ebx
  00121	c1 ea 10	 shr	 edx, 16			; 00000010H
  00124	00 14 37	 add	 BYTE PTR [edi+esi], dl
  00127	46		 inc	 esi

; 182  : 			keyPool[writePos++] += (unsigned __int8) (crc >> 8);

  00128	8b c3		 mov	 eax, ebx
  0012a	c1 e8 08	 shr	 eax, 8
  0012d	00 04 37	 add	 BYTE PTR [edi+esi], al

; 183  : 			keyPool[writePos++] += (unsigned __int8) crc;

  00130	00 5c 37 01	 add	 BYTE PTR [edi+esi+1], bl
  00134	46		 inc	 esi
  00135	46		 inc	 esi

; 184  : 
; 185  : 			if (writePos >= KEYFILE_POOL_SIZE)

  00136	83 fe 40	 cmp	 esi, 64			; 00000040H
  00139	7c 02		 jl	 SHORT $LN7@KeyFilePro

; 186  : 				writePos = 0;

  0013b	33 f6		 xor	 esi, esi
$LN7@KeyFilePro:

; 187  : 
; 188  : 			if (++totalRead >= KEYFILE_MAX_READ_LEN)

  0013d	8b 54 24 14	 mov	 edx, DWORD PTR _totalRead$[esp+65604]
  00141	42		 inc	 edx
  00142	89 54 24 14	 mov	 DWORD PTR _totalRead$[esp+65604], edx
  00146	81 fa 00 00 10
	00		 cmp	 edx, 1048576		; 00100000H
  0014c	73 5a		 jae	 SHORT $close$118436
  0014e	41		 inc	 ecx
  0014f	3b cd		 cmp	 ecx, ebp
  00151	72 ad		 jb	 SHORT $LL10@KeyFilePro
$LN8@KeyFilePro:

; 165  : 
; 166  : 	while ((bytesRead = fread (buffer, 1, sizeof (buffer), f)) > 0)

  00153	8b 44 24 10	 mov	 eax, DWORD PTR _f$[esp+65604]
  00157	50		 push	 eax
  00158	68 00 00 01 00	 push	 65536			; 00010000H
  0015d	8d 4c 24 48	 lea	 ecx, DWORD PTR _buffer$[esp+65612]
  00161	6a 01		 push	 1
  00163	51		 push	 ecx
  00164	e8 00 00 00 00	 call	 _fread
  00169	8b e8		 mov	 ebp, eax
  0016b	83 c4 10	 add	 esp, 16			; 00000010H
  0016e	85 ed		 test	 ebp, ebp
  00170	0f 87 6a ff ff
	ff		 ja	 $LL14@KeyFilePro
$LN13@KeyFilePro:

; 189  : 				goto close;
; 190  : 		}
; 191  : 	}
; 192  : 
; 193  : 	if (ferror (f))

  00176	8b 54 24 10	 mov	 edx, DWORD PTR _f$[esp+65604]
  0017a	52		 push	 edx
  0017b	e8 00 00 00 00	 call	 _ferror
  00180	83 c4 04	 add	 esp, 4
  00183	85 c0		 test	 eax, eax
  00185	74 0a		 je	 SHORT $LN4@KeyFilePro
$LN26@KeyFilePro:

; 194  : 	{
; 195  : 		status = FALSE;

  00187	c7 44 24 0c 00
	00 00 00	 mov	 DWORD PTR _status$[esp+65604], 0
  0018f	eb 17		 jmp	 SHORT $close$118436
$LN4@KeyFilePro:

; 196  : 	}
; 197  : 	else if (totalRead == 0)

  00191	83 7c 24 14 00	 cmp	 DWORD PTR _totalRead$[esp+65604], 0
  00196	75 10		 jne	 SHORT $close$118436

; 198  : 	{
; 199  : 		status = FALSE;
; 200  : 		SetLastError (ERROR_HANDLE_EOF); 

  00198	6a 26		 push	 38			; 00000026H
  0019a	c7 44 24 10 00
	00 00 00	 mov	 DWORD PTR _status$[esp+65608], 0
  001a2	ff 15 00 00 00
	00		 call	 DWORD PTR __imp__SetLastError@4
$close$118436:

; 201  : 	}
; 202  : 
; 203  : close:
; 204  : 	DWORD err = GetLastError();

  001a8	ff 15 00 00 00
	00		 call	 DWORD PTR __imp__GetLastError@0
  001ae	8b f0		 mov	 esi, eax

; 205  : 	fclose (f);

  001b0	8b 44 24 10	 mov	 eax, DWORD PTR _f$[esp+65604]
  001b4	50		 push	 eax
  001b5	e8 00 00 00 00	 call	 _fclose
  001ba	83 c4 04	 add	 esp, 4

; 206  : 
; 207  : 	if (bTimeStampValid && !IsFileOnReadOnlyFilesystem (keyFile->FileName))

  001bd	83 7c 24 1c 00	 cmp	 DWORD PTR _bTimeStampValid$[esp+65604], 0
  001c2	74 2b		 je	 SHORT $LN1@KeyFilePro
  001c4	8b 4c 24 20	 mov	 ecx, DWORD PTR _keyFile$GSCopy$[esp+65604]
  001c8	51		 push	 ecx
  001c9	e8 00 00 00 00	 call	 _IsFileOnReadOnlyFilesystem
  001ce	83 c4 04	 add	 esp, 4
  001d1	85 c0		 test	 eax, eax
  001d3	75 1a		 jne	 SHORT $LN1@KeyFilePro

; 208  : 	{
; 209  : 		// Restore the keyfile timestamp
; 210  : 		SetFileTime (src, &ftCreationTime, &ftLastAccessTime, &ftLastWriteTime);

  001d5	8d 54 24 28	 lea	 edx, DWORD PTR _ftLastWriteTime$[esp+65604]
  001d9	52		 push	 edx
  001da	8b 54 24 28	 mov	 edx, DWORD PTR _src$[esp+65608]
  001de	8d 44 24 3c	 lea	 eax, DWORD PTR _ftLastAccessTime$[esp+65608]
  001e2	50		 push	 eax
  001e3	8d 4c 24 38	 lea	 ecx, DWORD PTR _ftCreationTime$[esp+65612]
  001e7	51		 push	 ecx
  001e8	52		 push	 edx
  001e9	ff 15 00 00 00
	00		 call	 DWORD PTR __imp__SetFileTime@16
$LN1@KeyFilePro:

; 211  : 	}
; 212  : 
; 213  : 	SetLastError (err);

  001ef	56		 push	 esi
  001f0	ff 15 00 00 00
	00		 call	 DWORD PTR __imp__SetLastError@4

; 214  : 	return status;

  001f6	8d 44 24 18	 lea	 eax, DWORD PTR _finally161$[esp+65604]
  001fa	e8 00 00 00 00	 call	 ??1Finally161@?6??KeyFileProcess@@YAHPAEPAUKeyFileStruct@@@Z@QAE@XZ ; `KeyFileProcess'::`7'::Finally161::~Finally161

; 215  : }

  001ff	8b 8c 24 40 00
	01 00		 mov	 ecx, DWORD PTR __$ArrayPad$[esp+65604]
  00206	8b 44 24 0c	 mov	 eax, DWORD PTR _status$[esp+65604]
  0020a	5e		 pop	 esi
  0020b	5d		 pop	 ebp
  0020c	5b		 pop	 ebx
  0020d	33 cc		 xor	 ecx, esp
  0020f	e8 00 00 00 00	 call	 @__security_check_cookie@4
  00214	81 c4 38 00 01
	00		 add	 esp, 65592		; 00010038H
  0021a	c3		 ret	 0
?KeyFileProcess@@YAHPAEPAUKeyFileStruct@@@Z ENDP	; KeyFileProcess
_TEXT	ENDS
PUBLIC	?c_str@?$basic_string@DU?$char_traits@D@std@@V?$allocator@D@2@@std@@QBEPBDXZ ; std::basic_string<char,std::char_traits<char>,std::allocator<char> >::c_str
; Function compile flags: /Ogtpy
; File c:\program files (x86)\microsoft visual studio 9.0\vc\include\xstring
;	COMDAT ?c_str@?$basic_string@DU?$char_traits@D@std@@V?$allocator@D@2@@std@@QBEPBDXZ
_TEXT	SEGMENT
?c_str@?$basic_string@DU?$char_traits@D@std@@V?$allocator@D@2@@std@@QBEPBDXZ PROC ; std::basic_string<char,std::char_traits<char>,std::allocator<char> >::c_str, COMDAT
; _this$ = ecx

; 1651 : 		return (_Myptr());

  00000	83 79 18 10	 cmp	 DWORD PTR [ecx+24], 16	; 00000010H
  00004	72 04		 jb	 SHORT $LN5@c_str
  00006	8b 41 04	 mov	 eax, DWORD PTR [ecx+4]

; 1652 : 		}

  00009	c3		 ret	 0

; 1651 : 		return (_Myptr());

$LN5@c_str:
  0000a	8d 41 04	 lea	 eax, DWORD PTR [ecx+4]

; 1652 : 		}

  0000d	c3		 ret	 0
?c_str@?$basic_string@DU?$char_traits@D@std@@V?$allocator@D@2@@std@@QBEPBDXZ ENDP ; std::basic_string<char,std::char_traits<char>,std::allocator<char> >::c_str
_TEXT	ENDS
PUBLIC	?c_str@?$basic_string@_WU?$char_traits@_W@std@@V?$allocator@_W@2@@std@@QBEPB_WXZ ; std::basic_string<wchar_t,std::char_traits<wchar_t>,std::allocator<wchar_t> >::c_str
; Function compile flags: /Ogtpy
;	COMDAT ?c_str@?$basic_string@_WU?$char_traits@_W@std@@V?$allocator@_W@2@@std@@QBEPB_WXZ
_TEXT	SEGMENT
?c_str@?$basic_string@_WU?$char_traits@_W@std@@V?$allocator@_W@2@@std@@QBEPB_WXZ PROC ; std::basic_string<wchar_t,std::char_traits<wchar_t>,std::allocator<wchar_t> >::c_str, COMDAT
; _this$ = ecx

; 1651 : 		return (_Myptr());

  00000	83 79 18 08	 cmp	 DWORD PTR [ecx+24], 8
  00004	72 04		 jb	 SHORT $LN5@c_str@2
  00006	8b 41 04	 mov	 eax, DWORD PTR [ecx+4]

; 1652 : 		}

  00009	c3		 ret	 0

; 1651 : 		return (_Myptr());

$LN5@c_str@2:
  0000a	8d 41 04	 lea	 eax, DWORD PTR [ecx+4]

; 1652 : 		}

  0000d	c3		 ret	 0
?c_str@?$basic_string@_WU?$char_traits@_W@std@@V?$allocator@_W@2@@std@@QBEPB_WXZ ENDP ; std::basic_string<wchar_t,std::char_traits<wchar_t>,std::allocator<wchar_t> >::c_str
_TEXT	ENDS
PUBLIC	??D?$_Const_iterator@$00@?$list@USecurityTokenKeyfilePath@CipherShed@@V?$allocator@USecurityTokenKeyfilePath@CipherShed@@@std@@@std@@QBEABUSecurityTokenKeyfilePath@CipherShed@@XZ ; std::list<CipherShed::SecurityTokenKeyfilePath,std::allocator<CipherShed::SecurityTokenKeyfilePath> >::_Const_iterator<1>::operator*
; Function compile flags: /Ogtpy
; File c:\program files (x86)\microsoft visual studio 9.0\vc\include\list
;	COMDAT ??D?$_Const_iterator@$00@?$list@USecurityTokenKeyfilePath@CipherShed@@V?$allocator@USecurityTokenKeyfilePath@CipherShed@@@std@@@std@@QBEABUSecurityTokenKeyfilePath@CipherShed@@XZ
_TEXT	SEGMENT
??D?$_Const_iterator@$00@?$list@USecurityTokenKeyfilePath@CipherShed@@V?$allocator@USecurityTokenKeyfilePath@CipherShed@@@std@@@std@@QBEABUSecurityTokenKeyfilePath@CipherShed@@XZ PROC ; std::list<CipherShed::SecurityTokenKeyfilePath,std::allocator<CipherShed::SecurityTokenKeyfilePath> >::_Const_iterator<1>::operator*, COMDAT
; _this$ = ecx

; 211  : 			{	// return designated value

  00000	56		 push	 esi
  00001	8b f1		 mov	 esi, ecx

; 212  : 
; 213  :  #if _HAS_ITERATOR_DEBUGGING
; 214  : 			if (this->_Mycont == 0
; 215  : 				|| _Ptr == 0
; 216  : 				|| _Ptr == ((_Myt *)this->_Mycont)->_Myhead)
; 217  : 				{
; 218  : 				_DEBUG_ERROR("list iterator not dereferencable");
; 219  : 				_SCL_SECURE_TRAITS_OUT_OF_RANGE;
; 220  : 				}
; 221  :  #else
; 222  : 			_SCL_SECURE_TRAITS_VALIDATE(this->_Has_container());

  00003	8b 06		 mov	 eax, DWORD PTR [esi]
  00005	85 c0		 test	 eax, eax
  00007	75 0b		 jne	 SHORT $LN23@operator@5
  00009	e8 00 00 00 00	 call	 __invalid_parameter_noinfo

; 223  : 			_SCL_SECURE_TRAITS_VALIDATE_RANGE(_Ptr != ((_Myt *)(this->_Getmycont()))->_Myhead);

  0000e	8b 06		 mov	 eax, DWORD PTR [esi]
  00010	85 c0		 test	 eax, eax
  00012	74 04		 je	 SHORT $LN17@operator@5
$LN23@operator@5:
  00014	8b 00		 mov	 eax, DWORD PTR [eax]
  00016	eb 02		 jmp	 SHORT $LN18@operator@5
$LN17@operator@5:
  00018	33 c0		 xor	 eax, eax
$LN18@operator@5:
  0001a	8b 4e 04	 mov	 ecx, DWORD PTR [esi+4]
  0001d	3b 48 14	 cmp	 ecx, DWORD PTR [eax+20]
  00020	75 05		 jne	 SHORT $LN3@operator@5
  00022	e8 00 00 00 00	 call	 __invalid_parameter_noinfo
$LN3@operator@5:

; 224  :  #endif /* _HAS_ITERATOR_DEBUGGING */
; 225  : 
; 226  : 			return (_Myval(_Ptr));

  00027	8b 46 04	 mov	 eax, DWORD PTR [esi+4]
  0002a	83 c0 08	 add	 eax, 8
  0002d	5e		 pop	 esi

; 227  : 			}

  0002e	c3		 ret	 0
??D?$_Const_iterator@$00@?$list@USecurityTokenKeyfilePath@CipherShed@@V?$allocator@USecurityTokenKeyfilePath@CipherShed@@@std@@@std@@QBEABUSecurityTokenKeyfilePath@CipherShed@@XZ ENDP ; std::list<CipherShed::SecurityTokenKeyfilePath,std::allocator<CipherShed::SecurityTokenKeyfilePath> >::_Const_iterator<1>::operator*
_TEXT	ENDS
PUBLIC	??0?$_String_val@DV?$allocator@D@std@@@std@@IAE@V?$allocator@D@1@@Z ; std::_String_val<char,std::allocator<char> >::_String_val<char,std::allocator<char> >
; Function compile flags: /Ogtpy
; File c:\program files (x86)\microsoft visual studio 9.0\vc\include\xstring
;	COMDAT ??0?$_String_val@DV?$allocator@D@std@@@std@@IAE@V?$allocator@D@1@@Z
_TEXT	SEGMENT
__Al$ = 8						; size = 1
??0?$_String_val@DV?$allocator@D@std@@@std@@IAE@V?$allocator@D@1@@Z PROC ; std::_String_val<char,std::allocator<char> >::_String_val<char,std::allocator<char> >, COMDAT
; _this$ = ecx

; 472  : 		{	// construct allocator from _Al

  00000	8b c1		 mov	 eax, ecx

; 473  : 		}

  00002	c2 04 00	 ret	 4
??0?$_String_val@DV?$allocator@D@std@@@std@@IAE@V?$allocator@D@1@@Z ENDP ; std::_String_val<char,std::allocator<char> >::_String_val<char,std::allocator<char> >
_TEXT	ENDS
PUBLIC	??0?$_String_val@DV?$allocator@D@std@@@std@@QAE@ABV01@@Z ; std::_String_val<char,std::allocator<char> >::_String_val<char,std::allocator<char> >
; Function compile flags: /Ogtpy
;	COMDAT ??0?$_String_val@DV?$allocator@D@std@@@std@@QAE@ABV01@@Z
_TEXT	SEGMENT
__Right$ = 8						; size = 4
??0?$_String_val@DV?$allocator@D@std@@@std@@QAE@ABV01@@Z PROC ; std::_String_val<char,std::allocator<char> >::_String_val<char,std::allocator<char> >, COMDAT
; _this$ = ecx

; 478  : 		{	// copy constructor

  00000	8b c1		 mov	 eax, ecx

; 479  : #if defined(_DEBUG)
; 480  : 		if (_Right._Myfirstiter == _IGNORE_MYITERLIST)
; 481  : 			{
; 482  : 			this->_Myfirstiter = _IGNORE_MYITERLIST;
; 483  : 			}
; 484  : #endif
; 485  : 		}

  00002	c2 04 00	 ret	 4
??0?$_String_val@DV?$allocator@D@std@@@std@@QAE@ABV01@@Z ENDP ; std::_String_val<char,std::allocator<char> >::_String_val<char,std::allocator<char> >
_TEXT	ENDS
PUBLIC	??0?$_String_val@_WV?$allocator@_W@std@@@std@@IAE@V?$allocator@_W@1@@Z ; std::_String_val<wchar_t,std::allocator<wchar_t> >::_String_val<wchar_t,std::allocator<wchar_t> >
; Function compile flags: /Ogtpy
;	COMDAT ??0?$_String_val@_WV?$allocator@_W@std@@@std@@IAE@V?$allocator@_W@1@@Z
_TEXT	SEGMENT
__Al$ = 8						; size = 1
??0?$_String_val@_WV?$allocator@_W@std@@@std@@IAE@V?$allocator@_W@1@@Z PROC ; std::_String_val<wchar_t,std::allocator<wchar_t> >::_String_val<wchar_t,std::allocator<wchar_t> >, COMDAT
; _this$ = ecx

; 472  : 		{	// construct allocator from _Al

  00000	8b c1		 mov	 eax, ecx

; 473  : 		}

  00002	c2 04 00	 ret	 4
??0?$_String_val@_WV?$allocator@_W@std@@@std@@IAE@V?$allocator@_W@1@@Z ENDP ; std::_String_val<wchar_t,std::allocator<wchar_t> >::_String_val<wchar_t,std::allocator<wchar_t> >
_TEXT	ENDS
PUBLIC	??0?$_String_val@_WV?$allocator@_W@std@@@std@@QAE@ABV01@@Z ; std::_String_val<wchar_t,std::allocator<wchar_t> >::_String_val<wchar_t,std::allocator<wchar_t> >
; Function compile flags: /Ogtpy
;	COMDAT ??0?$_String_val@_WV?$allocator@_W@std@@@std@@QAE@ABV01@@Z
_TEXT	SEGMENT
__Right$ = 8						; size = 4
??0?$_String_val@_WV?$allocator@_W@std@@@std@@QAE@ABV01@@Z PROC ; std::_String_val<wchar_t,std::allocator<wchar_t> >::_String_val<wchar_t,std::allocator<wchar_t> >, COMDAT
; _this$ = ecx

; 478  : 		{	// copy constructor

  00000	8b c1		 mov	 eax, ecx

; 479  : #if defined(_DEBUG)
; 480  : 		if (_Right._Myfirstiter == _IGNORE_MYITERLIST)
; 481  : 			{
; 482  : 			this->_Myfirstiter = _IGNORE_MYITERLIST;
; 483  : 			}
; 484  : #endif
; 485  : 		}

  00002	c2 04 00	 ret	 4
??0?$_String_val@_WV?$allocator@_W@std@@@std@@QAE@ABV01@@Z ENDP ; std::_String_val<wchar_t,std::allocator<wchar_t> >::_String_val<wchar_t,std::allocator<wchar_t> >
_TEXT	ENDS
PUBLIC	??1?$_Container_base_aux_alloc_real@V?$allocator@E@std@@@std@@IAE@XZ ; std::_Container_base_aux_alloc_real<std::allocator<unsigned char> >::~_Container_base_aux_alloc_real<std::allocator<unsigned char> >
; Function compile flags: /Ogtpy
; File c:\program files (x86)\microsoft visual studio 9.0\vc\include\xutility
;	COMDAT ??1?$_Container_base_aux_alloc_real@V?$allocator@E@std@@@std@@IAE@XZ
_TEXT	SEGMENT
??1?$_Container_base_aux_alloc_real@V?$allocator@E@std@@@std@@IAE@XZ PROC ; std::_Container_base_aux_alloc_real<std::allocator<unsigned char> >::~_Container_base_aux_alloc_real<std::allocator<unsigned char> >, COMDAT
; _this$ = ecx

; 437  : 		_Myownedaux->~_Aux_cont();
; 438  : 
; 439  : 		_Alaux.deallocate(_Myownedaux, 1);

  00000	8b 01		 mov	 eax, DWORD PTR [ecx]
  00002	50		 push	 eax
  00003	e8 00 00 00 00	 call	 ??3@YAXPAX@Z		; operator delete
  00008	59		 pop	 ecx

; 440  : 		}

  00009	c3		 ret	 0
??1?$_Container_base_aux_alloc_real@V?$allocator@E@std@@@std@@IAE@XZ ENDP ; std::_Container_base_aux_alloc_real<std::allocator<unsigned char> >::~_Container_base_aux_alloc_real<std::allocator<unsigned char> >
_TEXT	ENDS
PUBLIC	??1?$_Container_base_aux_alloc_real@V?$allocator@USecurityTokenKeyfilePath@CipherShed@@@std@@@std@@IAE@XZ ; std::_Container_base_aux_alloc_real<std::allocator<CipherShed::SecurityTokenKeyfilePath> >::~_Container_base_aux_alloc_real<std::allocator<CipherShed::SecurityTokenKeyfilePath> >
; Function compile flags: /Ogtpy
;	COMDAT ??1?$_Container_base_aux_alloc_real@V?$allocator@USecurityTokenKeyfilePath@CipherShed@@@std@@@std@@IAE@XZ
_TEXT	SEGMENT
??1?$_Container_base_aux_alloc_real@V?$allocator@USecurityTokenKeyfilePath@CipherShed@@@std@@@std@@IAE@XZ PROC ; std::_Container_base_aux_alloc_real<std::allocator<CipherShed::SecurityTokenKeyfilePath> >::~_Container_base_aux_alloc_real<std::allocator<CipherShed::SecurityTokenKeyfilePath> >, COMDAT
; _this$ = ecx

; 437  : 		_Myownedaux->~_Aux_cont();
; 438  : 
; 439  : 		_Alaux.deallocate(_Myownedaux, 1);

  00000	8b 01		 mov	 eax, DWORD PTR [ecx]
  00002	50		 push	 eax
  00003	e8 00 00 00 00	 call	 ??3@YAXPAX@Z		; operator delete
  00008	59		 pop	 ecx

; 440  : 		}

  00009	c3		 ret	 0
??1?$_Container_base_aux_alloc_real@V?$allocator@USecurityTokenKeyfilePath@CipherShed@@@std@@@std@@IAE@XZ ENDP ; std::_Container_base_aux_alloc_real<std::allocator<CipherShed::SecurityTokenKeyfilePath> >::~_Container_base_aux_alloc_real<std::allocator<CipherShed::SecurityTokenKeyfilePath> >
_TEXT	ENDS
PUBLIC	??E?$_Const_iterator@$00@?$list@USecurityTokenKeyfilePath@CipherShed@@V?$allocator@USecurityTokenKeyfilePath@CipherShed@@@std@@@std@@QAEAAV012@XZ ; std::list<CipherShed::SecurityTokenKeyfilePath,std::allocator<CipherShed::SecurityTokenKeyfilePath> >::_Const_iterator<1>::operator++
; Function compile flags: /Ogtpy
; File c:\program files (x86)\microsoft visual studio 9.0\vc\include\list
;	COMDAT ??E?$_Const_iterator@$00@?$list@USecurityTokenKeyfilePath@CipherShed@@V?$allocator@USecurityTokenKeyfilePath@CipherShed@@@std@@@std@@QAEAAV012@XZ
_TEXT	SEGMENT
??E?$_Const_iterator@$00@?$list@USecurityTokenKeyfilePath@CipherShed@@V?$allocator@USecurityTokenKeyfilePath@CipherShed@@@std@@@std@@QAEAAV012@XZ PROC ; std::list<CipherShed::SecurityTokenKeyfilePath,std::allocator<CipherShed::SecurityTokenKeyfilePath> >::_Const_iterator<1>::operator++, COMDAT
; _this$ = ecx

; 235  : 			{	// preincrement

  00000	56		 push	 esi
  00001	8b f1		 mov	 esi, ecx

; 236  : 
; 237  :  #if _HAS_ITERATOR_DEBUGGING
; 238  : 			if (this->_Mycont == 0
; 239  : 				|| _Ptr == 0
; 240  : 				|| _Ptr == ((_Myt *)this->_Mycont)->_Myhead)
; 241  : 				{
; 242  : 				_DEBUG_ERROR("list iterator not incrementable");
; 243  : 				_SCL_SECURE_TRAITS_OUT_OF_RANGE;
; 244  : 				}
; 245  :  #else
; 246  : 			_SCL_SECURE_TRAITS_VALIDATE(this->_Has_container());

  00003	8b 06		 mov	 eax, DWORD PTR [esi]
  00005	85 c0		 test	 eax, eax
  00007	75 0b		 jne	 SHORT $LN23@operator@6
  00009	e8 00 00 00 00	 call	 __invalid_parameter_noinfo

; 247  : 			_SCL_SECURE_TRAITS_VALIDATE_RANGE(_Ptr != ((_Myt *)(this->_Getmycont()))->_Myhead);

  0000e	8b 06		 mov	 eax, DWORD PTR [esi]
  00010	85 c0		 test	 eax, eax
  00012	74 04		 je	 SHORT $LN17@operator@6
$LN23@operator@6:
  00014	8b 00		 mov	 eax, DWORD PTR [eax]
  00016	eb 02		 jmp	 SHORT $LN18@operator@6
$LN17@operator@6:
  00018	33 c0		 xor	 eax, eax
$LN18@operator@6:
  0001a	8b 4e 04	 mov	 ecx, DWORD PTR [esi+4]
  0001d	3b 48 14	 cmp	 ecx, DWORD PTR [eax+20]
  00020	75 05		 jne	 SHORT $LN3@operator@6
  00022	e8 00 00 00 00	 call	 __invalid_parameter_noinfo
$LN3@operator@6:

; 248  :  #endif /* _HAS_ITERATOR_DEBUGGING */
; 249  : 
; 250  : 			_Ptr = _Nextnode(_Ptr);

  00027	8b 56 04	 mov	 edx, DWORD PTR [esi+4]
  0002a	8b 02		 mov	 eax, DWORD PTR [edx]
  0002c	89 46 04	 mov	 DWORD PTR [esi+4], eax

; 251  : 			return (*this);

  0002f	8b c6		 mov	 eax, esi
  00031	5e		 pop	 esi

; 252  : 			}

  00032	c3		 ret	 0
??E?$_Const_iterator@$00@?$list@USecurityTokenKeyfilePath@CipherShed@@V?$allocator@USecurityTokenKeyfilePath@CipherShed@@@std@@@std@@QAEAAV012@XZ ENDP ; std::list<CipherShed::SecurityTokenKeyfilePath,std::allocator<CipherShed::SecurityTokenKeyfilePath> >::_Const_iterator<1>::operator++
_TEXT	ENDS
PUBLIC	??9?$_Const_iterator@$00@?$list@USecurityTokenKeyfilePath@CipherShed@@V?$allocator@USecurityTokenKeyfilePath@CipherShed@@@std@@@std@@QBE_NABV012@@Z ; std::list<CipherShed::SecurityTokenKeyfilePath,std::allocator<CipherShed::SecurityTokenKeyfilePath> >::_Const_iterator<1>::operator!=
; Function compile flags: /Ogtpy
;	COMDAT ??9?$_Const_iterator@$00@?$list@USecurityTokenKeyfilePath@CipherShed@@V?$allocator@USecurityTokenKeyfilePath@CipherShed@@@std@@@std@@QBE_NABV012@@Z
_TEXT	SEGMENT
__Right$ = 8						; size = 4
??9?$_Const_iterator@$00@?$list@USecurityTokenKeyfilePath@CipherShed@@V?$allocator@USecurityTokenKeyfilePath@CipherShed@@@std@@@std@@QBE_NABV012@@Z PROC ; std::list<CipherShed::SecurityTokenKeyfilePath,std::allocator<CipherShed::SecurityTokenKeyfilePath> >::_Const_iterator<1>::operator!=, COMDAT
; _this$ = ecx

; 302  : 			{	// test for iterator inequality

  00000	56		 push	 esi
  00001	8b f1		 mov	 esi, ecx

; 303  : 			return (!(*this == _Right));

  00003	8b 06		 mov	 eax, DWORD PTR [esi]
  00005	57		 push	 edi
  00006	8b 7c 24 0c	 mov	 edi, DWORD PTR __Right$[esp+4]
  0000a	85 c0		 test	 eax, eax
  0000c	74 04		 je	 SHORT $LN6@operator@7
  0000e	3b 07		 cmp	 eax, DWORD PTR [edi]
  00010	74 05		 je	 SHORT $LN5@operator@7
$LN6@operator@7:
  00012	e8 00 00 00 00	 call	 __invalid_parameter_noinfo
$LN5@operator@7:
  00017	8b 46 04	 mov	 eax, DWORD PTR [esi+4]
  0001a	33 c9		 xor	 ecx, ecx
  0001c	3b 47 04	 cmp	 eax, DWORD PTR [edi+4]
  0001f	5f		 pop	 edi
  00020	0f 95 c1	 setne	 cl
  00023	8a c1		 mov	 al, cl
  00025	5e		 pop	 esi

; 304  : 			}

  00026	c2 04 00	 ret	 4
??9?$_Const_iterator@$00@?$list@USecurityTokenKeyfilePath@CipherShed@@V?$allocator@USecurityTokenKeyfilePath@CipherShed@@@std@@@std@@QBE_NABV012@@Z ENDP ; std::list<CipherShed::SecurityTokenKeyfilePath,std::allocator<CipherShed::SecurityTokenKeyfilePath> >::_Const_iterator<1>::operator!=
_TEXT	ENDS
PUBLIC	??D?$_Vector_iterator@EV?$allocator@E@std@@@std@@QBEAAEXZ ; std::_Vector_iterator<unsigned char,std::allocator<unsigned char> >::operator*
; Function compile flags: /Ogtpy
; File c:\program files (x86)\microsoft visual studio 9.0\vc\include\vector
;	COMDAT ??D?$_Vector_iterator@EV?$allocator@E@std@@@std@@QBEAAEXZ
_TEXT	SEGMENT
??D?$_Vector_iterator@EV?$allocator@E@std@@@std@@QBEAAEXZ PROC ; std::_Vector_iterator<unsigned char,std::allocator<unsigned char> >::operator*, COMDAT
; _this$ = ecx

; 338  : 		{	// return designated object

  00000	56		 push	 esi
  00001	8b f1		 mov	 esi, ecx

; 339  : 		return ((reference)**(_Mybase *)this);

  00003	8b 06		 mov	 eax, DWORD PTR [esi]
  00005	85 c0		 test	 eax, eax
  00007	75 0b		 jne	 SHORT $LN21@operator@8
  00009	e8 00 00 00 00	 call	 __invalid_parameter_noinfo
  0000e	8b 06		 mov	 eax, DWORD PTR [esi]
  00010	85 c0		 test	 eax, eax
  00012	74 04		 je	 SHORT $LN17@operator@8
$LN21@operator@8:
  00014	8b 00		 mov	 eax, DWORD PTR [eax]
  00016	eb 02		 jmp	 SHORT $LN18@operator@8
$LN17@operator@8:
  00018	33 c0		 xor	 eax, eax
$LN18@operator@8:
  0001a	8b 4e 04	 mov	 ecx, DWORD PTR [esi+4]
  0001d	3b 48 10	 cmp	 ecx, DWORD PTR [eax+16]
  00020	72 0a		 jb	 SHORT $LN22@operator@8
  00022	e8 00 00 00 00	 call	 __invalid_parameter_noinfo
  00027	8b 46 04	 mov	 eax, DWORD PTR [esi+4]
  0002a	5e		 pop	 esi

; 340  : 		}

  0002b	c3		 ret	 0
$LN22@operator@8:

; 339  : 		return ((reference)**(_Mybase *)this);

  0002c	8b c1		 mov	 eax, ecx
  0002e	5e		 pop	 esi

; 340  : 		}

  0002f	c3		 ret	 0
??D?$_Vector_iterator@EV?$allocator@E@std@@@std@@QBEAAEXZ ENDP ; std::_Vector_iterator<unsigned char,std::allocator<unsigned char> >::operator*
_TEXT	ENDS
PUBLIC	?_Eos@?$basic_string@DU?$char_traits@D@std@@V?$allocator@D@2@@std@@IAEXI@Z ; std::basic_string<char,std::char_traits<char>,std::allocator<char> >::_Eos
; Function compile flags: /Ogtpy
; File c:\program files (x86)\microsoft visual studio 9.0\vc\include\xstring
;	COMDAT ?_Eos@?$basic_string@DU?$char_traits@D@std@@V?$allocator@D@2@@std@@IAEXI@Z
_TEXT	SEGMENT
__Newsize$ = 8						; size = 4
?_Eos@?$basic_string@DU?$char_traits@D@std@@V?$allocator@D@2@@std@@IAEXI@Z PROC ; std::basic_string<char,std::char_traits<char>,std::allocator<char> >::_Eos, COMDAT
; _this$ = ecx

; 2114 : 		_Traits::assign(_Myptr()[_Mysize = _Newsize], _Elem());

  00000	83 79 18 10	 cmp	 DWORD PTR [ecx+24], 16	; 00000010H
  00004	8b 44 24 04	 mov	 eax, DWORD PTR __Newsize$[esp-4]
  00008	89 41 14	 mov	 DWORD PTR [ecx+20], eax
  0000b	72 0a		 jb	 SHORT $LN5@Eos
  0000d	8b 49 04	 mov	 ecx, DWORD PTR [ecx+4]
  00010	c6 04 01 00	 mov	 BYTE PTR [ecx+eax], 0

; 2115 : 		}

  00014	c2 04 00	 ret	 4

; 2114 : 		_Traits::assign(_Myptr()[_Mysize = _Newsize], _Elem());

$LN5@Eos:
  00017	c6 44 01 04 00	 mov	 BYTE PTR [ecx+eax+4], 0

; 2115 : 		}

  0001c	c2 04 00	 ret	 4
?_Eos@?$basic_string@DU?$char_traits@D@std@@V?$allocator@D@2@@std@@IAEXI@Z ENDP ; std::basic_string<char,std::char_traits<char>,std::allocator<char> >::_Eos
_TEXT	ENDS
PUBLIC	?_Eos@?$basic_string@_WU?$char_traits@_W@std@@V?$allocator@_W@2@@std@@IAEXI@Z ; std::basic_string<wchar_t,std::char_traits<wchar_t>,std::allocator<wchar_t> >::_Eos
; Function compile flags: /Ogtpy
;	COMDAT ?_Eos@?$basic_string@_WU?$char_traits@_W@std@@V?$allocator@_W@2@@std@@IAEXI@Z
_TEXT	SEGMENT
__Newsize$ = 8						; size = 4
?_Eos@?$basic_string@_WU?$char_traits@_W@std@@V?$allocator@_W@2@@std@@IAEXI@Z PROC ; std::basic_string<wchar_t,std::char_traits<wchar_t>,std::allocator<wchar_t> >::_Eos, COMDAT
; _this$ = ecx

; 2114 : 		_Traits::assign(_Myptr()[_Mysize = _Newsize], _Elem());

  00000	8b 44 24 04	 mov	 eax, DWORD PTR __Newsize$[esp-4]
  00004	33 d2		 xor	 edx, edx
  00006	83 79 18 08	 cmp	 DWORD PTR [ecx+24], 8
  0000a	89 41 14	 mov	 DWORD PTR [ecx+20], eax
  0000d	72 0a		 jb	 SHORT $LN5@Eos@2
  0000f	8b 49 04	 mov	 ecx, DWORD PTR [ecx+4]
  00012	66 89 14 41	 mov	 WORD PTR [ecx+eax*2], dx

; 2115 : 		}

  00016	c2 04 00	 ret	 4

; 2114 : 		_Traits::assign(_Myptr()[_Mysize = _Newsize], _Elem());

$LN5@Eos@2:
  00019	66 89 54 41 04	 mov	 WORD PTR [ecx+eax*2+4], dx

; 2115 : 		}

  0001e	c2 04 00	 ret	 4
?_Eos@?$basic_string@_WU?$char_traits@_W@std@@V?$allocator@_W@2@@std@@IAEXI@Z ENDP ; std::basic_string<wchar_t,std::char_traits<wchar_t>,std::allocator<wchar_t> >::_Eos
_TEXT	ENDS
PUBLIC	?max_size@?$vector@EV?$allocator@E@std@@@std@@QBEIXZ ; std::vector<unsigned char,std::allocator<unsigned char> >::max_size
; Function compile flags: /Ogtpy
; File c:\program files (x86)\microsoft visual studio 9.0\vc\include\vector
;	COMDAT ?max_size@?$vector@EV?$allocator@E@std@@@std@@QBEIXZ
_TEXT	SEGMENT
?max_size@?$vector@EV?$allocator@E@std@@@std@@QBEIXZ PROC ; std::vector<unsigned char,std::allocator<unsigned char> >::max_size, COMDAT
; _this$ = ecx

; 731  : 		return (this->_Alval.max_size());

  00000	83 c8 ff	 or	 eax, -1

; 732  : 		}

  00003	c3		 ret	 0
?max_size@?$vector@EV?$allocator@E@std@@@std@@QBEIXZ ENDP ; std::vector<unsigned char,std::allocator<unsigned char> >::max_size
_TEXT	ENDS
PUBLIC	?allocate@?$allocator@E@std@@QAEPAEI@Z		; std::allocator<unsigned char>::allocate
; Function compile flags: /Ogtpy
; File c:\program files (x86)\microsoft visual studio 9.0\vc\include\xmemory
;	COMDAT ?allocate@?$allocator@E@std@@QAEPAEI@Z
_TEXT	SEGMENT
__Count$ = 8						; size = 4
?allocate@?$allocator@E@std@@QAEPAEI@Z PROC		; std::allocator<unsigned char>::allocate, COMDAT
; _this$ = ecx

; 145  : 		return (_Allocate(_Count, (pointer)0));

  00000	8b 44 24 04	 mov	 eax, DWORD PTR __Count$[esp-4]
  00004	6a 00		 push	 0
  00006	50		 push	 eax
  00007	e8 00 00 00 00	 call	 ??$_Allocate@E@std@@YAPAEIPAE@Z ; std::_Allocate<unsigned char>
  0000c	83 c4 08	 add	 esp, 8

; 146  : 		}

  0000f	c2 04 00	 ret	 4
?allocate@?$allocator@E@std@@QAEPAEI@Z ENDP		; std::allocator<unsigned char>::allocate
_TEXT	ENDS
PUBLIC	?allocate@?$allocator@U_Node@?$_List_nod@USecurityTokenKeyfilePath@CipherShed@@V?$allocator@USecurityTokenKeyfilePath@CipherShed@@@std@@@std@@@std@@QAEPAU_Node@?$_List_nod@USecurityTokenKeyfilePath@CipherShed@@V?$allocator@USecurityTokenKeyfilePath@CipherShed@@@std@@@2@I@Z ; std::allocator<std::_List_nod<CipherShed::SecurityTokenKeyfilePath,std::allocator<CipherShed::SecurityTokenKeyfilePath> >::_Node>::allocate
; Function compile flags: /Ogtpy
;	COMDAT ?allocate@?$allocator@U_Node@?$_List_nod@USecurityTokenKeyfilePath@CipherShed@@V?$allocator@USecurityTokenKeyfilePath@CipherShed@@@std@@@std@@@std@@QAEPAU_Node@?$_List_nod@USecurityTokenKeyfilePath@CipherShed@@V?$allocator@USecurityTokenKeyfilePath@CipherShed@@@std@@@2@I@Z
_TEXT	SEGMENT
__Count$ = 8						; size = 4
?allocate@?$allocator@U_Node@?$_List_nod@USecurityTokenKeyfilePath@CipherShed@@V?$allocator@USecurityTokenKeyfilePath@CipherShed@@@std@@@std@@@std@@QAEPAU_Node@?$_List_nod@USecurityTokenKeyfilePath@CipherShed@@V?$allocator@USecurityTokenKeyfilePath@CipherShed@@@std@@@2@I@Z PROC ; std::allocator<std::_List_nod<CipherShed::SecurityTokenKeyfilePath,std::allocator<CipherShed::SecurityTokenKeyfilePath> >::_Node>::allocate, COMDAT
; _this$ = ecx

; 145  : 		return (_Allocate(_Count, (pointer)0));

  00000	8b 44 24 04	 mov	 eax, DWORD PTR __Count$[esp-4]
  00004	6a 00		 push	 0
  00006	50		 push	 eax
  00007	e8 00 00 00 00	 call	 ??$_Allocate@U_Node@?$_List_nod@USecurityTokenKeyfilePath@CipherShed@@V?$allocator@USecurityTokenKeyfilePath@CipherShed@@@std@@@std@@@std@@YAPAU_Node@?$_List_nod@USecurityTokenKeyfilePath@CipherShed@@V?$allocator@USecurityTokenKeyfilePath@CipherShed@@@std@@@0@IPAU120@@Z ; std::_Allocate<std::_List_nod<CipherShed::SecurityTokenKeyfilePath,std::allocator<CipherShed::SecurityTokenKeyfilePath> >::_Node>
  0000c	83 c4 08	 add	 esp, 8

; 146  : 		}

  0000f	c2 04 00	 ret	 4
?allocate@?$allocator@U_Node@?$_List_nod@USecurityTokenKeyfilePath@CipherShed@@V?$allocator@USecurityTokenKeyfilePath@CipherShed@@@std@@@std@@@std@@QAEPAU_Node@?$_List_nod@USecurityTokenKeyfilePath@CipherShed@@V?$allocator@USecurityTokenKeyfilePath@CipherShed@@@std@@@2@I@Z ENDP ; std::allocator<std::_List_nod<CipherShed::SecurityTokenKeyfilePath,std::allocator<CipherShed::SecurityTokenKeyfilePath> >::_Node>::allocate
_TEXT	ENDS
PUBLIC	?construct@?$allocator@PAU_Node@?$_List_nod@USecurityTokenKeyfilePath@CipherShed@@V?$allocator@USecurityTokenKeyfilePath@CipherShed@@@std@@@std@@@std@@QAEXPAPAU_Node@?$_List_nod@USecurityTokenKeyfilePath@CipherShed@@V?$allocator@USecurityTokenKeyfilePath@CipherShed@@@std@@@2@ABQAU342@@Z ; std::allocator<std::_List_nod<CipherShed::SecurityTokenKeyfilePath,std::allocator<CipherShed::SecurityTokenKeyfilePath> >::_Node *>::construct
; Function compile flags: /Ogtpy
;	COMDAT ?construct@?$allocator@PAU_Node@?$_List_nod@USecurityTokenKeyfilePath@CipherShed@@V?$allocator@USecurityTokenKeyfilePath@CipherShed@@@std@@@std@@@std@@QAEXPAPAU_Node@?$_List_nod@USecurityTokenKeyfilePath@CipherShed@@V?$allocator@USecurityTokenKeyfilePath@CipherShed@@@std@@@2@ABQAU342@@Z
_TEXT	SEGMENT
__Ptr$ = 8						; size = 4
__Val$ = 12						; size = 4
?construct@?$allocator@PAU_Node@?$_List_nod@USecurityTokenKeyfilePath@CipherShed@@V?$allocator@USecurityTokenKeyfilePath@CipherShed@@@std@@@std@@@std@@QAEXPAPAU_Node@?$_List_nod@USecurityTokenKeyfilePath@CipherShed@@V?$allocator@USecurityTokenKeyfilePath@CipherShed@@@std@@@2@ABQAU342@@Z PROC ; std::allocator<std::_List_nod<CipherShed::SecurityTokenKeyfilePath,std::allocator<CipherShed::SecurityTokenKeyfilePath> >::_Node *>::construct, COMDAT
; _this$ = ecx

; 155  : 		_Construct(_Ptr, _Val);

  00000	8b 44 24 04	 mov	 eax, DWORD PTR __Ptr$[esp-4]
  00004	85 c0		 test	 eax, eax
  00006	74 08		 je	 SHORT $LN5@construct
  00008	8b 4c 24 08	 mov	 ecx, DWORD PTR __Val$[esp-4]
  0000c	8b 11		 mov	 edx, DWORD PTR [ecx]
  0000e	89 10		 mov	 DWORD PTR [eax], edx
$LN5@construct:

; 156  : 		}

  00010	c2 08 00	 ret	 8
?construct@?$allocator@PAU_Node@?$_List_nod@USecurityTokenKeyfilePath@CipherShed@@V?$allocator@USecurityTokenKeyfilePath@CipherShed@@@std@@@std@@@std@@QAEXPAPAU_Node@?$_List_nod@USecurityTokenKeyfilePath@CipherShed@@V?$allocator@USecurityTokenKeyfilePath@CipherShed@@@std@@@2@ABQAU342@@Z ENDP ; std::allocator<std::_List_nod<CipherShed::SecurityTokenKeyfilePath,std::allocator<CipherShed::SecurityTokenKeyfilePath> >::_Node *>::construct
_TEXT	ENDS
PUBLIC	?destroy@?$allocator@PAU_Node@?$_List_nod@USecurityTokenKeyfilePath@CipherShed@@V?$allocator@USecurityTokenKeyfilePath@CipherShed@@@std@@@std@@@std@@QAEXPAPAU_Node@?$_List_nod@USecurityTokenKeyfilePath@CipherShed@@V?$allocator@USecurityTokenKeyfilePath@CipherShed@@@std@@@2@@Z ; std::allocator<std::_List_nod<CipherShed::SecurityTokenKeyfilePath,std::allocator<CipherShed::SecurityTokenKeyfilePath> >::_Node *>::destroy
; Function compile flags: /Ogtpy
;	COMDAT ?destroy@?$allocator@PAU_Node@?$_List_nod@USecurityTokenKeyfilePath@CipherShed@@V?$allocator@USecurityTokenKeyfilePath@CipherShed@@@std@@@std@@@std@@QAEXPAPAU_Node@?$_List_nod@USecurityTokenKeyfilePath@CipherShed@@V?$allocator@USecurityTokenKeyfilePath@CipherShed@@@std@@@2@@Z
_TEXT	SEGMENT
__Ptr$ = 8						; size = 4
?destroy@?$allocator@PAU_Node@?$_List_nod@USecurityTokenKeyfilePath@CipherShed@@V?$allocator@USecurityTokenKeyfilePath@CipherShed@@@std@@@std@@@std@@QAEXPAPAU_Node@?$_List_nod@USecurityTokenKeyfilePath@CipherShed@@V?$allocator@USecurityTokenKeyfilePath@CipherShed@@@std@@@2@@Z PROC ; std::allocator<std::_List_nod<CipherShed::SecurityTokenKeyfilePath,std::allocator<CipherShed::SecurityTokenKeyfilePath> >::_Node *>::destroy, COMDAT
; _this$ = ecx

; 160  : 		_Destroy(_Ptr);
; 161  : 		}

  00000	c2 04 00	 ret	 4
?destroy@?$allocator@PAU_Node@?$_List_nod@USecurityTokenKeyfilePath@CipherShed@@V?$allocator@USecurityTokenKeyfilePath@CipherShed@@@std@@@std@@@std@@QAEXPAPAU_Node@?$_List_nod@USecurityTokenKeyfilePath@CipherShed@@V?$allocator@USecurityTokenKeyfilePath@CipherShed@@@std@@@2@@Z ENDP ; std::allocator<std::_List_nod<CipherShed::SecurityTokenKeyfilePath,std::allocator<CipherShed::SecurityTokenKeyfilePath> >::_Node *>::destroy
_TEXT	ENDS
PUBLIC	?max_size@?$basic_string@DU?$char_traits@D@std@@V?$allocator@D@2@@std@@QBEIXZ ; std::basic_string<char,std::char_traits<char>,std::allocator<char> >::max_size
; Function compile flags: /Ogtpy
; File c:\program files (x86)\microsoft visual studio 9.0\vc\include\xstring
;	COMDAT ?max_size@?$basic_string@DU?$char_traits@D@std@@V?$allocator@D@2@@std@@QBEIXZ
_TEXT	SEGMENT
?max_size@?$basic_string@DU?$char_traits@D@std@@V?$allocator@D@2@@std@@QBEIXZ PROC ; std::basic_string<char,std::char_traits<char>,std::allocator<char> >::max_size, COMDAT
; _this$ = ecx

; 1671 : 		size_type _Num = _Mybase::_Alval.max_size();
; 1672 : 		return (_Num <= 1 ? 1 : _Num - 1);

  00000	b8 fe ff ff ff	 mov	 eax, -2			; fffffffeH

; 1673 : 		}

  00005	c3		 ret	 0
?max_size@?$basic_string@DU?$char_traits@D@std@@V?$allocator@D@2@@std@@QBEIXZ ENDP ; std::basic_string<char,std::char_traits<char>,std::allocator<char> >::max_size
_TEXT	ENDS
PUBLIC	?max_size@?$basic_string@_WU?$char_traits@_W@std@@V?$allocator@_W@2@@std@@QBEIXZ ; std::basic_string<wchar_t,std::char_traits<wchar_t>,std::allocator<wchar_t> >::max_size
; Function compile flags: /Ogtpy
;	COMDAT ?max_size@?$basic_string@_WU?$char_traits@_W@std@@V?$allocator@_W@2@@std@@QBEIXZ
_TEXT	SEGMENT
?max_size@?$basic_string@_WU?$char_traits@_W@std@@V?$allocator@_W@2@@std@@QBEIXZ PROC ; std::basic_string<wchar_t,std::char_traits<wchar_t>,std::allocator<wchar_t> >::max_size, COMDAT
; _this$ = ecx

; 1671 : 		size_type _Num = _Mybase::_Alval.max_size();
; 1672 : 		return (_Num <= 1 ? 1 : _Num - 1);

  00000	b8 fe ff ff 7f	 mov	 eax, 2147483646		; 7ffffffeH

; 1673 : 		}

  00005	c3		 ret	 0
?max_size@?$basic_string@_WU?$char_traits@_W@std@@V?$allocator@_W@2@@std@@QBEIXZ ENDP ; std::basic_string<wchar_t,std::char_traits<wchar_t>,std::allocator<wchar_t> >::max_size
_TEXT	ENDS
PUBLIC	?allocate@?$allocator@V_Aux_cont@std@@@std@@QAEPAV_Aux_cont@2@I@Z ; std::allocator<std::_Aux_cont>::allocate
; Function compile flags: /Ogtpy
; File c:\program files (x86)\microsoft visual studio 9.0\vc\include\xmemory
;	COMDAT ?allocate@?$allocator@V_Aux_cont@std@@@std@@QAEPAV_Aux_cont@2@I@Z
_TEXT	SEGMENT
__Count$ = 8						; size = 4
?allocate@?$allocator@V_Aux_cont@std@@@std@@QAEPAV_Aux_cont@2@I@Z PROC ; std::allocator<std::_Aux_cont>::allocate, COMDAT
; _this$ = ecx

; 145  : 		return (_Allocate(_Count, (pointer)0));

  00000	8b 44 24 04	 mov	 eax, DWORD PTR __Count$[esp-4]
  00004	6a 00		 push	 0
  00006	50		 push	 eax
  00007	e8 00 00 00 00	 call	 ??$_Allocate@V_Aux_cont@std@@@std@@YAPAV_Aux_cont@0@IPAV10@@Z ; std::_Allocate<std::_Aux_cont>
  0000c	83 c4 08	 add	 esp, 8

; 146  : 		}

  0000f	c2 04 00	 ret	 4
?allocate@?$allocator@V_Aux_cont@std@@@std@@QAEPAV_Aux_cont@2@I@Z ENDP ; std::allocator<std::_Aux_cont>::allocate
_TEXT	ENDS
PUBLIC	??0?$_Ranit@EHPBEABE@std@@QAE@XZ		; std::_Ranit<unsigned char,int,unsigned char const *,unsigned char const &>::_Ranit<unsigned char,int,unsigned char const *,unsigned char const &>
; Function compile flags: /Ogtpy
;	COMDAT ??0?$_Ranit@EHPBEABE@std@@QAE@XZ
_TEXT	SEGMENT
??0?$_Ranit@EHPBEABE@std@@QAE@XZ PROC			; std::_Ranit<unsigned char,int,unsigned char const *,unsigned char const &>::_Ranit<unsigned char,int,unsigned char const *,unsigned char const &>, COMDAT
; _this$ = ecx
  00000	8b c1		 mov	 eax, ecx
  00002	c7 00 00 00 00
	00		 mov	 DWORD PTR [eax], 0
  00008	c3		 ret	 0
??0?$_Ranit@EHPBEABE@std@@QAE@XZ ENDP			; std::_Ranit<unsigned char,int,unsigned char const *,unsigned char const &>::_Ranit<unsigned char,int,unsigned char const *,unsigned char const &>
_TEXT	ENDS
PUBLIC	?allocate@?$allocator@D@std@@QAEPADI@Z		; std::allocator<char>::allocate
; Function compile flags: /Ogtpy
;	COMDAT ?allocate@?$allocator@D@std@@QAEPADI@Z
_TEXT	SEGMENT
__Count$ = 8						; size = 4
?allocate@?$allocator@D@std@@QAEPADI@Z PROC		; std::allocator<char>::allocate, COMDAT
; _this$ = ecx

; 145  : 		return (_Allocate(_Count, (pointer)0));

  00000	8b 44 24 04	 mov	 eax, DWORD PTR __Count$[esp-4]
  00004	6a 00		 push	 0
  00006	50		 push	 eax
  00007	e8 00 00 00 00	 call	 ??$_Allocate@D@std@@YAPADIPAD@Z ; std::_Allocate<char>
  0000c	83 c4 08	 add	 esp, 8

; 146  : 		}

  0000f	c2 04 00	 ret	 4
?allocate@?$allocator@D@std@@QAEPADI@Z ENDP		; std::allocator<char>::allocate
_TEXT	ENDS
PUBLIC	?allocate@?$allocator@_W@std@@QAEPA_WI@Z	; std::allocator<wchar_t>::allocate
; Function compile flags: /Ogtpy
;	COMDAT ?allocate@?$allocator@_W@std@@QAEPA_WI@Z
_TEXT	SEGMENT
__Count$ = 8						; size = 4
?allocate@?$allocator@_W@std@@QAEPA_WI@Z PROC		; std::allocator<wchar_t>::allocate, COMDAT
; _this$ = ecx

; 145  : 		return (_Allocate(_Count, (pointer)0));

  00000	8b 44 24 04	 mov	 eax, DWORD PTR __Count$[esp-4]
  00004	6a 00		 push	 0
  00006	50		 push	 eax
  00007	e8 00 00 00 00	 call	 ??$_Allocate@_W@std@@YAPA_WIPA_W@Z ; std::_Allocate<wchar_t>
  0000c	83 c4 08	 add	 esp, 8

; 146  : 		}

  0000f	c2 04 00	 ret	 4
?allocate@?$allocator@_W@std@@QAEPA_WI@Z ENDP		; std::allocator<wchar_t>::allocate
_TEXT	ENDS
PUBLIC	??0?$_Container_base_aux_alloc_real@V?$allocator@USecurityTokenKeyfilePath@CipherShed@@@std@@@std@@IAE@V?$allocator@USecurityTokenKeyfilePath@CipherShed@@@1@@Z ; std::_Container_base_aux_alloc_real<std::allocator<CipherShed::SecurityTokenKeyfilePath> >::_Container_base_aux_alloc_real<std::allocator<CipherShed::SecurityTokenKeyfilePath> >
; Function compile flags: /Ogtpy
; File c:\program files (x86)\microsoft visual studio 9.0\vc\include\xutility
;	COMDAT ??0?$_Container_base_aux_alloc_real@V?$allocator@USecurityTokenKeyfilePath@CipherShed@@@std@@@std@@IAE@V?$allocator@USecurityTokenKeyfilePath@CipherShed@@@1@@Z
_TEXT	SEGMENT
__Al$ = 8						; size = 1
??0?$_Container_base_aux_alloc_real@V?$allocator@USecurityTokenKeyfilePath@CipherShed@@@std@@@std@@IAE@V?$allocator@USecurityTokenKeyfilePath@CipherShed@@@1@@Z PROC ; std::_Container_base_aux_alloc_real<std::allocator<CipherShed::SecurityTokenKeyfilePath> >::_Container_base_aux_alloc_real<std::allocator<CipherShed::SecurityTokenKeyfilePath> >, COMDAT
; _this$ = ecx

; 419  : 		{

  00000	56		 push	 esi

; 420  : 		_Myownedaux = new (_Alaux.allocate(1)) _Aux_cont(this);

  00001	6a 04		 push	 4
  00003	8b f1		 mov	 esi, ecx
  00005	e8 00 00 00 00	 call	 ??2@YAPAXI@Z		; operator new
  0000a	83 c4 04	 add	 esp, 4
  0000d	85 c0		 test	 eax, eax
  0000f	74 0a		 je	 SHORT $LN3@Container_
  00011	89 30		 mov	 DWORD PTR [eax], esi
  00013	89 06		 mov	 DWORD PTR [esi], eax

; 421  : 		}

  00015	8b c6		 mov	 eax, esi
  00017	5e		 pop	 esi
  00018	c2 04 00	 ret	 4
$LN3@Container_:

; 420  : 		_Myownedaux = new (_Alaux.allocate(1)) _Aux_cont(this);

  0001b	33 c0		 xor	 eax, eax
  0001d	89 06		 mov	 DWORD PTR [esi], eax

; 421  : 		}

  0001f	8b c6		 mov	 eax, esi
  00021	5e		 pop	 esi
  00022	c2 04 00	 ret	 4
??0?$_Container_base_aux_alloc_real@V?$allocator@USecurityTokenKeyfilePath@CipherShed@@@std@@@std@@IAE@V?$allocator@USecurityTokenKeyfilePath@CipherShed@@@1@@Z ENDP ; std::_Container_base_aux_alloc_real<std::allocator<CipherShed::SecurityTokenKeyfilePath> >::_Container_base_aux_alloc_real<std::allocator<CipherShed::SecurityTokenKeyfilePath> >
_TEXT	ENDS
PUBLIC	??$copy_s@U?$char_traits@D@std@@@_Traits_helper@std@@YAPADPADIPBDI@Z ; std::_Traits_helper::copy_s<std::char_traits<char> >
; Function compile flags: /Ogtpy
; File c:\program files (x86)\microsoft visual studio 9.0\vc\include\iosfwd
;	COMDAT ??$copy_s@U?$char_traits@D@std@@@_Traits_helper@std@@YAPADPADIPBDI@Z
_TEXT	SEGMENT
__First1$ = 8						; size = 4
__Size$ = 12						; size = 4
__First2$ = 16						; size = 4
__Count$ = 20						; size = 4
??$copy_s@U?$char_traits@D@std@@@_Traits_helper@std@@YAPADPADIPBDI@Z PROC ; std::_Traits_helper::copy_s<std::char_traits<char> >, COMDAT

; 589  : 		return copy_s<_Traits>(_First1, _Size, _First2, _Count, _Char_traits_cat<_Traits>());

  00000	8b 44 24 10	 mov	 eax, DWORD PTR __Count$[esp-4]
  00004	8b 4c 24 0c	 mov	 ecx, DWORD PTR __First2$[esp-4]
  00008	8b 54 24 08	 mov	 edx, DWORD PTR __Size$[esp-4]
  0000c	56		 push	 esi
  0000d	8b 74 24 08	 mov	 esi, DWORD PTR __First1$[esp]
  00011	50		 push	 eax
  00012	51		 push	 ecx
  00013	52		 push	 edx
  00014	56		 push	 esi
  00015	e8 00 00 00 00	 call	 _memcpy_s
  0001a	83 c4 10	 add	 esp, 16			; 00000010H
  0001d	8b c6		 mov	 eax, esi
  0001f	5e		 pop	 esi

; 590  : 	}

  00020	c3		 ret	 0
??$copy_s@U?$char_traits@D@std@@@_Traits_helper@std@@YAPADPADIPBDI@Z ENDP ; std::_Traits_helper::copy_s<std::char_traits<char> >
_TEXT	ENDS
PUBLIC	??$copy_s@U?$char_traits@_W@std@@@_Traits_helper@std@@YAPA_WPA_WIPB_WI@Z ; std::_Traits_helper::copy_s<std::char_traits<wchar_t> >
; Function compile flags: /Ogtpy
;	COMDAT ??$copy_s@U?$char_traits@_W@std@@@_Traits_helper@std@@YAPA_WPA_WIPB_WI@Z
_TEXT	SEGMENT
__First1$ = 8						; size = 4
__Size$ = 12						; size = 4
__First2$ = 16						; size = 4
__Count$ = 20						; size = 4
??$copy_s@U?$char_traits@_W@std@@@_Traits_helper@std@@YAPA_WPA_WIPB_WI@Z PROC ; std::_Traits_helper::copy_s<std::char_traits<wchar_t> >, COMDAT

; 589  : 		return copy_s<_Traits>(_First1, _Size, _First2, _Count, _Char_traits_cat<_Traits>());

  00000	8b 44 24 10	 mov	 eax, DWORD PTR __Count$[esp-4]
  00004	8b 54 24 0c	 mov	 edx, DWORD PTR __First2$[esp-4]
  00008	56		 push	 esi
  00009	8b 74 24 08	 mov	 esi, DWORD PTR __First1$[esp]
  0000d	8d 0c 00	 lea	 ecx, DWORD PTR [eax+eax]
  00010	8b 44 24 0c	 mov	 eax, DWORD PTR __Size$[esp]
  00014	51		 push	 ecx
  00015	52		 push	 edx
  00016	8d 0c 00	 lea	 ecx, DWORD PTR [eax+eax]
  00019	51		 push	 ecx
  0001a	56		 push	 esi
  0001b	e8 00 00 00 00	 call	 _memcpy_s
  00020	83 c4 10	 add	 esp, 16			; 00000010H
  00023	8b c6		 mov	 eax, esi
  00025	5e		 pop	 esi

; 590  : 	}

  00026	c3		 ret	 0
??$copy_s@U?$char_traits@_W@std@@@_Traits_helper@std@@YAPA_WPA_WIPB_WI@Z ENDP ; std::_Traits_helper::copy_s<std::char_traits<wchar_t> >
_TEXT	ENDS
PUBLIC	??$move_s@U?$char_traits@D@std@@@_Traits_helper@std@@YAPADPADIPBDI@Z ; std::_Traits_helper::move_s<std::char_traits<char> >
; Function compile flags: /Ogtpy
;	COMDAT ??$move_s@U?$char_traits@D@std@@@_Traits_helper@std@@YAPADPADIPBDI@Z
_TEXT	SEGMENT
__First1$ = 8						; size = 4
__Size$ = 12						; size = 4
__First2$ = 16						; size = 4
__Count$ = 20						; size = 4
??$move_s@U?$char_traits@D@std@@@_Traits_helper@std@@YAPADPADIPBDI@Z PROC ; std::_Traits_helper::move_s<std::char_traits<char> >, COMDAT

; 616  : 		return move_s<_Traits>(_First1, _Size, _First2, _Count, _Char_traits_cat<_Traits>());

  00000	8b 44 24 10	 mov	 eax, DWORD PTR __Count$[esp-4]
  00004	8b 4c 24 0c	 mov	 ecx, DWORD PTR __First2$[esp-4]
  00008	8b 54 24 08	 mov	 edx, DWORD PTR __Size$[esp-4]
  0000c	56		 push	 esi
  0000d	8b 74 24 08	 mov	 esi, DWORD PTR __First1$[esp]
  00011	50		 push	 eax
  00012	51		 push	 ecx
  00013	52		 push	 edx
  00014	56		 push	 esi
  00015	e8 00 00 00 00	 call	 _memmove_s
  0001a	83 c4 10	 add	 esp, 16			; 00000010H
  0001d	8b c6		 mov	 eax, esi
  0001f	5e		 pop	 esi

; 617  : 	}

  00020	c3		 ret	 0
??$move_s@U?$char_traits@D@std@@@_Traits_helper@std@@YAPADPADIPBDI@Z ENDP ; std::_Traits_helper::move_s<std::char_traits<char> >
_TEXT	ENDS
PUBLIC	??$move_s@U?$char_traits@_W@std@@@_Traits_helper@std@@YAPA_WPA_WIPB_WI@Z ; std::_Traits_helper::move_s<std::char_traits<wchar_t> >
; Function compile flags: /Ogtpy
;	COMDAT ??$move_s@U?$char_traits@_W@std@@@_Traits_helper@std@@YAPA_WPA_WIPB_WI@Z
_TEXT	SEGMENT
__First1$ = 8						; size = 4
__Size$ = 12						; size = 4
__First2$ = 16						; size = 4
__Count$ = 20						; size = 4
??$move_s@U?$char_traits@_W@std@@@_Traits_helper@std@@YAPA_WPA_WIPB_WI@Z PROC ; std::_Traits_helper::move_s<std::char_traits<wchar_t> >, COMDAT

; 616  : 		return move_s<_Traits>(_First1, _Size, _First2, _Count, _Char_traits_cat<_Traits>());

  00000	8b 44 24 10	 mov	 eax, DWORD PTR __Count$[esp-4]
  00004	8b 54 24 0c	 mov	 edx, DWORD PTR __First2$[esp-4]
  00008	56		 push	 esi
  00009	8b 74 24 08	 mov	 esi, DWORD PTR __First1$[esp]
  0000d	8d 0c 00	 lea	 ecx, DWORD PTR [eax+eax]
  00010	8b 44 24 0c	 mov	 eax, DWORD PTR __Size$[esp]
  00014	51		 push	 ecx
  00015	52		 push	 edx
  00016	8d 0c 00	 lea	 ecx, DWORD PTR [eax+eax]
  00019	51		 push	 ecx
  0001a	56		 push	 esi
  0001b	e8 00 00 00 00	 call	 _memmove_s
  00020	83 c4 10	 add	 esp, 16			; 00000010H
  00023	8b c6		 mov	 eax, esi
  00025	5e		 pop	 esi

; 617  : 	}

  00026	c3		 ret	 0
??$move_s@U?$char_traits@_W@std@@@_Traits_helper@std@@YAPA_WPA_WIPB_WI@Z ENDP ; std::_Traits_helper::move_s<std::char_traits<wchar_t> >
_TEXT	ENDS
PUBLIC	??$_Destroy_range@V?$allocator@E@std@@@std@@YAXPAE0AAV?$allocator@E@0@@Z ; std::_Destroy_range<std::allocator<unsigned char> >
; Function compile flags: /Ogtpy
; File c:\program files (x86)\microsoft visual studio 9.0\vc\include\xmemory
;	COMDAT ??$_Destroy_range@V?$allocator@E@std@@@std@@YAXPAE0AAV?$allocator@E@0@@Z
_TEXT	SEGMENT
__First$ = 8						; size = 4
__Last$ = 12						; size = 4
__Al$ = 16						; size = 4
??$_Destroy_range@V?$allocator@E@std@@@std@@YAXPAE0AAV?$allocator@E@0@@Z PROC ; std::_Destroy_range<std::allocator<unsigned char> >, COMDAT

; 225  : 	_Destroy_range(_First, _Last, _Al, _Ptr_cat(_First, _Last));
; 226  : 	}

  00000	c3		 ret	 0
??$_Destroy_range@V?$allocator@E@std@@@std@@YAXPAE0AAV?$allocator@E@0@@Z ENDP ; std::_Destroy_range<std::allocator<unsigned char> >
_TEXT	ENDS
PUBLIC	??0?$_Bidit@USecurityTokenKeyfilePath@CipherShed@@HPBU12@ABU12@@std@@QAE@XZ ; std::_Bidit<CipherShed::SecurityTokenKeyfilePath,int,CipherShed::SecurityTokenKeyfilePath const *,CipherShed::SecurityTokenKeyfilePath const &>::_Bidit<CipherShed::SecurityTokenKeyfilePath,int,CipherShed::SecurityTokenKeyfilePath const *,CipherShed::SecurityTokenKeyfilePath const &>
; Function compile flags: /Ogtpy
;	COMDAT ??0?$_Bidit@USecurityTokenKeyfilePath@CipherShed@@HPBU12@ABU12@@std@@QAE@XZ
_TEXT	SEGMENT
??0?$_Bidit@USecurityTokenKeyfilePath@CipherShed@@HPBU12@ABU12@@std@@QAE@XZ PROC ; std::_Bidit<CipherShed::SecurityTokenKeyfilePath,int,CipherShed::SecurityTokenKeyfilePath const *,CipherShed::SecurityTokenKeyfilePath const &>::_Bidit<CipherShed::SecurityTokenKeyfilePath,int,CipherShed::SecurityTokenKeyfilePath const *,CipherShed::SecurityTokenKeyfilePath const &>, COMDAT
; _this$ = ecx
  00000	8b c1		 mov	 eax, ecx
  00002	c7 00 00 00 00
	00		 mov	 DWORD PTR [eax], 0
  00008	c3		 ret	 0
??0?$_Bidit@USecurityTokenKeyfilePath@CipherShed@@HPBU12@ABU12@@std@@QAE@XZ ENDP ; std::_Bidit<CipherShed::SecurityTokenKeyfilePath,int,CipherShed::SecurityTokenKeyfilePath const *,CipherShed::SecurityTokenKeyfilePath const &>::_Bidit<CipherShed::SecurityTokenKeyfilePath,int,CipherShed::SecurityTokenKeyfilePath const *,CipherShed::SecurityTokenKeyfilePath const &>
_TEXT	ENDS
PUBLIC	??E?$_Const_iterator@$00@?$list@USecurityTokenKeyfilePath@CipherShed@@V?$allocator@USecurityTokenKeyfilePath@CipherShed@@@std@@@std@@QAE?AV012@H@Z ; std::list<CipherShed::SecurityTokenKeyfilePath,std::allocator<CipherShed::SecurityTokenKeyfilePath> >::_Const_iterator<1>::operator++
; Function compile flags: /Ogtpy
; File c:\program files (x86)\microsoft visual studio 9.0\vc\include\list
;	COMDAT ??E?$_Const_iterator@$00@?$list@USecurityTokenKeyfilePath@CipherShed@@V?$allocator@USecurityTokenKeyfilePath@CipherShed@@@std@@@std@@QAE?AV012@H@Z
_TEXT	SEGMENT
___$ReturnUdt$ = 8					; size = 4
___formal$ = 12						; size = 4
??E?$_Const_iterator@$00@?$list@USecurityTokenKeyfilePath@CipherShed@@V?$allocator@USecurityTokenKeyfilePath@CipherShed@@@std@@@std@@QAE?AV012@H@Z PROC ; std::list<CipherShed::SecurityTokenKeyfilePath,std::allocator<CipherShed::SecurityTokenKeyfilePath> >::_Const_iterator<1>::operator++, COMDAT
; _this$ = ecx

; 255  : 			{	// postincrement

  00000	56		 push	 esi
  00001	8b f1		 mov	 esi, ecx

; 256  : 			_Myt_iter _Tmp = *this;

  00003	8b 06		 mov	 eax, DWORD PTR [esi]
  00005	8b 4e 04	 mov	 ecx, DWORD PTR [esi+4]
  00008	57		 push	 edi
  00009	8b 7c 24 0c	 mov	 edi, DWORD PTR ___$ReturnUdt$[esp+4]
  0000d	89 07		 mov	 DWORD PTR [edi], eax
  0000f	89 4f 04	 mov	 DWORD PTR [edi+4], ecx

; 257  : 			++*this;

  00012	85 c0		 test	 eax, eax
  00014	75 0b		 jne	 SHORT $LN25@operator@9
  00016	e8 00 00 00 00	 call	 __invalid_parameter_noinfo
  0001b	8b 06		 mov	 eax, DWORD PTR [esi]
  0001d	85 c0		 test	 eax, eax
  0001f	74 04		 je	 SHORT $LN19@operator@9
$LN25@operator@9:
  00021	8b 00		 mov	 eax, DWORD PTR [eax]
  00023	eb 02		 jmp	 SHORT $LN20@operator@9
$LN19@operator@9:
  00025	33 c0		 xor	 eax, eax
$LN20@operator@9:
  00027	8b 56 04	 mov	 edx, DWORD PTR [esi+4]
  0002a	3b 50 14	 cmp	 edx, DWORD PTR [eax+20]
  0002d	75 05		 jne	 SHORT $LN5@operator@9
  0002f	e8 00 00 00 00	 call	 __invalid_parameter_noinfo
$LN5@operator@9:
  00034	8b 46 04	 mov	 eax, DWORD PTR [esi+4]
  00037	8b 08		 mov	 ecx, DWORD PTR [eax]

; 258  : 			return (_Tmp);

  00039	8b c7		 mov	 eax, edi
  0003b	5f		 pop	 edi
  0003c	89 4e 04	 mov	 DWORD PTR [esi+4], ecx
  0003f	5e		 pop	 esi

; 259  : 			}

  00040	c2 08 00	 ret	 8
??E?$_Const_iterator@$00@?$list@USecurityTokenKeyfilePath@CipherShed@@V?$allocator@USecurityTokenKeyfilePath@CipherShed@@@std@@@std@@QAE?AV012@H@Z ENDP ; std::list<CipherShed::SecurityTokenKeyfilePath,std::allocator<CipherShed::SecurityTokenKeyfilePath> >::_Const_iterator<1>::operator++
_TEXT	ENDS
PUBLIC	?max_size@?$list@USecurityTokenKeyfilePath@CipherShed@@V?$allocator@USecurityTokenKeyfilePath@CipherShed@@@std@@@std@@QBEIXZ ; std::list<CipherShed::SecurityTokenKeyfilePath,std::allocator<CipherShed::SecurityTokenKeyfilePath> >::max_size
; Function compile flags: /Ogtpy
;	COMDAT ?max_size@?$list@USecurityTokenKeyfilePath@CipherShed@@V?$allocator@USecurityTokenKeyfilePath@CipherShed@@@std@@@std@@QBEIXZ
_TEXT	SEGMENT
?max_size@?$list@USecurityTokenKeyfilePath@CipherShed@@V?$allocator@USecurityTokenKeyfilePath@CipherShed@@@std@@@std@@QBEIXZ PROC ; std::list<CipherShed::SecurityTokenKeyfilePath,std::allocator<CipherShed::SecurityTokenKeyfilePath> >::max_size, COMDAT
; _this$ = ecx

; 625  : 		return (this->_Alval.max_size());

  00000	b8 49 92 24 09	 mov	 eax, 153391689		; 09249249H

; 626  : 		}

  00005	c3		 ret	 0
?max_size@?$list@USecurityTokenKeyfilePath@CipherShed@@V?$allocator@USecurityTokenKeyfilePath@CipherShed@@@std@@@std@@QBEIXZ ENDP ; std::list<CipherShed::SecurityTokenKeyfilePath,std::allocator<CipherShed::SecurityTokenKeyfilePath> >::max_size
_TEXT	ENDS
PUBLIC	??1?$_Vector_val@EV?$allocator@E@std@@@std@@QAE@XZ ; std::_Vector_val<unsigned char,std::allocator<unsigned char> >::~_Vector_val<unsigned char,std::allocator<unsigned char> >
; Function compile flags: /Ogtpy
;	COMDAT ??1?$_Vector_val@EV?$allocator@E@std@@@std@@QAE@XZ
_TEXT	SEGMENT
??1?$_Vector_val@EV?$allocator@E@std@@@std@@QAE@XZ PROC	; std::_Vector_val<unsigned char,std::allocator<unsigned char> >::~_Vector_val<unsigned char,std::allocator<unsigned char> >, COMDAT
; _this$ = ecx
  00000	8b 01		 mov	 eax, DWORD PTR [ecx]
  00002	50		 push	 eax
  00003	e8 00 00 00 00	 call	 ??3@YAXPAX@Z		; operator delete
  00008	59		 pop	 ecx
  00009	c3		 ret	 0
??1?$_Vector_val@EV?$allocator@E@std@@@std@@QAE@XZ ENDP	; std::_Vector_val<unsigned char,std::allocator<unsigned char> >::~_Vector_val<unsigned char,std::allocator<unsigned char> >
_TEXT	ENDS
PUBLIC	??1?$_List_nod@USecurityTokenKeyfilePath@CipherShed@@V?$allocator@USecurityTokenKeyfilePath@CipherShed@@@std@@@std@@QAE@XZ ; std::_List_nod<CipherShed::SecurityTokenKeyfilePath,std::allocator<CipherShed::SecurityTokenKeyfilePath> >::~_List_nod<CipherShed::SecurityTokenKeyfilePath,std::allocator<CipherShed::SecurityTokenKeyfilePath> >
; Function compile flags: /Ogtpy
;	COMDAT ??1?$_List_nod@USecurityTokenKeyfilePath@CipherShed@@V?$allocator@USecurityTokenKeyfilePath@CipherShed@@@std@@@std@@QAE@XZ
_TEXT	SEGMENT
??1?$_List_nod@USecurityTokenKeyfilePath@CipherShed@@V?$allocator@USecurityTokenKeyfilePath@CipherShed@@@std@@@std@@QAE@XZ PROC ; std::_List_nod<CipherShed::SecurityTokenKeyfilePath,std::allocator<CipherShed::SecurityTokenKeyfilePath> >::~_List_nod<CipherShed::SecurityTokenKeyfilePath,std::allocator<CipherShed::SecurityTokenKeyfilePath> >, COMDAT
; _this$ = ecx
  00000	8b 01		 mov	 eax, DWORD PTR [ecx]
  00002	50		 push	 eax
  00003	e8 00 00 00 00	 call	 ??3@YAXPAX@Z		; operator delete
  00008	59		 pop	 ecx
  00009	c3		 ret	 0
??1?$_List_nod@USecurityTokenKeyfilePath@CipherShed@@V?$allocator@USecurityTokenKeyfilePath@CipherShed@@@std@@@std@@QAE@XZ ENDP ; std::_List_nod<CipherShed::SecurityTokenKeyfilePath,std::allocator<CipherShed::SecurityTokenKeyfilePath> >::~_List_nod<CipherShed::SecurityTokenKeyfilePath,std::allocator<CipherShed::SecurityTokenKeyfilePath> >
_TEXT	ENDS
PUBLIC	?_Tidy@?$basic_string@DU?$char_traits@D@std@@V?$allocator@D@2@@std@@IAEX_NI@Z ; std::basic_string<char,std::char_traits<char>,std::allocator<char> >::_Tidy
; Function compile flags: /Ogtpy
; File c:\program files (x86)\microsoft visual studio 9.0\vc\include\xstring
;	COMDAT ?_Tidy@?$basic_string@DU?$char_traits@D@std@@V?$allocator@D@2@@std@@IAEX_NI@Z
_TEXT	SEGMENT
__Built$ = 8						; size = 1
__Newsize$ = 12						; size = 4
?_Tidy@?$basic_string@DU?$char_traits@D@std@@V?$allocator@D@2@@std@@IAEX_NI@Z PROC ; std::basic_string<char,std::char_traits<char>,std::allocator<char> >::_Tidy, COMDAT
; _this$ = ecx

; 2149 : 		if (!_Built)

  00000	80 7c 24 04 00	 cmp	 BYTE PTR __Built$[esp-4], 0
  00005	56		 push	 esi
  00006	57		 push	 edi
  00007	8b 7c 24 10	 mov	 edi, DWORD PTR __Newsize$[esp+4]
  0000b	8b f1		 mov	 esi, ecx
  0000d	74 27		 je	 SHORT $LN15@Tidy

; 2150 : 			;
; 2151 : 		else if (_BUF_SIZE <= _Myres)

  0000f	83 7e 18 10	 cmp	 DWORD PTR [esi+24], 16	; 00000010H
  00013	72 21		 jb	 SHORT $LN15@Tidy

; 2152 : 			{	// copy any leftovers to small buffer and deallocate
; 2153 : 			_Elem *_Ptr = _Bx._Ptr;

  00015	8d 46 04	 lea	 eax, DWORD PTR [esi+4]
  00018	53		 push	 ebx
  00019	8b 18		 mov	 ebx, DWORD PTR [eax]

; 2154 : 			if (0 < _Newsize)

  0001b	85 ff		 test	 edi, edi
  0001d	76 0d		 jbe	 SHORT $LN13@Tidy

; 2155 : 				_Traits_helper::copy_s<_Traits>(_Bx._Buf, _BUF_SIZE, _Ptr, _Newsize);

  0001f	57		 push	 edi
  00020	53		 push	 ebx
  00021	6a 10		 push	 16			; 00000010H
  00023	50		 push	 eax
  00024	e8 00 00 00 00	 call	 _memcpy_s
  00029	83 c4 10	 add	 esp, 16			; 00000010H
$LN13@Tidy:

; 2156 : 			_Mybase::_Alval.deallocate(_Ptr, _Myres + 1);

  0002c	53		 push	 ebx
  0002d	e8 00 00 00 00	 call	 ??3@YAXPAX@Z		; operator delete
  00032	83 c4 04	 add	 esp, 4
  00035	5b		 pop	 ebx
$LN15@Tidy:

; 2157 : 			}
; 2158 : 		_Myres = _BUF_SIZE - 1;
; 2159 : 		_Eos(_Newsize);

  00036	89 7e 14	 mov	 DWORD PTR [esi+20], edi
  00039	c7 46 18 0f 00
	00 00		 mov	 DWORD PTR [esi+24], 15	; 0000000fH
  00040	c6 44 3e 04 00	 mov	 BYTE PTR [esi+edi+4], 0
  00045	5f		 pop	 edi
  00046	5e		 pop	 esi

; 2160 : 		}

  00047	c2 08 00	 ret	 8
?_Tidy@?$basic_string@DU?$char_traits@D@std@@V?$allocator@D@2@@std@@IAEX_NI@Z ENDP ; std::basic_string<char,std::char_traits<char>,std::allocator<char> >::_Tidy
_TEXT	ENDS
PUBLIC	?_Tidy@?$basic_string@_WU?$char_traits@_W@std@@V?$allocator@_W@2@@std@@IAEX_NI@Z ; std::basic_string<wchar_t,std::char_traits<wchar_t>,std::allocator<wchar_t> >::_Tidy
; Function compile flags: /Ogtpy
;	COMDAT ?_Tidy@?$basic_string@_WU?$char_traits@_W@std@@V?$allocator@_W@2@@std@@IAEX_NI@Z
_TEXT	SEGMENT
__Built$ = 8						; size = 1
__Newsize$ = 12						; size = 4
?_Tidy@?$basic_string@_WU?$char_traits@_W@std@@V?$allocator@_W@2@@std@@IAEX_NI@Z PROC ; std::basic_string<wchar_t,std::char_traits<wchar_t>,std::allocator<wchar_t> >::_Tidy, COMDAT
; _this$ = ecx

; 2149 : 		if (!_Built)

  00000	80 7c 24 04 00	 cmp	 BYTE PTR __Built$[esp-4], 0
  00005	56		 push	 esi
  00006	57		 push	 edi
  00007	8b 7c 24 10	 mov	 edi, DWORD PTR __Newsize$[esp+4]
  0000b	8b f1		 mov	 esi, ecx
  0000d	74 2a		 je	 SHORT $LN17@Tidy@2

; 2150 : 			;
; 2151 : 		else if (_BUF_SIZE <= _Myres)

  0000f	83 7e 18 08	 cmp	 DWORD PTR [esi+24], 8
  00013	72 24		 jb	 SHORT $LN17@Tidy@2

; 2152 : 			{	// copy any leftovers to small buffer and deallocate
; 2153 : 			_Elem *_Ptr = _Bx._Ptr;

  00015	8d 46 04	 lea	 eax, DWORD PTR [esi+4]
  00018	53		 push	 ebx
  00019	8b 18		 mov	 ebx, DWORD PTR [eax]

; 2154 : 			if (0 < _Newsize)

  0001b	85 ff		 test	 edi, edi
  0001d	76 10		 jbe	 SHORT $LN15@Tidy@2

; 2155 : 				_Traits_helper::copy_s<_Traits>(_Bx._Buf, _BUF_SIZE, _Ptr, _Newsize);

  0001f	8d 0c 3f	 lea	 ecx, DWORD PTR [edi+edi]
  00022	51		 push	 ecx
  00023	53		 push	 ebx
  00024	6a 10		 push	 16			; 00000010H
  00026	50		 push	 eax
  00027	e8 00 00 00 00	 call	 _memcpy_s
  0002c	83 c4 10	 add	 esp, 16			; 00000010H
$LN15@Tidy@2:

; 2156 : 			_Mybase::_Alval.deallocate(_Ptr, _Myres + 1);

  0002f	53		 push	 ebx
  00030	e8 00 00 00 00	 call	 ??3@YAXPAX@Z		; operator delete
  00035	83 c4 04	 add	 esp, 4
  00038	5b		 pop	 ebx
$LN17@Tidy@2:

; 2157 : 			}
; 2158 : 		_Myres = _BUF_SIZE - 1;
; 2159 : 		_Eos(_Newsize);

  00039	89 7e 14	 mov	 DWORD PTR [esi+20], edi
  0003c	c7 46 18 07 00
	00 00		 mov	 DWORD PTR [esi+24], 7
  00043	33 d2		 xor	 edx, edx
  00045	66 89 54 7e 04	 mov	 WORD PTR [esi+edi*2+4], dx
  0004a	5f		 pop	 edi
  0004b	5e		 pop	 esi

; 2160 : 		}

  0004c	c2 08 00	 ret	 8
?_Tidy@?$basic_string@_WU?$char_traits@_W@std@@V?$allocator@_W@2@@std@@IAEX_NI@Z ENDP ; std::basic_string<wchar_t,std::char_traits<wchar_t>,std::allocator<wchar_t> >::_Tidy
_TEXT	ENDS
PUBLIC	?_Buynode@?$list@USecurityTokenKeyfilePath@CipherShed@@V?$allocator@USecurityTokenKeyfilePath@CipherShed@@@std@@@std@@IAEPAU_Node@?$_List_nod@USecurityTokenKeyfilePath@CipherShed@@V?$allocator@USecurityTokenKeyfilePath@CipherShed@@@std@@@2@XZ ; std::list<CipherShed::SecurityTokenKeyfilePath,std::allocator<CipherShed::SecurityTokenKeyfilePath> >::_Buynode
; Function compile flags: /Ogtpy
; File c:\program files (x86)\microsoft visual studio 9.0\vc\include\list
;	COMDAT ?_Buynode@?$list@USecurityTokenKeyfilePath@CipherShed@@V?$allocator@USecurityTokenKeyfilePath@CipherShed@@@std@@@std@@IAEPAU_Node@?$_List_nod@USecurityTokenKeyfilePath@CipherShed@@V?$allocator@USecurityTokenKeyfilePath@CipherShed@@@std@@@2@XZ
_TEXT	SEGMENT
?_Buynode@?$list@USecurityTokenKeyfilePath@CipherShed@@V?$allocator@USecurityTokenKeyfilePath@CipherShed@@@std@@@std@@IAEPAU_Node@?$_List_nod@USecurityTokenKeyfilePath@CipherShed@@V?$allocator@USecurityTokenKeyfilePath@CipherShed@@@std@@@2@XZ PROC ; std::list<CipherShed::SecurityTokenKeyfilePath,std::allocator<CipherShed::SecurityTokenKeyfilePath> >::_Buynode, COMDAT
; _this$ = ecx

; 1172 : 		_Nodeptr _Pnode = this->_Alnod.allocate(1);

  00000	6a 24		 push	 36			; 00000024H
  00002	e8 00 00 00 00	 call	 ??2@YAPAXI@Z		; operator new
  00007	83 c4 04	 add	 esp, 4

; 1173 : 		int _Linkcnt = 0;
; 1174 : 
; 1175 : 		_TRY_BEGIN
; 1176 : 		this->_Alptr.construct(&_Nextnode(_Pnode), _Pnode);

  0000a	85 c0		 test	 eax, eax
  0000c	74 02		 je	 SHORT $LN26@Buynode
  0000e	89 00		 mov	 DWORD PTR [eax], eax
$LN26@Buynode:

; 1177 : 		++_Linkcnt;
; 1178 : 		this->_Alptr.construct(&_Prevnode(_Pnode), _Pnode);

  00010	8d 48 04	 lea	 ecx, DWORD PTR [eax+4]
  00013	85 c9		 test	 ecx, ecx
  00015	74 02		 je	 SHORT $LN36@Buynode
  00017	89 01		 mov	 DWORD PTR [ecx], eax
$LN36@Buynode:

; 1179 : 		_CATCH_ALL
; 1180 : 		if (0 < _Linkcnt)
; 1181 : 			this->_Alptr.destroy(&_Nextnode(_Pnode));
; 1182 : 		this->_Alnod.deallocate(_Pnode, 1);
; 1183 : 		_RERAISE;
; 1184 : 		_CATCH_END
; 1185 : 		return (_Pnode);
; 1186 : 		}

  00019	c3		 ret	 0
?_Buynode@?$list@USecurityTokenKeyfilePath@CipherShed@@V?$allocator@USecurityTokenKeyfilePath@CipherShed@@@std@@@std@@IAEPAU_Node@?$_List_nod@USecurityTokenKeyfilePath@CipherShed@@V?$allocator@USecurityTokenKeyfilePath@CipherShed@@@std@@@2@XZ ENDP ; std::list<CipherShed::SecurityTokenKeyfilePath,std::allocator<CipherShed::SecurityTokenKeyfilePath> >::_Buynode
_TEXT	ENDS
PUBLIC	?erase@?$basic_string@DU?$char_traits@D@std@@V?$allocator@D@2@@std@@QAEAAV12@II@Z ; std::basic_string<char,std::char_traits<char>,std::allocator<char> >::erase
EXTRN	?_Xran@_String_base@std@@SAXXZ:PROC		; std::_String_base::_Xran
; Function compile flags: /Ogtpy
; File c:\program files (x86)\microsoft visual studio 9.0\vc\include\xstring
;	COMDAT ?erase@?$basic_string@DU?$char_traits@D@std@@V?$allocator@D@2@@std@@QAEAAV12@II@Z
_TEXT	SEGMENT
tv130 = 8						; size = 4
__Off$ = 8						; size = 4
__Count$ = 12						; size = 4
?erase@?$basic_string@DU?$char_traits@D@std@@V?$allocator@D@2@@std@@QAEAAV12@II@Z PROC ; std::basic_string<char,std::char_traits<char>,std::allocator<char> >::erase, COMDAT
; _this$ = ecx

; 1262 : 		{	// erase elements [_Off, _Off + _Count)

  00000	53		 push	 ebx

; 1263 : 		if (_Mysize < _Off)

  00001	8b 5c 24 08	 mov	 ebx, DWORD PTR __Off$[esp]
  00005	56		 push	 esi
  00006	8b f1		 mov	 esi, ecx
  00008	57		 push	 edi
  00009	39 5e 14	 cmp	 DWORD PTR [esi+20], ebx
  0000c	73 05		 jae	 SHORT $LN3@erase

; 1264 : 			_String_base::_Xran();	// _Off off end

  0000e	e8 00 00 00 00	 call	 ?_Xran@_String_base@std@@SAXXZ ; std::_String_base::_Xran
$LN3@erase:

; 1265 : 		if (_Mysize - _Off < _Count)

  00013	8b 46 14	 mov	 eax, DWORD PTR [esi+20]
  00016	8b 7c 24 14	 mov	 edi, DWORD PTR __Count$[esp+8]
  0001a	2b c3		 sub	 eax, ebx
  0001c	3b c7		 cmp	 eax, edi
  0001e	73 02		 jae	 SHORT $LN2@erase

; 1266 : 			_Count = _Mysize - _Off;	// trim _Count

  00020	8b f8		 mov	 edi, eax
$LN2@erase:

; 1267 : 		if (0 < _Count)

  00022	85 ff		 test	 edi, edi
  00024	76 55		 jbe	 SHORT $LN30@erase

; 1268 : 			{	// move elements down
; 1269 : 			_Traits_helper::move_s<_Traits>(_Myptr() + _Off, _Myres - _Off, _Myptr() + _Off + _Count,
; 1270 : 				_Mysize - _Off - _Count);

  00026	8b 4e 18	 mov	 ecx, DWORD PTR [esi+24]
  00029	55		 push	 ebp
  0002a	8d 6e 04	 lea	 ebp, DWORD PTR [esi+4]
  0002d	83 f9 10	 cmp	 ecx, 16			; 00000010H
  00030	72 09		 jb	 SHORT $LN8@erase
  00032	8b 55 00	 mov	 edx, DWORD PTR [ebp]
  00035	89 54 24 14	 mov	 DWORD PTR tv130[esp+12], edx
  00039	eb 04		 jmp	 SHORT $LN9@erase
$LN8@erase:
  0003b	89 6c 24 14	 mov	 DWORD PTR tv130[esp+12], ebp
$LN9@erase:
  0003f	83 f9 10	 cmp	 ecx, 16			; 00000010H
  00042	72 05		 jb	 SHORT $LN12@erase
  00044	8b 55 00	 mov	 edx, DWORD PTR [ebp]
  00047	eb 02		 jmp	 SHORT $LN13@erase
$LN12@erase:
  00049	8b d5		 mov	 edx, ebp
$LN13@erase:
  0004b	2b c7		 sub	 eax, edi
  0004d	50		 push	 eax
  0004e	8b 44 24 18	 mov	 eax, DWORD PTR tv130[esp+16]
  00052	03 c3		 add	 eax, ebx
  00054	03 c7		 add	 eax, edi
  00056	50		 push	 eax
  00057	2b cb		 sub	 ecx, ebx
  00059	51		 push	 ecx
  0005a	03 d3		 add	 edx, ebx
  0005c	52		 push	 edx
  0005d	e8 00 00 00 00	 call	 _memmove_s

; 1271 : 			size_type _Newsize = _Mysize - _Count;

  00062	8b 46 14	 mov	 eax, DWORD PTR [esi+20]
  00065	2b c7		 sub	 eax, edi
  00067	83 c4 10	 add	 esp, 16			; 00000010H

; 1272 : 			_Eos(_Newsize);

  0006a	83 7e 18 10	 cmp	 DWORD PTR [esi+24], 16	; 00000010H
  0006e	89 46 14	 mov	 DWORD PTR [esi+20], eax
  00071	72 03		 jb	 SHORT $LN26@erase
  00073	8b 6d 00	 mov	 ebp, DWORD PTR [ebp]
$LN26@erase:
  00076	c6 04 28 00	 mov	 BYTE PTR [eax+ebp], 0
  0007a	5d		 pop	 ebp
$LN30@erase:
  0007b	5f		 pop	 edi

; 1273 : 			}
; 1274 : 		return (*this);

  0007c	8b c6		 mov	 eax, esi
  0007e	5e		 pop	 esi
  0007f	5b		 pop	 ebx

; 1275 : 		}

  00080	c2 08 00	 ret	 8
?erase@?$basic_string@DU?$char_traits@D@std@@V?$allocator@D@2@@std@@QAEAAV12@II@Z ENDP ; std::basic_string<char,std::char_traits<char>,std::allocator<char> >::erase
_TEXT	ENDS
PUBLIC	?erase@?$basic_string@_WU?$char_traits@_W@std@@V?$allocator@_W@2@@std@@QAEAAV12@II@Z ; std::basic_string<wchar_t,std::char_traits<wchar_t>,std::allocator<wchar_t> >::erase
; Function compile flags: /Ogtpy
;	COMDAT ?erase@?$basic_string@_WU?$char_traits@_W@std@@V?$allocator@_W@2@@std@@QAEAAV12@II@Z
_TEXT	SEGMENT
tv133 = 8						; size = 4
__Off$ = 8						; size = 4
tv139 = 12						; size = 4
__Count$ = 12						; size = 4
?erase@?$basic_string@_WU?$char_traits@_W@std@@V?$allocator@_W@2@@std@@QAEAAV12@II@Z PROC ; std::basic_string<wchar_t,std::char_traits<wchar_t>,std::allocator<wchar_t> >::erase, COMDAT
; _this$ = ecx

; 1262 : 		{	// erase elements [_Off, _Off + _Count)

  00000	53		 push	 ebx

; 1263 : 		if (_Mysize < _Off)

  00001	8b 5c 24 08	 mov	 ebx, DWORD PTR __Off$[esp]
  00005	56		 push	 esi
  00006	8b f1		 mov	 esi, ecx
  00008	57		 push	 edi
  00009	39 5e 14	 cmp	 DWORD PTR [esi+20], ebx
  0000c	73 05		 jae	 SHORT $LN3@erase@2

; 1264 : 			_String_base::_Xran();	// _Off off end

  0000e	e8 00 00 00 00	 call	 ?_Xran@_String_base@std@@SAXXZ ; std::_String_base::_Xran
$LN3@erase@2:

; 1265 : 		if (_Mysize - _Off < _Count)

  00013	8b 46 14	 mov	 eax, DWORD PTR [esi+20]
  00016	8b 7c 24 14	 mov	 edi, DWORD PTR __Count$[esp+8]
  0001a	2b c3		 sub	 eax, ebx
  0001c	3b c7		 cmp	 eax, edi
  0001e	73 02		 jae	 SHORT $LN2@erase@2

; 1266 : 			_Count = _Mysize - _Off;	// trim _Count

  00020	8b f8		 mov	 edi, eax
$LN2@erase@2:

; 1267 : 		if (0 < _Count)

  00022	85 ff		 test	 edi, edi
  00024	76 69		 jbe	 SHORT $LN32@erase@2

; 1268 : 			{	// move elements down
; 1269 : 			_Traits_helper::move_s<_Traits>(_Myptr() + _Off, _Myres - _Off, _Myptr() + _Off + _Count,
; 1270 : 				_Mysize - _Off - _Count);

  00026	8b 4e 18	 mov	 ecx, DWORD PTR [esi+24]
  00029	55		 push	 ebp
  0002a	8d 6e 04	 lea	 ebp, DWORD PTR [esi+4]
  0002d	83 f9 08	 cmp	 ecx, 8
  00030	72 09		 jb	 SHORT $LN8@erase@2
  00032	8b 55 00	 mov	 edx, DWORD PTR [ebp]
  00035	89 54 24 14	 mov	 DWORD PTR tv133[esp+12], edx
  00039	eb 04		 jmp	 SHORT $LN9@erase@2
$LN8@erase@2:
  0003b	89 6c 24 14	 mov	 DWORD PTR tv133[esp+12], ebp
$LN9@erase@2:
  0003f	83 f9 08	 cmp	 ecx, 8
  00042	72 09		 jb	 SHORT $LN12@erase@2
  00044	8b 55 00	 mov	 edx, DWORD PTR [ebp]
  00047	89 54 24 18	 mov	 DWORD PTR tv139[esp+12], edx
  0004b	eb 04		 jmp	 SHORT $LN13@erase@2
$LN12@erase@2:
  0004d	89 6c 24 18	 mov	 DWORD PTR tv139[esp+12], ebp
$LN13@erase@2:
  00051	8b 54 24 14	 mov	 edx, DWORD PTR tv133[esp+12]
  00055	2b c7		 sub	 eax, edi
  00057	03 c0		 add	 eax, eax
  00059	50		 push	 eax
  0005a	8d 04 3b	 lea	 eax, DWORD PTR [ebx+edi]
  0005d	8d 04 42	 lea	 eax, DWORD PTR [edx+eax*2]
  00060	2b cb		 sub	 ecx, ebx
  00062	50		 push	 eax
  00063	03 c9		 add	 ecx, ecx
  00065	51		 push	 ecx
  00066	8b 4c 24 24	 mov	 ecx, DWORD PTR tv139[esp+24]
  0006a	8d 14 59	 lea	 edx, DWORD PTR [ecx+ebx*2]
  0006d	52		 push	 edx
  0006e	e8 00 00 00 00	 call	 _memmove_s

; 1271 : 			size_type _Newsize = _Mysize - _Count;

  00073	8b 46 14	 mov	 eax, DWORD PTR [esi+20]
  00076	2b c7		 sub	 eax, edi
  00078	83 c4 10	 add	 esp, 16			; 00000010H

; 1272 : 			_Eos(_Newsize);

  0007b	83 7e 18 08	 cmp	 DWORD PTR [esi+24], 8
  0007f	89 46 14	 mov	 DWORD PTR [esi+20], eax
  00082	72 03		 jb	 SHORT $LN28@erase@2
  00084	8b 6d 00	 mov	 ebp, DWORD PTR [ebp]
$LN28@erase@2:
  00087	33 c9		 xor	 ecx, ecx
  00089	66 89 4c 45 00	 mov	 WORD PTR [ebp+eax*2], cx
  0008e	5d		 pop	 ebp
$LN32@erase@2:
  0008f	5f		 pop	 edi

; 1273 : 			}
; 1274 : 		return (*this);

  00090	8b c6		 mov	 eax, esi
  00092	5e		 pop	 esi
  00093	5b		 pop	 ebx

; 1275 : 		}

  00094	c2 08 00	 ret	 8
?erase@?$basic_string@_WU?$char_traits@_W@std@@V?$allocator@_W@2@@std@@QAEAAV12@II@Z ENDP ; std::basic_string<wchar_t,std::char_traits<wchar_t>,std::allocator<wchar_t> >::erase
_TEXT	ENDS
PUBLIC	?_Destroy@?$vector@EV?$allocator@E@std@@@std@@IAEXPAE0@Z ; std::vector<unsigned char,std::allocator<unsigned char> >::_Destroy
; Function compile flags: /Ogtpy
; File c:\program files (x86)\microsoft visual studio 9.0\vc\include\vector
;	COMDAT ?_Destroy@?$vector@EV?$allocator@E@std@@@std@@IAEXPAE0@Z
_TEXT	SEGMENT
__First$ = 8						; size = 4
__Last$ = 12						; size = 4
?_Destroy@?$vector@EV?$allocator@E@std@@@std@@IAEXPAE0@Z PROC ; std::vector<unsigned char,std::allocator<unsigned char> >::_Destroy, COMDAT
; _this$ = ecx

; 1119 : 		_Destroy_range(_First, _Last, this->_Alval);
; 1120 : 		}

  00000	c2 08 00	 ret	 8
?_Destroy@?$vector@EV?$allocator@E@std@@@std@@IAEXPAE0@Z ENDP ; std::vector<unsigned char,std::allocator<unsigned char> >::_Destroy
_TEXT	ENDS
PUBLIC	??0?$_Container_base_aux_alloc_real@V?$allocator@E@std@@@std@@IAE@V?$allocator@E@1@@Z ; std::_Container_base_aux_alloc_real<std::allocator<unsigned char> >::_Container_base_aux_alloc_real<std::allocator<unsigned char> >
; Function compile flags: /Ogtpy
; File c:\program files (x86)\microsoft visual studio 9.0\vc\include\xutility
;	COMDAT ??0?$_Container_base_aux_alloc_real@V?$allocator@E@std@@@std@@IAE@V?$allocator@E@1@@Z
_TEXT	SEGMENT
__Al$ = 8						; size = 1
??0?$_Container_base_aux_alloc_real@V?$allocator@E@std@@@std@@IAE@V?$allocator@E@1@@Z PROC ; std::_Container_base_aux_alloc_real<std::allocator<unsigned char> >::_Container_base_aux_alloc_real<std::allocator<unsigned char> >, COMDAT
; _this$ = ecx

; 419  : 		{

  00000	56		 push	 esi

; 420  : 		_Myownedaux = new (_Alaux.allocate(1)) _Aux_cont(this);

  00001	6a 04		 push	 4
  00003	8b f1		 mov	 esi, ecx
  00005	e8 00 00 00 00	 call	 ??2@YAPAXI@Z		; operator new
  0000a	83 c4 04	 add	 esp, 4
  0000d	85 c0		 test	 eax, eax
  0000f	74 0a		 je	 SHORT $LN3@Container_@2
  00011	89 30		 mov	 DWORD PTR [eax], esi
  00013	89 06		 mov	 DWORD PTR [esi], eax

; 421  : 		}

  00015	8b c6		 mov	 eax, esi
  00017	5e		 pop	 esi
  00018	c2 04 00	 ret	 4
$LN3@Container_@2:

; 420  : 		_Myownedaux = new (_Alaux.allocate(1)) _Aux_cont(this);

  0001b	33 c0		 xor	 eax, eax
  0001d	89 06		 mov	 DWORD PTR [esi], eax

; 421  : 		}

  0001f	8b c6		 mov	 eax, esi
  00021	5e		 pop	 esi
  00022	c2 04 00	 ret	 4
??0?$_Container_base_aux_alloc_real@V?$allocator@E@std@@@std@@IAE@V?$allocator@E@1@@Z ENDP ; std::_Container_base_aux_alloc_real<std::allocator<unsigned char> >::_Container_base_aux_alloc_real<std::allocator<unsigned char> >
_TEXT	ENDS
PUBLIC	?_Copy@?$basic_string@DU?$char_traits@D@std@@V?$allocator@D@2@@std@@IAEXII@Z ; std::basic_string<char,std::char_traits<char>,std::allocator<char> >::_Copy
EXTRN	___CxxFrameHandler3:PROC
;	COMDAT xdata$x
; File c:\program files (x86)\microsoft visual studio 9.0\vc\include\iosfwd
xdata$x	SEGMENT
__catchsym$?_Copy@?$basic_string@DU?$char_traits@D@std@@V?$allocator@D@2@@std@@IAEXII@Z$5 DD 040H
	DD	00H
	DD	00H
	DD	FLAT:__catch$?_Copy@?$basic_string@DU?$char_traits@D@std@@V?$allocator@D@2@@std@@IAEXII@Z$0
__catchsym$?_Copy@?$basic_string@DU?$char_traits@D@std@@V?$allocator@D@2@@std@@IAEXII@Z$4 DD 040H
	DD	00H
	DD	00H
	DD	FLAT:__catch$?_Copy@?$basic_string@DU?$char_traits@D@std@@V?$allocator@D@2@@std@@IAEXII@Z$1
__unwindtable$?_Copy@?$basic_string@DU?$char_traits@D@std@@V?$allocator@D@2@@std@@IAEXII@Z DD 0ffffffffH
	DD	00H
	DD	0ffffffffH
	DD	00H
	DD	01H
	DD	00H
	DD	01H
	DD	00H
__ehfuncinfo$?_Copy@?$basic_string@DU?$char_traits@D@std@@V?$allocator@D@2@@std@@IAEXII@Z DD 019930522H
	DD	04H
	DD	FLAT:__unwindtable$?_Copy@?$basic_string@DU?$char_traits@D@std@@V?$allocator@D@2@@std@@IAEXII@Z
	DD	02H
	DD	FLAT:__tryblocktable$?_Copy@?$basic_string@DU?$char_traits@D@std@@V?$allocator@D@2@@std@@IAEXII@Z
	DD	2 DUP(00H)
	DD	00H
	DD	01H
__tryblocktable$?_Copy@?$basic_string@DU?$char_traits@D@std@@V?$allocator@D@2@@std@@IAEXII@Z DD 02H
	DD	02H
	DD	03H
	DD	01H
	DD	FLAT:__catchsym$?_Copy@?$basic_string@DU?$char_traits@D@std@@V?$allocator@D@2@@std@@IAEXII@Z$4
	DD	00H
	DD	00H
	DD	03H
	DD	01H
	DD	FLAT:__catchsym$?_Copy@?$basic_string@DU?$char_traits@D@std@@V?$allocator@D@2@@std@@IAEXII@Z$5
; Function compile flags: /Ogtpy
; File c:\program files (x86)\microsoft visual studio 9.0\vc\include\xstring
xdata$x	ENDS
;	COMDAT ?_Copy@?$basic_string@DU?$char_traits@D@std@@V?$allocator@D@2@@std@@IAEXII@Z
_TEXT	SEGMENT
__Newres$ = -24						; size = 4
_this$ = -20						; size = 4
__$EHRec$ = -16						; size = 16
__Ptr$ = 8						; size = 4
__Newsize$ = 8						; size = 4
__Oldlen$ = 12						; size = 4
?_Copy@?$basic_string@DU?$char_traits@D@std@@V?$allocator@D@2@@std@@IAEXII@Z PROC ; std::basic_string<char,std::char_traits<char>,std::allocator<char> >::_Copy, COMDAT
; _this$ = ecx

; 2083 : 		{	// copy _Oldlen elements to newly allocated buffer

  00000	55		 push	 ebp
  00001	8b ec		 mov	 ebp, esp
  00003	6a ff		 push	 -1
  00005	68 00 00 00 00	 push	 __ehhandler$?_Copy@?$basic_string@DU?$char_traits@D@std@@V?$allocator@D@2@@std@@IAEXII@Z
  0000a	64 a1 00 00 00
	00		 mov	 eax, DWORD PTR fs:0
  00010	50		 push	 eax
  00011	83 ec 0c	 sub	 esp, 12			; 0000000cH
  00014	53		 push	 ebx
  00015	56		 push	 esi
  00016	57		 push	 edi
  00017	a1 00 00 00 00	 mov	 eax, DWORD PTR ___security_cookie
  0001c	33 c5		 xor	 eax, ebp
  0001e	50		 push	 eax
  0001f	8d 45 f4	 lea	 eax, DWORD PTR __$EHRec$[ebp+4]
  00022	64 a3 00 00 00
	00		 mov	 DWORD PTR fs:0, eax
  00028	89 65 f0	 mov	 DWORD PTR __$EHRec$[ebp], esp
  0002b	8b f9		 mov	 edi, ecx
  0002d	89 7d ec	 mov	 DWORD PTR _this$[ebp], edi

; 2084 : 		size_type _Newres = _Newsize | _ALLOC_MASK;

  00030	8b 45 08	 mov	 eax, DWORD PTR __Newsize$[ebp]
  00033	8b f0		 mov	 esi, eax
  00035	83 ce 0f	 or	 esi, 15			; 0000000fH

; 2085 : 		if (max_size() < _Newres)

  00038	83 fe fe	 cmp	 esi, -2			; fffffffeH
  0003b	76 04		 jbe	 SHORT $LN6@Copy

; 2086 : 			_Newres = _Newsize;	// undo roundup if too big

  0003d	8b f0		 mov	 esi, eax

; 2087 : 		else if (_Newres / 3 < _Myres / 2

  0003f	eb 22		 jmp	 SHORT $LN4@Copy
$LN6@Copy:

; 2088 : 			&& _Myres <= max_size() - _Myres / 2)

  00041	8b 5f 18	 mov	 ebx, DWORD PTR [edi+24]
  00044	b8 ab aa aa aa	 mov	 eax, -1431655765	; aaaaaaabH
  00049	f7 e6		 mul	 esi
  0004b	8b cb		 mov	 ecx, ebx
  0004d	d1 e9		 shr	 ecx, 1
  0004f	d1 ea		 shr	 edx, 1
  00051	3b d1		 cmp	 edx, ecx
  00053	73 0e		 jae	 SHORT $LN4@Copy
  00055	b8 fe ff ff ff	 mov	 eax, -2			; fffffffeH
  0005a	2b c1		 sub	 eax, ecx
  0005c	3b d8		 cmp	 ebx, eax
  0005e	77 03		 ja	 SHORT $LN4@Copy

; 2089 : 			_Newres = _Myres + _Myres / 2;	// grow exponentially if possible

  00060	8d 34 19	 lea	 esi, DWORD PTR [ecx+ebx]
$LN4@Copy:

; 2090 : 		_Elem *_Ptr = 0;
; 2091 : 
; 2092 : 		_TRY_BEGIN
; 2093 : 			_Ptr = _Mybase::_Alval.allocate(_Newres + 1);

  00063	8d 4e 01	 lea	 ecx, DWORD PTR [esi+1]
  00066	6a 00		 push	 0
  00068	51		 push	 ecx
  00069	c7 45 fc 00 00
	00 00		 mov	 DWORD PTR __$EHRec$[ebp+12], 0
  00070	e8 00 00 00 00	 call	 ??$_Allocate@D@std@@YAPADIPAD@Z ; std::_Allocate<char>
  00075	83 c4 08	 add	 esp, 8
  00078	89 45 08	 mov	 DWORD PTR __Ptr$[ebp], eax
  0007b	eb 28		 jmp	 SHORT $LN16@Copy
__catch$?_Copy@?$basic_string@DU?$char_traits@D@std@@V?$allocator@D@2@@std@@IAEXII@Z$0:

; 2094 : 		_CATCH_ALL
; 2095 : 			_Newres = _Newsize;	// allocation failed, undo roundup and retry

  0007d	8b 45 08	 mov	 eax, DWORD PTR __Newsize$[ebp]
  00080	89 65 f0	 mov	 DWORD PTR __$EHRec$[ebp], esp
  00083	89 45 e8	 mov	 DWORD PTR __Newres$[ebp], eax

; 2096 : 			_TRY_BEGIN
; 2097 : 				_Ptr = _Mybase::_Alval.allocate(_Newres + 1);

  00086	40		 inc	 eax
  00087	6a 00		 push	 0
  00089	50		 push	 eax
  0008a	c6 45 fc 02	 mov	 BYTE PTR __$EHRec$[ebp+12], 2
  0008e	e8 00 00 00 00	 call	 ??$_Allocate@D@std@@YAPADIPAD@Z ; std::_Allocate<char>
  00093	89 45 08	 mov	 DWORD PTR __Ptr$[ebp], eax
  00096	83 c4 08	 add	 esp, 8

; 2101 : 			_CATCH_END
; 2102 : 		_CATCH_END

  00099	b8 00 00 00 00	 mov	 eax, $LN106@Copy
  0009e	c3		 ret	 0
$LN106@Copy:
  0009f	8b 7d ec	 mov	 edi, DWORD PTR _this$[ebp]
  000a2	8b 75 e8	 mov	 esi, DWORD PTR __Newres$[ebp]
$LN16@Copy:

; 2103 : 
; 2104 : 		if (0 < _Oldlen)

  000a5	8b 5d 0c	 mov	 ebx, DWORD PTR __Oldlen$[ebp]
  000a8	85 db		 test	 ebx, ebx
  000aa	76 20		 jbe	 SHORT $LN71@Copy

; 2105 : 			_Traits_helper::copy_s<_Traits>(_Ptr, _Newres + 1, _Myptr(), _Oldlen);	// copy existing elements

  000ac	83 7f 18 10	 cmp	 DWORD PTR [edi+24], 16	; 00000010H
  000b0	72 05		 jb	 SHORT $LN63@Copy
  000b2	8b 47 04	 mov	 eax, DWORD PTR [edi+4]
  000b5	eb 03		 jmp	 SHORT $LN64@Copy
$LN63@Copy:
  000b7	8d 47 04	 lea	 eax, DWORD PTR [edi+4]
$LN64@Copy:
  000ba	53		 push	 ebx
  000bb	50		 push	 eax
  000bc	8b 45 08	 mov	 eax, DWORD PTR __Ptr$[ebp]
  000bf	8d 56 01	 lea	 edx, DWORD PTR [esi+1]
  000c2	52		 push	 edx
  000c3	50		 push	 eax
  000c4	e8 00 00 00 00	 call	 _memcpy_s
  000c9	83 c4 10	 add	 esp, 16			; 00000010H
$LN71@Copy:

; 2106 : 		_Tidy(true);

  000cc	83 7f 18 10	 cmp	 DWORD PTR [edi+24], 16	; 00000010H
  000d0	72 0c		 jb	 SHORT $LN87@Copy
  000d2	8b 4f 04	 mov	 ecx, DWORD PTR [edi+4]
  000d5	51		 push	 ecx
  000d6	e8 00 00 00 00	 call	 ??3@YAXPAX@Z		; operator delete
  000db	83 c4 04	 add	 esp, 4
$LN87@Copy:

; 2107 : 		_Bx._Ptr = _Ptr;

  000de	8b 4d 08	 mov	 ecx, DWORD PTR __Ptr$[ebp]
  000e1	8d 47 04	 lea	 eax, DWORD PTR [edi+4]
  000e4	c6 00 00	 mov	 BYTE PTR [eax], 0
  000e7	89 08		 mov	 DWORD PTR [eax], ecx

; 2108 : 		_Myres = _Newres;

  000e9	89 77 18	 mov	 DWORD PTR [edi+24], esi

; 2109 : 		_Eos(_Oldlen);

  000ec	89 5f 14	 mov	 DWORD PTR [edi+20], ebx
  000ef	83 fe 10	 cmp	 esi, 16			; 00000010H
  000f2	72 02		 jb	 SHORT $LN101@Copy
  000f4	8b c1		 mov	 eax, ecx
$LN101@Copy:
  000f6	c6 04 18 00	 mov	 BYTE PTR [eax+ebx], 0

; 2110 : 		}

  000fa	8b 4d f4	 mov	 ecx, DWORD PTR __$EHRec$[ebp+4]
  000fd	64 89 0d 00 00
	00 00		 mov	 DWORD PTR fs:0, ecx
  00104	59		 pop	 ecx
  00105	5f		 pop	 edi
  00106	5e		 pop	 esi
  00107	5b		 pop	 ebx
  00108	8b e5		 mov	 esp, ebp
  0010a	5d		 pop	 ebp
  0010b	c2 08 00	 ret	 8
__catch$?_Copy@?$basic_string@DU?$char_traits@D@std@@V?$allocator@D@2@@std@@IAEXII@Z$1:

; 2098 : 			_CATCH_ALL
; 2099 : 			_Tidy(true);	// failed again, discard storage and reraise

  0010e	8b 75 ec	 mov	 esi, DWORD PTR _this$[ebp]
  00111	83 7e 18 10	 cmp	 DWORD PTR [esi+24], 16	; 00000010H
  00115	72 0c		 jb	 SHORT $LN51@Copy
  00117	8b 56 04	 mov	 edx, DWORD PTR [esi+4]
  0011a	52		 push	 edx
  0011b	e8 00 00 00 00	 call	 ??3@YAXPAX@Z		; operator delete
  00120	83 c4 04	 add	 esp, 4
$LN51@Copy:

; 2100 : 			_RERAISE;

  00123	6a 00		 push	 0
  00125	c7 46 18 0f 00
	00 00		 mov	 DWORD PTR [esi+24], 15	; 0000000fH
  0012c	c7 46 14 00 00
	00 00		 mov	 DWORD PTR [esi+20], 0
  00133	6a 00		 push	 0
  00135	c6 46 04 00	 mov	 BYTE PTR [esi+4], 0
  00139	e8 00 00 00 00	 call	 __CxxThrowException@8
$LN109@Copy:
  0013e	cc		 int	 3
_TEXT	ENDS
;	COMDAT text$x
text$x	SEGMENT
__ehhandler$?_Copy@?$basic_string@DU?$char_traits@D@std@@V?$allocator@D@2@@std@@IAEXII@Z:
  00000	8b 54 24 08	 mov	 edx, DWORD PTR [esp+8]
  00004	8d 42 0c	 lea	 eax, DWORD PTR [edx+12]
  00007	8b 4a e4	 mov	 ecx, DWORD PTR [edx-28]
  0000a	33 c8		 xor	 ecx, eax
  0000c	e8 00 00 00 00	 call	 @__security_check_cookie@4
  00011	b8 00 00 00 00	 mov	 eax, OFFSET __ehfuncinfo$?_Copy@?$basic_string@DU?$char_traits@D@std@@V?$allocator@D@2@@std@@IAEXII@Z
  00016	e9 00 00 00 00	 jmp	 ___CxxFrameHandler3
text$x	ENDS
?_Copy@?$basic_string@DU?$char_traits@D@std@@V?$allocator@D@2@@std@@IAEXII@Z ENDP ; std::basic_string<char,std::char_traits<char>,std::allocator<char> >::_Copy
PUBLIC	?_Copy@?$basic_string@_WU?$char_traits@_W@std@@V?$allocator@_W@2@@std@@IAEXII@Z ; std::basic_string<wchar_t,std::char_traits<wchar_t>,std::allocator<wchar_t> >::_Copy
;	COMDAT xdata$x
; File c:\program files (x86)\microsoft visual studio 9.0\vc\include\iosfwd
xdata$x	SEGMENT
__catchsym$?_Copy@?$basic_string@_WU?$char_traits@_W@std@@V?$allocator@_W@2@@std@@IAEXII@Z$5 DD 040H
	DD	00H
	DD	00H
	DD	FLAT:__catch$?_Copy@?$basic_string@_WU?$char_traits@_W@std@@V?$allocator@_W@2@@std@@IAEXII@Z$0
__catchsym$?_Copy@?$basic_string@_WU?$char_traits@_W@std@@V?$allocator@_W@2@@std@@IAEXII@Z$4 DD 040H
	DD	00H
	DD	00H
	DD	FLAT:__catch$?_Copy@?$basic_string@_WU?$char_traits@_W@std@@V?$allocator@_W@2@@std@@IAEXII@Z$1
__unwindtable$?_Copy@?$basic_string@_WU?$char_traits@_W@std@@V?$allocator@_W@2@@std@@IAEXII@Z DD 0ffffffffH
	DD	00H
	DD	0ffffffffH
	DD	00H
	DD	01H
	DD	00H
	DD	01H
	DD	00H
__ehfuncinfo$?_Copy@?$basic_string@_WU?$char_traits@_W@std@@V?$allocator@_W@2@@std@@IAEXII@Z DD 019930522H
	DD	04H
	DD	FLAT:__unwindtable$?_Copy@?$basic_string@_WU?$char_traits@_W@std@@V?$allocator@_W@2@@std@@IAEXII@Z
	DD	02H
	DD	FLAT:__tryblocktable$?_Copy@?$basic_string@_WU?$char_traits@_W@std@@V?$allocator@_W@2@@std@@IAEXII@Z
	DD	2 DUP(00H)
	DD	00H
	DD	01H
__tryblocktable$?_Copy@?$basic_string@_WU?$char_traits@_W@std@@V?$allocator@_W@2@@std@@IAEXII@Z DD 02H
	DD	02H
	DD	03H
	DD	01H
	DD	FLAT:__catchsym$?_Copy@?$basic_string@_WU?$char_traits@_W@std@@V?$allocator@_W@2@@std@@IAEXII@Z$4
	DD	00H
	DD	00H
	DD	03H
	DD	01H
	DD	FLAT:__catchsym$?_Copy@?$basic_string@_WU?$char_traits@_W@std@@V?$allocator@_W@2@@std@@IAEXII@Z$5
; Function compile flags: /Ogtpy
; File c:\program files (x86)\microsoft visual studio 9.0\vc\include\xstring
xdata$x	ENDS
;	COMDAT ?_Copy@?$basic_string@_WU?$char_traits@_W@std@@V?$allocator@_W@2@@std@@IAEXII@Z
_TEXT	SEGMENT
__Ptr$ = -24						; size = 4
_this$ = -20						; size = 4
__$EHRec$ = -16						; size = 16
__Newres$ = 8						; size = 4
__Newsize$ = 8						; size = 4
__Oldlen$ = 12						; size = 4
?_Copy@?$basic_string@_WU?$char_traits@_W@std@@V?$allocator@_W@2@@std@@IAEXII@Z PROC ; std::basic_string<wchar_t,std::char_traits<wchar_t>,std::allocator<wchar_t> >::_Copy, COMDAT
; _this$ = ecx

; 2083 : 		{	// copy _Oldlen elements to newly allocated buffer

  00000	55		 push	 ebp
  00001	8b ec		 mov	 ebp, esp
  00003	6a ff		 push	 -1
  00005	68 00 00 00 00	 push	 __ehhandler$?_Copy@?$basic_string@_WU?$char_traits@_W@std@@V?$allocator@_W@2@@std@@IAEXII@Z
  0000a	64 a1 00 00 00
	00		 mov	 eax, DWORD PTR fs:0
  00010	50		 push	 eax
  00011	83 ec 0c	 sub	 esp, 12			; 0000000cH
  00014	53		 push	 ebx
  00015	56		 push	 esi
  00016	57		 push	 edi
  00017	a1 00 00 00 00	 mov	 eax, DWORD PTR ___security_cookie
  0001c	33 c5		 xor	 eax, ebp
  0001e	50		 push	 eax
  0001f	8d 45 f4	 lea	 eax, DWORD PTR __$EHRec$[ebp+4]
  00022	64 a3 00 00 00
	00		 mov	 DWORD PTR fs:0, eax
  00028	89 65 f0	 mov	 DWORD PTR __$EHRec$[ebp], esp
  0002b	8b f9		 mov	 edi, ecx
  0002d	89 7d ec	 mov	 DWORD PTR _this$[ebp], edi

; 2084 : 		size_type _Newres = _Newsize | _ALLOC_MASK;

  00030	8b 45 08	 mov	 eax, DWORD PTR __Newsize$[ebp]
  00033	8b f0		 mov	 esi, eax
  00035	83 ce 07	 or	 esi, 7

; 2085 : 		if (max_size() < _Newres)

  00038	81 fe fe ff ff
	7f		 cmp	 esi, 2147483646		; 7ffffffeH
  0003e	76 04		 jbe	 SHORT $LN6@Copy@2

; 2086 : 			_Newres = _Newsize;	// undo roundup if too big

  00040	8b f0		 mov	 esi, eax

; 2087 : 		else if (_Newres / 3 < _Myres / 2

  00042	eb 22		 jmp	 SHORT $LN4@Copy@2
$LN6@Copy@2:

; 2088 : 			&& _Myres <= max_size() - _Myres / 2)

  00044	8b 5f 18	 mov	 ebx, DWORD PTR [edi+24]
  00047	b8 ab aa aa aa	 mov	 eax, -1431655765	; aaaaaaabH
  0004c	f7 e6		 mul	 esi
  0004e	8b cb		 mov	 ecx, ebx
  00050	d1 e9		 shr	 ecx, 1
  00052	d1 ea		 shr	 edx, 1
  00054	3b d1		 cmp	 edx, ecx
  00056	73 0e		 jae	 SHORT $LN4@Copy@2
  00058	b8 fe ff ff 7f	 mov	 eax, 2147483646		; 7ffffffeH
  0005d	2b c1		 sub	 eax, ecx
  0005f	3b d8		 cmp	 ebx, eax
  00061	77 03		 ja	 SHORT $LN4@Copy@2

; 2089 : 			_Newres = _Myres + _Myres / 2;	// grow exponentially if possible

  00063	8d 34 19	 lea	 esi, DWORD PTR [ecx+ebx]
$LN4@Copy@2:

; 2090 : 		_Elem *_Ptr = 0;
; 2091 : 
; 2092 : 		_TRY_BEGIN
; 2093 : 			_Ptr = _Mybase::_Alval.allocate(_Newres + 1);

  00066	8d 4e 01	 lea	 ecx, DWORD PTR [esi+1]
  00069	6a 00		 push	 0
  0006b	51		 push	 ecx
  0006c	c7 45 fc 00 00
	00 00		 mov	 DWORD PTR __$EHRec$[ebp+12], 0
  00073	e8 00 00 00 00	 call	 ??$_Allocate@_W@std@@YAPA_WIPA_W@Z ; std::_Allocate<wchar_t>
  00078	83 c4 08	 add	 esp, 8
  0007b	8b d8		 mov	 ebx, eax
  0007d	eb 2b		 jmp	 SHORT $LN16@Copy@2
__catch$?_Copy@?$basic_string@_WU?$char_traits@_W@std@@V?$allocator@_W@2@@std@@IAEXII@Z$0:

; 2094 : 		_CATCH_ALL
; 2095 : 			_Newres = _Newsize;	// allocation failed, undo roundup and retry

  0007f	8b 45 08	 mov	 eax, DWORD PTR __Newsize$[ebp]
  00082	89 65 f0	 mov	 DWORD PTR __$EHRec$[ebp], esp
  00085	89 45 08	 mov	 DWORD PTR __Newres$[ebp], eax

; 2096 : 			_TRY_BEGIN
; 2097 : 				_Ptr = _Mybase::_Alval.allocate(_Newres + 1);

  00088	40		 inc	 eax
  00089	6a 00		 push	 0
  0008b	50		 push	 eax
  0008c	c6 45 fc 02	 mov	 BYTE PTR __$EHRec$[ebp+12], 2
  00090	e8 00 00 00 00	 call	 ??$_Allocate@_W@std@@YAPA_WIPA_W@Z ; std::_Allocate<wchar_t>
  00095	89 45 e8	 mov	 DWORD PTR __Ptr$[ebp], eax
  00098	83 c4 08	 add	 esp, 8

; 2101 : 			_CATCH_END
; 2102 : 		_CATCH_END

  0009b	b8 00 00 00 00	 mov	 eax, $LN112@Copy@2
  000a0	c3		 ret	 0
$LN112@Copy@2:
  000a1	8b 7d ec	 mov	 edi, DWORD PTR _this$[ebp]
  000a4	8b 75 08	 mov	 esi, DWORD PTR __Newres$[ebp]
  000a7	8b 5d e8	 mov	 ebx, DWORD PTR __Ptr$[ebp]
$LN16@Copy@2:

; 2103 : 
; 2104 : 		if (0 < _Oldlen)

  000aa	8b 4d 0c	 mov	 ecx, DWORD PTR __Oldlen$[ebp]
  000ad	85 c9		 test	 ecx, ecx
  000af	76 24		 jbe	 SHORT $LN75@Copy@2

; 2105 : 			_Traits_helper::copy_s<_Traits>(_Ptr, _Newres + 1, _Myptr(), _Oldlen);	// copy existing elements

  000b1	83 7f 18 08	 cmp	 DWORD PTR [edi+24], 8
  000b5	72 05		 jb	 SHORT $LN65@Copy@2
  000b7	8b 47 04	 mov	 eax, DWORD PTR [edi+4]
  000ba	eb 03		 jmp	 SHORT $LN66@Copy@2
$LN65@Copy@2:
  000bc	8d 47 04	 lea	 eax, DWORD PTR [edi+4]
$LN66@Copy@2:
  000bf	8d 14 09	 lea	 edx, DWORD PTR [ecx+ecx]
  000c2	52		 push	 edx
  000c3	50		 push	 eax
  000c4	8d 44 36 02	 lea	 eax, DWORD PTR [esi+esi+2]
  000c8	50		 push	 eax
  000c9	53		 push	 ebx
  000ca	e8 00 00 00 00	 call	 _memcpy_s
  000cf	8b 4d 0c	 mov	 ecx, DWORD PTR __Oldlen$[ebp]
  000d2	83 c4 10	 add	 esp, 16			; 00000010H
$LN75@Copy@2:

; 2106 : 		_Tidy(true);

  000d5	83 7f 18 08	 cmp	 DWORD PTR [edi+24], 8
  000d9	72 0f		 jb	 SHORT $LN93@Copy@2
  000db	8b 4f 04	 mov	 ecx, DWORD PTR [edi+4]
  000de	51		 push	 ecx
  000df	e8 00 00 00 00	 call	 ??3@YAXPAX@Z		; operator delete
  000e4	8b 4d 0c	 mov	 ecx, DWORD PTR __Oldlen$[ebp]
  000e7	83 c4 04	 add	 esp, 4
$LN93@Copy@2:
  000ea	8d 47 04	 lea	 eax, DWORD PTR [edi+4]
  000ed	33 d2		 xor	 edx, edx

; 2107 : 		_Bx._Ptr = _Ptr;

  000ef	89 18		 mov	 DWORD PTR [eax], ebx

; 2108 : 		_Myres = _Newres;

  000f1	89 77 18	 mov	 DWORD PTR [edi+24], esi

; 2109 : 		_Eos(_Oldlen);

  000f4	89 4f 14	 mov	 DWORD PTR [edi+20], ecx
  000f7	83 fe 08	 cmp	 esi, 8
  000fa	72 02		 jb	 SHORT $LN107@Copy@2
  000fc	8b c3		 mov	 eax, ebx
$LN107@Copy@2:
  000fe	33 d2		 xor	 edx, edx
  00100	66 89 14 48	 mov	 WORD PTR [eax+ecx*2], dx

; 2110 : 		}

  00104	8b 4d f4	 mov	 ecx, DWORD PTR __$EHRec$[ebp+4]
  00107	64 89 0d 00 00
	00 00		 mov	 DWORD PTR fs:0, ecx
  0010e	59		 pop	 ecx
  0010f	5f		 pop	 edi
  00110	5e		 pop	 esi
  00111	5b		 pop	 ebx
  00112	8b e5		 mov	 esp, ebp
  00114	5d		 pop	 ebp
  00115	c2 08 00	 ret	 8
__catch$?_Copy@?$basic_string@_WU?$char_traits@_W@std@@V?$allocator@_W@2@@std@@IAEXII@Z$1:

; 2098 : 			_CATCH_ALL
; 2099 : 			_Tidy(true);	// failed again, discard storage and reraise

  00118	8b 75 ec	 mov	 esi, DWORD PTR _this$[ebp]
  0011b	83 7e 18 08	 cmp	 DWORD PTR [esi+24], 8
  0011f	72 0c		 jb	 SHORT $LN53@Copy@2
  00121	8b 46 04	 mov	 eax, DWORD PTR [esi+4]
  00124	50		 push	 eax
  00125	e8 00 00 00 00	 call	 ??3@YAXPAX@Z		; operator delete
  0012a	83 c4 04	 add	 esp, 4
$LN53@Copy@2:
  0012d	33 c9		 xor	 ecx, ecx

; 2100 : 			_RERAISE;

  0012f	51		 push	 ecx
  00130	c7 46 18 07 00
	00 00		 mov	 DWORD PTR [esi+24], 7
  00137	c7 46 14 00 00
	00 00		 mov	 DWORD PTR [esi+20], 0
  0013e	51		 push	 ecx
  0013f	66 89 4e 04	 mov	 WORD PTR [esi+4], cx
  00143	e8 00 00 00 00	 call	 __CxxThrowException@8
$LN115@Copy@2:
  00148	cc		 int	 3
_TEXT	ENDS
;	COMDAT text$x
text$x	SEGMENT
__ehhandler$?_Copy@?$basic_string@_WU?$char_traits@_W@std@@V?$allocator@_W@2@@std@@IAEXII@Z:
  00000	8b 54 24 08	 mov	 edx, DWORD PTR [esp+8]
  00004	8d 42 0c	 lea	 eax, DWORD PTR [edx+12]
  00007	8b 4a e4	 mov	 ecx, DWORD PTR [edx-28]
  0000a	33 c8		 xor	 ecx, eax
  0000c	e8 00 00 00 00	 call	 @__security_check_cookie@4
  00011	b8 00 00 00 00	 mov	 eax, OFFSET __ehfuncinfo$?_Copy@?$basic_string@_WU?$char_traits@_W@std@@V?$allocator@_W@2@@std@@IAEXII@Z
  00016	e9 00 00 00 00	 jmp	 ___CxxFrameHandler3
text$x	ENDS
?_Copy@?$basic_string@_WU?$char_traits@_W@std@@V?$allocator@_W@2@@std@@IAEXII@Z ENDP ; std::basic_string<wchar_t,std::char_traits<wchar_t>,std::allocator<wchar_t> >::_Copy
PUBLIC	??0?$_List_nod@USecurityTokenKeyfilePath@CipherShed@@V?$allocator@USecurityTokenKeyfilePath@CipherShed@@@std@@@std@@IAE@V?$allocator@USecurityTokenKeyfilePath@CipherShed@@@1@@Z ; std::_List_nod<CipherShed::SecurityTokenKeyfilePath,std::allocator<CipherShed::SecurityTokenKeyfilePath> >::_List_nod<CipherShed::SecurityTokenKeyfilePath,std::allocator<CipherShed::SecurityTokenKeyfilePath> >
; Function compile flags: /Ogtpy
; File c:\program files (x86)\microsoft visual studio 9.0\vc\include\list
;	COMDAT ??0?$_List_nod@USecurityTokenKeyfilePath@CipherShed@@V?$allocator@USecurityTokenKeyfilePath@CipherShed@@@std@@@std@@IAE@V?$allocator@USecurityTokenKeyfilePath@CipherShed@@@1@@Z
_TEXT	SEGMENT
__Al$ = 8						; size = 1
??0?$_List_nod@USecurityTokenKeyfilePath@CipherShed@@V?$allocator@USecurityTokenKeyfilePath@CipherShed@@@std@@@std@@IAE@V?$allocator@USecurityTokenKeyfilePath@CipherShed@@@1@@Z PROC ; std::_List_nod<CipherShed::SecurityTokenKeyfilePath,std::allocator<CipherShed::SecurityTokenKeyfilePath> >::_List_nod<CipherShed::SecurityTokenKeyfilePath,std::allocator<CipherShed::SecurityTokenKeyfilePath> >, COMDAT
; _this$ = ecx

; 47   : 		{	// construct allocator from _Al

  00000	56		 push	 esi
  00001	6a 04		 push	 4
  00003	8b f1		 mov	 esi, ecx
  00005	e8 00 00 00 00	 call	 ??2@YAPAXI@Z		; operator new
  0000a	83 c4 04	 add	 esp, 4
  0000d	85 c0		 test	 eax, eax
  0000f	74 0a		 je	 SHORT $LN8@List_nod
  00011	89 30		 mov	 DWORD PTR [eax], esi
  00013	89 06		 mov	 DWORD PTR [esi], eax

; 48   : 		}

  00015	8b c6		 mov	 eax, esi
  00017	5e		 pop	 esi
  00018	c2 04 00	 ret	 4

; 47   : 		{	// construct allocator from _Al

$LN8@List_nod:
  0001b	33 c0		 xor	 eax, eax
  0001d	89 06		 mov	 DWORD PTR [esi], eax

; 48   : 		}

  0001f	8b c6		 mov	 eax, esi
  00021	5e		 pop	 esi
  00022	c2 04 00	 ret	 4
??0?$_List_nod@USecurityTokenKeyfilePath@CipherShed@@V?$allocator@USecurityTokenKeyfilePath@CipherShed@@@std@@@std@@IAE@V?$allocator@USecurityTokenKeyfilePath@CipherShed@@@1@@Z ENDP ; std::_List_nod<CipherShed::SecurityTokenKeyfilePath,std::allocator<CipherShed::SecurityTokenKeyfilePath> >::_List_nod<CipherShed::SecurityTokenKeyfilePath,std::allocator<CipherShed::SecurityTokenKeyfilePath> >
_TEXT	ENDS
PUBLIC	??0?$_Vector_const_iterator@EV?$allocator@E@std@@@std@@QAE@PAEPBV_Container_base_aux@1@@Z ; std::_Vector_const_iterator<unsigned char,std::allocator<unsigned char> >::_Vector_const_iterator<unsigned char,std::allocator<unsigned char> >
; Function compile flags: /Ogtpy
; File c:\program files (x86)\microsoft visual studio 9.0\vc\include\vector
;	COMDAT ??0?$_Vector_const_iterator@EV?$allocator@E@std@@@std@@QAE@PAEPBV_Container_base_aux@1@@Z
_TEXT	SEGMENT
__Ptr$ = 8						; size = 4
__Pvector$ = 12						; size = 4
??0?$_Vector_const_iterator@EV?$allocator@E@std@@@std@@QAE@PAEPBV_Container_base_aux@1@@Z PROC ; std::_Vector_const_iterator<unsigned char,std::allocator<unsigned char> >::_Vector_const_iterator<unsigned char,std::allocator<unsigned char> >, COMDAT
; _this$ = ecx

; 76   : 	_Vector_const_iterator(_Tptr _Ptr, const _Container_base *_Pvector)

  00000	53		 push	 ebx

; 77   : 		{	// construct with pointer _Ptr
; 78   : 		_SCL_SECURE_VALIDATE(_Pvector != NULL && ((_Myvec *)_Pvector)->_Myfirst <= _Ptr && _Ptr <= ((_Myvec *)_Pvector)->_Mylast);

  00001	8b 5c 24 08	 mov	 ebx, DWORD PTR __Ptr$[esp]
  00005	56		 push	 esi
  00006	57		 push	 edi
  00007	8b 7c 24 14	 mov	 edi, DWORD PTR __Pvector$[esp+8]
  0000b	8b f1		 mov	 esi, ecx
  0000d	c7 06 00 00 00
	00		 mov	 DWORD PTR [esi], 0
  00013	85 ff		 test	 edi, edi
  00015	74 0a		 je	 SHORT $LN4@Vector_con
  00017	39 5f 0c	 cmp	 DWORD PTR [edi+12], ebx
  0001a	77 05		 ja	 SHORT $LN4@Vector_con
  0001c	3b 5f 10	 cmp	 ebx, DWORD PTR [edi+16]
  0001f	76 05		 jbe	 SHORT $LN3@Vector_con
$LN4@Vector_con:
  00021	e8 00 00 00 00	 call	 __invalid_parameter_noinfo
$LN3@Vector_con:

; 79   : 		this->_Set_container(_Pvector);

  00026	8b 07		 mov	 eax, DWORD PTR [edi]
  00028	89 06		 mov	 DWORD PTR [esi], eax
  0002a	5f		 pop	 edi

; 80   : 		_Myptr = _Ptr;

  0002b	89 5e 04	 mov	 DWORD PTR [esi+4], ebx

; 81   : 		}

  0002e	8b c6		 mov	 eax, esi
  00030	5e		 pop	 esi
  00031	5b		 pop	 ebx
  00032	c2 08 00	 ret	 8
??0?$_Vector_const_iterator@EV?$allocator@E@std@@@std@@QAE@PAEPBV_Container_base_aux@1@@Z ENDP ; std::_Vector_const_iterator<unsigned char,std::allocator<unsigned char> >::_Vector_const_iterator<unsigned char,std::allocator<unsigned char> >
_TEXT	ENDS
PUBLIC	??0?$_Const_iterator@$00@?$list@USecurityTokenKeyfilePath@CipherShed@@V?$allocator@USecurityTokenKeyfilePath@CipherShed@@@std@@@std@@QAE@PAU_Node@?$_List_nod@USecurityTokenKeyfilePath@CipherShed@@V?$allocator@USecurityTokenKeyfilePath@CipherShed@@@std@@@2@PBV12@@Z ; std::list<CipherShed::SecurityTokenKeyfilePath,std::allocator<CipherShed::SecurityTokenKeyfilePath> >::_Const_iterator<1>::_Const_iterator<1>
; Function compile flags: /Ogtpy
; File c:\program files (x86)\microsoft visual studio 9.0\vc\include\list
;	COMDAT ??0?$_Const_iterator@$00@?$list@USecurityTokenKeyfilePath@CipherShed@@V?$allocator@USecurityTokenKeyfilePath@CipherShed@@@std@@@std@@QAE@PAU_Node@?$_List_nod@USecurityTokenKeyfilePath@CipherShed@@V?$allocator@USecurityTokenKeyfilePath@CipherShed@@@std@@@2@PBV12@@Z
_TEXT	SEGMENT
__Pnode$ = 8						; size = 4
__Plist$ = 12						; size = 4
??0?$_Const_iterator@$00@?$list@USecurityTokenKeyfilePath@CipherShed@@V?$allocator@USecurityTokenKeyfilePath@CipherShed@@@std@@@std@@QAE@PAU_Node@?$_List_nod@USecurityTokenKeyfilePath@CipherShed@@V?$allocator@USecurityTokenKeyfilePath@CipherShed@@@std@@@2@PBV12@@Z PROC ; std::list<CipherShed::SecurityTokenKeyfilePath,std::allocator<CipherShed::SecurityTokenKeyfilePath> >::_Const_iterator<1>::_Const_iterator<1>, COMDAT
; _this$ = ecx

; 176  : 			{	// construct with node pointer _Pnode

  00000	8b 44 24 04	 mov	 eax, DWORD PTR __Pnode$[esp-4]
  00004	56		 push	 esi
  00005	57		 push	 edi

; 177  : 			_SCL_SECURE_TRAITS_VALIDATE(_Plist != NULL);

  00006	8b 7c 24 10	 mov	 edi, DWORD PTR __Plist$[esp+4]
  0000a	8b f1		 mov	 esi, ecx
  0000c	c7 06 00 00 00
	00		 mov	 DWORD PTR [esi], 0
