 CipherShed

 Timestamp is 5679e8c0 (Wed Dec 23 00:20:16 2015)

 Preferred load address is 00400000

 Start         Length     Name                   Class
 0001:00000000 0008bcdeH .text                   CODE
 0001:0008bce0 00004138H .text$x                 CODE
 0001:0008fe20 00000217H .text$yc                CODE
 0001:00090040 00000216H .text$yd                CODE
 0002:00000000 000005fcH .idata$5                DATA
 0002:000005fc 00000004H .CRT$XCA                DATA
 0002:00000600 0000000cH .CRT$XCC                DATA
 0002:0000060c 0000002cH .CRT$XCU                DATA
 0002:00000638 00000004H .CRT$XCZ                DATA
 0002:0000063c 00000004H .CRT$XIA                DATA
 0002:00000640 00000014H .CRT$XIC                DATA
 0002:00000654 00000004H .CRT$XID                DATA
 0002:00000658 00000004H .CRT$XIY                DATA
 0002:0000065c 00000004H .CRT$XIZ                DATA
 0002:00000660 00000004H .CRT$XPA                DATA
 0002:00000664 00000004H .CRT$XPX                DATA
 0002:00000668 00000004H .CRT$XPXA               DATA
 0002:0000066c 00000004H .CRT$XPZ                DATA
 0002:00000670 00000004H .CRT$XTA                DATA
 0002:00000674 00000004H .CRT$XTZ                DATA
 0002:00000680 00018f58H .rdata                  DATA
 0002:000195d8 00001520H .rdata$r                DATA
 0002:0001ab00 000003b8H .rdata$sxdata           DATA
 0002:0001aeb8 00000004H .rtc$IAA                DATA
 0002:0001aebc 00000004H .rtc$IZZ                DATA
 0002:0001aec0 00000004H .rtc$TAA                DATA
 0002:0001aec4 00000004H .rtc$TZZ                DATA
 0002:0001aec8 000060e4H .xdata$x                DATA
 0002:00020fac 00000000H ATL$__a                 DATA
 0002:00020fac 00000000H ATL$__z                 DATA
 0002:00020fac 000000dcH .idata$2                DATA
 0002:00021088 00000014H .idata$3                DATA
 0002:0002109c 000005fcH .idata$4                DATA
 0002:00021698 00001ad8H .idata$6                DATA
 0002:00023170 00000000H .edata                  DATA
 0003:00000000 00004e3cH .data                   DATA
 0003:00004e40 0002fc80H .bss                    DATA
 0004:00000000 00001008H .rsrc$01                DATA
 0004:00001010 000b7970H .rsrc$02                DATA

  Address         Publics by Value              Rva+Base       Lib:Object

 0000:00000000       __except_list              00000000     <absolute>
 0000:000000ee       ___safe_se_handler_count   000000ee     <absolute>
 0000:00000000       ___ImageBase               00400000     <linker-defined>
 0001:00000000       ??1bad_alloc@std@@UAE@XZ   00401000 f i Favorites.obj
 0001:00000010       ??_Gbad_alloc@std@@UAEPAXI@Z 00401010 f i Favorites.obj
 0001:00000010       ??_Ebad_alloc@std@@UAEPAXI@Z 00401010 f i Favorites.obj
 0001:00000040       ??3@YAXPAX0@Z              00401040 f i Favorites.obj
 0001:00000050       ?compare@?$char_traits@D@std@@SAHPBD0I@Z 00401050 f i Favorites.obj
 0001:000000d0       ??1Container@ForEach@CipherShed@@UAE@XZ 004010d0 f i Favorites.obj
 0001:000000e0       ??_GContainer@ForEach@CipherShed@@UAEPAXI@Z 004010e0 f i Favorites.obj
 0001:000000e0       ??_EContainer@ForEach@CipherShed@@UAEPAXI@Z 004010e0 f i Favorites.obj
 0001:00000120       ?empty@?$vector@UFavoriteVolume@CipherShed@@V?$allocator@UFavoriteVolume@CipherShed@@@std@@@std@@QBE_NXZ 00401120 f i Favorites.obj
 0001:00000150       ??A?$vector@UFavoriteVolume@CipherShed@@V?$allocator@UFavoriteVolume@CipherShed@@@std@@@std@@QAEAAUFavoriteVolume@CipherShed@@I@Z 00401150 f i Favorites.obj
 0001:00000190       ??D?$_Vector_const_iterator@UFavoriteVolume@CipherShed@@V?$allocator@UFavoriteVolume@CipherShed@@@std@@@std@@QBEABUFavoriteVolume@CipherShed@@XZ 00401190 f i Favorites.obj
 0001:000001c0       ?c_str@?$basic_string@DU?$char_traits@D@std@@V?$allocator@D@2@@std@@QBEPBDXZ 004011c0 f i Favorites.obj
 0001:000001c0       ?_Myptr@?$basic_string@DU?$char_traits@D@std@@V?$allocator@D@2@@std@@IBEPBDXZ 004011c0 f i Favorites.obj
 0001:000001d0       ??Y?$_Vector_const_iterator@UFavoriteVolume@CipherShed@@V?$allocator@UFavoriteVolume@CipherShed@@@std@@@std@@QAEAAV01@H@Z 004011d0 f i Favorites.obj
 0001:00000230       ??$_Allocate@UFavoriteVolume@CipherShed@@@std@@YAPAUFavoriteVolume@CipherShed@@IPAU12@@Z 00401230 f i Favorites.obj
 0001:000002a0       ??0bad_alloc@std@@QAE@ABV01@@Z 004012a0 f i Favorites.obj
 0001:000002c0       ??$_Allocate@D@std@@YAPADIPAD@Z 004012c0 f i Favorites.obj
 0001:000002c0       ??$_Allocate@E@std@@YAPAEIPAE@Z 004012c0 f i Dlgcode.obj
 0001:00000320       ??$_Allocate@_W@std@@YAPA_WIPA_W@Z 00401320 f i Favorites.obj
 0001:00000380       ??A?$basic_string@DU?$char_traits@D@std@@V?$allocator@D@2@@std@@QAEAADI@Z 00401380 f i Favorites.obj
 0001:000003b0       ?find@?$basic_string@DU?$char_traits@D@std@@V?$allocator@D@2@@std@@QBEIPBDII@Z 004013b0 f i Favorites.obj
 0001:00000470       ?rfind@?$basic_string@DU?$char_traits@D@std@@V?$allocator@D@2@@std@@QBEIPBDII@Z 00401470 f i Favorites.obj
 0001:00000520       ?compare@?$basic_string@DU?$char_traits@D@std@@V?$allocator@D@2@@std@@QBEHIIPBDI@Z 00401520 f i Favorites.obj
 0001:00000590       ??0?$_String_const_iterator@_WU?$char_traits@_W@std@@V?$allocator@_W@2@@std@@QAE@PB_WPBV_Container_base_secure@1@@Z 00401590 f i Favorites.obj
 0001:000005f0       ??$copy_s@U?$char_traits@D@std@@@_Traits_helper@std@@YAPADPADIPBDI@Z 004015f0 f i Favorites.obj
 0001:00000620       ??$copy_s@U?$char_traits@_W@std@@@_Traits_helper@std@@YAPA_WPA_WIPB_WI@Z 00401620 f i Favorites.obj
 0001:00000810       ?find@?$basic_string@DU?$char_traits@D@std@@V?$allocator@D@2@@std@@QBEIPBDI@Z 00401810 f i Favorites.obj
 0001:00000840       ?rfind@?$basic_string@DU?$char_traits@D@std@@V?$allocator@D@2@@std@@QBEIPBDI@Z 00401840 f i Favorites.obj
 0001:00000870       ??H?$_Vector_iterator@UFavoriteVolume@CipherShed@@V?$allocator@UFavoriteVolume@CipherShed@@@std@@@std@@QBE?AV01@H@Z 00401870 f i Favorites.obj
 0001:000008b0       ?_Tidy@?$basic_string@DU?$char_traits@D@std@@V?$allocator@D@2@@std@@IAEX_NI@Z 004018b0 f i Favorites.obj
 0001:00000900       ?_Buynode@?$list@UFavoriteVolume@CipherShed@@V?$allocator@UFavoriteVolume@CipherShed@@@std@@@std@@IAEPAU_Node@?$_List_nod@UFavoriteVolume@CipherShed@@V?$allocator@UFavoriteVolume@CipherShed@@@std@@@2@XZ 00401900 f i Favorites.obj
 0001:00000920       ?erase@?$basic_string@DU?$char_traits@D@std@@V?$allocator@D@2@@std@@QAEAAV12@II@Z 00401920 f i Favorites.obj
 0001:000009b0       ?erase@?$basic_string@_WU?$char_traits@_W@std@@V?$allocator@_W@2@@std@@QAEAAV12@II@Z 004019b0 f i Favorites.obj
 0001:00000a50       ?_Copy@?$basic_string@DU?$char_traits@D@std@@V?$allocator@D@2@@std@@IAEXII@Z 00401a50 f i Favorites.obj
 0001:00000b90       ?_Copy@?$basic_string@_WU?$char_traits@_W@std@@V?$allocator@_W@2@@std@@IAEXII@Z 00401b90 f i Favorites.obj
 0001:00000ce0       ??$?8DU?$char_traits@D@std@@V?$allocator@D@1@@std@@YA_NABV?$basic_string@DU?$char_traits@D@std@@V?$allocator@D@2@@0@PBD@Z 00401ce0 f i Favorites.obj
 0001:00000d20       ??$?8DU?$char_traits@D@std@@V?$allocator@D@1@@std@@YA_NABV?$basic_string@DU?$char_traits@D@std@@V?$allocator@D@2@@0@0@Z 00401d20 f i Favorites.obj
 0001:00000d50       ?Show@ErrorException@CipherShed@@UBEXPAUHWND__@@@Z 00401d50 f i Favorites.obj
 0001:00000d90       ??0FavoriteVolume@CipherShed@@QAE@XZ 00401d90 f i Favorites.obj
 0001:00000de0       ??1FavoriteVolume@CipherShed@@QAE@XZ 00401de0 f i Favorites.obj
 0001:00000e70       ??1FavoriteVolumesDlgProcArguments@CipherShed@@QAE@XZ 00401e70 f i Favorites.obj
 0001:00000e80       ?begin@?$vector@UFavoriteVolume@CipherShed@@V?$allocator@UFavoriteVolume@CipherShed@@@std@@@std@@QAE?AV?$_Vector_iterator@UFavoriteVolume@CipherShed@@V?$allocator@UFavoriteVolume@CipherShed@@@std@@@2@XZ 00401e80 f i Favorites.obj
 0001:00000eb0       ?assign@?$basic_string@DU?$char_traits@D@std@@V?$allocator@D@2@@std@@QAEAAV12@ABV12@II@Z 00401eb0 f i Favorites.obj
 0001:00000f90       ?assign@?$basic_string@_WU?$char_traits@_W@std@@V?$allocator@_W@2@@std@@QAEAAV12@ABV12@II@Z 00401f90 f i Favorites.obj
 0001:00001090       ?erase@?$basic_string@_WU?$char_traits@_W@std@@V?$allocator@_W@2@@std@@QAE?AV?$_String_iterator@_WU?$char_traits@_W@std@@V?$allocator@_W@2@@2@V?$_String_const_iterator@_WU?$char_traits@_W@std@@V?$allocator@_W@2@@2@0@Z 00402090 f i Favorites.obj
 0001:00001170       ?assign@?$basic_string@DU?$char_traits@D@std@@V?$allocator@D@2@@std@@QAEAAV12@PBDI@Z 00402170 f i Favorites.obj
 0001:00001250       ?append@?$basic_string@_WU?$char_traits@_W@std@@V?$allocator@_W@2@@std@@QAEAAV12@ABV12@II@Z 00402250 f i Favorites.obj
 0001:00001360       ?append@?$basic_string@_WU?$char_traits@_W@std@@V?$allocator@_W@2@@std@@QAEAAV12@PB_WI@Z 00402360 f i Favorites.obj
 0001:00001480       ?assign@?$basic_string@_WU?$char_traits@_W@std@@V?$allocator@_W@2@@std@@QAEAAV12@PB_WI@Z 00402480 f i Favorites.obj
 0001:00001570       ??0?$basic_string@DU?$char_traits@D@std@@V?$allocator@D@2@@std@@QAE@ABV01@@Z 00402570 f i Favorites.obj
 0001:000015a0       ?clear@?$basic_string@_WU?$char_traits@_W@std@@V?$allocator@_W@2@@std@@QAEXXZ 004025a0 f i Favorites.obj
 0001:00001640       ??0?$list@UFavoriteVolume@CipherShed@@V?$allocator@UFavoriteVolume@CipherShed@@@std@@@std@@QAE@XZ 00402640 f i Favorites.obj
 0001:000016b0       ??4?$basic_string@DU?$char_traits@D@std@@V?$allocator@D@2@@std@@QAEAAV01@PBD@Z 004026b0 f i Favorites.obj
 0001:000016b0       ?assign@?$basic_string@DU?$char_traits@D@std@@V?$allocator@D@2@@std@@QAEAAV12@PBD@Z 004026b0 f i Favorites.obj
 0001:000016e0       ??0logic_error@std@@QAE@ABV?$basic_string@DU?$char_traits@D@std@@V?$allocator@D@2@@1@@Z 004026e0 f i Favorites.obj
 0001:00001750       ??0length_error@std@@QAE@ABV?$basic_string@DU?$char_traits@D@std@@V?$allocator@D@2@@1@@Z 00402750 f i Favorites.obj
 0001:00001770       ??1length_error@std@@UAE@XZ 00402770 f i Favorites.obj
 0001:00001770       ??1out_of_range@std@@UAE@XZ 00402770 f i Dictionary.obj
 0001:000017b0       ??0FavoriteVolume@CipherShed@@QAE@ABU01@@Z 004027b0 f i Favorites.obj
 0001:000018b0       ??0?$basic_string@DU?$char_traits@D@std@@V?$allocator@D@2@@std@@QAE@PBD@Z 004028b0 f i Favorites.obj
 0001:000018f0       ??4?$basic_string@DU?$char_traits@D@std@@V?$allocator@D@2@@std@@QAEAAV01@ABV01@@Z 004028f0 f i Favorites.obj
 0001:00001910       ?substr@?$basic_string@DU?$char_traits@D@std@@V?$allocator@D@2@@std@@QBE?AV12@II@Z 00402910 f i Favorites.obj
 0001:00001950       ??0?$basic_string@_WU?$char_traits@_W@std@@V?$allocator@_W@2@@std@@QAE@PB_W@Z 00402950 f i Favorites.obj
 0001:00001990       ??Y?$basic_string@_WU?$char_traits@_W@std@@V?$allocator@_W@2@@std@@QAEAAV01@ABV01@@Z 00402990 f i Favorites.obj
 0001:000019b0       ??Y?$basic_string@_WU?$char_traits@_W@std@@V?$allocator@_W@2@@std@@QAEAAV01@PB_W@Z 004029b0 f i Favorites.obj
 0001:000019e0       ?substr@?$basic_string@_WU?$char_traits@_W@std@@V?$allocator@_W@2@@std@@QBE?AV12@II@Z 004029e0 f i Favorites.obj
 0001:00001a20       ??0logic_error@std@@QAE@ABV01@@Z 00402a20 f i Favorites.obj
 0001:00001aa0       ?_Incsize@?$list@UFavoriteVolume@CipherShed@@V?$allocator@UFavoriteVolume@CipherShed@@@std@@@std@@IAEXI@Z 00402aa0 f i Favorites.obj
 0001:00001b40       ??0length_error@std@@QAE@ABV01@@Z 00402b40 f i Favorites.obj
 0001:00001b60       ??$?H_WU?$char_traits@_W@std@@V?$allocator@_W@1@@std@@YA?AV?$basic_string@_WU?$char_traits@_W@std@@V?$allocator@_W@2@@0@ABV10@PB_W@Z 00402b60 f i Favorites.obj
 0001:00001c30       ??$?H_WU?$char_traits@_W@std@@V?$allocator@_W@1@@std@@YA?AV?$basic_string@_WU?$char_traits@_W@std@@V?$allocator@_W@2@@0@ABV10@0@Z 00402c30 f i Favorites.obj
 0001:00001ce0       ??$?H_WU?$char_traits@_W@std@@V?$allocator@_W@1@@std@@YA?AV?$basic_string@_WU?$char_traits@_W@std@@V?$allocator@_W@2@@0@PB_WABV10@@Z 00402ce0 f i Favorites.obj
 0001:00001da0       ??$_Construct@UFavoriteVolume@CipherShed@@U12@@std@@YAXPAUFavoriteVolume@CipherShed@@ABU12@@Z 00402da0 f i Favorites.obj
 0001:00001f70       ??4FavoriteVolume@CipherShed@@QAEAAU01@ABU01@@Z 00402f70 f i Favorites.obj
 0001:000024b0       ?_Buy@?$vector@UFavoriteVolume@CipherShed@@V?$allocator@UFavoriteVolume@CipherShed@@@std@@@std@@IAE_NI@Z 004034b0 f i Favorites.obj
 0001:00002500       ??$swap@UFavoriteVolume@CipherShed@@@std@@YAXAAUFavoriteVolume@CipherShed@@0@Z 00403500 f i Favorites.obj
 0001:000025a0       ??$_Uninit_fill_n@PAUFavoriteVolume@CipherShed@@IU12@V?$allocator@UFavoriteVolume@CipherShed@@@std@@@std@@YAXPAUFavoriteVolume@CipherShed@@IABU12@AAV?$allocator@UFavoriteVolume@CipherShed@@@0@U_Nonscalar_ptr_iterator_tag@0@U_Range_checked_iterator_tag@0@@Z 004035a0 f i Favorites.obj
 0001:00002640       ??$_Uninit_copy@PAUFavoriteVolume@CipherShed@@PAU12@V?$allocator@UFavoriteVolume@CipherShed@@@std@@@std@@YAPAUFavoriteVolume@CipherShed@@PAU12@00AAV?$allocator@UFavoriteVolume@CipherShed@@@0@U_Nonscalar_ptr_iterator_tag@0@U_Range_checked_iterator_tag@0@@Z 00403640 f i Favorites.obj
 0001:00002640       ??$_Uninit_copy@PBUFavoriteVolume@CipherShed@@PAU12@V?$allocator@UFavoriteVolume@CipherShed@@@std@@@std@@YAPAUFavoriteVolume@CipherShed@@PBU12@0PAU12@AAV?$allocator@UFavoriteVolume@CipherShed@@@0@U_Nonscalar_ptr_iterator_tag@0@U_Range_checked_iterator_tag@0@@Z 00403640 f i Favorites.obj
 0001:000026e0       ?erase@?$list@UFavoriteVolume@CipherShed@@V?$allocator@UFavoriteVolume@CipherShed@@@std@@@std@@QAE?AV?$_Iterator@$00@12@V?$_Const_iterator@$00@12@@Z 004036e0 f i Favorites.obj
 0001:00002770       ?clear@?$list@UFavoriteVolume@CipherShed@@V?$allocator@UFavoriteVolume@CipherShed@@@std@@@std@@QAEXXZ 00403770 f i Favorites.obj
 0001:000027b0       ?_Tidy@?$list@UFavoriteVolume@CipherShed@@V?$allocator@UFavoriteVolume@CipherShed@@@std@@@std@@IAEXXZ 004037b0 f i Favorites.obj
 0001:000027d0       ?_Buynode@?$list@UFavoriteVolume@CipherShed@@V?$allocator@UFavoriteVolume@CipherShed@@@std@@@std@@IAEPAU_Node@?$_List_nod@UFavoriteVolume@CipherShed@@V?$allocator@UFavoriteVolume@CipherShed@@@std@@@2@PAU342@0ABUFavoriteVolume@CipherShed@@@Z 004037d0 f i Favorites.obj
 0001:00002870       ??$fill@PAUFavoriteVolume@CipherShed@@U12@@std@@YAXPAUFavoriteVolume@CipherShed@@0ABU12@@Z 00403870 f i Favorites.obj
 0001:000028a0       ??$_Copy_opt@PAUFavoriteVolume@CipherShed@@PAU12@@std@@YAPAUFavoriteVolume@CipherShed@@PAU12@00Urandom_access_iterator_tag@0@U_Nonscalar_ptr_iterator_tag@0@U_Range_checked_iterator_tag@0@@Z 004038a0 f i Favorites.obj
 0001:000028f0       ??$_Copy_backward_opt@PAUFavoriteVolume@CipherShed@@PAU12@@std@@YAPAUFavoriteVolume@CipherShed@@PAU12@00Urandom_access_iterator_tag@0@U_Nonscalar_ptr_iterator_tag@0@U_Range_checked_iterator_tag@0@@Z 004038f0 f i Favorites.obj
 0001:00002950       ?_Destroy@?$vector@UFavoriteVolume@CipherShed@@V?$allocator@UFavoriteVolume@CipherShed@@@std@@@std@@IAEXPAUFavoriteVolume@CipherShed@@0@Z 00403950 f i Favorites.obj
 0001:00002980       ?_Tidy@?$vector@UFavoriteVolume@CipherShed@@V?$allocator@UFavoriteVolume@CipherShed@@@std@@@std@@IAEXXZ 00403980 f i Favorites.obj
 0001:000029d0       ?_Ufill@?$vector@UFavoriteVolume@CipherShed@@V?$allocator@UFavoriteVolume@CipherShed@@@std@@@std@@IAEPAUFavoriteVolume@CipherShed@@PAU34@IABU34@@Z 004039d0 f i Favorites.obj
 0001:00002a10       ??$unchecked_copy@PAUFavoriteVolume@CipherShed@@PAU12@@stdext@@YAPAUFavoriteVolume@CipherShed@@PAU12@00@Z 00403a10 f i Favorites.obj
 0001:00002a40       ??$_Insert@V?$_Const_iterator@$00@?$list@UFavoriteVolume@CipherShed@@V?$allocator@UFavoriteVolume@CipherShed@@@std@@@std@@@?$list@UFavoriteVolume@CipherShed@@V?$allocator@UFavoriteVolume@CipherShed@@@std@@@std@@QAEXV?$_Const_iterator@$00@01@00Uforward_iterator_tag@1@@Z 00403a40 f i Favorites.obj
 0001:00002ba0       ??1?$ContainerForward@V?$list@UFavoriteVolume@CipherShed@@V?$allocator@UFavoriteVolume@CipherShed@@@std@@@std@@@ForEach@CipherShed@@UAE@XZ 00403ba0 f i Favorites.obj
 0001:00002be0       ??1?$vector@UFavoriteVolume@CipherShed@@V?$allocator@UFavoriteVolume@CipherShed@@@std@@@std@@QAE@XZ 00403be0 f i Favorites.obj
 0001:00002c00       ?erase@?$vector@UFavoriteVolume@CipherShed@@V?$allocator@UFavoriteVolume@CipherShed@@@std@@@std@@QAE?AV?$_Vector_iterator@UFavoriteVolume@CipherShed@@V?$allocator@UFavoriteVolume@CipherShed@@@std@@@2@V?$_Vector_const_iterator@UFavoriteVolume@CipherShed@@V?$allocator@UFavoriteVolume@CipherShed@@@std@@@2@@Z 00403c00 f i Favorites.obj
 0001:00002c90       ?push_back@?$list@UFavoriteVolume@CipherShed@@V?$allocator@UFavoriteVolume@CipherShed@@@std@@@std@@QAEXABUFavoriteVolume@CipherShed@@@Z 00403c90 f i Favorites.obj
 0001:00002cd0       ?erase@?$vector@UFavoriteVolume@CipherShed@@V?$allocator@UFavoriteVolume@CipherShed@@@std@@@std@@QAE?AV?$_Vector_iterator@UFavoriteVolume@CipherShed@@V?$allocator@UFavoriteVolume@CipherShed@@@std@@@2@V?$_Vector_const_iterator@UFavoriteVolume@CipherShed@@V?$allocator@UFavoriteVolume@CipherShed@@@std@@@2@0@Z 00403cd0 f i Favorites.obj
 0001:00002d90       ??$_Ucopy@PAUFavoriteVolume@CipherShed@@@?$vector@UFavoriteVolume@CipherShed@@V?$allocator@UFavoriteVolume@CipherShed@@@std@@@std@@IAEPAUFavoriteVolume@CipherShed@@PAU23@00@Z 00403d90 f i Favorites.obj
 0001:00002d90       ??$_Umove@PAUFavoriteVolume@CipherShed@@@?$vector@UFavoriteVolume@CipherShed@@V?$allocator@UFavoriteVolume@CipherShed@@@std@@@std@@IAEPAUFavoriteVolume@CipherShed@@PAU23@00@Z 00403d90 f i Favorites.obj
 0001:00002dc0       ??$_Unchecked_move_backward@PAUFavoriteVolume@CipherShed@@PAU12@@stdext@@YAPAUFavoriteVolume@CipherShed@@PAU12@00@Z 00403dc0 f i Favorites.obj
 0001:00002df0       ??0?$vector@UFavoriteVolume@CipherShed@@V?$allocator@UFavoriteVolume@CipherShed@@@std@@@std@@QAE@ABV01@@Z 00403df0 f i Favorites.obj
 0001:00002ee0       ??1?$ContainerForward@V?$vector@UFavoriteVolume@CipherShed@@V?$allocator@UFavoriteVolume@CipherShed@@@std@@@std@@@ForEach@CipherShed@@UAE@XZ 00403ee0 f i Favorites.obj
 0001:00002f10       ?clear@?$vector@UFavoriteVolume@CipherShed@@V?$allocator@UFavoriteVolume@CipherShed@@@std@@@std@@QAEXXZ 00403f10 f i Favorites.obj
 0001:00002f50       ?_Insert_n@?$vector@UFavoriteVolume@CipherShed@@V?$allocator@UFavoriteVolume@CipherShed@@@std@@@std@@IAEXV?$_Vector_const_iterator@UFavoriteVolume@CipherShed@@V?$allocator@UFavoriteVolume@CipherShed@@@std@@@2@IABUFavoriteVolume@CipherShed@@@Z 00403f50 f i Favorites.obj
 0001:00003320       ??0?$ContainerForward@V?$vector@UFavoriteVolume@CipherShed@@V?$allocator@UFavoriteVolume@CipherShed@@@std@@@std@@@ForEach@CipherShed@@QAE@ABV?$vector@UFavoriteVolume@CipherShed@@V?$allocator@UFavoriteVolume@CipherShed@@@std@@@std@@@Z 00404320 f i Favorites.obj
 0001:000033c0       ?Next@?$ContainerForward@V?$vector@UFavoriteVolume@CipherShed@@V?$allocator@UFavoriteVolume@CipherShed@@@std@@@std@@@ForEach@CipherShed@@UBEXXZ 004043c0 f i Favorites.obj
 0001:000033f0       ??_E?$ContainerForward@V?$vector@UFavoriteVolume@CipherShed@@V?$allocator@UFavoriteVolume@CipherShed@@@std@@@std@@@ForEach@CipherShed@@UAEPAXI@Z 004043f0 f i Favorites.obj
 0001:000033f0       ??_G?$ContainerForward@V?$vector@UFavoriteVolume@CipherShed@@V?$allocator@UFavoriteVolume@CipherShed@@@std@@@std@@@ForEach@CipherShed@@UAEPAXI@Z 004043f0 f i Favorites.obj
 0001:00003430       ??0?$list@UFavoriteVolume@CipherShed@@V?$allocator@UFavoriteVolume@CipherShed@@@std@@@std@@QAE@ABV01@@Z 00404430 f i Favorites.obj
 0001:000034e0       ??4?$vector@UFavoriteVolume@CipherShed@@V?$allocator@UFavoriteVolume@CipherShed@@@std@@@std@@QAEAAV01@ABV01@@Z 004044e0 f i Favorites.obj
 0001:00003660       ?insert@?$vector@UFavoriteVolume@CipherShed@@V?$allocator@UFavoriteVolume@CipherShed@@@std@@@std@@QAE?AV?$_Vector_iterator@UFavoriteVolume@CipherShed@@V?$allocator@UFavoriteVolume@CipherShed@@@std@@@2@V?$_Vector_const_iterator@UFavoriteVolume@CipherShed@@V?$allocator@UFavoriteVolume@CipherShed@@@std@@@2@ABUFavoriteVolume@CipherShed@@@Z 00404660 f i Favorites.obj
 0001:00003720       ??$GetContainerForward@V?$vector@UFavoriteVolume@CipherShed@@V?$allocator@UFavoriteVolume@CipherShed@@@std@@@std@@@ForEach@CipherShed@@SA?AU?$ContainerForward@V?$vector@UFavoriteVolume@CipherShed@@V?$allocator@UFavoriteVolume@CipherShed@@@std@@@std@@@01@ABV?$vector@UFavoriteVolume@CipherShed@@V?$allocator@UFavoriteVolume@CipherShed@@@std@@@std@@@Z 00404720 f i Favorites.obj
 0001:00003740       ??0?$ContainerForward@V?$list@UFavoriteVolume@CipherShed@@V?$allocator@UFavoriteVolume@CipherShed@@@std@@@std@@@ForEach@CipherShed@@QAE@ABV?$list@UFavoriteVolume@CipherShed@@V?$allocator@UFavoriteVolume@CipherShed@@@std@@@std@@@Z 00404740 f i Favorites.obj
 0001:000037d0       ?Next@?$ContainerForward@V?$list@UPartition@CipherShed@@V?$allocator@UPartition@CipherShed@@@std@@@std@@@ForEach@CipherShed@@UBEXXZ 004047d0 f i BootEncryption.obj
 0001:000037d0       ?Next@?$ContainerForward@V?$list@UFavoriteVolume@CipherShed@@V?$allocator@UFavoriteVolume@CipherShed@@@std@@@std@@@ForEach@CipherShed@@UBEXXZ 004047d0 f i Favorites.obj
 0001:000037d0       ?Next@?$ContainerForward@V?$list@KV?$allocator@K@std@@@std@@@ForEach@CipherShed@@UBEXXZ 004047d0 f i Dlgcode.obj
 0001:000037d0       ?Next@?$ContainerForward@V?$list@V?$basic_string@DU?$char_traits@D@std@@V?$allocator@D@2@@std@@V?$allocator@V?$basic_string@DU?$char_traits@D@std@@V?$allocator@D@2@@std@@@2@@std@@@ForEach@CipherShed@@UBEXXZ 004047d0 f i Mount.obj
 0001:000037d0       ?Next@?$ContainerForward@V?$list@USecurityTokenKeyfile@CipherShed@@V?$allocator@USecurityTokenKeyfile@CipherShed@@@std@@@std@@@ForEach@CipherShed@@UBEXXZ 004047d0 f i Dlgcode.obj
 0001:000037d0       ?Next@?$ContainerForward@V?$list@USecurityTokenKeyfilePath@CipherShed@@V?$allocator@USecurityTokenKeyfilePath@CipherShed@@@std@@@std@@@ForEach@CipherShed@@UBEXXZ 004047d0 f i Keyfiles.obj
 0001:000037d0       ?Next@?$ContainerForward@V?$list@USecurityTokenInfo@CipherShed@@V?$allocator@USecurityTokenInfo@CipherShed@@@std@@@std@@@ForEach@CipherShed@@UBEXXZ 004047d0 f i Dlgcode.obj
 0001:00003810       ?IsNotEnd@?$ContainerForward@V?$list@USecurityTokenKeyfile@CipherShed@@V?$allocator@USecurityTokenKeyfile@CipherShed@@@std@@@std@@@ForEach@CipherShed@@UBE_NXZ 00404810 f i Dlgcode.obj
 0001:00003810       ?IsNotEnd@?$ContainerForward@V?$list@UFavoriteVolume@CipherShed@@V?$allocator@UFavoriteVolume@CipherShed@@@std@@@std@@@ForEach@CipherShed@@UBE_NXZ 00404810 f i Favorites.obj
 0001:00003810       ?IsNotEnd@?$ContainerForward@V?$list@USecurityTokenInfo@CipherShed@@V?$allocator@USecurityTokenInfo@CipherShed@@@std@@@std@@@ForEach@CipherShed@@UBE_NXZ 00404810 f i Dlgcode.obj
 0001:00003810       ?IsNotEnd@?$ContainerForward@V?$list@KV?$allocator@K@std@@@std@@@ForEach@CipherShed@@UBE_NXZ 00404810 f i Dlgcode.obj
 0001:00003810       ?IsNotEnd@?$ContainerForward@V?$list@V?$basic_string@DU?$char_traits@D@std@@V?$allocator@D@2@@std@@V?$allocator@V?$basic_string@DU?$char_traits@D@std@@V?$allocator@D@2@@std@@@2@@std@@@ForEach@CipherShed@@UBE_NXZ 00404810 f i Mount.obj
 0001:00003810       ?IsNotEnd@?$ContainerForward@V?$list@UPartition@CipherShed@@V?$allocator@UPartition@CipherShed@@@std@@@std@@@ForEach@CipherShed@@UBE_NXZ 00404810 f i BootEncryption.obj
 0001:00003810       ?IsNotEnd@?$ContainerForward@V?$list@USecurityTokenKeyfilePath@CipherShed@@V?$allocator@USecurityTokenKeyfilePath@CipherShed@@@std@@@std@@@ForEach@CipherShed@@UBE_NXZ 00404810 f i Keyfiles.obj
 0001:00003850       ??_G?$ContainerForward@V?$list@UFavoriteVolume@CipherShed@@V?$allocator@UFavoriteVolume@CipherShed@@@std@@@std@@@ForEach@CipherShed@@UAEPAXI@Z 00404850 f i Favorites.obj
 0001:00003850       ??_E?$ContainerForward@V?$list@UFavoriteVolume@CipherShed@@V?$allocator@UFavoriteVolume@CipherShed@@@std@@@std@@@ForEach@CipherShed@@UAEPAXI@Z 00404850 f i Favorites.obj
 0001:00004090       ?GetFavoriteVolumeLabel@CipherShed@@YA?AV?$basic_string@_WU?$char_traits@_W@std@@V?$allocator@_W@2@@std@@ABV?$basic_string@DU?$char_traits@D@std@@V?$allocator@D@2@@3@@Z 00405090 f   Favorites.obj
 0001:00004e00       ?push_back@?$vector@UFavoriteVolume@CipherShed@@V?$allocator@UFavoriteVolume@CipherShed@@@std@@@std@@QAEXABUFavoriteVolume@CipherShed@@@Z 00405e00 f i Favorites.obj
 0001:00004eb0       ??$GetContainerForward@V?$list@UFavoriteVolume@CipherShed@@V?$allocator@UFavoriteVolume@CipherShed@@@std@@@std@@@ForEach@CipherShed@@SA?AU?$ContainerForward@V?$list@UFavoriteVolume@CipherShed@@V?$allocator@UFavoriteVolume@CipherShed@@@std@@@std@@@01@ABV?$list@UFavoriteVolume@CipherShed@@V?$allocator@UFavoriteVolume@CipherShed@@@std@@@std@@@Z 00405eb0 f i Favorites.obj
 0001:00004ed0       ?LoadFavoriteVolumes@CipherShed@@YAXAAV?$vector@UFavoriteVolume@CipherShed@@V?$allocator@UFavoriteVolume@CipherShed@@@std@@@std@@_N1@Z 00405ed0 f   Favorites.obj
 0001:000067b0       ??0Exception@CipherShed@@QAE@ABU01@@Z 004077b0 f i Favorites.obj
 0001:000067c0       ??1ErrorException@CipherShed@@QAE@XZ 004077c0 f i Favorites.obj
 0001:000067f0       ??0ErrorException@CipherShed@@QAE@ABU01@@Z 004077f0 f i Favorites.obj
 0001:00006830       ?LoadFavoriteVolumes@CipherShed@@YAXXZ 00407830 f   Favorites.obj
 0001:000068b0       ?OrganizeFavoriteVolumes@CipherShed@@YAHPAUHWND__@@_NABUFavoriteVolume@1@@Z 004078b0 f   Favorites.obj
 0001:000069e0       ?UpdateDeviceHostedFavoriteVolumes@CipherShed@@YAXXZ 004079e0 f   Favorites.obj
 0001:00006a40       ?AddMountedVolumeToFavorites@CipherShed@@YAHPAUHWND__@@H_N@Z 00407a40 f   Favorites.obj
 0001:00007080       _GetKeyName                00408080 f   Hotkeys.obj
 0001:000078b0       _UnregisterAllHotkeys      004088b0 f   Hotkeys.obj
 0001:000078e0       _RegisterAllHotkeys        004088e0 f   Hotkeys.obj
 0001:00007d70       _HotkeysDlgProc@16         00408d70 f   Hotkeys.obj
 0001:00008450       ?AtlThrowImpl@ATL@@YGXJ@Z  00409450 f i MainCom.obj
 0001:00008470       ??1CComBSTR@ATL@@QAE@XZ    00409470 f i MainCom.obj
 0001:00008480       ?GetElevatedInstance@@YAPAUICipherShedMainCom@@PAUHWND__@@@Z 00409480 f   MainCom.obj
 0001:000084d0       ??1?$CAtlSafeAllocBufferManager@VCCRTAllocator@ATL@@@_ATL_SAFE_ALLOCA_IMPL@ATL@@QAE@XZ 004094d0 f i MainCom.obj
 0001:000084f0       _IsEqualGUID               004094f0 f i MainCom.obj
 0001:00008560       ?AtlThrowLastWin32@ATL@@YGXXZ 00409560 f i MainCom.obj
 0001:00008580       ?AddRef@CipherShedMainCom@@UAGKXZ 00409580 f i MainCom.obj
 0001:000085a0       ?QueryInterface@CipherShedMainCom@@UAGJABU_GUID@@PAPAX@Z 004095a0 f i MainCom.obj
 0001:00008600       ?AnalyzeKernelMiniDump@CipherShedMainCom@@UAGXJ@Z 00409600 f i MainCom.obj
 0001:00008620       ?CallDriver@CipherShedMainCom@@UAGKKPA_WPAPA_W@Z 00409620 f i MainCom.obj
 0001:00008640       ?CopyFileA@CipherShedMainCom@@UAGKPA_W0@Z 00409640 f i MainCom.obj
 0001:00008660       ?DeleteFileA@CipherShedMainCom@@UAGKPA_W@Z 00409660 f i MainCom.obj
 0001:00008670       ?IsPagingFileActive@CipherShedMainCom@@UAGHH@Z 00409670 f i MainCom.obj
 0001:00008680       ?ReadWriteFile@CipherShedMainCom@@UAGKHHPA_WPAPA_W_KIPAK@Z 00409680 f i MainCom.obj
 0001:000086c0       ?RegisterFilterDriver@CipherShedMainCom@@UAGKHH@Z 004096c0 f i MainCom.obj
 0001:000086e0       ?RegisterSystemFavoritesService@CipherShedMainCom@@UAGKH@Z 004096e0 f i MainCom.obj
 0001:000086f0       ?SetDriverServiceStartType@CipherShedMainCom@@UAGKK@Z 004096f0 f i MainCom.obj
 0001:00008700       ?WriteLocalMachineRegistryDwordValue@CipherShedMainCom@@UAGKPA_W0K@Z 00409700 f i MainCom.obj
 0001:00008720       ?AddRef@?$CipherShedFactory@VCipherShedMainCom@@@@UAGKXZ 00409720 f i MainCom.obj
 0001:00008740       ?QueryInterface@?$CipherShedFactory@VCipherShedMainCom@@@@UAGJABU_GUID@@PAPAX@Z 00409740 f i MainCom.obj
 0001:000087a0       ?LockServer@?$CipherShedFactory@VCipherShedMainCom@@@@UAGJH@Z 004097a0 f i MainCom.obj
 0001:000087f0       ?IsServerLocked@?$CipherShedFactory@VCipherShedMainCom@@@@UAE_NXZ 004097f0 f i MainCom.obj
 0001:00008800       ??$AtlConvAllocMemory@D@ATL@@YAXPAPADHPADH@Z 00409800 f i MainCom.obj
 0001:00008890       ??0CComBSTR@ATL@@QAE@PBD@Z 00409890 f i MainCom.obj
 0001:00008930       ?Release@CipherShedMainCom@@UAGKXZ 00409930 f i MainCom.obj
 0001:00008990       ??0UserAbort@CipherShed@@QAE@ABU01@@Z 00409990 f i MainCom.obj
 0001:000089a0       ??1?$CW2AEX@$0IA@@ATL@@QAE@XZ 004099a0 f i MainCom.obj
 0001:000089c0       ?Release@?$CipherShedFactory@VCipherShedMainCom@@@@UAGKXZ 004099c0 f i MainCom.obj
 0001:00008a00       ?Init@?$CW2AEX@$0IA@@ATL@@AAEXPB_WI@Z 00409a00 f i MainCom.obj
 0001:00008ac0       _ComServerMain             00409ac0 f   MainCom.obj
 0001:00008bb0       _UacAnalyzeKernelMiniDump  00409bb0 f   MainCom.obj
 0001:00008c20       _UacBackupVolumeHeader     00409c20 f   MainCom.obj
 0001:00008cb0       _UacRestoreVolumeHeader    00409cb0 f   MainCom.obj
 0001:00008d40       _UacChangePwd              00409d40 f   MainCom.obj
 0001:00008dd0       ?CreateInstance@?$CipherShedFactory@VCipherShedMainCom@@@@UAGJPAUIUnknown@@ABU_GUID@@PAPAX@Z 00409dd0 f i MainCom.obj
 0001:00008e70       ?BackupVolumeHeader@CipherShedMainCom@@UAGHJHPA_W@Z 00409e70 f i MainCom.obj
 0001:00008ee0       ?RestoreVolumeHeader@CipherShedMainCom@@UAGHJPA_W@Z 00409ee0 f i MainCom.obj
 0001:00008f40       ?ChangePassword@CipherShedMainCom@@UAGHPA_WPAUPassword@@1HJ@Z 00409f40 f i MainCom.obj
 0001:00008fc0       ?swprintf@@YAHPA_WPB_WZZ   00409fc0 f i Mount.obj
 0001:00008fe0       _wmemcmp                   00409fe0 f i Mount.obj
 0001:00009020       ?_Incref@facet@locale@std@@QAEXXZ 0040a020 f i Mount.obj
 0001:00009050       ?_Decref@facet@locale@std@@QAEPAV123@XZ 0040a050 f i Mount.obj
 0001:00009090       ??1facet@locale@std@@UAE@XZ 0040a090 f i Mount.obj
 0001:000090a0       ??1locale@std@@QAE@XZ      0040a0a0 f i Mount.obj
 0001:000090f0       ?getloc@ios_base@std@@QBE?AVlocale@2@XZ 0040a0f0 f i Mount.obj
 0001:00009130       _ConvertUTF16toUTF8s       0040a130 f i Mount.obj
 0001:00009160       _VolumeSelected            0040a160 f   Mount.obj
 0001:00009190       _LoadSettings              0040a190 f   Mount.obj
 0001:00009830       _WholeSysDriveEncryption   0040a830 f   Mount.obj
 0001:00009910       ?GetSysEncDeviceSize@@YA_KH@Z 0040a910 f   Mount.obj
 0001:000099b0       ?GetSysEncDeviceEncryptedPartSize@@YA_KH@Z 0040a9b0 f   Mount.obj
 0001:00009c90       _TCBootLoaderOnInactiveSysEncDrive 0040ac90 f   Mount.obj
 0001:0000a280       _PasswordChangeDlgProc@16  0040b280 f   Mount.obj
 0001:0000b390       _GetCipherBlockSizeByDriveNo 0040c390 f   Mount.obj
 0001:0000b480       _GetModeOfOperationByDriveNo 0040c480 f   Mount.obj
 0001:0000b500       ?TravelerDlgProc@@YGHPAUHWND__@@IIJ@Z 0040c500 f   Mount.obj
 0001:0000bdf0       _GetSelectedLong           0040cdf0 f   Mount.obj
 0001:0000be60       _GetItemLong               0040ce60 f   Mount.obj
 0001:0000c2e0       _ExtractCommandLine        0040d2e0 f   Mount.obj
 0001:0000d440       _TaskBarIconAdd            0040e440 f   Mount.obj
 0001:0000d5a0       _TaskBarIconRemove         0040e5a0 f   Mount.obj
 0001:0000d650       _TaskBarIconChange         0040e650 f   Mount.obj
 0001:0000d740       _DismountIdleVolumes       0040e740 f   Mount.obj
 0001:0000db10       _ChangeMainWindowVisibility 0040eb10 f   Mount.obj
 0001:0000db70       ?SetDriverConfigurationFlag@@YAXIH@Z 0040eb70 f   Mount.obj
 0001:0000dcc0       _HookMouseWheel            0040ecc0 f   Mount.obj
 0001:0000dd00       ??1?$basic_ios@_WU?$char_traits@_W@std@@@std@@UAE@XZ 0040ed00 f i BootEncryption.obj
 0001:0000dd00       ??1?$basic_ios@DU?$char_traits@D@std@@@std@@UAE@XZ 0040ed00 f i Mount.obj
 0001:0000dd10       ??1?$basic_istream@DU?$char_traits@D@std@@@std@@UAE@XZ 0040ed10 f i Mount.obj
 0001:0000dd20       ??1?$basic_iostream@DU?$char_traits@D@std@@@std@@UAE@XZ 0040ed20 f i Mount.obj
 0001:0000dd50       ??_Glocale@std@@QAEPAXI@Z  0040ed50 f i Mount.obj
 0001:0000ddc0       ?_Pnavail@?$basic_streambuf@_WU?$char_traits@_W@std@@@std@@IBEHXZ 0040edc0 f i BootEncryption.obj
 0001:0000ddc0       ?_Pnavail@?$basic_streambuf@DU?$char_traits@D@std@@@std@@IBEHXZ 0040edc0 f i Mount.obj
 0001:0000dde0       ?_Tidy@?$basic_stringbuf@DU?$char_traits@D@std@@V?$allocator@D@2@@std@@IAEXXZ 0040ede0 f i Mount.obj
 0001:0000dde0       ?_Tidy@?$basic_stringbuf@_WU?$char_traits@_W@std@@V?$allocator@_W@2@@std@@IAEXXZ 0040ede0 f i BootEncryption.obj
 0001:0000de40       ??1_Sentry_base@?$basic_ostream@DU?$char_traits@D@std@@@std@@QAE@XZ 0040ee40 f i Mount.obj
 0001:0000de40       ??1_Sentry_base@?$basic_ostream@_WU?$char_traits@_W@std@@@std@@QAE@XZ 0040ee40 f i BootEncryption.obj
 0001:0000de60       ?_Chassign@?$basic_string@DU?$char_traits@D@std@@V?$allocator@D@2@@std@@IAEXIID@Z 0040ee60 f i Mount.obj
 0001:0000dec0       ??$_Allocate@UHostDevice@@@std@@YAPAUHostDevice@@IPAU1@@Z 0040eec0 f i Mount.obj
 0001:0000df20       ?compare@?$basic_string@_WU?$char_traits@_W@std@@V?$allocator@_W@2@@std@@QBEHIIPB_WI@Z 0040ef20 f i Mount.obj
 0001:0000df90       ??$_Copy_opt@PAUHostDevice@@PAU1@Uforward_iterator_tag@std@@@std@@YAPAUHostDevice@@PAU1@00Uforward_iterator_tag@0@U_Nonscalar_ptr_iterator_tag@0@U_Range_checked_iterator_tag@0@@Z 0040ef90 f i Mount.obj
 0001:0000dfd0       ??0?$ctype@D@std@@QAE@ABV_Locinfo@1@I@Z 0040efd0 f i Mount.obj
 0001:0000e010       ?do_tolower@?$ctype@D@std@@MBEDD@Z 0040f010 f i Mount.obj
 0001:0000e030       ?do_tolower@?$ctype@D@std@@MBEPBDPADPBD@Z 0040f030 f i Mount.obj
 0001:0000e060       ?do_toupper@?$ctype@D@std@@MBEDD@Z 0040f060 f i Mount.obj
 0001:0000e080       ?do_toupper@?$ctype@D@std@@MBEPBDPADPBD@Z 0040f080 f i Mount.obj
 0001:0000e0b0       ?do_widen@?$ctype@D@std@@MBEDD@Z 0040f0b0 f i Mount.obj
 0001:0000e0c0       ?do_widen@?$ctype@D@std@@MBEPBDPBD0PAD@Z 0040f0c0 f i Mount.obj
 0001:0000e0f0       ?_Do_widen_s@?$ctype@D@std@@MBEPBDPBD0PADI@Z 0040f0f0 f i Mount.obj
 0001:0000e130       ?do_narrow@?$ctype@D@std@@MBEDDD@Z 0040f130 f i Mount.obj
 0001:0000e140       ?do_narrow@?$ctype@D@std@@MBEPBDPBD0DPAD@Z 0040f140 f i Mount.obj
 0001:0000e170       ?_Do_narrow_s@?$ctype@D@std@@MBEPBDPBD0DPADI@Z 0040f170 f i Mount.obj
 0001:0000e1b0       ??_E?$ctype@D@std@@MAEPAXI@Z 0040f1b0 f i Mount.obj
 0001:0000e1b0       ??_G?$ctype@D@std@@MAEPAXI@Z 0040f1b0 f i Mount.obj
 0001:0000e390       _EnableDisableButtons      0040f390 f   Mount.obj
 0001:0000e560       ?ActiveSysEncDeviceSelected@@YAHXZ 0040f560 f   Mount.obj
 0001:0000e670       _SaveSettings              0040f670 f   Mount.obj
 0001:0000ea90       _CheckSysEncMountWithoutPBA 0040fa90 f   Mount.obj
 0001:0000ecb0       _SelectItem                0040fcb0 f   Mount.obj
 0001:0000eda0       ?PreferencesDlgProc@@YGHPAUHWND__@@IIJ@Z 0040fda0 f   Mount.obj
 0001:0000f560       _MountOptionsDlgProc@16    00410560 f   Mount.obj
 0001:0000fd10       ??1?$basic_streambuf@DU?$char_traits@D@std@@@std@@UAE@XZ 00410d10 f i Mount.obj
 0001:0000fd80       ?pbackfail@?$basic_streambuf@DU?$char_traits@D@std@@@std@@MAEHH@Z 00410d80 f i Mount.obj
 0001:0000fd80       ?overflow@?$basic_streambuf@DU?$char_traits@D@std@@@std@@MAEHH@Z 00410d80 f i Mount.obj
 0001:0000fd90       ?underflow@?$basic_streambuf@DU?$char_traits@D@std@@@std@@MAEHXZ 00410d90 f i Mount.obj
 0001:0000fda0       ?xsgetn@?$basic_streambuf@_WU?$char_traits@_W@std@@@std@@MAEHPA_WH@Z 00410da0 f i BootEncryption.obj
 0001:0000fda0       ?xsgetn@?$basic_streambuf@DU?$char_traits@D@std@@@std@@MAEHPADH@Z 00410da0 f i Mount.obj
 0001:0000fdc0       ?uflow@?$basic_streambuf@DU?$char_traits@D@std@@@std@@MAEHXZ 00410dc0 f i Mount.obj
 0001:0000fdf0       ?seekpos@?$basic_streambuf@_WU?$char_traits@_W@std@@@std@@MAE?AV?$fpos@H@2@V32@H@Z 00410df0 f i BootEncryption.obj
 0001:0000fdf0       ?seekpos@?$basic_streambuf@DU?$char_traits@D@std@@@std@@MAE?AV?$fpos@H@2@V32@H@Z 00410df0 f i Mount.obj
 0001:0000fe10       ?pbackfail@?$basic_stringbuf@DU?$char_traits@D@std@@V?$allocator@D@2@@std@@MAEHH@Z 00410e10 f i Mount.obj
 0001:0000fe60       ?underflow@?$basic_stringbuf@DU?$char_traits@D@std@@V?$allocator@D@2@@std@@MAEHXZ 00410e60 f i Mount.obj
 0001:0000fed0       ?seekoff@?$basic_stringbuf@DU?$char_traits@D@std@@V?$allocator@D@2@@std@@MAE?AV?$fpos@H@2@JHH@Z 00410ed0 f i Mount.obj
 0001:00010030       ?seekpos@?$basic_stringbuf@DU?$char_traits@D@std@@V?$allocator@D@2@@std@@MAE?AV?$fpos@H@2@V32@H@Z 00411030 f i Mount.obj
 0001:00010100       ??_G?$basic_ostream@DU?$char_traits@D@std@@@std@@UAEPAXI@Z 00411100 f i Mount.obj
 0001:00010100       ??_E?$basic_ostream@DU?$char_traits@D@std@@@std@@UAEPAXI@Z 00411100 f i Mount.obj
 0001:00010140       ??_E?$basic_istream@DU?$char_traits@D@std@@@std@@UAEPAXI@Z 00411140 f i Mount.obj
 0001:00010140       ??_G?$basic_istream@DU?$char_traits@D@std@@@std@@UAEPAXI@Z 00411140 f i Mount.obj
 0001:00010180       ??_E?$basic_streambuf@DU?$char_traits@D@std@@@std@@UAEPAXI@Z 00411180 f i Mount.obj
 0001:00010180       ??_G?$basic_streambuf@DU?$char_traits@D@std@@@std@@UAEPAXI@Z 00411180 f i Mount.obj
 0001:000101a0       ??_E?$basic_iostream@DU?$char_traits@D@std@@@std@@UAEPAXI@Z 004111a0 f i Mount.obj
 0001:000101a0       ??_G?$basic_iostream@DU?$char_traits@D@std@@@std@@UAEPAXI@Z 004111a0 f i Mount.obj
 0001:00010200       ??_G?$basic_stringbuf@DU?$char_traits@D@std@@V?$allocator@D@2@@std@@UAEPAXI@Z 00411200 f i Mount.obj
 0001:00010200       ??_E?$basic_stringbuf@DU?$char_traits@D@std@@V?$allocator@D@2@@std@@UAEPAXI@Z 00411200 f i Mount.obj
 0001:00010230       ?_Tidy@?$vector@UHostDevice@@V?$allocator@UHostDevice@@@std@@@std@@IAEXXZ 00411230 f i Mount.obj
 0001:00010280       ??0?$basic_streambuf@DU?$char_traits@D@std@@@std@@IAE@XZ 00411280 f i Mount.obj
 0001:00010330       ??0?$_String_const_iterator@DU?$char_traits@D@std@@V?$allocator@D@2@@std@@QAE@PBDPBV_Container_base_secure@1@@Z 00411330 f i Mount.obj
 0001:00010390       ?_Ifmt@?$num_put@_WV?$ostreambuf_iterator@_WU?$char_traits@_W@std@@@std@@@std@@ABAPADPADPBDH@Z 00411390 f i Dlgcode.obj
 0001:00010390       ?_Ifmt@?$num_put@DV?$ostreambuf_iterator@DU?$char_traits@D@std@@@std@@@std@@ABAPADPADPBDH@Z 00411390 f i Mount.obj
 0001:00010420       ?_Tidy@?$numpunct@_W@std@@AAEXXZ 00411420 f i Dlgcode.obj
 0001:00010420       ?_Tidy@?$numpunct@D@std@@AAEXXZ 00411420 f i Mount.obj
 0001:00010450       ??$_Maklocstr@D@std@@YAPADPBDPADABU_Cvtvec@@@Z 00411450 f i Mount.obj
 0001:00010490       ?_Init@?$numpunct@D@std@@IAEXABV_Locinfo@2@_N@Z 00411490 f i Mount.obj
 0001:00010600       ??$_Copy_opt@PAUHostDevice@@PAU1@@std@@YAPAUHostDevice@@PAU1@00Urandom_access_iterator_tag@0@U_Nonscalar_ptr_iterator_tag@0@U_Range_checked_iterator_tag@0@@Z 00411600 f i Mount.obj
 0001:00010660       _EndMainDlg                00411660 f   Mount.obj
 0001:000107a0       ?_Xsgetn_s@?$basic_streambuf@DU?$char_traits@D@std@@@std@@MAEHPADIH@Z 004117a0 f i Mount.obj
 0001:00010830       ?xsputn@?$basic_streambuf@DU?$char_traits@D@std@@@std@@MAEHPBDH@Z 00411830 f i Mount.obj
 0001:000108c0       ??D?$_Const_iterator@$00@?$list@UFavoriteVolume@CipherShed@@V?$allocator@UFavoriteVolume@CipherShed@@@std@@@std@@QBEABUFavoriteVolume@CipherShed@@XZ 004118c0 f i Favorites.obj
 0001:000108c0       ??D?$_Const_iterator@$00@?$list@V?$basic_string@DU?$char_traits@D@std@@V?$allocator@D@2@@std@@V?$allocator@V?$basic_string@DU?$char_traits@D@std@@V?$allocator@D@2@@std@@@2@@std@@QBEABV?$basic_string@DU?$char_traits@D@std@@V?$allocator@D@2@@2@XZ 004118c0 f i Mount.obj
 0001:000108c0       ??D?$_Const_iterator@$00@?$list@USecurityTokenKeyfilePath@CipherShed@@V?$allocator@USecurityTokenKeyfilePath@CipherShed@@@std@@@std@@QBEABUSecurityTokenKeyfilePath@CipherShed@@XZ 004118c0 f i Keyfiles.obj
 0001:000108c0       ??C?$_Iterator@$00@?$list@UFavoriteVolume@CipherShed@@V?$allocator@UFavoriteVolume@CipherShed@@@std@@@std@@QBEPAUFavoriteVolume@CipherShed@@XZ 004118c0 f i Mount.obj
 0001:000108c0       ??D?$_Const_iterator@$00@?$list@USecurityTokenKeyfile@CipherShed@@V?$allocator@USecurityTokenKeyfile@CipherShed@@@std@@@std@@QBEABUSecurityTokenKeyfile@CipherShed@@XZ 004118c0 f i Dlgcode.obj
 0001:000108f0       ??1?$basic_stringstream@DU?$char_traits@D@std@@V?$allocator@D@2@@std@@UAE@XZ 004118f0 f i Mount.obj
 0001:00010980       ?overflow@?$basic_stringbuf@DU?$char_traits@D@std@@V?$allocator@D@2@@std@@MAEHH@Z 00411980 f i Mount.obj
 0001:00010b50       ?_Rep@?$num_put@DV?$ostreambuf_iterator@DU?$char_traits@D@std@@@std@@@std@@ABA?AV?$ostreambuf_iterator@DU?$char_traits@D@std@@@2@V32@DI@Z 00411b50 f i Mount.obj
 0001:00010bc0       ?_Putc@?$num_put@DV?$ostreambuf_iterator@DU?$char_traits@D@std@@@std@@@std@@ABA?AV?$ostreambuf_iterator@DU?$char_traits@D@std@@@2@V32@PBDI@Z 00411bc0 f i Mount.obj
 0001:00010bc0       ?_Put@?$num_put@DV?$ostreambuf_iterator@DU?$char_traits@D@std@@@std@@@std@@ABA?AV?$ostreambuf_iterator@DU?$char_traits@D@std@@@2@V32@PBDI@Z 00411bc0 f i Mount.obj
 0001:00010c30       ?_Putgrouped@?$num_put@DV?$ostreambuf_iterator@DU?$char_traits@D@std@@@std@@@std@@ABA?AV?$ostreambuf_iterator@DU?$char_traits@D@std@@@2@V32@PBDID@Z 00411c30 f i Mount.obj
 0001:00010cd0       ??$?9DU?$char_traits@D@std@@V?$allocator@D@1@@std@@YA_NABV?$basic_string@DU?$char_traits@D@std@@V?$allocator@D@2@@0@0@Z 00411cd0 f i Mount.obj
 0001:00010d00       ??$unchecked_copy@PAUHostDevice@@PAU1@@stdext@@YAPAUHostDevice@@PAU1@00@Z 00411d00 f i Mount.obj
 0001:00010d30       ??0?$numpunct@D@std@@QAE@ABV_Locinfo@1@I_N@Z 00411d30 f i Mount.obj
 0001:00010da0       ?do_decimal_point@?$numpunct@D@std@@MBEDXZ 00411da0 f i Mount.obj
 0001:00010db0       ?do_thousands_sep@?$numpunct@D@std@@MBEDXZ 00411db0 f i Mount.obj
 0001:00010dc0       ??_G?$numpunct@D@std@@MAEPAXI@Z 00411dc0 f i Mount.obj
 0001:00010dc0       ??_E?$numpunct@D@std@@MAEPAXI@Z 00411dc0 f i Mount.obj
 0001:00010e10       ??_D?$basic_stringstream@DU?$char_traits@D@std@@V?$allocator@D@2@@std@@QAEXXZ 00411e10 f i Mount.obj
 0001:00010e30       ??1?$vector@UHostDevice@@V?$allocator@UHostDevice@@@std@@@std@@QAE@XZ 00411e30 f i Mount.obj
 0001:00010e90       ??_G?$basic_stringstream@DU?$char_traits@D@std@@V?$allocator@D@2@@std@@UAEPAXI@Z 00411e90 f i Mount.obj
 0001:00010e90       ??_E?$basic_stringstream@DU?$char_traits@D@std@@V?$allocator@D@2@@std@@UAEPAXI@Z 00411e90 f i Mount.obj
 0001:00010ed0       ?erase@?$basic_string@DU?$char_traits@D@std@@V?$allocator@D@2@@std@@QAE?AV?$_String_iterator@DU?$char_traits@D@std@@V?$allocator@D@2@@2@V?$_String_const_iterator@DU?$char_traits@D@std@@V?$allocator@D@2@@2@0@Z 00411ed0 f i Mount.obj
 0001:00010fb0       ??0?$basic_stringbuf@DU?$char_traits@D@std@@V?$allocator@D@2@@std@@QAE@H@Z 00411fb0 f i Mount.obj
 0001:00011030       ?append@?$basic_string@DU?$char_traits@D@std@@V?$allocator@D@2@@std@@QAEAAV12@ABV12@II@Z 00412030 f i Mount.obj
 0001:00011130       ?append@?$basic_string@DU?$char_traits@D@std@@V?$allocator@D@2@@std@@QAEAAV12@PBDI@Z 00412130 f i Mount.obj
 0001:00011240       ?truename@?$numpunct@_W@std@@QBE?AV?$basic_string@_WU?$char_traits@_W@std@@V?$allocator@_W@2@@2@XZ 00412240 f i Dlgcode.obj
 0001:00011240       ?truename@?$numpunct@D@std@@QBE?AV?$basic_string@DU?$char_traits@D@std@@V?$allocator@D@2@@2@XZ 00412240 f i Mount.obj
 0001:00011260       ?append@?$basic_string@DU?$char_traits@D@std@@V?$allocator@D@2@@std@@QAEAAV12@ID@Z 00412260 f i Mount.obj
 0001:00011310       ?insert@?$basic_string@DU?$char_traits@D@std@@V?$allocator@D@2@@std@@QAEAAV12@IID@Z 00412310 f i Mount.obj
 0001:00011410       ?what@runtime_error@std@@UBEPBDXZ 00412410 f i Mount.obj
 0001:00011410       ?what@logic_error@std@@UBEPBDXZ 00412410 f i Favorites.obj
 0001:00011420       ??_Eruntime_error@std@@UAEPAXI@Z 00412420 f i Mount.obj
 0001:00011420       ??_Efailure@ios_base@std@@UAEPAXI@Z 00412420 f i Mount.obj
 0001:00011420       ??_Gfailure@ios_base@std@@UAEPAXI@Z 00412420 f i Mount.obj
 0001:00011420       ??_Gruntime_error@std@@UAEPAXI@Z 00412420 f i Mount.obj
 0001:00011470       ??0_Locinfo@std@@QAE@ABV?$basic_string@DU?$char_traits@D@std@@V?$allocator@D@2@@1@@Z 00412470 f i Mount.obj
 0001:00011500       ??1_Locinfo@std@@QAE@XZ    00412500 f i Mount.obj
 0001:000115e0       ??1HostDevice@@QAE@XZ      004125e0 f i Mount.obj
 0001:00011690       ?VolumePropertiesDlgProc@@YGHPAUHWND__@@IIJ@Z 00412690 f   Mount.obj
 0001:00012240       ??1?$ContainerForward@V?$vector@UHostDevice@@V?$allocator@UHostDevice@@@std@@@std@@@ForEach@CipherShed@@UAE@XZ 00413240 f i Mount.obj
 0001:00012460       ??1Partition@CipherShed@@QAE@XZ 00413460 f i Mount.obj
 0001:00012570       ?erase@?$basic_string@DU?$char_traits@D@std@@V?$allocator@D@2@@std@@QAE?AV?$_String_iterator@DU?$char_traits@D@std@@V?$allocator@D@2@@2@V?$_String_const_iterator@DU?$char_traits@D@std@@V?$allocator@D@2@@2@@Z 00413570 f i Mount.obj
 0001:00012610       ?clear@?$basic_string@DU?$char_traits@D@std@@V?$allocator@D@2@@std@@QAEXXZ 00413610 f i Mount.obj
 0001:000126b0       ?insert@?$basic_string@DU?$char_traits@D@std@@V?$allocator@D@2@@std@@QAEAAV12@IABV12@II@Z 004136b0 f i Mount.obj
 0001:00012820       ??Y?$basic_string@DU?$char_traits@D@std@@V?$allocator@D@2@@std@@QAEAAV01@ABV01@@Z 00413820 f i Mount.obj
 0001:00012840       ??Y?$basic_string@DU?$char_traits@D@std@@V?$allocator@D@2@@std@@QAEAAV01@PBD@Z 00413840 f i Mount.obj
 0001:00012870       ?insert@?$basic_string@DU?$char_traits@D@std@@V?$allocator@D@2@@std@@QAEAAV12@IPBDI@Z 00413870 f i Mount.obj
 0001:000129e0       ??$?HDU?$char_traits@D@std@@V?$allocator@D@1@@std@@YA?AV?$basic_string@DU?$char_traits@D@std@@V?$allocator@D@2@@0@ABV10@PBD@Z 004139e0 f i Mount.obj
 0001:00012aa0       ??$?HDU?$char_traits@D@std@@V?$allocator@D@1@@std@@YA?AV?$basic_string@DU?$char_traits@D@std@@V?$allocator@D@2@@0@DABV10@@Z 00413aa0 f i Mount.obj
 0001:00012b40       ??$?HDU?$char_traits@D@std@@V?$allocator@D@1@@std@@YA?AV?$basic_string@DU?$char_traits@D@std@@V?$allocator@D@2@@0@ABV10@D@Z 00413b40 f i Mount.obj
 0001:00012bf0       ??$?HDU?$char_traits@D@std@@V?$allocator@D@1@@std@@YA?AV?$basic_string@DU?$char_traits@D@std@@V?$allocator@D@2@@0@ABV10@0@Z 00413bf0 f i Mount.obj
 0001:00012ca0       ??$_Construct@V?$basic_string@DU?$char_traits@D@std@@V?$allocator@D@2@@std@@V12@@std@@YAXPAV?$basic_string@DU?$char_traits@D@std@@V?$allocator@D@2@@0@ABV10@@Z 00413ca0 f i Mount.obj
 0001:00012d10       ??0runtime_error@std@@QAE@ABV?$basic_string@DU?$char_traits@D@std@@V?$allocator@D@2@@1@@Z 00413d10 f i Mount.obj
 0001:00012d80       ?name@locale@std@@QBE?AV?$basic_string@DU?$char_traits@D@std@@V?$allocator@D@2@@2@XZ 00413d80 f i Mount.obj
 0001:00012db0       ?_Getcat@?$ctype@D@std@@SAIPAPBVfacet@locale@2@PBV42@@Z 00413db0 f i Mount.obj
 0001:00012eb0       ??1failure@ios_base@std@@UAE@XZ 00413eb0 f i Mount.obj
 0001:00012fb0       ?str@?$basic_stringbuf@DU?$char_traits@D@std@@V?$allocator@D@2@@std@@QBE?AV?$basic_string@DU?$char_traits@D@std@@V?$allocator@D@2@@2@XZ 00413fb0 f i Mount.obj
 0001:00013100       ?_Incsize@?$list@V?$basic_string@DU?$char_traits@D@std@@V?$allocator@D@2@@std@@V?$allocator@V?$basic_string@DU?$char_traits@D@std@@V?$allocator@D@2@@std@@@2@@std@@IAEXI@Z 00414100 f i Mount.obj
 0001:00013100       ?_Incsize@?$list@USecurityTokenKeyfilePath@CipherShed@@V?$allocator@USecurityTokenKeyfilePath@CipherShed@@@std@@@std@@IAEXI@Z 00414100 f i Dlgcode.obj
 0001:000131a0       ?do_falsename@?$numpunct@D@std@@MBE?AV?$basic_string@DU?$char_traits@D@std@@V?$allocator@D@2@@2@XZ 004141a0 f i Mount.obj
 0001:000131f0       ?do_truename@?$numpunct@D@std@@MBE?AV?$basic_string@DU?$char_traits@D@std@@V?$allocator@D@2@@2@XZ 004141f0 f i Mount.obj
 0001:00013240       ??$use_facet@V?$ctype@D@std@@@std@@YAABV?$ctype@D@0@ABVlocale@0@@Z 00414240 f i Mount.obj
 0001:00013390       ??$?HDU?$char_traits@D@std@@V?$allocator@D@1@@std@@YA?AV?$basic_string@DU?$char_traits@D@std@@V?$allocator@D@2@@0@PBDABV10@@Z 00414390 f i Mount.obj
 0001:00013450       ?_Getcat@?$num_put@DV?$ostreambuf_iterator@DU?$char_traits@D@std@@@std@@@std@@SAIPAPBVfacet@locale@2@PBV42@@Z 00414450 f i Mount.obj
 0001:00013560       ?_Getcat@?$numpunct@D@std@@SAIPAPBVfacet@locale@2@PBV42@@Z 00414560 f i Mount.obj
 0001:00013670       ?erase@?$list@V?$basic_string@DU?$char_traits@D@std@@V?$allocator@D@2@@std@@V?$allocator@V?$basic_string@DU?$char_traits@D@std@@V?$allocator@D@2@@std@@@2@@std@@QAE?AV?$_Iterator@$00@12@V?$_Const_iterator@$00@12@@Z 00414670 f i Mount.obj
 0001:00013710       ?clear@ios_base@std@@QAEXH_N@Z 00414710 f i Mount.obj
 0001:00013840       ??0runtime_error@std@@QAE@ABV01@@Z 00414840 f i Mount.obj
 0001:000138c0       ??0failure@ios_base@std@@QAE@ABV012@@Z 004148c0 f i Mount.obj
 0001:000138e0       ?_Init@ios_base@std@@IAEXXZ 004148e0 f i Mount.obj
 0001:00013960       _LoadDriveLetters          00414960 f   Mount.obj
 0001:000147d0       _PasswordDlgProc@16        004157d0 f   Mount.obj
 0001:00015160       _BuildTree                 00416160 f   Mount.obj
 0001:00015460       _CreateRescueDisk          00416460 f   Mount.obj
 0001:000158a0       _BackupVolumeHeader        004168a0 f   Mount.obj
 0001:00015f00       _RestoreVolumeHeader       00416f00 f   Mount.obj
 0001:00016cb0       _SecurityTokenPreferencesDialog 00417cb0 f   Mount.obj
 0001:00017020       ?str@?$basic_stringstream@DU?$char_traits@D@std@@V?$allocator@D@2@@std@@QBE?AV?$basic_string@DU?$char_traits@D@std@@V?$allocator@D@2@@2@XZ 00418020 f i Mount.obj
 0001:00017040       ?_Buy@?$vector@UHostDevice@@V?$allocator@UHostDevice@@@std@@@std@@IAE_NI@Z 00418040 f i Mount.obj
 0001:00017090       ?clear@?$list@V?$basic_string@DU?$char_traits@D@std@@V?$allocator@D@2@@std@@V?$allocator@V?$basic_string@DU?$char_traits@D@std@@V?$allocator@D@2@@std@@@2@@std@@QAEXXZ 00418090 f i Mount.obj
 0001:000170f0       ?_Buynode@?$list@V?$basic_string@DU?$char_traits@D@std@@V?$allocator@D@2@@std@@V?$allocator@V?$basic_string@DU?$char_traits@D@std@@V?$allocator@D@2@@std@@@2@@std@@IAEPAU_Node@?$_List_nod@V?$basic_string@DU?$char_traits@D@std@@V?$allocator@D@2@@std@@V?$allocator@V?$basic_string@DU?$char_traits@D@std@@V?$allocator@D@2@@std@@@2@@2@PAU342@0ABV?$basic_string@DU?$char_traits@D@std@@V?$allocator@D@2@@2@@Z 004180f0 f i Mount.obj
 0001:00017190       ?widen@?$basic_ios@DU?$char_traits@D@std@@@std@@QBEDD@Z 00418190 f i Mount.obj
 0001:00017250       ??$use_facet@V?$num_put@DV?$ostreambuf_iterator@DU?$char_traits@D@std@@@std@@@std@@@std@@YAABV?$num_put@DV?$ostreambuf_iterator@DU?$char_traits@D@std@@@std@@@0@ABVlocale@0@@Z 00418250 f i Mount.obj
 0001:000173a0       ??$use_facet@V?$numpunct@D@std@@@std@@YAABV?$numpunct@D@0@ABVlocale@0@@Z 004183a0 f i Mount.obj
 0001:000174f0       ?RefreshMainDlg@@YAXPAUHWND__@@@Z 004184f0 f   Mount.obj
 0001:000185c0       ?_Tidy@?$list@V?$basic_string@DU?$char_traits@D@std@@V?$allocator@D@2@@std@@V?$allocator@V?$basic_string@DU?$char_traits@D@std@@V?$allocator@D@2@@std@@@2@@std@@IAEXXZ 004195c0 f i Mount.obj
 0001:000185e0       ?do_put@?$num_put@DV?$ostreambuf_iterator@DU?$char_traits@D@std@@@std@@@std@@MBE?AV?$ostreambuf_iterator@DU?$char_traits@D@std@@@2@V32@AAVios_base@2@D_N@Z 004195e0 f i Mount.obj
 0001:00018800       ?clear@?$list@UPartition@CipherShed@@V?$allocator@UPartition@CipherShed@@@std@@@std@@QAEXXZ 00419800 f i Mount.obj
 0001:00018840       ?_Fput@?$num_put@DV?$ostreambuf_iterator@DU?$char_traits@D@std@@@std@@@std@@ABA?AV?$ostreambuf_iterator@DU?$char_traits@D@std@@@2@V32@AAVios_base@2@DPBDIIII@Z 00419840 f i Mount.obj
 0001:00018ed0       ?_Iput@?$num_put@DV?$ostreambuf_iterator@DU?$char_traits@D@std@@@std@@@std@@ABA?AV?$ostreambuf_iterator@DU?$char_traits@D@std@@@2@V32@AAVios_base@2@DPADI@Z 00419ed0 f i Mount.obj
 0001:000191c0       ??$_Insert@V?$_Const_iterator@$00@?$list@V?$basic_string@DU?$char_traits@D@std@@V?$allocator@D@2@@std@@V?$allocator@V?$basic_string@DU?$char_traits@D@std@@V?$allocator@D@2@@std@@@2@@std@@@?$list@V?$basic_string@DU?$char_traits@D@std@@V?$allocator@D@2@@std@@V?$allocator@V?$basic_string@DU?$char_traits@D@std@@V?$allocator@D@2@@std@@@2@@std@@QAEXV?$_Const_iterator@$00@01@00Uforward_iterator_tag@1@@Z 0041a1c0 f i Mount.obj
 0001:00019320       ?flush@?$basic_ostream@_WU?$char_traits@_W@std@@@std@@QAEAAV12@XZ 0041a320 f i BootEncryption.obj
 0001:00019320       ?flush@?$basic_ostream@DU?$char_traits@D@std@@@std@@QAEAAV12@XZ 0041a320 f i Mount.obj
 0001:00019370       ??0?$vector@UHostDevice@@V?$allocator@UHostDevice@@@std@@@std@@QAE@ABV01@@Z 0041a370 f i Mount.obj
 0001:00019480       ??1?$list@V?$basic_string@DU?$char_traits@D@std@@V?$allocator@D@2@@std@@V?$allocator@V?$basic_string@DU?$char_traits@D@std@@V?$allocator@D@2@@std@@@2@@std@@QAE@XZ 0041a480 f i Mount.obj
 0001:000194b0       ?push_back@?$list@V?$basic_string@DU?$char_traits@D@std@@V?$allocator@D@2@@std@@V?$allocator@V?$basic_string@DU?$char_traits@D@std@@V?$allocator@D@2@@std@@@2@@std@@QAEXABV?$basic_string@DU?$char_traits@D@std@@V?$allocator@D@2@@2@@Z 0041a4b0 f i Mount.obj
 0001:000194f0       ?_Destroy@?$vector@UHostDevice@@V?$allocator@UHostDevice@@@std@@@std@@IAEXPAUHostDevice@@0@Z 0041a4f0 f i Mount.obj
 0001:00019520       ?_Tidy@?$list@UPartition@CipherShed@@V?$allocator@UPartition@CipherShed@@@std@@@std@@IAEXXZ 0041a520 f i Mount.obj
 0001:00019540       ?do_put@?$num_put@DV?$ostreambuf_iterator@DU?$char_traits@D@std@@@std@@@std@@MBE?AV?$ostreambuf_iterator@DU?$char_traits@D@std@@@2@V32@AAVios_base@2@DJ@Z 0041a540 f i Mount.obj
 0001:000195c0       ?do_put@?$num_put@DV?$ostreambuf_iterator@DU?$char_traits@D@std@@@std@@@std@@MBE?AV?$ostreambuf_iterator@DU?$char_traits@D@std@@@2@V32@AAVios_base@2@DK@Z 0041a5c0 f i Mount.obj
 0001:00019640       ?do_put@?$num_put@DV?$ostreambuf_iterator@DU?$char_traits@D@std@@@std@@@std@@MBE?AV?$ostreambuf_iterator@DU?$char_traits@D@std@@@2@V32@AAVios_base@2@D_J@Z 0041a640 f i Mount.obj
 0001:000196d0       ?do_put@?$num_put@DV?$ostreambuf_iterator@DU?$char_traits@D@std@@@std@@@std@@MBE?AV?$ostreambuf_iterator@DU?$char_traits@D@std@@@2@V32@AAVios_base@2@D_K@Z 0041a6d0 f i Mount.obj
 0001:00019760       ?do_put@?$num_put@DV?$ostreambuf_iterator@DU?$char_traits@D@std@@@std@@@std@@MBE?AV?$ostreambuf_iterator@DU?$char_traits@D@std@@@2@V32@AAVios_base@2@DN@Z 0041a760 f i Mount.obj
 0001:00019950       ?do_put@?$num_put@DV?$ostreambuf_iterator@DU?$char_traits@D@std@@@std@@@std@@MBE?AV?$ostreambuf_iterator@DU?$char_traits@D@std@@@2@V32@AAVios_base@2@DO@Z 0041a950 f i Mount.obj
 0001:00019b30       ?do_put@?$num_put@DV?$ostreambuf_iterator@DU?$char_traits@D@std@@@std@@@std@@MBE?AV?$ostreambuf_iterator@DU?$char_traits@D@std@@@2@V32@AAVios_base@2@DPBX@Z 0041ab30 f i Mount.obj
 0001:00019ba0       ??0HostDevice@@QAE@ABU0@@Z 0041aba0 f i Mount.obj
 0001:00019ca0       ?_Osfx@?$basic_ostream@_WU?$char_traits@_W@std@@@std@@QAEXXZ 0041aca0 f i BootEncryption.obj
 0001:00019ca0       ?_Osfx@?$basic_ostream@DU?$char_traits@D@std@@@std@@QAEXXZ 0041aca0 f i Mount.obj
 0001:00019d00       ?erase@?$vector@UHostDevice@@V?$allocator@UHostDevice@@@std@@@std@@QAE?AV?$_Vector_iterator@UHostDevice@@V?$allocator@UHostDevice@@@std@@@2@V?$_Vector_const_iterator@UHostDevice@@V?$allocator@UHostDevice@@@std@@@2@0@Z 0041ad00 f i Mount.obj
 0001:00019dc0       ??0?$ContainerForward@V?$vector@UHostDevice@@V?$allocator@UHostDevice@@@std@@@std@@@ForEach@CipherShed@@QAE@ABV?$vector@UHostDevice@@V?$allocator@UHostDevice@@@std@@@std@@@Z 0041adc0 f i Mount.obj
 0001:00019e60       ?Next@?$ContainerForward@V?$vector@UHostDevice@@V?$allocator@UHostDevice@@@std@@@std@@@ForEach@CipherShed@@UBEXXZ 0041ae60 f i Mount.obj
 0001:00019ea0       ??_G?$ContainerForward@V?$vector@UHostDevice@@V?$allocator@UHostDevice@@@std@@@std@@@ForEach@CipherShed@@UAEPAXI@Z 0041aea0 f i Mount.obj
 0001:00019ea0       ??_E?$ContainerForward@V?$vector@UHostDevice@@V?$allocator@UHostDevice@@@std@@@std@@@ForEach@CipherShed@@UAEPAXI@Z 0041aea0 f i Mount.obj
 0001:00019ec0       ??1?$ContainerForward@V?$list@V?$basic_string@DU?$char_traits@D@std@@V?$allocator@D@2@@std@@V?$allocator@V?$basic_string@DU?$char_traits@D@std@@V?$allocator@D@2@@std@@@2@@std@@@ForEach@CipherShed@@UAE@XZ 0041aec0 f i Mount.obj
 0001:00019f00       ??1?$list@UPartition@CipherShed@@V?$allocator@UPartition@CipherShed@@@std@@@std@@QAE@XZ 0041af00 f i Mount.obj
 0001:00019f30       ?clear@?$vector@UHostDevice@@V?$allocator@UHostDevice@@@std@@@std@@QAEXXZ 0041af30 f i Mount.obj
 0001:00019f70       ??0?$basic_iostream@DU?$char_traits@D@std@@@std@@QAE@PAV?$basic_streambuf@DU?$char_traits@D@std@@@1@@Z 0041af70 f i Mount.obj
 0001:0001a050       ??$GetContainerForward@V?$vector@UHostDevice@@V?$allocator@UHostDevice@@@std@@@std@@@ForEach@CipherShed@@SA?AU?$ContainerForward@V?$vector@UHostDevice@@V?$allocator@UHostDevice@@@std@@@std@@@01@ABV?$vector@UHostDevice@@V?$allocator@UHostDevice@@@std@@@std@@@Z 0041b050 f i Mount.obj
 0001:0001a070       ??$?6U?$char_traits@D@std@@@std@@YAAAV?$basic_ostream@DU?$char_traits@D@std@@@0@AAV10@D@Z 0041b070 f i Mount.obj
 0001:0001a2b0       ??$?6U?$char_traits@D@std@@@std@@YAAAV?$basic_ostream@DU?$char_traits@D@std@@@0@AAV10@PBD@Z 0041b2b0 f i Mount.obj
 0001:0001a4c0       ??$?6DU?$char_traits@D@std@@V?$allocator@D@1@@std@@YAAAV?$basic_ostream@DU?$char_traits@D@std@@@0@AAV10@ABV?$basic_string@DU?$char_traits@D@std@@V?$allocator@D@2@@0@@Z 0041b4c0 f i Mount.obj
 0001:0001a740       ??0?$list@V?$basic_string@DU?$char_traits@D@std@@V?$allocator@D@2@@std@@V?$allocator@V?$basic_string@DU?$char_traits@D@std@@V?$allocator@D@2@@std@@@2@@std@@QAE@ABV01@@Z 0041b740 f i Mount.obj
 0001:0001a7f0       ??$_Uninit_copy@PBUHostDevice@@PAU1@V?$allocator@UHostDevice@@@std@@@std@@YAPAUHostDevice@@PBU1@0PAU1@AAV?$allocator@UHostDevice@@@0@U_Nonscalar_ptr_iterator_tag@0@U_Range_checked_iterator_tag@0@@Z 0041b7f0 f i Mount.obj
 0001:0001a7f0       ??$_Uninit_copy@PAUHostDevice@@PAU1@V?$allocator@UHostDevice@@@std@@@std@@YAPAUHostDevice@@PAU1@00AAV?$allocator@UHostDevice@@@0@U_Nonscalar_ptr_iterator_tag@0@U_Range_checked_iterator_tag@0@@Z 0041b7f0 f i Mount.obj
 0001:0001a8a0       ??1SystemDriveConfiguration@CipherShed@@QAE@XZ 0041b8a0 f i Mount.obj
 0001:0001a930       ??6?$basic_ostream@DU?$char_traits@D@std@@@std@@QAEAAV01@G@Z 0041b930 f i Mount.obj
 0001:0001aa80       ??6?$basic_ostream@DU?$char_traits@D@std@@@std@@QAEAAV01@H@Z 0041ba80 f i Mount.obj
 0001:0001abd0       ??6?$basic_ostream@DU?$char_traits@D@std@@@std@@QAEAAV01@I@Z 0041bbd0 f i Mount.obj
 0001:0001abd0       ??6?$basic_ostream@DU?$char_traits@D@std@@@std@@QAEAAV01@K@Z 0041bbd0 f i Dlgcode.obj
 0001:0001ad20       ??0?$basic_stringstream@DU?$char_traits@D@std@@V?$allocator@D@2@@std@@QAE@H@Z 0041bd20 f i Mount.obj
 0001:0001adc0       ??0?$ContainerForward@V?$list@V?$basic_string@DU?$char_traits@D@std@@V?$allocator@D@2@@std@@V?$allocator@V?$basic_string@DU?$char_traits@D@std@@V?$allocator@D@2@@std@@@2@@std@@@ForEach@CipherShed@@QAE@ABV?$list@V?$basic_string@DU?$char_traits@D@std@@V?$allocator@D@2@@std@@V?$allocator@V?$basic_string@DU?$char_traits@D@std@@V?$allocator@D@2@@std@@@2@@std@@@Z 0041bdc0 f i Mount.obj
 0001:0001ae50       ??_G?$ContainerForward@V?$list@V?$basic_string@DU?$char_traits@D@std@@V?$allocator@D@2@@std@@V?$allocator@V?$basic_string@DU?$char_traits@D@std@@V?$allocator@D@2@@std@@@2@@std@@@ForEach@CipherShed@@UAEPAXI@Z 0041be50 f i Mount.obj
 0001:0001ae50       ??_E?$ContainerForward@V?$list@V?$basic_string@DU?$char_traits@D@std@@V?$allocator@D@2@@std@@V?$allocator@V?$basic_string@DU?$char_traits@D@std@@V?$allocator@D@2@@std@@@2@@std@@@ForEach@CipherShed@@UAEPAXI@Z 0041be50 f i Mount.obj
 0001:0001aea0       ??$_Uninit_fill_n@PAUHostDevice@@IU1@V?$allocator@UHostDevice@@@std@@@std@@YAXPAUHostDevice@@IABU1@AAV?$allocator@UHostDevice@@@0@U_Nonscalar_ptr_iterator_tag@0@U_Range_checked_iterator_tag@0@@Z 0041bea0 f i Mount.obj
 0001:0001bbf0       _MountSelectedVolume       0041cbf0 f   Mount.obj
 0001:0001bce0       ?GetExecutableImageInformation@@YAHABV?$basic_string@DU?$char_traits@D@std@@V?$allocator@D@2@@std@@AAV12@111@Z 0041cce0 f   Mount.obj
 0001:0001c110       ??$GetContainerForward@V?$list@V?$basic_string@DU?$char_traits@D@std@@V?$allocator@D@2@@std@@V?$allocator@V?$basic_string@DU?$char_traits@D@std@@V?$allocator@D@2@@std@@@2@@std@@@ForEach@CipherShed@@SA?AU?$ContainerForward@V?$list@V?$basic_string@DU?$char_traits@D@std@@V?$allocator@D@2@@std@@V?$allocator@V?$basic_string@DU?$char_traits@D@std@@V?$allocator@D@2@@std@@@2@@std@@@01@ABV?$list@V?$basic_string@DU?$char_traits@D@std@@V?$allocator@D@2@@std@@V?$allocator@V?$basic_string@DU?$char_traits@D@std@@V?$allocator@D@2@@std@@@2@@std@@@Z 0041d110 f i Mount.obj
 0001:0001c130       _AnalyzeKernelMiniDump     0041d130 f   Mount.obj
 0001:0001de80       ??4?$vector@UHostDevice@@V?$allocator@UHostDevice@@@std@@@std@@QAEAAV01@ABV01@@Z 0041ee80 f i Mount.obj
 0001:0001dff0       ?_Ufill@?$vector@UHostDevice@@V?$allocator@UHostDevice@@@std@@@std@@IAEPAUHostDevice@@PAU3@IABU3@@Z 0041eff0 f i Mount.obj
 0001:0001e030       ??$_Ucopy@PAUHostDevice@@@?$vector@UHostDevice@@V?$allocator@UHostDevice@@@std@@@std@@IAEPAUHostDevice@@PAU2@00@Z 0041f030 f i Mount.obj
 0001:0001e030       ??$_Umove@PAUHostDevice@@@?$vector@UHostDevice@@V?$allocator@UHostDevice@@@std@@@std@@IAEPAUHostDevice@@PAU2@00@Z 0041f030 f i Mount.obj
 0001:0001e060       ??4HostDevice@@QAEAAU0@ABU0@@Z 0041f060 f i Mount.obj
 0001:0001e100       ??$_Copy_backward_opt@PAUHostDevice@@PAU1@Uforward_iterator_tag@std@@@std@@YAPAUHostDevice@@PAU1@00Uforward_iterator_tag@0@U_Nonscalar_ptr_iterator_tag@0@U_Range_checked_iterator_tag@0@@Z 0041f100 f i Mount.obj
 0001:0001e140       ?MountFavoriteVolumes@@YAHHHHABUFavoriteVolume@CipherShed@@@Z 0041f140 f   Mount.obj
 0001:0001e7c0       ??$_Copy_backward_opt@PAUHostDevice@@PAU1@@std@@YAPAUHostDevice@@PAU1@00Urandom_access_iterator_tag@0@U_Nonscalar_ptr_iterator_tag@0@U_Range_checked_iterator_tag@0@@Z 0041f7c0 f i Mount.obj
 0001:0001ea40       ??$fill@PAUHostDevice@@U1@@std@@YAXPAUHostDevice@@0ABU1@@Z 0041fa40 f i Mount.obj
 0001:0001ea70       ??$_Unchecked_move_backward@PAUHostDevice@@PAU1@@stdext@@YAPAUHostDevice@@PAU1@00@Z 0041fa70 f i Mount.obj
 0001:0001eaa0       ?_Insert_n@?$vector@UHostDevice@@V?$allocator@UHostDevice@@@std@@@std@@IAEXV?$_Vector_const_iterator@UHostDevice@@V?$allocator@UHostDevice@@@std@@@2@IABUHostDevice@@@Z 0041faa0 f i Mount.obj
 0001:0001ee50       ?insert@?$vector@UHostDevice@@V?$allocator@UHostDevice@@@std@@@std@@QAE?AV?$_Vector_iterator@UHostDevice@@V?$allocator@UHostDevice@@@std@@@2@V?$_Vector_const_iterator@UHostDevice@@V?$allocator@UHostDevice@@@std@@@2@ABUHostDevice@@@Z 0041fe50 f i Mount.obj
 0001:0001fda0       _MainDialogProc@16         00420da0 f   Mount.obj
 0001:00023460       _WinMain@16                00424460 f   Mount.obj
 0001:000236c0       ?CreateElevatedComObject@@YAJPAUHWND__@@ABU_GUID@@1PAPAX@Z 004246c0 f   BaseCom.obj
 0001:000237a0       ?ComGetInstanceBase@@YAHPAUHWND__@@ABU_GUID@@1PAPAX@Z 004247a0 f   BaseCom.obj
 0001:00023800       ?CallDriver@BaseCom@@SAKKPA_WPAPA_W@Z 00424800 f   BaseCom.obj
 0001:000238e0       ?IsPagingFileActive@BaseCom@@SAHH@Z 004248e0 f   BaseCom.obj
 0001:000238f0       ?RegisterFilterDriver@BaseCom@@SAKHH@Z 004248f0 f   BaseCom.obj
 0001:000239c0       ?RegisterSystemFavoritesService@BaseCom@@SAKH@Z 004249c0 f   BaseCom.obj
 0001:00023a80       ?SetDriverServiceStartType@BaseCom@@SAKK@Z 00424a80 f   BaseCom.obj
 0001:00023b40       ?CopyFileA@BaseCom@@SAKPA_W0@Z 00424b40 f   BaseCom.obj
 0001:00023c40       ?DeleteFileA@BaseCom@@SAKPA_W@Z 00424c40 f   BaseCom.obj
 0001:00023cb0       ?WriteLocalMachineRegistryDwordValue@BaseCom@@SAKPA_W0K@Z 00424cb0 f   BaseCom.obj
 0001:00023db0       ??1File@CipherShed@@QAE@XZ 00424db0 f i BaseCom.obj
 0001:00023e20       ??1?$auto_ptr@VFile@CipherShed@@@std@@QAE@XZ 00424e20 f i BaseCom.obj
 0001:00023e40       ?ReadWriteFile@BaseCom@@SAKHHPA_WPAPA_W_KIPAK@Z 00424e40 f   BaseCom.obj
 0001:00024060       ??0bad_alloc@std@@QAE@XZ   00425060 f i BootEncryption.obj
 0001:00024080       ?AtlCrtErrorCheck@ATL@@YAHH@Z 00425080 f i BootEncryption.obj
 0001:00024120       ?memcpy_s@Checked@ATL@@YAXPAXIPBXI@Z 00425120 f i BootEncryption.obj
 0001:00024150       ?AppendBytes@CComBSTR@ATL@@QAEJPBDH@Z 00425150 f i BootEncryption.obj
 0001:000241e0       ??0Buffer@CipherShed@@QAE@I@Z 004251e0 f i BootEncryption.obj
 0001:00024230       ??1Buffer@CipherShed@@QAE@XZ 00425230 f i BootEncryption.obj
 0001:00024240       ?Close@File@CipherShed@@QAEXXZ 00425240 f   BootEncryption.obj
 0001:00024270       ?IsBootLoaderOnDrive@BootEncryption@CipherShed@@QAE_NPAD@Z 00425270 f   BootEncryption.obj
 0001:00024340       ?GetChecksum@BootEncryption@CipherShed@@IAEIPAEI@Z 00425340 f   BootEncryption.obj
 0001:000243e0       ??1?$basic_istream@_WU?$char_traits@_W@std@@@std@@UAE@XZ 004253e0 f i BootEncryption.obj
 0001:000243f0       ??1?$basic_iostream@_WU?$char_traits@_W@std@@@std@@UAE@XZ 004253f0 f i BootEncryption.obj
 0001:00024420       ??_E?$basic_ios@_WU?$char_traits@_W@std@@@std@@UAEPAXI@Z 00425420 f i BootEncryption.obj
 0001:00024420       ??_E?$basic_ios@DU?$char_traits@D@std@@@std@@UAEPAXI@Z 00425420 f i Mount.obj
 0001:00024420       ??_G?$basic_ios@DU?$char_traits@D@std@@@std@@UAEPAXI@Z 00425420 f i Mount.obj
 0001:00024420       ??_Gios_base@std@@UAEPAXI@Z 00425420 f i Mount.obj
 0001:00024420       ??_Eios_base@std@@UAEPAXI@Z 00425420 f i Mount.obj
 0001:00024420       ??_G?$basic_ios@_WU?$char_traits@_W@std@@@std@@UAEPAXI@Z 00425420 f i BootEncryption.obj
 0001:00024450       ?setg@?$basic_streambuf@_WU?$char_traits@_W@std@@@std@@IAEXPA_W00@Z 00425450 f i BootEncryption.obj
 0001:00024480       ?setp@?$basic_streambuf@_WU?$char_traits@_W@std@@@std@@IAEXPA_W00@Z 00425480 f i BootEncryption.obj
 0001:000244b0       ?_Init@?$basic_streambuf@_WU?$char_traits@_W@std@@@std@@IAEXXZ 004254b0 f i BootEncryption.obj
 0001:000244b0       ?_Init@?$basic_streambuf@DU?$char_traits@D@std@@@std@@IAEXXZ 004254b0 f i Mount.obj
 0001:00024510       ??0?$ctype@_W@std@@QAE@ABV_Locinfo@1@I@Z 00425510 f i BootEncryption.obj
 0001:00024560       ?do_is@?$ctype@_W@std@@MBE_NF_W@Z 00425560 f i BootEncryption.obj
 0001:00024590       ?do_is@?$ctype@_W@std@@MBEPB_WPB_W0PAF@Z 00425590 f i BootEncryption.obj
 0001:000245b0       ?do_scan_is@?$ctype@_W@std@@MBEPB_WFPB_W0@Z 004255b0 f i BootEncryption.obj
 0001:000245f0       ?do_scan_not@?$ctype@_W@std@@MBEPB_WFPB_W0@Z 004255f0 f i BootEncryption.obj
 0001:00024630       ?do_tolower@?$ctype@_W@std@@MBE_W_W@Z 00425630 f i BootEncryption.obj
 0001:00024650       ?do_tolower@?$ctype@_W@std@@MBEPB_WPA_WPB_W@Z 00425650 f i BootEncryption.obj
 0001:00024690       ?do_toupper@?$ctype@_W@std@@MBE_W_W@Z 00425690 f i BootEncryption.obj
 0001:000246b0       ?do_toupper@?$ctype@_W@std@@MBEPB_WPA_WPB_W@Z 004256b0 f i BootEncryption.obj
 0001:000246f0       ?do_widen@?$ctype@_W@std@@MBE_WD@Z 004256f0 f i BootEncryption.obj
 0001:00024740       ?do_widen@?$ctype@_W@std@@MBEPBDPBD0PA_W@Z 00425740 f i BootEncryption.obj
 0001:00024770       ?_Do_widen_s@?$ctype@_W@std@@MBEPBDPBD0PA_WI@Z 00425770 f i BootEncryption.obj
 0001:000247f0       ?do_narrow@?$ctype@_W@std@@MBED_WD@Z 004257f0 f i BootEncryption.obj
 0001:00024840       ?do_narrow@?$ctype@_W@std@@MBEPB_WPB_W0DPAD@Z 00425840 f i BootEncryption.obj
 0001:00024870       ?_Do_narrow_s@?$ctype@_W@std@@MBEPB_WPB_W0DPADI@Z 00425870 f i BootEncryption.obj
 0001:00024900       ??_G?$ctype@_W@std@@MAEPAXI@Z 00425900 f i BootEncryption.obj
 0001:00024900       ??_E?$ctype@_W@std@@MAEPAXI@Z 00425900 f i BootEncryption.obj
 0001:00024940       ??0SystemException@CipherShed@@QAE@XZ 00425940 f i BootEncryption.obj
 0001:00024960       ?Show@SystemException@CipherShed@@UBEXPAUHWND__@@@Z 00425960 f i BootEncryption.obj
 0001:00024980       ?Elevate@Elevator@CipherShed@@KAXXZ 00425980 f i BootEncryption.obj
 0001:00024a10       ??0SystemException@CipherShed@@QAE@ABU01@@Z 00425a10 f i BootEncryption.obj
 0001:00024a30       ?SeekAt@File@CipherShed@@QAEX_J@Z 00425a30 f   BootEncryption.obj
 0001:00024a80       ??0ParameterIncorrect@CipherShed@@QAE@ABU01@@Z 00425a80 f i BootEncryption.obj
 0001:00024aa0       ??1?$basic_streambuf@_WU?$char_traits@_W@std@@@std@@UAE@XZ 00425aa0 f i BootEncryption.obj
 0001:00024b10       ?overflow@?$basic_streambuf@_WU?$char_traits@_W@std@@@std@@MAEGG@Z 00425b10 f i BootEncryption.obj
 0001:00024b10       ?pbackfail@?$basic_streambuf@_WU?$char_traits@_W@std@@@std@@MAEGG@Z 00425b10 f i BootEncryption.obj
 0001:00024b20       ?sync@?$basic_streambuf@DU?$char_traits@D@std@@@std@@MAEHXZ 00425b20 f i Mount.obj
 0001:00024b20       ?sync@?$basic_streambuf@_WU?$char_traits@_W@std@@@std@@MAEHXZ 00425b20 f i BootEncryption.obj
 0001:00024b20       ?showmanyc@?$basic_streambuf@_WU?$char_traits@_W@std@@@std@@MAEHXZ 00425b20 f i BootEncryption.obj
 0001:00024b20       ?showmanyc@?$basic_streambuf@DU?$char_traits@D@std@@@std@@MAEHXZ 00425b20 f i Mount.obj
 0001:00024b30       ?underflow@?$basic_streambuf@_WU?$char_traits@_W@std@@@std@@MAEGXZ 00425b30 f i BootEncryption.obj
 0001:00024b40       ?setbuf@?$basic_streambuf@DU?$char_traits@D@std@@@std@@MAEPAV12@PADH@Z 00425b40 f i Mount.obj
 0001:00024b40       ?setbuf@?$basic_streambuf@_WU?$char_traits@_W@std@@@std@@MAEPAV12@PA_WH@Z 00425b40 f i BootEncryption.obj
 0001:00024b50       ?imbue@?$basic_streambuf@_WU?$char_traits@_W@std@@@std@@MAEXABVlocale@2@@Z 00425b50 f i BootEncryption.obj
 0001:00024b50       ?Show@UserAbort@CipherShed@@UBEXPAUHWND__@@@Z 00425b50 f i MainCom.obj
 0001:00024b50       ?imbue@?$basic_streambuf@DU?$char_traits@D@std@@@std@@MAEXABVlocale@2@@Z 00425b50 f i Mount.obj
 0001:00024b60       ?_Gnavail@?$basic_streambuf@DU?$char_traits@D@std@@@std@@IBEHXZ 00425b60 f i Mount.obj
 0001:00024b60       ?_Gnavail@?$basic_streambuf@_WU?$char_traits@_W@std@@@std@@IBEHXZ 00425b60 f i BootEncryption.obj
 0001:00024b80       ?uflow@?$basic_streambuf@_WU?$char_traits@_W@std@@@std@@MAEGXZ 00425b80 f i BootEncryption.obj
 0001:00024bb0       ?seekoff@?$basic_streambuf@_WU?$char_traits@_W@std@@@std@@MAE?AV?$fpos@H@2@JHH@Z 00425bb0 f i BootEncryption.obj
 0001:00024bb0       ?seekoff@?$basic_streambuf@DU?$char_traits@D@std@@@std@@MAE?AV?$fpos@H@2@JHH@Z 00425bb0 f i Mount.obj
 0001:00024bd0       ?pbackfail@?$basic_stringbuf@_WU?$char_traits@_W@std@@V?$allocator@_W@2@@std@@MAEGG@Z 00425bd0 f i BootEncryption.obj
 0001:00024c30       ?underflow@?$basic_stringbuf@_WU?$char_traits@_W@std@@V?$allocator@_W@2@@std@@MAEGXZ 00425c30 f i BootEncryption.obj
 0001:00024ca0       ?seekoff@?$basic_stringbuf@_WU?$char_traits@_W@std@@V?$allocator@_W@2@@std@@MAE?AV?$fpos@H@2@JHH@Z 00425ca0 f i BootEncryption.obj
 0001:00024e10       ?seekpos@?$basic_stringbuf@_WU?$char_traits@_W@std@@V?$allocator@_W@2@@std@@MAE?AV?$fpos@H@2@V32@H@Z 00425e10 f i BootEncryption.obj
 0001:00024ef0       ??_G?$basic_ostream@_WU?$char_traits@_W@std@@@std@@UAEPAXI@Z 00425ef0 f i BootEncryption.obj
 0001:00024ef0       ??_E?$basic_ostream@_WU?$char_traits@_W@std@@@std@@UAEPAXI@Z 00425ef0 f i BootEncryption.obj
 0001:00024f30       ??_E?$basic_istream@_WU?$char_traits@_W@std@@@std@@UAEPAXI@Z 00425f30 f i BootEncryption.obj
 0001:00024f30       ??_G?$basic_istream@_WU?$char_traits@_W@std@@@std@@UAEPAXI@Z 00425f30 f i BootEncryption.obj
 0001:00024f70       ??_G?$basic_streambuf@_WU?$char_traits@_W@std@@@std@@UAEPAXI@Z 00425f70 f i BootEncryption.obj
 0001:00024f70       ??_E?$basic_streambuf@_WU?$char_traits@_W@std@@@std@@UAEPAXI@Z 00425f70 f i BootEncryption.obj
 0001:00024f90       ??_E?$basic_iostream@_WU?$char_traits@_W@std@@@std@@UAEPAXI@Z 00425f90 f i BootEncryption.obj
 0001:00024f90       ??_G?$basic_iostream@_WU?$char_traits@_W@std@@@std@@UAEPAXI@Z 00425f90 f i BootEncryption.obj
 0001:00024ff0       ??_E?$basic_stringbuf@_WU?$char_traits@_W@std@@V?$allocator@_W@2@@std@@UAEPAXI@Z 00425ff0 f i BootEncryption.obj
 0001:00024ff0       ??_G?$basic_stringbuf@_WU?$char_traits@_W@std@@V?$allocator@_W@2@@std@@UAEPAXI@Z 00425ff0 f i BootEncryption.obj
 0001:00025020       ??0?$basic_streambuf@_WU?$char_traits@_W@std@@@std@@IAE@XZ 00426020 f i BootEncryption.obj
 0001:000250d0       ?CallDriver@Elevator@CipherShed@@SAXKPAXK0K@Z 004260d0 f i BootEncryption.obj
 0001:00025210       ?CopyFileA@Elevator@CipherShed@@SAXABV?$basic_string@DU?$char_traits@D@std@@V?$allocator@D@2@@std@@0@Z 00426210 f i BootEncryption.obj
 0001:00025300       ?DeleteFileA@Elevator@CipherShed@@SAXABV?$basic_string@DU?$char_traits@D@std@@V?$allocator@D@2@@std@@@Z 00426300 f i BootEncryption.obj
 0001:000253b0       ?ReadWriteFile@Elevator@CipherShed@@SAXHHABV?$basic_string@DU?$char_traits@D@std@@V?$allocator@D@2@@std@@PAE_KIPAK@Z 004263b0 f i BootEncryption.obj
 0001:000254e0       ?WriteLocalMachineRegistryDwordValue@Elevator@CipherShed@@SAXPAD0K@Z 004264e0 f i BootEncryption.obj
 0001:000255b0       ?RegisterFilterDriver@Elevator@CipherShed@@SAX_NW4FilterType@BootEncryption@2@@Z 004265b0 f i BootEncryption.obj
 0001:00025610       ?RegisterSystemFavoritesService@Elevator@CipherShed@@SAXH@Z 00426610 f i BootEncryption.obj
 0001:00025660       ?SetDriverServiceStartType@Elevator@CipherShed@@SAXK@Z 00426660 f i BootEncryption.obj
 0001:000256b0       ?Read@File@CipherShed@@QAEKPAEK@Z 004266b0 f   BootEncryption.obj
 0001:00025750       ?CallDriver@BootEncryption@CipherShed@@QAEXKPAXK0K@Z 00426750 f   BootEncryption.obj
 0001:00025820       ?GetInstalledBootLoaderVersion@BootEncryption@CipherShed@@QAEGXZ 00426820 f   BootEncryption.obj
 0001:00025840       ?GetStatus@BootEncryption@CipherShed@@QAE?AUBootEncryptionStatus@@XZ 00426840 f   BootEncryption.obj
 0001:00025860       ?GetVolumeProperties@BootEncryption@CipherShed@@QAEXPAUVOLUME_PROPERTIES_STRUCT@@@Z 00426860 f   BootEncryption.obj
 0001:000258b0       ?IsHiddenSystemRunning@BootEncryption@CipherShed@@QAE_NXZ 004268b0 f   BootEncryption.obj
 0001:000258d0       ?AbortSetup@BootEncryption@CipherShed@@QAEXXZ 004268d0 f   BootEncryption.obj
 0001:000258f0       ?WriteLocalMachineRegistryDwordValue@BootEncryption@CipherShed@@QAEXPAD0K@Z 004268f0 f   BootEncryption.obj
 0001:00025960       ?SetDriverConfigurationFlag@BootEncryption@CipherShed@@QAEXI_N@Z 00426960 f   BootEncryption.obj
 0001:000259c0       ?CopyFileAdmin@BootEncryption@CipherShed@@QAEXABV?$basic_string@DU?$char_traits@D@std@@V?$allocator@D@2@@std@@0@Z 004269c0 f   BootEncryption.obj
 0001:00025a60       ?DeleteFileAdmin@BootEncryption@CipherShed@@QAEXABV?$basic_string@DU?$char_traits@D@std@@V?$allocator@D@2@@std@@@Z 00426a60 f   BootEncryption.obj
 0001:00025ac0       ?WriteBootDriveSector@BootEncryption@CipherShed@@QAEX_KPAE@Z 00426ac0 f   BootEncryption.obj
 0001:00025b30       ?_Xsgetn_s@?$basic_streambuf@_WU?$char_traits@_W@std@@@std@@MAEHPA_WIH@Z 00426b30 f i BootEncryption.obj
 0001:00025be0       ?xsputn@?$basic_streambuf@_WU?$char_traits@_W@std@@@std@@MAEHPB_WH@Z 00426be0 f i BootEncryption.obj
 0001:00025c90       ??1?$basic_stringstream@_WU?$char_traits@_W@std@@V?$allocator@_W@2@@std@@UAE@XZ 00426c90 f i BootEncryption.obj
 0001:00025d20       ?overflow@?$basic_stringbuf@_WU?$char_traits@_W@std@@V?$allocator@_W@2@@std@@MAEGG@Z 00426d20 f i BootEncryption.obj
 0001:00025f10       ?_Buynode@?$list@USecurityTokenKeyfile@CipherShed@@V?$allocator@USecurityTokenKeyfile@CipherShed@@@std@@@std@@IAEPAU_Node@?$_List_nod@USecurityTokenKeyfile@CipherShed@@V?$allocator@USecurityTokenKeyfile@CipherShed@@@std@@@2@XZ 00426f10 f i Dlgcode.obj
 0001:00025f10       ?_Buynode@?$list@UPartition@CipherShed@@V?$allocator@UPartition@CipherShed@@@std@@@std@@IAEPAU_Node@?$_List_nod@UPartition@CipherShed@@V?$allocator@UPartition@CipherShed@@@std@@@2@XZ 00426f10 f i BootEncryption.obj
 0001:00025f30       ??_D?$basic_stringstream@_WU?$char_traits@_W@std@@V?$allocator@_W@2@@std@@QAEXXZ 00426f30 f i BootEncryption.obj
 0001:00025f50       ??_E?$basic_stringstream@_WU?$char_traits@_W@std@@V?$allocator@_W@2@@std@@UAEPAXI@Z 00426f50 f i BootEncryption.obj
 0001:00025f50       ??_G?$basic_stringstream@_WU?$char_traits@_W@std@@V?$allocator@_W@2@@std@@UAEPAXI@Z 00426f50 f i BootEncryption.obj
 0001:00025f90       ??0?$basic_stringbuf@_WU?$char_traits@_W@std@@V?$allocator@_W@2@@std@@QAE@H@Z 00426f90 f i BootEncryption.obj
 0001:00026010       ??1Device@CipherShed@@QAE@XZ 00427010 f i BootEncryption.obj
 0001:000260a0       ??0?$list@UPartition@CipherShed@@V?$allocator@UPartition@CipherShed@@@std@@@std@@QAE@XZ 004270a0 f i BootEncryption.obj
 0001:000260a0       ??0?$list@USecurityTokenKeyfile@CipherShed@@V?$allocator@USecurityTokenKeyfile@CipherShed@@@std@@@std@@QAE@XZ 004270a0 f i Dlgcode.obj
 0001:00026110       ?_Getcat@?$ctype@_W@std@@SAIPAPBVfacet@locale@2@PBV42@@Z 00427110 f i BootEncryption.obj
 0001:00026210       ??0Partition@CipherShed@@QAE@ABU01@@Z 00427210 f i BootEncryption.obj
 0001:00026340       ?str@?$basic_stringbuf@_WU?$char_traits@_W@std@@V?$allocator@_W@2@@std@@QBE?AV?$basic_string@_WU?$char_traits@_W@std@@V?$allocator@_W@2@@2@XZ 00427340 f i BootEncryption.obj
 0001:000264b0       ?_Incsize@?$list@USecurityTokenKeyfile@CipherShed@@V?$allocator@USecurityTokenKeyfile@CipherShed@@@std@@@std@@IAEXI@Z 004274b0 f i Dlgcode.obj
 0001:000264b0       ?_Incsize@?$list@UPartition@CipherShed@@V?$allocator@UPartition@CipherShed@@@std@@@std@@IAEXI@Z 004274b0 f i BootEncryption.obj
 0001:00026550       ??$use_facet@V?$ctype@_W@std@@@std@@YAABV?$ctype@_W@0@ABVlocale@0@@Z 00427550 f i BootEncryption.obj
 0001:000266a0       ??$_Construct@UPartition@CipherShed@@U12@@std@@YAXPAUPartition@CipherShed@@ABU12@@Z 004276a0 f i BootEncryption.obj
 0001:00026700       ?Show@ParameterIncorrect@CipherShed@@UBEXPAUHWND__@@@Z 00427700 f i BootEncryption.obj
 0001:00026830       ??0File@CipherShed@@QAE@V?$basic_string@DU?$char_traits@D@std@@V?$allocator@D@2@@std@@_N1@Z 00427830 f   BootEncryption.obj
 0001:00026960       ??0Device@CipherShed@@QAE@V?$basic_string@DU?$char_traits@D@std@@V?$allocator@D@2@@std@@_N@Z 00427960 f   BootEncryption.obj
 0001:00026b00       ??4Partition@CipherShed@@QAEAAU01@ABU01@@Z 00427b00 f i BootEncryption.obj
 0001:00026b60       ?GetWindowsDirectoryA@BootEncryption@CipherShed@@IAE?AV?$basic_string@DU?$char_traits@D@std@@V?$allocator@D@2@@std@@XZ 00427b60 f   BootEncryption.obj
 0001:00026c10       ?GetTempPathA@BootEncryption@CipherShed@@QAE?AV?$basic_string@DU?$char_traits@D@std@@V?$allocator@D@2@@std@@XZ 00427c10 f   BootEncryption.obj
 0001:00026cc0       ?GetSystemLoaderBackupPath@BootEncryption@CipherShed@@IAE?AV?$basic_string@DU?$char_traits@D@std@@V?$allocator@D@2@@std@@XZ 00427cc0 f   BootEncryption.obj
 0001:00026e60       ?VerifyRescueDisk@BootEncryption@CipherShed@@QAE_NXZ 00427e60 f   BootEncryption.obj
 0001:00027110       ?RegisterSystemFavoritesService@BootEncryption@CipherShed@@QAEXH@Z 00428110 f   BootEncryption.obj
 0001:000274a0       ?str@?$basic_stringstream@_WU?$char_traits@_W@std@@V?$allocator@_W@2@@std@@QBE?AV?$basic_string@_WU?$char_traits@_W@std@@V?$allocator@_W@2@@2@XZ 004284a0 f i BootEncryption.obj
 0001:000274c0       ?widen@?$basic_ios@_WU?$char_traits@_W@std@@@std@@QBE_WD@Z 004284c0 f i BootEncryption.obj
 0001:00027580       ?SetDriverServiceStartType@BootEncryption@CipherShed@@QAEXK@Z 00428580 f   BootEncryption.obj
 0001:00027900       ?erase@?$list@UPartition@CipherShed@@V?$allocator@UPartition@CipherShed@@@std@@@std@@QAE?AV?$_Iterator@$00@12@V?$_Const_iterator@$00@12@@Z 00428900 f i BootEncryption.obj
 0001:00027990       ?_Buynode@?$list@UPartition@CipherShed@@V?$allocator@UPartition@CipherShed@@@std@@@std@@IAEPAU_Node@?$_List_nod@UPartition@CipherShed@@V?$allocator@UPartition@CipherShed@@@std@@@2@PAU342@0ABUPartition@CipherShed@@@Z 00428990 f i BootEncryption.obj
 0001:00027a30       ??0sentry@?$basic_ostream@DU?$char_traits@D@std@@@std@@QAE@AAV12@@Z 00428a30 f i Mount.obj
 0001:00027a30       ??0sentry@?$basic_ostream@_WU?$char_traits@_W@std@@@std@@QAE@AAV12@@Z 00428a30 f i BootEncryption.obj
 0001:00027ac0       ??$_Insert@V?$_Const_iterator@$00@?$list@UPartition@CipherShed@@V?$allocator@UPartition@CipherShed@@@std@@@std@@@?$list@UPartition@CipherShed@@V?$allocator@UPartition@CipherShed@@@std@@@std@@QAEXV?$_Const_iterator@$00@01@00Uforward_iterator_tag@1@@Z 00428ac0 f i BootEncryption.obj
 0001:00027c20       ??0?$basic_iostream@_WU?$char_traits@_W@std@@@std@@QAE@PAV?$basic_streambuf@_WU?$char_traits@_W@std@@@1@@Z 00428c20 f i BootEncryption.obj
 0001:00027d00       ??1sentry@?$basic_ostream@DU?$char_traits@D@std@@@std@@QAE@XZ 00428d00 f i Mount.obj
 0001:00027d00       ??1sentry@?$basic_ostream@_WU?$char_traits@_W@std@@@std@@QAE@XZ 00428d00 f i BootEncryption.obj
 0001:00027d70       ??$?6_WU?$char_traits@_W@std@@@std@@YAAAV?$basic_ostream@_WU?$char_traits@_W@std@@@0@AAV10@PBD@Z 00428d70 f i BootEncryption.obj
 0001:00028040       ??0SystemDriveConfiguration@CipherShed@@QAE@XZ 00429040 f i BootEncryption.obj
 0001:00028120       ??1BootEncryption@CipherShed@@QAE@XZ 00429120 f   BootEncryption.obj
 0001:000281c0       ??1?$ContainerForward@V?$list@UPartition@CipherShed@@V?$allocator@UPartition@CipherShed@@@std@@@std@@@ForEach@CipherShed@@UAE@XZ 004291c0 f i BootEncryption.obj
 0001:00028200       ??0?$list@UPartition@CipherShed@@V?$allocator@UPartition@CipherShed@@@std@@@std@@QAE@ABV01@@Z 00429200 f i BootEncryption.obj
 0001:000282b0       ??0?$basic_stringstream@_WU?$char_traits@_W@std@@V?$allocator@_W@2@@std@@QAE@H@Z 004292b0 f i BootEncryption.obj
 0001:00028350       ??0?$ContainerForward@V?$list@UPartition@CipherShed@@V?$allocator@UPartition@CipherShed@@@std@@@std@@@ForEach@CipherShed@@QAE@ABV?$list@UPartition@CipherShed@@V?$allocator@UPartition@CipherShed@@@std@@@std@@@Z 00429350 f i BootEncryption.obj
 0001:000283e0       ??_G?$ContainerForward@V?$list@UPartition@CipherShed@@V?$allocator@UPartition@CipherShed@@@std@@@std@@@ForEach@CipherShed@@UAEPAXI@Z 004293e0 f i BootEncryption.obj
 0001:000283e0       ??_E?$ContainerForward@V?$list@UPartition@CipherShed@@V?$allocator@UPartition@CipherShed@@@std@@@std@@@ForEach@CipherShed@@UAEPAXI@Z 004293e0 f i BootEncryption.obj
 0001:00028430       ??0BootEncryption@CipherShed@@QAE@PAUHWND__@@@Z 00429430 f   BootEncryption.obj
 0001:000284c0       ?GetDrivePartitions@BootEncryption@CipherShed@@IAE?AV?$list@UPartition@CipherShed@@V?$allocator@UPartition@CipherShed@@@std@@@std@@H@Z 004294c0 f   BootEncryption.obj
 0001:00028b90       ??0SystemDriveConfiguration@CipherShed@@QAE@ABU01@@Z 00429b90 f i BootEncryption.obj
 0001:00028ca0       ??$GetContainerForward@V?$list@UPartition@CipherShed@@V?$allocator@UPartition@CipherShed@@@std@@@std@@@ForEach@CipherShed@@SA?AU?$ContainerForward@V?$list@UPartition@CipherShed@@V?$allocator@UPartition@CipherShed@@@std@@@std@@@01@ABV?$list@UPartition@CipherShed@@V?$allocator@UPartition@CipherShed@@@std@@@std@@@Z 00429ca0 f i BootEncryption.obj
 0001:00028cc0       ?Write@File@CipherShed@@QAEXPAEK@Z 00429cc0 f   BootEncryption.obj
 0001:00028e50       ??4SystemDriveConfiguration@CipherShed@@QAEAAU01@ABU01@@Z 00429e50 f i BootEncryption.obj
 0001:00028f40       ?RegisterFilter@BootEncryption@CipherShed@@IAEX_NW4FilterType@12@PBU_GUID@@@Z 00429f40 f   BootEncryption.obj
 0001:000296c0       ?RegisterFilterDriver@BootEncryption@CipherShed@@QAEX_NW4FilterType@12@@Z 0042a6c0 f   BootEncryption.obj
 0001:00029780       ?RegisterBootDriver@BootEncryption@CipherShed@@QAEX_N@Z 0042a780 f   BootEncryption.obj
 0001:00029b40       ?GetSystemDriveConfiguration@BootEncryption@CipherShed@@QAE?AUSystemDriveConfiguration@2@XZ 0042ab40 f   BootEncryption.obj
 0001:0002a8a0       ?CreateBootLoaderInMemory@BootEncryption@CipherShed@@IAEXPAEI_N1@Z 0042b8a0 f   BootEncryption.obj
 0001:0002ad60       ?ReadBootSectorConfig@BootEncryption@CipherShed@@QAEXPAEI0PAV?$basic_string@DU?$char_traits@D@std@@V?$allocator@D@2@@std@@PAG@Z 0042bd60 f   BootEncryption.obj
 0001:0002af10       ?WriteBootSectorUserConfig@BootEncryption@CipherShed@@QAEXEABV?$basic_string@DU?$char_traits@D@std@@V?$allocator@D@2@@std@@@Z 0042bf10 f   BootEncryption.obj
 0001:0002b270       ?GetHiddenOSCreationPhase@BootEncryption@CipherShed@@QAEIXZ 0042c270 f   BootEncryption.obj
 0001:0002b290       ?CreateRescueIsoImage@BootEncryption@CipherShed@@QAEX_NABV?$basic_string@DU?$char_traits@D@std@@V?$allocator@D@2@@std@@@Z 0042c290 f   BootEncryption.obj
 0001:0002b6e0       ?ChangePassword@BootEncryption@CipherShed@@QAEHPAUPassword@@0H@Z 0042c6e0 f   BootEncryption.obj
 0001:0002bd10       _CommandHelpDlgProc@16     0042cd10 f   Cmdline.obj
 0001:0002be80       _Win32CommandLine          0042ce80 f   Cmdline.obj
 0001:0002bfc0       _GetArgumentID             0042cfc0 f   Cmdline.obj
 0001:0002c330       _GetArgumentValue          0042d330 f   Cmdline.obj
 0001:0002c3b0       _AddComboItem              0042d3b0 f   Combo.obj
 0001:0002c470       _MoveEditToCombo           0042d470 f   Combo.obj
 0001:0002c5d0       _GetOrderComboIdx          0042d5d0 f   Combo.obj
 0001:0002c670       _UpdateComboOrder          0042d670 f   Combo.obj
 0001:0002c6c0       _LoadCombo                 0042d6c0 f   Combo.obj
 0001:0002c780       _DumpCombo                 0042d780 f   Combo.obj
 0001:0002c910       _ClearCombo                0042d910 f   Combo.obj
 0001:0002c940       _IsComboEmpty              0042d940 f   Combo.obj
 0001:0002c960       _crc32int                  0042d960 f   Crc.obj
 0001:0002ca00       _crc32_selfTestLarge       0042da00 f   Crc.obj
 0001:0002cad0       _GetCrc32                  0042dad0 f   Crc.obj
 0001:0002cae0       _crc32_selftests           0042dae0 f   Crc.obj
 0001:0002caf0       _CipherGetName             0042daf0 f   Crypto.obj
 0001:0002cb30       _CipherGetBlockSize        0042db30 f   Crypto.obj
 0001:0002cb70       _CipherGetKeySize          0042db70 f   Crypto.obj
 0001:0002cbb0       _CipherGetKeyScheduleSize  0042dbb0 f   Crypto.obj
 0001:0002cbf0       _EAGetFirst                0042dbf0 f   Crypto.obj
 0001:0002cc00       _EAGetNext                 0042dc00 f   Crypto.obj
 0001:0002cc20       _EAGetFirstMode            0042dc20 f   Crypto.obj
 0001:0002cc30       _EAGetNextMode             0042dc30 f   Crypto.obj
 0001:0002cc80       _EAGetCipherCount          0042dc80 f   Crypto.obj
 0001:0002cca0       _EAGetFirstCipher          0042dca0 f   Crypto.obj
 0001:0002ccb0       _EAGetLastCipher           0042dcb0 f   Crypto.obj
 0001:0002cce0       _EAGetNextCipher           0042dce0 f   Crypto.obj
 0001:0002cd30       _EAGetPreviousCipher       0042dd30 f   Crypto.obj
 0001:0002cd80       _EAIsFormatEnabled         0042dd80 f   Crypto.obj
 0001:0002cd90       _EAIsModeSupported         0042dd90 f   Crypto.obj
 0001:0002ce10       _HashGetName               0042de10 f   Crypto.obj
 0001:0002ce50       _HashIsDeprecated          0042de50 f   Crypto.obj
 0001:0002ce90       _crypto_open               0042de90 f   Crypto.obj
 0001:0002ced0       _crypto_loadkey            0042ded0 f   Crypto.obj
 0001:0002cf20       _crypto_close              0042df20 f   Crypto.obj
 0001:0002d070       _EncryptDataUnits          0042e070 f   Crypto.obj
 0001:0002d090       _DecryptDataUnits          0042e090 f   Crypto.obj
 0001:0002d0b0       _IsAesHwCpuSupported       0042e0b0 f   Crypto.obj
 0001:0002d0f0       _EnableHwEncryption        0042e0f0 f   Crypto.obj
 0001:0002d100       _IsHwEncryptionEnabled     0042e100 f   Crypto.obj
 0001:0002d110       _CipherInit                0042e110 f   Crypto.obj
 0001:0002d2a0       _EncipherBlock             0042e2a0 f   Crypto.obj
 0001:0002d360       _EncipherBlocks            0042e360 f   Crypto.obj
 0001:0002d3e0       _DecipherBlock             0042e3e0 f   Crypto.obj
 0001:0002d4c0       _DecipherBlocks            0042e4c0 f   Crypto.obj
 0001:0002d540       _CipherSupportsIntraDataUnitParallelization 0042e540 f   Crypto.obj
 0001:0002d590       _EAGetCount                0042e590 f   Crypto.obj
 0001:0002d5c0       _EAInit                    0042e5c0 f   Crypto.obj
 0001:0002d6a0       _EAInitMode                0042e6a0 f   Crypto.obj
 0001:0002d750       _EAGetName                 0042e750 f   Crypto.obj
 0001:0002d890       _EAGetByName               0042e890 f   Crypto.obj
 0001:0002d950       _EAGetKeySize              0042e950 f   Crypto.obj
 0001:0002d9e0       _EAGetModeName             0042e9e0 f   Crypto.obj
 0001:0002daf0       _EAGetKeyScheduleSize      0042eaf0 f   Crypto.obj
 0001:0002db80       _EAGetLargestKeyForMode    0042eb80 f   Crypto.obj
 0001:0002dbd0       _EncryptBufferLRW128       0042ebd0 f   Crypto.obj
 0001:0002de00       _EncryptBufferLRW64        0042ee00 f   Crypto.obj
 0001:0002df40       _DecryptBufferLRW128       0042ef40 f   Crypto.obj
 0001:0002e1b0       _DecryptBufferLRW64        0042f1b0 f   Crypto.obj
 0001:0002e700       _EncryptBuffer             0042f700 f   Crypto.obj
 0001:0002e8a0       _EncryptDataUnitsCurrentThread 0042f8a0 f   Crypto.obj
 0001:0002eca0       _DecryptBuffer             0042fca0 f   Crypto.obj
 0001:0002ee60       _DecryptDataUnitsCurrentThread 0042fe60 f   Crypto.obj
 0001:0002f1f0       _GetMaxPkcs5OutSize        004301f0 f   Crypto.obj
 0001:0002f2a0       _AddPoolData               004302a0 f   Dictionary.obj
 0001:0002f310       ??8const_iterator@?$_Tree@V?$_Tmap_traits@HPAXU?$less@H@std@@V?$allocator@U?$pair@$$CBHPAX@std@@@2@$0A@@std@@@std@@QBE_NABV012@@Z 00430310 f i Dictionary.obj
 0001:0002f310       ??8const_iterator@?$_Tree@V?$_Tmap_traits@HUHostDevice@@U?$less@H@std@@V?$allocator@U?$pair@$$CBHUHostDevice@@@std@@@3@$0A@@std@@@std@@QBE_NABV012@@Z 00430310 f i Dlgcode.obj
 0001:0002f310       ??8const_iterator@?$_Tree@V?$_Tmap_traits@KUPkcs11Session@CipherShed@@U?$less@K@std@@V?$allocator@U?$pair@$$CBKUPkcs11Session@CipherShed@@@std@@@4@$0A@@std@@@std@@QBE_NABV012@@Z 00430310 f i SecurityToken.obj
 0001:0002f310       ??8const_iterator@?$_Tree@V?$_Tmap_traits@V?$basic_string@DU?$char_traits@D@std@@V?$allocator@D@2@@std@@PAXU?$less@V?$basic_string@DU?$char_traits@D@std@@V?$allocator@D@2@@std@@@2@V?$allocator@U?$pair@$$CBV?$basic_string@DU?$char_traits@D@std@@V?$allocator@D@2@@std@@PAX@std@@@2@$0A@@std@@@std@@QBE_NABV012@@Z 00430310 f i Dictionary.obj
 0001:0002f340       ?_Max@?$_Tree@V?$_Tmap_traits@V?$basic_string@DU?$char_traits@D@std@@V?$allocator@D@2@@std@@PAXU?$less@V?$basic_string@DU?$char_traits@D@std@@V?$allocator@D@2@@std@@@2@V?$allocator@U?$pair@$$CBV?$basic_string@DU?$char_traits@D@std@@V?$allocator@D@2@@std@@PAX@std@@@2@$0A@@std@@@std@@KAPAU_Node@?$_Tree_nod@V?$_Tmap_traits@V?$basic_string@DU?$char_traits@D@std@@V?$allocator@D@2@@std@@PAXU?$less@V?$basic_string@DU?$char_traits@D@std@@V?$allocator@D@2@@std@@@2@V?$allocator@U?$pair@$$CBV?$basic_string@DU?$char_traits@D@std@@V?$allocator@D@2@@std@@PAX@std@@@2@$0A@@std@@@2@PAU342@@Z 00430340 f i Dictionary.obj
 0001:0002f360       ?_Min@?$_Tree@V?$_Tmap_traits@V?$basic_string@DU?$char_traits@D@std@@V?$allocator@D@2@@std@@PAXU?$less@V?$basic_string@DU?$char_traits@D@std@@V?$allocator@D@2@@std@@@2@V?$allocator@U?$pair@$$CBV?$basic_string@DU?$char_traits@D@std@@V?$allocator@D@2@@std@@PAX@std@@@2@$0A@@std@@@std@@KAPAU_Node@?$_Tree_nod@V?$_Tmap_traits@V?$basic_string@DU?$char_traits@D@std@@V?$allocator@D@2@@std@@PAXU?$less@V?$basic_string@DU?$char_traits@D@std@@V?$allocator@D@2@@std@@@2@V?$allocator@U?$pair@$$CBV?$basic_string@DU?$char_traits@D@std@@V?$allocator@D@2@@std@@PAX@std@@@2@$0A@@std@@@2@PAU342@@Z 00430360 f i Dictionary.obj
 0001:0002f380       ?_Max@?$_Tree@V?$_Tmap_traits@HPAXU?$less@H@std@@V?$allocator@U?$pair@$$CBHPAX@std@@@2@$0A@@std@@@std@@KAPAU_Node@?$_Tree_nod@V?$_Tmap_traits@HPAXU?$less@H@std@@V?$allocator@U?$pair@$$CBHPAX@std@@@2@$0A@@std@@@2@PAU342@@Z 00430380 f i Dictionary.obj
 0001:0002f3a0       ?_Min@?$_Tree@V?$_Tmap_traits@HPAXU?$less@H@std@@V?$allocator@U?$pair@$$CBHPAX@std@@@2@$0A@@std@@@std@@KAPAU_Node@?$_Tree_nod@V?$_Tmap_traits@HPAXU?$less@H@std@@V?$allocator@U?$pair@$$CBHPAX@std@@@2@$0A@@std@@@2@PAU342@@Z 004303a0 f i Dictionary.obj
 0001:0002f3c0       ?_Lrotate@?$_Tree@V?$_Tmap_traits@V?$basic_string@DU?$char_traits@D@std@@V?$allocator@D@2@@std@@PAXU?$less@V?$basic_string@DU?$char_traits@D@std@@V?$allocator@D@2@@std@@@2@V?$allocator@U?$pair@$$CBV?$basic_string@DU?$char_traits@D@std@@V?$allocator@D@2@@std@@PAX@std@@@2@$0A@@std@@@std@@IAEXPAU_Node@?$_Tree_nod@V?$_Tmap_traits@V?$basic_string@DU?$char_traits@D@std@@V?$allocator@D@2@@std@@PAXU?$less@V?$basic_string@DU?$char_traits@D@std@@V?$allocator@D@2@@std@@@2@V?$allocator@U?$pair@$$CBV?$basic_string@DU?$char_traits@D@std@@V?$allocator@D@2@@std@@PAX@std@@@2@$0A@@std@@@2@@Z 004303c0 f i Dictionary.obj
 0001:0002f410       ?_Rrotate@?$_Tree@V?$_Tmap_traits@V?$basic_string@DU?$char_traits@D@std@@V?$allocator@D@2@@std@@PAXU?$less@V?$basic_string@DU?$char_traits@D@std@@V?$allocator@D@2@@std@@@2@V?$allocator@U?$pair@$$CBV?$basic_string@DU?$char_traits@D@std@@V?$allocator@D@2@@std@@PAX@std@@@2@$0A@@std@@@std@@IAEXPAU_Node@?$_Tree_nod@V?$_Tmap_traits@V?$basic_string@DU?$char_traits@D@std@@V?$allocator@D@2@@std@@PAXU?$less@V?$basic_string@DU?$char_traits@D@std@@V?$allocator@D@2@@std@@@2@V?$allocator@U?$pair@$$CBV?$basic_string@DU?$char_traits@D@std@@V?$allocator@D@2@@std@@PAX@std@@@2@$0A@@std@@@2@@Z 00430410 f i Dictionary.obj
 0001:0002f470       ?_Lrotate@?$_Tree@V?$_Tmap_traits@HPAXU?$less@H@std@@V?$allocator@U?$pair@$$CBHPAX@std@@@2@$0A@@std@@@std@@IAEXPAU_Node@?$_Tree_nod@V?$_Tmap_traits@HPAXU?$less@H@std@@V?$allocator@U?$pair@$$CBHPAX@std@@@2@$0A@@std@@@2@@Z 00430470 f i Dictionary.obj
 0001:0002f4c0       ?_Rrotate@?$_Tree@V?$_Tmap_traits@HPAXU?$less@H@std@@V?$allocator@U?$pair@$$CBHPAX@std@@@2@$0A@@std@@@std@@IAEXPAU_Node@?$_Tree_nod@V?$_Tmap_traits@HPAXU?$less@H@std@@V?$allocator@U?$pair@$$CBHPAX@std@@@2@$0A@@std@@@2@@Z 004304c0 f i Dictionary.obj
 0001:0002f520       ?_Dec@const_iterator@?$_Tree@V?$_Tmap_traits@V?$basic_string@DU?$char_traits@D@std@@V?$allocator@D@2@@std@@PAXU?$less@V?$basic_string@DU?$char_traits@D@std@@V?$allocator@D@2@@std@@@2@V?$allocator@U?$pair@$$CBV?$basic_string@DU?$char_traits@D@std@@V?$allocator@D@2@@std@@PAX@std@@@2@$0A@@std@@@std@@QAEXXZ 00430520 f i Dictionary.obj
 0001:0002f5b0       ?_Inc@const_iterator@?$_Tree@V?$_Tmap_traits@V?$basic_string@DU?$char_traits@D@std@@V?$allocator@D@2@@std@@PAXU?$less@V?$basic_string@DU?$char_traits@D@std@@V?$allocator@D@2@@std@@@2@V?$allocator@U?$pair@$$CBV?$basic_string@DU?$char_traits@D@std@@V?$allocator@D@2@@std@@PAX@std@@@2@$0A@@std@@@std@@QAEXXZ 004305b0 f i Dictionary.obj
 0001:0002f620       ?_Dec@const_iterator@?$_Tree@V?$_Tmap_traits@HPAXU?$less@H@std@@V?$allocator@U?$pair@$$CBHPAX@std@@@2@$0A@@std@@@std@@QAEXXZ 00430620 f i Dictionary.obj
 0001:0002f6b0       ?_Inc@const_iterator@?$_Tree@V?$_Tmap_traits@HPAXU?$less@H@std@@V?$allocator@U?$pair@$$CBHPAX@std@@@2@$0A@@std@@@std@@QAEXXZ 004306b0 f i Dictionary.obj
 0001:0002f720       ?_Erase@?$_Tree@V?$_Tmap_traits@HPAXU?$less@H@std@@V?$allocator@U?$pair@$$CBHPAX@std@@@2@$0A@@std@@@std@@IAEXPAU_Node@?$_Tree_nod@V?$_Tmap_traits@HPAXU?$less@H@std@@V?$allocator@U?$pair@$$CBHPAX@std@@@2@$0A@@std@@@2@@Z 00430720 f i Dictionary.obj
 0001:0002f760       ?_Buynode@?$_Tree@V?$_Tmap_traits@V?$basic_string@DU?$char_traits@D@std@@V?$allocator@D@2@@std@@PAXU?$less@V?$basic_string@DU?$char_traits@D@std@@V?$allocator@D@2@@std@@@2@V?$allocator@U?$pair@$$CBV?$basic_string@DU?$char_traits@D@std@@V?$allocator@D@2@@std@@PAX@std@@@2@$0A@@std@@@std@@IAEPAU_Node@?$_Tree_nod@V?$_Tmap_traits@V?$basic_string@DU?$char_traits@D@std@@V?$allocator@D@2@@std@@PAXU?$less@V?$basic_string@DU?$char_traits@D@std@@V?$allocator@D@2@@std@@@2@V?$allocator@U?$pair@$$CBV?$basic_string@DU?$char_traits@D@std@@V?$allocator@D@2@@std@@PAX@std@@@2@$0A@@std@@@2@XZ 00430760 f i Dictionary.obj
 0001:0002f7a0       ?_Buynode@?$_Tree@V?$_Tmap_traits@HPAXU?$less@H@std@@V?$allocator@U?$pair@$$CBHPAX@std@@@2@$0A@@std@@@std@@IAEPAU_Node@?$_Tree_nod@V?$_Tmap_traits@HPAXU?$less@H@std@@V?$allocator@U?$pair@$$CBHPAX@std@@@2@$0A@@std@@@2@XZ 004307a0 f i Dictionary.obj
 0001:0002f7e0       ?_Buynode@?$_Tree@V?$_Tmap_traits@HPAXU?$less@H@std@@V?$allocator@U?$pair@$$CBHPAX@std@@@2@$0A@@std@@@std@@IAEPAU_Node@?$_Tree_nod@V?$_Tmap_traits@HPAXU?$less@H@std@@V?$allocator@U?$pair@$$CBHPAX@std@@@2@$0A@@std@@@2@PAU342@00ABU?$pair@$$CBHPAX@2@D@Z 004307e0 f i Dictionary.obj
 0001:0002f820       ??1?$basic_string@DU?$char_traits@D@std@@V?$allocator@D@2@@std@@QAE@XZ 00430820 f i Favorites.obj
 0001:0002f820       ??1?$pair@$$CBV?$basic_string@DU?$char_traits@D@std@@V?$allocator@D@2@@std@@PAX@std@@QAE@XZ 00430820 f i Dictionary.obj
 0001:0002f850       ??R?$less@V?$basic_string@DU?$char_traits@D@std@@V?$allocator@D@2@@std@@@std@@QBE_NABV?$basic_string@DU?$char_traits@D@std@@V?$allocator@D@2@@1@0@Z 00430850 f i Dictionary.obj
 0001:0002f890       ?_Lbound@?$_Tree@V?$_Tmap_traits@V?$basic_string@DU?$char_traits@D@std@@V?$allocator@D@2@@std@@PAXU?$less@V?$basic_string@DU?$char_traits@D@std@@V?$allocator@D@2@@std@@@2@V?$allocator@U?$pair@$$CBV?$basic_string@DU?$char_traits@D@std@@V?$allocator@D@2@@std@@PAX@std@@@2@$0A@@std@@@std@@IBEPAU_Node@?$_Tree_nod@V?$_Tmap_traits@V?$basic_string@DU?$char_traits@D@std@@V?$allocator@D@2@@std@@PAXU?$less@V?$basic_string@DU?$char_traits@D@std@@V?$allocator@D@2@@std@@@2@V?$allocator@U?$pair@$$CBV?$basic_string@DU?$char_traits@D@std@@V?$allocator@D@2@@std@@PAX@std@@@2@$0A@@std@@@2@ABV?$basic_string@DU?$char_traits@D@std@@V?$allocator@D@2@@2@@Z 00430890 f i Dictionary.obj
 0001:0002f920       ?find@?$_Tree@V?$_Tmap_traits@V?$basic_string@DU?$char_traits@D@std@@V?$allocator@D@2@@std@@PAXU?$less@V?$basic_string@DU?$char_traits@D@std@@V?$allocator@D@2@@std@@@2@V?$allocator@U?$pair@$$CBV?$basic_string@DU?$char_traits@D@std@@V?$allocator@D@2@@std@@PAX@std@@@2@$0A@@std@@@std@@QAE?AViterator@12@ABV?$basic_string@DU?$char_traits@D@std@@V?$allocator@D@2@@2@@Z 00430920 f i Dictionary.obj
 0001:0002f9b0       ?find@?$_Tree@V?$_Tmap_traits@HPAXU?$less@H@std@@V?$allocator@U?$pair@$$CBHPAX@std@@@2@$0A@@std@@@std@@QAE?AViterator@12@ABH@Z 004309b0 f i Dictionary.obj
 0001:0002fa40       ??1?$_List_val@UPartition@CipherShed@@V?$allocator@UPartition@CipherShed@@@std@@@std@@QAE@XZ 00430a40 f i Mount.obj
 0001:0002fa40       ??1?$_Vector_val@EV?$allocator@E@std@@@std@@QAE@XZ 00430a40 f i Dlgcode.obj
 0001:0002fa40       ??1?$_Vector_val@UFavoriteVolume@CipherShed@@V?$allocator@UFavoriteVolume@CipherShed@@@std@@@std@@QAE@XZ 00430a40 f i Favorites.obj
 0001:0002fa40       ??1?$_Vector_val@UHostDevice@@V?$allocator@UHostDevice@@@std@@@std@@QAE@XZ 00430a40 f i Mount.obj
 0001:0002fa40       ??1?$_List_val@USecurityTokenKeyfilePath@CipherShed@@V?$allocator@USecurityTokenKeyfilePath@CipherShed@@@std@@@std@@QAE@XZ 00430a40 f i Keyfiles.obj
 0001:0002fa40       ??1?$_List_val@USecurityTokenInfo@CipherShed@@V?$allocator@USecurityTokenInfo@CipherShed@@@std@@@std@@QAE@XZ 00430a40 f i Dlgcode.obj
 0001:0002fa40       ??1?$_Tree_val@V?$_Tmap_traits@HUHostDevice@@U?$less@H@std@@V?$allocator@U?$pair@$$CBHUHostDevice@@@std@@@3@$0A@@std@@@std@@QAE@XZ 00430a40 f i Dlgcode.obj
 0001:0002fa40       ??1?$_Tree_val@V?$_Tmap_traits@HPAXU?$less@H@std@@V?$allocator@U?$pair@$$CBHPAX@std@@@2@$0A@@std@@@std@@QAE@XZ 00430a40 f i Dictionary.obj
 0001:0002fa40       ??1?$_List_val@V?$basic_string@DU?$char_traits@D@std@@V?$allocator@D@2@@std@@V?$allocator@V?$basic_string@DU?$char_traits@D@std@@V?$allocator@D@2@@std@@@2@@std@@QAE@XZ 00430a40 f i Mount.obj
 0001:0002fa40       ??1?$_Tree_val@V?$_Tmap_traits@V?$basic_string@DU?$char_traits@D@std@@V?$allocator@D@2@@std@@PAXU?$less@V?$basic_string@DU?$char_traits@D@std@@V?$allocator@D@2@@std@@@2@V?$allocator@U?$pair@$$CBV?$basic_string@DU?$char_traits@D@std@@V?$allocator@D@2@@std@@PAX@std@@@2@$0A@@std@@@std@@QAE@XZ 00430a40 f i Dictionary.obj
 0001:0002fa40       ??1?$_List_val@UFavoriteVolume@CipherShed@@V?$allocator@UFavoriteVolume@CipherShed@@@std@@@std@@QAE@XZ 00430a40 f i Favorites.obj
 0001:0002fa40       ??1?$_Tree_val@V?$_Tmap_traits@KUPkcs11Session@CipherShed@@U?$less@K@std@@V?$allocator@U?$pair@$$CBKUPkcs11Session@CipherShed@@@std@@@4@$0A@@std@@@std@@QAE@XZ 00430a40 f i SecurityToken.obj
 0001:0002fa40       ??1?$_Vector_val@USecurityTokenKeyfile@CipherShed@@V?$allocator@USecurityTokenKeyfile@CipherShed@@@std@@@std@@QAE@XZ 00430a40 f i Dlgcode.obj
 0001:0002fa40       ??1?$_Vector_val@KV?$allocator@K@std@@@std@@QAE@XZ 00430a40 f i SecurityToken.obj
 0001:0002fa40       ??1?$_List_val@USecurityTokenKeyfile@CipherShed@@V?$allocator@USecurityTokenKeyfile@CipherShed@@@std@@@std@@QAE@XZ 00430a40 f i Dlgcode.obj
 0001:0002fa40       ??1?$_List_val@KV?$allocator@K@std@@@std@@QAE@XZ 00430a40 f i Dlgcode.obj
 0001:0002fa50       ??0out_of_range@std@@QAE@ABV?$basic_string@DU?$char_traits@D@std@@V?$allocator@D@2@@1@@Z 00430a50 f i Dictionary.obj
 0001:0002fa70       ??_Glength_error@std@@UAEPAXI@Z 00430a70 f i Favorites.obj
 0001:0002fa70       ??_Eout_of_range@std@@UAEPAXI@Z 00430a70 f i Dictionary.obj
 0001:0002fa70       ??_Gout_of_range@std@@UAEPAXI@Z 00430a70 f i Dictionary.obj
 0001:0002fa70       ??_Elogic_error@std@@UAEPAXI@Z 00430a70 f i Favorites.obj
 0001:0002fa70       ??_Glogic_error@std@@UAEPAXI@Z 00430a70 f i Favorites.obj
 0001:0002fa70       ??_Elength_error@std@@UAEPAXI@Z 00430a70 f i Favorites.obj
 0001:0002fac0       _GetDictionaryValueByInt   00430ac0 f   Dictionary.obj
 0001:0002fb30       ?_Insert@?$_Tree@V?$_Tmap_traits@HPAXU?$less@H@std@@V?$allocator@U?$pair@$$CBHPAX@std@@@2@$0A@@std@@@std@@IAE?AViterator@12@_NPAU_Node@?$_Tree_nod@V?$_Tmap_traits@HPAXU?$less@H@std@@V?$allocator@U?$pair@$$CBHPAX@std@@@2@$0A@@std@@@2@ABU?$pair@$$CBHPAX@2@@Z 00430b30 f i Dictionary.obj
 0001:0002fd30       ?erase@?$_Tree@V?$_Tmap_traits@V?$basic_string@DU?$char_traits@D@std@@V?$allocator@D@2@@std@@PAXU?$less@V?$basic_string@DU?$char_traits@D@std@@V?$allocator@D@2@@std@@@2@V?$allocator@U?$pair@$$CBV?$basic_string@DU?$char_traits@D@std@@V?$allocator@D@2@@std@@PAX@std@@@2@$0A@@std@@@std@@QAE?AViterator@12@Vconst_iterator@12@@Z 00430d30 f i Dictionary.obj
 0001:00030020       ?erase@?$_Tree@V?$_Tmap_traits@HPAXU?$less@H@std@@V?$allocator@U?$pair@$$CBHPAX@std@@@2@$0A@@std@@@std@@QAE?AViterator@12@Vconst_iterator@12@@Z 00431020 f i Dictionary.obj
 0001:000302f0       ??0_Node@?$_Tree_nod@V?$_Tmap_traits@V?$basic_string@DU?$char_traits@D@std@@V?$allocator@D@2@@std@@PAXU?$less@V?$basic_string@DU?$char_traits@D@std@@V?$allocator@D@2@@std@@@2@V?$allocator@U?$pair@$$CBV?$basic_string@DU?$char_traits@D@std@@V?$allocator@D@2@@std@@PAX@std@@@2@$0A@@std@@@std@@QAE@PAU012@00ABU?$pair@$$CBV?$basic_string@DU?$char_traits@D@std@@V?$allocator@D@2@@std@@PAX@2@D@Z 004312f0 f i Dictionary.obj
 0001:00030350       ??0out_of_range@std@@QAE@ABV01@@Z 00431350 f i Dictionary.obj
 0001:00030370       _GetDictionaryValue        00431370 f   Dictionary.obj
 0001:00030430       ??0?$_Tree@V?$_Tmap_traits@V?$basic_string@DU?$char_traits@D@std@@V?$allocator@D@2@@std@@PAXU?$less@V?$basic_string@DU?$char_traits@D@std@@V?$allocator@D@2@@std@@@2@V?$allocator@U?$pair@$$CBV?$basic_string@DU?$char_traits@D@std@@V?$allocator@D@2@@std@@PAX@std@@@2@$0A@@std@@@std@@QAE@ABU?$less@V?$basic_string@DU?$char_traits@D@std@@V?$allocator@D@2@@std@@@1@ABV?$allocator@U?$pair@$$CBV?$basic_string@DU?$char_traits@D@std@@V?$allocator@D@2@@std@@PAX@std@@@1@@Z 00431430 f i Dictionary.obj
 0001:000304c0       ?_Erase@?$_Tree@V?$_Tmap_traits@V?$basic_string@DU?$char_traits@D@std@@V?$allocator@D@2@@std@@PAXU?$less@V?$basic_string@DU?$char_traits@D@std@@V?$allocator@D@2@@std@@@2@V?$allocator@U?$pair@$$CBV?$basic_string@DU?$char_traits@D@std@@V?$allocator@D@2@@std@@PAX@std@@@2@$0A@@std@@@std@@IAEXPAU_Node@?$_Tree_nod@V?$_Tmap_traits@V?$basic_string@DU?$char_traits@D@std@@V?$allocator@D@2@@std@@PAXU?$less@V?$basic_string@DU?$char_traits@D@std@@V?$allocator@D@2@@std@@@2@V?$allocator@U?$pair@$$CBV?$basic_string@DU?$char_traits@D@std@@V?$allocator@D@2@@std@@PAX@std@@@2@$0A@@std@@@2@@Z 004314c0 f i Dictionary.obj
 0001:00030520       ??0?$_Tree@V?$_Tmap_traits@HPAXU?$less@H@std@@V?$allocator@U?$pair@$$CBHPAX@std@@@2@$0A@@std@@@std@@QAE@ABU?$less@H@1@ABV?$allocator@U?$pair@$$CBHPAX@std@@@1@@Z 00431520 f i Dictionary.obj
 0001:000305b0       ?insert@?$_Tree@V?$_Tmap_traits@HPAXU?$less@H@std@@V?$allocator@U?$pair@$$CBHPAX@std@@@2@$0A@@std@@@std@@QAE?AU?$pair@Viterator@?$_Tree@V?$_Tmap_traits@HPAXU?$less@H@std@@V?$allocator@U?$pair@$$CBHPAX@std@@@2@$0A@@std@@@std@@_N@2@ABU?$pair@$$CBHPAX@2@@Z 004315b0 f i Dictionary.obj
 0001:000306a0       ?erase@?$_Tree@V?$_Tmap_traits@HPAXU?$less@H@std@@V?$allocator@U?$pair@$$CBHPAX@std@@@2@$0A@@std@@@std@@QAE?AViterator@12@Vconst_iterator@12@0@Z 004316a0 f i Dictionary.obj
 0001:00030780       ?_Buynode@?$_Tree@V?$_Tmap_traits@V?$basic_string@DU?$char_traits@D@std@@V?$allocator@D@2@@std@@PAXU?$less@V?$basic_string@DU?$char_traits@D@std@@V?$allocator@D@2@@std@@@2@V?$allocator@U?$pair@$$CBV?$basic_string@DU?$char_traits@D@std@@V?$allocator@D@2@@std@@PAX@std@@@2@$0A@@std@@@std@@IAEPAU_Node@?$_Tree_nod@V?$_Tmap_traits@V?$basic_string@DU?$char_traits@D@std@@V?$allocator@D@2@@std@@PAXU?$less@V?$basic_string@DU?$char_traits@D@std@@V?$allocator@D@2@@std@@@2@V?$allocator@U?$pair@$$CBV?$basic_string@DU?$char_traits@D@std@@V?$allocator@D@2@@std@@PAX@std@@@2@$0A@@std@@@2@PAU342@00ABU?$pair@$$CBV?$basic_string@DU?$char_traits@D@std@@V?$allocator@D@2@@std@@PAX@2@D@Z 00431780 f i Dictionary.obj
 0001:00030820       ?insert@?$_Tree@V?$_Tmap_traits@HPAXU?$less@H@std@@V?$allocator@U?$pair@$$CBHPAX@std@@@2@$0A@@std@@@std@@QAE?AViterator@12@Vconst_iterator@12@ABU?$pair@$$CBHPAX@2@@Z 00431820 f i Dictionary.obj
 0001:000309f0       ?erase@?$_Tree@V?$_Tmap_traits@V?$basic_string@DU?$char_traits@D@std@@V?$allocator@D@2@@std@@PAXU?$less@V?$basic_string@DU?$char_traits@D@std@@V?$allocator@D@2@@std@@@2@V?$allocator@U?$pair@$$CBV?$basic_string@DU?$char_traits@D@std@@V?$allocator@D@2@@std@@PAX@std@@@2@$0A@@std@@@std@@QAE?AViterator@12@Vconst_iterator@12@0@Z 004319f0 f i Dictionary.obj
 0001:00030ad0       ?_Insert@?$_Tree@V?$_Tmap_traits@V?$basic_string@DU?$char_traits@D@std@@V?$allocator@D@2@@std@@PAXU?$less@V?$basic_string@DU?$char_traits@D@std@@V?$allocator@D@2@@std@@@2@V?$allocator@U?$pair@$$CBV?$basic_string@DU?$char_traits@D@std@@V?$allocator@D@2@@std@@PAX@std@@@2@$0A@@std@@@std@@IAE?AViterator@12@_NPAU_Node@?$_Tree_nod@V?$_Tmap_traits@V?$basic_string@DU?$char_traits@D@std@@V?$allocator@D@2@@std@@PAXU?$less@V?$basic_string@DU?$char_traits@D@std@@V?$allocator@D@2@@std@@@2@V?$allocator@U?$pair@$$CBV?$basic_string@DU?$char_traits@D@std@@V?$allocator@D@2@@std@@PAX@std@@@2@$0A@@std@@@2@ABU?$pair@$$CBV?$basic_string@DU?$char_traits@D@std@@V?$allocator@D@2@@std@@PAX@2@@Z 00431ad0 f i Dictionary.obj
 0001:00030cd0       _ClearDictionaryPool       00431cd0 f   Dictionary.obj
 0001:00030d50       ??A?$map@HPAXU?$less@H@std@@V?$allocator@U?$pair@$$CBHPAX@std@@@2@@std@@QAEAAPAXABH@Z 00431d50 f i Dictionary.obj
 0001:00030e00       ??1?$_Tree@V?$_Tmap_traits@HPAXU?$less@H@std@@V?$allocator@U?$pair@$$CBHPAX@std@@@2@$0A@@std@@@std@@QAE@XZ 00431e00 f i Dictionary.obj
 0001:00030e80       ?insert@?$_Tree@V?$_Tmap_traits@V?$basic_string@DU?$char_traits@D@std@@V?$allocator@D@2@@std@@PAXU?$less@V?$basic_string@DU?$char_traits@D@std@@V?$allocator@D@2@@std@@@2@V?$allocator@U?$pair@$$CBV?$basic_string@DU?$char_traits@D@std@@V?$allocator@D@2@@std@@PAX@std@@@2@$0A@@std@@@std@@QAE?AU?$pair@Viterator@?$_Tree@V?$_Tmap_traits@V?$basic_string@DU?$char_traits@D@std@@V?$allocator@D@2@@std@@PAXU?$less@V?$basic_string@DU?$char_traits@D@std@@V?$allocator@D@2@@std@@@2@V?$allocator@U?$pair@$$CBV?$basic_string@DU?$char_traits@D@std@@V?$allocator@D@2@@std@@PAX@std@@@2@$0A@@std@@@std@@_N@2@ABU?$pair@$$CBV?$basic_string@DU?$char_traits@D@std@@V?$allocator@D@2@@std@@PAX@2@@Z 00431e80 f i Dictionary.obj
 0001:00030fe0       ??1?$_Tree@V?$_Tmap_traits@V?$basic_string@DU?$char_traits@D@std@@V?$allocator@D@2@@std@@PAXU?$less@V?$basic_string@DU?$char_traits@D@std@@V?$allocator@D@2@@std@@@2@V?$allocator@U?$pair@$$CBV?$basic_string@DU?$char_traits@D@std@@V?$allocator@D@2@@std@@PAX@std@@@2@$0A@@std@@@std@@QAE@XZ 00431fe0 f i Dictionary.obj
 0001:00031060       ?insert@?$_Tree@V?$_Tmap_traits@V?$basic_string@DU?$char_traits@D@std@@V?$allocator@D@2@@std@@PAXU?$less@V?$basic_string@DU?$char_traits@D@std@@V?$allocator@D@2@@std@@@2@V?$allocator@U?$pair@$$CBV?$basic_string@DU?$char_traits@D@std@@V?$allocator@D@2@@std@@PAX@std@@@2@$0A@@std@@@std@@QAE?AViterator@12@Vconst_iterator@12@ABU?$pair@$$CBV?$basic_string@DU?$char_traits@D@std@@V?$allocator@D@2@@std@@PAX@2@@Z 00432060 f i Dictionary.obj
 0001:00031290       ??A?$map@V?$basic_string@DU?$char_traits@D@std@@V?$allocator@D@2@@std@@PAXU?$less@V?$basic_string@DU?$char_traits@D@std@@V?$allocator@D@2@@std@@@2@V?$allocator@U?$pair@$$CBV?$basic_string@DU?$char_traits@D@std@@V?$allocator@D@2@@std@@PAX@std@@@2@@std@@QAEAAPAXABV?$basic_string@DU?$char_traits@D@std@@V?$allocator@D@2@@1@@Z 00432290 f i Dictionary.obj
 0001:000313b0       _AddDictionaryEntry        004323b0 f   Dictionary.obj
 0001:00031440       ?dec@std@@YAAAVios_base@1@AAV21@@Z 00432440 f i Dlgcode.obj
 0001:00031460       ?hex@std@@YAAAVios_base@1@AAV21@@Z 00432460 f i Dlgcode.obj
 0001:00031480       ??_EGetPinFunctor@CipherShed@@UAEPAXI@Z 00432480 f i Dlgcode.obj
 0001:00031480       ??_GGetPinFunctor@CipherShed@@UAEPAXI@Z 00432480 f i Dlgcode.obj
 0001:00031480       ??_EPinRequestHandler@?4??InitSecurityTokenLibrary@@9@UAEPAXI@Z 00432480 f i Dlgcode.obj
 0001:00031480       ??_GPinRequestHandler@?4??InitSecurityTokenLibrary@@9@UAEPAXI@Z 00432480 f i Dlgcode.obj
 0001:000314a0       _FakeDosNameForDevice      004324a0 f   Dlgcode.obj
 0001:00031500       _RemoveFakeDosName         00432500 f   Dlgcode.obj
 0001:00031520       _CompensateDPIFont         00432520 f   Dlgcode.obj
 0001:00031570       _CompensateXDPI            00432570 f   Dlgcode.obj
 0001:000315c0       _CompensateYDPI            004325c0 f   Dlgcode.obj
 0001:00031610       _GetTextGfxWidth           00432610 f   Dlgcode.obj
 0001:00031680       _GetTextGfxHeight          00432680 f   Dlgcode.obj
 0001:00031770       _AccommodateTextField      00432770 f   Dlgcode.obj
 0001:000319a0       _ToBootPwdField            004329a0 f   Dlgcode.obj
 0001:000319e0       ?AuxiliaryDlgProc@@YGHPAUHWND__@@IIJ@Z 004329e0 f   Dlgcode.obj
 0001:00031ad0       _IsButtonChecked           00432ad0 f   Dlgcode.obj
 0001:00031af0       _InitDialog                00432af0 f   Dlgcode.obj
 0001:00031f30       _ProcessPaintMessages      00432f30 f   Dlgcode.obj
 0001:00031f90       _CreateMemBitmap           00432f90 f   Dlgcode.obj
 0001:00031ff0       _RenderBitmap              00432ff0 f   Dlgcode.obj
 0001:00032180       _RedTick@16                00433180 f   Dlgcode.obj
 0001:00032370       _RegisterRedTick           00433370 f   Dlgcode.obj
 0001:00032410       _SplashDlgProc@16          00433410 f   Dlgcode.obj
 0001:00032420       _AddComboPair              00433420 f   Dlgcode.obj
 0001:00032450       _SelectAlgo                00433450 f   Dlgcode.obj
 0001:000324d0       _CustomDlgProc@16          004334d0 f   Dlgcode.obj
 0001:00032590       ?InvalidParameterHandler@@YAXPB_W00II@Z 00433590 f   Dlgcode.obj
 0001:000325b0       _MutexExistsOnSystem       004335b0 f   Dlgcode.obj
 0001:00032600       _ReadDriverConfigurationFlags 00433600 f   Dlgcode.obj
 0001:00032600       ?ReadDriverConfigurationFlags@BootEncryption@CipherShed@@QAEIXZ 00433600 f   BootEncryption.obj
 0001:00032630       _ReadEncryptionThreadPoolFreeCpuCountLimit 00433630 f   Dlgcode.obj
 0001:00032660       _InitOSVersionInfo         00433660 f   Dlgcode.obj
 0001:00032980       _InitHelpFileName          00433980 f   Dlgcode.obj
 0001:00032aa0       _OpenDevice                00433aa0 f   Dlgcode.obj
 0001:00032b30       _GetDriveLabel             00433b30 f   Dlgcode.obj
 0001:00032ba0       _DoDriverInstall           00433ba0 f   Dlgcode.obj
 0001:00032ec0       _SelectMultipleFilesNext   00433ec0 f   Dlgcode.obj
 0001:00033020       _BrowseDirectories         00434020 f   Dlgcode.obj
 0001:000330f0       _CheckFileStreamWriteErrors 004340f0 f   Dlgcode.obj
 0001:00033240       _LocalizeDialog            00434240 f   Dlgcode.obj
 0001:000332b0       _OpenVolumeExplorerWindow  004342b0 f   Dlgcode.obj
 0001:000334f0       _CloseVolumeExplorerWindows 004344f0 f   Dlgcode.obj
 0001:00033520       _GetSizeString             00434520 f   Dlgcode.obj
 0001:00033800       _GetSpeedString            00434800 f   Dlgcode.obj
 0001:00034250       ?LongReverse@@YAXPAII@Z    00435250 f   Dlgcode.obj
 0001:00034290       _ResetCipherTest           00435290 f   Dlgcode.obj
 0001:00034680       _CheckCapsLock             00435680 f   Dlgcode.obj
 0001:000346c0       _CheckFileExtension        004356c0 f   Dlgcode.obj
 0001:00034710       _IncreaseWrongPwdRetryCount 00435710 f   Dlgcode.obj
 0001:00034720       _ResetWrongPwdRetryCount   00435720 f   Dlgcode.obj
 0001:00034730       _WrongPwdRetryCountOverLimit 00435730 f   Dlgcode.obj
 0001:00034740       _GetFirstAvailableDrive    00435740 f   Dlgcode.obj
 0001:00034770       _IsDriveAvailable          00435770 f   Dlgcode.obj
 0001:00034790       _DriverUnmountVolume       00435790 f   Dlgcode.obj
 0001:00034890       _BroadcastDeviceChange     00435890 f   Dlgcode.obj
 0001:00034a70       _UnmountVolume             00435a70 f   Dlgcode.obj
 0001:00034b50       _IsPasswordCacheEmpty      00435b50 f   Dlgcode.obj
 0001:00034b80       _GetPartitionInfo          00435b80 f   Dlgcode.obj
 0001:00034c20       _FindString                00435c20 f   Dlgcode.obj
 0001:00034d20       _FileExists                00435d20 f   Dlgcode.obj
 0001:00034dc0       _TCCopyFile                00435dc0 f   Dlgcode.obj
 0001:00034f00       _IsNonInstallMode          00435f00 f   Dlgcode.obj
 0001:000350c0       _SetCheckBox               004360c0 f   Dlgcode.obj
 0001:000350f0       _GetCheckBox               004360f0 f   Dlgcode.obj
 0001:00035120       _SetListScrollHPos         00436120 f   Dlgcode.obj
 0001:00035160       _ManageStartupSeq          00436160 f   Dlgcode.obj
 0001:000352b0       _CleanLastVisitedMRU       004362b0 f   Dlgcode.obj
 0001:00035550       _ClearHistory              00436550 f   Dlgcode.obj
 0001:00035580       _ListItemAdd               00436580 f   Dlgcode.obj
 0001:000355d0       _ListItemAddW              004365d0 f   Dlgcode.obj
 0001:00035620       _ListSubItemSet            00436620 f   Dlgcode.obj
 0001:00035670       _ListSubItemSetW           00436670 f   Dlgcode.obj
 0001:000356c0       _GetMountList              004366c0 f   Dlgcode.obj
 0001:00035700       _GetDriverRefCount         00436700 f   Dlgcode.obj
 0001:00035740       _LoadFile                  00436740 f   Dlgcode.obj
 0001:000357d0       _GetConfigPath             004367d0 f   Dlgcode.obj
 0001:000358d0       _GetSystemDriveLetter      004368d0 f   Dlgcode.obj
 0001:00035940       _ConfigWriteBegin          00436940 f   Dlgcode.obj
 0001:000359e0       _ConfigWriteEnd            004369e0 f   Dlgcode.obj
 0001:00035b50       _ConfigWriteString         00436b50 f   Dlgcode.obj
 0001:00035bb0       _ConfigWriteInt            00436bb0 f   Dlgcode.obj
 0001:00035c70       _ConfigReadInt             00436c70 f   Dlgcode.obj
 0001:00035cd0       _ConfigReadString          00436cd0 f   Dlgcode.obj
 0001:00035d00       _RestoreDefaultKeyFilesParam 00436d00 f   Dlgcode.obj
 0001:00035d40       _LoadDefaultKeyFilesParam  00436d40 f   Dlgcode.obj
 0001:00035e00       _DebugMsgBox               00436e00 f   Dlgcode.obj
 0001:00035e70       _IsHiddenOSRunning         00436e70 f   Dlgcode.obj
 0001:00035f10       _RelativePath2Absolute     00436f10 f   Dlgcode.obj
 0001:00036000       _HandleDriveNotReadyError  00437000 f   Dlgcode.obj
 0001:000360a0       _CloseTCWindowsEnum@8      004370a0 f   Dlgcode.obj
 0001:000361a0       _FindTCWindowEnum@8        004371a0 f   Dlgcode.obj
 0001:000362a0       _MapResource               004372a0 f   Dlgcode.obj
 0001:000362f0       _CloseVolume               004372f0 f   Dlgcode.obj
 0001:00036350       _IsPagingFileWildcardActive 00437350 f   Dlgcode.obj
 0001:00036440       _FileHasReadOnlyAttribute  00437440 f   Dlgcode.obj
 0001:00036460       _IsFileOnReadOnlyFilesystem 00437460 f   Dlgcode.obj
 0001:000364f0       _CheckFilesystem           004374f0 f   Dlgcode.obj
 0001:000365f0       _BufferContainsString      004375f0 f   Dlgcode.obj
 0001:00036680       _RemoveDeviceWriteProtection 00437680 f   Dlgcode.obj
 0001:00036880       _IsWindowsIsoBurnerAvailable 00437880 f   Dlgcode.obj
 0001:00036940       ??6?$basic_ostream@DU?$char_traits@D@std@@@std@@QAEAAV01@P6AAAVios_base@1@AAV21@@Z@Z 00437940 f i Dlgcode.obj
 0001:00036970       ??1?$auto_ptr@USendExceptionFunctor@CipherShed@@@std@@QAE@XZ 00437970 f i Dlgcode.obj
 0001:00036970       ??1?$auto_ptr@UGetPinFunctor@CipherShed@@@std@@QAE@XZ 00437970 f i Dlgcode.obj
 0001:00036980       ?_Max@?$_Tree@V?$_Tmap_traits@HUHostDevice@@U?$less@H@std@@V?$allocator@U?$pair@$$CBHUHostDevice@@@std@@@3@$0A@@std@@@std@@KAPAU_Node@?$_Tree_nod@V?$_Tmap_traits@HUHostDevice@@U?$less@H@std@@V?$allocator@U?$pair@$$CBHUHostDevice@@@std@@@3@$0A@@std@@@2@PAU342@@Z 00437980 f i Dlgcode.obj
 0001:000369a0       ?_Min@?$_Tree@V?$_Tmap_traits@HUHostDevice@@U?$less@H@std@@V?$allocator@U?$pair@$$CBHUHostDevice@@@std@@@3@$0A@@std@@@std@@KAPAU_Node@?$_Tree_nod@V?$_Tmap_traits@HUHostDevice@@U?$less@H@std@@V?$allocator@U?$pair@$$CBHUHostDevice@@@std@@@3@$0A@@std@@@2@PAU342@@Z 004379a0 f i Dlgcode.obj
 0001:000369c0       ??$_Allocate@USecurityTokenKeyfile@CipherShed@@@std@@YAPAUSecurityTokenKeyfile@CipherShed@@IPAU12@@Z 004379c0 f i Dlgcode.obj
 0001:00036a20       ??F?$_Const_iterator@$00@?$list@V?$basic_string@DU?$char_traits@D@std@@V?$allocator@D@2@@std@@V?$allocator@V?$basic_string@DU?$char_traits@D@std@@V?$allocator@D@2@@std@@@2@@std@@QAEAAV012@XZ 00437a20 f i Mount.obj
 0001:00036a20       ??F?$_Const_iterator@$00@?$list@USecurityTokenKeyfilePath@CipherShed@@V?$allocator@USecurityTokenKeyfilePath@CipherShed@@@std@@@std@@QAEAAV012@XZ 00437a20 f i Keyfiles.obj
 0001:00036a20       ??F?$_Const_iterator@$00@?$list@KV?$allocator@K@std@@@std@@QAEAAV012@XZ 00437a20 f i Dlgcode.obj
 0001:00036a20       ??F?$_Const_iterator@$00@?$list@USecurityTokenInfo@CipherShed@@V?$allocator@USecurityTokenInfo@CipherShed@@@std@@@std@@QAEAAV012@XZ 00437a20 f i Dlgcode.obj
 0001:00036a20       ??F?$_Const_iterator@$00@?$list@USecurityTokenKeyfile@CipherShed@@V?$allocator@USecurityTokenKeyfile@CipherShed@@@std@@@std@@QAEAAV012@XZ 00437a20 f i Dlgcode.obj
 0001:00036a20       ??F?$_Const_iterator@$00@?$list@UFavoriteVolume@CipherShed@@V?$allocator@UFavoriteVolume@CipherShed@@@std@@@std@@QAEAAV012@XZ 00437a20 f i Favorites.obj
 0001:00036a20       ??F?$_Const_iterator@$00@?$list@UPartition@CipherShed@@V?$allocator@UPartition@CipherShed@@@std@@@std@@QAEAAV012@XZ 00437a20 f i BootEncryption.obj
 0001:00036a50       _ToCustHyperlink           00437a50 f   Dlgcode.obj
 0001:00036ab0       _CreateSysEncMutex         00437ab0 f   Dlgcode.obj
 0001:00036b10       _CloseSysEncMutex          00437b10 f   Dlgcode.obj
 0001:00036b50       _NonSysInplaceEncInProgressElsewhere 00437b50 f   Dlgcode.obj
 0001:00036b80       _CreateDriverSetupMutex    00437b80 f   Dlgcode.obj
 0001:00036be0       _CloseDriverSetupMutex     00437be0 f   Dlgcode.obj
 0001:00036c20       _IsCipherShedInstallerRunning 00437c20 f   Dlgcode.obj
 0001:00036c70       _LoadSysEncSettings        00437c70 f   Dlgcode.obj
 0001:00036e10       _LoadNonSysInPlaceEncSettings 00437e10 f   Dlgcode.obj
 0001:00036ed0       _RemoveNonSysInPlaceEncNotifications 00437ed0 f   Dlgcode.obj
 0001:00036f70       _GetLegalNotices           00437f70 f   Dlgcode.obj
 0001:00037000       _DriverUnload              00438000 f   Dlgcode.obj
 0001:000371f0       _DriverAttach              004381f0 f   Dlgcode.obj
 0001:00037580       _ResetCurrentDirectory     00438580 f   Dlgcode.obj
 0001:00037600       ?BrowseFilesInDir@@YAHPAUHWND__@@PAD11HHPA_WPB_W3@Z 00438600 f   Dlgcode.obj
 0001:00037870       _SelectMultipleFiles       00438870 f   Dlgcode.obj
 0001:00037f00       _UserEnrichRandomPool      00438f00 f   Dlgcode.obj
 0001:00037f50       _CipherTestDialogProc@16   00438f50 f   Dlgcode.obj
 0001:00038a60       _MultiChoiceDialogProc@16  00439a60 f   Dlgcode.obj
 0001:00039270       _PrintHardCopyTextUTF16    0043a270 f   Dlgcode.obj
 0001:00039570       _AskMultiChoice            0043a570 f   Dlgcode.obj
 0001:000395b0       _OpenVolume                0043a5b0 f   Dlgcode.obj
 0001:00039990       _ReEncryptVolumeHeader     0043a990 f   Dlgcode.obj
 0001:00039ab0       ??_GWarningHandler@?5??InitSecurityTokenLibrary@@9@UAEPAXI@Z 0043aab0 f i Dlgcode.obj
 0001:00039ab0       ??_ESendExceptionFunctor@CipherShed@@UAEPAXI@Z 0043aab0 f i Dlgcode.obj
 0001:00039ab0       ??_GSendExceptionFunctor@CipherShed@@UAEPAXI@Z 0043aab0 f i Dlgcode.obj
 0001:00039ab0       ??_EWarningHandler@?5??InitSecurityTokenLibrary@@9@UAEPAXI@Z 0043aab0 f i Dlgcode.obj
 0001:00039ad0       _AskNonSysInPlaceEncryptionResume 0043aad0 f   Dlgcode.obj
 0001:00039b60       ??9?$_Const_iterator@$00@?$list@USecurityTokenInfo@CipherShed@@V?$allocator@USecurityTokenInfo@CipherShed@@@std@@@std@@QBE_NABV012@@Z 0043ab60 f i Dlgcode.obj
 0001:00039b60       ??9?$_Const_iterator@$00@?$list@USecurityTokenKeyfilePath@CipherShed@@V?$allocator@USecurityTokenKeyfilePath@CipherShed@@@std@@@std@@QBE_NABV012@@Z 0043ab60 f i Keyfiles.obj
 0001:00039b60       ??9?$_Const_iterator@$00@?$list@USecurityTokenKeyfile@CipherShed@@V?$allocator@USecurityTokenKeyfile@CipherShed@@@std@@@std@@QBE_NABV012@@Z 0043ab60 f i Dlgcode.obj
 0001:00039b60       ??9?$_Const_iterator@$00@?$list@UPartition@CipherShed@@V?$allocator@UPartition@CipherShed@@@std@@@std@@QBE_NABV012@@Z 0043ab60 f i BootEncryption.obj
 0001:00039b60       ??9?$_Const_iterator@$00@?$list@V?$basic_string@DU?$char_traits@D@std@@V?$allocator@D@2@@std@@V?$allocator@V?$basic_string@DU?$char_traits@D@std@@V?$allocator@D@2@@std@@@2@@std@@QBE_NABV012@@Z 0043ab60 f i Mount.obj
 0001:00039b60       ??9?$_Const_iterator@$00@?$list@UFavoriteVolume@CipherShed@@V?$allocator@UFavoriteVolume@CipherShed@@@std@@@std@@QBE_NABV012@@Z 0043ab60 f i Favorites.obj
 0001:00039b60       ??9?$_Const_iterator@$00@?$list@KV?$allocator@K@std@@@std@@QBE_NABV012@@Z 0043ab60 f i Dlgcode.obj
 0001:00039b90       ?_Lrotate@?$_Tree@V?$_Tmap_traits@HUHostDevice@@U?$less@H@std@@V?$allocator@U?$pair@$$CBHUHostDevice@@@std@@@3@$0A@@std@@@std@@IAEXPAU_Node@?$_Tree_nod@V?$_Tmap_traits@HUHostDevice@@U?$less@H@std@@V?$allocator@U?$pair@$$CBHUHostDevice@@@std@@@3@$0A@@std@@@2@@Z 0043ab90 f i Dlgcode.obj
 0001:00039bf0       ?_Rrotate@?$_Tree@V?$_Tmap_traits@HUHostDevice@@U?$less@H@std@@V?$allocator@U?$pair@$$CBHUHostDevice@@@std@@@3@$0A@@std@@@std@@IAEXPAU_Node@?$_Tree_nod@V?$_Tmap_traits@HUHostDevice@@U?$less@H@std@@V?$allocator@U?$pair@$$CBHUHostDevice@@@std@@@3@$0A@@std@@@2@@Z 0043abf0 f i Dlgcode.obj
 0001:00039c50       ?_Dec@const_iterator@?$_Tree@V?$_Tmap_traits@HUHostDevice@@U?$less@H@std@@V?$allocator@U?$pair@$$CBHUHostDevice@@@std@@@3@$0A@@std@@@std@@QAEXXZ 0043ac50 f i Dlgcode.obj
 0001:00039cf0       ?_Inc@const_iterator@?$_Tree@V?$_Tmap_traits@HUHostDevice@@U?$less@H@std@@V?$allocator@U?$pair@$$CBHUHostDevice@@@std@@@3@$0A@@std@@@std@@QAEXXZ 0043acf0 f i Dlgcode.obj
 0001:00039d70       ??$_Maklocstr@_W@std@@YAPA_WPBDPA_WABU_Cvtvec@@@Z 0043ad70 f i Dlgcode.obj
 0001:00039e30       ??_Efacet@locale@std@@UAEPAXI@Z 0043ae30 f i Mount.obj
 0001:00039e30       ??_G?$num_put@DV?$ostreambuf_iterator@DU?$char_traits@D@std@@@std@@@std@@MAEPAXI@Z 0043ae30 f i Mount.obj
 0001:00039e30       ??_E?$num_put@_WV?$ostreambuf_iterator@_WU?$char_traits@_W@std@@@std@@@std@@MAEPAXI@Z 0043ae30 f i Dlgcode.obj
 0001:00039e30       ??_E?$num_put@DV?$ostreambuf_iterator@DU?$char_traits@D@std@@@std@@@std@@MAEPAXI@Z 0043ae30 f i Mount.obj
 0001:00039e30       ??_G?$num_put@_WV?$ostreambuf_iterator@_WU?$char_traits@_W@std@@@std@@@std@@MAEPAXI@Z 0043ae30 f i Dlgcode.obj
 0001:00039e30       ??_Gfacet@locale@std@@UAEPAXI@Z 0043ae30 f i Mount.obj
 0001:00039e50       ?_Init@?$numpunct@_W@std@@IAEXABV_Locinfo@2@_N@Z 0043ae50 f i Dlgcode.obj
 0001:0003a050       _cleanup                   0043b050 f   Dlgcode.obj
 0001:0003a200       _ToHyperlink               0043b200 f   Dlgcode.obj
 0001:0003a220       _BrowseFiles               0043b220 f   Dlgcode.obj
 0001:0003a250       _KeyfileGeneratorDlgProc@16 0043b250 f   Dlgcode.obj
 0001:0003a7a0       ?_Buynode@?$list@KV?$allocator@K@std@@@std@@IAEPAU_Node@?$_List_nod@KV?$allocator@K@std@@@2@XZ 0043b7a0 f i Dlgcode.obj
 0001:0003a7c0       ?_Buynode@?$list@USecurityTokenInfo@CipherShed@@V?$allocator@USecurityTokenInfo@CipherShed@@@std@@@std@@IAEPAU_Node@?$_List_nod@USecurityTokenInfo@CipherShed@@V?$allocator@USecurityTokenInfo@CipherShed@@@std@@@2@XZ 0043b7c0 f i Dlgcode.obj
 0001:0003a7e0       ?_Buynode@?$list@KV?$allocator@K@std@@@std@@IAEPAU_Node@?$_List_nod@KV?$allocator@K@std@@@2@PAU342@0ABK@Z 0043b7e0 f i Dlgcode.obj
 0001:0003a820       ?_Put@?$num_put@_WV?$ostreambuf_iterator@_WU?$char_traits@_W@std@@@std@@@std@@ABA?AV?$ostreambuf_iterator@_WU?$char_traits@_W@std@@@2@V32@PB_WI@Z 0043b820 f i Dlgcode.obj
 0001:0003a8a0       ?_Rep@?$num_put@_WV?$ostreambuf_iterator@_WU?$char_traits@_W@std@@@std@@@std@@ABA?AV?$ostreambuf_iterator@_WU?$char_traits@_W@std@@@2@V32@_WI@Z 0043b8a0 f i Dlgcode.obj
 0001:0003a910       ?_Buynode@?$_Tree@V?$_Tmap_traits@HUHostDevice@@U?$less@H@std@@V?$allocator@U?$pair@$$CBHUHostDevice@@@std@@@3@$0A@@std@@@std@@IAEPAU_Node@?$_Tree_nod@V?$_Tmap_traits@HUHostDevice@@U?$less@H@std@@V?$allocator@U?$pair@$$CBHUHostDevice@@@std@@@3@$0A@@std@@@2@XZ 0043b910 f i Dlgcode.obj
 0001:0003a950       ?_Putc@?$num_put@_WV?$ostreambuf_iterator@_WU?$char_traits@_W@std@@@std@@@std@@ABA?AV?$ostreambuf_iterator@_WU?$char_traits@_W@std@@@2@V32@PBDI@Z 0043b950 f i Dlgcode.obj
 0001:0003aa30       ?_Putgrouped@?$num_put@_WV?$ostreambuf_iterator@_WU?$char_traits@_W@std@@@std@@@std@@ABA?AV?$ostreambuf_iterator@_WU?$char_traits@_W@std@@@2@V32@PBDI_W@Z 0043ba30 f i Dlgcode.obj
 0001:0003aad0       ??0?$numpunct@_W@std@@QAE@ABV_Locinfo@1@I_N@Z 0043bad0 f i Dlgcode.obj
 0001:0003ab40       ?do_decimal_point@?$numpunct@_W@std@@MBE_WXZ 0043bb40 f i Dlgcode.obj
 0001:0003ab50       ?do_thousands_sep@?$numpunct@_W@std@@MBE_WXZ 0043bb50 f i Dlgcode.obj
 0001:0003ab60       ??_E?$numpunct@_W@std@@MAEPAXI@Z 0043bb60 f i Dlgcode.obj
 0001:0003ab60       ??_G?$numpunct@_W@std@@MAEPAXI@Z 0043bb60 f i Dlgcode.obj
 0001:0003abb0       ?_Tidy@?$list@KV?$allocator@K@std@@@std@@IAEXXZ 0043bbb0 f i Dlgcode.obj
 0001:0003ac00       ?falsename@?$numpunct@_W@std@@QBE?AV?$basic_string@_WU?$char_traits@_W@std@@V?$allocator@_W@2@@2@XZ 0043bc00 f i Dlgcode.obj
 0001:0003ac00       ?falsename@?$numpunct@D@std@@QBE?AV?$basic_string@DU?$char_traits@D@std@@V?$allocator@D@2@@2@XZ 0043bc00 f i Mount.obj
 0001:0003ac20       ?grouping@?$numpunct@D@std@@QBE?AV?$basic_string@DU?$char_traits@D@std@@V?$allocator@D@2@@2@XZ 0043bc20 f i Mount.obj
 0001:0003ac20       ?grouping@?$numpunct@_W@std@@QBE?AV?$basic_string@DU?$char_traits@D@std@@V?$allocator@D@2@@2@XZ 0043bc20 f i Dlgcode.obj
 0001:0003ac40       ??$?9DU?$char_traits@D@std@@V?$allocator@D@1@@std@@YA_NPBDABV?$basic_string@DU?$char_traits@D@std@@V?$allocator@D@2@@0@@Z 0043bc40 f i Dlgcode.obj
 0001:0003ac80       ??1SecurityTokenInfo@CipherShed@@QAE@XZ 0043bc80 f i Dlgcode.obj
 0001:0003acd0       ??1SecurityTokenKeyfilePath@CipherShed@@QAE@XZ 0043bcd0 f i Dlgcode.obj
 0001:0003acd0       ??1?$basic_string@_WU?$char_traits@_W@std@@V?$allocator@_W@2@@std@@QAE@XZ 0043bcd0 f i Favorites.obj
 0001:0003ad00       ??1NewSecurityTokenKeyfileDlgProcParams@@QAE@XZ 0043bd00 f i Dlgcode.obj
 0001:0003ad30       ??1?$vector@KV?$allocator@K@std@@@std@@QAE@XZ 0043bd30 f i SecurityToken.obj
 0001:0003ad30       ??1?$vector@EV?$allocator@E@std@@@std@@QAE@XZ 0043bd30 f i Dlgcode.obj
 0001:0003ad70       ??1?$pair@$$CBHUHostDevice@@@std@@QAE@XZ 0043bd70 f i Dlgcode.obj
 0001:0003ad80       ?lower_bound@?$_Tree@V?$_Tmap_traits@HUHostDevice@@U?$less@H@std@@V?$allocator@U?$pair@$$CBHUHostDevice@@@std@@@3@$0A@@std@@@std@@QAE?AViterator@12@ABH@Z 0043bd80 f i Dlgcode.obj
 0001:0003adc0       ??1SecurityTokenKeyfile@CipherShed@@QAE@XZ 0043bdc0 f i Dlgcode.obj
 0001:0003ae20       ?erase@?$list@KV?$allocator@K@std@@@std@@QAE?AV?$_Iterator@$00@12@V?$_Const_iterator@$00@12@@Z 0043be20 f i Dlgcode.obj
 0001:0003aea0       ??0?$list@KV?$allocator@K@std@@@std@@QAE@XZ 0043bea0 f i Dlgcode.obj
 0001:0003af10       ??1?$list@KV?$allocator@K@std@@@std@@QAE@XZ 0043bf10 f i Dlgcode.obj
 0001:0003af30       ?find@?$_Tree@V?$_Tmap_traits@HUHostDevice@@U?$less@H@std@@V?$allocator@U?$pair@$$CBHUHostDevice@@@std@@@3@$0A@@std@@@std@@QAE?AViterator@12@ABH@Z 0043bf30 f i Dlgcode.obj
 0001:0003afa0       ??0?$list@USecurityTokenInfo@CipherShed@@V?$allocator@USecurityTokenInfo@CipherShed@@@std@@@std@@QAE@XZ 0043bfa0 f i Dlgcode.obj
 0001:0003b010       ??0SecurityTokenInfo@CipherShed@@QAE@ABU01@@Z 0043c010 f i Dlgcode.obj
 0001:0003b0a0       ??$_Construct@USecurityTokenInfo@CipherShed@@U12@@std@@YAXPAUSecurityTokenInfo@CipherShed@@ABU12@@Z 0043c0a0 f i Dlgcode.obj
 0001:0003b100       ??1?$ContainerForward@V?$list@KV?$allocator@K@std@@@std@@@ForEach@CipherShed@@UAE@XZ 0043c100 f i Dlgcode.obj
 0001:0003b1d0       ??0?$_Tree@V?$_Tmap_traits@HUHostDevice@@U?$less@H@std@@V?$allocator@U?$pair@$$CBHUHostDevice@@@std@@@3@$0A@@std@@@std@@QAE@ABU?$less@H@1@ABV?$allocator@U?$pair@$$CBHUHostDevice@@@std@@@1@@Z 0043c1d0 f i Dlgcode.obj
 0001:0003b260       ?_Incsize@?$list@KV?$allocator@K@std@@@std@@IAEXI@Z 0043c260 f i Dlgcode.obj
 0001:0003b300       ?_Xlen@?$vector@KV?$allocator@K@std@@@std@@KAXXZ 0043c300 f i SecurityToken.obj
 0001:0003b300       ?_Xlen@?$vector@USecurityTokenKeyfile@CipherShed@@V?$allocator@USecurityTokenKeyfile@CipherShed@@@std@@@std@@KAXXZ 0043c300 f i Dlgcode.obj
 0001:0003b300       ?_Xlen@?$vector@UFavoriteVolume@CipherShed@@V?$allocator@UFavoriteVolume@CipherShed@@@std@@@std@@KAXXZ 0043c300 f i Favorites.obj
 0001:0003b300       ?_Xlen@?$vector@EV?$allocator@E@std@@@std@@KAXXZ 0043c300 f i Dlgcode.obj
 0001:0003b300       ?_Xlen@?$vector@UHostDevice@@V?$allocator@UHostDevice@@@std@@@std@@KAXXZ 0043c300 f i Mount.obj
 0001:0003b380       ?_Ufill@?$vector@EV?$allocator@E@std@@@std@@IAEPAEPAEIABE@Z 0043c380 f i Dlgcode.obj
 0001:0003b3b0       ?do_grouping@?$numpunct@D@std@@MBE?AV?$basic_string@DU?$char_traits@D@std@@V?$allocator@D@2@@2@XZ 0043c3b0 f i Mount.obj
 0001:0003b3b0       ?do_grouping@?$numpunct@_W@std@@MBE?AV?$basic_string@DU?$char_traits@D@std@@V?$allocator@D@2@@2@XZ 0043c3b0 f i Dlgcode.obj
 0001:0003b400       ?do_falsename@?$numpunct@_W@std@@MBE?AV?$basic_string@_WU?$char_traits@_W@std@@V?$allocator@_W@2@@2@XZ 0043c400 f i Dlgcode.obj
 0001:0003b450       ?do_truename@?$numpunct@_W@std@@MBE?AV?$basic_string@_WU?$char_traits@_W@std@@V?$allocator@_W@2@@2@XZ 0043c450 f i Dlgcode.obj
 0001:0003b4a0       ??$_Construct@USecurityTokenKeyfilePath@CipherShed@@U12@@std@@YAXPAUSecurityTokenKeyfilePath@CipherShed@@ABU12@@Z 0043c4a0 f i Dlgcode.obj
 0001:0003b510       ??0SecurityTokenKeyfile@CipherShed@@QAE@ABU01@@Z 0043c510 f i Dlgcode.obj
 0001:0003b5c0       ?_Getcat@?$num_put@_WV?$ostreambuf_iterator@_WU?$char_traits@_W@std@@@std@@@std@@SAIPAPBVfacet@locale@2@PBV42@@Z 0043c5c0 f i Dlgcode.obj
 0001:0003b6d0       ?_Getcat@?$numpunct@_W@std@@SAIPAPBVfacet@locale@2@PBV42@@Z 0043c6d0 f i Dlgcode.obj
 0001:0003b7e0       ?_Incsize@?$list@USecurityTokenInfo@CipherShed@@V?$allocator@USecurityTokenInfo@CipherShed@@@std@@@std@@IAEXI@Z 0043c7e0 f i Dlgcode.obj
 0001:0003b880       ?FitPathInGfxWidth@@YA?AV?$basic_string@DU?$char_traits@D@std@@V?$allocator@D@2@@std@@PAUHWND__@@PAUHFONT__@@JABV12@@Z 0043c880 f   Dlgcode.obj
 0001:0003b9d0       ?GetUserFriendlyVersionString@@YA?AV?$basic_string@DU?$char_traits@D@std@@V?$allocator@D@2@@std@@H@Z 0043c9d0 f   Dlgcode.obj
 0001:0003bad0       ?GetServiceConfigPath@@YA?AV?$basic_string@DU?$char_traits@D@std@@V?$allocator@D@2@@std@@PBD@Z 0043cad0 f   Dlgcode.obj
 0001:0003bc20       _IsPagingFileActive        0043cc20 f   Dlgcode.obj
 0001:0003bed0       _SecurityTokenPasswordDlgProc@16 0043ced0 f   Dlgcode.obj
 0001:0003c180       _InitSecurityTokenLibrary  0043d180 f   Dlgcode.obj
 0001:0003c310       _VolumePathExists          0043d310 f   Dlgcode.obj
 0001:0003c4b0       _LaunchWindowsIsoBurner    0043d4b0 f   Dlgcode.obj
 0001:0003c5c0       _IsApplicationInstalled    0043d5c0 f   Dlgcode.obj
 0001:0003c7f0       ?FindLatestFileOrDirectory@@YA?AV?$basic_string@DU?$char_traits@D@std@@V?$allocator@D@2@@std@@ABV12@PBD_N2@Z 0043d7f0 f   Dlgcode.obj
 0001:0003cb30       ?_Buy@?$vector@USecurityTokenKeyfile@CipherShed@@V?$allocator@USecurityTokenKeyfile@CipherShed@@@std@@@std@@IAE_NI@Z 0043db30 f i Dlgcode.obj
 0001:0003cb80       ?_Buy@?$vector@EV?$allocator@E@std@@@std@@IAE_NI@Z 0043db80 f i Dlgcode.obj
 0001:0003cbd0       ?erase@?$_Tree@V?$_Tmap_traits@HUHostDevice@@U?$less@H@std@@V?$allocator@U?$pair@$$CBHUHostDevice@@@std@@@3@$0A@@std@@@std@@QAE?AViterator@12@Vconst_iterator@12@@Z 0043dbd0 f i Dlgcode.obj
 0001:0003cf30       ??$use_facet@V?$num_put@_WV?$ostreambuf_iterator@_WU?$char_traits@_W@std@@@std@@@std@@@std@@YAABV?$num_put@_WV?$ostreambuf_iterator@_WU?$char_traits@_W@std@@@std@@@0@ABVlocale@0@@Z 0043df30 f i Dlgcode.obj
 0001:0003d080       ??$use_facet@V?$numpunct@_W@std@@@std@@YAABV?$numpunct@_W@0@ABVlocale@0@@Z 0043e080 f i Dlgcode.obj
 0001:0003d1d0       ??$_Construct@USecurityTokenKeyfile@CipherShed@@U12@@std@@YAXPAUSecurityTokenKeyfile@CipherShed@@ABU12@@Z 0043e1d0 f i Dlgcode.obj
 0001:0003d230       ??$_Destroy_range@V?$allocator@USecurityTokenKeyfile@CipherShed@@@std@@@std@@YAXPAUSecurityTokenKeyfile@CipherShed@@0AAV?$allocator@USecurityTokenKeyfile@CipherShed@@@0@U_Nonscalar_ptr_iterator_tag@0@@Z 0043e230 f i Dlgcode.obj
 0001:0003d2e0       ??$_Insert@V?$_Const_iterator@$00@?$list@KV?$allocator@K@std@@@std@@@?$list@KV?$allocator@K@std@@@std@@QAEXV?$_Const_iterator@$00@01@00Uforward_iterator_tag@1@@Z 0043e2e0 f i Dlgcode.obj
 0001:0003d440       ??4SecurityTokenKeyfile@CipherShed@@QAEAAU01@ABU01@@Z 0043e440 f i Dlgcode.obj
 0001:0003d4b0       ?erase@?$list@USecurityTokenInfo@CipherShed@@V?$allocator@USecurityTokenInfo@CipherShed@@@std@@@std@@QAE?AV?$_Iterator@$00@12@V?$_Const_iterator@$00@12@@Z 0043e4b0 f i Dlgcode.obj
 0001:0003d540       ?_Buynode@?$list@USecurityTokenInfo@CipherShed@@V?$allocator@USecurityTokenInfo@CipherShed@@@std@@@std@@IAEPAU_Node@?$_List_nod@USecurityTokenInfo@CipherShed@@V?$allocator@USecurityTokenInfo@CipherShed@@@std@@@2@PAU342@0ABUSecurityTokenInfo@CipherShed@@@Z 0043e540 f i Dlgcode.obj
 0001:0003d5e0       ?GetSysEncryptionPretestInfo2String@@YA?AV?$basic_string@_WU?$char_traits@_W@std@@V?$allocator@_W@2@@std@@XZ 0043e5e0 f   Dlgcode.obj
 0001:0003d760       ?GetRescueDiskHelpString@@YA?AV?$basic_string@_WU?$char_traits@_W@std@@V?$allocator@_W@2@@std@@XZ 0043e760 f   Dlgcode.obj
 0001:0003da60       ?GetDecoyOsInstructionsString@@YA?AV?$basic_string@_WU?$char_traits@_W@std@@V?$allocator@_W@2@@std@@XZ 0043ea60 f   Dlgcode.obj
 0001:0003e060       _TextInfoDialogBoxDlgProc@16 0043f060 f   Dlgcode.obj
 0001:0003e510       _MountVolume               0043f510 f   Dlgcode.obj
 0001:0003f0b0       ?push_back@?$list@KV?$allocator@K@std@@@std@@QAEXABK@Z 004400b0 f i Dlgcode.obj
 0001:0003f0f0       ??0?$vector@UHostDevice@@V?$allocator@UHostDevice@@@std@@@std@@QAE@XZ 004400f0 f i Mount.obj
 0001:0003f0f0       ??0?$vector@EV?$allocator@E@std@@@std@@QAE@XZ 004400f0 f i Dlgcode.obj
 0001:0003f0f0       ??0?$vector@UFavoriteVolume@CipherShed@@V?$allocator@UFavoriteVolume@CipherShed@@@std@@@std@@QAE@XZ 004400f0 f i Favorites.obj
 0001:0003f0f0       ??0?$vector@KV?$allocator@K@std@@@std@@QAE@XZ 004400f0 f i SecurityToken.obj
 0001:0003f0f0       ??0?$vector@USecurityTokenKeyfile@CipherShed@@V?$allocator@USecurityTokenKeyfile@CipherShed@@@std@@@std@@QAE@XZ 004400f0 f i Dlgcode.obj
 0001:0003f150       ?_Erase@?$_Tree@V?$_Tmap_traits@HUHostDevice@@U?$less@H@std@@V?$allocator@U?$pair@$$CBHUHostDevice@@@std@@@3@$0A@@std@@@std@@IAEXPAU_Node@?$_Tree_nod@V?$_Tmap_traits@HUHostDevice@@U?$less@H@std@@V?$allocator@U?$pair@$$CBHUHostDevice@@@std@@@3@$0A@@std@@@2@@Z 00440150 f i Dlgcode.obj
 0001:0003f1a0       ?_Construct_n@?$vector@EV?$allocator@E@std@@@std@@QAEXIABE@Z 004401a0 f i Dlgcode.obj
 0001:0003f200       ?do_put@?$num_put@_WV?$ostreambuf_iterator@_WU?$char_traits@_W@std@@@std@@@std@@MBE?AV?$ostreambuf_iterator@_WU?$char_traits@_W@std@@@2@V32@AAVios_base@2@_W_N@Z 00440200 f i Dlgcode.obj
 0001:0003f420       ?clear@?$list@USecurityTokenInfo@CipherShed@@V?$allocator@USecurityTokenInfo@CipherShed@@@std@@@std@@QAEXXZ 00440420 f i Dlgcode.obj
 0001:0003f4a0       ?_Buynode@?$list@USecurityTokenKeyfilePath@CipherShed@@V?$allocator@USecurityTokenKeyfilePath@CipherShed@@@std@@@std@@IAEPAU_Node@?$_List_nod@USecurityTokenKeyfilePath@CipherShed@@V?$allocator@USecurityTokenKeyfilePath@CipherShed@@@std@@@2@PAU342@0ABUSecurityTokenKeyfilePath@CipherShed@@@Z 004404a0 f i Dlgcode.obj
 0001:0003f540       ?_Fput@?$num_put@_WV?$ostreambuf_iterator@_WU?$char_traits@_W@std@@@std@@@std@@ABA?AV?$ostreambuf_iterator@_WU?$char_traits@_W@std@@@2@V32@AAVios_base@2@_WPBDIIII@Z 00440540 f i Dlgcode.obj
 0001:0003fc20       ?_Iput@?$num_put@_WV?$ostreambuf_iterator@_WU?$char_traits@_W@std@@@std@@@std@@ABA?AV?$ostreambuf_iterator@_WU?$char_traits@_W@std@@@2@V32@AAVios_base@2@_WPADI@Z 00440c20 f i Dlgcode.obj
 0001:0003ff10       ?erase@?$list@USecurityTokenKeyfile@CipherShed@@V?$allocator@USecurityTokenKeyfile@CipherShed@@@std@@@std@@QAE?AV?$_Iterator@$00@12@V?$_Const_iterator@$00@12@@Z 00440f10 f i Dlgcode.obj
 0001:0003ffa0       ??$_Copy_opt@PAUSecurityTokenKeyfile@CipherShed@@PAU12@Uforward_iterator_tag@std@@@std@@YAPAUSecurityTokenKeyfile@CipherShed@@PAU12@00Uforward_iterator_tag@0@U_Nonscalar_ptr_iterator_tag@0@U_Range_checked_iterator_tag@0@@Z 00440fa0 f i Dlgcode.obj
 0001:00040030       ??$_Uninit_copy@PBUSecurityTokenKeyfile@CipherShed@@PAU12@V?$allocator@USecurityTokenKeyfile@CipherShed@@@std@@@std@@YAPAUSecurityTokenKeyfile@CipherShed@@PBU12@0PAU12@AAV?$allocator@USecurityTokenKeyfile@CipherShed@@@0@U_Nonscalar_ptr_iterator_tag@0@U_Range_checked_iterator_tag@0@@Z 00441030 f i Dlgcode.obj
 0001:00040030       ??$_Uninit_copy@PAUSecurityTokenKeyfile@CipherShed@@PAU12@V?$allocator@USecurityTokenKeyfile@CipherShed@@@std@@@std@@YAPAUSecurityTokenKeyfile@CipherShed@@PAU12@00AAV?$allocator@USecurityTokenKeyfile@CipherShed@@@0@U_Nonscalar_ptr_iterator_tag@0@U_Range_checked_iterator_tag@0@@Z 00441030 f i Dlgcode.obj
 0001:000400d0       ??0HostDevice@@QAE@XZ      004410d0 f i Dlgcode.obj
 0001:00040170       _TextInfoDialogBox         00441170 f   Dlgcode.obj
 0001:000401a0       ??0?$vector@EV?$allocator@E@std@@@std@@QAE@I@Z 004411a0 f i Dlgcode.obj
 0001:00040210       ?_Tidy@?$list@USecurityTokenInfo@CipherShed@@V?$allocator@USecurityTokenInfo@CipherShed@@@std@@@std@@IAEXXZ 00441210 f i Dlgcode.obj
 0001:00040230       ?_Destroy@?$vector@USecurityTokenKeyfile@CipherShed@@V?$allocator@USecurityTokenKeyfile@CipherShed@@@std@@@std@@IAEXPAUSecurityTokenKeyfile@CipherShed@@0@Z 00441230 f i Dlgcode.obj
 0001:00040250       ?_Tidy@?$vector@USecurityTokenKeyfile@CipherShed@@V?$allocator@USecurityTokenKeyfile@CipherShed@@@std@@@std@@IAEXXZ 00441250 f i Dlgcode.obj
 0001:000402a0       ?do_put@?$num_put@_WV?$ostreambuf_iterator@_WU?$char_traits@_W@std@@@std@@@std@@MBE?AV?$ostreambuf_iterator@_WU?$char_traits@_W@std@@@2@V32@AAVios_base@2@_WJ@Z 004412a0 f i Dlgcode.obj
 0001:00040320       ?do_put@?$num_put@_WV?$ostreambuf_iterator@_WU?$char_traits@_W@std@@@std@@@std@@MBE?AV?$ostreambuf_iterator@_WU?$char_traits@_W@std@@@2@V32@AAVios_base@2@_WK@Z 00441320 f i Dlgcode.obj
 0001:000403a0       ?do_put@?$num_put@_WV?$ostreambuf_iterator@_WU?$char_traits@_W@std@@@std@@@std@@MBE?AV?$ostreambuf_iterator@_WU?$char_traits@_W@std@@@2@V32@AAVios_base@2@_W_J@Z 004413a0 f i Dlgcode.obj
 0001:00040430       ?do_put@?$num_put@_WV?$ostreambuf_iterator@_WU?$char_traits@_W@std@@@std@@@std@@MBE?AV?$ostreambuf_iterator@_WU?$char_traits@_W@std@@@2@V32@AAVios_base@2@_W_K@Z 00441430 f i Dlgcode.obj
 0001:000404c0       ?do_put@?$num_put@_WV?$ostreambuf_iterator@_WU?$char_traits@_W@std@@@std@@@std@@MBE?AV?$ostreambuf_iterator@_WU?$char_traits@_W@std@@@2@V32@AAVios_base@2@_WN@Z 004414c0 f i Dlgcode.obj
 0001:000406b0       ?do_put@?$num_put@_WV?$ostreambuf_iterator@_WU?$char_traits@_W@std@@@std@@@std@@MBE?AV?$ostreambuf_iterator@_WU?$char_traits@_W@std@@@2@V32@AAVios_base@2@_WO@Z 004416b0 f i Dlgcode.obj
 0001:00040890       ?do_put@?$num_put@_WV?$ostreambuf_iterator@_WU?$char_traits@_W@std@@@std@@@std@@MBE?AV?$ostreambuf_iterator@_WU?$char_traits@_W@std@@@2@V32@AAVios_base@2@_WPBX@Z 00441890 f i Dlgcode.obj
 0001:00040900       ?erase@?$_Tree@V?$_Tmap_traits@HUHostDevice@@U?$less@H@std@@V?$allocator@U?$pair@$$CBHUHostDevice@@@std@@@3@$0A@@std@@@std@@QAE?AViterator@12@Vconst_iterator@12@0@Z 00441900 f i Dlgcode.obj
 0001:000409e0       ?clear@?$list@USecurityTokenKeyfile@CipherShed@@V?$allocator@USecurityTokenKeyfile@CipherShed@@@std@@@std@@QAEXXZ 004419e0 f i Dlgcode.obj
 0001:00040ab0       ?_Buynode@?$list@USecurityTokenKeyfile@CipherShed@@V?$allocator@USecurityTokenKeyfile@CipherShed@@@std@@@std@@IAEPAU_Node@?$_List_nod@USecurityTokenKeyfile@CipherShed@@V?$allocator@USecurityTokenKeyfile@CipherShed@@@std@@@2@PAU342@0ABUSecurityTokenKeyfile@CipherShed@@@Z 00441ab0 f i Dlgcode.obj
 0001:00040b50       ??0?$list@KV?$allocator@K@std@@@std@@QAE@ABV01@@Z 00441b50 f i Dlgcode.obj
 0001:00040c00       ??$_Insert@V?$_Const_iterator@$00@?$list@USecurityTokenInfo@CipherShed@@V?$allocator@USecurityTokenInfo@CipherShed@@@std@@@std@@@?$list@USecurityTokenInfo@CipherShed@@V?$allocator@USecurityTokenInfo@CipherShed@@@std@@@std@@QAEXV?$_Const_iterator@$00@01@00Uforward_iterator_tag@1@@Z 00441c00 f i Dlgcode.obj
 0001:00040d60       ??1?$list@USecurityTokenInfo@CipherShed@@V?$allocator@USecurityTokenInfo@CipherShed@@@std@@@std@@QAE@XZ 00441d60 f i Dlgcode.obj
 0001:00040d90       ??1?$vector@USecurityTokenKeyfile@CipherShed@@V?$allocator@USecurityTokenKeyfile@CipherShed@@@std@@@std@@QAE@XZ 00441d90 f i Dlgcode.obj
 0001:00040de0       ?_Tidy@?$list@USecurityTokenKeyfile@CipherShed@@V?$allocator@USecurityTokenKeyfile@CipherShed@@@std@@@std@@IAEXXZ 00441de0 f i Dlgcode.obj
 0001:00040e00       ??$?6_WU?$char_traits@_W@std@@@std@@YAAAV?$basic_ostream@_WU?$char_traits@_W@std@@@0@AAV10@PB_W@Z 00441e00 f i Dlgcode.obj
 0001:00041020       ??$?6_WU?$char_traits@_W@std@@V?$allocator@_W@1@@std@@YAAAV?$basic_ostream@_WU?$char_traits@_W@std@@@0@AAV10@ABV?$basic_string@_WU?$char_traits@_W@std@@V?$allocator@_W@2@@0@@Z 00442020 f i Dlgcode.obj
 0001:000412b0       ??$unchecked_copy@PAUSecurityTokenKeyfile@CipherShed@@PAU12@@stdext@@YAPAUSecurityTokenKeyfile@CipherShed@@PAU12@00@Z 004422b0 f i Dlgcode.obj
 0001:00041300       ??0?$ContainerForward@V?$list@KV?$allocator@K@std@@@std@@@ForEach@CipherShed@@QAE@ABV?$list@KV?$allocator@K@std@@@std@@@Z 00442300 f i Dlgcode.obj
 0001:00041390       ??_G?$ContainerForward@V?$list@KV?$allocator@K@std@@@std@@@ForEach@CipherShed@@UAEPAXI@Z 00442390 f i Dlgcode.obj
 0001:00041390       ??_E?$ContainerForward@V?$list@KV?$allocator@K@std@@@std@@@ForEach@CipherShed@@UAEPAXI@Z 00442390 f i Dlgcode.obj
 0001:000413d0       ??$_Insert@V?$_Const_iterator@$00@?$list@USecurityTokenKeyfile@CipherShed@@V?$allocator@USecurityTokenKeyfile@CipherShed@@@std@@@std@@@?$list@USecurityTokenKeyfile@CipherShed@@V?$allocator@USecurityTokenKeyfile@CipherShed@@@std@@@std@@QAEXV?$_Const_iterator@$00@01@00Uforward_iterator_tag@1@@Z 004423d0 f i Dlgcode.obj
 0001:00041530       ??1?$ContainerForward@V?$list@USecurityTokenInfo@CipherShed@@V?$allocator@USecurityTokenInfo@CipherShed@@@std@@@std@@@ForEach@CipherShed@@UAE@XZ 00442530 f i Dlgcode.obj
 0001:00041570       ??1?$ContainerForward@V?$vector@USecurityTokenKeyfile@CipherShed@@V?$allocator@USecurityTokenKeyfile@CipherShed@@@std@@@std@@@ForEach@CipherShed@@UAE@XZ 00442570 f i Dlgcode.obj
 0001:00041590       ??6?$basic_ostream@DU?$char_traits@D@std@@@std@@QAEAAV01@_K@Z 00442590 f i Dlgcode.obj
 0001:000416e0       ??6?$basic_ostream@_WU?$char_traits@_W@std@@@std@@QAEAAV01@K@Z 004426e0 f i Dlgcode.obj
 0001:00041830       ??1?$_Tree@V?$_Tmap_traits@HUHostDevice@@U?$less@H@std@@V?$allocator@U?$pair@$$CBHUHostDevice@@@std@@@3@$0A@@std@@@std@@QAE@XZ 00442830 f i Dlgcode.obj
 0001:000418b0       ??1?$list@USecurityTokenKeyfile@CipherShed@@V?$allocator@USecurityTokenKeyfile@CipherShed@@@std@@@std@@QAE@XZ 004428b0 f i Dlgcode.obj
 0001:000418e0       ?erase@?$vector@USecurityTokenKeyfile@CipherShed@@V?$allocator@USecurityTokenKeyfile@CipherShed@@@std@@@std@@QAE?AV?$_Vector_iterator@USecurityTokenKeyfile@CipherShed@@V?$allocator@USecurityTokenKeyfile@CipherShed@@@std@@@2@V?$_Vector_const_iterator@USecurityTokenKeyfile@CipherShed@@V?$allocator@USecurityTokenKeyfile@CipherShed@@@std@@@2@0@Z 004428e0 f i Dlgcode.obj
 0001:00041970       ??$GetContainerForward@V?$list@KV?$allocator@K@std@@@std@@@ForEach@CipherShed@@SA?AU?$ContainerForward@V?$list@KV?$allocator@K@std@@@std@@@01@ABV?$list@KV?$allocator@K@std@@@std@@@Z 00442970 f i Dlgcode.obj
 0001:00041990       ??0?$list@USecurityTokenInfo@CipherShed@@V?$allocator@USecurityTokenInfo@CipherShed@@@std@@@std@@QAE@ABV01@@Z 00442990 f i Dlgcode.obj
 0001:00041a40       ??0?$vector@USecurityTokenKeyfile@CipherShed@@V?$allocator@USecurityTokenKeyfile@CipherShed@@@std@@@std@@QAE@ABV01@@Z 00442a40 f i Dlgcode.obj
 0001:00041b40       ?GetWindowsEdition@@YA?AV?$basic_string@DU?$char_traits@D@std@@V?$allocator@D@2@@std@@XZ 00442b40 f   Dlgcode.obj
 0001:00042030       _Applink                   00443030 f   Dlgcode.obj
 0001:00042150       ??1?$ContainerForward@V?$list@USecurityTokenKeyfile@CipherShed@@V?$allocator@USecurityTokenKeyfile@CipherShed@@@std@@@std@@@ForEach@CipherShed@@UAE@XZ 00443150 f i Dlgcode.obj
 0001:00042190       ?clear@?$vector@USecurityTokenKeyfile@CipherShed@@V?$allocator@USecurityTokenKeyfile@CipherShed@@@std@@@std@@QAEXXZ 00443190 f i Dlgcode.obj
 0001:000421d0       ??0?$list@USecurityTokenKeyfile@CipherShed@@V?$allocator@USecurityTokenKeyfile@CipherShed@@@std@@@std@@QAE@ABV01@@Z 004431d0 f i Dlgcode.obj
 0001:00042280       ?_Buynode@?$_Tree@V?$_Tmap_traits@HUHostDevice@@U?$less@H@std@@V?$allocator@U?$pair@$$CBHUHostDevice@@@std@@@3@$0A@@std@@@std@@IAEPAU_Node@?$_Tree_nod@V?$_Tmap_traits@HUHostDevice@@U?$less@H@std@@V?$allocator@U?$pair@$$CBHUHostDevice@@@std@@@3@$0A@@std@@@2@PAU342@00ABU?$pair@$$CBHUHostDevice@@@2@D@Z 00443280 f i Dlgcode.obj
 0001:00042330       ??0?$ContainerForward@V?$list@USecurityTokenInfo@CipherShed@@V?$allocator@USecurityTokenInfo@CipherShed@@@std@@@std@@@ForEach@CipherShed@@QAE@ABV?$list@USecurityTokenInfo@CipherShed@@V?$allocator@USecurityTokenInfo@CipherShed@@@std@@@std@@@Z 00443330 f i Dlgcode.obj
 0001:000423c0       ??_E?$ContainerForward@V?$list@USecurityTokenInfo@CipherShed@@V?$allocator@USecurityTokenInfo@CipherShed@@@std@@@std@@@ForEach@CipherShed@@UAEPAXI@Z 004433c0 f i Dlgcode.obj
 0001:000423c0       ??_G?$ContainerForward@V?$list@USecurityTokenInfo@CipherShed@@V?$allocator@USecurityTokenInfo@CipherShed@@@std@@@std@@@ForEach@CipherShed@@UAEPAXI@Z 004433c0 f i Dlgcode.obj
 0001:00042410       ??0?$ContainerForward@V?$vector@USecurityTokenKeyfile@CipherShed@@V?$allocator@USecurityTokenKeyfile@CipherShed@@@std@@@std@@@ForEach@CipherShed@@QAE@ABV?$vector@USecurityTokenKeyfile@CipherShed@@V?$allocator@USecurityTokenKeyfile@CipherShed@@@std@@@std@@@Z 00443410 f i Dlgcode.obj
 0001:000424b0       ?Next@?$ContainerForward@V?$vector@USecurityTokenKeyfile@CipherShed@@V?$allocator@USecurityTokenKeyfile@CipherShed@@@std@@@std@@@ForEach@CipherShed@@UBEXXZ 004434b0 f i Dlgcode.obj
 0001:000424e0       ?IsNotEnd@?$ContainerForward@V?$vector@UHostDevice@@V?$allocator@UHostDevice@@@std@@@std@@@ForEach@CipherShed@@UBE_NXZ 004434e0 f i Mount.obj
 0001:000424e0       ?IsNotEnd@?$ContainerForward@V?$vector@USecurityTokenKeyfile@CipherShed@@V?$allocator@USecurityTokenKeyfile@CipherShed@@@std@@@std@@@ForEach@CipherShed@@UBE_NXZ 004434e0 f i Dlgcode.obj
 0001:000424e0       ?IsNotEnd@?$ContainerForward@V?$vector@UFavoriteVolume@CipherShed@@V?$allocator@UFavoriteVolume@CipherShed@@@std@@@std@@@ForEach@CipherShed@@UBE_NXZ 004434e0 f i Favorites.obj
 0001:000424e0       ?IsNotEnd@?$ContainerForward@V?$vector@KV?$allocator@K@std@@@std@@@ForEach@CipherShed@@UBE_NXZ 004434e0 f i SecurityToken.obj
 0001:00042520       ??_E?$ContainerForward@V?$vector@USecurityTokenKeyfile@CipherShed@@V?$allocator@USecurityTokenKeyfile@CipherShed@@@std@@@std@@@ForEach@CipherShed@@UAEPAXI@Z 00443520 f i Dlgcode.obj
 0001:00042520       ??_G?$ContainerForward@V?$vector@USecurityTokenKeyfile@CipherShed@@V?$allocator@USecurityTokenKeyfile@CipherShed@@@std@@@std@@@ForEach@CipherShed@@UAEPAXI@Z 00443520 f i Dlgcode.obj
 0001:00042550       ??0?$ContainerForward@V?$list@USecurityTokenKeyfile@CipherShed@@V?$allocator@USecurityTokenKeyfile@CipherShed@@@std@@@std@@@ForEach@CipherShed@@QAE@ABV?$list@USecurityTokenKeyfile@CipherShed@@V?$allocator@USecurityTokenKeyfile@CipherShed@@@std@@@std@@@Z 00443550 f i Dlgcode.obj
 0001:000425e0       ??_E?$ContainerForward@V?$list@USecurityTokenKeyfile@CipherShed@@V?$allocator@USecurityTokenKeyfile@CipherShed@@@std@@@std@@@ForEach@CipherShed@@UAEPAXI@Z 004435e0 f i Dlgcode.obj
 0001:000425e0       ??_G?$ContainerForward@V?$list@USecurityTokenKeyfile@CipherShed@@V?$allocator@USecurityTokenKeyfile@CipherShed@@@std@@@std@@@ForEach@CipherShed@@UAEPAXI@Z 004435e0 f i Dlgcode.obj
 0001:00042630       _AboutDlgProc@16           00443630 f   Dlgcode.obj
 0001:00042880       ?ExceptionHandlerThread@@YAXPAX@Z 00443880 f   Dlgcode.obj
 0001:00043420       ?ExceptionHandler@@YGJPAU_EXCEPTION_POINTERS@@@Z 00444420 f   Dlgcode.obj
 0001:000434c0       _DoPostInstallTasks        004444c0 f   Dlgcode.obj
 0001:00043580       _InitApp                   00444580 f   Dlgcode.obj
 0001:00043b30       _BenchmarkDlgProc@16       00444b30 f   Dlgcode.obj
 0001:00044370       _OpenOnlineHelp            00445370 f   Dlgcode.obj
 0001:00044480       ??4?$vector@USecurityTokenKeyfile@CipherShed@@V?$allocator@USecurityTokenKeyfile@CipherShed@@@std@@@std@@QAEAAV01@ABV01@@Z 00445480 f i Dlgcode.obj
 0001:00044590       ?_Insert@?$_Tree@V?$_Tmap_traits@HUHostDevice@@U?$less@H@std@@V?$allocator@U?$pair@$$CBHUHostDevice@@@std@@@3@$0A@@std@@@std@@IAE?AViterator@12@_NPAU_Node@?$_Tree_nod@V?$_Tmap_traits@HUHostDevice@@U?$less@H@std@@V?$allocator@U?$pair@$$CBHUHostDevice@@@std@@@3@$0A@@std@@@2@ABU?$pair@$$CBHUHostDevice@@@2@@Z 00445590 f i Dlgcode.obj
 0001:000447a0       ??$GetContainerForward@V?$list@USecurityTokenInfo@CipherShed@@V?$allocator@USecurityTokenInfo@CipherShed@@@std@@@std@@@ForEach@CipherShed@@SA?AU?$ContainerForward@V?$list@USecurityTokenInfo@CipherShed@@V?$allocator@USecurityTokenInfo@CipherShed@@@std@@@std@@@01@ABV?$list@USecurityTokenInfo@CipherShed@@V?$allocator@USecurityTokenInfo@CipherShed@@@std@@@std@@@Z 004457a0 f i Dlgcode.obj
 0001:000447c0       ??$GetContainerForward@V?$vector@USecurityTokenKeyfile@CipherShed@@V?$allocator@USecurityTokenKeyfile@CipherShed@@@std@@@std@@@ForEach@CipherShed@@SA?AU?$ContainerForward@V?$vector@USecurityTokenKeyfile@CipherShed@@V?$allocator@USecurityTokenKeyfile@CipherShed@@@std@@@std@@@01@ABV?$vector@USecurityTokenKeyfile@CipherShed@@V?$allocator@USecurityTokenKeyfile@CipherShed@@@std@@@std@@@Z 004457c0 f i Dlgcode.obj
 0001:000447e0       ??$GetContainerForward@V?$list@USecurityTokenKeyfile@CipherShed@@V?$allocator@USecurityTokenKeyfile@CipherShed@@@std@@@std@@@ForEach@CipherShed@@SA?AU?$ContainerForward@V?$list@USecurityTokenKeyfile@CipherShed@@V?$allocator@USecurityTokenKeyfile@CipherShed@@@std@@@std@@@01@ABV?$list@USecurityTokenKeyfile@CipherShed@@V?$allocator@USecurityTokenKeyfile@CipherShed@@@std@@@std@@@Z 004457e0 f i Dlgcode.obj
 0001:00044800       _OpenPageHelp              00445800 f   Dlgcode.obj
 0001:00045200       _SecurityTokenKeyfileDlgProc@16 00446200 f   Dlgcode.obj
 0001:00045dc0       ?insert@?$_Tree@V?$_Tmap_traits@HUHostDevice@@U?$less@H@std@@V?$allocator@U?$pair@$$CBHUHostDevice@@@std@@@3@$0A@@std@@@std@@QAE?AU?$pair@Viterator@?$_Tree@V?$_Tmap_traits@HUHostDevice@@U?$less@H@std@@V?$allocator@U?$pair@$$CBHUHostDevice@@@std@@@3@$0A@@std@@@std@@_N@2@ABU?$pair@$$CBHUHostDevice@@@2@@Z 00446dc0 f i Dlgcode.obj
 0001:00045ec0       ?insert@?$_Tree@V?$_Tmap_traits@HUHostDevice@@U?$less@H@std@@V?$allocator@U?$pair@$$CBHUHostDevice@@@std@@@3@$0A@@std@@@std@@QAE?AViterator@12@Vconst_iterator@12@ABU?$pair@$$CBHUHostDevice@@@2@@Z 00446ec0 f i Dlgcode.obj
 0001:000460a0       ??A?$map@HUHostDevice@@U?$less@H@std@@V?$allocator@U?$pair@$$CBHUHostDevice@@@std@@@3@@std@@QAEAAUHostDevice@@ABH@Z 004470a0 f i Dlgcode.obj
 0001:000461c0       ?push_back@?$vector@UHostDevice@@V?$allocator@UHostDevice@@@std@@@std@@QAEXABUHostDevice@@@Z 004471c0 f i Dlgcode.obj
 0001:00046270       ?GetAvailableHostDevices@@YA?AV?$vector@UHostDevice@@V?$allocator@UHostDevice@@@std@@@std@@_N000@Z 00447270 f   Dlgcode.obj
 0001:00046ef0       ?GetSysDevicePaths@@YAHPAUHWND__@@@Z 00447ef0 f   Dlgcode.obj
 0001:00047540       _IsSystemDevicePath        00448540 f   Dlgcode.obj
 0001:00047680       _RawDevicesDlgProc@16      00448680 f   Dlgcode.obj
 0001:00048320       _EncryptionThreadPoolStop  00449320 f   EncryptionThreadPool.obj
 0001:000483d0       _EncryptionThreadPoolBeginKeyDerivation 004493d0 f   EncryptionThreadPool.obj
 0001:000484d0       _EncryptionThreadPoolDoWork 004494d0 f   EncryptionThreadPool.obj
 0001:00048700       _GetEncryptionThreadCount  00449700 f   EncryptionThreadPool.obj
 0001:00048710       _GetMaxEncryptionThreadCount 00449710 f   EncryptionThreadPool.obj
 0001:00048720       _EncryptionThreadPoolStart 00449720 f   EncryptionThreadPool.obj
 0001:00048880       _MirrorBytes16             00449880 f   Endian.obj
 0001:00048890       _MirrorBytes32             00449890 f   Endian.obj
 0001:000488c0       _MirrorBytes64             004498c0 f   Endian.obj
 0001:00048970       _mul_x                     00449970 f i GfMul.obj
 0001:00048a20       _mul_x64                   00449a20 f i GfMul.obj
 0001:00048ab0       _compile_8k_table          00449ab0 f   GfMul.obj
 0001:00048ce0       _compile_4k_table64        00449ce0 f   GfMul.obj
 0001:00048ea0       _MirrorBits128             00449ea0 f   GfMul.obj
 0001:00049040       _MirrorBits64              0044a040 f   GfMul.obj
 0001:000491d0       _Gf128Tab64Init            0044a1d0 f   GfMul.obj
 0001:00049330       _Gf64TabInit               0044a330 f   GfMul.obj
 0001:00049480       _Gf128MulBy64Tab           0044a480 f   GfMul.obj
 0001:000496b0       _Gf64MulTab                0044a6b0 f   GfMul.obj
 0001:00049880       _KeyFileAdd                0044a880 f   Keyfiles.obj
 0001:00049950       _KeyFileRemoveAll          0044a950 f   Keyfiles.obj
 0001:000499b0       _KeyFileClone              0044a9b0 f   Keyfiles.obj
 0001:000499f0       _KeyFileCloneAll           0044a9f0 f   Keyfiles.obj
 0001:00049d60       ??E?$_Const_iterator@$00@?$list@KV?$allocator@K@std@@@std@@QAEAAV012@XZ 0044ad60 f i Dlgcode.obj
 0001:00049d60       ??E?$_Const_iterator@$00@?$list@V?$basic_string@DU?$char_traits@D@std@@V?$allocator@D@2@@std@@V?$allocator@V?$basic_string@DU?$char_traits@D@std@@V?$allocator@D@2@@std@@@2@@std@@QAEAAV012@XZ 0044ad60 f i Mount.obj
 0001:00049d60       ??E?$_Const_iterator@$00@?$list@UPartition@CipherShed@@V?$allocator@UPartition@CipherShed@@@std@@@std@@QAEAAV012@XZ 0044ad60 f i BootEncryption.obj
 0001:00049d60       ??E?$_Const_iterator@$00@?$list@USecurityTokenInfo@CipherShed@@V?$allocator@USecurityTokenInfo@CipherShed@@@std@@@std@@QAEAAV012@XZ 0044ad60 f i Dlgcode.obj
 0001:00049d60       ??E?$_Const_iterator@$00@?$list@USecurityTokenKeyfile@CipherShed@@V?$allocator@USecurityTokenKeyfile@CipherShed@@@std@@@std@@QAEAAV012@XZ 0044ad60 f i Dlgcode.obj
 0001:00049d60       ??E?$_Const_iterator@$00@?$list@USecurityTokenKeyfilePath@CipherShed@@V?$allocator@USecurityTokenKeyfilePath@CipherShed@@@std@@@std@@QAEAAV012@XZ 0044ad60 f i Keyfiles.obj
 0001:00049d60       ??E?$_Iterator@$00@?$list@UFavoriteVolume@CipherShed@@V?$allocator@UFavoriteVolume@CipherShed@@@std@@@std@@QAEAAV012@XZ 0044ad60 f i Mount.obj
 0001:00049d60       ??E?$_Const_iterator@$00@?$list@UFavoriteVolume@CipherShed@@V?$allocator@UFavoriteVolume@CipherShed@@@std@@@std@@QAEAAV012@XZ 0044ad60 f i Favorites.obj
 0001:00049da0       ?_Buynode@?$list@V?$basic_string@DU?$char_traits@D@std@@V?$allocator@D@2@@std@@V?$allocator@V?$basic_string@DU?$char_traits@D@std@@V?$allocator@D@2@@std@@@2@@std@@IAEPAU_Node@?$_List_nod@V?$basic_string@DU?$char_traits@D@std@@V?$allocator@D@2@@std@@V?$allocator@V?$basic_string@DU?$char_traits@D@std@@V?$allocator@D@2@@std@@@2@@2@XZ 0044ada0 f i Mount.obj
 0001:00049da0       ?_Buynode@?$list@USecurityTokenKeyfilePath@CipherShed@@V?$allocator@USecurityTokenKeyfilePath@CipherShed@@@std@@@std@@IAEPAU_Node@?$_List_nod@USecurityTokenKeyfilePath@CipherShed@@V?$allocator@USecurityTokenKeyfilePath@CipherShed@@@std@@@2@XZ 0044ada0 f i Keyfiles.obj
 0001:00049dc0       ??0?$list@V?$basic_string@DU?$char_traits@D@std@@V?$allocator@D@2@@std@@V?$allocator@V?$basic_string@DU?$char_traits@D@std@@V?$allocator@D@2@@std@@@2@@std@@QAE@XZ 0044adc0 f i Mount.obj
 0001:00049dc0       ??0?$list@USecurityTokenKeyfilePath@CipherShed@@V?$allocator@USecurityTokenKeyfilePath@CipherShed@@@std@@@std@@QAE@XZ 0044adc0 f i Keyfiles.obj
 0001:00049e30       ??BSecurityTokenKeyfilePath@CipherShed@@QBE?AV?$basic_string@_WU?$char_traits@_W@std@@V?$allocator@_W@2@@std@@XZ 0044ae30 f i Keyfiles.obj
 0001:00049e60       ?erase@?$list@USecurityTokenKeyfilePath@CipherShed@@V?$allocator@USecurityTokenKeyfilePath@CipherShed@@@std@@@std@@QAE?AV?$_Iterator@$00@12@V?$_Const_iterator@$00@12@@Z 0044ae60 f i Keyfiles.obj
 0001:00049f00       ?clear@?$list@USecurityTokenKeyfilePath@CipherShed@@V?$allocator@USecurityTokenKeyfilePath@CipherShed@@@std@@@std@@QAEXXZ 0044af00 f i Keyfiles.obj
 0001:00049f60       _KeyFilesApply             0044af60 f   Keyfiles.obj
 0001:0004a6c0       ?_Tidy@?$list@USecurityTokenKeyfilePath@CipherShed@@V?$allocator@USecurityTokenKeyfilePath@CipherShed@@@std@@@std@@IAEXXZ 0044b6c0 f i Keyfiles.obj
 0001:0004a6e0       ??$_Insert@V?$_Const_iterator@$00@?$list@USecurityTokenKeyfilePath@CipherShed@@V?$allocator@USecurityTokenKeyfilePath@CipherShed@@@std@@@std@@@?$list@USecurityTokenKeyfilePath@CipherShed@@V?$allocator@USecurityTokenKeyfilePath@CipherShed@@@std@@@std@@QAEXV?$_Const_iterator@$00@01@00Uforward_iterator_tag@1@@Z 0044b6e0 f i Keyfiles.obj
 0001:0004a840       ??1?$ContainerForward@V?$list@USecurityTokenKeyfilePath@CipherShed@@V?$allocator@USecurityTokenKeyfilePath@CipherShed@@@std@@@std@@@ForEach@CipherShed@@UAE@XZ 0044b840 f i Keyfiles.obj
 0001:0004a880       ??0?$list@USecurityTokenKeyfilePath@CipherShed@@V?$allocator@USecurityTokenKeyfilePath@CipherShed@@@std@@@std@@QAE@ABV01@@Z 0044b880 f i Keyfiles.obj
 0001:0004a930       ??0?$ContainerForward@V?$list@USecurityTokenKeyfilePath@CipherShed@@V?$allocator@USecurityTokenKeyfilePath@CipherShed@@@std@@@std@@@ForEach@CipherShed@@QAE@ABV?$list@USecurityTokenKeyfilePath@CipherShed@@V?$allocator@USecurityTokenKeyfilePath@CipherShed@@@std@@@std@@@Z 0044b930 f i Keyfiles.obj
 0001:0004a9c0       ??_E?$ContainerForward@V?$list@USecurityTokenKeyfilePath@CipherShed@@V?$allocator@USecurityTokenKeyfilePath@CipherShed@@@std@@@std@@@ForEach@CipherShed@@UAEPAXI@Z 0044b9c0 f i Keyfiles.obj
 0001:0004a9c0       ??_G?$ContainerForward@V?$list@USecurityTokenKeyfilePath@CipherShed@@V?$allocator@USecurityTokenKeyfilePath@CipherShed@@@std@@@std@@@ForEach@CipherShed@@UAEPAXI@Z 0044b9c0 f i Keyfiles.obj
 0001:0004aa10       ??$GetContainerForward@V?$list@USecurityTokenKeyfilePath@CipherShed@@V?$allocator@USecurityTokenKeyfilePath@CipherShed@@@std@@@std@@@ForEach@CipherShed@@SA?AU?$ContainerForward@V?$list@USecurityTokenKeyfilePath@CipherShed@@V?$allocator@USecurityTokenKeyfilePath@CipherShed@@@std@@@std@@@01@ABV?$list@USecurityTokenKeyfilePath@CipherShed@@V?$allocator@USecurityTokenKeyfilePath@CipherShed@@@std@@@std@@@Z 0044ba10 f i Keyfiles.obj
 0001:0004aa30       _KeyFilesDlgProc@16        0044ba30 f   Keyfiles.obj
 0001:0004b150       _KeyfilesPopupMenu         0044c150 f   Keyfiles.obj
 0001:0004b6e0       _GetPreferredLangId        0044c6e0 f   Language.obj
 0001:0004b6f0       _SetPreferredLangId        0044c6f0 f   Language.obj
 0001:0004b710       _GetActiveLangPackVersion  0044c710 f   Language.obj
 0001:0004b720       _GetString                 0044c720 f   Language.obj
 0001:0004b760       _GetFont                   0044c760 f   Language.obj
 0001:0004b770       _LoadLanguageFile          0044c770 f   Language.obj
 0001:0004bff0       _LanguageDlgProc@16        0044cff0 f   Language.obj
 0001:0004c530       _CheckPasswordCharEncoding 0044d530 f   Password.obj
 0001:0004c630       _VerifyPasswordAndUpdate2  0044d630 f   Password.obj
 0001:0004c800       _ChangePwd                 0044d800 f   Password.obj
 0001:0004ce30       _CheckPasswordLength       0044de30 f   Password.obj
 0001:0004ce90       _hmac_sha512               0044de90 f   Pkcs5.obj
 0001:0004d1c0       _derive_u_sha512           0044e1c0 f   Pkcs5.obj
 0001:0004d310       _derive_key_sha512         0044e310 f   Pkcs5.obj
 0001:0004d440       _hmac_sha1                 0044e440 f   Pkcs5.obj
 0001:0004d760       _derive_u_sha1             0044e760 f   Pkcs5.obj
 0001:0004d8b0       _derive_key_sha1           0044e8b0 f   Pkcs5.obj
 0001:0004d9d0       _hmac_ripemd160            0044e9d0 f   Pkcs5.obj
 0001:0004dc00       _derive_u_ripemd160        0044ec00 f   Pkcs5.obj
 0001:0004dd50       _derive_key_ripemd160      0044ed50 f   Pkcs5.obj
 0001:0004de70       _hmac_whirlpool            0044ee70 f   Pkcs5.obj
 0001:0004e1a0       _derive_u_whirlpool        0044f1a0 f   Pkcs5.obj
 0001:0004e2f0       _derive_key_whirlpool      0044f2f0 f   Pkcs5.obj
 0001:0004e420       _get_pkcs5_prf_name        0044f420 f   Pkcs5.obj
 0001:0004e460       _get_pkcs5_iteration_count 0044f460 f   Pkcs5.obj
 0001:0004e4b0       _RandStop                  0044f4b0 f   Random.obj
 0001:0004e5d0       _RandSetHashFunction       0044f5d0 f   Random.obj
 0001:0004e600       _RandGetHashFunction       0044f600 f   Random.obj
 0001:0004e610       _SetRandomPoolEnrichedByUserStatus 0044f610 f   Random.obj
 0001:0004e620       _IsRandomPoolEnrichedByUser 0044f620 f   Random.obj
 0001:0004e630       _Randmix                   0044f630 f   Random.obj
 0001:0004e890       _RandaddBuf                0044f890 f   Random.obj
 0001:0004e900       _RandpeekBytes             0044f900 f   Random.obj
 0001:0004e960       _SlowPoll                  0044f960 f   Random.obj
 0001:0004ec10       _RandAddInt                0044fc10 f   Random.obj
 0001:0004ed10       _MouseProc@12              0044fd10 f   Random.obj
 0001:0004eee0       _KeyboardProc@12           0044fee0 f   Random.obj
 0001:0004f070       _FastPoll                  00450070 f   Random.obj
 0001:0004f370       _RandgetBytes              00450370 f   Random.obj
 0001:0004f500       _Randinit                  00450500 f   Random.obj
 0001:0004f660       _ReadLocalMachineRegistryDword 00450660 f   Registry.obj
 0001:0004f6e0       _ReadLocalMachineRegistryMultiString 004506e0 f   Registry.obj
 0001:0004f760       _ReadLocalMachineRegistryString 00450760 f   Registry.obj
 0001:0004f7e0       _ReadLocalMachineRegistryStringNonReflected 004507e0 f   Registry.obj
 0001:0004f860       _ReadRegistryString        00450860 f   Registry.obj
 0001:0004f940       _ReadRegistryBytes         00450940 f   Registry.obj
 0001:0004f9c0       _WriteLocalMachineRegistryDword 004509c0 f   Registry.obj
 0001:0004fa60       _WriteLocalMachineRegistryString 00450a60 f   Registry.obj
 0001:0004fb10       _WriteRegistryString       00450b10 f   Registry.obj
 0001:0004fb80       _WriteRegistryBytes        00450b80 f   Registry.obj
 0001:0004fc00       _DeleteLocalMachineRegistryKey 00450c00 f   Registry.obj
 0001:0004fc80       _DeleteRegistryValue       00450c80 f   Registry.obj
 0001:0004fcd0       _GetStartupRegKeyName      00450cd0 f   Registry.obj
 0001:0004fcf0       ?Show@InvalidSecurityTokenKeyfilePath@CipherShed@@UBEXPAUHWND__@@@Z 00450cf0 f i SecurityToken.obj
 0001:0004fd00       ?Show@SecurityTokenKeyfileNotFound@CipherShed@@UBEXPAUHWND__@@@Z 00450d00 f i SecurityToken.obj
 0001:0004fd10       ?Show@SecurityTokenLibraryNotInitialized@CipherShed@@UBEXPAUHWND__@@@Z 00450d10 f i SecurityToken.obj
 0001:0004fd30       ?Show@SecurityTokenKeyfileAlreadyExists@CipherShed@@UBEXPAUHWND__@@@Z 00450d30 f i SecurityToken.obj
 0001:0004fd40       ?_Max@?$_Tree@V?$_Tmap_traits@KUPkcs11Session@CipherShed@@U?$less@K@std@@V?$allocator@U?$pair@$$CBKUPkcs11Session@CipherShed@@@std@@@4@$0A@@std@@@std@@KAPAU_Node@?$_Tree_nod@V?$_Tmap_traits@KUPkcs11Session@CipherShed@@U?$less@K@std@@V?$allocator@U?$pair@$$CBKUPkcs11Session@CipherShed@@@std@@@4@$0A@@std@@@2@PAU342@@Z 00450d40 f i SecurityToken.obj
 0001:0004fd60       ?_Min@?$_Tree@V?$_Tmap_traits@KUPkcs11Session@CipherShed@@U?$less@K@std@@V?$allocator@U?$pair@$$CBKUPkcs11Session@CipherShed@@@std@@@4@$0A@@std@@@std@@KAPAU_Node@?$_Tree_nod@V?$_Tmap_traits@KUPkcs11Session@CipherShed@@U?$less@K@std@@V?$allocator@U?$pair@$$CBKUPkcs11Session@CipherShed@@@std@@@4@$0A@@std@@@2@PAU342@@Z 00450d60 f i SecurityToken.obj
 0001:0004fd80       ?_Rrotate@?$_Tree@V?$_Tmap_traits@KUPkcs11Session@CipherShed@@U?$less@K@std@@V?$allocator@U?$pair@$$CBKUPkcs11Session@CipherShed@@@std@@@4@$0A@@std@@@std@@IAEXPAU_Node@?$_Tree_nod@V?$_Tmap_traits@KUPkcs11Session@CipherShed@@U?$less@K@std@@V?$allocator@U?$pair@$$CBKUPkcs11Session@CipherShed@@@std@@@4@$0A@@std@@@2@@Z 00450d80 f i SecurityToken.obj
 0001:0004fde0       ?_Inc@const_iterator@?$_Tree@V?$_Tmap_traits@KUPkcs11Session@CipherShed@@U?$less@K@std@@V?$allocator@U?$pair@$$CBKUPkcs11Session@CipherShed@@@std@@@4@$0A@@std@@@std@@QAEXXZ 00450de0 f i SecurityToken.obj
 0001:0004fe50       ?_Dec@const_iterator@?$_Tree@V?$_Tmap_traits@KUPkcs11Session@CipherShed@@U?$less@K@std@@V?$allocator@U?$pair@$$CBKUPkcs11Session@CipherShed@@@std@@@4@$0A@@std@@@std@@QAEXXZ 00450e50 f i SecurityToken.obj
 0001:0004fee0       ??$_Allocate@K@std@@YAPAKIPAK@Z 00450ee0 f i SecurityToken.obj
 0001:0004ff40       ??0SecurityTokenLibraryNotInitialized@CipherShed@@QAE@ABU01@@Z 00450f40 f i SecurityToken.obj
 0001:0004ff50       ??4?$auto_ptr@USendExceptionFunctor@CipherShed@@@std@@QAEAAV01@AAV01@@Z 00450f50 f i SecurityToken.obj
 0001:0004ff50       ??4?$auto_ptr@UGetPinFunctor@CipherShed@@@std@@QAEAAV01@AAV01@@Z 00450f50 f i SecurityToken.obj
 0001:0004ff80       ?find_last_not_of@?$basic_string@DU?$char_traits@D@std@@V?$allocator@D@2@@std@@QBEIPBDII@Z 00450f80 f i SecurityToken.obj
 0001:00050020       ?find@?$basic_string@_WU?$char_traits@_W@std@@V?$allocator@_W@2@@std@@QBEIPB_WII@Z 00451020 f i SecurityToken.obj
 0001:000500f0       ?_Lrotate@?$_Tree@V?$_Tmap_traits@KUPkcs11Session@CipherShed@@U?$less@K@std@@V?$allocator@U?$pair@$$CBKUPkcs11Session@CipherShed@@@std@@@4@$0A@@std@@@std@@IAEXPAU_Node@?$_Tree_nod@V?$_Tmap_traits@KUPkcs11Session@CipherShed@@U?$less@K@std@@V?$allocator@U?$pair@$$CBKUPkcs11Session@CipherShed@@@std@@@4@$0A@@std@@@2@@Z 004510f0 f i SecurityToken.obj
 0001:00050140       ?_Erase@?$_Tree@V?$_Tmap_traits@KUPkcs11Session@CipherShed@@U?$less@K@std@@V?$allocator@U?$pair@$$CBKUPkcs11Session@CipherShed@@@std@@@4@$0A@@std@@@std@@IAEXPAU_Node@?$_Tree_nod@V?$_Tmap_traits@KUPkcs11Session@CipherShed@@U?$less@K@std@@V?$allocator@U?$pair@$$CBKUPkcs11Session@CipherShed@@@std@@@4@$0A@@std@@@2@@Z 00451140 f i SecurityToken.obj
 0001:000501d0       ?_Buynode@?$_Tree@V?$_Tmap_traits@KUPkcs11Session@CipherShed@@U?$less@K@std@@V?$allocator@U?$pair@$$CBKUPkcs11Session@CipherShed@@@std@@@4@$0A@@std@@@std@@IAEPAU_Node@?$_Tree_nod@V?$_Tmap_traits@KUPkcs11Session@CipherShed@@U?$less@K@std@@V?$allocator@U?$pair@$$CBKUPkcs11Session@CipherShed@@@std@@@4@$0A@@std@@@2@XZ 004511d0 f i SecurityToken.obj
 0001:00050210       ?_Buynode@?$_Tree@V?$_Tmap_traits@KUPkcs11Session@CipherShed@@U?$less@K@std@@V?$allocator@U?$pair@$$CBKUPkcs11Session@CipherShed@@@std@@@4@$0A@@std@@@std@@IAEPAU_Node@?$_Tree_nod@V?$_Tmap_traits@KUPkcs11Session@CipherShed@@U?$less@K@std@@V?$allocator@U?$pair@$$CBKUPkcs11Session@CipherShed@@@std@@@4@$0A@@std@@@2@PAU342@00ABU?$pair@$$CBKUPkcs11Session@CipherShed@@@2@D@Z 00451210 f i SecurityToken.obj
 0001:00050260       ??$unchecked_copy@PAEPAE@stdext@@YAPAEPAE00@Z 00451260 f i SecurityToken.obj
 0001:00050290       ??$fill@PAEE@std@@YAXPAE0ABE@Z 00451290 f i SecurityToken.obj
 0001:000502b0       ??$_Unchecked_move_backward@PAEPAE@stdext@@YAPAEPAE00@Z 004512b0 f i SecurityToken.obj
 0001:000502e0       ??$fill@PAKK@std@@YAXPAK0ABK@Z 004512e0 f i SecurityToken.obj
 0001:00050300       ??$_Unchecked_move_backward@PAKPAK@stdext@@YAPAKPAK00@Z 00451300 f i SecurityToken.obj
 0001:00050330       ?_Copy@?$_Tree@V?$_Tmap_traits@KUPkcs11Session@CipherShed@@U?$less@K@std@@V?$allocator@U?$pair@$$CBKUPkcs11Session@CipherShed@@@std@@@4@$0A@@std@@@std@@IAEPAU_Node@?$_Tree_nod@V?$_Tmap_traits@KUPkcs11Session@CipherShed@@U?$less@K@std@@V?$allocator@U?$pair@$$CBKUPkcs11Session@CipherShed@@@std@@@4@$0A@@std@@@2@PAU342@0@Z 00451330 f i SecurityToken.obj
 0001:000503f0       ?IsKeyfilePathValid@SecurityToken@CipherShed@@SA_NABV?$basic_string@_WU?$char_traits@_W@std@@V?$allocator@_W@2@@std@@@Z 004513f0 f   SecurityToken.obj
 0001:00050410       ??$_Ucopy@PAE@?$vector@EV?$allocator@E@std@@@std@@IAEPAEPAE00@Z 00451410 f i SecurityToken.obj
 0001:00050410       ??$_Umove@PAE@?$vector@EV?$allocator@E@std@@@std@@IAEPAEPAE00@Z 00451410 f i SecurityToken.obj
 0001:00050440       ?_Copy@?$_Tree@V?$_Tmap_traits@KUPkcs11Session@CipherShed@@U?$less@K@std@@V?$allocator@U?$pair@$$CBKUPkcs11Session@CipherShed@@@std@@@4@$0A@@std@@@std@@IAEXABV12@@Z 00451440 f i SecurityToken.obj
 0001:000504c0       ?front@?$vector@EV?$allocator@E@std@@@std@@QAEAAEXZ 004514c0 f i Dlgcode.obj
 0001:000504c0       ?front@?$vector@USecurityTokenKeyfile@CipherShed@@V?$allocator@USecurityTokenKeyfile@CipherShed@@@std@@@std@@QAEAAUSecurityTokenKeyfile@CipherShed@@XZ 004514c0 f i SecurityToken.obj
 0001:000504f0       ??$_Umove@PAK@?$vector@KV?$allocator@K@std@@@std@@IAEPAKPAK00@Z 004514f0 f i SecurityToken.obj
 0001:00050530       ??1?$ContainerForward@V?$vector@KV?$allocator@K@std@@@std@@@ForEach@CipherShed@@UAE@XZ 00451530 f i SecurityToken.obj
 0001:00050570       ?find@?$_Tree@V?$_Tmap_traits@KUPkcs11Session@CipherShed@@U?$less@K@std@@V?$allocator@U?$pair@$$CBKUPkcs11Session@CipherShed@@@std@@@4@$0A@@std@@@std@@QAE?AViterator@12@ABK@Z 00451570 f i SecurityToken.obj
 0001:00050600       ?erase@?$vector@EV?$allocator@E@std@@@std@@QAE?AV?$_Vector_iterator@EV?$allocator@E@std@@@2@V?$_Vector_const_iterator@EV?$allocator@E@std@@@2@0@Z 00451600 f i SecurityToken.obj
 0001:00050690       ?_Ufill@?$vector@KV?$allocator@K@std@@@std@@IAEPAKPAKIABK@Z 00451690 f i SecurityToken.obj
 0001:00050770       ?erase@?$_Tree@V?$_Tmap_traits@KUPkcs11Session@CipherShed@@U?$less@K@std@@V?$allocator@U?$pair@$$CBKUPkcs11Session@CipherShed@@@std@@@4@$0A@@std@@@std@@QAE?AViterator@12@Vconst_iterator@12@@Z 00451770 f i SecurityToken.obj
 0001:00050a40       ?clear@?$vector@EV?$allocator@E@std@@@std@@QAEXXZ 00451a40 f i SecurityToken.obj
 0001:00050a80       ??0?$_Tree@V?$_Tmap_traits@KUPkcs11Session@CipherShed@@U?$less@K@std@@V?$allocator@U?$pair@$$CBKUPkcs11Session@CipherShed@@@std@@@4@$0A@@std@@@std@@QAE@ABU?$less@K@1@ABV?$allocator@U?$pair@$$CBKUPkcs11Session@CipherShed@@@std@@@1@@Z 00451a80 f i SecurityToken.obj
 0001:00050b10       ?erase@?$_Tree@V?$_Tmap_traits@KUPkcs11Session@CipherShed@@U?$less@K@std@@V?$allocator@U?$pair@$$CBKUPkcs11Session@CipherShed@@@std@@@4@$0A@@std@@@std@@QAE?AViterator@12@Vconst_iterator@12@0@Z 00451b10 f i SecurityToken.obj
 0001:00050bf0       ?_Insert@?$_Tree@V?$_Tmap_traits@KUPkcs11Session@CipherShed@@U?$less@K@std@@V?$allocator@U?$pair@$$CBKUPkcs11Session@CipherShed@@@std@@@4@$0A@@std@@@std@@IAE?AViterator@12@_NPAU_Node@?$_Tree_nod@V?$_Tmap_traits@KUPkcs11Session@CipherShed@@U?$less@K@std@@V?$allocator@U?$pair@$$CBKUPkcs11Session@CipherShed@@@std@@@4@$0A@@std@@@2@ABU?$pair@$$CBKUPkcs11Session@CipherShed@@@2@@Z 00451bf0 f i SecurityToken.obj
 0001:00050df0       ?GetTokenInfo@SecurityToken@CipherShed@@SA?AUSecurityTokenInfo@2@K@Z 00451df0 f   SecurityToken.obj
 0001:00051010       ??0Pkcs11Exception@CipherShed@@QAE@ABU01@@Z 00452010 f i SecurityToken.obj
 0001:00051040       ?_Tidy@?$_Tree@V?$_Tmap_traits@KUPkcs11Session@CipherShed@@U?$less@K@std@@V?$allocator@U?$pair@$$CBKUPkcs11Session@CipherShed@@@std@@@4@$0A@@std@@@std@@IAEXXZ 00452040 f i SecurityToken.obj
 0001:00051080       ?insert@?$_Tree@V?$_Tmap_traits@KUPkcs11Session@CipherShed@@U?$less@K@std@@V?$allocator@U?$pair@$$CBKUPkcs11Session@CipherShed@@@std@@@4@$0A@@std@@@std@@QAE?AU?$pair@Viterator@?$_Tree@V?$_Tmap_traits@KUPkcs11Session@CipherShed@@U?$less@K@std@@V?$allocator@U?$pair@$$CBKUPkcs11Session@CipherShed@@@std@@@4@$0A@@std@@@std@@_N@2@ABU?$pair@$$CBKUPkcs11Session@CipherShed@@@2@@Z 00452080 f i SecurityToken.obj
 0001:00051170       ?_Insert_n@?$vector@EV?$allocator@E@std@@@std@@IAEXV?$_Vector_const_iterator@EV?$allocator@E@std@@@2@IABE@Z 00452170 f i SecurityToken.obj
 0001:00051300       ?_Insert_n@?$vector@KV?$allocator@K@std@@@std@@IAEXV?$_Vector_const_iterator@KV?$allocator@K@std@@@2@IABK@Z 00452300 f i SecurityToken.obj
 0001:000514b0       ??0?$_Tree@V?$_Tmap_traits@KUPkcs11Session@CipherShed@@U?$less@K@std@@V?$allocator@U?$pair@$$CBKUPkcs11Session@CipherShed@@@std@@@4@$0A@@std@@@std@@QAE@ABV01@@Z 004524b0 f i SecurityToken.obj
 0001:00051560       ??1?$_Tree@V?$_Tmap_traits@KUPkcs11Session@CipherShed@@U?$less@K@std@@V?$allocator@U?$pair@$$CBKUPkcs11Session@CipherShed@@@std@@@4@$0A@@std@@@std@@QAE@XZ 00452560 f i SecurityToken.obj
 0001:000515e0       ??4?$vector@EV?$allocator@E@std@@@std@@QAEAAV01@ABV01@@Z 004525e0 f i SecurityToken.obj
 0001:000516c0       ??0?$vector@KV?$allocator@K@std@@@std@@QAE@ABV01@@Z 004526c0 f i SecurityToken.obj
 0001:000517a0       ?insert@?$_Tree@V?$_Tmap_traits@KUPkcs11Session@CipherShed@@U?$less@K@std@@V?$allocator@U?$pair@$$CBKUPkcs11Session@CipherShed@@@std@@@4@$0A@@std@@@std@@QAE?AViterator@12@Vconst_iterator@12@ABU?$pair@$$CBKUPkcs11Session@CipherShed@@@2@@Z 004527a0 f i SecurityToken.obj
 0001:00051970       ?insert@?$vector@EV?$allocator@E@std@@@std@@QAE?AV?$_Vector_iterator@EV?$allocator@E@std@@@2@V?$_Vector_const_iterator@EV?$allocator@E@std@@@2@ABE@Z 00452970 f i SecurityToken.obj
 0001:00051a20       ?_Construct_n@?$vector@KV?$allocator@K@std@@@std@@QAEXIABK@Z 00452a20 f i SecurityToken.obj
 0001:00051a90       ?insert@?$vector@KV?$allocator@K@std@@@std@@QAE?AV?$_Vector_iterator@KV?$allocator@K@std@@@2@V?$_Vector_const_iterator@KV?$allocator@K@std@@@2@ABK@Z 00452a90 f i SecurityToken.obj
 0001:00051b40       ??0?$ContainerForward@V?$vector@KV?$allocator@K@std@@@std@@@ForEach@CipherShed@@QAE@ABV?$vector@KV?$allocator@K@std@@@std@@@Z 00452b40 f i SecurityToken.obj
 0001:00051be0       ?Next@?$ContainerForward@V?$vector@KV?$allocator@K@std@@@std@@@ForEach@CipherShed@@UBEXXZ 00452be0 f i SecurityToken.obj
 0001:00051c10       ??_E?$ContainerForward@V?$vector@KV?$allocator@K@std@@@std@@@ForEach@CipherShed@@UAEPAXI@Z 00452c10 f i SecurityToken.obj
 0001:00051c10       ??_G?$ContainerForward@V?$vector@KV?$allocator@K@std@@@std@@@ForEach@CipherShed@@UAEPAXI@Z 00452c10 f i SecurityToken.obj
 0001:00051c60       ??$_Uninit_fill_n@PAUSecurityTokenKeyfile@CipherShed@@IU12@V?$allocator@USecurityTokenKeyfile@CipherShed@@@std@@@std@@YAXPAUSecurityTokenKeyfile@CipherShed@@IABU12@AAV?$allocator@USecurityTokenKeyfile@CipherShed@@@0@U_Nonscalar_ptr_iterator_tag@0@U_Range_checked_iterator_tag@0@@Z 00452c60 f i SecurityToken.obj
 0001:00051d00       ??$_Fill@PAUSecurityTokenKeyfile@CipherShed@@U12@@std@@YAXPAUSecurityTokenKeyfile@CipherShed@@0ABU12@@Z 00452d00 f i SecurityToken.obj
 0001:00051d80       ??$_Copy_backward_opt@PAUSecurityTokenKeyfile@CipherShed@@PAU12@Uforward_iterator_tag@std@@@std@@YAPAUSecurityTokenKeyfile@CipherShed@@PAU12@00Uforward_iterator_tag@0@U_Nonscalar_ptr_iterator_tag@0@U_Range_checked_iterator_tag@0@@Z 00452d80 f i SecurityToken.obj
 0001:00051e10       ??A?$map@KUPkcs11Session@CipherShed@@U?$less@K@std@@V?$allocator@U?$pair@$$CBKUPkcs11Session@CipherShed@@@std@@@4@@std@@QAEAAUPkcs11Session@CipherShed@@ABK@Z 00452e10 f i SecurityToken.obj
 0001:00051ed0       ??0?$vector@KV?$allocator@K@std@@@std@@QAE@I@Z 00452ed0 f i SecurityToken.obj
 0001:00051f40       ?push_back@?$vector@KV?$allocator@K@std@@@std@@QAEXABK@Z 00452f40 f i SecurityToken.obj
 0001:00051fb0       ??$GetContainerForward@V?$vector@KV?$allocator@K@std@@@std@@@ForEach@CipherShed@@SA?AU?$ContainerForward@V?$vector@KV?$allocator@K@std@@@std@@@01@ABV?$vector@KV?$allocator@K@std@@@std@@@Z 00452fb0 f i SecurityToken.obj
 0001:00051fd0       ??0?$ContainerForward@V?$map@KUPkcs11Session@CipherShed@@U?$less@K@std@@V?$allocator@U?$pair@$$CBKUPkcs11Session@CipherShed@@@std@@@4@@std@@@ForEach@CipherShed@@QAE@ABV?$map@KUPkcs11Session@CipherShed@@U?$less@K@std@@V?$allocator@U?$pair@$$CBKUPkcs11Session@CipherShed@@@std@@@4@@std@@@Z 00452fd0 f i SecurityToken.obj
 0001:00052060       ?IsNotEnd@?$ContainerForward@V?$map@KUPkcs11Session@CipherShed@@U?$less@K@std@@V?$allocator@U?$pair@$$CBKUPkcs11Session@CipherShed@@@std@@@4@@std@@@ForEach@CipherShed@@UBE_NXZ 00453060 f i SecurityToken.obj
 0001:000520a0       ?Next@?$ContainerForward@V?$map@KUPkcs11Session@CipherShed@@U?$less@K@std@@V?$allocator@U?$pair@$$CBKUPkcs11Session@CipherShed@@@std@@@4@@std@@@ForEach@CipherShed@@UBEXXZ 004530a0 f i SecurityToken.obj
 0001:000520b0       ??1?$ContainerForward@V?$map@KUPkcs11Session@CipherShed@@U?$less@K@std@@V?$allocator@U?$pair@$$CBKUPkcs11Session@CipherShed@@@std@@@4@@std@@@ForEach@CipherShed@@UAE@XZ 004530b0 f i SecurityToken.obj
 0001:00052100       ?CloseSession@SecurityToken@CipherShed@@KAXK@Z 00453100 f   SecurityToken.obj
 0001:00052220       ?GetObjectAttribute@SecurityToken@CipherShed@@KAXKKKAAV?$vector@EV?$allocator@E@std@@@std@@@Z 00453220 f   SecurityToken.obj
 0001:000523e0       ?GetTokenSlots@SecurityToken@CipherShed@@KA?AV?$list@KV?$allocator@K@std@@@std@@XZ 004533e0 f   SecurityToken.obj
 0001:000525f0       ?OpenSession@SecurityToken@CipherShed@@KAXK@Z 004535f0 f   SecurityToken.obj
 0001:000526c0       ?_Ufill@?$vector@USecurityTokenKeyfile@CipherShed@@V?$allocator@USecurityTokenKeyfile@CipherShed@@@std@@@std@@IAEPAUSecurityTokenKeyfile@CipherShed@@PAU34@IABU34@@Z 004536c0 f i SecurityToken.obj
 0001:00052700       ??$GetContainerForward@V?$map@KUPkcs11Session@CipherShed@@U?$less@K@std@@V?$allocator@U?$pair@$$CBKUPkcs11Session@CipherShed@@@std@@@4@@std@@@ForEach@CipherShed@@SA?AU?$ContainerForward@V?$map@KUPkcs11Session@CipherShed@@U?$less@K@std@@V?$allocator@U?$pair@$$CBKUPkcs11Session@CipherShed@@@std@@@4@@std@@@01@ABV?$map@KUPkcs11Session@CipherShed@@U?$less@K@std@@V?$allocator@U?$pair@$$CBKUPkcs11Session@CipherShed@@@std@@@4@@std@@@Z 00453700 f i SecurityToken.obj
 0001:00052720       ??_G?$ContainerForward@V?$map@KUPkcs11Session@CipherShed@@U?$less@K@std@@V?$allocator@U?$pair@$$CBKUPkcs11Session@CipherShed@@@std@@@4@@std@@@ForEach@CipherShed@@UAEPAXI@Z 00453720 f i SecurityToken.obj
 0001:00052720       ??_E?$ContainerForward@V?$map@KUPkcs11Session@CipherShed@@U?$less@K@std@@V?$allocator@U?$pair@$$CBKUPkcs11Session@CipherShed@@@std@@@4@@std@@@ForEach@CipherShed@@UAEPAXI@Z 00453720 f i SecurityToken.obj
 0001:00052740       ?CloseAllSessions@SecurityToken@CipherShed@@SAXXZ 00453740 f   SecurityToken.obj
 0001:00052850       ?GetObjects@SecurityToken@CipherShed@@KA?AV?$vector@KV?$allocator@K@std@@@std@@KK@Z 00453850 f   SecurityToken.obj
 0001:00052a10       ?Login@SecurityToken@CipherShed@@KAXKABV?$basic_string@DU?$char_traits@D@std@@V?$allocator@D@2@@std@@@Z 00453a10 f   SecurityToken.obj
 0001:00052af0       ??6?$basic_ostream@_WU?$char_traits@_W@std@@@std@@QAEAAV01@_K@Z 00453af0 f i SecurityToken.obj
 0001:00052c40       ??$_Umove@PAUSecurityTokenKeyfile@CipherShed@@@?$vector@USecurityTokenKeyfile@CipherShed@@V?$allocator@USecurityTokenKeyfile@CipherShed@@@std@@@std@@IAEPAUSecurityTokenKeyfile@CipherShed@@PAU23@00@Z 00453c40 f i SecurityToken.obj
 0001:00052c40       ??$_Ucopy@PAUSecurityTokenKeyfile@CipherShed@@@?$vector@USecurityTokenKeyfile@CipherShed@@V?$allocator@USecurityTokenKeyfile@CipherShed@@@std@@@std@@IAEPAUSecurityTokenKeyfile@CipherShed@@PAU23@00@Z 00453c40 f i Dlgcode.obj
 0001:00052c70       ??$_Unchecked_move_backward@PAUSecurityTokenKeyfile@CipherShed@@PAU12@@stdext@@YAPAUSecurityTokenKeyfile@CipherShed@@PAU12@00@Z 00453c70 f i SecurityToken.obj
 0001:00052cc0       ??BSecurityTokenKeyfile@CipherShed@@QBE?AUSecurityTokenKeyfilePath@1@XZ 00453cc0 f   SecurityToken.obj
 0001:00052e00       ?CloseLibrary@SecurityToken@CipherShed@@SAXXZ 00453e00 f   SecurityToken.obj
 0001:00052e40       ?GetAvailableTokens@SecurityToken@CipherShed@@SA?AV?$list@USecurityTokenInfo@CipherShed@@V?$allocator@USecurityTokenInfo@CipherShed@@@std@@@std@@XZ 00453e40 f   SecurityToken.obj
 0001:000530e0       ?LoginUserIfRequired@SecurityToken@CipherShed@@KAXK@Z 004540e0 f   SecurityToken.obj
 0001:00053440       ?InitLibrary@SecurityToken@CipherShed@@SAXABV?$basic_string@DU?$char_traits@D@std@@V?$allocator@D@2@@std@@V?$auto_ptr@UGetPinFunctor@CipherShed@@@4@V?$auto_ptr@USendExceptionFunctor@CipherShed@@@4@@Z 00454440 f   SecurityToken.obj
 0001:000535d0       ??BPkcs11Exception@CipherShed@@QBE?AV?$basic_string@DU?$char_traits@D@std@@V?$allocator@D@2@@std@@XZ 004545d0 f   SecurityToken.obj
 0001:00053720       ?Show@Pkcs11Exception@CipherShed@@UBEXPAUHWND__@@@Z 00454720 f   SecurityToken.obj
 0001:00053ae0       ?_Insert_n@?$vector@USecurityTokenKeyfile@CipherShed@@V?$allocator@USecurityTokenKeyfile@CipherShed@@@std@@@std@@IAEXV?$_Vector_const_iterator@USecurityTokenKeyfile@CipherShed@@V?$allocator@USecurityTokenKeyfile@CipherShed@@@std@@@2@IABUSecurityTokenKeyfile@CipherShed@@@Z 00454ae0 f i SecurityToken.obj
 0001:00053e20       ?DeleteKeyfile@SecurityToken@CipherShed@@SAXABUSecurityTokenKeyfile@2@@Z 00454e20 f   SecurityToken.obj
 0001:00053e90       ?GetKeyfileData@SecurityToken@CipherShed@@SAXABUSecurityTokenKeyfile@2@AAV?$vector@EV?$allocator@E@std@@@std@@@Z 00454e90 f   SecurityToken.obj
 0001:00053ec0       ?insert@?$vector@USecurityTokenKeyfile@CipherShed@@V?$allocator@USecurityTokenKeyfile@CipherShed@@@std@@@std@@QAE?AV?$_Vector_iterator@USecurityTokenKeyfile@CipherShed@@V?$allocator@USecurityTokenKeyfile@CipherShed@@@std@@@2@V?$_Vector_const_iterator@USecurityTokenKeyfile@CipherShed@@V?$allocator@USecurityTokenKeyfile@CipherShed@@@std@@@2@ABUSecurityTokenKeyfile@CipherShed@@@Z 00454ec0 f i SecurityToken.obj
 0001:00053f80       ?push_back@?$vector@USecurityTokenKeyfile@CipherShed@@V?$allocator@USecurityTokenKeyfile@CipherShed@@@std@@@std@@QAEXABUSecurityTokenKeyfile@CipherShed@@@Z 00454f80 f i SecurityToken.obj
 0001:00054000       ?GetAvailableKeyfiles@SecurityToken@CipherShed@@SA?AV?$vector@USecurityTokenKeyfile@CipherShed@@V?$allocator@USecurityTokenKeyfile@CipherShed@@@std@@@std@@PAKV?$basic_string@_WU?$char_traits@_W@std@@V?$allocator@_W@2@@4@@Z 00455000 f   SecurityToken.obj
 0001:00054b00       ??0SecurityTokenKeyfile@CipherShed@@QAE@ABUSecurityTokenKeyfilePath@1@@Z 00455b00 f   SecurityToken.obj
 0001:00054dc0       ??0SecurityTokenKeyfileNotFound@CipherShed@@QAE@ABU01@@Z 00455dc0 f i SecurityToken.obj
 0001:00054dd0       ??0InvalidSecurityTokenKeyfilePath@CipherShed@@QAE@ABU01@@Z 00455dd0 f i SecurityToken.obj
 0001:00054de0       ?CreateKeyfile@SecurityToken@CipherShed@@SAXKAAV?$vector@EV?$allocator@E@std@@@std@@ABV?$basic_string@DU?$char_traits@D@std@@V?$allocator@D@2@@4@@Z 00455de0 f   SecurityToken.obj
 0001:000552b0       ??0SecurityTokenKeyfileAlreadyExists@CipherShed@@QAE@ABU01@@Z 004562b0 f i SecurityToken.obj
 0001:000552c0       _XTSAesTest                004562c0 f   Tests.obj
 0001:00055420       _CipherInit2               00456420 f   Tests.obj
 0001:00055480       _LRWAesTest                00456480 f   Tests.obj
 0001:000555b0       _TestLegacySectorBufEncryption 004565b0 f   Tests.obj
 0001:00056250       _test_hmac_sha512          00457250 f   Tests.obj
 0001:00056320       _test_hmac_sha1            00457320 f   Tests.obj
 0001:000563f0       _test_hmac_ripemd160       004573f0 f   Tests.obj
 0001:00056490       _test_hmac_whirlpool       00457490 f   Tests.obj
 0001:00056520       _test_pkcs5                00457520 f   Tests.obj
 0001:00056760       _TestSectorBufEncryption   00457760 f   Tests.obj
 0001:000578d0       _AutoTestAlgorithms        004588d0 f   Tests.obj
 0001:00057920       _ReadVolumeHeader          00458920 f   Volumes.obj
 0001:000582d0       _CreateVolumeHeaderInMemory 004592d0 f   Volumes.obj
 0001:000589a0       _ReadEffectiveVolumeHeader 004599a0 f   Volumes.obj
 0001:00058ab0       _WriteEffectiveVolumeHeader 00459ab0 f   Volumes.obj
 0001:00058c10       _WriteRandomDataToReservedHeaderAreas 00459c10 f   Volumes.obj
 0001:00058f00       _XmlFindElement            00459f00 f   Xml.obj
 0001:00058f90       _XmlGetAttributeText       00459f90 f   Xml.obj
 0001:00059100       _XmlGetNodeText            0045a100 f   Xml.obj
 0001:000591e0       _XmlQuoteText              0045a1e0 f   Xml.obj
 0001:000592b0       _XmlWriteHeader            0045a2b0 f   Xml.obj
 0001:000592d0       _XmlWriteHeaderW           0045a2d0 f   Xml.obj
 0001:000592f0       _XmlWriteFooter            0045a2f0 f   Xml.obj
 0001:00059310       _XmlWriteFooterW           0045a310 f   Xml.obj
 0001:00059330       _XmlFindElementByAttributeValue 0045a330 f   Xml.obj
 0001:00059d90       _EncryptBufferXTS          0045ad90 f   Xts.obj
 0001:00059e00       _DecryptBufferXTS          0045ae00 f   Xts.obj
 0001:00059e70       _UpperCaseCopy             0045ae70 f   csstringutil.obj
 0001:00059ec0       _ToUNICODE                 0045aec0 f   csstringutil.obj
 0001:00059f70       _LeftPadString             0045af70 f   csstringutil.obj
 0001:00059fd0       _ToSBCS                    0045afd0 f   csstringutil.obj
 0001:0005a050       ??1?$ContainerForward@V?$basic_string@DU?$char_traits@D@std@@V?$allocator@D@2@@std@@@ForEach@CipherShed@@UAE@XZ 0045b050 f i csstringutil.obj
 0001:0005a080       ??0?$ContainerForward@V?$basic_string@DU?$char_traits@D@std@@V?$allocator@D@2@@std@@@ForEach@CipherShed@@QAE@ABV?$basic_string@DU?$char_traits@D@std@@V?$allocator@D@2@@std@@@Z 0045b080 f i csstringutil.obj
 0001:0005a130       ?Next@?$ContainerForward@V?$basic_string@DU?$char_traits@D@std@@V?$allocator@D@2@@std@@@ForEach@CipherShed@@UBEXXZ 0045b130 f i csstringutil.obj
 0001:0005a170       ?IsNotEnd@?$ContainerForward@V?$basic_string@DU?$char_traits@D@std@@V?$allocator@D@2@@std@@@ForEach@CipherShed@@UBE_NXZ 0045b170 f i csstringutil.obj
 0001:0005a1b0       ??_G?$ContainerForward@V?$basic_string@DU?$char_traits@D@std@@V?$allocator@D@2@@std@@@ForEach@CipherShed@@UAEPAXI@Z 0045b1b0 f i csstringutil.obj
 0001:0005a1b0       ??_E?$ContainerForward@V?$basic_string@DU?$char_traits@D@std@@V?$allocator@D@2@@std@@@ForEach@CipherShed@@UAEPAXI@Z 0045b1b0 f i csstringutil.obj
 0001:0005a1f0       ?StringToUpperCase@@YA?AV?$basic_string@DU?$char_traits@D@std@@V?$allocator@D@2@@std@@ABV12@@Z 0045b1f0 f   csstringutil.obj
 0001:0005a240       ??$GetContainerForward@V?$basic_string@DU?$char_traits@D@std@@V?$allocator@D@2@@std@@@ForEach@CipherShed@@SA?AU?$ContainerForward@V?$basic_string@DU?$char_traits@D@std@@V?$allocator@D@2@@std@@@01@ABV?$basic_string@DU?$char_traits@D@std@@V?$allocator@D@2@@std@@@Z 0045b240 f i csstringutil.obj
 0001:0005a260       ?SingleStringToWide@@YA?AV?$basic_string@_WU?$char_traits@_W@std@@V?$allocator@_W@2@@std@@ABV?$basic_string@DU?$char_traits@D@std@@V?$allocator@D@2@@2@@Z 0045b260 f   csstringutil.obj
 0001:0005a340       ?WideToSingleString@@YA?AV?$basic_string@DU?$char_traits@D@std@@V?$allocator@D@2@@std@@ABV?$basic_string@_WU?$char_traits@_W@std@@V?$allocator@_W@2@@2@@Z 0045b340 f   csstringutil.obj
 0001:0005a420       ?Utf8StringToWide@@YA?AV?$basic_string@_WU?$char_traits@_W@std@@V?$allocator@_W@2@@std@@ABV?$basic_string@DU?$char_traits@D@std@@V?$allocator@D@2@@2@@Z 0045b420 f   csstringutil.obj
 0001:0005a500       ?WideToUtf8String@@YA?AV?$basic_string@DU?$char_traits@D@std@@V?$allocator@D@2@@std@@ABV?$basic_string@_WU?$char_traits@_W@std@@V?$allocator@_W@2@@2@@Z 0045b500 f   csstringutil.obj
 0001:0005a5e0       ?ToUpperCase@@YA?AV?$basic_string@DU?$char_traits@D@std@@V?$allocator@D@2@@std@@ABV12@@Z 0045b5e0 f   csstringutil.obj
 0001:0005a740       _err_malloc                0045b740 f   memory.obj
 0001:0005a770       _AbortProcess              0045b770 f   process.obj
 0001:0005a7a0       _AbortProcessSilent        0045b7a0 f   process.obj
 0001:0005a7b0       _ConvertUTF16toUTF8        0045b7b0 f   ConvertUTF.obj
 0001:0005a940       _strcmpw                   0045b940 f   strcmpw.obj
 0001:0005a9a0       _WaitCursor                0045b9a0 f   cursor.obj
 0001:0005a9d0       _NormalCursor              0045b9d0 f   cursor.obj
 0001:0005aa00       _ArrowWaitCursor           0045ba00 f   cursor.obj
 0001:0005aa30       _HandCursor                0045ba30 f   cursor.obj
 0001:0005aa80       ?TaskBarIconDisplayBalloonTooltip@@YAXPAUHWND__@@PB_W1H@Z 0045ba80 f   errors.obj
 0001:0005abb0       _InfoBalloon               0045bbb0 f   errors.obj
 0001:0005ac20       _InfoBalloonDirect         0045bc20 f   errors.obj
 0001:0005ac60       _WarningBalloon            0045bc60 f   errors.obj
 0001:0005acd0       _Info                      0045bcd0 f   errors.obj
 0001:0005ad00       _InfoDirect                0045bd00 f   errors.obj
 0001:0005ad30       _Warning                   0045bd30 f   errors.obj
 0001:0005ad60       _WarningTopMost            0045bd60 f   errors.obj
 0001:0005ada0       _WarningDirect             0045bda0 f   errors.obj
 0001:0005add0       _Error                     0045bdd0 f   errors.obj
 0001:0005ae00       _AskYesNo                  0045be00 f   errors.obj
 0001:0005ae40       _AskYesNoString            0045be40 f   errors.obj
 0001:0005ae70       _AskYesNoTopmost           0045be70 f   errors.obj
 0001:0005aeb0       _AskNoYes                  0045beb0 f   errors.obj
 0001:0005aef0       _AskOkCancel               0045bef0 f   errors.obj
 0001:0005af30       _AskWarnYesNoTopmost       0045bf30 f   errors.obj
 0001:0005af70       _AskWarnYesNoStringTopmost 0045bf70 f   errors.obj
 0001:0005afa0       _AskWarnNoYes              0045bfa0 f   errors.obj
 0001:0005afe0       _AskErrNoYes               0045bfe0 f   errors.obj
 0001:0005b020       _handleWin32Error          0045c020 f   errors.obj
 0001:0005b0f0       _ErrorDirect               0045c0f0 f   errors.obj
 0001:0005b120       _AskWarnYesNo              0045c120 f   errors.obj
 0001:0005b160       ?GetWrongPasswordErrorMessage@@YA?AV?$basic_string@_WU?$char_traits@_W@std@@V?$allocator@_W@2@@std@@PAUHWND__@@@Z 0045c160 f   errors.obj
 0001:0005b3c0       _handleError               0045c3c0 f   errors.obj
 0001:0005b800       _IsOSVersionAtLeast        0045c800 f   userperms.obj
 0001:0005b8e0       _Is64BitOs                 0045c8e0 f   userperms.obj
 0001:0005b930       _IsServerOS                0045c930 f   userperms.obj
 0001:0005b9a0       _EnableElevatedCursorChange 0045c9a0 f   userperms.obj
 0001:0005ba60       _IsAdmin                   0045ca60 f   userperms.obj
 0001:0005ba90       _IsOSAtLeast               0045ca90 f   userperms.obj
 0001:0005baa0       _IsBuiltInAdmin            0045caa0 f   userperms.obj
 0001:0005bb80       _IsUacSupported            0045cb80 f   userperms.obj
 0001:0005bc30       _CreateFullVolumePath      0045cc30 f   volutil.obj
 0001:0005bc90       _IsVolumeDeviceHosted      0045cc90 f   volutil.obj
 0001:0005bcd0       ?HarddiskVolumePathToPartitionPath@@YA?AV?$basic_string@DU?$char_traits@D@std@@V?$allocator@D@2@@std@@ABV12@@Z 0045ccd0 f   volutil.obj
 0001:0005bf00       ?VolumeGuidPathToDevicePath@@YA?AV?$basic_string@DU?$char_traits@D@std@@V?$allocator@D@2@@std@@V12@@Z 0045cf00 f   volutil.obj
 0001:0005c1a0       _IsMountedVolume           0045d1a0 f   volutil.obj
 0001:0005c360       _GetMountedVolumeDriveNo   0045d360 f   volutil.obj
 0001:0005c530       _GetDeviceInfo             0045d530 f   diskutil.obj
 0001:0005c590       _GetDriveGeometry          0045d590 f   diskutil.obj
 0001:0005c660       _GetDiskDeviceDriveLetter  0045d660 f   diskutil.obj
 0001:0005c7c0       _IsDiskError               0045d7c0 f   diskutil.obj
 0001:0005c800       _ResolveSymbolicLink       0045d800 f   fsutil.obj
 0001:0005c8aa       _VerQueryValueA@16         0045d8aa f   version:VERSION.dll
 0001:0005c8b0       _GetFileVersionInfoA@16    0045d8b0 f   version:VERSION.dll
 0001:0005c8b6       _GetFileVersionInfoSizeA@8 0045d8b6 f   version:VERSION.dll
 0001:0005c8c0       _aes_hw_cpu_enable_sse     0045d8c0     crypto:Aes_hw_cpu.obj
 0001:0005c8cb       _is_aes_hw_cpu_supported   0045d8cb     crypto:Aes_hw_cpu.obj
 0001:0005c8dd       _aes_hw_cpu_decrypt        0045d8dd     crypto:Aes_hw_cpu.obj
 0001:0005c997       _aes_hw_cpu_decrypt_32_blocks 0045d997     crypto:Aes_hw_cpu.obj
 0001:0005ce05       _aes_hw_cpu_encrypt        0045de05     crypto:Aes_hw_cpu.obj
 0001:0005cebf       _aes_hw_cpu_encrypt_32_blocks 0045debf     crypto:Aes_hw_cpu.obj
 0001:0005d850       _TripleDesSetKey           0045e850 f   crypto:Des.obj
 0001:0005d8d0       _TripleDesEncrypt          0045e8d0 f   crypto:Des.obj
 0001:0005da40       _Cast5Encrypt              0045ea40 f   crypto:Cast.obj
 0001:0005de80       _Cast5Decrypt              0045ee80 f   crypto:Cast.obj
 0001:0005e2c0       _Cast5SetKey               0045f2c0 f   crypto:Cast.obj
 0001:0005eed0       _BlowfishSetKey            0045fed0 f   crypto:Blowfish.obj
 0001:0005eff0       _BlowfishEncryptLE         0045fff0 f   crypto:Blowfish.obj
 0001:0005fb40       _twofish_set_key           00460b40 f   crypto:Twofish.obj
 0001:0005fc30       _twofish_encrypt           00460c30 f   crypto:Twofish.obj
 0001:000607d0       _twofish_decrypt           004617d0 f   crypto:Twofish.obj
 0001:000612b0       _serpent_set_key           004622b0 f   crypto:Serpent.obj
 0001:00061670       _serpent_encrypt           00462670 f   crypto:Serpent.obj
 0001:00061d50       _serpent_decrypt           00462d50 f   crypto:Serpent.obj
 0001:00062480       _aes_encrypt_key256        00463480 f   crypto:Aeskey.obj
 0001:00062a30       _aes_decrypt_key256        00463a30 f   crypto:Aeskey.obj
 0001:00063540       _aes_encrypt               00464540     crypto:Aes_x86.obj
 0001:00064140       _aes_decrypt               00465140     crypto:Aes_x86.obj
 0001:00064d50       _sha512_compile            00465d50 f   crypto:Sha2.obj
 0001:00067220       _sha512_hash               00468220 f   crypto:Sha2.obj
 0001:000674b0       _sha512_begin              004684b0 f   crypto:Sha2.obj
 0001:000674e0       _sha512_end                004684e0 f   crypto:Sha2.obj
 0001:00067500       _sha1_compile              00468500 f   crypto:Sha1.obj
 0001:000684c0       _sha1_begin                004694c0 f   crypto:Sha1.obj
 0001:00068500       _sha1_hash                 00469500 f   crypto:Sha1.obj
 0001:000685b0       _sha1_end                  004695b0 f   crypto:Sha1.obj
 0001:000686b0       _RMD160Init                004696b0 f   crypto:Rmd160.obj
 0001:000686f0       _RMD160Transform           004696f0 f   crypto:Rmd160.obj
 0001:00069c40       _RMD160Update              0046ac40 f   crypto:Rmd160.obj
 0001:00069df0       _RMD160Final               0046adf0 f   crypto:Rmd160.obj
 0001:0006b770       _WHIRLPOOL_init            0046c770 f   crypto:Whirlpool.obj
 0001:0006b7f0       _WHIRLPOOL_add             0046c7f0 f   crypto:Whirlpool.obj
 0001:0006b9b0       _WHIRLPOOL_finalize        0046c9b0 f   crypto:Whirlpool.obj
 0001:0006bab9       ?_Xlen@_String_base@std@@SAXXZ 0046cab9 f   libcpmt:string.obj
 0001:0006baf1       ?_Xran@_String_base@std@@SAXXZ 0046caf1 f   libcpmt:string.obj
 0001:0006bb29       __Tolower                  0046cb29 f   libcpmt:_tolower.obj
 0001:0006bc36       __Getctype                 0046cc36 f   libcpmt:_tolower.obj
 0001:0006bc96       __Wcrtomb                  0046cc96 f   libcpmt:xwctomb.obj
 0001:0006bd1d       __Getcvt                   0046cd1d f   libcpmt:xwctomb.obj
 0001:0006bd33       ??0_Init_locks@std@@QAE@XZ 0046cd33 f   libcpmt:xlock.obj
 0001:0006bd64       ??1_Init_locks@std@@QAE@XZ 0046cd64 f   libcpmt:xlock.obj
 0001:0006bd8d       ??0_Lockit@std@@QAE@H@Z    0046cd8d f   libcpmt:xlock.obj
 0001:0006bdb5       ??1_Lockit@std@@QAE@XZ     0046cdb5 f   libcpmt:xlock.obj
 0001:0006bdcc       ?_AtModuleExit@@YAXP6AXXZ@Z 0046cdcc f   libcpmt:locale0.obj
 0001:0006bde6       ??1_Fac_node@std@@QAE@XZ   0046cde6 f i libcpmt:locale0.obj
 0001:0006bdfb       ??_G_Fac_node@std@@QAEPAXI@Z 0046cdfb f i libcpmt:locale0.obj
 0001:0006be1c       __Deletegloballocale       0046ce1c f   libcpmt:locale0.obj
 0001:0006be69       ?_Getgloballocale@locale@std@@CAPAV_Locimp@12@XZ 0046ce69 f   libcpmt:locale0.obj
 0001:0006be6f       ?_Setgloballocale@locale@std@@CAXPAX@Z 0046ce6f f   libcpmt:locale0.obj
 0001:0006be99       ?_Locimp_dtor@_Locimp@locale@std@@CAXPAV123@@Z 0046ce99 f   libcpmt:locale0.obj
 0001:0006bef9       __Fac_tidy                 0046cef9 f   libcpmt:locale0.obj
 0001:0006bf2e       ?facet_Register@facet@locale@std@@CAXPAV123@@Z 0046cf2e f   libcpmt:locale0.obj
 0001:0006bf6c       ?_Locinfo_dtor@_Locinfo@std@@SAXPAV12@@Z 0046cf6c f   libcpmt:locale0.obj
 0001:0006bf94       ??0_Locimp@locale@std@@AAE@_N@Z 0046cf94 f i libcpmt:locale0.obj
 0001:0006bfdd       ??1_Locimp@locale@std@@MAE@XZ 0046cfdd f i libcpmt:locale0.obj
 0001:0006c01a       ??_G_Locimp@locale@std@@MAEPAXI@Z 0046d01a f i libcpmt:locale0.obj
 0001:0006c01a       ??_E_Locimp@locale@std@@MAEPAXI@Z 0046d01a f i libcpmt:locale0.obj
 0001:0006c03b       ?_Init@locale@std@@CAPAV_Locimp@12@XZ 0046d03b f   libcpmt:locale0.obj
 0001:0006c0d5       ?_Locinfo_ctor@_Locinfo@std@@SAXPAV12@ABV?$basic_string@DU?$char_traits@D@std@@V?$allocator@D@2@@2@@Z 0046d0d5 f   libcpmt:locale0.obj
 0001:0006c131       ?_Callfns@ios_base@std@@AAEXW4event@12@@Z 0046d131 f i libcpmt:ios.obj
 0001:0006c158       ?_Tidy@ios_base@std@@AAAXXZ 0046d158 f i libcpmt:ios.obj
 0001:0006c1a3       ?_Ios_base_dtor@ios_base@std@@CAXPAV12@@Z 0046d1a3 f   libcpmt:ios.obj
 0001:0006c1df       ??0_Mutex@std@@QAE@XZ      0046d1df f   libcpmt:xmutex.obj
 0001:0006c1f9       ??1_Mutex@std@@QAE@XZ      0046d1f9 f   libcpmt:xmutex.obj
 0001:0006c210       ?_Lock@_Mutex@std@@QAEXXZ  0046d210 f   libcpmt:xmutex.obj
 0001:0006c219       ?_Unlock@_Mutex@std@@QAEXXZ 0046d219 f   libcpmt:xmutex.obj
 0001:0006c222       __Toupper                  0046d222 f   libcpmt:_toupper.obj
 0001:0006c334       ??_U@YAPAXI@Z              0046d334 f   libcpmt:newaop.obj
 0001:0006c33f       ?uncaught_exception@std@@YA_NXZ 0046d33f f   libcpmt:uncaught.obj
 0001:0006c344       __Getwctype                0046d344 f   libcpmt:xgetwctype.obj
 0001:0006c373       __Getwctypes               0046d373 f   libcpmt:xgetwctype.obj
 0001:0006c3a0       __Towlower                 0046d3a0 f   libcpmt:xtowlower.obj
 0001:0006c40d       __Towupper                 0046d40d f   libcpmt:xtowupper.obj
 0001:0006c4bc       __GetLocaleForCP           0046d4bc f   libcpmt:xmbtowc.obj
 0001:0006c5aa       __Mbrtowc                  0046d5aa f   libcpmt:xmbtowc.obj
 0001:0006c71e       __Mtxinit                  0046d71e f   libcpmt:xmtx.obj
 0001:0006c72e       __Mtxdst                   0046d72e f   libcpmt:xmtx.obj
 0001:0006c73e       __Mtxlock                  0046d73e f   libcpmt:xmtx.obj
 0001:0006c74e       __Mtxunlock                0046d74e f   libcpmt:xmtx.obj
 0001:0006c75e       ?_Atexit@@YAXP6AXXZ@Z      0046d75e f   libcpmt:iosptrs.obj
 0001:0006c784       ??1_Init_atexit@@QAE@XZ    0046d784 f i libcpmt:iosptrs.obj
 0001:0006c7a9       ??0exception@std@@QAE@XZ   0046d7a9 f   LIBCMT:stdexcpt.obj
 0001:0006c7ba       ??0exception@std@@QAE@ABQBD@Z 0046d7ba f   LIBCMT:stdexcpt.obj
 0001:0006c80d       ??0exception@std@@QAE@ABQBDH@Z 0046d80d f   LIBCMT:stdexcpt.obj
 0001:0006c82a       ??0exception@std@@QAE@ABV01@@Z 0046d82a f   LIBCMT:stdexcpt.obj
 0001:0006c887       ??1exception@std@@UAE@XZ   0046d887 f   LIBCMT:stdexcpt.obj
 0001:0006c89d       ?what@exception@std@@UBEPBDXZ 0046d89d f   LIBCMT:stdexcpt.obj
 0001:0006c8aa       ??0bad_cast@std@@QAE@PBD@Z 0046d8aa f   LIBCMT:stdexcpt.obj
 0001:0006c8c8       ??0bad_cast@std@@QAE@ABV01@@Z 0046d8c8 f   LIBCMT:stdexcpt.obj
 0001:0006c8e5       ??1bad_cast@std@@UAE@XZ    0046d8e5 f   LIBCMT:stdexcpt.obj
 0001:0006c8f0       ??_Gexception@std@@UAEPAXI@Z 0046d8f0 f i LIBCMT:stdexcpt.obj
 0001:0006c8f0       ??_Eexception@std@@UAEPAXI@Z 0046d8f0 f i LIBCMT:stdexcpt.obj
 0001:0006c911       ??_Gbad_cast@std@@UAEPAXI@Z 0046d911 f i LIBCMT:stdexcpt.obj
 0001:0006c911       ??_Ebad_cast@std@@UAEPAXI@Z 0046d911 f i LIBCMT:stdexcpt.obj
 0001:0006c938       ??1type_info@@UAE@XZ       0046d938 f   LIBCMT:typinfo.obj
 0001:0006c948       ??_Etype_info@@UAEPAXI@Z   0046d948 f i LIBCMT:typinfo.obj
 0001:0006c948       ??_Gtype_info@@UAEPAXI@Z   0046d948 f i LIBCMT:typinfo.obj
 0001:0006c969       ??8type_info@@QBE_NABV0@@Z 0046d969 f   LIBCMT:typinfo.obj
 0001:0006c989       ??3@YAXPAX@Z               0046d989 f   LIBCMT:delete.obj
 0001:0006c994       _memcpy_s                  0046d994 f   LIBCMT:memcpy_s.obj
 0001:0006ca11       _memmove_s                 0046da11 f   LIBCMT:memmove_s.obj
 0001:0006ca70       _memchr                    0046da70 f   LIBCMT:memchr.obj
 0001:0006cb1d       __purecall                 0046db1d f   LIBCMT:purevirt.obj
 0001:0006cb47       _remove                    0046db47 f   LIBCMT:unlink.obj
 0001:0006cb77       __initp_misc_invarg        0046db77 f   LIBCMT:invarg.obj
 0001:0006cb86       __invoke_watson            0046db86 f   LIBCMT:invarg.obj
 0001:0006ccae       __set_invalid_parameter_handler 0046dcae f   LIBCMT:invarg.obj
 0001:0006ccd5       __invalid_parameter        0046dcd5 f   LIBCMT:invarg.obj
 0001:0006ccfb       __invalid_parameter_noinfo 0046dcfb f   LIBCMT:invarg.obj
 0001:0006cd0b       ??2@YAPAXI@Z               0046dd0b f   LIBCMT:new.obj
 0001:0006cd70       __CxxThrowException@8      0046dd70 f   LIBCMT:throw.obj
 0001:0006cdbc       ?_JumpToContinuation@@YGXPAXPAUEHRegistrationNode@@@Z 0046ddbc f   LIBCMT:_trnsctrl_.obj
 0001:0006cdee       ?_CallMemberFunction2@@YGXPAX00H@Z 0046ddee f   LIBCMT:_trnsctrl_.obj
 0001:0006cdee       ?_CallMemberFunction1@@YGXPAX00@Z 0046ddee f   LIBCMT:_trnsctrl_.obj
 0001:0006cdee       ?_CallMemberFunction0@@YGXPAX0@Z 0046ddee f   LIBCMT:_trnsctrl_.obj
 0001:0006cdf5       ?_UnwindNestedFrames@@YGXPAUEHRegistrationNode@@PAUEHExceptionRecord@@@Z 0046ddf5 f   LIBCMT:_trnsctrl_.obj
 0001:0006ce49       ___CxxFrameHandler3        0046de49 f   LIBCMT:_trnsctrl_.obj
 0001:0006ceb2       ?_CallSETranslator@@YAHPAUEHExceptionRecord@@PAUEHRegistrationNode@@PAX2PBU_s_FuncInfo@@H1@Z 0046deb2 f   LIBCMT:_trnsctrl_.obj
 0001:0006d028       ?_GetRangeOfTrysToCheck@@YAPBU_s_TryBlockMapEntry@@PBU_s_FuncInfo@@HHPAI1@Z 0046e028 f   LIBCMT:_trnsctrl_.obj
 0001:0006d09d       __CreateFrameInfo          0046e09d f   LIBCMT:_trnsctrl_.obj
 0001:0006d0c9       __IsExceptionObjectToBeDestroyed 0046e0c9 f   LIBCMT:_trnsctrl_.obj
 0001:0006d0f0       __FindAndUnlinkFrame       0046e0f0 f   LIBCMT:_trnsctrl_.obj
 0001:0006d142       ?_CallCatchBlock2@@YAPAXPAUEHRegistrationNode@@PBU_s_FuncInfo@@PAXHK@Z 0046e142 f   LIBCMT:_trnsctrl_.obj
 0001:0006d1a2       @__security_check_cookie@4 0046e1a2 f   LIBCMT:secchk.obj
 0001:0006d1b1       __fclose_nolock            0046e1b1 f   LIBCMT:fclose.obj
 0001:0006d228       _fclose                    0046e228 f   LIBCMT:fclose.obj
 0001:0006d2a4       _fwprintf                  0046e2a4 f   LIBCMT:fwprintf.obj
 0001:0006d338       _fputws                    0046e338 f   LIBCMT:fputws.obj
 0001:0006d3e4       __fsopen                   0046e3e4 f   LIBCMT:fopen.obj
 0001:0006d4a8       _fopen                     0046e4a8 f   LIBCMT:fopen.obj
 0001:0006d4bf       _free                      0046e4bf f   LIBCMT:free.obj
 0001:0006d607       ___onexitinit              0046e607 f   LIBCMT:onexit.obj
 0001:0006d638       __onexit                   0046e638 f   LIBCMT:onexit.obj
 0001:0006d674       _atexit                    0046e674 f   LIBCMT:onexit.obj
 0001:0006d690       _memset                    0046e690 f   LIBCMT:memset.obj
 0001:0006d70a       _wcsncpy                   0046e70a f   LIBCMT:wcsncpy.obj
 0001:0006d754       _sprintf                   0046e754 f   LIBCMT:sprintf.obj
 0001:0006d7d1       _sprintf_s                 0046e7d1 f   LIBCMT:sprintf.obj
 0001:0006d7ef       _calloc                    0046e7ef f   LIBCMT:calloc.obj
 0001:0006d82f       __recalloc                 0046e82f f   LIBCMT:recalloc.obj
 0001:0006d8c0       _strchr                    0046e8c0 f   LIBCMT:strchr.obj
 0001:0006d8c6       ___from_strstr_to_strchr   0046e8c6     LIBCMT:strchr.obj
 0001:0006d980       _strrchr                   0046e980 f   LIBCMT:strrchr.obj
 0001:0006d9ad       _wcsstr                    0046e9ad f   LIBCMT:wcsstr.obj
 0001:0006da0e       __vswprintf_l              0046ea0e f   LIBCMT:vswprint.obj
 0001:0006daa7       __vswprintf                0046eaa7 f   LIBCMT:vswprint.obj
 0001:0006dac1       __snprintf                 0046eac1 f   LIBCMT:snprintf.obj
 0001:0006dbda       _sscanf                    0046ebda f   LIBCMT:sscanf.obj
 0001:0006dc00       __chkstk                   0046ec00 f   LIBCMT:chkstk.obj
 0001:0006dc00       __alloca_probe             0046ec00     LIBCMT:chkstk.obj
 0001:0006dc2b       __crt_waiting_on_module_handle 0046ec2b f   LIBCMT:crt0dat.obj
 0001:0006dc5b       __amsg_exit                0046ec5b f   LIBCMT:crt0dat.obj
 0001:0006dc84       ___crtCorExitProcess       0046ec84 f   LIBCMT:crt0dat.obj
 0001:0006dcaf       ___crtExitProcess          0046ecaf f   LIBCMT:crt0dat.obj
 0001:0006dcc7       __lockexit                 0046ecc7 f   LIBCMT:crt0dat.obj
 0001:0006dcd0       __unlockexit               0046ecd0 f   LIBCMT:crt0dat.obj
 0001:0006dcf6       __initterm_e               0046ecf6 f   LIBCMT:crt0dat.obj
 0001:0006dd1a       __cinit                    0046ed1a f   LIBCMT:crt0dat.obj
 0001:0006decb       _exit                      0046eecb f   LIBCMT:crt0dat.obj
 0001:0006dee1       __exit                     0046eee1 f   LIBCMT:crt0dat.obj
 0001:0006def7       __cexit                    0046eef7 f   LIBCMT:crt0dat.obj
 0001:0006df06       __c_exit                   0046ef06 f   LIBCMT:crt0dat.obj
 0001:0006df15       __init_pointers            0046ef15 f   LIBCMT:crt0dat.obj
 0001:0006df63       _strcpy_s                  0046ef63 f   LIBCMT:strcpy_s.obj
 0001:0006dfd0       _strncpy                   0046efd0 f   LIBCMT:strncpy.obj
 0001:0006e0f4       _V6_HeapAlloc              0046f0f4 f   LIBCMT:malloc.obj
 0001:0006e143       _malloc                    0046f143 f   LIBCMT:malloc.obj
 0001:0006e20d       ??0_LocaleUpdate@@QAE@PAUlocaleinfo_struct@@@Z 0046f20d f i LIBCMT:toupper.obj
 0001:0006e294       __toupper_l                0046f294 f   LIBCMT:toupper.obj
 0001:0006e3aa       _toupper                   0046f3aa f   LIBCMT:toupper.obj
 0001:0006e3d6       ___ascii_stricmp           0046f3d6 f   LIBCMT:stricmp.obj
 0001:0006e40f       __stricmp_l                0046f40f f   LIBCMT:stricmp.obj
 0001:0006e4e4       __stricmp                  0046f4e4 f   LIBCMT:stricmp.obj
 0001:0006e536       _fprintf                   0046f536 f   LIBCMT:fprintf.obj
 0001:0006e652       _fputs                     0046f652 f   LIBCMT:fputs.obj
 0001:0006e761       ??_V@YAXPAX@Z              0046f761 f   LIBCMT:delete2.obj
 0001:0006e76c       _localeconv                0046f76c f   LIBCMT:lconv.obj
 0001:0006e792       __snwprintf                0046f792 f   LIBCMT:snwprint.obj
 0001:0006e865       __initp_misc_winxfltr      0046f865 f   LIBCMT:winxfltr.obj
 0001:0006e865       __fpclear                  0046f865 f   LIBCMT:_fpinit_.obj
 0001:0006e866       __cfltcvt_init             0046f866 f   LIBCMT:_fpinit_.obj
 0001:0006e8c6       __fpmath                   0046f8c6 f   LIBCMT:_fpinit_.obj
 0001:0006e8f0       __alldiv                   0046f8f0 f   LIBCMT:lldiv.obj
 0001:0006e9a0       __allmul                   0046f9a0 f   LIBCMT:llmul.obj
 0001:0006e9e0       _memcpy                    0046f9e0 f   LIBCMT:memcpy.obj
 0001:0006ed45       __close_nolock             0046fd45 f   LIBCMT:close.obj
 0001:0006ede1       __close                    0046fde1 f   LIBCMT:close.obj
 0001:0006eeae       __write_nolock             0046feae f   LIBCMT:write.obj
 0001:0006f5e1       __write                    004705e1 f   LIBCMT:write.obj
 0001:0006f6bd       ?_open@@YAHPBDHH@Z         004706bd f   LIBCMT:openo.obj
 0001:0006f6f0       _strcspn                   004706f0 f   LIBCMT:strcspn.obj
 0001:0006f736       __access_s                 00470736 f   LIBCMT:access.obj
 0001:0006f7bf       __access                   004707bf f   LIBCMT:access.obj
 0001:0006f7d7       __swprintf                 004707d7 f   LIBCMT:swprintf.obj
 0001:0006f86f       _swprintf_s                0047086f f   LIBCMT:swprintf.obj
 0001:0006f88d       __waccess_s                0047088d f   LIBCMT:waccess.obj
 0001:0006f916       __waccess                  00470916 f   LIBCMT:waccess.obj
 0001:0006f92e       __tolower_l                0047092e f   LIBCMT:tolower.obj
 0001:0006fa43       _tolower                   00470a43 f   LIBCMT:tolower.obj
 0001:0006fa6f       __time64                   00470a6f f   LIBCMT:time64.obj
 0001:0006fac0       _strstr                    00470ac0 f   LIBCMT:strstr.obj
 0001:0006fb46       _wcsrchr                   00470b46 f   LIBCMT:wcsrchr.obj
 0001:0006fb80       _memmove                   00470b80 f   LIBCMT:memmove.obj
 0001:0006fef0       _ceil                      00470ef0 f   LIBCMT:_ceil_pentium4_.obj
 0001:0006ff30       __ceil_pentium4            00470f30 f   LIBCMT:_ceil_pentium4_.obj
 0001:00070010       __ftol2_sse                00471010 f   LIBCMT:ftol2.obj
 0001:00070019       __ftol2_pentium4           00471019 f   LIBCMT:ftol2.obj
 0001:0007002c       __ftol2_sse_excpt          0047102c f   LIBCMT:ftol2.obj
 0001:00070046       __ftol2                    00471046 f   LIBCMT:ftol2.obj
 0001:000700c0       _floor                     004710c0 f   LIBCMT:_floor_pentium4_.obj
 0001:00070100       __floor_pentium4           00471100 f   LIBCMT:_floor_pentium4_.obj
 0001:000701e1       _ferror                    004711e1 f   LIBCMT:feoferr.obj
 0001:00070215       __flush                    00471215 f   LIBCMT:fflush.obj
 0001:0007027d       __fflush_nolock            0047127d f   LIBCMT:fflush.obj
 0001:0007039f       _fflush                    0047139f f   LIBCMT:fflush.obj
 0001:000703f2       __flushall                 004713f2 f   LIBCMT:fflush.obj
 0001:000703fb       __set_osfhnd               004713fb f   LIBCMT:osfinfo.obj
 0001:0007047c       __free_osfhnd              0047147c f   LIBCMT:osfinfo.obj
 0001:00070502       __get_osfhandle            00471502 f   LIBCMT:osfinfo.obj
 0001:00070579       ___lock_fhandle            00471579 f   LIBCMT:osfinfo.obj
 0001:00070619       __unlock_fhandle           00471619 f   LIBCMT:osfinfo.obj
 0001:00070640       __alloc_osfhnd             00471640 f   LIBCMT:osfinfo.obj
 0001:000707da       __fileno                   004717da f   LIBCMT:fileno.obj
 0001:0007080c       __wcsicmp_l                0047180c f   LIBCMT:wcsicmp.obj
 0001:0007091d       __wcsicmp                  0047191d f   LIBCMT:wcsicmp.obj
 0001:000709b0       _atol                      004719b0 f   LIBCMT:atox.obj
 0001:000709c6       _atoi                      004719c6 f   LIBCMT:atox.obj
 0001:000709d1       __vsnprintf_l              004719d1 f   LIBCMT:vsnprint.obj
 0001:00070a84       __vsnprintf                00471a84 f   LIBCMT:vsnprint.obj
 0001:00070aa1       _wcscpy_s                  00471aa1 f   LIBCMT:wcscpy_s.obj
 0001:00070d3f       _strtol                    00471d3f f   LIBCMT:strtol.obj
 0001:00070dda       _swscanf                   00471dda f   LIBCMT:swscanf.obj
 0001:00070dfc       _swscanf_s                 00471dfc f   LIBCMT:swscanf.obj
 0001:00070e1e       __isupper_l                00471e1e f i LIBCMT:_ctype.obj
 0001:00070e6f       _isupper                   00471e6f f i LIBCMT:_ctype.obj
 0001:00070e9d       __islower_l                00471e9d f i LIBCMT:_ctype.obj
 0001:00070eee       _islower                   00471eee f i LIBCMT:_ctype.obj
 0001:00070f1c       __isdigit_l                00471f1c f i LIBCMT:_ctype.obj
 0001:00070f6d       _isdigit                   00471f6d f i LIBCMT:_ctype.obj
 0001:00070f9b       __isxdigit_l               00471f9b f i LIBCMT:_ctype.obj
 0001:00070ff1       _isxdigit                  00471ff1 f i LIBCMT:_ctype.obj
 0001:00071021       __isspace_l                00472021 f i LIBCMT:_ctype.obj
 0001:00071072       _isspace                   00472072 f i LIBCMT:_ctype.obj
 0001:000710a0       __isalnum_l                004720a0 f i LIBCMT:_ctype.obj
 0001:000710f6       _isalnum                   004720f6 f i LIBCMT:_ctype.obj
 0001:00071126       __endthread                00472126 f   LIBCMT:thread.obj
 0001:00071227       __beginthread              00472227 f   LIBCMT:thread.obj
 0001:000712e0       _strcat_s                  004722e0 f   LIBCMT:strcat_s.obj
 0001:00071354       _strncmp                   00472354 f   LIBCMT:strncmp.obj
 0001:00071414       __endthreadex              00472414 f   LIBCMT:threadex.obj
 0001:00071515       __beginthreadex            00472515 f   LIBCMT:threadex.obj
 0001:000715c5       __fread_nolock_s           004725c5 f   LIBCMT:fread.obj
 0001:000717cf       _fread_s                   004727cf f   LIBCMT:fread.obj
 0001:00071865       _fread                     00472865 f   LIBCMT:fread.obj
 0001:00071882       __findclose                00472882 f   LIBCMT:findfile.obj
 0001:000718a8       ___time64_t_from_ft        004728a8 f   LIBCMT:findfi32.obj
 0001:00071910       __findfirst64i32           00472910 f   LIBCMT:findfi32.obj
 0001:00071a40       __findnext64i32            00472a40 f   LIBCMT:findfi32.obj
 0001:00071c49       __stat64i32                00472c49 f   LIBCMT:stati32.obj
 0001:0007201d       __freea                    0047301d f i LIBCMT:strupr.obj
 0001:000721bb       __strupr_s_l               004731bb f   LIBCMT:strupr.obj
 0001:000721f0       __strupr                   004731f0 f   LIBCMT:strupr.obj
 0001:00072255       __vswprintf_helper         00473255 f   LIBCMT:vswprnc.obj
 0001:0007234d       __vswprintf_c_l            0047334d f   LIBCMT:vswprnc.obj
 0001:00072377       __vswprintf_s_l            00473377 f   LIBCMT:vswprnc.obj
 0001:000725a9       _WinMainCRTStartup         004735a9 f   LIBCMT:wincrt0.obj
 0001:000725c0       __aullshr                  004735c0 f   LIBCMT:ullshr.obj
 0001:000725e0       __allshl                   004735e0 f   LIBCMT:llshl.obj
 0001:00072600       _strlen                    00473600 f   LIBCMT:strlen.obj
 0001:0007268b       __EH_prolog3               0047368b f   LIBCMT:ehprolg3.obj
 0001:000726be       __EH_prolog3_catch         004736be f   LIBCMT:ehprolg3.obj
 0001:000726f4       __EH_epilog3               004736f4 f   LIBCMT:ehprolg3.obj
 0001:00072aad       ___crtLCMapStringA         00473aad f   LIBCMT:a_map.obj
 0001:00072af2       ___pctype_func             00473af2 f   LIBCMT:ctype.obj
 0001:00072b1b       ___init_ctype              00473b1b f   LIBCMT:initctyp.obj
 0001:00072ebd       ____mb_cur_max_func        00473ebd f   LIBCMT:initctyp.obj
 0001:00072ee6       ____mb_cur_max_l_func      00473ee6 f   LIBCMT:initctyp.obj
 0001:00072f02       ____lc_codepage_func       00473f02 f   LIBCMT:initctyp.obj
 0001:00072f28       ____lc_handle_func         00473f28 f   LIBCMT:initctyp.obj
 0001:00072f4e       __malloc_crt               00473f4e f   LIBCMT:crtheap.obj
 0001:00072f93       __calloc_crt               00473f93 f   LIBCMT:crtheap.obj
 0001:00072fdf       __realloc_crt              00473fdf f   LIBCMT:crtheap.obj
 0001:0007302d       __recalloc_crt             0047402d f   LIBCMT:crtheap.obj
 0001:0007307f       __get_errno_from_oserr     0047407f f   LIBCMT:dosmap.obj
 0001:000730c1       __errno                    004740c1 f   LIBCMT:dosmap.obj
 0001:000730d4       ___doserrno                004740d4 f   LIBCMT:dosmap.obj
 0001:000730e7       __dosmaperr                004740e7 f   LIBCMT:dosmap.obj
 0001:0007310a       _abort                     0047410a f   LIBCMT:abort.obj
 0001:00073221       __set_abort_behavior       00474221 f   LIBCMT:abort.obj
 0001:00073242       ___freetlocinfo            00474242 f   LIBCMT:setlocal.obj
 0001:0007338b       ___addlocaleref            0047438b f   LIBCMT:setlocal.obj
 0001:0007341a       ___removelocaleref         0047441a f   LIBCMT:setlocal.obj
 0001:00073517       ___updatetlocinfo          00474517 f   LIBCMT:setlocal.obj
 0001:000735e0       __free_locale              004745e0 f   LIBCMT:setlocal.obj
 0001:000736a2       __strcats                  004746a2 f   LIBCMT:setlocal.obj
 0001:000736e2       ___lc_strtolc              004746e2 f   LIBCMT:setlocal.obj
 0001:0007380b       ___lc_lctostr              0047480b f   LIBCMT:setlocal.obj
 0001:000739f5       __expandlocale             004749f5 f   LIBCMT:setlocal.obj
 0001:00074143       __create_locale            00475143 f   LIBCMT:setlocal.obj
 0001:00074238       _setlocale                 00475238 f   LIBCMT:setlocal.obj
 0001:000743a8       ??0bad_exception@std@@QAE@PBD@Z 004753a8 f i LIBCMT:frame.obj
 0001:000743c6       ??1bad_exception@std@@UAE@XZ 004753c6 f i LIBCMT:frame.obj
 0001:000743d1       ??_Ebad_exception@std@@UAEPAXI@Z 004753d1 f i LIBCMT:frame.obj
 0001:000743d1       ??_Gbad_exception@std@@UAEPAXI@Z 004753d1 f i LIBCMT:frame.obj
 0001:000743f8       ___TypeMatch               004753f8 f   LIBCMT:frame.obj
 0001:00074457       ___FrameUnwindFilter       00475457 f   LIBCMT:frame.obj
 0001:000744a0       ___FrameUnwindToState      004754a0 f   LIBCMT:frame.obj
 0001:000745c6       ___DestructExceptionObject 004755c6 f   LIBCMT:frame.obj
 0001:0007461b       ___AdjustPointer           0047561b f   LIBCMT:frame.obj
 0001:00074644       ?__uncaught_exception@@YA_NXZ 00475644 f   LIBCMT:frame.obj
 0001:000748b7       ___BuildCatchObjectHelper  004758b7 f   LIBCMT:frame.obj
 0001:00074a36       ___BuildCatchObject        00475a36 f   LIBCMT:frame.obj
 0001:00074f71       ??0bad_exception@std@@QAE@ABV01@@Z 00475f71 f i LIBCMT:frame.obj
 0001:00074f8e       ___InternalCxxFrameHandler 00475f8e f   LIBCMT:frame.obj
 0001:00075074       ___crtGetStringTypeW       00476074 f   LIBCMT:w_str.obj
 0001:000750b2       ___crtLCMapStringW         004760b2 f   LIBCMT:w_map.obj
 0001:000751e6       __itoa_s                   004761e6 f   LIBCMT:xtoas.obj
 0001:00075308       __ui64toa_s                00476308 f   LIBCMT:xtoas.obj
 0001:00075327       ?_Type_info_dtor@type_info@@CAXPAV1@@Z 00476327 f   LIBCMT:typname.obj
 0001:000753a0       _strcmp                    004763a0 f   LIBCMT:strcmp.obj
 0001:00075428       __NMSG_WRITE               00476428 f   LIBCMT:crt0msg.obj
 0001:000755d3       __FF_MSGBANNER             004765d3 f   LIBCMT:crt0msg.obj
 0001:0007560c       __encode_pointer           0047660c f   LIBCMT:tidtable.obj
 0001:0007567e       __encoded_null             0047667e f   LIBCMT:tidtable.obj
 0001:00075687       __decode_pointer           00476687 f   LIBCMT:tidtable.obj
 0001:000756f9       ___crtTlsAlloc@4           004766f9 f   LIBCMT:tidtable.obj
 0001:00075702       ___fls_getvalue@4          00476702 f   LIBCMT:tidtable.obj
 0001:0007571c       ___get_flsindex            0047671c f   LIBCMT:tidtable.obj
 0001:00075722       ___set_flsgetvalue         00476722 f   LIBCMT:tidtable.obj
 0001:00075756       ___fls_setvalue@8          00476756 f   LIBCMT:tidtable.obj
 0001:00075773       __mtterm                   00476773 f   LIBCMT:tidtable.obj
 0001:000757b0       __initptd                  004767b0 f   LIBCMT:tidtable.obj
 0001:00075897       __getptd_noexit            00476897 f   LIBCMT:tidtable.obj
 0001:00075910       __getptd                   00476910 f   LIBCMT:tidtable.obj
 0001:0007592a       __freefls@4                0047692a f   LIBCMT:tidtable.obj
 0001:00075a59       __freeptd                  00476a59 f   LIBCMT:tidtable.obj
 0001:00075ac7       __mtinit                   00476ac7 f   LIBCMT:tidtable.obj
 0001:00075c54       ___getlocaleinfo           00476c54 f   LIBCMT:inithelp.obj
 0001:00075dd3       __initp_misc_purevirt      00476dd3 f   LIBCMT:inithelp.obj
 0001:00075de2       __crt_debugger_hook        00476de2 f   LIBCMT:dbghook.obj
 0001:00075dea       __initp_heap_handler       00476dea f   LIBCMT:handler.obj
 0001:00075df9       __callnewh                 00476df9 f   LIBCMT:handler.obj
 0001:00075e21       ?terminate@@YAXXZ          00476e21 f   LIBCMT:hooks.obj
 0001:00075e5a       ?unexpected@@YAXXZ         00476e5a f   LIBCMT:hooks.obj
 0001:00075e6d       ?_inconsistency@@YAXXZ     00476e6d f   LIBCMT:hooks.obj
 0001:00075ea5       __initp_eh_hooks           00476ea5 f   LIBCMT:hooks.obj
 0001:00075ec0       __CallSettingFrame@12      00476ec0 f   LIBCMT:lowhelpr.obj
 0001:00075ee7       __NLG_Return               00476ee7     LIBCMT:lowhelpr.obj
 0001:00075f0c       ___report_gsfailure        00476f0c f   LIBCMT:gs_report.obj
 0001:00076012       __freebuf                  00477012 f   LIBCMT:_freebuf.obj
 0001:00076043       ___iob_func                00477043 f   LIBCMT:_file.obj
 0001:00076049       ___initstdio               00477049 f   LIBCMT:_file.obj
 0001:000760fa       ___endstdio                004770fa f   LIBCMT:_file.obj
 0001:0007611a       __lock_file                0047711a f   LIBCMT:_file.obj
 0001:0007615b       __lock_file2               0047715b f   LIBCMT:_file.obj
 0001:0007618d       __unlock_file              0047718d f   LIBCMT:_file.obj
 0001:000761c9       __unlock_file2             004771c9 f   LIBCMT:_file.obj
 0001:000761f8       __SEH_prolog4              004771f8 f   LIBCMT:sehprolg4.obj
 0001:0007623d       __SEH_epilog4              0047723d f   LIBCMT:sehprolg4.obj
 0001:00076260       __except_handler4          00477260 f   LIBCMT:chandler4.obj
 0001:000763ec       __stbuf                    004773ec f   LIBCMT:_sftbuf.obj
 0001:00076488       __ftbuf                    00477488 f   LIBCMT:_sftbuf.obj
 0001:00076512       __woutput_l                00477512 f   LIBCMT:woutput.obj
 0001:000770aa       __fputwc_nolock            004780aa f   LIBCMT:fputwc.obj
 0001:00077231       _wcslen                    00478231 f   LIBCMT:wcslen.obj
 0001:0007724b       __openfile                 0047824b f   LIBCMT:_open.obj
 0001:00077514       __getstream                00478514 f   LIBCMT:stream.obj
 0001:0007764c       __local_unwind4            0047864c f   LIBCMT:exsup4.obj
 0001:00077722       __seh_longjmp_unwind4@4    00478722 f   LIBCMT:exsup4.obj
 0001:0007773e       @_EH4_CallFilterFunc@8     0047873e f   LIBCMT:exsup4.obj
 0001:00077755       @_EH4_TransferToHandler@8  00478755 f   LIBCMT:exsup4.obj
 0001:0007776e       @_EH4_GlobalUnwind@4       0047876e f   LIBCMT:exsup4.obj
 0001:00077788       @_EH4_LocalUnwind@16       00478788 f   LIBCMT:exsup4.obj
 0001:0007779f       __heap_init                0047879f f   LIBCMT:heapinit.obj
 0001:000777cf       __mtinitlocks              004787cf f   LIBCMT:mlock.obj
 0001:0007781a       __mtdeletelocks            0047881a f   LIBCMT:mlock.obj
 0001:00077871       __unlock                   00478871 f   LIBCMT:mlock.obj
 0001:00077888       __mtinitlocknum            00478888 f   LIBCMT:mlock.obj
 0001:0007794b       __lock                     0047894b f   LIBCMT:mlock.obj
 0001:0007797e       ___sbh_find_block          0047897e f   LIBCMT:sbheap.obj
 0001:000779ae       ___sbh_free_block          004789ae f   LIBCMT:sbheap.obj
 0001:00077cc4       ___sbh_alloc_new_region    00478cc4 f   LIBCMT:sbheap.obj
 0001:00077d74       ___sbh_alloc_new_group     00478d74 f   LIBCMT:sbheap.obj
 0001:00077e7c       ___sbh_resize_block        00478e7c f   LIBCMT:sbheap.obj
 0001:0007815d       ___sbh_alloc_block         0047915d f   LIBCMT:sbheap.obj
 0001:00078442       __msize                    00479442 f   LIBCMT:msize.obj
 0001:0007853c       __VEC_memzero              0047953c f   LIBCMT:p4_memset.obj
 0001:0007861b       __get_sse2_info            0047961b f   LIBCMT:cpu_disp.obj
 0001:0007867d       ___sse2_available_init     0047967d f   LIBCMT:cpu_disp.obj
 0001:0007868a       __flsbuf                   0047968a f   LIBCMT:_flsbuf.obj
 0001:00078847       __output_l                 00479847 f   LIBCMT:output.obj
 0001:000793df       __vsnprintf_helper         0047a3df f   LIBCMT:vsnprnc.obj
 0001:000794ab       __vsprintf_s_l             0047a4ab f   LIBCMT:vsnprnc.obj
 0001:00079533       __calloc_impl              0047a533 f   LIBCMT:calloc_impl.obj
 0001:00079651       _realloc                   0047a651 f   LIBCMT:realloc.obj
 0001:00079936       __input_l                  0047a936 f   LIBCMT:input.obj
 0001:0007a8f3       __RTC_Initialize           0047b8f3 f   LIBCMT:_initsect_.obj
 0001:0007a919       __RTC_Terminate            0047b919 f   LIBCMT:_initsect_.obj
 0001:0007a93f       __initp_misc_cfltcvt_tab   0047b93f f   LIBCMT:cmiscdat.obj
 0001:0007a960       __ValidateImageBase        0047b960 f   LIBCMT:pesect.obj
 0001:0007a9a0       __FindPESection            0047b9a0 f   LIBCMT:pesect.obj
 0001:0007a9f0       __IsNonwritableInCurrentImage 0047b9f0 f   LIBCMT:pesect.obj
 0001:0007aaad       __XcptFilter               0047baad f   LIBCMT:winxfltr.obj
 0001:0007ac0d       __initp_misc_winsig        0047bc0d f   LIBCMT:winsig.obj
 0001:0007ac62       ___get_sigabrt             0047bc62 f   LIBCMT:winsig.obj
 0001:0007ac6f       _raise                     0047bc6f f   LIBCMT:winsig.obj
 0001:0007ae1f       __initp_misc_rand_s        0047be1f f   LIBCMT:rand_s.obj
 0001:0007ae2e       __initp_misc_initcrit      0047be2e f   LIBCMT:initcrit.obj
 0001:0007ae3d       ___crtInitCritSecAndSpinCount 0047be3d f   LIBCMT:initcrit.obj
 0001:0007b0c3       ___updatetmbcinfo          0047c0c3 f   LIBCMT:mbctype.obj
 0001:0007b1e3       __setmbcp_nolock           0047c1e3 f   LIBCMT:mbctype.obj
 0001:0007b3c8       __setmbcp                  0047c3c8 f   LIBCMT:mbctype.obj
 0001:0007b562       ___initmbctable            0047c562 f   LIBCMT:mbctype.obj
 0001:0007b580       __isleadbyte_l             0047c580 f i LIBCMT:_wctype.obj
 0001:0007b5b8       _isleadbyte                0047c5b8 f i LIBCMT:_wctype.obj
 0001:0007b5cb       __isctype_l                0047c5cb f   LIBCMT:isctype.obj
 0001:0007b683       __ioinit                   0047c683 f   LIBCMT:ioinit.obj
 0001:0007b8d7       __fwrite_nolock            0047c8d7 f   LIBCMT:fwrite.obj
 0001:0007ba39       __forcdecpt_l              0047ca39 f   LIBCMT:cvt.obj
 0001:0007baac       __cropzeros_l              0047caac f   LIBCMT:cvt.obj
 0001:0007bb2e       __positive                 0047cb2e f   LIBCMT:cvt.obj
 0001:0007bb4a       __fassign_l                0047cb4a f   LIBCMT:cvt.obj
 0001:0007bb8c       __fassign                  0047cb8c f   LIBCMT:cvt.obj
 0001:0007bbc5       __forcdecpt                0047cbc5 f   LIBCMT:cvt.obj
 0001:0007bbd8       __cropzeros                0047cbd8 f   LIBCMT:cvt.obj
 0001:0007bd5a       __cftoe_l                  0047cd5a f   LIBCMT:cvt.obj
 0001:0007be2a       __cftoe                    0047ce2a f   LIBCMT:cvt.obj
 0001:0007be4a       __cftoa_l                  0047ce4a f   LIBCMT:cvt.obj
 0001:0007c2b4       __cftof_l                  0047d2b4 f   LIBCMT:cvt.obj
 0001:0007c36f       __cftog_l                  0047d36f f   LIBCMT:cvt.obj
 0001:0007c469       __cfltcvt_l                0047d469 f   LIBCMT:cvt.obj
 0001:0007c4f1       __cfltcvt                  0047d4f1 f   LIBCMT:cvt.obj
 0001:0007c514       __setdefaultprecision      0047d514 f   LIBCMT:fp8.obj
 0001:0007c53f       __ms_p5_test_fdiv          0047d53f f   LIBCMT:_testfdiv_.obj
 0001:0007c57d       __ms_p5_mp_test_fdiv       0047d57d f   LIBCMT:_testfdiv_.obj
 0001:0007c62d       __VEC_memcpy               0047d62d f   LIBCMT:p4_memcpy.obj
 0001:0007c710       __putwch_nolock            0047d710 f   LIBCMT:putwch.obj
 0001:0007c7d5       __mbtowc_l                 0047d7d5 f   LIBCMT:mbtowc.obj
 0001:0007c8ec       _mbtowc                    0047d8ec f   LIBCMT:mbtowc.obj
 0001:0007c906       __isatty                   0047d906 f   LIBCMT:isatty.obj
 0001:0007c96a       __lseeki64_nolock          0047d96a f   LIBCMT:lseeki64.obj
 0001:0007c9ef       __lseeki64                 0047d9ef f   LIBCMT:lseeki64.obj
 0001:0007d227       __sopen_helper             0047e227 f   LIBCMT:open.obj
 0001:0007d2f3       __sopen_s                  0047e2f3 f   LIBCMT:open.obj
 0001:0007d320       __aulldiv                  0047e320 f   LIBCMT:ulldiv.obj
 0001:0007d388       ___libm_error_support      0047e388 f   LIBCMT:_libm_error_.obj
 0001:0007d638       __sse2_mathfcns_init       0047e638 f   LIBCMT:_mathfcns_.obj
 0001:0007d64c       __ceil_default             0047e64c f   LIBCMT:_ceil_.obj
 0001:0007d721       __floor_default            0047e721 f   LIBCMT:_floor_.obj
 0001:0007d7f6       __commit                   0047e7f6 f   LIBCMT:commit.obj
 0001:0007d8d7       __towlower_l               0047e8d7 f   LIBCMT:towlower.obj
 0001:0007da66       __winput_l                 0047ea66 f   LIBCMT:winput.obj
 0001:0007eb67       __winput_s_l               0047fb67 f   LIBCMT:winputs.obj
 0001:0007fd88       __filbuf                   00480d88 f   LIBCMT:_filbuf.obj
 0001:0007feb3       __read_nolock              00480eb3 f   LIBCMT:read.obj
 0001:00080475       __read                     00481475 f   LIBCMT:read.obj
 0001:00080572       ___loctotime64_t           00481572 f   LIBCMT:dtoxtm64.obj
 0001:000807dd       __fullpath                 004817dd f   LIBCMT:fullpath.obj
 0001:000808e7       ___dtoxmode                004818e7 f   LIBCMT:stat.obj
 0001:000809a4       __getdrive                 004819a4 f   LIBCMT:drive.obj
 0001:00080a6d       __mbctolower_l             00481a6d f   LIBCMT:mbtolwr.obj
 0001:00080b13       __mbctolower               00481b13 f   LIBCMT:mbtolwr.obj
 0001:00080b26       __mbspbrk_l                00481b26 f   LIBCMT:mbspbrk.obj
 0001:00080bf3       __mbspbrk                  00481bf3 f   LIBCMT:mbspbrk.obj
 0001:00080c0a       _strnlen                   00481c0a f   LIBCMT:strlen_s.obj
 0001:00080c30       __alloca_probe_16          00481c30 f   LIBCMT:alloca16.obj
 0001:00080c46       __alloca_probe_8           00481c46     LIBCMT:alloca16.obj
 0001:00080cae       __woutput_s_l              00481cae f   LIBCMT:woutputs.obj
 0001:0008184e       ?__CxxUnhandledExceptionFilter@@YGJPAU_EXCEPTION_POINTERS@@@Z 0048284e f   LIBCMT:unhandld.obj
 0001:00081890       ___CxxSetUnhandledExceptionFilter 00482890 f   LIBCMT:unhandld.obj
 0001:0008189e       __wincmdln                 0048289e f   LIBCMT:wincmdln.obj
 0001:000818fd       __setenvp                  004828fd f   LIBCMT:stdenvp.obj
 0001:00081b75       __setargv                  00482b75 f   LIBCMT:stdargv.obj
 0001:00081c30       ___crtGetEnvironmentStringsA 00482c30 f   LIBCMT:a_env.obj
 0001:00081d67       ___security_init_cookie    00482d67 f   LIBCMT:gs_support.obj
 0001:00081dfd       ___ansicp                  00482dfd f   LIBCMT:convrtcp.obj
 0001:00081e46       ___convertcp               00482e46 f   LIBCMT:convrtcp.obj
 0001:000821b4       ___crtGetStringTypeA       004831b4 f   LIBCMT:a_str.obj
 0001:00082611       ___free_lc_time            00483611 f   LIBCMT:inittime.obj
 0001:000827a6       ___init_time               004837a6 f   LIBCMT:inittime.obj
 0001:0008281f       ___free_lconv_num          0048381f f   LIBCMT:initnum.obj
 0001:00082864       ___init_numeric            00483864 f   LIBCMT:initnum.obj
 0001:00082a2e       ___free_lconv_mon          00483a2e f   LIBCMT:initmon.obj
 0001:00082abc       ___init_monetary           00483abc f   LIBCMT:initmon.obj
 0001:00082d82       _strncpy_s                 00483d82 f   LIBCMT:strncpy_s.obj
 0001:000833f2       ___get_qualified_locale    004843f2 f   LIBCMT:getqloc.obj
 0001:000835e3       _memcmp                    004845e3 f   LIBCMT:memcmp.obj
 0001:00084c70       _strpbrk                   00485c70 f   LIBCMT:strpbrk.obj
 0001:00084cb0       ?_ValidateRead@@YAHPBXI@Z  00485cb0 f   LIBCMT:validate.obj
 0001:00084cb0       ?_ValidateExecute@@YAHP6GHXZ@Z 00485cb0 f   LIBCMT:validate.obj
 0001:00084cb0       ?_ValidateWrite@@YAHPAXI@Z 00485cb0 f   LIBCMT:validate.obj
 0001:00084cd0       __aulldvrm                 00485cd0 f   LIBCMT:ulldvrm.obj
 0001:00084d65       ___crtMessageBoxA          00485d65 f   LIBCMT:crtmbox.obj
 0001:00084ece       __set_error_mode           00485ece f   LIBCMT:errmode.obj
 0001:00084f19       ___crtGetLocaleInfoW       00485f19 f   LIBCMT:w_loc.obj
 0001:0008508c       ___crtGetLocaleInfoA       0048608c f   LIBCMT:a_loc.obj
 0001:000850cc       __global_unwind2           004860cc f   LIBCMT:exsup.obj
 0001:00085131       __local_unwind2            00486131 f   LIBCMT:exsup.obj
 0001:000851b5       __abnormal_termination     004861b5 f   LIBCMT:exsup.obj
 0001:000851d8       __NLG_Notify1              004861d8 f   LIBCMT:exsup.obj
 0001:000851e1       __NLG_Notify               004861e1 f   LIBCMT:exsup.obj
 0001:000851f8       __NLG_Dispatch             004861f8     LIBCMT:exsup.obj
 0001:000851f8       __NLG_Dispatch2            004861f8     LIBCMT:exsup.obj
 0001:00085200       __NLG_Call                 00486200 f   LIBCMT:exsup.obj
 0001:00085202       __NLG_Return2              00486202     LIBCMT:exsup.obj
 0001:00085203       __fcloseall                00486203 f   LIBCMT:closeall.obj
 0001:000852a2       __get_printf_count_output  004862a2 f   LIBCMT:printf.obj
 0001:000852b8       __flswbuf                  004862b8 f   LIBCMT:_flswbuf.obj
 0001:0008542c       __wctomb_s_l               0048642c f   LIBCMT:wctomb.obj
 0001:00085598       _wctomb_s                  00486598 f   LIBCMT:wctomb.obj
 0001:000855b5       __mbsnbicmp_l              004865b5 f   LIBCMT:mbsnbicm.obj
 0001:000857e0       __mbsnbicmp                004867e0 f   LIBCMT:mbsnbicm.obj
 0001:000857fa       __mbsnbcmp_l               004867fa f   LIBCMT:mbsnbcmp.obj
 0001:00085964       __mbsnbcmp                 00486964 f   LIBCMT:mbsnbcmp.obj
 0001:0008597e       __getbuf                   0048697e f   LIBCMT:_getbuf.obj
 0001:00085a14       __output_s_l               00486a14 f   LIBCMT:outputs.obj
 0001:000865e4       __ungetc_nolock            004875e4 f   LIBCMT:ungetc.obj
 0001:000866d5       _ungetc                    004876d5 f   LIBCMT:ungetc.obj
 0001:00086747       __fptrap                   00487747 f   LIBCMT:crt0fp.obj
 0001:00086750       __iswctype_l               00487750 f   LIBCMT:iswctype.obj
 0001:000867da       _iswctype                  004877da f   LIBCMT:iswctype.obj
 0001:00086850       __atodbl_l                 00487850 f   LIBCMT:atodbl.obj
 0001:000868f8       __atoflt_l                 004878f8 f   LIBCMT:atodbl.obj
 0001:000869a0       __fptostr                  004879a0 f   LIBCMT:_fptostr.obj
 0001:00086a5f       ___dtold                   00487a5f f   LIBCMT:_cfout_.obj
 0001:00086b1c       __fltout2                  00487b1c f   LIBCMT:_cfout_.obj
 0001:00086bb0       __alldvrm                  00487bb0 f   LIBCMT:lldvrm.obj
 0001:00086c8f       __controlfp_s              00487c8f f   LIBCMT:_contrlfp_.obj
 0001:00086cfb       ___initconout              00487cfb f   LIBCMT:initcon.obj
 0001:00086d1a       ___termcon                 00487d1a f   LIBCMT:initcon.obj
 0001:00086d47       __chsize_nolock            00487d47 f   LIBCMT:chsize.obj
 0001:00086efd       __lseek_nolock             00487efd f   LIBCMT:lseek.obj
 0001:00086f72       __setmode_nolock           00487f72 f   LIBCMT:setmode.obj
 0001:0008702e       __get_fmode                0048802e f   LIBCMT:setmode.obj
 0001:00087067       ___init_dummy              00488067 f   LIBCMT:setlocal.obj
 0001:00087067       ___init_collate            00488067 f   LIBCMT:initcoll.obj
 0001:00087067       __matherr                  00488067 f   LIBCMT:_matherr_.obj
 0001:0008706a       __raise_exc_ex             0048806a f   LIBCMT:_fpexcept_.obj
 0001:00087346       __raise_exc                00488346 f   LIBCMT:_fpexcept_.obj
 0001:00087369       __handle_exc               00488369 f   LIBCMT:_fpexcept_.obj
 0001:0008754b       __set_errno_from_matherr   0048854b f   LIBCMT:_fpexcept_.obj
 0001:00087578       __errcode                  00488578 f   LIBCMT:_fpexcept_.obj
 0001:000875ac       __umatherr                 004885ac f   LIBCMT:_fpexcept_.obj
 0001:0008764c       __handle_qnan1             0048864c f   LIBCMT:_fpexcept_.obj
 0001:000876a1       __except1                  004886a1 f   LIBCMT:_fpexcept_.obj
 0001:0008776a       __frnd                     0048876a f   LIBCMT:_frnd_.obj
 0001:0008777e       __set_exp                  0048877e f   LIBCMT:_util_.obj
 0001:000877aa       __sptype                   004887aa f   LIBCMT:_util_.obj
 0001:0008780a       __decomp                   0048880a f   LIBCMT:_util_.obj
 0001:000878c3       __statfp                   004888c3 f   LIBCMT:_fpctrl_.obj
 0001:000878d3       __clrfp                    004888d3 f   LIBCMT:_fpctrl_.obj
 0001:000878e4       __ctrlfp                   004888e4 f   LIBCMT:_fpctrl_.obj
 0001:0008790d       __set_statfp               0048890d f   LIBCMT:_fpctrl_.obj
 0001:00087965       ___set_fpsr_sse2           00488965 f   LIBCMT:_fpctrl_.obj
 0001:000879d7       __fgetwc_nolock            004889d7 f   LIBCMT:fgetwc.obj
 0001:00087b82       __ungetwc_nolock           00488b82 f   LIBCMT:ungetwc.obj
 0001:00087d3c       __wcstombs_l_helper        00488d3c f   LIBCMT:wcstombs.obj
 0001:00087f7e       __wcstombs_s_l             00488f7e f   LIBCMT:wcstombs.obj
 0001:00088038       _wcstombs_s                00489038 f   LIBCMT:wcstombs.obj
 0001:00088058       __set_daylight             00489058 f i LIBCMT:tzset.obj
 0001:00088069       __set_dstbias              00489069 f i LIBCMT:tzset.obj
 0001:0008807a       __set_timezone             0048907a f i LIBCMT:tzset.obj
 0001:000887a0       ___tzset                   004897a0 f   LIBCMT:tzset.obj
 0001:000887ef       __isindst                  004897ef f   LIBCMT:tzset.obj
 0001:00088830       __get_daylight             00489830 f   LIBCMT:timeset.obj
 0001:00088869       __get_dstbias              00489869 f   LIBCMT:timeset.obj
 0001:000888a2       __get_timezone             004898a2 f   LIBCMT:timeset.obj
 0001:000888db       ___daylight                004898db f   LIBCMT:timeset.obj
 0001:000888e1       ___dstbias                 004898e1 f   LIBCMT:timeset.obj
 0001:000888e7       ___timezone                004898e7 f   LIBCMT:timeset.obj
 0001:000888ed       ___tzname                  004898ed f   LIBCMT:timeset.obj
 0001:000888f3       __validdrive               004898f3 f   LIBCMT:getcwd.obj
 0001:0008892c       __getdcwd_nolock           0048992c f   LIBCMT:getcwd.obj
 0001:00088a63       __getcwd                   00489a63 f   LIBCMT:getcwd.obj
 0001:00088aac       __mbsicmp_l                00489aac f   LIBCMT:mbsicmp.obj
 0001:00088cd2       __mbsicmp                  00489cd2 f   LIBCMT:mbsicmp.obj
 0001:00088ce9       __mbsrchr_l                00489ce9 f   LIBCMT:mbsrchr.obj
 0001:00088da5       __mbsrchr                  00489da5 f   LIBCMT:mbsrchr.obj
 0001:00088e0f       __ismbblead                00489e0f f   LIBCMT:ismbbyte.obj
 0001:00088e27       __strnicmp_l               00489e27 f   LIBCMT:strnicmp.obj
 0001:00088f19       __strnicmp                 00489f19 f   LIBCMT:strnicmp.obj
 0001:00088f77       __ld12tod                  00489f77 f   LIBCMT:_intrncvt_.obj
 0001:000894bb       __ld12tof                  0048a4bb f   LIBCMT:_intrncvt_.obj
 0001:000899ff       ___strgtold12_l            0048a9ff f   LIBCMT:_strgtold_.obj
 0001:0008a0f7       _$I10_OUTPUT               0048b0f7 f   LIBCMT:_x10fout_.obj
 0001:0008ab49       __control87                0048bb49 f i LIBCMT:_ieee87_.obj
 0001:0008ae58       __filwbuf                  0048be58 f   LIBCMT:_filwbuf.obj
 0001:0008af91       __getenv_helper_nolock     0048bf91 f   LIBCMT:getenv.obj
 0001:0008b020       ___ascii_strnicmp          0048c020 f   LIBCMT:_strnicm.obj
 0001:0008b081       ___mtold12                 0048c081 f   LIBCMT:_mantold_.obj
 0001:0008b24f       __mbsnbicoll_l             0048c24f f   LIBCMT:mbsnbico.obj
 0001:0008b33d       __mbsnbicoll               0048c33d f   LIBCMT:mbsnbico.obj
 0001:0008b357       ___wtomb_environ           0048c357 f   LIBCMT:wtombenv.obj
 0001:0008b77c       ___crtCompareStringA       0048c77c f   LIBCMT:a_cmp.obj
 0001:0008b7be       __strnicoll_l              0048c7be f   LIBCMT:strnicol.obj
 0001:0008b964       ___crtsetenv               0048c964 f   LIBCMT:setenv.obj
 0001:0008bbaf       __strdup                   0048cbaf f   LIBCMT:strdup.obj
 0001:0008bc04       __mbschr_l                 0048cc04 f   LIBCMT:mbschr.obj
 0001:0008bcc0       __mbschr                   0048ccc0 f   LIBCMT:mbschr.obj
 0001:0008bcd8       _RtlUnwind@16              0048ccd8 f   kernel32:KERNEL32.dll
 0002:00000000       __imp__RegisterEventSourceA@8 00492000     advapi32:ADVAPI32.dll
 0002:00000004       __imp__GetTokenInformation@20 00492004     advapi32:ADVAPI32.dll
 0002:00000008       __imp__IsWellKnownSid@8    00492008     advapi32:ADVAPI32.dll
 0002:0000000c       __imp__RegDeleteValueA@8   0049200c     advapi32:ADVAPI32.dll
 0002:00000010       __imp__RegDeleteKeyA@8     00492010     advapi32:ADVAPI32.dll
 0002:00000014       __imp__RegCreateKeyExA@36  00492014     advapi32:ADVAPI32.dll
 0002:00000018       __imp__CryptAcquireContextA@20 00492018     advapi32:ADVAPI32.dll
 0002:0000001c       __imp__CryptGenRandom@12   0049201c     advapi32:ADVAPI32.dll
 0002:00000020       __imp__CryptReleaseContext@8 00492020     advapi32:ADVAPI32.dll
 0002:00000024       __imp__RegEnumKeyExA@32    00492024     advapi32:ADVAPI32.dll
 0002:00000028       __imp__QueryServiceStatus@8 00492028     advapi32:ADVAPI32.dll
 0002:0000002c       __imp__ControlService@12   0049202c     advapi32:ADVAPI32.dll
 0002:00000030       __imp__OpenProcessToken@12 00492030     advapi32:ADVAPI32.dll
 0002:00000034       __imp__StartServiceA@12    00492034     advapi32:ADVAPI32.dll
 0002:00000038       __imp__RegOpenKeyExA@20    00492038     advapi32:ADVAPI32.dll
 0002:0000003c       __imp__RegQueryValueExA@24 0049203c     advapi32:ADVAPI32.dll
 0002:00000040       __imp__RegSetValueExA@24   00492040     advapi32:ADVAPI32.dll
 0002:00000044       __imp__ChangeServiceConfigA@44 00492044     advapi32:ADVAPI32.dll
 0002:00000048       __imp__OpenSCManagerA@12   00492048     advapi32:ADVAPI32.dll
 0002:0000004c       __imp__CreateServiceA@52   0049204c     advapi32:ADVAPI32.dll
 0002:00000050       __imp__ChangeServiceConfig2A@12 00492050     advapi32:ADVAPI32.dll
 0002:00000054       __imp__OpenServiceA@12     00492054     advapi32:ADVAPI32.dll
 0002:00000058       __imp__DeleteService@4     00492058     advapi32:ADVAPI32.dll
 0002:0000005c       __imp__RegCloseKey@4       0049205c     advapi32:ADVAPI32.dll
 0002:00000060       __imp__SetServiceStatus@8  00492060     advapi32:ADVAPI32.dll
 0002:00000064       __imp__DeregisterEventSource@4 00492064     advapi32:ADVAPI32.dll
 0002:00000068       __imp__ReportEventA@36     00492068     advapi32:ADVAPI32.dll
 0002:0000006c       __imp__RegisterServiceCtrlHandlerA@8 0049206c     advapi32:ADVAPI32.dll
 0002:00000070       __imp__StartServiceCtrlDispatcherA@4 00492070     advapi32:ADVAPI32.dll
 0002:00000074       __imp__CloseServiceHandle@4 00492074     advapi32:ADVAPI32.dll
 0002:00000078       \177ADVAPI32_NULL_THUNK_DATA 00492078     advapi32:ADVAPI32.dll
 0002:0000007c       __imp__InitCommonControls@0 0049207c     comctl32:COMCTL32.dll
 0002:00000080       __imp__ImageList_Create@20 00492080     comctl32:COMCTL32.dll
 0002:00000084       __imp__ImageList_Add@12    00492084     comctl32:COMCTL32.dll
 0002:00000088       \177COMCTL32_NULL_THUNK_DATA 00492088     comctl32:COMCTL32.dll
 0002:0000008c       __imp__GetSaveFileNameW@4  0049208c     comdlg32:COMDLG32.dll
 0002:00000090       __imp__GetOpenFileNameW@4  00492090     comdlg32:COMDLG32.dll
 0002:00000094       \177COMDLG32_NULL_THUNK_DATA 00492094     comdlg32:COMDLG32.dll
 0002:00000098       __imp__LineTo@12           00492098     gdi32:GDI32.dll
 0002:0000009c       __imp__GetCurrentObject@8  0049209c     gdi32:GDI32.dll
 0002:000000a0       __imp__GetObjectA@12       004920a0     gdi32:GDI32.dll
 0002:000000a4       __imp__CreateCompatibleBitmap@12 004920a4     gdi32:GDI32.dll
 0002:000000a8       __imp__SetStretchBltMode@8 004920a8     gdi32:GDI32.dll
 0002:000000ac       __imp__StretchBlt@44       004920ac     gdi32:GDI32.dll
 0002:000000b0       __imp__MoveToEx@16         004920b0     gdi32:GDI32.dll
 0002:000000b4       __imp__BitBlt@36           004920b4     gdi32:GDI32.dll
 0002:000000b8       __imp__CreateCompatibleDC@4 004920b8     gdi32:GDI32.dll
 0002:000000bc       __imp__SetMapMode@8        004920bc     gdi32:GDI32.dll
 0002:000000c0       __imp__CreateFontIndirectW@4 004920c0     gdi32:GDI32.dll
 0002:000000c4       __imp__GetDeviceCaps@8     004920c4     gdi32:GDI32.dll
 0002:000000c8       __imp__SelectObject@8      004920c8     gdi32:GDI32.dll
 0002:000000cc       __imp__GetTextExtentPoint32W@16 004920cc     gdi32:GDI32.dll
 0002:000000d0       __imp__GetTextMetricsA@8   004920d0     gdi32:GDI32.dll
 0002:000000d4       __imp__CreatePen@12        004920d4     gdi32:GDI32.dll
 0002:000000d8       __imp__GetStockObject@4    004920d8     gdi32:GDI32.dll
 0002:000000dc       __imp__DeleteDC@4          004920dc     gdi32:GDI32.dll
 0002:000000e0       __imp__DeleteObject@4      004920e0     gdi32:GDI32.dll
 0002:000000e4       \177GDI32_NULL_THUNK_DATA  004920e4     gdi32:GDI32.dll
 0002:000000e8       __imp__DeleteVolumeMountPointA@4 004920e8     kernel32:KERNEL32.dll
 0002:000000ec       __imp__GetVolumeNameForVolumeMountPointA@12 004920ec     kernel32:KERNEL32.dll
 0002:000000f0       __imp__SystemTimeToFileTime@8 004920f0     kernel32:KERNEL32.dll
 0002:000000f4       __imp__GetSystemTime@4     004920f4     kernel32:KERNEL32.dll
 0002:000000f8       __imp__CopyFileA@12        004920f8     kernel32:KERNEL32.dll
 0002:000000fc       __imp__GetTempPathA@8      004920fc     kernel32:KERNEL32.dll
 0002:00000100       __imp__GetDriveTypeA@4     00492100     kernel32:KERNEL32.dll
 0002:00000104       __imp__GetShortPathNameA@12 00492104     kernel32:KERNEL32.dll
 0002:00000108       __imp__GetVolumeInformationA@32 00492108     kernel32:KERNEL32.dll
 0002:0000010c       __imp__GetVolumePathNameA@12 0049210c     kernel32:KERNEL32.dll
 0002:00000110       __imp__FindNextVolumeW@12  00492110     kernel32:KERNEL32.dll
 0002:00000114       __imp__QueryDosDeviceW@12  00492114     kernel32:KERNEL32.dll
 0002:00000118       __imp__FindFirstVolumeW@8  00492118     kernel32:KERNEL32.dll
 0002:0000011c       __imp__WriteFile@20        0049211c     kernel32:KERNEL32.dll
 0002:00000120       __imp__LocalFree@4         00492120     kernel32:KERNEL32.dll
 0002:00000124       __imp__VirtualUnlock@8     00492124     kernel32:KERNEL32.dll
 0002:00000128       __imp__DefineDosDeviceA@12 00492128     kernel32:KERNEL32.dll
 0002:0000012c       __imp__GetCurrentProcessId@0 0049212c     kernel32:KERNEL32.dll
 0002:00000130       __imp__VirtualQuery@12     00492130     kernel32:KERNEL32.dll
 0002:00000134       __imp__ReleaseMutex@4      00492134     kernel32:KERNEL32.dll
 0002:00000138       __imp__OpenMutexA@12       00492138     kernel32:KERNEL32.dll
 0002:0000013c       __imp__GetVersionExA@4     0049213c     kernel32:KERNEL32.dll
 0002:00000140       __imp__GetVolumeInformationW@32 00492140     kernel32:KERNEL32.dll
 0002:00000144       __imp__QueryPerformanceCounter@4 00492144     kernel32:KERNEL32.dll
 0002:00000148       __imp__QueryPerformanceFrequency@4 00492148     kernel32:KERNEL32.dll
 0002:0000014c       __imp__SetFilePointer@16   0049214c     kernel32:KERNEL32.dll
 0002:00000150       __imp__FlushFileBuffers@4  00492150     kernel32:KERNEL32.dll
 0002:00000154       __imp__GetModuleFileNameW@12 00492154     kernel32:KERNEL32.dll
 0002:00000158       __imp__GetFileSize@8       00492158     kernel32:KERNEL32.dll
 0002:0000015c       __imp__GetModuleHandleA@4  0049215c     kernel32:KERNEL32.dll
 0002:00000160       __imp__GetCurrentProcess@0 00492160     kernel32:KERNEL32.dll
 0002:00000164       __imp__GetCurrentDirectoryA@8 00492164     kernel32:KERNEL32.dll
 0002:00000168       __imp__LockResource@4      00492168     kernel32:KERNEL32.dll
 0002:0000016c       __imp__SizeofResource@8    0049216c     kernel32:KERNEL32.dll
 0002:00000170       __imp__LoadResource@8      00492170     kernel32:KERNEL32.dll
 0002:00000174       __imp__FindResourceA@12    00492174     kernel32:KERNEL32.dll
 0002:00000178       __imp__GetFileAttributesA@4 00492178     kernel32:KERNEL32.dll
 0002:0000017c       __imp__SetCurrentDirectoryA@4 0049217c     kernel32:KERNEL32.dll
 0002:00000180       __imp__GetDiskFreeSpaceA@20 00492180     kernel32:KERNEL32.dll
 0002:00000184       __imp__UnhandledExceptionFilter@4 00492184     kernel32:KERNEL32.dll
 0002:00000188       __imp__GetFileInformationByHandle@8 00492188     kernel32:KERNEL32.dll
 0002:0000018c       __imp__GetCurrentThread@0  0049218c     kernel32:KERNEL32.dll
 0002:00000190       __imp__SetUnhandledExceptionFilter@4 00492190     kernel32:KERNEL32.dll
 0002:00000194       __imp__SetErrorMode@4      00492194     kernel32:KERNEL32.dll
 0002:00000198       __imp__InterlockedExchangeAdd@8 00492198     kernel32:KERNEL32.dll
 0002:0000019c       __imp__InterlockedExchange@8 0049219c     kernel32:KERNEL32.dll
 0002:000001a0       __imp__SetEvent@4          004921a0     kernel32:KERNEL32.dll
 0002:000001a4       __imp__ResetEvent@4        004921a4     kernel32:KERNEL32.dll
 0002:000001a8       __imp__CreateEventA@16     004921a8     kernel32:KERNEL32.dll
 0002:000001ac       __imp__GetFileAttributesExA@12 004921ac     kernel32:KERNEL32.dll
 0002:000001b0       __imp__FindNextFileW@8     004921b0     kernel32:KERNEL32.dll
 0002:000001b4       __imp__CreateFileW@28      004921b4     kernel32:KERNEL32.dll
 0002:000001b8       __imp__FindFirstFileW@8    004921b8     kernel32:KERNEL32.dll
 0002:000001bc       __imp__DeleteCriticalSection@4 004921bc     kernel32:KERNEL32.dll
 0002:000001c0       __imp__LeaveCriticalSection@4 004921c0     kernel32:KERNEL32.dll
 0002:000001c4       __imp__EnterCriticalSection@4 004921c4     kernel32:KERNEL32.dll
 0002:000001c8       __imp__SetVolumeMountPointA@8 004921c8     kernel32:KERNEL32.dll
 0002:000001cc       __imp__GetProcessWorkingSetSize@12 004921cc     kernel32:KERNEL32.dll
 0002:000001d0       __imp__GetProcessTimes@20  004921d0     kernel32:KERNEL32.dll
 0002:000001d4       __imp__GetThreadTimes@20   004921d4     kernel32:KERNEL32.dll
 0002:000001d8       __imp__GlobalMemoryStatus@4 004921d8     kernel32:KERNEL32.dll
 0002:000001dc       __imp__GetProcessHeap@0    004921dc     kernel32:KERNEL32.dll
 0002:000001e0       __imp__InitializeCriticalSection@4 004921e0     kernel32:KERNEL32.dll
 0002:000001e4       __imp__FormatMessageW@28   004921e4     kernel32:KERNEL32.dll
 0002:000001e8       __imp__GetStringTypeA@20   004921e8     kernel32:KERNEL32.dll
 0002:000001ec       __imp__GetLocaleInfoA@16   004921ec     kernel32:KERNEL32.dll
 0002:000001f0       __imp__GetEnvironmentStringsW@0 004921f0     kernel32:KERNEL32.dll
 0002:000001f4       __imp__FreeEnvironmentStringsW@4 004921f4     kernel32:KERNEL32.dll
 0002:000001f8       __imp__GetEnvironmentStrings@0 004921f8     kernel32:KERNEL32.dll
 0002:000001fc       __imp__FreeEnvironmentStringsA@4 004921fc     kernel32:KERNEL32.dll
 0002:00000200       __imp__GetFullPathNameA@16 00492200     kernel32:KERNEL32.dll
 0002:00000204       __imp__WriteConsoleW@20    00492204     kernel32:KERNEL32.dll
 0002:00000208       __imp__GetConsoleOutputCP@0 00492208     kernel32:KERNEL32.dll
 0002:0000020c       __imp__WriteConsoleA@20    0049220c     kernel32:KERNEL32.dll
 0002:00000210       __imp__SetHandleCount@4    00492210     kernel32:KERNEL32.dll
 0002:00000214       __imp__IsValidCodePage@4   00492214     kernel32:KERNEL32.dll
 0002:00000218       __imp__GetOEMCP@0          00492218     kernel32:KERNEL32.dll
 0002:0000021c       __imp__GetACP@0            0049221c     kernel32:KERNEL32.dll
 0002:00000220       __imp__InitializeCriticalSectionAndSpinCount@8 00492220     kernel32:KERNEL32.dll
 0002:00000224       __imp__HeapSize@12         00492224     kernel32:KERNEL32.dll
 0002:00000228       __imp__HeapReAlloc@16      00492228     kernel32:KERNEL32.dll
 0002:0000022c       __imp__VirtualAlloc@16     0049222c     kernel32:KERNEL32.dll
 0002:00000230       __imp__VirtualFree@12      00492230     kernel32:KERNEL32.dll
 0002:00000234       __imp__HeapCreate@12       00492234     kernel32:KERNEL32.dll
 0002:00000238       __imp__TlsFree@4           00492238     kernel32:KERNEL32.dll
 0002:0000023c       __imp__TlsSetValue@8       0049223c     kernel32:KERNEL32.dll
 0002:00000240       __imp__TlsAlloc@0          00492240     kernel32:KERNEL32.dll
 0002:00000244       __imp__TlsGetValue@4       00492244     kernel32:KERNEL32.dll
 0002:00000248       __imp__GetStdHandle@4      00492248     kernel32:KERNEL32.dll
 0002:0000024c       __imp__GetStringTypeW@16   0049224c     kernel32:KERNEL32.dll
 0002:00000250       __imp__GetCPInfo@8         00492250     kernel32:KERNEL32.dll
 0002:00000254       __imp__LCMapStringW@24     00492254     kernel32:KERNEL32.dll
 0002:00000258       __imp__LCMapStringA@24     00492258     kernel32:KERNEL32.dll
 0002:0000025c       __imp__FileTimeToLocalFileTime@8 0049225c     kernel32:KERNEL32.dll
 0002:00000260       __imp__FileTimeToSystemTime@8 00492260     kernel32:KERNEL32.dll
 0002:00000264       __imp__CreateThread@24     00492264     kernel32:KERNEL32.dll
 0002:00000268       __imp__ResumeThread@4      00492268     kernel32:KERNEL32.dll
 0002:0000026c       __imp__ExitThread@4        0049226c     kernel32:KERNEL32.dll
 0002:00000270       __imp__GetFileType@4       00492270     kernel32:KERNEL32.dll
 0002:00000274       __imp__SetStdHandle@8      00492274     kernel32:KERNEL32.dll
 0002:00000278       __imp__GetSystemTimeAsFileTime@4 00492278     kernel32:KERNEL32.dll
 0002:0000027c       __imp__GetFileAttributesW@4 0049227c     kernel32:KERNEL32.dll
 0002:00000280       __imp__GetConsoleMode@8    00492280     kernel32:KERNEL32.dll
 0002:00000284       __imp__GetConsoleCP@0      00492284     kernel32:KERNEL32.dll
 0002:00000288       __imp__HeapAlloc@12        00492288     kernel32:KERNEL32.dll
 0002:0000028c       __imp__ExitProcess@4       0049228c     kernel32:KERNEL32.dll
 0002:00000290       __imp__GetModuleHandleW@4  00492290     kernel32:KERNEL32.dll
 0002:00000294       __imp__HeapFree@12         00492294     kernel32:KERNEL32.dll
 0002:00000298       __imp__RtlUnwind@16        00492298     kernel32:KERNEL32.dll
 0002:0000029c       __imp__RaiseException@16   0049229c     kernel32:KERNEL32.dll
 0002:000002a0       __imp__IsDebuggerPresent@0 004922a0     kernel32:KERNEL32.dll
 0002:000002a4       __imp__TerminateProcess@8  004922a4     kernel32:KERNEL32.dll
 0002:000002a8       __imp__InterlockedCompareExchange@12 004922a8     kernel32:KERNEL32.dll
 0002:000002ac       __imp__GetWindowsDirectoryA@8 004922ac     kernel32:KERNEL32.dll
 0002:000002b0       __imp__WaitForSingleObject@8 004922b0     kernel32:KERNEL32.dll
 0002:000002b4       __imp__GetExitCodeProcess@8 004922b4     kernel32:KERNEL32.dll
 0002:000002b8       __imp__CreatePipe@16       004922b8     kernel32:KERNEL32.dll
 0002:000002bc       __imp__SetHandleInformation@12 004922bc     kernel32:KERNEL32.dll
 0002:000002c0       __imp__GetSystemInfo@4     004922c0     kernel32:KERNEL32.dll
 0002:000002c4       __imp__FindFirstFileA@8    004922c4     kernel32:KERNEL32.dll
 0002:000002c8       __imp__LoadLibraryA@4      004922c8     kernel32:KERNEL32.dll
 0002:000002cc       __imp__GetProcAddress@8    004922cc     kernel32:KERNEL32.dll
 0002:000002d0       __imp__FreeLibrary@4       004922d0     kernel32:KERNEL32.dll
 0002:000002d4       __imp__FindNextFileA@8     004922d4     kernel32:KERNEL32.dll
 0002:000002d8       __imp__FindClose@4         004922d8     kernel32:KERNEL32.dll
 0002:000002dc       __imp__SetFilePointerEx@20 004922dc     kernel32:KERNEL32.dll
 0002:000002e0       __imp__CreateFileA@28      004922e0     kernel32:KERNEL32.dll
 0002:000002e4       __imp__GetFileSizeEx@8     004922e4     kernel32:KERNEL32.dll
 0002:000002e8       __imp__GetFileTime@16      004922e8     kernel32:KERNEL32.dll
 0002:000002ec       __imp__ReadFile@20         004922ec     kernel32:KERNEL32.dll
 0002:000002f0       __imp__SetEnvironmentVariableA@8 004922f0     kernel32:KERNEL32.dll
 0002:000002f4       __imp__SetFileTime@16      004922f4     kernel32:KERNEL32.dll
 0002:000002f8       __imp__SetLastError@4      004922f8     kernel32:KERNEL32.dll
 0002:000002fc       __imp__GetLogicalDrives@0  004922fc     kernel32:KERNEL32.dll
 0002:00000300       __imp__MoveFileA@8         00492300     kernel32:KERNEL32.dll
 0002:00000304       __imp__GetCommandLineA@0   00492304     kernel32:KERNEL32.dll
 0002:00000308       __imp__GetCommandLineW@0   00492308     kernel32:KERNEL32.dll
 0002:0000030c       __imp__GetTickCount@0      0049230c     kernel32:KERNEL32.dll
 0002:00000310       __imp__CreateMutexA@12     00492310     kernel32:KERNEL32.dll
 0002:00000314       __imp__Sleep@4             00492314     kernel32:KERNEL32.dll
 0002:00000318       __imp__GetSystemDirectoryA@8 00492318     kernel32:KERNEL32.dll
 0002:0000031c       __imp__CreateDirectoryA@8  0049231c     kernel32:KERNEL32.dll
 0002:00000320       __imp__VirtualLock@8       00492320     kernel32:KERNEL32.dll
 0002:00000324       __imp__GetModuleFileNameA@12 00492324     kernel32:KERNEL32.dll
 0002:00000328       __imp__CreateProcessA@40   00492328     kernel32:KERNEL32.dll
 0002:0000032c       __imp__CloseHandle@4       0049232c     kernel32:KERNEL32.dll
 0002:00000330       __imp__SetProcessShutdownParameters@8 00492330     kernel32:KERNEL32.dll
 0002:00000334       __imp__GetCurrentThreadId@0 00492334     kernel32:KERNEL32.dll
 0002:00000338       __imp__lstrlenW@4          00492338     kernel32:KERNEL32.dll
 0002:0000033c       __imp__WideCharToMultiByte@32 0049233c     kernel32:KERNEL32.dll
 0002:00000340       __imp__MultiByteToWideChar@24 00492340     kernel32:KERNEL32.dll
 0002:00000344       __imp__InterlockedIncrement@4 00492344     kernel32:KERNEL32.dll
 0002:00000348       __imp__GetLastError@0      00492348     kernel32:KERNEL32.dll
 0002:0000034c       __imp__InterlockedDecrement@4 0049234c     kernel32:KERNEL32.dll
 0002:00000350       __imp__DeviceIoControl@32  00492350     kernel32:KERNEL32.dll
 0002:00000354       __imp__FindFirstVolumeA@8  00492354     kernel32:KERNEL32.dll
 0002:00000358       __imp__QueryDosDeviceA@12  00492358     kernel32:KERNEL32.dll
 0002:0000035c       __imp__FindNextVolumeA@12  0049235c     kernel32:KERNEL32.dll
 0002:00000360       __imp__FindVolumeClose@4   00492360     kernel32:KERNEL32.dll
 0002:00000364       __imp__DeleteFileA@4       00492364     kernel32:KERNEL32.dll
 0002:00000368       __imp__GetUserDefaultLCID@0 00492368     kernel32:KERNEL32.dll
 0002:0000036c       __imp__EnumSystemLocalesA@8 0049236c     kernel32:KERNEL32.dll
 0002:00000370       __imp__IsValidLocale@8     00492370     kernel32:KERNEL32.dll
 0002:00000374       __imp__GetLocaleInfoW@16   00492374     kernel32:KERNEL32.dll
 0002:00000378       __imp__SetEndOfFile@4      00492378     kernel32:KERNEL32.dll
 0002:0000037c       __imp__GetTimeZoneInformation@4 0049237c     kernel32:KERNEL32.dll
 0002:00000380       __imp__CompareStringA@24   00492380     kernel32:KERNEL32.dll
 0002:00000384       __imp__CompareStringW@24   00492384     kernel32:KERNEL32.dll
 0002:00000388       __imp__GetStartupInfoA@4   00492388     kernel32:KERNEL32.dll
 0002:0000038c       \177KERNEL32_NULL_THUNK_DATA 0049238c     kernel32:KERNEL32.dll
 0002:00000390       __imp__SysAllocStringByteLen@8 00492390     oleaut32:OLEAUT32.dll
 0002:00000394       __imp__SysStringByteLen@4  00492394     oleaut32:OLEAUT32.dll
 0002:00000398       __imp__SysAllocStringLen@8 00492398     oleaut32:OLEAUT32.dll
 0002:0000039c       __imp__SysFreeString@4     0049239c     oleaut32:OLEAUT32.dll
 0002:000003a0       \177OLEAUT32_NULL_THUNK_DATA 004923a0     oleaut32:OLEAUT32.dll
 0002:000003a4       __imp__SetupDiOpenClassRegKey@8 004923a4     setupapi:SETUPAPI.dll
 0002:000003a8       __imp__SetupOpenInfFileA@16 004923a8     setupapi:SETUPAPI.dll
 0002:000003ac       __imp__SetupInstallFromInfSectionA@44 004923ac     setupapi:SETUPAPI.dll
 0002:000003b0       __imp__SetupCloseInfFile@4 004923b0     setupapi:SETUPAPI.dll
 0002:000003b4       \177SETUPAPI_NULL_THUNK_DATA 004923b4     setupapi:SETUPAPI.dll
 0002:000003b8       __imp__IsUserAnAdmin@0     004923b8     shell32:SHELL32.dll
 0002:000003bc       __imp__SHGetFileInfoA@20   004923bc     shell32:SHELL32.dll
 0002:000003c0       __imp__SHGetMalloc@4       004923c0     shell32:SHELL32.dll
 0002:000003c4       __imp__SHBrowseForFolderW@4 004923c4     shell32:SHELL32.dll
 0002:000003c8       __imp__SHGetPathFromIDListA@8 004923c8     shell32:SHELL32.dll
 0002:000003cc       __imp__CommandLineToArgvW@8 004923cc     shell32:SHELL32.dll
 0002:000003d0       __imp__SHGetSpecialFolderPathA@16 004923d0     shell32:SHELL32.dll
 0002:000003d4       __imp__ShellExecuteA@24    004923d4     shell32:SHELL32.dll
 0002:000003d8       __imp__SHChangeNotify@16   004923d8     shell32:SHELL32.dll
 0002:000003dc       __imp__SHGetFolderPathA@20 004923dc     shell32:SHELL32.dll
 0002:000003e0       __imp__DragAcceptFiles@8   004923e0     shell32:SHELL32.dll
 0002:000003e4       __imp__DragQueryFileA@16   004923e4     shell32:SHELL32.dll
 0002:000003e8       __imp__DragFinish@4        004923e8     shell32:SHELL32.dll
 0002:000003ec       __imp__Shell_NotifyIconA@8 004923ec     shell32:SHELL32.dll
 0002:000003f0       __imp__Shell_NotifyIconW@8 004923f0     shell32:SHELL32.dll
 0002:000003f4       __imp__ShellExecuteW@24    004923f4     shell32:SHELL32.dll
 0002:000003f8       \177SHELL32_NULL_THUNK_DATA 004923f8     shell32:SHELL32.dll
 0002:000003fc       __imp__GetClassNameA@12    004923fc     user32:USER32.dll
 0002:00000400       __imp__SetCursor@4         00492400     user32:USER32.dll
 0002:00000404       __imp__DefDlgProcA@16      00492404     user32:USER32.dll
 0002:00000408       __imp__UnregisterClassA@8  00492408     user32:USER32.dll
 0002:0000040c       __imp__LoadIconA@8         0049240c     user32:USER32.dll
 0002:00000410       __imp__RegisterClassA@4    00492410     user32:USER32.dll
 0002:00000414       __imp__GetUpdateRect@12    00492414     user32:USER32.dll
 0002:00000418       __imp__BeginPaint@8        00492418     user32:USER32.dll
 0002:0000041c       __imp__DefWindowProcA@16   0049241c     user32:USER32.dll
 0002:00000420       __imp__GetDialogBaseUnits@0 00492420     user32:USER32.dll
 0002:00000424       __imp__EndPaint@8          00492424     user32:USER32.dll
 0002:00000428       __imp__PeekMessageA@20     00492428     user32:USER32.dll
 0002:0000042c       __imp__SystemParametersInfoW@16 0049242c     user32:USER32.dll
 0002:00000430       __imp__GetSystemMenu@8     00492430     user32:USER32.dll
 0002:00000434       __imp__DestroyWindow@4     00492434     user32:USER32.dll
 0002:00000438       __imp__GetSystemMetrics@4  00492438     user32:USER32.dll
 0002:0000043c       __imp__GetWindowInfo@8     0049243c     user32:USER32.dll
 0002:00000440       __imp__MoveWindow@24       00492440     user32:USER32.dll
 0002:00000444       __imp__TrackMouseEvent@4   00492444     user32:USER32.dll
 0002:00000448       __imp__GetDC@4             00492448     user32:USER32.dll
 0002:0000044c       __imp__GetDlgCtrlID@4      0049244c     user32:USER32.dll
 0002:00000450       __imp__GetActiveWindow@0   00492450     user32:USER32.dll
 0002:00000454       __imp__GetMessagePos@0     00492454     user32:USER32.dll
 0002:00000458       __imp__EnumWindows@8       00492458     user32:USER32.dll
 0002:0000045c       __imp__RegisterWindowMessageA@4 0049245c     user32:USER32.dll
 0002:00000460       __imp__IsWindowEnabled@4   00492460     user32:USER32.dll
 0002:00000464       __imp__SystemParametersInfoA@16 00492464     user32:USER32.dll
 0002:00000468       __imp__DrawMenuBar@4       00492468     user32:USER32.dll
 0002:0000046c       __imp__PostMessageA@16     0049246c     user32:USER32.dll
 0002:00000470       __imp__GetCursorPos@4      00492470     user32:USER32.dll
 0002:00000474       __imp__MessageBeep@4       00492474     user32:USER32.dll
 0002:00000478       __imp__SetMenuItemInfoW@16 00492478     user32:USER32.dll
 0002:0000047c       __imp__GetSubMenu@8        0049247c     user32:USER32.dll
 0002:00000480       __imp__LoadBitmapA@8       00492480     user32:USER32.dll
 0002:00000484       __imp__FlashWindowEx@4     00492484     user32:USER32.dll
 0002:00000488       __imp__GetDlgItemInt@16    00492488     user32:USER32.dll
 0002:0000048c       __imp__CreatePopupMenu@0   0049248c     user32:USER32.dll
 0002:00000490       __imp__EnumChildWindows@12 00492490     user32:USER32.dll
 0002:00000494       __imp__GetKeyState@4       00492494     user32:USER32.dll
 0002:00000498       __imp__SendMessageTimeoutA@28 00492498     user32:USER32.dll
 0002:0000049c       __imp__DrawTextA@20        0049249c     user32:USER32.dll
 0002:000004a0       __imp__LoadCursorA@8       004924a0     user32:USER32.dll
 0002:000004a4       __imp__GetClassInfoA@12    004924a4     user32:USER32.dll
 0002:000004a8       __imp__SetLayeredWindowAttributes@16 004924a8     user32:USER32.dll
 0002:000004ac       __imp__CreateWindowExA@48  004924ac     user32:USER32.dll
 0002:000004b0       __imp__RegisterClassExA@4  004924b0     user32:USER32.dll
 0002:000004b4       __imp__UnhookWindowsHookEx@4 004924b4     user32:USER32.dll
 0002:000004b8       __imp__CallNextHookEx@16   004924b8     user32:USER32.dll
 0002:000004bc       __imp__GetCaretPos@4       004924bc     user32:USER32.dll
 0002:000004c0       __imp__GetInputState@0     004924c0     user32:USER32.dll
 0002:000004c4       __imp__GetQueueStatus@4    004924c4     user32:USER32.dll
 0002:000004c8       __imp__GetProcessWindowStation@0 004924c8     user32:USER32.dll
 0002:000004cc       __imp__GetOpenClipboardWindow@0 004924cc     user32:USER32.dll
 0002:000004d0       __imp__GetMessageTime@0    004924d0     user32:USER32.dll
 0002:000004d4       __imp__SetWindowsHookExA@16 004924d4     user32:USER32.dll
 0002:000004d8       __imp__GetCapture@0        004924d8     user32:USER32.dll
 0002:000004dc       __imp__EnableWindow@8      004924dc     user32:USER32.dll
 0002:000004e0       __imp__GetDlgItem@8        004924e0     user32:USER32.dll
 0002:000004e4       __imp__CheckDlgButton@12   004924e4     user32:USER32.dll
 0002:000004e8       __imp__GetClipboardOwner@0 004924e8     user32:USER32.dll
 0002:000004ec       __imp__GetClipboardViewer@0 004924ec     user32:USER32.dll
 0002:000004f0       __imp__GetDesktopWindow@0  004924f0     user32:USER32.dll
 0002:000004f4       __imp__GetFocus@0          004924f4     user32:USER32.dll
 0002:000004f8       __imp__MessageBoxA@16      004924f8     user32:USER32.dll
 0002:000004fc       __imp__TrackPopupMenu@28   004924fc     user32:USER32.dll
 0002:00000500       __imp__DestroyMenu@4       00492500     user32:USER32.dll
 0002:00000504       __imp__SetDlgItemInt@16    00492504     user32:USER32.dll
 0002:00000508       __imp__GetMenu@4           00492508     user32:USER32.dll
 0002:0000050c       __imp__EnableMenuItem@12   0049250c     user32:USER32.dll
 0002:00000510       __imp__SetWindowLongA@12   00492510     user32:USER32.dll
 0002:00000514       __imp__GetWindowLongA@8    00492514     user32:USER32.dll
 0002:00000518       __imp__CallWindowProcA@20  00492518     user32:USER32.dll
 0002:0000051c       __imp__GetWindowRect@8     0049251c     user32:USER32.dll
 0002:00000520       __imp__SetForegroundWindow@4 00492520     user32:USER32.dll
 0002:00000524       __imp__LoadImageA@24       00492524     user32:USER32.dll
 0002:00000528       __imp__GetDlgItemTextA@16  00492528     user32:USER32.dll
 0002:0000052c       __imp__SetDlgItemTextA@12  0049252c     user32:USER32.dll
 0002:00000530       __imp__SendDlgItemMessageA@20 00492530     user32:USER32.dll
 0002:00000534       __imp__SetFocus@4          00492534     user32:USER32.dll
 0002:00000538       __imp__SendDlgItemMessageW@20 00492538     user32:USER32.dll
 0002:0000053c       __imp__GetKeyboardLayout@4 0049253c     user32:USER32.dll
 0002:00000540       __imp__LoadKeyboardLayoutA@8 00492540     user32:USER32.dll
 0002:00000544       __imp__MessageBoxW@16      00492544     user32:USER32.dll
 0002:00000548       __imp__GetWindowTextW@12   00492548     user32:USER32.dll
 0002:0000054c       __imp__GetWindowTextA@12   0049254c     user32:USER32.dll
 0002:00000550       __imp__SetWindowTextA@8    00492550     user32:USER32.dll
 0002:00000554       __imp__GetWindowTextLengthA@4 00492554     user32:USER32.dll
 0002:00000558       __imp__GetMessageA@16      00492558     user32:USER32.dll
 0002:0000055c       __imp__TranslateMessage@4  0049255c     user32:USER32.dll
 0002:00000560       __imp__DispatchMessageA@4  00492560     user32:USER32.dll
 0002:00000564       __imp__PostThreadMessageA@16 00492564     user32:USER32.dll
 0002:00000568       __imp__GetParent@4         00492568     user32:USER32.dll
 0002:0000056c       __imp__SetTimer@16         0049256c     user32:USER32.dll
 0002:00000570       __imp__GetWindowTextLengthW@4 00492570     user32:USER32.dll
 0002:00000574       __imp__KillTimer@8         00492574     user32:USER32.dll
 0002:00000578       __imp__GetAsyncKeyState@4  00492578     user32:USER32.dll
 0002:0000057c       __imp__RegisterHotKey@16   0049257c     user32:USER32.dll
 0002:00000580       __imp__UnregisterHotKey@8  00492580     user32:USER32.dll
 0002:00000584       __imp__wsprintfW           00492584     user32:USER32.dll
 0002:00000588       __imp__DialogBoxParamW@20  00492588     user32:USER32.dll
 0002:0000058c       __imp__ShowWindow@8        0049258c     user32:USER32.dll
 0002:00000590       __imp__SetWindowTextW@8    00492590     user32:USER32.dll
 0002:00000594       __imp__GetClientRect@8     00492594     user32:USER32.dll
 0002:00000598       __imp__SetWindowPos@28     00492598     user32:USER32.dll
 0002:0000059c       __imp__InvalidateRect@12   0049259c     user32:USER32.dll
 0002:000005a0       __imp__SendMessageW@16     004925a0     user32:USER32.dll
 0002:000005a4       __imp__EndDialog@8         004925a4     user32:USER32.dll
 0002:000005a8       __imp__SendMessageA@16     004925a8     user32:USER32.dll
 0002:000005ac       __imp__DeleteMenu@12       004925ac     user32:USER32.dll
 0002:000005b0       __imp__AppendMenuA@16      004925b0     user32:USER32.dll
 0002:000005b4       __imp__AppendMenuW@16      004925b4     user32:USER32.dll
 0002:000005b8       __imp__GetDlgItemTextW@16  004925b8     user32:USER32.dll
 0002:000005bc       __imp__IsDlgButtonChecked@8 004925bc     user32:USER32.dll
 0002:000005c0       __imp__SetDlgItemTextW@12  004925c0     user32:USER32.dll
 0002:000005c4       __imp__ReleaseDC@8         004925c4     user32:USER32.dll
 0002:000005c8       \177USER32_NULL_THUNK_DATA 004925c8     user32:USER32.dll
 0002:000005cc       __imp__VerQueryValueA@16   004925cc     version:VERSION.dll
 0002:000005d0       __imp__GetFileVersionInfoA@16 004925d0     version:VERSION.dll
 0002:000005d4       __imp__GetFileVersionInfoSizeA@8 004925d4     version:VERSION.dll
 0002:000005d8       \177VERSION_NULL_THUNK_DATA 004925d8     version:VERSION.dll
 0002:000005dc       __imp__CoCreateInstance@20 004925dc     ole32:ole32.dll
 0002:000005e0       __imp__CoGetObject@16      004925e0     ole32:ole32.dll
 0002:000005e4       __imp__CoInitialize@4      004925e4     ole32:ole32.dll
 0002:000005e8       __imp__CoUninitialize@0    004925e8     ole32:ole32.dll
 0002:000005ec       __imp__CoRegisterClassObject@20 004925ec     ole32:ole32.dll
 0002:000005f0       __imp__CoRevokeClassObject@4 004925f0     ole32:ole32.dll
 0002:000005f4       __imp__StringFromGUID2@12  004925f4     ole32:ole32.dll
 0002:000005f8       \177ole32_NULL_THUNK_DATA  004925f8     ole32:ole32.dll
 0002:000005fc       ___xc_a                    004925fc     LIBCMT:crt0init.obj
 0002:00000638       ___xc_z                    00492638     LIBCMT:crt0init.obj
 0002:0000063c       ___xi_a                    0049263c     LIBCMT:crt0init.obj
 0002:0000065c       ___xi_z                    0049265c     LIBCMT:crt0init.obj
 0002:00000660       ___xp_a                    00492660     LIBCMT:crt0init.obj
 0002:0000066c       ___xp_z                    0049266c     LIBCMT:crt0init.obj
 0002:00000670       ___xt_a                    00492670     LIBCMT:crt0init.obj
 0002:00000674       ___xt_z                    00492674     LIBCMT:crt0init.obj
 0002:00000680       ??_C@_0P@GHFPNOJB@bad?5allocation?$AA@ 00492680     Favorites.obj
 0002:00000694       ??_7bad_alloc@std@@6B@     00492694     Favorites.obj
 0002:000006a0       ??_7Container@ForEach@CipherShed@@6B@ 004926a0     Favorites.obj
 0002:000006b0       ??_7Exception@CipherShed@@6B@ 004926b0     Favorites.obj
 0002:000006b4       ??_C@_0CG@EGPGHNFL@TrueCrypt?5System?5Favorite?5Volume@ 004926b4     Favorites.obj
 0002:000006e0       ??_7logic_error@std@@6B@   004926e0     Favorites.obj
 0002:000006ec       ??_7ErrorException@CipherShed@@6B@ 004926ec     Favorites.obj
 0002:000006f4       ??_7length_error@std@@6B@  004926f4     Favorites.obj
 0002:000006fc       ??_C@_0BD@OLBABOEK@vector?$DMT?$DO?5too?5long?$AA@ 004926fc     Favorites.obj
 0002:00000710       ??_C@_0BB@MOGOBHAF@list?$DMT?$DO?5too?5long?$AA@ 00492710     Favorites.obj
 0002:00000724       ??_C@_13DIBMAFH@?$AA?$CJ?$AA?$AA@ 00492724     Favorites.obj
 0002:00000728       ??_C@_0BK@OGKIEBOP@FAVORITE_DISCONNECTED_DEV?$AA@ 00492728     Favorites.obj
 0002:00000744       ??_C@_13LLDNKHDC@?$AA?$CI?$AA?$AA@ 00492744     Favorites.obj
 0002:00000748       ??_C@_0CI@HPPIJBMN@FAVORITE_ARRIVAL_MOUNT_NETWORK_P@ 00492748     Favorites.obj
 0002:00000770       ??_C@_07HBPFMAGN@Volume?$HL?$AA@ 00492770     Favorites.obj
 0002:00000778       ??_C@_02HDBGODGB@?2?2?$AA@ 00492778     Favorites.obj
 0002:0000077c       ??_C@_0CH@DKBAOJFF@FAVORITE_ARRIVAL_MOUNT_DEVICE_PA@ 0049277c     Favorites.obj
 0002:000007a4       ??_C@_0CK@BMBODKOP@FAVORITE_ARRIVAL_MOUNT_PARTITION@ 004927a4     Favorites.obj
 0002:000007d0       ??_C@_15IABLJNFO@?$AA?6?$AA?6?$AA?$AA@ 004927d0     Favorites.obj
 0002:000007d8       ??_C@_0BP@JDCKOJKF@FAVORITE_LABEL_DEVICE_PATH_ERR?$AA@ 004927d8     Favorites.obj
 0002:000007f8       ??_C@_0CC@GPNGJACE@FAVORITE_LABEL_PARTITION_TYPE_ER@ 004927f8     Favorites.obj
 0002:0000081c       ??_C@_0M@OJHKIMBP@?2Partition0?$AA@ 0049281c     Favorites.obj
 0002:00000828       ??_C@_0M@CJEJOKNC@?2?2?$DP?2Volume?$HL?$AA@ 00492828     Favorites.obj
 0002:00000838       ??_7?$ContainerForward@V?$vector@UFavoriteVolume@CipherShed@@V?$allocator@UFavoriteVolume@CipherShed@@@std@@@std@@@ForEach@CipherShed@@6B@ 00492838     Favorites.obj
 0002:00000848       ??_7?$ContainerForward@V?$list@UFavoriteVolume@CipherShed@@V?$allocator@UFavoriteVolume@CipherShed@@@std@@@std@@@ForEach@CipherShed@@6B@ 00492848     Favorites.obj
 0002:00000854       ??_C@_13KDLDGPGJ@?$AA?7?$AA?$AA@ 00492854     Favorites.obj
 0002:00000858       ??_C@_13HOIJIPNN@?$AA?5?$AA?$AA@ 00492858     Favorites.obj
 0002:0000085c       ??_C@_11LOCGONAA@?$AA?$AA@ 0049285c     Favorites.obj
 0002:00000860       ??_C@_0BL@JLAFANLF@SYS_FAVORITE_VOLUMES_SAVED?$AA@ 00492860     Favorites.obj
 0002:0000087c       ??_C@_1BO@LKECBBKI@?$AA?6?$AA?7?$AA?$DM?$AA?1?$AAf?$AAa?$AAv?$AAo?$AAr?$AAi?$AAt?$AAe?$AAs?$AA?$DO?$AA?$AA@ 0049287c     Favorites.obj
 0002:0000089c       ??_C@_17EEOGHOKP@?$AA?$CF?$AAw?$AAs?$AA?$AA@ 0049289c     Favorites.obj
 0002:000008a4       ??_C@_1BE@BKLKJEIJ@?$AA?$DM?$AA?1?$AAv?$AAo?$AAl?$AAu?$AAm?$AAe?$AA?$DO?$AA?$AA@ 004928a4     Favorites.obj
 0002:000008b8       ??_C@_13MOEPKPHB@?$AA?$DO?$AA?$AA@ 004928b8     Favorites.obj
 0002:000008bc       ??_C@_1DA@CGPNJOBH@?$AA?5?$AAo?$AAp?$AAe?$AAn?$AAE?$AAx?$AAp?$AAl?$AAo?$AAr?$AAe?$AAr?$AAW?$AAi?$AAn?$AAd?$AAo?$AAw?$AA?$DN?$AA?$CC?$AA1?$AA?$CC?$AA?$AA@ 004928bc     Favorites.obj
 0002:000008ec       ??_C@_1CG@JPOBGFJC@?$AA?5?$AAn?$AAo?$AAH?$AAo?$AAt?$AAK?$AAe?$AAy?$AAM?$AAo?$AAu?$AAn?$AAt?$AA?$DN?$AA?$CC?$AA1?$AA?$CC?$AA?$AA@ 004928ec     Favorites.obj
 0002:00000914       ??_C@_1CE@JKNJFOGE@?$AA?5?$AAm?$AAo?$AAu?$AAn?$AAt?$AAO?$AAn?$AAL?$AAo?$AAg?$AAO?$AAn?$AA?$DN?$AA?$CC?$AA1?$AA?$CC?$AA?$AA@ 00492914     Favorites.obj
 0002:00000938       ??_C@_1CI@PFJKIIJG@?$AA?5?$AAm?$AAo?$AAu?$AAn?$AAt?$AAO?$AAn?$AAA?$AAr?$AAr?$AAi?$AAv?$AAa?$AAl?$AA?$DN?$AA?$CC?$AA1?$AA?$CC?$AA?$AA@ 00492938     Favorites.obj
 0002:00000960       ??_C@_1BI@DCLBMOGE@?$AA?5?$AAs?$AAy?$AAs?$AAt?$AAe?$AAm?$AA?$DN?$AA?$CC?$AA1?$AA?$CC?$AA?$AA@ 00492960     Favorites.obj
 0002:00000978       ??_C@_1BO@KPDNDBGI@?$AA?5?$AAr?$AAe?$AAm?$AAo?$AAv?$AAa?$AAb?$AAl?$AAe?$AA?$DN?$AA?$CC?$AA1?$AA?$CC?$AA?$AA@ 00492978     Favorites.obj
 0002:00000998       ??_C@_1BM@ENOBLAGP@?$AA?5?$AAr?$AAe?$AAa?$AAd?$AAo?$AAn?$AAl?$AAy?$AA?$DN?$AA?$CC?$AA1?$AA?$CC?$AA?$AA@ 00492998     Favorites.obj
 0002:000009b4       ??_C@_1BC@IMCPEDAD@?$AA?5?$AAl?$AAa?$AAb?$AAe?$AAl?$AA?$DN?$AA?$CC?$AA?$AA@ 004929b4     Favorites.obj
 0002:000009c8       ??_C@_13NEIAEHFG@?$AA?$CC?$AA?$AA@ 004929c8     Favorites.obj
 0002:000009cc       ??_C@_1DA@FKMFKHK@?$AA?6?$AA?7?$AA?7?$AA?$DM?$AAv?$AAo?$AAl?$AAu?$AAm?$AAe?$AA?5?$AAm?$AAo?$AAu?$AAn?$AAt?$AAp?$AAo?$AAi?$AAn?$AAt?$AA?$DN?$AA?$CC?$AA?$AA@ 004929cc     Favorites.obj
 0002:000009fc       ??_C@_0CB@FDMOEEOH@SYSTEM_FAVORITE_NETWORK_PATH_ERR@ 004929fc     Favorites.obj
 0002:00000a20       ??_C@_1BM@LHCEIKFH@?$AA?6?$AA?7?$AA?$DM?$AAf?$AAa?$AAv?$AAo?$AAr?$AAi?$AAt?$AAe?$AAs?$AA?$DO?$AA?$AA@ 00492a20     Favorites.obj
 0002:00000a3c       ??_C@_0M@OEIOICOO@w?0ccs?$DNUTF?98?$AA@ 00492a3c     Favorites.obj
 0002:00000a48       ??_C@_0BF@EGBOIEGJ@Favorite?5Volumes?4xml?$AA@ 00492a48     Favorites.obj
 0002:00000a60       ??_C@_02EKJJMPLG@?$HN?2?$AA@ 00492a60     Favorites.obj
 0002:00000a64       ??_C@_0N@GAADCGJD@mountOnLogOn?$AA@ 00492a64     Favorites.obj
 0002:00000a74       ??_C@_0P@BNAHGHLI@mountOnArrival?$AA@ 00492a74     Favorites.obj
 0002:00000a84       ??_C@_0BD@FMMJHNKO@openExplorerWindow?$AA@ 00492a84     Favorites.obj
 0002:00000a98       ??_C@_0O@KADIAEN@noHotKeyMount?$AA@ 00492a98     Favorites.obj
 0002:00000aa8       ??_C@_06FHFOAHML@system?$AA@ 00492aa8     Favorites.obj
 0002:00000ab0       ??_C@_09HPGMKNKO@removable?$AA@ 00492ab0     Favorites.obj
 0002:00000abc       ??_C@_08JOKHDEJH@readonly?$AA@ 00492abc     Favorites.obj
 0002:00000ac8       ??_C@_05IDCCNNGI@label?$AA@ 00492ac8     Favorites.obj
 0002:00000ad0       ??_C@_0L@BHNCAFPG@mountpoint?$AA@ 00492ad0     Favorites.obj
 0002:00000adc       ??_C@_06EMCPHFGM@volume?$AA@ 00492adc     Favorites.obj
 0002:00000ae3       ??_C@_00CNPNBAHC@?$AA@     00492ae3     Favorites.obj
 0002:00000ae4       ??_C@_09OAMOHPIB@favorites?$AA@ 00492ae4     Favorites.obj
 0002:00000af0       ??_C@_0N@NFCNMOKI@sysfavorites?$AA@ 00492af0     Favorites.obj
 0002:00000b00       ??_C@_0BO@EPEDCGFA@SYS_FAVORITES_ADMIN_ONLY_INFO?$AA@ 00492b00     Favorites.obj
 0002:00000b20       ??_C@_0CF@JLONOHPL@BOOT_PASSWORD_CACHE_KEYBOARD_WAR@ 00492b20     Favorites.obj
 0002:00000b48       ??_C@_0BP@EBHLJFH@SYS_FAVORITES_KEYBOARD_WARNING?$AA@ 00492b48     Favorites.obj
 0002:00000b68       ??_C@_0BI@BHGNKFED@SETTING_REQUIRES_REBOOT?$AA@ 00492b68     Favorites.obj
 0002:00000b80       ??_C@_0CB@FJMJOJID@SYS_FAVORITES_ADMIN_ONLY_WARNING@ 00492b80     Favorites.obj
 0002:00000ba4       ??_C@_0CL@LJFCINAI@FAVORITE_ARRIVAL_MOUNT_BACKGROUN@ 00492ba4     Favorites.obj
 0002:00000bd0       ??_C@_0BI@CHIEPLIO@SYS_FAVORITES_HELP_LINK?$AA@ 00492bd0     Favorites.obj
 0002:00000be8       ??_C@_06EIAEKLLO@VOLUME?$AA@ 00492be8     Favorites.obj
 0002:00000bf0       ??_C@_05EILEDKCG@LABEL?$AA@ 00492bf0     Favorites.obj
 0002:00000bf8       ??_C@_05JLAEHEHI@DRIVE?$AA@ 00492bf8     Favorites.obj
 0002:00000c00       ??_C@_0CG@OLJJJKLA@DISABLE_NONADMIN_SYS_FAVORITES_A@ 00492c00     Favorites.obj
 0002:00000c28       ??_C@_0BP@EKHONFKP@MOUNT_SYSTEM_FAVORITES_ON_BOOT?$AA@ 00492c28     Favorites.obj
 0002:00000c48       ??_C@_0BK@ELJEKFFN@SYS_FAVORITES_REQUIRE_PBA?$AA@ 00492c48     Favorites.obj
 0002:00000c64       ??_C@_0BF@HCOFEODH@IDD_FAVORITE_VOLUMES?$AA@ 00492c64     Favorites.obj
 0002:00000c7c       ??_C@_0BL@JDDKFBO@SYSTEM_FAVORITES_DLG_TITLE?$AA@ 00492c7c     Favorites.obj
 0002:00000c98       ??_C@_0BP@BOKIMCAM@FAVORITE_ADD_DRIVE_DEV_WARNING?$AA@ 00492c98     Favorites.obj
 0002:00000cb8       ??_C@_0CE@GJAIEOAP@FAVORITE_ADD_PARTITION_TYPE_WARN@ 00492cb8     Favorites.obj
 0002:00000cdc       ??_C@_04FFEPHCCK@?2?$DP?$DP?2?$AA@ 00492cdc     Favorites.obj
 0002:00000ce4       ??_C@_03OPPAHFLA@X?3?2?$AA@ 00492ce4     Favorites.obj
 0002:00000ce8       ??_C@_09HCNHJIOE@VKEY_?$CF02X?$AA@ 00492ce8     Hotkeys.obj
 0002:00000cf4       ??_C@_1BE@BLNJPCHA@?$AAO?$AAE?$AAM?$AA?5?$AAC?$AAl?$AAe?$AAa?$AAr?$AA?$AA@ 00492cf4     Hotkeys.obj
 0002:00000d08       ??_C@_17EDGIJFFN@?$AAP?$AAA?$AA1?$AA?$AA@ 00492d08     Hotkeys.obj
 0002:00000d10       ??_C@_1BE@PNGDAKCB@?$AAE?$AAr?$AAa?$AAs?$AAe?$AA?5?$AAE?$AAO?$AAF?$AA?$AA@ 00492d10     Hotkeys.obj
 0002:00000d24       ??_C@_1M@DLBEBOGL@?$AAE?$AAx?$AAS?$AAe?$AAl?$AA?$AA@ 00492d24     Hotkeys.obj
 0002:00000d30       ??_C@_1M@MDALCLEC@?$AAC?$AAr?$AAS?$AAe?$AAl?$AA?$AA@ 00492d30     Hotkeys.obj
 0002:00000d3c       ??_C@_19OFNKLJK@?$AAA?$AAt?$AAt?$AAn?$AA?$AA@ 00492d3c     Hotkeys.obj
 0002:00000d48       ??_C@_1BE@LLGIDKHO@?$AAI?$AAC?$AAO?$AA_?$AAC?$AAL?$AAE?$AAA?$AAR?$AA?$AA@ 00492d48     Hotkeys.obj
 0002:00000d5c       ??_C@_1O@JBLAKJMC@?$AAI?$AAC?$AAO?$AA_?$AA0?$AA0?$AA?$AA@ 00492d5c     Hotkeys.obj
 0002:00000d6c       ??_C@_1BC@NLJJNCCF@?$AAI?$AAC?$AAO?$AA_?$AAH?$AAE?$AAL?$AAP?$AA?$AA@ 00492d6c     Hotkeys.obj
 0002:00000d80       ??_C@_1BA@IAGEGNFM@?$AAO?$AAE?$AAM?$AA?5?$AA1?$AA0?$AA2?$AA?$AA@ 00492d80     Hotkeys.obj
 0002:00000d90       ??_C@_1O@MJCGBFBN@?$AAO?$AAE?$AAM?$AA?5?$AAA?$AAX?$AA?$AA@ 00492d90     Hotkeys.obj
 0002:00000da0       ??_C@_1M@DOOFNPLB@?$AAO?$AAE?$AAM?$AA?5?$AA8?$AA?$AA@ 00492da0     Hotkeys.obj
 0002:00000dac       ??_C@_1BE@MPIGBJDL@?$AAO?$AAE?$AAM?$AA?5?$AA7?$AA?5?$AA?$CI?$AA?8?$AA?$CJ?$AA?$AA@ 00492dac     Hotkeys.obj
 0002:00000dc0       ??_C@_1BI@BDDONMHC@?$AAO?$AAE?$AAM?$AA?5?$AA6?$AA?5?$AA?$CI?$AA?8?$AA?$FN?$AA?8?$AA?$CJ?$AA?$AA@ 00492dc0     Hotkeys.obj
 0002:00000dd8       ??_C@_1BI@PGFMGIBO@?$AAO?$AAE?$AAM?$AA?5?$AA5?$AA?5?$AA?$CI?$AA?8?$AA?2?$AA?8?$AA?$CJ?$AA?$AA@ 00492dd8     Hotkeys.obj
 0002:00000df0       ??_C@_1BI@FCPBPAJG@?$AAO?$AAE?$AAM?$AA?5?$AA4?$AA?5?$AA?$CI?$AA?8?$AA?$FL?$AA?8?$AA?$CJ?$AA?$AA@ 00492df0     Hotkeys.obj
 0002:00000e08       ??_C@_1BE@NONNBIJA@?$AAO?$AAE?$AAM?$AA?5?$AA3?$AA?5?$AA?$CI?$AA?$GA?$AA?$CJ?$AA?$AA@ 00492e08     Hotkeys.obj
 0002:00000e1c       ??_C@_1BI@CJHKAGBI@?$AAO?$AAE?$AAM?$AA?5?$AA2?$AA?5?$AA?$CI?$AA?8?$AA?1?$AA?8?$AA?$CJ?$AA?$AA@ 00492e1c     Hotkeys.obj
 0002:00000e34       ??_C@_13JOFGPIOO@?$AA?4?$AA?$AA@ 00492e34     Hotkeys.obj
 0002:00000e38       ??_C@_13IMODFHAA@?$AA?9?$AA?$AA@ 00492e38     Hotkeys.obj
 0002:00000e3c       ??_C@_13DEFPDAGF@?$AA?0?$AA?$AA@ 00492e3c     Hotkeys.obj
 0002:00000e40       ??_C@_13KJIIAINM@?$AA?$CL?$AA?$AA@ 00492e40     Hotkeys.obj
 0002:00000e44       ??_C@_1BI@PIEDINDL@?$AAO?$AAE?$AAM?$AA?5?$AA1?$AA?5?$AA?$CI?$AA?8?$AA?$DL?$AA?8?$AA?$CJ?$AA?$AA@ 00492e44     Hotkeys.obj
 0002:00000e5c       ??_C@_19GICDHDDA@?$AA?$CF?$AAs?$AA?5?$AA?1?$AA?$AA@ 00492e5c     Hotkeys.obj
 0002:00000e68       ??_C@_19NAJPBEFF@?$AA?$CF?$AAs?$AA?5?$AA?4?$AA?$AA@ 00492e68     Hotkeys.obj
 0002:00000e74       ??_C@_19MCCKLLLL@?$AA?$CF?$AAs?$AA?5?$AA?9?$AA?$AA@ 00492e74     Hotkeys.obj
 0002:00000e80       ??_C@_1BK@DEGHIJPD@?$AA?$CF?$AAs?$AA?5?$AAS?$AAe?$AAp?$AAa?$AAr?$AAa?$AAt?$AAo?$AAr?$AA?$AA@ 00492e80     Hotkeys.obj
 0002:00000e9c       ??_C@_19OHEBOEGH@?$AA?$CF?$AAs?$AA?5?$AA?$CL?$AA?$AA@ 00492e9c     Hotkeys.obj
 0002:00000ea8       ??_C@_19FPPNIDAC@?$AA?$CF?$AAs?$AA?5?$AA?$CK?$AA?$AA@ 00492ea8     Hotkeys.obj
 0002:00000eb4       ??_C@_1M@DJFDNGE@?$AA?$CF?$AAs?$AA?5?$AA?$CF?$AAd?$AA?$AA@ 00492eb4     Hotkeys.obj
 0002:00000ec0       ??_C@_09LOOKHEPK@VK_NUMPAD?$AA@ 00492ec0     Hotkeys.obj
 0002:00000ecc       ??_C@_17JGAKBPCN@?$AAF?$AA?$CF?$AAd?$AA?$AA@ 00492ecc     Hotkeys.obj
 0002:00000ed4       ??_C@_1O@HLLLAKJJ@?$AAO?$AAE?$AAM?$AA?9?$AA?$CF?$AAd?$AA?$AA@ 00492ed4     Hotkeys.obj
 0002:00000ee4       ??_C@_17OGHPJJHO@?$AA?$CF?$AAh?$AAc?$AA?$AA@ 00492ee4     Hotkeys.obj
 0002:00000eec       ??_C@_19LJDFFCJJ@?$AA?$CF?$AAs?$AA?$CF?$AAs?$AA?$AA@ 00492eec     Hotkeys.obj
 0002:00000ef8       ??_C@_06LKCBLNGG@VK_WIN?$AA@ 00492ef8     Hotkeys.obj
 0002:00000f00       ??_C@_06HJLFINBF@VK_ALT?$AA@ 00492f00     Hotkeys.obj
 0002:00000f08       ??_C@_08BHJBIDAM@VK_SHIFT?$AA@ 00492f08     Hotkeys.obj
 0002:00000f14       ??_C@_0L@GEFMOENA@VK_CONTROL?$AA@ 00492f14     Hotkeys.obj
 0002:00000f20       ??_C@_17FONKKNAB@?$AA?$FL?$AA?$DP?$AA?$FN?$AA?$AA@ 00492f20     Hotkeys.obj
 0002:00000f28       ??_C@_0BN@BCAFOOJE@IDM_CLOSE_ALL_TOKEN_SESSIONS?$AA@ 00492f28     Hotkeys.obj
 0002:00000f48       ??_C@_0BJ@PKJKCAHL@HK_SHOW_HIDE_MAIN_WINDOW?$AA@ 00492f48     Hotkeys.obj
 0002:00000f64       ??_C@_0BK@KFKHOBIO@HK_MOUNT_FAVORITE_VOLUMES?$AA@ 00492f64     Hotkeys.obj
 0002:00000f80       ??_C@_0CI@FEMPJBPL@HK_FORCE_DISMOUNT_ALL_AND_WIPE_A@ 00492f80     Hotkeys.obj
 0002:00000fa8       ??_C@_0BP@BAOJNMID@HK_FORCE_DISMOUNT_ALL_AND_WIPE?$AA@ 00492fa8     Hotkeys.obj
 0002:00000fc8       ??_C@_0BJ@PKPOPMEC@HK_DISMOUNT_ALL_AND_WIPE?$AA@ 00492fc8     Hotkeys.obj
 0002:00000fe4       ??_C@_0O@CLOOONDG@HK_WIPE_CACHE?$AA@ 00492fe4     Hotkeys.obj
 0002:00000ff4       ??_C@_0BA@FCDOFIMA@HK_DISMOUNT_ALL?$AA@ 00492ff4     Hotkeys.obj
 0002:00001004       ??_C@_0BF@BHDAGLNG@HK_AUTOMOUNT_DEVICES?$AA@ 00493004     Hotkeys.obj
 0002:0000101c       ??_C@_0BI@CPPIEFFH@CANNOT_USE_RESERVED_KEY?$AA@ 0049301c     Hotkeys.obj
 0002:00001034       ??_C@_0BI@CFJLLBFG@SHORTCUT_ALREADY_IN_USE?$AA@ 00493034     Hotkeys.obj
 0002:0000104c       ??_C@_0BG@BHHJNFFK@PRESS_A_KEY_TO_ASSIGN?$AA@ 0049304c     Hotkeys.obj
 0002:00001064       ??_C@_0BA@HMGJHPFD@IDD_HOTKEYS_DLG?$AA@ 00493064     Hotkeys.obj
 0002:00001074       ??_C@_08KLMGAJAF@SHORTCUT?$AA@ 00493074     Hotkeys.obj
 0002:00001080       ??_C@_06DHJAPAEE@ACTION?$AA@ 00493080     Hotkeys.obj
 0002:00001088       _LIBID_CipherShedMainCom   00493088     MainCom.obj
 0002:00001098       _IID_ICipherShedMainCom    00493098     MainCom.obj
 0002:000010a8       _CLSID_CipherShedMainCom   004930a8     MainCom.obj
 0002:000010bc       ??_7UserAbort@CipherShed@@6B@ 004930bc     MainCom.obj
 0002:000010c4       ??_7?$CipherShedFactory@VCipherShedMainCom@@@@6B@ 004930c4     MainCom.obj
 0002:000010e4       ??_7CipherShedMainCom@@6B@ 004930e4     MainCom.obj
 0002:00001128       ??_7facet@locale@std@@6B@  00493128     Mount.obj
 0002:00001130       ??_7ios_base@std@@6B@      00493130     Mount.obj
 0002:00001134       ??_C@_0CF@JMGBPMDD@HotkeyCodeCloseSecurityTokenSess@ 00493134     Mount.obj
 0002:0000115c       ??_C@_0CE@HGCCLLKG@HotkeyModCloseSecurityTokenSessi@ 0049315c     Mount.obj
 0002:00001180       ??_C@_0BN@CHLGHFOA@HotkeyCodeShowHideMainWindow?$AA@ 00493180     Mount.obj
 0002:000011a0       ??_C@_0BM@LONPOCBB@HotkeyModShowHideMainWindow?$AA@ 004931a0     Mount.obj
 0002:000011bc       ??_C@_0BP@HCDOBOOJ@HotkeyCodeMountFavoriteVolumes?$AA@ 004931bc     Mount.obj
 0002:000011dc       ??_C@_0BO@BBPCFBJL@HotkeyModMountFavoriteVolumes?$AA@ 004931dc     Mount.obj
 0002:000011fc       ??_C@_0CD@NAGGLIOF@HotkeyCodeForceDismountAllWipeEx@ 004931fc     Mount.obj
 0002:00001220       ??_C@_0CC@NJGCLCKP@HotkeyModForceDismountAllWipeExi@ 00493220     Mount.obj
 0002:00001244       ??_C@_0BP@GBIKFBPN@HotkeyCodeForceDismountAllWipe?$AA@ 00493244     Mount.obj
 0002:00001264       ??_C@_0BO@CEGBOIP@HotkeyModForceDismountAllWipe?$AA@ 00493264     Mount.obj
 0002:00001284       ??_C@_0BK@CFAKNANL@HotkeyCodeDismountAllWipe?$AA@ 00493284     Mount.obj
 0002:000012a0       ??_C@_0BJ@DMJNNPJL@HotkeyModDismountAllWipe?$AA@ 004932a0     Mount.obj
 0002:000012bc       ??_C@_0BE@NNJKBANE@HotkeyCodeWipeCache?$AA@ 004932bc     Mount.obj
 0002:000012d0       ??_C@_0BD@PFLDJHEM@HotkeyModWipeCache?$AA@ 004932d0     Mount.obj
 0002:000012e4       ??_C@_0BG@FAJJGDON@HotkeyCodeDismountAll?$AA@ 004932e4     Mount.obj
 0002:000012fc       ??_C@_0BF@JKNNFNFF@HotkeyModDismountAll?$AA@ 004932fc     Mount.obj
 0002:00001314       ??_C@_0BL@HFFNPBG@HotkeyCodeAutoMountDevices?$AA@ 00493314     Mount.obj
 0002:00001330       ??_C@_0BK@HBJAAJIJ@HotkeyModAutoMountDevices?$AA@ 00493330     Mount.obj
 0002:0000134c       ??_C@_0BO@GGCIJNCK@DisplayMsgBoxOnHotkeyDismount?$AA@ 0049334c     Mount.obj
 0002:0000136c       ??_C@_0BP@BFHJPAFJ@PlaySoundOnHotkeyMountDismount?$AA@ 0049336c     Mount.obj
 0002:0000138c       ??_C@_0BF@MIMCAHPI@SecurityTokenLibrary?$AA@ 0049338c     Mount.obj
 0002:000013a4       ??_C@_0BC@JNFOKCJG@LastSelectedDrive?$AA@ 004933a4     Mount.obj
 0002:000013b8       ??_C@_0CA@JDEDMHHP@HiddenSystemLeakProtNotifStatus?$AA@ 004933b8     Mount.obj
 0002:000013d8       ??_C@_0BM@PPMGLKNI@DisableSystemCrashDetection?$AA@ 004933d8     Mount.obj
 0002:000013f4       ??_C@_0CF@EFIMMBIH@CloseSecurityTokenSessionsAfterM@ 004933f4     Mount.obj
 0002:0000141c       ??_C@_0BF@NMKCILAI@MountVolumesReadOnly?$AA@ 0049341c     Mount.obj
 0002:00001434       ??_C@_0BG@BIDCCDPC@MountVolumesRemovable?$AA@ 00493434     Mount.obj
 0002:0000144c       ??_C@_0BD@LGMAGJMG@PreserveTimestamps?$AA@ 0049344c     Mount.obj
 0002:00001460       ??_C@_0M@LMLBNLIJ@UseKeyfiles?$AA@ 00493460     Mount.obj
 0002:0000146c       ??_C@_0BM@GHIJBHNC@HiddenSectorDetectionStatus?$AA@ 0049346c     Mount.obj
 0002:00001488       ??_C@_0BC@JKHHAAAB@MaxVolumeIdleTime?$AA@ 00493488     Mount.obj
 0002:0000149c       ??_C@_0BC@EDMFNFCN@ForceAutoDismount?$AA@ 0049349c     Mount.obj
 0002:000014b0       ??_C@_0BG@MFJBKGJC@DismountOnScreenSaver?$AA@ 004934b0     Mount.obj
 0002:000014c8       ??_C@_0BG@EJBOHCEJ@DismountOnPowerSaving?$AA@ 004934c8     Mount.obj
 0002:000014e0       ??_C@_0BB@JBNDKFIM@DismountOnLogOff?$AA@ 004934e0     Mount.obj
 0002:000014f4       ??_C@_0BP@GDDJCJHL@CloseBackgroundTaskOnNoVolumes?$AA@ 004934f4     Mount.obj
 0002:00001514       ??_C@_0BF@KJGFKHOF@EnableBackgroundTask?$AA@ 00493514     Mount.obj
 0002:0000152c       ??_C@_0BG@IDCDKCEI@MountFavoritesOnLogon?$AA@ 0049352c     Mount.obj
 0002:00001544       ??_C@_0BE@MJJJGJOJ@MountDevicesOnLogon?$AA@ 00493544     Mount.obj
 0002:00001558       ??_C@_0N@PLOGBODB@StartOnLogon?$AA@ 00493558     Mount.obj
 0002:00001568       ??_C@_0BI@FALOPCPE@WipeCacheOnAutoDismount?$AA@ 00493568     Mount.obj
 0002:00001580       ??_C@_0BI@BNIOMO@WipePasswordCacheOnExit?$AA@ 00493580     Mount.obj
 0002:00001598       ??_C@_0P@NEHAKGAO@CachePasswords?$AA@ 00493598     Mount.obj
 0002:000015a8       ??_C@_0BC@CGLEBHPJ@SaveVolumeHistory?$AA@ 004935a8     Mount.obj
 0002:000015bc       ??_C@_0CF@KIMFPDKC@UseDifferentTrayIconIfVolumesMou@ 004935bc     Mount.obj
 0002:000015e4       ??_C@_0BN@JJNCGBDA@OpenExplorerWindowAfterMount?$AA@ 004935e4     Mount.obj
 0002:00001604       ??_C@_0BA@DJOMNFMG@IDPM_PROPERTIES?$AA@ 00493604     Mount.obj
 0002:00001614       ??_C@_0BH@MNBOMCDE@IDM_VERIFY_RESCUE_DISK?$AA@ 00493614     Mount.obj
 0002:0000162c       ??_C@_0BH@MLCINLBO@IDM_CREATE_RESCUE_DISK?$AA@ 0049362c     Mount.obj
 0002:00001644       ??_C@_0BF@KPIIIAFE@IDM_SYS_ENC_SETTINGS?$AA@ 00493644     Mount.obj
 0002:0000165c       ??_C@_0CF@CAHOHCGA@IDM_CHANGE_SYS_HEADER_KEY_DERIV_@ 0049365c     Mount.obj
 0002:00001684       ??_C@_0BI@CKBDIDDP@IDM_CHANGE_SYS_PASSWORD?$AA@ 00493684     Mount.obj
 0002:0000169c       ??_C@_07CAOFPAJK@ENCRYPT?$AA@ 0049369c     Mount.obj
 0002:000016a4       ??_C@_0BE@NCCLMCDM@PERMANENTLY_DECRYPT?$AA@ 004936a4     Mount.obj
 0002:000016b8       ??_C@_0BC@EGBHACCE@IDM_SYSENC_RESUME?$AA@ 004936b8     Mount.obj
 0002:000016cc       ??_C@_0BO@FKAHPBKI@?2Device?2Harddisk?$CFd?2Partition0?$AA@ 004936cc     Mount.obj
 0002:000016ec       ??_C@_0BN@CEPHIDFC@?2Device?2Harddisk?$CFd?2Partition?$AA@ 004936ec     Mount.obj
 0002:0000170c       ??_C@_01CLKCMJKC@?5?$AA@   0049370c     Mount.obj
 0002:00001710       ??_C@_0BO@KBIBLJFA@VOL_CREATION_WIZARD_NOT_FOUND?$AA@ 00493710     Mount.obj
 0002:00001730       ??_C@_0BH@HJNOPFHJ@CipherShed?5Format?4exe?$CC?$AA@ 00493730     Mount.obj
 0002:00001748       ??_C@_0BB@MMDPAFIK@CANNOT_SET_TIMER?$AA@ 00493748     Mount.obj
 0002:0000175c       ??_C@_0BK@EBNLJAJI@IDD_PCDM_CHANGE_PKCS5_PRF?$AA@ 0049375c     Mount.obj
 0002:00001778       ??_C@_0CB@POIELMAL@IDD_PCDM_ADD_REMOVE_VOL_KEYFILES@ 00493778     Mount.obj
 0002:0000179c       ??_C@_0CG@JOKOOJHO@IDD_PCDM_REMOVE_ALL_KEYFILES_FRO@ 0049379c     Mount.obj
 0002:000017c4       ??_C@_09ECKOGGEP@UNCHANGED?$AA@ 004937c4     Mount.obj
 0002:000017d0       ??_C@_0BH@OAALJAFL@IDD_PASSWORDCHANGE_DLG?$AA@ 004937d0     Mount.obj
 0002:000017e8       ??_C@_0BJ@CPHEENHA@UNSUPPORTED_CHARS_IN_PWD?$AA@ 004937e8     Mount.obj
 0002:00001804       ??_C@_0CG@FCGANOF@ALGO_NOT_SUPPORTED_FOR_SYS_ENCRY@ 00493804     Mount.obj
 0002:0000182c       ??_C@_0CK@PHDAOPJF@KEYFILES_NOT_SUPPORTED_FOR_SYS_E@ 0049382c     Mount.obj
 0002:00001858       ??_C@_0CF@OEJEFNLJ@ALT_KEY_CHARS_NOT_FOR_SYS_ENCRYP@ 00493858     Mount.obj
 0002:00001880       ??_C@_0CA@HGCGAMEK@KEYB_LAYOUT_SYS_ENC_EXPLANATION?$AA@ 00493880     Mount.obj
 0002:000018a0       ??_C@_0BN@MNCKOJDH@KEYB_LAYOUT_CHANGE_PREVENTED?$AA@ 004938a0     Mount.obj
 0002:000018c0       ??_C@_0CL@KAEHBIEI@CANT_CHANGE_KEYB_LAYOUT_FOR_SYS_@ 004938c0     Mount.obj
 0002:000018ec       ??_C@_08OKJEGFFL@00000409?$AA@ 004938ec     Mount.obj
 0002:000018f8       ??_C@_0BA@OIDCBJLP@FIRST_AVAILABLE?$AA@ 004938f8     Mount.obj
 0002:00001908       ??_C@_0BB@KOMHMFOJ@IDD_TRAVELER_DLG?$AA@ 00493908     Mount.obj
 0002:0000191c       ??_C@_0BG@EAOOIFHO@TRAVELER_DISK_CREATED?$AA@ 0049391c     Mount.obj
 0002:00001938       ??_C@_1JE@HACDHGGM@?$AAs?$AAh?$AAe?$AAl?$AAl?$AA?2?$AAd?$AAi?$AAs?$AAm?$AAo?$AAu?$AAn?$AAt?$AA?$DN?$AA?$CF?$AAs?$AA?6?$AAs?$AAh?$AAe?$AAl?$AAl?$AA?2?$AAd?$AAi?$AAs?$AAm?$AAo?$AAu?$AAn?$AAt@ 00493938     Mount.obj
 0002:000019cc       ??_C@_0BI@DIPBHJCK@DISMOUNT_ALL_TC_VOLUMES?$AA@ 004939cc     Mount.obj
 0002:000019e8       ??_C@_1HM@MAHCOBAC@?$AAs?$AAh?$AAe?$AAl?$AAl?$AA?2?$AAs?$AAt?$AAa?$AAr?$AAt?$AA?$DN?$AA?$CF?$AAs?$AA?6?$AAs?$AAh?$AAe?$AAl?$AAl?$AA?2?$AAs?$AAt?$AAa?$AAr?$AAt?$AA?2?$AAc?$AAo?$AAm?$AAm?$AAa@ 004939e8     Mount.obj
 0002:00001a64       ??_C@_1BE@KMHACBEF@?$AAo?$AAp?$AAe?$AAn?$AA?$DN?$AA?$CF?$AAh?$AAs?$AA?6?$AA?$AA@ 00493a64     Mount.obj
 0002:00001a78       ??_C@_0BK@HJGFLODN@CipherShed?2CipherShed?4exe?$AA@ 00493a78     Mount.obj
 0002:00001a94       ??_C@_1BG@HBMCJIGD@?$AAa?$AAc?$AAt?$AAi?$AAo?$AAn?$AA?$DN?$AA?$CF?$AAs?$AA?6?$AA?$AA@ 00493a94     Mount.obj
 0002:00001aac       ??_C@_0BF@FNOLBOJK@IDC_PREF_LOGON_START?$AA@ 00493aac     Mount.obj
 0002:00001ac4       ??_C@_0BA@GLIKLLDG@MOUNT_TC_VOLUME?$AA@ 00493ac4     Mount.obj
 0002:00001ad8       ??_C@_1GG@FCCOHAAK@?$AA?$FL?$AAa?$AAu?$AAt?$AAo?$AAr?$AAu?$AAn?$AA?$FN?$AA?6?$AAl?$AAa?$AAb?$AAe?$AAl?$AA?$DN?$AA?$CF?$AAs?$AA?6?$AAi?$AAc?$AAo?$AAn?$AA?$DN?$AAC?$AAi?$AAp?$AAh?$AAe?$AAr?$AAS?$AAh@ 00493ad8     Mount.obj
 0002:00001b40       ??_C@_0BB@OANGMHDM@TC_TRAVELER_DISK?$AA@ 00493b40     Mount.obj
 0002:00001b54       ??_C@_0DM@DKKPKDEI@CipherShed?2CipherShed?4exe?5?1q?5bac@ 00493b54     Mount.obj
 0002:00001b90       ??_C@_03FFBCBBOC@?5?1e?$AA@ 00493b90     Mount.obj
 0002:00001b94       ??_C@_05OFCDDPAN@?5?1c?5y?$AA@ 00493b94     Mount.obj
 0002:00001b9c       ??_C@_06CPFEHJGK@?5?1m?5ro?$AA@ 00493b9c     Mount.obj
 0002:00001ba4       ??_C@_0BE@JLOKBADK@CANT_CREATE_AUTORUN?$AA@ 00493ba4     Mount.obj
 0002:00001bb8       ??_C@_0O@NLMEGGOA@w?0ccs?$DNUNICODE?$AA@ 00493bb8     Mount.obj
 0002:00001bc8       ??_C@_0P@PNEANFPE@?$CFs?2autorun?4inf?$AA@ 00493bc8     Mount.obj
 0002:00001bd8       ??_C@_0BO@DOBPCGCP@?$CFs?2CipherShed?2Language?4?$CFs?4xml?$AA@ 00493bd8     Mount.obj
 0002:00001bf8       ??_C@_0BD@CKMJLFFK@?$CFs?2Language?4?$CFs?4xml?$AA@ 00493bf8     Mount.obj
 0002:00001c0c       ??_C@_02LFNMGJAP@en?$AA@   00493c0c     Mount.obj
 0002:00001c10       ??_C@_0CA@HFBFOIIO@?$CFs?2CipherShed?2truecrypt?9x64?4sys?$AA@ 00493c10     Mount.obj
 0002:00001c30       ??_C@_0BF@EOFLLDBF@?$CFs?2truecrypt?9x64?4sys?$AA@ 00493c30     Mount.obj
 0002:00001c48       ??_C@_0BM@NEDOPHHN@?$CFs?2CipherShed?2truecrypt?4sys?$AA@ 00493c48     Mount.obj
 0002:00001c64       ??_C@_0BB@BGNGAFJM@?$CFs?2truecrypt?4sys?$AA@ 00493c64     Mount.obj
 0002:00001c78       ??_C@_0CE@FGKIDEOD@?$CFs?2CipherShed?2CipherShed?5Format?4@ 00493c78     Mount.obj
 0002:00001c9c       ??_C@_0BJ@IDPBBILI@?$CFs?2CipherShed?5Format?4exe?$AA@ 00493c9c     Mount.obj
 0002:00001cb8       ??_C@_0BN@CCABONAP@?$CFs?2CipherShed?2CipherShed?4exe?$AA@ 00493cb8     Mount.obj
 0002:00001cd8       ??_C@_0BC@PFMONHBD@?$CFs?2CipherShed?4exe?$AA@ 00493cd8     Mount.obj
 0002:00001cec       ??_C@_0O@JJPBLNNC@?$CFs?2CipherShed?$AA@ 00493cec     Mount.obj
 0002:00001cfc       ??_C@_01BJJEKLCA@?$CC?$AA@ 00493cfc     Mount.obj
 0002:00001d00       ??_C@_0BB@EGBJNKPM@NO_FILE_SELECTED?$AA@ 00493d00     Mount.obj
 0002:00001d14       ??_C@_0BB@EDOKKIEO@NO_PATH_SELECTED?$AA@ 00493d14     Mount.obj
 0002:00001d28       ??_C@_0BA@DJBAGGGN@SELECT_DEST_DIR?$AA@ 00493d28     Mount.obj
 0002:00001d38       ??_C@_0L@GHEOANHD@OPEN_TITLE?$AA@ 00493d38     Mount.obj
 0002:00001d44       ??_C@_0BM@BMCDENFC@AUTORUN_MAY_NOT_ALWAYS_WORK?$AA@ 00493d44     Mount.obj
 0002:00001d60       ??_C@_0BC@EIILMKAM@PKCS5_PRF_CHANGED?$AA@ 00493d60     Mount.obj
 0002:00001d74       ??_C@_0BB@DEPMFMC@PASSWORD_CHANGED?$AA@ 00493d74     Mount.obj
 0002:00001d88       ??_C@_0BA@LJPOPGOF@KEYFILE_CHANGED?$AA@ 00493d88     Mount.obj
 0002:00001d98       ??_C@_0BD@OHBCOECM@MOUNTED_NOPWCHANGE?$AA@ 00493d98     Mount.obj
 0002:00001dac       ??_C@_0BM@FIBIL@MOUNTED_NO_PKCS5_PRF_CHANGE?$AA@ 00493dac     Mount.obj
 0002:00001dc8       ??_C@_0CP@MHIMBFBH@SYS_PARTITION_OR_DRIVE_APPEARS_F@ 00493dc8     Mount.obj
 0002:00001df8       ??_C@_0CI@FPFBOAHN@SYSTEM_ENCRYPTION_IN_PROGRESS_EL@ 00493df8     Mount.obj
 0002:00001e20       ??_C@_07PFDFIFLD@?1sysenc?$AA@ 00493e20     Mount.obj
 0002:00001e28       ??_C@_0CK@CMNICGGD@Global?2TrueCrypt?5System?5Encrypti@ 00493e28     Mount.obj
 0002:00001e54       ??_C@_08FPKBNNLN@?1dsysenc?$AA@ 00493e54     Mount.obj
 0002:00001e60       ??_C@_0CJ@GFEACENL@SYS_ENCRYPTION_OR_DECRYPTION_IN_@ 00493e60     Mount.obj
 0002:00001e8c       ??_C@_0CD@DOIAPED@CONFIRM_DECRYPT_SYS_DEVICE_CAUTI@ 00493e8c     Mount.obj
 0002:00001eb0       ??_C@_0BL@DACABIPE@CONFIRM_DECRYPT_SYS_DEVICE?$AA@ 00493eb0     Mount.obj
 0002:00001ecc       ??_C@_0BJ@KGJBOMKO@CANNOT_DECRYPT_HIDDEN_OS?$AA@ 00493ecc     Mount.obj
 0002:00001ee8       ??_C@_0BI@BHICMCGD@SYS_DRIVE_NOT_ENCRYPTED?$AA@ 00493ee8     Mount.obj
 0002:00001f00       ??_C@_08MEKEMIGM@?1isysenc?$AA@ 00493f00     Mount.obj
 0002:00001f0c       ??_C@_0BC@FGMBBDKC@HIDDEN_OS_PREINFO?$AA@ 00493f0c     Mount.obj
 0002:00001f20       ??_C@_08FFGENEKE@?1csysenc?$AA@ 00493f20     Mount.obj
 0002:00001f2c       ??_C@_09FFOCOHMH@?1zinplace?$AA@ 00493f2c     Mount.obj
 0002:00001f38       ??_C@_0BD@LGCKNJIO@COMMAND_LINE_ERROR?$AA@ 00493f38     Mount.obj
 0002:00001f4c       ??_C@_0L@EGCKCJDC@background?$AA@ 00493f4c     Mount.obj
 0002:00001f58       ??_C@_0M@OAMDCHEH@preferences?$AA@ 00493f58     Mount.obj
 0002:00001f64       ??_C@_03IIGECEEC@UAC?$AA@  00493f64     Mount.obj
 0002:00001f68       ??_C@_08MPLGCJPF@recovery?$AA@ 00493f68     Mount.obj
 0002:00001f74       ??_C@_09COBBNOIA@headerbak?$AA@ 00493f74     Mount.obj
 0002:00001f80       ??_C@_02MNOEILMP@bk?$AA@   00493f80     Mount.obj
 0002:00001f84       ??_C@_02IGFKOFAO@sm?$AA@   00493f84     Mount.obj
 0002:00001f88       ??_C@_09OMDJNLDP@timestamp?$AA@ 00493f88     Mount.obj
 0002:00001f94       ??_C@_02FHFEMMFE@ts?$AA@   00493f94     Mount.obj
 0002:00001f98       ??_C@_02IHJIIPDJ@rm?$AA@   00493f98     Mount.obj
 0002:00001f9c       ??_C@_02LFKOONLL@ro?$AA@   00493f9c     Mount.obj
 0002:00001fa0       ??_C@_0BB@JACLBFH@BAD_DRIVE_LETTER?$AA@ 00493fa0     Mount.obj
 0002:00001fb4       ??_C@_02KAJCLHKP@no?$AA@   00493fb4     Mount.obj
 0002:00001fb8       ??_C@_01EFFIKLCJ@n?$AA@    00493fb8     Mount.obj
 0002:00001fbc       ??_C@_05DEGNHEGP@logon?$AA@ 00493fbc     Mount.obj
 0002:00001fc4       ??_C@_07DNDGGNGG@devices?$AA@ 00493fc4     Mount.obj
 0002:00001fcc       ??_C@_02FDNBMIAB@?1w?$AA@  00493fcc     Mount.obj
 0002:00001fd0       ??_C@_0L@ENHIBAFA@?1wipecache?$AA@ 00493fd0     Mount.obj
 0002:00001fdc       ??_C@_02EKMKPJEA@?1v?$AA@  00493fdc     Mount.obj
 0002:00001fe0       ??_C@_07JEDHAFIB@?1volume?$AA@ 00493fe0     Mount.obj
 0002:00001fe8       ??_C@_09JABABBPB@?1tokenlib?$AA@ 00493fe8     Mount.obj
 0002:00001ff4       ??_C@_02DHLNANAF@?1s?$AA@  00493ff4     Mount.obj
 0002:00001ff8       ??_C@_07BBNAADON@?1silent?$AA@ 00493ff8     Mount.obj
 0002:00002000       ??_C@_02FILGPIH@?1q?$AA@   00494000     Mount.obj
 0002:00002004       ??_C@_05CMMBDMDD@?1quit?$AA@ 00494004     Mount.obj
 0002:0000200c       ??_C@_02BMJAFOMG@?1p?$AA@  0049400c     Mount.obj
 0002:00002010       ??_C@_09GAKENAOK@?1password?$AA@ 00494010     Mount.obj
 0002:0000201c       ??_C@_02ODPMDCNK@?1m?$AA@  0049401c     Mount.obj
 0002:00002020       ??_C@_0N@DJNKKGFK@?1mountoption?$AA@ 00494020     Mount.obj
 0002:00002030       ??_C@_02PKOHADJL@?1l?$AA@  00494030     Mount.obj
 0002:00002034       ??_C@_07BFLOILGP@?1letter?$AA@ 00494034     Mount.obj
 0002:0000203c       ??_C@_02LFKGJFFM@?1k?$AA@  0049403c     Mount.obj
 0002:00002040       ??_C@_08DFIHLCEH@?1keyfile?$AA@ 00494040     Mount.obj
 0002:0000204c       ??_C@_02JOILMGJP@?1h?$AA@  0049404c     Mount.obj
 0002:00002050       ??_C@_08BCLHLEKP@?1history?$AA@ 00494050     Mount.obj
 0002:0000205c       ??_C@_02GLHBANAM@?1?$DP?$AA@ 0049405c     Mount.obj
 0002:00002060       ??_C@_05HDIPJJLA@?1help?$AA@ 00494060     Mount.obj
 0002:00002068       ??_C@_02IOLBB@?1f?$AA@     00494068     Mount.obj
 0002:0000206c       ??_C@_06NIEOHKD@?1force?$AA@ 0049406c     Mount.obj
 0002:00002074       ??_C@_02CLCFLINC@?1e?$AA@  00494074     Mount.obj
 0002:00002078       ??_C@_08HIGIMFLE@?1explore?$AA@ 00494078     Mount.obj
 0002:00002084       ??_C@_02DCDOIJJD@?1d?$AA@  00494084     Mount.obj
 0002:00002088       ??_C@_09ELHLJIDE@?1dismount?$AA@ 00494088     Mount.obj
 0002:00002094       ??_C@_02HNHPBPFE@?1c?$AA@  00494094     Mount.obj
 0002:00002098       ??_C@_06GIJBHGK@?1cache?$AA@ 00494098     Mount.obj
 0002:000020a0       ??_C@_02GEGECOBF@?1b?$AA@  004940a0     Mount.obj
 0002:000020a4       ??_C@_05DGOOLKJO@?1beep?$AA@ 004940a4     Mount.obj
 0002:000020ac       ??_C@_02EPEJHNNG@?1a?$AA@  004940ac     Mount.obj
 0002:000020b0       ??_C@_05PBOJFAAI@?1auto?$AA@ 004940b0     Mount.obj
 0002:000020b8       ??_C@_0L@JGIDNNFC@?9Embedding?$AA@ 004940b8     Mount.obj
 0002:000020c4       ??_C@_1BG@INDNNNCG@?$AAC?$AAi?$AAp?$AAh?$AAe?$AAr?$AAS?$AAh?$AAe?$AAd?$AA?$AA@ 004940c4     Mount.obj
 0002:000020dc       ??_C@_0BG@GANMCCCG@CipherShedTaskBarIcon?$AA@ 004940dc     Mount.obj
 0002:000020f4       ??_C@_0BF@DOFEIEI@?6?7?$DM?1defaultkeyfiles?$DO?$AA@ 004940f4     Mount.obj
 0002:0000210c       ??_C@_0BJ@CHEIJIHP@?6?7?7?$DMkeyfile?$DO?$CFs?$DM?1keyfile?$DO?$AA@ 0049410c     Mount.obj
 0002:00002128       ??_C@_0BE@OMMCBCFB@?6?7?$DMdefaultkeyfiles?$DO?$AA@ 00494128     Mount.obj
 0002:0000213c       ??_C@_01NOFIACDB@w?$AA@    0049413c     Mount.obj
 0002:00002140       ??_C@_0BF@CEDLNBLM@Default?5Keyfiles?4xml?$AA@ 00494140     Mount.obj
 0002:00002158       ??_C@_0BO@DGLAJIIH@CONFIRM_SAVE_DEFAULT_KEYFILES?$AA@ 00494158     Mount.obj
 0002:0000217c       ??_7?$basic_ostream@DU?$char_traits@D@std@@@std@@6B@ 0049417c     Mount.obj
 0002:00002184       ??_7?$basic_istream@DU?$char_traits@D@std@@@std@@6B@ 00494184     Mount.obj
 0002:0000218c       ??_7?$basic_iostream@DU?$char_traits@D@std@@@std@@6B@ 0049418c     Mount.obj
 0002:00002194       ??_7?$basic_ios@DU?$char_traits@D@std@@@std@@6B@ 00494194     Mount.obj
 0002:0000219c       ??_7?$ctype@D@std@@6B@     0049419c     Mount.obj
 0002:000021c8       ??_C@_0P@JOHDMOHN@UNMOUNT_BUTTON?$AA@ 004941c8     Mount.obj
 0002:000021d8       ??_C@_0N@HBOIHDNA@MOUNT_BUTTON?$AA@ 004941d8     Mount.obj
 0002:000021e8       ??_C@_08BENDAOKD@Language?$AA@ 004941e8     Mount.obj
 0002:000021f4       ??_C@_03CGGPNEOP@?$CFc?3?$AA@ 004941f4     Mount.obj
 0002:000021f8       ??_C@_0BN@ILKHOBEF@NO_SYSENC_PARTITION_SELECTED?$AA@ 004941f8     Mount.obj
 0002:00002218       ??_C@_0CN@HPAOAPNF@MOUNT_WITHOUT_PBA_VOL_ON_ACTIVE_@ 00494218     Mount.obj
 0002:00002248       ??_C@_0N@PJPEEMEG@INVALID_PATH?$AA@ 00494248     Mount.obj
 0002:00002258       ??_C@_0BC@PDEAFOMG@SELECT_FREE_DRIVE?$AA@ 00494258     Mount.obj
 0002:0000226c       ??_C@_0BE@CHONIFKG@IDD_PREFERENCES_DLG?$AA@ 0049426c     Mount.obj
 0002:00002280       ??_C@_0BG@KMGBADNB@IDM_TOKEN_PREFERENCES?$AA@ 00494280     Mount.obj
 0002:00002298       ??_C@_0BF@ENCPBHMN@IDM_DEFAULT_KEYFILES?$AA@ 00494298     Mount.obj
 0002:000022b0       ??_C@_0BL@MNFBKGOL@IDM_SYS_FAVORITES_SETTINGS?$AA@ 004942b0     Mount.obj
 0002:000022cc       ??_C@_0BE@MAKEILOG@IDM_SYSENC_SETTINGS?$AA@ 004942cc     Mount.obj
 0002:000022e0       ??_C@_0BJ@EOENNFH@IDM_PERFORMANCE_SETTINGS?$AA@ 004942e0     Mount.obj
 0002:000022fc       ??_C@_0BE@LICAELEJ@IDM_HOTKEY_SETTINGS?$AA@ 004942fc     Mount.obj
 0002:00002310       ??_C@_0N@FMENHOOK@IDM_LANGUAGE?$AA@ 00494310     Mount.obj
 0002:00002320       ??_C@_0CB@JNMNPOPP@WARN_PREF_AUTO_DISMOUNT_ON_POWER@ 00494320     Mount.obj
 0002:00002344       ??_C@_0BI@MENNOFDM@WARN_PREF_AUTO_DISMOUNT?$AA@ 00494344     Mount.obj
 0002:0000235c       ??_C@_0BP@IFIIHFON@CONFIRM_NO_FORCED_AUTODISMOUNT?$AA@ 0049435c     Mount.obj
 0002:0000237c       ??_C@_0CB@DILBGMN@CONFIRM_BACKGROUND_TASK_DISABLED@ 0049437c     Mount.obj
 0002:000023a0       ??_C@_0BC@LMEHFMJL@IDD_MOUNT_OPTIONS?$AA@ 004943a0     Mount.obj
 0002:000023b4       ??_C@_0BN@GAPKAGEI@HIDVOL_PROT_BKG_TASK_WARNING?$AA@ 004943b4     Mount.obj
 0002:000023d4       ??_C@_0BE@ODKOANPA@hiddenvolprotection?$AA@ 004943d4     Mount.obj
 0002:000023e8       ??_C@_0P@GPHBLDDM@OPEN_VOL_TITLE?$AA@ 004943e8     Mount.obj
 0002:000023f8       ??_C@_0BL@PHEMONEB@PASSWORD_CACHE_WIPED_SHORT?$AA@ 004943f8     Mount.obj
 0002:00002414       ??_C@_0BF@NBAJKDBM@PASSWORD_CACHE_WIPED?$AA@ 00494414     Mount.obj
 0002:00002430       ??_7?$basic_streambuf@DU?$char_traits@D@std@@@std@@6B@ 00494430     Mount.obj
 0002:0000246c       ??_7?$basic_stringbuf@DU?$char_traits@D@std@@V?$allocator@D@2@@std@@6B@ 0049446c     Mount.obj
 0002:000024a8       ??_7?$num_put@DV?$ostreambuf_iterator@DU?$char_traits@D@std@@@std@@@std@@6B@ 004944a8     Mount.obj
 0002:000024cc       ??_C@_05LAPONLG@false?$AA@ 004944cc     Mount.obj
 0002:000024d4       ??_C@_04LOAJBDKD@true?$AA@ 004944d4     Mount.obj
 0002:000024dc       ??_C@_0BJ@PDMGJHBJ@TrueCryptSystemFavorites?$AA@ 004944dc     Mount.obj
 0002:000024fc       ??_7?$basic_stringstream@DU?$char_traits@D@std@@V?$allocator@D@2@@std@@6B@ 004944fc     Mount.obj
 0002:00002504       ??_7?$numpunct@D@std@@6B@  00494504     Mount.obj
 0002:00002520       ??_7runtime_error@std@@6B@ 00494520     Mount.obj
 0002:00002528       ??_C@_01OGPIMHDM@?$DP?$AA@ 00494528     Mount.obj
 0002:0000252c       ??_C@_0BM@HDAHKLF@PROCESSED_PORTION_X_PERCENT?$AA@ 0049452c     Mount.obj
 0002:00002548       __real@4059000000000000    00494548     Mount.obj
 0002:00002550       ??_C@_0CA@EPNHMBGD@ENCRYPTED_PORTION_NOT_ENCRYPTED?$AA@ 00494550     Mount.obj
 0002:00002570       ??_C@_0CC@FDEMMPMK@ENCRYPTED_PORTION_FULLY_ENCRYPTE@ 00494570     Mount.obj
 0002:00002594       ??_C@_0BC@EBMHNMJD@ENCRYPTED_PORTION?$AA@ 00494594     Mount.obj
 0002:000025a8       ??_C@_0BH@HPIFIMHF@TC_BOOT_LOADER_VERSION?$AA@ 004945a8     Mount.obj
 0002:000025c0       ??_C@_0BD@JBAOAAB@TOTAL_DATA_WRITTEN?$AA@ 004945c0     Mount.obj
 0002:000025d4       ??_C@_0BA@IKOIIHIN@TOTAL_DATA_READ?$AA@ 004945d4     Mount.obj
 0002:000025e4       ??_C@_0O@FKDNIFFO@BACKUP_HEADER?$AA@ 004945e4     Mount.obj
 0002:000025f4       ??_C@_02DPKJAMEF@?$CFd?$AA@ 004945f4     Mount.obj
 0002:000025f8       ??_C@_0BG@KEFCFEKB@VOLUME_FORMAT_VERSION?$AA@ 004945f8     Mount.obj
 0002:00002610       ??_C@_09KAGLGJME@PKCS5_PRF?$AA@ 00494610     Mount.obj
 0002:0000261c       ??_C@_0BC@KECMIANL@MODE_OF_OPERATION?$AA@ 0049461c     Mount.obj
 0002:00002630       ??_C@_17BIBMKONG@?$AA?$CF?$AAd?$AA?5?$AA?$AA@ 00494630     Mount.obj
 0002:00002638       ??_C@_17FJKOKELN@?$AA?1?$AA?$CF?$AAd?$AA?$AA@ 00494638     Mount.obj
 0002:00002640       ??_C@_15KNBIKKIN@?$AA?$CF?$AAd?$AA?$AA@ 00494640     Mount.obj
 0002:00002648       ??_C@_0L@PGLNCJOA@BLOCK_SIZE?$AA@ 00494648     Mount.obj
 0002:00002654       ??_C@_0BH@CBHGPDIL@SECONDARY_KEY_SIZE_LRW?$AA@ 00494654     Mount.obj
 0002:0000266c       ??_C@_03JFLLPGCL@LRW?$AA@  0049466c     Mount.obj
 0002:00002670       ??_C@_0BH@JOOMIKPF@SECONDARY_KEY_SIZE_XTS?$AA@ 00494670     Mount.obj
 0002:00002688       ??_C@_03CKCBIPFF@XTS?$AA@  00494688     Mount.obj
 0002:0000268c       ??_C@_1M@LCJMIND@?$AA?$CF?$AAd?$AA?5?$AA?$CF?$AAs?$AA?$AA@ 0049468c     Mount.obj
 0002:00002698       ??_C@_04HNBJMIH@BITS?$AA@  00494698     Mount.obj
 0002:000026a0       ??_C@_08BKFDBOMO@KEY_SIZE?$AA@ 004946a0     Mount.obj
 0002:000026ac       ??_C@_0L@NEGMAKNF@Triple?5DES?$AA@ 004946ac     Mount.obj
 0002:000026b8       ??_C@_0BF@IHNHLCAB@ENCRYPTION_ALGORITHM?$AA@ 004946b8     Mount.obj
 0002:000026d0       ??_C@_0BJ@JMEOPGAH@HID_VOL_DAMAGE_PREVENTED?$AA@ 004946d0     Mount.obj
 0002:000026ec       ??_C@_0CA@KEHLKHJA@NOT_APPLICABLE_OR_NOT_AVAILABLE?$AA@ 004946ec     Mount.obj
 0002:0000270c       ??_C@_0BG@NHADNFHI@HIDDEN_VOL_PROTECTION?$AA@ 0049470c     Mount.obj
 0002:00002724       ??_C@_09JHINKGCK@UISTR_YES?$AA@ 00494724     Mount.obj
 0002:00002730       ??_C@_08EOJLPPDK@UISTR_NO?$AA@ 00494730     Mount.obj
 0002:0000273c       ??_C@_09COKLNMKA@READ_ONLY?$AA@ 0049473c     Mount.obj
 0002:00002748       ??_C@_06IOJAGNKJ@NORMAL?$AA@ 00494748     Mount.obj
 0002:00002750       ??_C@_05PKHDEOFG@OUTER?$AA@ 00494750     Mount.obj
 0002:00002758       ??_C@_06JMIOFMHI@HIDDEN?$AA@ 00494758     Mount.obj
 0002:00002760       ??_C@_0BN@OIBEPDD@SYSTEM_VOLUME_TYPE_ADJECTIVE?$AA@ 00494760     Mount.obj
 0002:00002780       ??_C@_0BN@DBMDCCJC@TYPE_HIDDEN_SYSTEM_ADJECTIVE?$AA@ 00494780     Mount.obj
 0002:000027a0       ??_C@_04KDPJLEDB@TYPE?$AA@ 004947a0     Mount.obj
 0002:000027a8       ??_C@_1BC@FBJLKEEF@?$AA?$CF?$AAI?$AA6?$AA4?$AAu?$AA?5?$AA?$CF?$AAs?$AA?$AA@ 004947a8     Mount.obj
 0002:000027bc       ??_C@_05JKAGIBMI@BYTES?$AA@ 004947bc     Mount.obj
 0002:000027c4       ??_C@_04EMFHLKGI@SIZE?$AA@ 004947c4     Mount.obj
 0002:000027cc       ??_C@_0BB@NIFEDNAB@SYSTEM_PARTITION?$AA@ 004947cc     Mount.obj
 0002:000027e0       ??_C@_0BI@NAKILHP@HIDDEN_SYSTEM_PARTITION?$AA@ 004947e0     Mount.obj
 0002:000027f8       ??_C@_0N@JCIDDNEG@SYSTEM_DRIVE?$AA@ 004947f8     Mount.obj
 0002:00002808       ??_C@_08FOLJKLOE@LOCATION?$AA@ 00494808     Mount.obj
 0002:00002814       ??_C@_08DDLBCDJK@PROPERTY?$AA@ 00494814     Mount.obj
 0002:00002820       ??_C@_05MHMCHENB@VALUE?$AA@ 00494820     Mount.obj
 0002:00002828       ??_C@_0BG@JEJOMNKK@IDD_VOLUME_PROPERTIES?$AA@ 00494828     Mount.obj
 0002:00002840       ??_C@_0BHH@CINFKGAJ@Debugging?5information?5for?5system@ 00494840     Mount.obj
 0002:000029b8       ??_C@_0BN@NCIHJKNO@ASK_DELETE_KERNEL_CRASH_DUMP?$AA@ 004949b8     Mount.obj
 0002:000029dc       ??_7failure@ios_base@std@@6B@ 004949dc     Mount.obj
 0002:000029e4       ??_C@_08EPJLHIJG@bad?5cast?$AA@ 004949e4     Mount.obj
 0002:000029f0       ??_C@_0BF@OOHOMBOF@ios_base?3?3eofbit?5set?$AA@ 004949f0     Mount.obj
 0002:00002a08       ??_C@_0BG@FMKFHCIL@ios_base?3?3failbit?5set?$AA@ 00494a08     Mount.obj
 0002:00002a20       ??_C@_0BF@PHHKMMFD@ios_base?3?3badbit?5set?$AA@ 00494a20     Mount.obj
 0002:00002a38       ??_C@_0CC@LCDEFKJP@DAMAGE_TO_HIDDEN_VOLUME_PREVENTE@ 00494a38     Mount.obj
 0002:00002a5c       ??_C@_13HGPDMIBE@?$AA?$DP?$AA?$AA@ 00494a5c     Mount.obj
 0002:00002a60       ??_C@_0BK@GNLJADMH@OUTER_VOL_WRITE_PREVENTED?$AA@ 00494a60     Mount.obj
 0002:00002a7c       ??_C@_17HIGNGECK@?$AA_?$AA_?$AA_?$AA?$AA@ 00494a7c     Mount.obj
 0002:00002a84       ??_C@_0CF@LEGOPDKD@SYSTEM_PARTITION_PARTIALLY_ENCRY@ 00494a84     Mount.obj
 0002:00002aac       ??_C@_0BM@FCEEKADB@SYSTEM_PARTITION_DECRYPTING?$AA@ 00494aac     Mount.obj
 0002:00002ac8       ??_C@_0BM@GLCKIEAG@SYSTEM_PARTITION_ENCRYPTING?$AA@ 00494ac8     Mount.obj
 0002:00002ae4       ??_C@_0CB@NENDIPBG@SYSTEM_DRIVE_PARTIALLY_ENCRYPTED@ 00494ae4     Mount.obj
 0002:00002b08       ??_C@_0BI@GFAMFOII@SYSTEM_DRIVE_DECRYPTING?$AA@ 00494b08     Mount.obj
 0002:00002b20       ??_C@_0BI@FMGCHKLP@SYSTEM_DRIVE_ENCRYPTING?$AA@ 00494b20     Mount.obj
 0002:00002b38       ??_C@_0N@LABMODCO@DRIVELETTERS?$AA@ 00494b38     Mount.obj
 0002:00002b48       ??_C@_02EEDMFDPC@Z?3?$AA@  00494b48     Mount.obj
 0002:00002b4c       ??_C@_02EGHKONKL@Y?3?$AA@  00494b4c     Mount.obj
 0002:00002b50       ??_C@_02EHLIIHJM@X?3?$AA@  00494b50     Mount.obj
 0002:00002b54       ??_C@_02EMOEMAKB@W?3?$AA@  00494b54     Mount.obj
 0002:00002b58       ??_C@_02ENCGKKJG@V?3?$AA@  00494b58     Mount.obj
 0002:00002b5c       ??_C@_02EPGABEMP@U?3?$AA@  00494b5c     Mount.obj
 0002:00002b60       ??_C@_02EOKCHOPI@T?3?$AA@  00494b60     Mount.obj
 0002:00002b64       ??_C@_02ELONGIHN@S?3?$AA@  00494b64     Mount.obj
 0002:00002b68       ??_C@_02EKCPACEK@R?3?$AA@  00494b68     Mount.obj
 0002:00002b6c       ??_C@_02EIGJLMBD@Q?3?$AA@  00494b6c     Mount.obj
 0002:00002b70       ??_C@_02EJKLNGCE@P?3?$AA@  00494b70     Mount.obj
 0002:00002b74       ??_C@_02FONBDCGJ@O?3?$AA@  00494b74     Mount.obj
 0002:00002b78       ??_C@_02FPBDFIFO@N?3?$AA@  00494b78     Mount.obj
 0002:00002b7c       ??_C@_02FNFFOGAH@M?3?$AA@  00494b7c     Mount.obj
 0002:00002b80       ??_C@_02FMJHIMDA@L?3?$AA@  00494b80     Mount.obj
 0002:00002b84       ??_C@_02FJNIJKLF@K?3?$AA@  00494b84     Mount.obj
 0002:00002b88       ??_C@_02FIBKPAIC@J?3?$AA@  00494b88     Mount.obj
 0002:00002b8c       ??_C@_02FKFMEONL@I?3?$AA@  00494b8c     Mount.obj
 0002:00002b90       ??_C@_02FLJOCEOM@H?3?$AA@  00494b90     Mount.obj
 0002:00002b94       ??_C@_02FAMCGDNB@G?3?$AA@  00494b94     Mount.obj
 0002:00002b98       ??_C@_02FBAAAJOG@F?3?$AA@  00494b98     Mount.obj
 0002:00002b9c       ??_C@_02FDEGLHLP@E?3?$AA@  00494b9c     Mount.obj
 0002:00002ba0       ??_C@_02FCIENNII@D?3?$AA@  00494ba0     Mount.obj
 0002:00002ba4       ??_C@_02FHMLMLAN@C?3?$AA@  00494ba4     Mount.obj
 0002:00002ba8       ??_C@_02FGAJKBDK@B?3?$AA@  00494ba8     Mount.obj
 0002:00002bac       ??_C@_02FEEPBPGD@A?3?$AA@  00494bac     Mount.obj
 0002:00002bb0       ??_C@_04JIMNDDED@?$CF08X?$AA@ 00494bb0     Mount.obj
 0002:00002bb8       ??_C@_0BD@OPCEEDMD@ENTER_PASSWORD_FOR?$AA@ 00494bb8     Mount.obj
 0002:00002bcc       ??_C@_03BHBGBHAB@___?$AA@  00494bcc     Mount.obj
 0002:00002bd0       ??_C@_0BJ@NGNFBMFD@ENTER_PASSWORD_FOR_LABEL?$AA@ 00494bd0     Mount.obj
 0002:00002bec       ??_C@_0BB@HOAEAIOP@IDD_PASSWORD_DLG?$AA@ 00494bec     Mount.obj
 0002:00002c00       ??_C@_0BP@BGCHIACG@CANNOT_RESTORE_KEYBOARD_LAYOUT?$AA@ 00494c00     Mount.obj
 0002:00002c20       ??_C@_0BI@MJIJHAHP@ENCRYPTION_ALGORITHM_LV?$AA@ 00494c20     Mount.obj
 0002:00002c38       ??_C@_0CA@CIGKJDHB@SYSTEM_ENCRYPTION_NOT_COMPLETED?$AA@ 00494c38     Mount.obj
 0002:00002c58       ??_C@_0BL@IAKJDMNN@ERROR_CREATING_RESCUE_DISK?$AA@ 00494c58     Mount.obj
 0002:00002c74       ??_C@_0CF@JPIEPDKB@RESCUE_DISK_NON_WIZARD_CREATION_@ 00494c74     Mount.obj
 0002:00002c9c       ??_C@_0CM@GACCFBMA@RESCUE_DISK_NON_WIZARD_CREATION_@ 00494c9c     Mount.obj
 0002:00002cc8       ??_C@_1DG@LPBIMLFN@?$AAC?$AAi?$AAp?$AAh?$AAe?$AAr?$AAS?$AAh?$AAe?$AAd?$AA?5?$AAR?$AAe?$AAs?$AAc?$AAu?$AAe?$AA?5?$AAD?$AAi?$AAs?$AAk?$AA?4?$AAi?$AAs?$AAo?$AA?$AA@ 00494cc8     Mount.obj
 0002:00002d00       ??_C@_17LLIKADDM@?$AAi?$AAs?$AAo?$AA?$AA@ 00494d00     Mount.obj
 0002:00002d08       ??_C@_0CM@JEBIBPGJ@RESCUE_DISK_NON_WIZARD_CREATION_@ 00494d08     Mount.obj
 0002:00002d34       ??_C@_0CH@DMFOBPHA@CANNOT_CREATE_RESCUE_DISK_ON_HID@ 00494d34     Mount.obj
 0002:00002d5c       ??_C@_0CE@MMCPJNND@RESCUE_DISK_NON_WIZARD_CHECK_PAS@ 00494d5c     Mount.obj
 0002:00002d80       ??_C@_0CE@OKALPMMN@RESCUE_DISK_NON_WIZARD_CHECK_FAI@ 00494d80     Mount.obj
 0002:00002da4       ??_C@_0CE@OJOGFJPM@RESCUE_DISK_NON_WIZARD_CHECK_INS@ 00494da4     Mount.obj
 0002:00002dc8       ??_C@_0BF@CNAIDNAO@VOL_HEADER_BACKED_UP?$AA@ 00494dc8     Mount.obj
 0002:00002de0       ??_C@_0BH@GJOFNIEF@CONFIRM_VOL_HEADER_BAK?$AA@ 00494de0     Mount.obj
 0002:00002df8       ??_C@_08DDAIHKOO@IDCANCEL?$AA@ 00494df8     Mount.obj
 0002:00002e04       ??_C@_0BP@MCBDNFBA@VOLUME_DOES_NOT_CONTAIN_HIDDEN?$AA@ 00494e04     Mount.obj
 0002:00002e24       ??_C@_0BH@ICMGDKFO@VOLUME_CONTAINS_HIDDEN?$AA@ 00494e24     Mount.obj
 0002:00002e3c       ??_C@_0BL@NFANNLME@DOES_VOLUME_CONTAIN_HIDDEN?$AA@ 00494e3c     Mount.obj
 0002:00002e58       ??_C@_0BK@PFPMCGBA@ENTER_NORMAL_VOL_PASSWORD?$AA@ 00494e58     Mount.obj
 0002:00002e74       ??_C@_0BK@NBNNCJIA@ENTER_HIDDEN_VOL_PASSWORD?$AA@ 00494e74     Mount.obj
 0002:00002e90       ??_C@_0CD@BMDCPMNN@EXTERNAL_VOL_HEADER_BAK_FIRST_IN@ 00494e90     Mount.obj
 0002:00002eb4       ??_C@_0P@MICPAHBN@DISMOUNT_FIRST?$AA@ 00494eb4     Mount.obj
 0002:00002ec4       ??_C@_0CB@COFHFDLC@BACKUP_HEADER_NOT_FOR_SYS_DEVICE@ 00494ec4     Mount.obj
 0002:00002ee8       ??_C@_0BE@KBMHKHFE@VOL_HEADER_RESTORED?$AA@ 00494ee8     Mount.obj
 0002:00002efc       ??_C@_0BN@OAEDFHDH@ENTER_HEADER_BACKUP_PASSWORD?$AA@ 00494efc     Mount.obj
 0002:00002f1c       ??_C@_0BN@JPMMBOLE@HEADER_BACKUP_SIZE_INCORRECT?$AA@ 00494f1c     Mount.obj
 0002:00002f3c       ??_C@_0BL@LDJEOHOC@CONFIRM_VOL_HEADER_RESTORE?$AA@ 00494f3c     Mount.obj
 0002:00002f58       ??_C@_0BM@IJOHKBBH@VOLUME_HAS_NO_BACKUP_HEADER?$AA@ 00494f58     Mount.obj
 0002:00002f74       ??_C@_0BI@BLBOEPDF@HEADER_RESTORE_EXTERNAL?$AA@ 00494f74     Mount.obj
 0002:00002f8c       ??_C@_0BI@EHPOIEIN@HEADER_RESTORE_INTERNAL?$AA@ 00494f8c     Mount.obj
 0002:00002fa4       ??_C@_0CB@FAFBPKHB@HEADER_RESTORE_EXTERNAL_INTERNAL@ 00494fa4     Mount.obj
 0002:00002fc8       ??_C@_0CC@JDGAADHA@RESTORE_HEADER_NOT_FOR_SYS_DEVIC@ 00494fc8     Mount.obj
 0002:00002fec       ??_C@_0BJ@CFHJALGH@PKCS11_LIB_LOCATION_HELP?$AA@ 00494fec     Mount.obj
 0002:00003008       ??_C@_0BG@FENNOOCF@IDD_TOKEN_PREFERENCES?$AA@ 00495008     Mount.obj
 0002:00003020       ??_C@_0CE@OHLDMBDC@PKCS11_MODULE_AUTO_DETECTION_FAI@ 00495020     Mount.obj
 0002:00003044       ??_C@_0BC@GHFGDNNP@C_GetFunctionList?$AA@ 00495044     Mount.obj
 0002:00003058       ??_C@_01KICIPPFI@?2?$AA@   00495058     Mount.obj
 0002:0000305c       ??_C@_06GCOBGCMM@?2?$CK?4dll?$AA@ 0049505c     Mount.obj
 0002:00003064       ??_C@_0BF@MIOOGCMH@SELECT_PKCS11_MODULE?$AA@ 00495064     Mount.obj
 0002:0000307c       ??_C@_1CO@NINDPDLA@?$AA?$CF?$AAl?$AAs?$AA?5?$AA?$CI?$AA?$CK?$AA?4?$AAd?$AAl?$AAl?$AA?$CJ?$AA?$CF?$AAc?$AA?$CK?$AA?4?$AAd?$AAl?$AAl?$AA?$CF?$AAc?$AA?$CF?$AAc?$AA?$AA@ 0049507c     Mount.obj
 0002:000030ac       ??_C@_09KCMKPLMM@DLL_FILES?$AA@ 004950ac     Mount.obj
 0002:000030b8       ??_C@_0BK@JAOPIDPK@SELECT_PKCS11_MODULE_HELP?$AA@ 004950b8     Mount.obj
 0002:000030d4       ??_C@_0CA@MLEEDNMP@CUSTOM_BOOT_LOADER_MESSAGE_HELP?$AA@ 004950d4     Mount.obj
 0002:000030f4       ??_C@_0CK@PODLKGNM@BOOT_LOADER_VERSION_INCORRECT_PR@ 004950f4     Mount.obj
 0002:00003120       ??_C@_0BE@DIKHJDAL@IDD_SYSENC_SETTINGS?$AA@ 00495120     Mount.obj
 0002:00003134       ??_C@_0CC@JFAOPCM@CUSTOM_BOOT_LOADER_MESSAGE_PROMP@ 00495134     Mount.obj
 0002:00003158       ??_C@_13OHNMPHJM@?$AA?$FN?$AA?$AA@ 00495158     Mount.obj
 0002:0000315c       ??_C@_0O@OBIPPEOD@ADMINISTRATOR?$AA@ 0049515c     Mount.obj
 0002:0000316c       ??_C@_15FFJNNDMJ@?$AA?5?$AA?$FL?$AA?$AA@ 0049516c     Mount.obj
 0002:00003174       ??_C@_0N@KAFGONOM@MENU_WEBSITE?$AA@ 00495174     Mount.obj
 0002:00003184       ??_C@_09FEGEGDEL@MENU_HELP?$AA@ 00495184     Mount.obj
 0002:00003190       ??_C@_0O@EAENFNPM@MENU_SETTINGS?$AA@ 00495190     Mount.obj
 0002:000031a0       ??_C@_0L@EJOBNNFH@MENU_TOOLS?$AA@ 004951a0     Mount.obj
 0002:000031ac       ??_C@_0P@BPHMCAOP@MENU_FAVORITES?$AA@ 004951ac     Mount.obj
 0002:000031bc       ??_C@_0BH@MEKCCHEP@MENU_SYSTEM_ENCRYPTION?$AA@ 004951bc     Mount.obj
 0002:000031d4       ??_C@_0N@PDNIMNCL@MENU_VOLUMES?$AA@ 004951d4     Mount.obj
 0002:000031e4       ??_C@_0BN@OHAMCJFH@HIDVOL_PROT_WARN_AFTER_MOUNT?$AA@ 004951e4     Mount.obj
 0002:00003204       ??_C@_0BP@MPHFEMNC@UNSUPPORTED_CHARS_IN_PWD_RECOM?$AA@ 00495204     Mount.obj
 0002:00003224       ??_C@_0CB@FLEKEKLI@EXE_FILE_EXTENSION_MOUNT_WARNING@ 00495224     Mount.obj
 0002:00003248       ??_C@_0BJ@IFBNLIAJ@WARN_64_BIT_BLOCK_CIPHER?$AA@ 00495248     Mount.obj
 0002:00003264       ??_C@_0O@INONOBKP@WARN_CBC_MODE?$AA@ 00495264     Mount.obj
 0002:00003274       ??_C@_0BE@NEFDJEPG@VOL_ALREADY_MOUNTED?$AA@ 00495274     Mount.obj
 0002:00003288       ??_C@_0P@INOOLPM@UNMOUNT_FAILED?$AA@ 00495288     Mount.obj
 0002:00003298       ??_C@_0BH@OGJNMHFJ@UNMOUNTALL_LOCK_FAILED?$AA@ 00495298     Mount.obj
 0002:000032b0       ??_C@_0CF@EKDDCIEI@SYS_HKD_ALGO_CHANGED_ASK_RESCUE_@ 004952b0     Mount.obj
 0002:000032d8       ??_C@_0CF@MIEAFHMK@SYS_PASSWORD_CHANGED_ASK_RESCUE_@ 004952d8     Mount.obj
 0002:00003300       ??_C@_01KGKMHCOC@e?$AA@    00495300     Mount.obj
 0002:00003304       ??_C@_01DDCIFGEA@E?$AA@    00495304     Mount.obj
 0002:00003308       ??_C@_02EAOCLKAK@ld?$AA@   00495308     Mount.obj
 0002:0000330c       ??_C@_02BDDLJJBK@lu?$AA@   0049530c     Mount.obj
 0002:00003310       ??_C@_02HIKPPMOK@Ld?$AA@   00495310     Mount.obj
 0002:00003314       ??_C@_02CLHGNPPK@Lu?$AA@   00495314     Mount.obj
 0002:00003318       __real@38aa95a5b7f87a0f    00495318     Mount.obj
 0002:00003320       __real@4202a05f20000000    00495320     Mount.obj
 0002:00003328       __real@4733426172c74d82    00495328     Mount.obj
 0002:00003330       __real@0000000000000000    00495330     Mount.obj
 0002:00003338       __real@3fe0000000000000    00495338     Mount.obj
 0002:00003340       ??_C@_02BBAHNLBA@?$CFp?$AA@ 00495340     Mount.obj
 0002:00003348       ??_7?$ContainerForward@V?$vector@UHostDevice@@V?$allocator@UHostDevice@@@std@@@std@@@ForEach@CipherShed@@6B@ 00495348     Mount.obj
 0002:00003358       ??_7?$ContainerForward@V?$list@V?$basic_string@DU?$char_traits@D@std@@V?$allocator@D@2@@std@@V?$allocator@V?$basic_string@DU?$char_traits@D@std@@V?$allocator@D@2@@std@@@2@@std@@@ForEach@CipherShed@@6B@ 00495358     Mount.obj
 0002:00003364       ??_C@_08EECOACDK@CONTINUE?$AA@ 00495364     Mount.obj
 0002:00003370       ??_C@_0BH@LAJANGPP@DO_NOT_SHOW_THIS_AGAIN?$AA@ 00495370     Mount.obj
 0002:00003388       ??_C@_0BG@LCMGFIPF@SHOW_MORE_INFORMATION?$AA@ 00495388     Mount.obj
 0002:000033a0       ??_C@_0CH@BNCMPPOG@DECOY_TO_HIDDEN_OS_DATA_TRANSFER@ 004953a0     Mount.obj
 0002:000033c8       ??_C@_17MFDLPPFM@?$AA?6?$AA?6?$AA?6?$AA?$AA@ 004953c8     Mount.obj
 0002:000033d0       ??_C@_0CH@OILEALFF@HIDDEN_OS_WRITE_PROTECTION_EXPLA@ 004953d0     Mount.obj
 0002:000033f8       ??_C@_0CG@LFCLDECM@HIDDEN_OS_WRITE_PROTECTION_BRIEF@ 004953f8     Mount.obj
 0002:00003420       ??_C@_0BO@KKNHDDJP@SYS_ENC_HIBERNATION_PREVENTED?$AA@ 00495420     Mount.obj
 0002:00003440       ??_C@_0CA@JEBBJKJG@HIDDEN_OS_HIBERNATION_PREVENTED?$AA@ 00495440     Mount.obj
 0002:00003460       ??_C@_0BL@IHFEJFAE@LIMIT_ENC_THREAD_POOL_NOTE?$AA@ 00495460     Mount.obj
 0002:0000347c       ??_C@_0BJ@JPCOHEKF@IDD_PERFORMANCE_SETTINGS?$AA@ 0049547c     Mount.obj
 0002:00003498       ??_C@_0BA@KDBBKJMB@parallelization?$AA@ 00495498     Mount.obj
 0002:000034a8       ??_C@_0CF@BCEFFIOG@CONFIRM_SETTING_DEGRADES_PERFORM@ 004954a8     Mount.obj
 0002:000034d0       ??_C@_0P@DAOCBLPH@hwacceleration?$AA@ 004954d0     Mount.obj
 0002:000034e0       ??_C@_0CM@CEEDGJNL@SYSTEM?2CurrentControlSet?2Service@ 004954e0     Mount.obj
 0002:0000350c       ??_C@_0CA@NOOFMILL@TrueCryptEncryptionFreeCpuCount?$AA@ 0049550c     Mount.obj
 0002:0000352c       ??_C@_0BO@EPIDJGMK@FEATURE_REQUIRES_INSTALLATION?$AA@ 0049552c     Mount.obj
 0002:0000354c       ??_C@_0BD@EIJPLIHM@NO_VOLUME_SELECTED?$AA@ 0049554c     Mount.obj
 0002:00003560       ??_C@_0M@MNPNDAHP@ProductName?$AA@ 00495560     Mount.obj
 0002:0000356c       ??_C@_0M@DHIAIDA@CompanyName?$AA@ 0049556c     Mount.obj
 0002:00003578       ??_C@_0BA@IMJFJNNG@FileDescription?$AA@ 00495578     Mount.obj
 0002:00003588       ??_C@_0BK@KLKDFMGB@?2StringFileInfo?2?$CF04x?$CF04x?2?$AA@ 00495588     Mount.obj
 0002:000035a4       ??_C@_0BJ@KPNNKBCP@?2VarFileInfo?2Translation?$AA@ 004955a4     Mount.obj
 0002:000035c0       ??_C@_04PMOCAHAA@open?$AA@ 004955c0     Mount.obj
 0002:000035c8       ??_C@_0BG@PCCHGHDE@ASK_SEND_ERROR_REPORT?$AA@ 004955c8     Mount.obj
 0002:000035e0       ??_C@_0BE@IDLEBLFG@SYSTEM_CRASH_REPORT?$AA@ 004955e0     Mount.obj
 0002:000035f4       ??_C@_08FNMHHHDJ@?$CGdrvver?$DN?$AA@ 004955f4     Mount.obj
 0002:00003600       ??_C@_0BL@NBNBFOIP@SYSTEM_CRASH_NO_CIPHERSHED?$AA@ 00495600     Mount.obj
 0002:0000361c       ??_C@_03BLJJGHJH@?5?5?$CI?$AA@ 0049561c     Mount.obj
 0002:00003620       ??_C@_01PKGAHCOL@?$CJ?$AA@ 00495620     Mount.obj
 0002:00003624       ??_C@_03FEFIDNAB@?$DL?5?5?$AA@ 00495624     Mount.obj
 0002:00003628       ??_C@_0BD@JHJKCMBK@?2System32?2drivers?2?$AA@ 00495628     Mount.obj
 0002:0000363c       ??_C@_0BL@CMMKPOGK@SYSTEM_CRASH_UPDATE_DRIVER?$AA@ 0049563c     Mount.obj
 0002:00003658       ??_C@_04GMGPCCGD@?4SYS?$AA@ 00495658     Mount.obj
 0002:00003660       ??_C@_01NEMOKFLO@?$DN?$AA@ 00495660     Mount.obj
 0002:00003664       ??_C@_03EGAGLKPK@?$CGst?$AA@ 00495664     Mount.obj
 0002:00003668       ??_C@_0KC@DEELCPFJ@https?3?1?1ciphershed?4org?1applink?$DPv@ 00495668     Mount.obj
 0002:0000370c       ??_C@_01HIHLOKLC@1?$AA@    0049570c     Mount.obj
 0002:00003710       ??_C@_01GBGANLPD@0?$AA@    00495710     Mount.obj
 0002:00003714       ??_C@_01JOAMLHOP@?9?$AA@   00495714     Mount.obj
 0002:00003718       ??_C@_01MIFGBAGJ@?$CL?$AA@ 00495718     Mount.obj
 0002:0000371c       ??_C@_0P@NOCFBPIP@STACK_COMMAND?3?$AA@ 0049571c     Mount.obj
 0002:0000372c       ??_C@_0N@MBCBPEAG@FOLLOWUP_IP?3?$AA@ 0049572c     Mount.obj
 0002:0000373c       ??_C@_0M@HHAMOJPD@STACK_TEXT?3?$AA@ 0049573c     Mount.obj
 0002:00003748       ??_C@_0M@CBBALMMJ@IMAGE_NAME?3?$AA@ 00495748     Mount.obj
 0002:00003754       ??_C@_0BI@BFMPHOAO@?$CFI64X?5?$CFI64X?5?$CFI64X?5?$CFI64X?$AA@ 00495754     Mount.obj
 0002:0000376c       ??_C@_0L@BOIEBBIA@Arguments?5?$AA@ 0049576c     Mount.obj
 0002:00003778       ??_C@_05MIPPMNIM@?$CFI64X?$AA@ 00495778     Mount.obj
 0002:00003780       ??_C@_0BI@NIGJHOFH@ERR_PARAMETER_INCORRECT?$AA@ 00495780     Mount.obj
 0002:00003798       ??_C@_0P@IAENJCO@Bugcheck?5code?5?$AA@ 00495798     Mount.obj
 0002:000037a8       ??_C@_09EMKKFGIH@TrueCrypt?$AA@ 004957a8     Mount.obj
 0002:000037b4       ??_C@_0BD@JOHJKMBG@DEBUGGER_NOT_FOUND?$AA@ 004957b4     Mount.obj
 0002:000037c8       ??_C@_06JPDBKGIP@?$CC?5?9z?5?$CC?$AA@ 004957c8     Mount.obj
 0002:000037d0       ??_C@_0EP@EEFBGPBB@?$CC?5?9y?5http?3?1?1msdl?4microsoft?4com?1d@ 004957d0     Mount.obj
 0002:00003820       ??_C@_06EICGEFIM@kd?4exe?$AA@ 00495820     Mount.obj
 0002:00003828       ??_C@_0BC@OEHGBEPK@?2Debuggers?2kd?4exe?$AA@ 00495828     Mount.obj
 0002:0000383c       ??_C@_08DPIDHLKL@?3?2WinDDK?$AA@ 0049583c     Mount.obj
 0002:00003848       ??_C@_01NBENCBCI@?$CK?$AA@ 00495848     Mount.obj
 0002:0000384c       ??_C@_0BP@EAPKEFHJ@?2Debugging?5Tools?5for?5Windows?5?$CI?$AA@ 0049584c     Mount.obj
 0002:0000386c       ??_C@_08BPJIFMCN@?$CJ?2kd?4exe?$AA@ 0049586c     Mount.obj
 0002:00003878       ??_C@_03NDFEINMN@x86?$AA@  00495878     Mount.obj
 0002:0000387c       ??_C@_03OLPMMCEF@x64?$AA@  0049587c     Mount.obj
 0002:00003880       ??_C@_06NOEMODMP@?5?$CIx86?$CJ?$AA@ 00495880     Mount.obj
 0002:00003888       ??_C@_0BL@KIJCEJCM@SYSTEM_CRASH_ANALYSIS_INFO?$AA@ 00495888     Mount.obj
 0002:000038a8       ??_C@_0FF@OKJIOCIL@msiexec?4exe?5?1qb?5?1i?5http?3?1?1cipher@ 004958a8     Mount.obj
 0002:00003900       ??_C@_02KDNKADLA@86?$AA@   00495900     Mount.obj
 0002:00003904       ??_C@_02JLHCEMDI@64?$AA@   00495904     Mount.obj
 0002:00003908       ??_C@_0BF@MBNOGAIL@ASK_DEBUGGER_INSTALL?$AA@ 00495908     Mount.obj
 0002:00003920       ??_C@_0CC@MBEAAPIP@Debugging?5Tools?5for?5Windows?5?$CIx86@ 00495920     Mount.obj
 0002:00003944       ??_C@_0CC@CCBLKMNC@Debugging?5Tools?5for?5Windows?5?$CIx64@ 00495944     Mount.obj
 0002:00003968       ??_C@_0BA@NBHAJNOF@?4true_crypt?4dmp?$AA@ 00495968     Mount.obj
 0002:00003978       ??_C@_0BC@FCCCOAIF@NO_MINIDUMP_FOUND?$AA@ 00495978     Mount.obj
 0002:0000398c       ??_C@_09PEDFGHAD@?2Minidump?$AA@ 0049598c     Mount.obj
 0002:00003998       ??_C@_05ENIPKILI@?$CK?4dmp?$AA@ 00495998     Mount.obj
 0002:000039a0       ??_C@_0M@DAMBDOGJ@?2MEMORY?4DMP?$AA@ 004959a0     Mount.obj
 0002:000039ac       ??_C@_0BJ@PCMNJMOK@DRIVE_LETTER_UNAVAILABLE?$AA@ 004959ac     Mount.obj
 0002:000039c8       ??_C@_0EB@HEILLAOI@?3?5was?5not?5cleanly?5dismounted?5and@ 004959c8     Mount.obj
 0002:00003a0c       ??_C@_0CJ@DGLLCMFL@The?5filesystem?5of?5the?5volume?5mou@ 00495a0c     Mount.obj
 0002:00003a38       ??_C@_02DPEMFEPD@?3?2?$AA@ 00495a38     Mount.obj
 0002:00003a3c       ??_C@_0CE@CDKDLFOB@HIDVOL_PROT_WARN_AFTER_MOUNT_PLU@ 00495a3c     Mount.obj
 0002:00003a60       ??_C@_0BD@LFBCNKIH@DEVICE_IN_USE_INFO?$AA@ 00495a60     Mount.obj
 0002:00003a74       ??_C@_0CE@NGBHCJPO@HEADER_DAMAGED_AUTO_USED_HEADER_@ 00495a74     Mount.obj
 0002:00003a98       ??_C@_0BL@JMLKAJFL@PASSWORD_WRONG_CAPSLOCK_ON?$AA@ 00495a98     Mount.obj
 0002:00003ab4       ??_C@_0CE@FPDIILIE@PASSWORD_OR_KEYFILE_WRONG_AUTOMO@ 00495ab4     Mount.obj
 0002:00003ad8       ??_C@_0BJ@FBHENHB@PASSWORD_WRONG_AUTOMOUNT?$AA@ 00495ad8     Mount.obj
 0002:00003af4       ??_C@_0BK@JIMANJGK@ALL_TOKEN_SESSIONS_CLOSED?$AA@ 00495af4     Mount.obj
 0002:00003b10       ??_C@_0BI@BNFOBMMN@SUCCESSFULLY_DISMOUNTED?$AA@ 00495b10     Mount.obj
 0002:00003b28       ??_C@_0BL@FOMIGOIN@MOUNTED_VOLUMES_DISMOUNTED?$AA@ 00495b28     Mount.obj
 0002:00003b44       ??_C@_0BP@HODIPNNI@VOLUMES_DISMOUNTED_CACHE_WIPED?$AA@ 00495b44     Mount.obj
 0002:00003b64       ??_C@_0N@CHKBBIIA@CONFIRM_EXIT?$AA@ 00495b64     Mount.obj
 0002:00003b74       ??_C@_04KLFPBEKK@home?$AA@ 00495b74     Mount.obj
 0002:00003b7c       ??_C@_0CM@BLAGDCIG@VOLUME_MOUNTED_AS_DRIVE_LETTER_X@ 00495b7c     Mount.obj
 0002:00003ba8       ??_C@_04GOLNGIJ@EXIT?$AA@  00495ba8     Mount.obj
 0002:00003bb0       ??_C@_09LEBEJAK@IDM_ABOUT?$AA@ 00495bb0     Mount.obj
 0002:00003bbc       ??_C@_0BA@LCMKEAHB@IDM_PREFERENCES?$AA@ 00495bbc     Mount.obj
 0002:00003bcc       ??_C@_08BFCIMFPP@HOMEPAGE?$AA@ 00495bcc     Mount.obj
 0002:00003bd8       ??_C@_1BI@PHBMCDGL@?$AA?$CF?$AAs?$AA?5?$AA?$CF?$AAc?$AA?3?$AA?5?$AA?$CI?$AA?$CF?$AAs?$AA?$CJ?$AA?$AA@ 00495bd8     Mount.obj
 0002:00003bf0       ??_C@_0P@FLCKCNGO@IDC_UNMOUNTALL?$AA@ 00495bf0     Mount.obj
 0002:00003c00       ??_C@_0BL@KPKLMBF@IDM_MOUNT_FAVORITE_VOLUMES?$AA@ 00495c00     Mount.obj
 0002:00003c1c       ??_C@_0N@KOOLLHHJ@IDC_MOUNTALL?$AA@ 00495c1c     Mount.obj
 0002:00003c2c       ??_C@_07JGGDNDHJ@HIDE_TC?$AA@ 00495c2c     Mount.obj
 0002:00003c34       ??_C@_07GBCCMBJB@SHOW_TC?$AA@ 00495c34     Mount.obj
 0002:00003c3c       ??_C@_03MIIGHJO@?$CFls?$AA@ 00495c3c     Mount.obj
 0002:00003c40       ??_C@_0CI@KGJJJNAK@HOST_DEVICE_REMOVAL_DISMOUNT_WAR@ 00495c40     Mount.obj
 0002:00003c68       ??_C@_0CC@EMODIILJ@HOST_DEVICE_REMOVAL_DISMOUNT_WAR@ 00495c68     Mount.obj
 0002:00003c8c       ??_C@_19JHEHLFPM@?$AA?2?$AA?$DP?$AA?$DP?$AA?2?$AA?$AA@ 00495c8c     Mount.obj
 0002:00003c98       ??_C@_0BI@DALIBKDK@AMBIGUOUS_VOL_SELECTION?$AA@ 00495c98     Mount.obj
 0002:00003cb0       ??_C@_17LGKOMLJ@?$AA?4?$AA?4?$AA?4?$AA?$AA@ 00495cb0     Mount.obj
 0002:00003cb8       ??_C@_07FLDMKAK@contact?$AA@ 00495cb8     Mount.obj
 0002:00003cc0       ??_C@_07MMNEDCBK@history?$AA@ 00495cc0     Mount.obj
 0002:00003cc8       ??_C@_04EGILJCBP@news?$AA@ 00495cc8     Mount.obj
 0002:00003cd0       ??_C@_09JGLNCENF@downloads?$AA@ 00495cd0     Mount.obj
 0002:00003cdc       ??_C@_03LPMHGBJM@faq?$AA@  00495cdc     Mount.obj
 0002:00003ce0       ??_C@_08PEONCBFB@tutorial?$AA@ 00495ce0     Mount.obj
 0002:00003cec       ??_C@_08GKIEPLNI@homepage?$AA@ 00495cec     Mount.obj
 0002:00003cf8       ??_C@_07BDNEAIPE@website?$AA@ 00495cf8     Mount.obj
 0002:00003d00       ??_C@_0BH@FLEEOEDN@IDM_RESTORE_VOL_HEADER?$AA@ 00495d00     Mount.obj
 0002:00003d18       ??_C@_0BG@DFAIMILK@IDM_BACKUP_VOL_HEADER?$AA@ 00495d18     Mount.obj
 0002:00003d30       ??_C@_0CB@BLPODHKE@IDM_REMOVE_ALL_KEYFILES_FROM_VOL@ 00495d30     Mount.obj
 0002:00003d54       ??_C@_0BM@KEPNAEHF@IDM_ADD_REMOVE_VOL_KEYFILES?$AA@ 00495d54     Mount.obj
 0002:00003d70       ??_C@_0CB@KMDEDFDG@IDM_CHANGE_HEADER_KEY_DERIV_ALGO@ 00495d70     Mount.obj
 0002:00003d94       ??_C@_0BE@NDHENBON@IDM_CHANGE_PASSWORD?$AA@ 00495d94     Mount.obj
 0002:00003da8       ??_C@_0BI@DPFJFJBI@SELECT_A_MOUNTED_VOLUME?$AA@ 00495da8     Mount.obj
 0002:00003dc0       ??_C@_0CA@JKMICAAI@ASK_KEEP_DETECTING_SYSTEM_CRASH?$AA@ 00495dc0     Mount.obj
 0002:00003de0       ??_C@_0BK@FEHLLPHO@SYSTEM_CRASHED_ASK_REPORT?$AA@ 00495de0     Mount.obj
 0002:00003dfc       ??_C@_0BP@EPKBNKHP@PAGING_FILE_CREATION_PREVENTED?$AA@ 00495dfc     Mount.obj
 0002:00003e1c       ??_C@_0BK@DDMAOGAE@SYS_FAVORITE_VOLUME_DIRTY?$AA@ 00495e1c     Mount.obj
 0002:00003e38       ??_C@_0CA@HDGOHFPD@SYSTEM_ENCRYPTION_RESUME_PROMPT?$AA@ 00495e38     Mount.obj
 0002:00003e58       ??_C@_0P@HDDEAF@TaskbarCreated?$AA@ 00495e58     Mount.obj
 0002:00003e68       ??_C@_0BK@KCJBFNOC@HOTKEY_REGISTRATION_ERROR?$AA@ 00495e68     Mount.obj
 0002:00003e84       ??_C@_0BL@CMJGINID@NO_VOLUME_MOUNTED_TO_DRIVE?$AA@ 00495e84     Mount.obj
 0002:00003ea0       ??_C@_0DC@PODPMMAO@BOOT_LOADER_VERSION_DIFFERENT_FR@ 00495ea0     Mount.obj
 0002:00003ed4       ??_C@_0BL@CDBHBGFI@UPDATE_TC_IN_HIDDEN_OS_TOO?$AA@ 00495ed4     Mount.obj
 0002:00003ef0       ??_C@_0BI@FLNDDLDP@TC_INSTALLER_IS_RUNNING?$AA@ 00495ef0     Mount.obj
 0002:00003f08       ??_C@_0BN@DBKOJEDK@IDPM_ADD_TO_SYSTEM_FAVORITES?$AA@ 00495f08     Mount.obj
 0002:00003f28       ??_C@_0BG@KFNIGFKC@IDPM_ADD_TO_FAVORITES?$AA@ 00495f28     Mount.obj
 0002:00003f40       ??_C@_0BE@FIGCPPJ@IDPM_REPAIR_FILESYS?$AA@ 00495f40     Mount.obj
 0002:00003f54       ??_C@_0BD@LLINIPJO@IDPM_CHECK_FILESYS?$AA@ 00495f54     Mount.obj
 0002:00003f68       ??_C@_04DANIOFHI@OPEN?$AA@ 00495f68     Mount.obj
 0002:00003f70       ??_C@_08IPACICJG@DISMOUNT?$AA@ 00495f70     Mount.obj
 0002:00003f7c       ??_C@_0BI@IOBNBNLE@SELECT_DEVICE_AND_MOUNT?$AA@ 00495f7c     Mount.obj
 0002:00003f94       ??_C@_0BG@IDGGPDHG@SELECT_FILE_AND_MOUNT?$AA@ 00495f94     Mount.obj
 0002:00003fac       ??_C@_0BB@PCGMGAC@IDM_MOUNT_VOLUME?$AA@ 00495fac     Mount.obj
 0002:00003fc0       ??_C@_08ELEAABKI@NODRIVER?$AA@ 00495fc0     Mount.obj
 0002:00003fcc       ??_C@_0N@PDPHKHCO@INIT_SYS_ENC?$AA@ 00495fcc     Mount.obj
 0002:00003fdc       ??_C@_0BI@INAEICPC@?1systemFavoritesService?$AA@ 00495fdc     Mount.obj
 0002:00003ff4       ??_C@_1DO@BMONIIMG@?$AAE?$AAl?$AAe?$AAv?$AAa?$AAt?$AAi?$AAo?$AAn?$AA?3?$AAA?$AAd?$AAm?$AAi?$AAn?$AAi?$AAs?$AAt?$AAr?$AAa?$AAt?$AAo?$AAr?$AA?$CB?$AAn?$AAe?$AAw?$AA?3?$AA?$CF?$AAs?$AA?$AA@ 00495ff4     BaseCom.obj
 0002:00004034       ??_C@_0P@NDJDHMAP@UAC_INIT_ERROR?$AA@ 00496034     BaseCom.obj
 0002:00004044       ??_C@_06JBKGCNBB@Delete?$AA@ 00496044     BootEncryption.obj
 0002:0000404c       ??_C@_08KAAPDIAN@NoRemove?$AA@ 0049604c     BootEncryption.obj
 0002:00004058       ??_C@_0M@DBGDLGLL@ForceRemove?$AA@ 00496058     BootEncryption.obj
 0002:00004064       ??_C@_03LAIAPFCB@Val?$AA@  00496064     BootEncryption.obj
 0002:00004068       ??_C@_01HMGJMAIH@B?$AA@    00496068     BootEncryption.obj
 0002:0000406c       ??_C@_01CKDDGHAB@D?$AA@    0049606c     BootEncryption.obj
 0002:00004070       ??_C@_01PLPBNMEI@M?$AA@    00496070     BootEncryption.obj
 0002:00004074       ??_C@_01CPLAODJH@S?$AA@    00496074     BootEncryption.obj
 0002:0000409c       ??_7ParameterIncorrect@CipherShed@@6B@ 0049609c     BootEncryption.obj
 0002:000040a0       ??_C@_0BA@DGAECNJJ@TrueCryptConfig?$AA@ 004960a0     BootEncryption.obj
 0002:000040b4       ??_7?$basic_ostream@_WU?$char_traits@_W@std@@@std@@6B@ 004960b4     BootEncryption.obj
 0002:000040bc       ??_7?$basic_istream@_WU?$char_traits@_W@std@@@std@@6B@ 004960bc     BootEncryption.obj
 0002:000040c4       ??_7?$basic_iostream@_WU?$char_traits@_W@std@@@std@@6B@ 004960c4     BootEncryption.obj
 0002:000040cc       ??_7?$basic_ios@_WU?$char_traits@_W@std@@@std@@6B@ 004960cc     BootEncryption.obj
 0002:000040d4       ??_7?$ctype@_W@std@@6B@    004960d4     BootEncryption.obj
 0002:00004114       ??_7SystemException@CipherShed@@6B@ 00496114     BootEncryption.obj
 0002:00004118       ??_C@_05FHMJPCKA@Start?$AA@ 00496118     BootEncryption.obj
 0002:00004124       ??_7?$basic_streambuf@_WU?$char_traits@_W@std@@@std@@6B@ 00496124     BootEncryption.obj
 0002:00004160       ??_7?$basic_stringbuf@_WU?$char_traits@_W@std@@V?$allocator@_W@2@@std@@6B@ 00496160     BootEncryption.obj
 0002:00004198       ??_C@_0CE@GNNPIDPE@CipherShed?3?3Elevator?3?3CallDriver@ 00496198     BootEncryption.obj
 0002:000041bc       ??_C@_0CE@DJMDJKCL@CipherShed?3?3Elevator?3?3CallDriver@ 004961bc     BootEncryption.obj
 0002:000041e0       ??_C@_0CI@EGPFOACG@CipherShed?3?3Elevator?3?3ReadWriteF@ 004961e0     BootEncryption.obj
 0002:00004208       ??_C@_0DE@KBNMFIML@CipherShed?3?3BootEncryption?3?3GetV@ 00496208     BootEncryption.obj
 0002:00004240       ??_7?$basic_stringstream@_WU?$char_traits@_W@std@@V?$allocator@_W@2@@std@@6B@ 00496240     BootEncryption.obj
 0002:00004244       ??_C@_0L@FEEFGEIL@CipherShed?$AA@ 00496244     BootEncryption.obj
 0002:00004250       ??_C@_0IM@CKBKFPJM@Parameter?5incorrect?4?6?6?6?$CIIf?5you?5r@ 00496250     BootEncryption.obj
 0002:000042dc       ??_C@_04GBDIODIA@?2?2?4?2?$AA@ 004962dc     BootEncryption.obj
 0002:000042e4       ??_C@_0CN@IFJIKPHJ@CipherShed?3?3BootEncryption?3?3GetT@ 004962e4     BootEncryption.obj
 0002:00004314       ??_C@_0BH@KENEBBHH@Original?5System?5Loader?$AA@ 00496314     BootEncryption.obj
 0002:0000432c       ??_C@_0L@LGADMAPO@?2TrueCrypt?$AA@ 0049632c     BootEncryption.obj
 0002:00004338       ??_C@_0DC@JGNLOAEF@CipherShed?3?3BootEncryption?3?3Veri@ 00496338     BootEncryption.obj
 0002:0000436c       ??_C@_0DC@PMGJGMIM@SYSTEM?2CurrentControlSet?2Control@ 0049636c     BootEncryption.obj
 0002:000043a0       ??_C@_0DC@DDPDEKGA@SYSTEM?2CurrentControlSet?2Control@ 004963a0     BootEncryption.obj
 0002:000043d8       ??_C@_0EL@DAJCBMFB@SYSTEM?2CurrentControlSet?2Control@ 004963d8     BootEncryption.obj
 0002:00004428       ??_C@_0EL@LBBGNDAK@SYSTEM?2CurrentControlSet?2Control@ 00496428     BootEncryption.obj
 0002:00004474       ??_C@_07LMLHFMEG@Service?$AA@ 00496474     BootEncryption.obj
 0002:0000447c       ??_C@_0CL@GLOJDCBD@Mounts?5CipherShed?5system?5favorit@ 0049647c     BootEncryption.obj
 0002:000044a8       ??_C@_0BL@PJLIINBJ@TrueCrypt?5System?5Favorites?$AA@ 004964a8     BootEncryption.obj
 0002:000044c4       ??_C@_09ENFKIOHO@Event?5Log?$AA@ 004964c4     BootEncryption.obj
 0002:000044d0       ??_C@_0BK@KLJIEDOC@?$CC?5?1systemFavoritesService?$AA@ 004964d0     BootEncryption.obj
 0002:000044ec       ??_C@_0P@KEOPEMDF@CipherShed?4exe?$AA@ 004964ec     BootEncryption.obj
 0002:00004500       ??_C@_0ED@FMLJHJOD@System?2CurrentControlSet?2Control@ 00496500     BootEncryption.obj
 0002:00004544       ??_C@_0M@BHFNFFHI@PagingFiles?$AA@ 00496544     BootEncryption.obj
 0002:00004550       ??_C@_06IBDJIBGI@Filter?$AA@ 00496550     BootEncryption.obj
 0002:00004558       ??_C@_0BH@CAKDGKKJ@?2drivers?2truecrypt?4sys?$AA@ 00496558     BootEncryption.obj
 0002:00004570       ??_C@_09EFLFAGB@truecrypt?$AA@ 00496570     BootEncryption.obj
 0002:0000457c       ??_8?$basic_iostream@DU?$char_traits@D@std@@@std@@7B?$basic_ostream@DU?$char_traits@D@std@@@1@@ 0049657c     Mount.obj
 0002:0000457c       ??_8?$basic_iostream@_WU?$char_traits@_W@std@@@std@@7B?$basic_ostream@_WU?$char_traits@_W@std@@@1@@ 0049657c     BootEncryption.obj
 0002:00004584       ??_8?$basic_iostream@_WU?$char_traits@_W@std@@@std@@7B?$basic_istream@_WU?$char_traits@_W@std@@@1@@ 00496584     BootEncryption.obj
 0002:00004584       ??_8?$basic_iostream@DU?$char_traits@D@std@@@std@@7B?$basic_istream@DU?$char_traits@D@std@@@1@@ 00496584     Mount.obj
 0002:0000458c       ??_8?$basic_stringstream@_WU?$char_traits@_W@std@@V?$allocator@_W@2@@std@@7B?$basic_ostream@_WU?$char_traits@_W@std@@@1@@ 0049658c     BootEncryption.obj
 0002:0000458c       ??_8?$basic_stringstream@DU?$char_traits@D@std@@V?$allocator@D@2@@std@@7B?$basic_ostream@DU?$char_traits@D@std@@@1@@ 0049658c     Mount.obj
 0002:00004594       ??_8?$basic_stringstream@DU?$char_traits@D@std@@V?$allocator@D@2@@std@@7B?$basic_istream@DU?$char_traits@D@std@@@1@@ 00496594     Mount.obj
 0002:00004594       ??_8?$basic_stringstream@_WU?$char_traits@_W@std@@V?$allocator@_W@2@@std@@7B?$basic_istream@_WU?$char_traits@_W@std@@@1@@ 00496594     BootEncryption.obj
 0002:000045a0       ??_7?$ContainerForward@V?$list@UPartition@CipherShed@@V?$allocator@UPartition@CipherShed@@@std@@@std@@@ForEach@CipherShed@@6B@ 004965a0     BootEncryption.obj
 0002:000045ac       ??_C@_01JLIPDDHJ@?3?$AA@   004965ac     BootEncryption.obj
 0002:000045b0       ??_C@_17LGGGMOOB@?$AA?$CF?$AAh?$AAs?$AA?$AA@ 004965b0     BootEncryption.obj
 0002:000045b8       ??_C@_0BB@EPPOJBJL@?2Device?2Harddisk?$AA@ 004965b8     BootEncryption.obj
 0002:000045cc       ??_C@_0L@DPPABKKK@?2Partition?$AA@ 004965cc     BootEncryption.obj
 0002:000045d8       ??_C@_0DA@JCPMDAPN@CipherShed?3?3BootEncryption?3?3Regi@ 004965d8     BootEncryption.obj
 0002:00004608       ??_C@_03CGLHDMIP@?$CC?$AN?6?$AA@ 00496608     BootEncryption.obj
 0002:0000460c       ??_C@_02JGFLNPEJ@?0?$CC?$AA@ 0049660c     BootEncryption.obj
 0002:00004610       ??_C@_08OHAGLOJG@?$CC?00x0001?$AA@ 00496610     BootEncryption.obj
 0002:0000461c       ??_C@_0CN@BKHLFBOK@Reg?$DNtruecrypt_reg?$AN?6?$AN?6?$FLtruecrypt_@ 0049661c     BootEncryption.obj
 0002:0000464c       ??_C@_0O@HCLLBHKI@?$FLtruecrypt?$FN?$AN?6?$AA@ 0049664c     BootEncryption.obj
 0002:0000465c       ??_C@_03ENJJMCOJ@Del?$AA@  0049665c     BootEncryption.obj
 0002:00004660       ??_C@_04JBLMLCOF@8002?$AA@ 00496660     BootEncryption.obj
 0002:00004668       ??_C@_03LDFMNCOE@Add?$AA@  00496668     BootEncryption.obj
 0002:0000466c       ??_C@_04FLCDBBKO@0008?$AA@ 0049666c     BootEncryption.obj
 0002:00004674       ??_C@_0BM@GBCKDJAI@?2truecrypt_driver_setup?4inf?$AA@ 00496674     BootEncryption.obj
 0002:00004690       ??_C@_0N@KPKBADH@UpperFilters?$AA@ 00496690     BootEncryption.obj
 0002:000046a0       ??_C@_0CO@FIPMIJLN@SYSTEM?2CurrentControlSet?2Control@ 004966a0     BootEncryption.obj
 0002:000046d0       ??_C@_0M@DBKHNNPD@DumpFilters?$AA@ 004966d0     BootEncryption.obj
 0002:000046dc       ??_C@_0O@OJENBJKN@truecrypt?4sys?$AA@ 004966dc     BootEncryption.obj
 0002:000046ec       ??_C@_0DG@LIDILFBL@CipherShed?3?3BootEncryption?3?3Regi@ 004966ec     BootEncryption.obj
 0002:00004724       ??_C@_0O@ICNEBHDC@PhysicalDrive?$AA@ 00496724     BootEncryption.obj
 0002:00004734       ??_C@_0DM@GPLMBDCL@CipherShed?3?3BootEncryption?3?3GetS@ 00496734     BootEncryption.obj
 0002:00004770       ??_C@_1O@MIGMNGND@?$AA?2?$AAn?$AAt?$AAl?$AAd?$AAr?$AA?$AA@ 00496770     BootEncryption.obj
 0002:00004780       ??_C@_1BC@EONGMCPP@?$AA?2?$AAb?$AAo?$AAo?$AAt?$AAm?$AAg?$AAr?$AA?$AA@ 00496780     BootEncryption.obj
 0002:00004794       ??_C@_06JLGNLLFE@?2ntldr?$AA@ 00496794     BootEncryption.obj
 0002:0000479c       ??_C@_08OINNAHG@?2bootmgr?$AA@ 0049679c     BootEncryption.obj
 0002:000047a8       ??_C@_0DK@JGBACLGO@CipherShed?3?3BootEncryption?3?3Crea@ 004967a8     BootEncryption.obj
 0002:000047e4       ??_C@_0DK@BEMHCBCE@CipherShed?3?3BootEncryption?3?3Crea@ 004967e4     BootEncryption.obj
 0002:00004820       ??_C@_0DK@GLPGGLDI@CipherShed?3?3BootEncryption?3?3Crea@ 00496820     BootEncryption.obj
 0002:0000485c       ??_C@_0DK@HIHDHHHD@CipherShed?3?3BootEncryption?3?3Crea@ 0049685c     BootEncryption.obj
 0002:00004898       ??_C@_03POBHGEJB@BIN?$AA@  00496898     BootEncryption.obj
 0002:0000489c       ??_C@_0DJ@GPBHKCOJ@CipherShed?3?3BootEncryption?3?3Crea@ 0049689c     BootEncryption.obj
 0002:000048d8       ??_C@_07DABDIDEC@Twofish?$AA@ 004968d8     BootEncryption.obj
 0002:000048e0       ??_C@_07CCCAKGBN@Serpent?$AA@ 004968e0     BootEncryption.obj
 0002:000048e8       ??_C@_03BKNEFOAH@AES?$AA@  004968e8     BootEncryption.obj
 0002:000048ec       ??_C@_0DJ@ODNDPJBL@CipherShed?3?3BootEncryption?3?3Crea@ 004968ec     BootEncryption.obj
 0002:00004928       ??_C@_0DG@CKKLIKE@CipherShed?3?3BootEncryption?3?3Read@ 00496928     BootEncryption.obj
 0002:00004960       ??_C@_0BE@GPJOEGCF@ERROR_MBR_PROTECTED?$AA@ 00496960     BootEncryption.obj
 0002:00004974       ??_C@_0DL@PALIFAMP@CipherShed?3?3BootEncryption?3?3Writ@ 00496974     BootEncryption.obj
 0002:000049b0       ??_C@_0CH@FHEPLLOO@SYS_LOADER_UNAVAILABLE_FOR_RESCU@ 004969b0     BootEncryption.obj
 0002:000049d8       ??_C@_0DG@LLACJOOB@CipherShed?3?3BootEncryption?3?3Crea@ 004969d8     BootEncryption.obj
 0002:00004a10       ??_C@_07DAAEPPCP@?$PPCD001?$AB?$AA@ 00496a10     BootEncryption.obj
 0002:00004a18       ??_C@_0BO@DHOJLLGB@CD001?$ABEL?5TORITO?5SPECIFICATION?$AA@ 00496a18     BootEncryption.obj
 0002:00004a38       ??_C@_0CB@CJJIHEGK@CipherShed?5Rescue?5Disk?5?5?5?5?5?5?5?5?5?5@ 00496a38     BootEncryption.obj
 0002:00004a5c       ??_C@_07NKOFPJFH@?$ABCD001?$AB?$AA@ 00496a5c     BootEncryption.obj
 0002:00004a64       ??_C@_0DG@HKBBCMNE@CipherShed?3?3BootEncryption?3?3Crea@ 00496a64     BootEncryption.obj
 0002:00004a9c       ??_C@_0DA@HALDNPOD@CipherShed?3?3BootEncryption?3?3Chan@ 00496a9c     BootEncryption.obj
 0002:00004acc       ??_C@_0DA@HKCNPCOJ@CipherShed?3?3BootEncryption?3?3Chan@ 00496acc     BootEncryption.obj
 0002:00004afc       ??_C@_0DA@GCPEKJJP@CipherShed?3?3BootEncryption?3?3Chan@ 00496afc     BootEncryption.obj
 0002:00004b2c       ??_C@_06EEAEEKCL@?$CFs?7?$CFs?6?$AA@ 00496b2c     Cmdline.obj
 0002:00004b34       ??_C@_0BI@HHPEFDNB@Command?5line?5options?3?6?6?$AA@ 00496b34     Cmdline.obj
 0002:00004b4c       ??_C@_0BE@GKKPACCB@IDD_COMMANDHELP_DLG?$AA@ 00496b4c     Cmdline.obj
 0002:00004b60       ??_C@_0M@IMAOAGMP@OUTOFMEMORY?$AA@ 00496b60     Cmdline.obj
 0002:00004b6c       ??_C@_0M@COMBLGLD@History?4xml?$AA@ 00496b6c     Combo.obj
 0002:00004b78       ??_C@_0N@GOMGLJCI@?6?7?$DM?1history?$DO?$AA@ 00496b78     Combo.obj
 0002:00004b88       ??_C@_0BH@PGAPGLND@?6?7?7?$DMvolume?$DO?$CFs?$DM?1volume?$DO?$AA@ 00496b88     Combo.obj
 0002:00004ba0       ??_C@_0M@MCACFAKG@?6?7?$DMhistory?$DO?$AA@ 00496ba0     Combo.obj
 0002:00004bac       ??_C@_05HJMENKNE@SHA?91?$AA@ 00496bac     Crypto.obj
 0002:00004bb4       ??_C@_09HLDHDDJL@Whirlpool?$AA@ 00496bb4     Crypto.obj
 0002:00004bc0       ??_C@_07MEOJAOJE@SHA?9512?$AA@ 00496bc0     Crypto.obj
 0002:00004bc8       ??_C@_0L@PKFJAMAA@RIPEMD?9160?$AA@ 00496bc8     Crypto.obj
 0002:00004bd4       ??_C@_05LCFOLDPB@CAST5?$AA@ 00496bd4     Crypto.obj
 0002:00004bdc       ??_C@_08KOMAHJJD@Blowfish?$AA@ 00496bdc     Crypto.obj
 0002:00004be8       ??_C@_09DJENBFJK@?$FLunknown?$FN?$AA@ 00496be8     Crypto.obj
 0002:00004bf4       ??_C@_09OHJJMGAK@inner?9CBC?$AA@ 00496bf4     Crypto.obj
 0002:00004c00       ??_C@_09KIMEMFNK@Inner?9CBC?$AA@ 00496c00     Crypto.obj
 0002:00004c0c       ??_C@_03PPFAJCFI@CBC?$AA@  00496c0c     Crypto.obj
 0002:00004c10       ??_C@_09CJGJEHAC@outer?9CBC?$AA@ 00496c10     Crypto.obj
 0002:00004c1c       ??_C@_09GGDEEENC@Outer?9CBC?$AA@ 00496c1c     Crypto.obj
 0002:00004c2c       ??_7out_of_range@std@@6B@  00496c2c     Dictionary.obj
 0002:00004c34       ??_C@_0BE@JONHPENG@map?1set?$DMT?$DO?5too?5long?$AA@ 00496c34     Dictionary.obj
 0002:00004c48       ??_C@_0BM@PAPJHAGI@invalid?5map?1set?$DMT?$DO?5iterator?$AA@ 00496c48     Dictionary.obj
 0002:00004c68       ??_7GetPinFunctor@CipherShed@@6B@ 00496c68     Dlgcode.obj
 0002:00004c74       ??_7SendExceptionFunctor@CipherShed@@6B@ 00496c74     Dlgcode.obj
 0002:00004c7c       ??_C@_06DIBEOEIP@?2?2?4?2?$CFs?$AA@ 00496c7c     Dlgcode.obj
 0002:00004c84       ??_C@_0N@ILHOJEMA@truecrypt?$CFlu?$AA@ 00496c84     Dlgcode.obj
 0002:00004c98       __real@3feff7ced916872b    00496c98     Dlgcode.obj
 0002:00004ca0       __real@407ca00000000000    00496ca0     Dlgcode.obj
 0002:00004ca8       __real@407a700000000000    00496ca8     Dlgcode.obj
 0002:00004cb0       __real@3ff0000000000000    00496cb0     Dlgcode.obj
 0002:00004cb8       ??_C@_08KAINEBEN@ABOUTBOX?$AA@ 00496cb8     Dlgcode.obj
 0002:00004cc4       ??_C@_1BO@CJPKCNHF@?$AAL?$AAu?$AAc?$AAi?$AAd?$AAa?$AA?5?$AAC?$AAo?$AAn?$AAs?$AAo?$AAl?$AAe?$AA?$AA@ 00496cc4     Dlgcode.obj
 0002:00004ce4       ??_C@_0L@MOFKMHPH@font_fixed?$AA@ 00496ce4     Dlgcode.obj
 0002:00004cf0       ??_C@_1CA@MBPOLHGL@?$AAT?$AAi?$AAm?$AAe?$AAs?$AA?5?$AAN?$AAe?$AAw?$AA?5?$AAR?$AAo?$AAm?$AAa?$AAn?$AA?$AA@ 00496cf0     Dlgcode.obj
 0002:00004d10       ??_C@_0L@NMFINBBB@font_title?$AA@ 00496d10     Dlgcode.obj
 0002:00004d1c       ??_C@_1M@KAKMLIHO@?$AAA?$AAr?$AAi?$AAa?$AAl?$AA?$AA@ 00496d1c     Dlgcode.obj
 0002:00004d28       ??_C@_09KDCDAOMH@font_bold?$AA@ 00496d28     Dlgcode.obj
 0002:00004d34       ??_C@_06DILOELAE@NOFONT?$AA@ 00496d34     Dlgcode.obj
 0002:00004d3c       ??_C@_1BI@GNONBDFP@?$AAC?$AAo?$AAu?$AAr?$AAi?$AAe?$AAr?$AA?5?$AAN?$AAe?$AAw?$AA?$AA@ 00496d3c     Dlgcode.obj
 0002:00004d58       __real@c028000000000000    00496d58     Dlgcode.obj
 0002:00004d60       ??_C@_1O@FPBPJIKI@?$AAT?$AAa?$AAh?$AAo?$AAm?$AAa?$AA?$AA@ 00496d60     Dlgcode.obj
 0002:00004d70       ??_C@_1BA@HANLFFFG@?$AAd?$AAe?$AAf?$AAa?$AAu?$AAl?$AAt?$AA?$AA@ 00496d70     Dlgcode.obj
 0002:00004d80       ??_C@_0M@IGCGEGAM@font_normal?$AA@ 00496d80     Dlgcode.obj
 0002:00004d8c       ??_C@_07EFPKBNGC@REDTICK?$AA@ 00496d8c     Dlgcode.obj
 0002:00004d94       ??_C@_09IDILIKHG@NO_OS_VER?$AA@ 00496d94     Dlgcode.obj
 0002:00004da0       ??_C@_0BK@LMECBCPP@CipherShed?5User?5Guide?4pdf?$AA@ 00496da0     Dlgcode.obj
 0002:00004dbc       ??_C@_0BN@EOEFIMME@CipherShed?5User?5Guide?4?$CFs?4pdf?$AA@ 00496dbc     Dlgcode.obj
 0002:00004ddc       ??_C@_0BG@NAJKGDG@DRIVER_INSTALL_FAILED?$AA@ 00496ddc     Dlgcode.obj
 0002:00004df4       ??_C@_0BP@MGAEPBHO@System32?2drivers?2truecrypt?4sys?$AA@ 00496df4     Dlgcode.obj
 0002:00004e14       ??_C@_0BI@HINAFLMC@ADMIN_PRIVILEGES_DRIVER?$AA@ 00496e14     Dlgcode.obj
 0002:00004e2c       ??_C@_0BB@DLIKOOJL@DRIVER_NOT_FOUND?$AA@ 00496e2c     Dlgcode.obj
 0002:00004e40       ??_C@_0BD@KPNHALPO@?2truecrypt?9x64?4sys?$AA@ 00496e40     Dlgcode.obj
 0002:00004e54       ??_C@_0P@CEEJCOFL@?2truecrypt?4sys?$AA@ 00496e54     Dlgcode.obj
 0002:00004e64       ??_C@_0BE@BADKJOBO@CANNOT_WRITE_FILE_X?$AA@ 00496e64     Dlgcode.obj
 0002:00004e78       ??_C@_06KJMEDNIB@Static?$AA@ 00496e78     Dlgcode.obj
 0002:00004e80       ??_C@_06LKBCGDFD@Button?$AA@ 00496e80     Dlgcode.obj
 0002:00004e88       ??_C@_04CGJNICGF@?$CFc?3?2?$AA@ 00496e88     Dlgcode.obj
 0002:00004e90       ??_C@_0O@DMIKDLEM@CabinetWClass?$AA@ 00496e90     Dlgcode.obj
 0002:00004ea0       ??_C@_1BA@PMDFMIGE@?$AA?$CF?$AA?4?$AA1?$AAf?$AA?5?$AA?$CF?$AAs?$AA?$AA@ 00496ea0     Dlgcode.obj
 0002:00004eb0       __real@3f50000000000000    00496eb0     Dlgcode.obj
 0002:00004eb8       ??_C@_1BC@JJPHEOJD@?$AA?$CF?$AAI?$AA6?$AA4?$AAd?$AA?5?$AA?$CF?$AAs?$AA?$AA@ 00496eb8     Dlgcode.obj
 0002:00004ecc       ??_C@_04ELFAHOMP@BYTE?$AA@ 00496ecc     Dlgcode.obj
 0002:00004ed4       ??_C@_02KOENCFNK@PB?$AA@   00496ed4     Dlgcode.obj
 0002:00004ed8       ??_C@_02KJEEINAG@TB?$AA@   00496ed8     Dlgcode.obj
 0002:00004edc       ??_C@_02LHCEJACP@GB?$AA@   00496edc     Dlgcode.obj
 0002:00004ee0       ??_C@_02LKLDBFPJ@MB?$AA@   00496ee0     Dlgcode.obj
 0002:00004ee4       ??_C@_02LODOGJEL@KB?$AA@   00496ee4     Dlgcode.obj
 0002:00004ee8       ??_C@_09OHHMGFOM@B_PER_SEC?$AA@ 00496ee8     Dlgcode.obj
 0002:00004ef4       ??_C@_0L@BHMPGBFC@PB_PER_SEC?$AA@ 00496ef4     Dlgcode.obj
 0002:00004f00       ??_C@_0L@KHBGBCNA@TB_PER_SEC?$AA@ 00496f00     Dlgcode.obj
 0002:00004f0c       ??_C@_0L@JAACLABK@GB_PER_SEC?$AA@ 00496f0c     Dlgcode.obj
 0002:00004f18       ??_C@_0L@HCKNOIJO@MB_PER_SEC?$AA@ 00496f18     Dlgcode.obj
 0002:00004f24       ??_C@_0L@JKBICCNN@KB_PER_SEC?$AA@ 00496f24     Dlgcode.obj
 0002:00004f30       ??_C@_0O@JJNKJOK@ERR_MEM_ALLOC?$AA@ 00496f30     Dlgcode.obj
 0002:00004f40       ??_C@_0BB@CMDEHNDL@ERR_PERF_COUNTER?$AA@ 00496f40     Dlgcode.obj
 0002:00004f54       ??_C@_0BB@GHIALFFI@0000000000000000?$AA@ 00496f54     Dlgcode.obj
 0002:00004f68       ??_C@_0DB@ECLHIIM@00000000000000000000000000000000@ 00496f68     Dlgcode.obj
 0002:00004f9c       ??_C@_03KBFFJKPO@168?$AA@  00496f9c     Dlgcode.obj
 0002:00004fa0       ??_C@_0CB@KLIODADE@00000000000000000000000000000000@ 00496fa0     Dlgcode.obj
 0002:00004fc8       ??_C@_0HB@PCNCOLDD@00000000000000000000000000000000@ 00496fc8     Dlgcode.obj
 0002:0000503c       ??_C@_03KGFMDCCC@128?$AA@  0049703c     Dlgcode.obj
 0002:00005040       ??_C@_03CPCFKGMH@256?$AA@  00497040     Dlgcode.obj
 0002:00005044       ??_C@_03JFAPLOKC@448?$AA@  00497044     Dlgcode.obj
 0002:00005048       ??_C@_0EB@CBHPLKKO@00000000000000000000000000000000@ 00497048     Dlgcode.obj
 0002:0000508c       ??_C@_0M@MKBGBFGO@CAPSLOCK_ON?$AA@ 0049708c     Dlgcode.obj
 0002:00005098       ??_C@_04OOOHIFAO@?4asa?$AA@ 00497098     Dlgcode.obj
 0002:000050a0       ??_C@_04LNDOKGBO@?4asp?$AA@ 004970a0     Dlgcode.obj
 0002:000050a8       ??_C@_05BNFEPADL@?4aspx?$AA@ 004970a8     Dlgcode.obj
 0002:000050b0       ??_C@_03DAKFKKAH@?4ax?$AA@ 004970b0     Dlgcode.obj
 0002:000050b4       ??_C@_04JLAECNCN@?4bas?$AA@ 004970b4     Dlgcode.obj
 0002:000050bc       ??_C@_04NEEFLLOK@?4bat?$AA@ 004970bc     Dlgcode.obj
 0002:000050c4       ??_C@_04GKHLBAIJ@?4bin?$AA@ 004970c4     Dlgcode.obj
 0002:000050cc       ??_C@_04DNKKNDNF@?4cer?$AA@ 004970cc     Dlgcode.obj
 0002:000050d4       ??_C@_04PICIEOBI@?4chm?$AA@ 004970d4     Dlgcode.obj
 0002:000050dc       ??_C@_04HILJPKAL@?4clb?$AA@ 004970dc     Dlgcode.obj
 0002:000050e4       ??_C@_04CPCBDHLK@?4cmd?$AA@ 004970e4     Dlgcode.obj
 0002:000050ec       ??_C@_04GHKFJLLC@?4cnt?$AA@ 004970ec     Dlgcode.obj
 0002:000050f4       ??_C@_04FFJDPJDA@?4cnv?$AA@ 004970f4     Dlgcode.obj
 0002:000050fc       ??_C@_04PNGHFIJN@?4com?$AA@ 004970fc     Dlgcode.obj
 0002:00005104       ??_C@_04PDAGINJB@?4cpl?$AA@ 00497104     Dlgcode.obj
 0002:0000510c       ??_C@_04NNKIFKME@?4cpx?$AA@ 0049710c     Dlgcode.obj
 0002:00005114       ??_C@_04HCJJMBKG@?4crt?$AA@ 00497114     Dlgcode.obj
 0002:0000511c       ??_C@_04JFCMPGMM@?4csh?$AA@ 0049711c     Dlgcode.obj
 0002:00005124       ??_C@_04HLONOPDM@?4dll?$AA@ 00497124     Dlgcode.obj
 0002:0000512c       ??_C@_04NNHIJLJN@?4drv?$AA@ 0049712c     Dlgcode.obj
 0002:00005134       ??_C@_04KBABJHPM@?4dtd?$AA@ 00497134     Dlgcode.obj
 0002:0000513c       ??_C@_04JLMDILM@?4exe?$AA@ 0049713c     Dlgcode.obj
 0002:00005144       ??_C@_04CMLMHBEG@?4fxp?$AA@ 00497144     Dlgcode.obj
 0002:0000514c       ??_C@_04JJJHJDPF@?4grp?$AA@ 0049714c     Dlgcode.obj
 0002:00005154       ??_C@_04JIAFODPJ@?4h1s?$AA@ 00497154     Dlgcode.obj
 0002:0000515c       ??_C@_04NHEMANNJ@?4hlp?$AA@ 0049715c     Dlgcode.obj
 0002:00005164       ??_C@_04JGKANMAB@?4hta?$AA@ 00497164     Dlgcode.obj
 0002:0000516c       ??_C@_04FJIHOGJP@?4ime?$AA@ 0049716c     Dlgcode.obj
 0002:00005174       ??_C@_04HAOMALAF@?4inf?$AA@ 00497174     Dlgcode.obj
 0002:0000517c       ??_C@_04EHFJONBB@?4ins?$AA@ 0049717c     Dlgcode.obj
 0002:00005184       ??_C@_04HIIKIOPB@?4isp?$AA@ 00497184     Dlgcode.obj
 0002:0000518c       ??_C@_04FGOIMLLH@?4its?$AA@ 0049718c     Dlgcode.obj
 0002:00005194       ??_C@_03NPAEJMCN@?4js?$AA@ 00497194     Dlgcode.obj
 0002:00005198       ??_C@_04FNIKMHAL@?4jse?$AA@ 00497198     Dlgcode.obj
 0002:000051a0       ??_C@_04FAJINOCD@?4ksh?$AA@ 004971a0     Dlgcode.obj
 0002:000051a8       ??_C@_04PCJMIFHK@?4lnk?$AA@ 004971a8     Dlgcode.obj
 0002:000051b0       ??_C@_04MGOELJON@?4mad?$AA@ 004971b0     Dlgcode.obj
 0002:000051b8       ??_C@_04PENCNLGP@?4maf?$AA@ 004971b8     Dlgcode.obj
 0002:000051c0       ??_C@_04ONMJOKCO@?4mag?$AA@ 004971c0     Dlgcode.obj
 0002:000051c8       ??_C@_04BHCGACKE@?4mam?$AA@ 004971c8     Dlgcode.obj
 0002:000051d0       ??_C@_04DMALFBGH@?4man?$AA@ 004971d0     Dlgcode.obj
 0002:000051d8       ??_C@_04PBFBFPPJ@?4maq?$AA@ 004971d8     Dlgcode.obj
 0002:000051e0       ??_C@_04NKHMAMDK@?4mar?$AA@ 004971e0     Dlgcode.obj
 0002:000051e8       ??_C@_04MDGHDNHL@?4mas?$AA@ 004971e8     Dlgcode.obj
 0002:000051f0       ??_C@_04IMCGKLLM@?4mat?$AA@ 004971f0     Dlgcode.obj
 0002:000051f8       ??_C@_04JFDNJKPN@?4mau?$AA@ 004971f8     Dlgcode.obj
 0002:00005200       ??_C@_04LOBAMJDO@?4mav?$AA@ 00497200     Dlgcode.obj
 0002:00005208       ??_C@_04KHALPIHP@?4maw?$AA@ 00497208     Dlgcode.obj
 0002:00005210       ??_C@_04LNFIIPED@?4mda?$AA@ 00497210     Dlgcode.obj
 0002:00005218       ??_C@_04JGHFNMIA@?4mdb?$AA@ 00497218     Dlgcode.obj
 0002:00005220       ??_C@_04NJDEEKEH@?4mde?$AA@ 00497220     Dlgcode.obj
 0002:00005228       ??_C@_04IKONGJFH@?4mdt?$AA@ 00497228     Dlgcode.obj
 0002:00005230       ??_C@_04KBMADKJE@?4mdw?$AA@ 00497230     Dlgcode.obj
 0002:00005238       ??_C@_04BEGOEENJ@?4mdz?$AA@ 00497238     Dlgcode.obj
 0002:00005240       ??_C@_04JGAHFIDE@?4msc?$AA@ 00497240     Dlgcode.obj
 0002:00005248       ??_C@_04GMOILALO@?4msi?$AA@ 00497248     Dlgcode.obj
 0002:00005250       ??_C@_04PHOIBJKG@?4msp?$AA@ 00497250     Dlgcode.obj
 0002:00005258       ??_C@_04JDIENMKC@?4mst?$AA@ 00497258     Dlgcode.obj
 0002:00005260       ??_C@_04GIGFMMAM@?4mui?$AA@ 00497260     Dlgcode.obj
 0002:00005268       ??_C@_04NJAKABMG@?4nls?$AA@ 00497268     Dlgcode.obj
 0002:00005270       ??_C@_04IJBOPIFF@?4ocx?$AA@ 00497270     Dlgcode.obj
 0002:00005278       ??_C@_04HEIKDMLH@?4ops?$AA@ 00497278     Dlgcode.obj
 0002:00005280       ??_C@_04KMEOLMKH@?4pal?$AA@ 00497280     Dlgcode.obj
 0002:00005288       ??_C@_04GHBDOCMB@?4pcd?$AA@ 00497288     Dlgcode.obj
 0002:00005290       ??_C@_04FILCAFJF@?4pif?$AA@ 00497290     Dlgcode.obj
 0002:00005298       ??_C@_04EIMBEJAE@?4prf?$AA@ 00497298     Dlgcode.obj
 0002:000052a0       ??_C@_04FBNKHIEF@?4prg?$AA@ 004972a0     Dlgcode.obj
 0002:000052a8       ??_C@_04DBPHFDOA@?4pst?$AA@ 004972a8     Dlgcode.obj
 0002:000052b0       ??_C@_04OCLKAFDL@?4reg?$AA@ 004972b0     Dlgcode.obj
 0002:000052b8       ??_C@_04EHJACPKN@?4scf?$AA@ 004972b8     Dlgcode.obj
 0002:000052c0       ??_C@_04GJDOPIPI@?4scr?$AA@ 004972c0     Dlgcode.obj
 0002:000052c8       ??_C@_04DPGEFPHO@?4sct?$AA@ 004972c8     Dlgcode.obj
 0002:000052d0       ??_C@_04CPKJAFEI@?4shb?$AA@ 004972d0     Dlgcode.obj
 0002:000052d8       ??_C@_04HMHACGFI@?4shs?$AA@ 004972d8     Dlgcode.obj
 0002:000052e0       ??_C@_04GBJEOPBP@?4sys?$AA@ 004972e0     Dlgcode.obj
 0002:000052e8       ??_C@_04LFHHJFCN@?4tlb?$AA@ 004972e8     Dlgcode.obj
 0002:000052f0       ??_C@_04NKPJABLD@?4tsp?$AA@ 004972f0     Dlgcode.obj
 0002:000052f8       ??_C@_04IFPAFBLM@?4url?$AA@ 004972f8     Dlgcode.obj
 0002:00005300       ??_C@_03JJOBOFCJ@?4vb?$AA@ 00497300     Dlgcode.obj
 0002:00005304       ??_C@_04FKKBOGGL@?4vbe?$AA@ 00497304     Dlgcode.obj
 0002:0000530c       ??_C@_04EGDJFDLM@?4vbs?$AA@ 0049730c     Dlgcode.obj
 0002:00005314       ??_C@_09JNHDLKLO@?4vsmacros?$AA@ 00497314     Dlgcode.obj
 0002:00005320       ??_C@_04FLNNJKPL@?4vss?$AA@ 00497320     Dlgcode.obj
 0002:00005328       ??_C@_04BEJMAMDM@?4vst?$AA@ 00497328     Dlgcode.obj
 0002:00005330       ??_C@_04DPLBFPPP@?4vsw?$AA@ 00497330     Dlgcode.obj
 0002:00005338       ??_C@_03MLPKKMAO@?4ws?$AA@ 00497338     Dlgcode.obj
 0002:0000533c       ??_C@_04KJKDOPMP@?4wsc?$AA@ 0049733c     Dlgcode.obj
 0002:00005344       ??_C@_04NENEBLIK@?4wsf?$AA@ 00497344     Dlgcode.obj
 0002:0000534c       ??_C@_04EKFHDGAE@?4wsh?$AA@ 0049734c     Dlgcode.obj
 0002:00005354       ??_C@_04LOIBGJFO@?4xsd?$AA@ 00497354     Dlgcode.obj
 0002:0000535c       ??_C@_04HGFIODFG@?4xsl?$AA@ 0049735c     Dlgcode.obj
 0002:00005364       ??_C@_04GNGOLJF@?4386?$AA@ 00497364     Dlgcode.obj
 0002:0000536c       ??_C@_04FOHEGJHC@?4acm?$AA@ 0049736c     Dlgcode.obj
 0002:00005374       ??_C@_04JDOCPFPP@?4ade?$AA@ 00497374     Dlgcode.obj
 0002:0000537c       ??_C@_04KEFHBDOL@?4adp?$AA@ 0049737c     Dlgcode.obj
 0002:00005384       ??_C@_04DCMADPCF@?4ani?$AA@ 00497384     Dlgcode.obj
 0002:0000538c       ??_C@_04LPHIBIEH@?4app?$AA@ 0049738c     Dlgcode.obj
 0002:00005394       ??_C@_04JDJAHBEL@?4asd?$AA@ 00497394     Dlgcode.obj
 0002:0000539c       ??_C@_04KBKGBDMJ@?4asf?$AA@ 0049739c     Dlgcode.obj
 0002:000053a4       ??_C@_04HFOHCMBG@?4asx?$AA@ 004973a4     Dlgcode.obj
 0002:000053ac       ??_C@_04HCOOIEMK@?4awx?$AA@ 004973ac     Dlgcode.obj
 0002:000053b4       ??_C@_04HHONFNHK@?4boo?$AA@ 004973b4     Dlgcode.obj
 0002:000053bc       ??_C@_04GCBFBPPI@?4bz2?$AA@ 004973bc     Dlgcode.obj
 0002:000053c4       ??_C@_04BCMGGOLH@?4cdf?$AA@ 004973c4     Dlgcode.obj
 0002:000053cc       ??_C@_06POIMOJKC@?4class?$AA@ 004973cc     Dlgcode.obj
 0002:000053d4       ??_C@_05GCBAOBBN@?4dhtm?$AA@ 004973d4     Dlgcode.obj
 0002:000053dc       ??_C@_06KKCMFIJD@?4dhtml?$AA@ 004973dc     Dlgcode.obj
 0002:000053e4       ??_C@_04FAMALMPP@?4dlo?$AA@ 004973e4     Dlgcode.obj
 0002:000053ec       ??_C@_04DIHMAKOE@?4emf?$AA@ 004973ec     Dlgcode.obj
 0002:000053f4       ??_C@_04MCJDOCGO@?4eml?$AA@ 004973f4     Dlgcode.obj
 0002:000053fc       ??_C@_04FDPPLPOO@?4flt?$AA@ 004973fc     Dlgcode.obj
 0002:00005404       ??_C@_04FBLJABLH@?4fot?$AA@ 00497404     Dlgcode.obj
 0002:0000540c       ??_C@_03GBOLEDH@?4gz?$AA@  0049740c     Dlgcode.obj
 0002:00005410       ??_C@_04DKBFJDAN@?4htm?$AA@ 00497410     Dlgcode.obj
 0002:00005418       ??_C@_05LHMDENIF@?4html?$AA@ 00497418     Dlgcode.obj
 0002:00005420       ??_C@_04PHHEBHMK@?4ini?$AA@ 00497420     Dlgcode.obj
 0002:00005428       ??_C@_04LCFBANHC@?4j2k?$AA@ 00497428     Dlgcode.obj
 0002:00005430       ??_C@_04EHKLDEID@?4jar?$AA@ 00497430     Dlgcode.obj
 0002:00005438       ??_C@_04GMEKPFFD@?4jff?$AA@ 00497438     Dlgcode.obj
 0002:00005440       ??_C@_04GHBGLCGO@?4jif?$AA@ 00497440     Dlgcode.obj
 0002:00005448       ??_C@_04POJMDHDM@?4jmh?$AA@ 00497448     Dlgcode.obj
 0002:00005450       ??_C@_04HLECJFKK@?4jng?$AA@ 00497450     Dlgcode.obj
 0002:00005458       ??_C@_04KKDGLCMB@?4jp2?$AA@ 00497458     Dlgcode.obj
 0002:00005460       ??_C@_04FPMMHJFC@?4jpe?$AA@ 00497460     Dlgcode.obj
 0002:00005468       ??_C@_05KPIGABMB@?4jpeg?$AA@ 00497468     Dlgcode.obj
 0002:00005470       ??_C@_04GNPKBLNA@?4jpg?$AA@ 00497470     Dlgcode.obj
 0002:00005478       ??_C@_04EPFEHOMD@?4lsp?$AA@ 00497478     Dlgcode.obj
 0002:00005480       ??_C@_04MMHKJEOH@?4mod?$AA@ 00497480     Dlgcode.obj
 0002:00005488       ??_C@_04MJHJENFH@?4nws?$AA@ 00497488     Dlgcode.obj
 0002:00005490       ??_C@_04PACIOCLB@?4obj?$AA@ 00497490     Dlgcode.obj
 0002:00005498       ??_C@_04DCGPEFLD@?4olb?$AA@ 00497498     Dlgcode.obj
 0002:000054a0       ??_C@_04HDEPAGHI@?4osd?$AA@ 004974a0     Dlgcode.obj
 0002:000054a8       ??_C@_04LCEIGNIC@?4ov1?$AA@ 004974a8     Dlgcode.obj
 0002:000054b0       ??_C@_04JJGFDOEB@?4ov2?$AA@ 004974b0     Dlgcode.obj
 0002:000054b8       ??_C@_04IAHOAPAA@?4ov3?$AA@ 004974b8     Dlgcode.obj
 0002:000054c0       ??_C@_04LNFNEOJL@?4ovl?$AA@ 004974c0     Dlgcode.obj
 0002:000054c8       ??_C@_04GJBMHBEE@?4ovr?$AA@ 004974c8     Dlgcode.obj
 0002:000054d0       ??_C@_04HOMEEBJD@?4pdr?$AA@ 004974d0     Dlgcode.obj
 0002:000054d8       ??_C@_04LBNIPBFE@?4pgm?$AA@ 004974d8     Dlgcode.obj
 0002:000054e0       ??_C@_04EFOINKHF@?4php?$AA@ 004974e0     Dlgcode.obj
 0002:000054e8       ??_C@_04ECCNOALK@?4pkg?$AA@ 004974e8     Dlgcode.obj
 0002:000054f0       ??_C@_03DOPLEBF@?4pl?$AA@  004974f0     Dlgcode.obj
 0002:000054f4       ??_C@_04EEOGCCFB@?4png?$AA@ 004974f4     Dlgcode.obj
 0002:000054fc       ??_C@_04CEMLAJPE@?4pot?$AA@ 004974fc     Dlgcode.obj
 0002:00005504       ??_C@_04HMPAHLHO@?4pps?$AA@ 00497504     Dlgcode.obj
 0002:0000550c       ??_C@_04DDLBONLJ@?4ppt?$AA@ 0049750c     Dlgcode.obj
 0002:00005514       ??_C@_04LMPJOIKA@?4ps1?$AA@ 00497514     Dlgcode.obj
 0002:0000551c       ??_C@_07KMHCJKCL@?4ps1xml?$AA@ 0049751c     Dlgcode.obj
 0002:00005524       ??_C@_05HPAPKHGM@?4psc1?$AA@ 00497524     Dlgcode.obj
 0002:0000552c       ??_C@_04NCAGELPD@?4rar?$AA@ 0049752c     Dlgcode.obj
 0002:00005534       ??_C@_04BLKDLNGL@?4rpl?$AA@ 00497534     Dlgcode.obj
 0002:0000553c       ??_C@_04OGEFPNDN@?4rtf?$AA@ 0049753c     Dlgcode.obj
 0002:00005544       ??_C@_04EGFCEFJK@?4sbf?$AA@ 00497544     Dlgcode.obj
 0002:0000554c       ??_C@_07PPFPDIDE@?4script?$AA@ 0049754c     Dlgcode.obj
 0002:00005554       ??_C@_03GFMFMPEI@?4sh?$AA@ 00497554     Dlgcode.obj
 0002:00005558       ??_C@_04EIEFGIL@?4sha?$AA@ 00497558     Dlgcode.obj
 0002:00005560       ??_C@_05LANAKKIP@?4shtm?$AA@ 00497560     Dlgcode.obj
 0002:00005568       ??_C@_06LEPPGKLA@?4shtml?$AA@ 00497568     Dlgcode.obj
 0002:00005570       ??_C@_04KDBPNKAO@?4spl?$AA@ 00497570     Dlgcode.obj
 0002:00005578       ??_C@_04FMLPCEAB@?4swf?$AA@ 00497578     Dlgcode.obj
 0002:00005580       ??_C@_04PHGNBECP@?4tar?$AA@ 00497580     Dlgcode.obj
 0002:00005588       ??_C@_04DLDJOCJF@?4tgz?$AA@ 00497588     Dlgcode.obj
 0002:00005590       ??_C@_04MMEBIPMJ@?4tmp?$AA@ 00497590     Dlgcode.obj
 0002:00005598       ??_C@_04MDCOKCOB@?4ttf?$AA@ 00497598     Dlgcode.obj
 0002:000055a0       ??_C@_04EHPLDJIL@?4vcs?$AA@ 004975a0     Dlgcode.obj
 0002:000055a8       ??_C@_04JIOGEBGJ@?4vlm?$AA@ 004975a8     Dlgcode.obj
 0002:000055b0       ??_C@_04FCALPBIM@?4vxd?$AA@ 004975b0     Dlgcode.obj
 0002:000055b8       ??_C@_04LBPPCIEH@?4vxo?$AA@ 004975b8     Dlgcode.obj
 0002:000055c0       ??_C@_04CDBCGAHB@?4wiz?$AA@ 004975c0     Dlgcode.obj
 0002:000055c8       ??_C@_04DJEBBHEN@?4wll?$AA@ 004975c8     Dlgcode.obj
 0002:000055d0       ??_C@_04PAFKPHHC@?4wmd?$AA@ 004975d0     Dlgcode.obj
 0002:000055d8       ??_C@_04MCGMJFPA@?4wmf?$AA@ 004975d8     Dlgcode.obj
 0002:000055e0       ??_C@_04PFNJHDOE@?4wms?$AA@ 004975e0     Dlgcode.obj
 0002:000055e8       ??_C@_04CEBLMIKN@?4wmz?$AA@ 004975e8     Dlgcode.obj
 0002:000055f0       ??_C@_04KLOFFBJG@?4wpc?$AA@ 004975f0     Dlgcode.obj
 0002:000055f8       ??_C@_04GGHDMNBL@?4wwk?$AA@ 004975f8     Dlgcode.obj
 0002:00005600       ??_C@_05MHAAJLJO@?4xhtm?$AA@ 00497600     Dlgcode.obj
 0002:00005608       ??_C@_06NODIJKHD@?4xhtml?$AA@ 00497608     Dlgcode.obj
 0002:00005610       ??_C@_03NPMOFKN@?4xl?$AA@  00497610     Dlgcode.obj
 0002:00005614       ??_C@_04GAOAGNCM@?4xml?$AA@ 00497614     Dlgcode.obj
 0002:0000561c       ??_C@_04CLJHFACG@?4zip?$AA@ 0049761c     Dlgcode.obj
 0002:00005624       ??_C@_03GKKCJKIH@?47z?$AA@ 00497624     Dlgcode.obj
 0002:00005628       ??_C@_05EMECODII@?$CFls?$CFc?$AA@ 00497628     Dlgcode.obj
 0002:00005630       ??_C@_1DA@GMJGMIMP@?$AA?2?$AAD?$AAe?$AAv?$AAi?$AAc?$AAe?$AA?2?$AAT?$AAr?$AAu?$AAe?$AAC?$AAr?$AAy?$AAp?$AAt?$AAV?$AAo?$AAl?$AAu?$AAm?$AAe?$AA?$AA@ 00497630     Dlgcode.obj
 0002:00005660       ??_C@_0BE@NAPDCKKE@UNMOUNT_LOCK_FAILED?$AA@ 00497660     Dlgcode.obj
 0002:00005674       ??_C@_0DO@FLBIDANE@Software?2Microsoft?2Windows?2Curre@ 00497674     Dlgcode.obj
 0002:000056b4       ??_C@_0BG@NJOIKHOP@System?5Encryption?4xml?$AA@ 004976b4     Dlgcode.obj
 0002:000056cc       ??_C@_0M@EMLNMOID@?2TrueCrypt?2?$AA@ 004976cc     Dlgcode.obj
 0002:000056d8       ??_C@_0O@GDPBNEAJ@?2?2?4?2TrueCrypt?$AA@ 004976d8     Dlgcode.obj
 0002:000056e8       ??_C@_0O@LOPOCHJI@?5?1a?5favorites?$AA@ 004976e8     Dlgcode.obj
 0002:000056f8       ??_C@_0M@JCEADJGE@?5?1a?5devices?$AA@ 004976f8     Dlgcode.obj
 0002:00005704       ??_C@_0BK@NFGDLGMG@?$CC?5?1q?5preferences?5?1a?5logon?$AA@ 00497704     Dlgcode.obj
 0002:00005720       ??_C@_0BC@KCBPKCIG@CipherShed?5Format?$AA@ 00497720     Dlgcode.obj
 0002:00005738       ??_C@_0EL@PILLFCOM@Software?2Microsoft?2Windows?2Curre@ 00497738     Dlgcode.obj
 0002:00005784       ??_C@_07GIFPBEK@MRUList?$AA@ 00497784     Dlgcode.obj
 0002:00005790       ??_C@_0EP@FIHCEBDK@Software?2Microsoft?2Windows?2Curre@ 00497790     Dlgcode.obj
 0002:000057e0       ??_C@_09FBJLNPFF@MRUListEx?$AA@ 004977e0     Dlgcode.obj
 0002:000057ec       ??_C@_0BE@KHAIBFAM@CLEAN_WINMRU_FAILED?$AA@ 004977ec     Dlgcode.obj
 0002:00005800       ??_C@_02HAOIJKIC@?$CFc?$AA@ 00497800     Dlgcode.obj
 0002:00005808       ??_C@_0EN@FCPBNDLP@Software?2Microsoft?2Windows?2Curre@ 00497808     Dlgcode.obj
 0002:00005858       ??_C@_04MBHGDIPH@Pidl?$AA@ 00497858     Dlgcode.obj
 0002:00005860       ??_C@_0BC@COHEMPD@?6?7?$DMconfiguration?$DO?$AA@ 00497860     Dlgcode.obj
 0002:00005874       ??_C@_0BC@FNANDAA@Configuration?4xml?$AA@ 00497874     Dlgcode.obj
 0002:00005888       ??_C@_0BD@CKNEEBKA@?6?7?$DM?1configuration?$DO?$AA@ 00497888     Dlgcode.obj
 0002:0000589c       ??_C@_0CA@EGANCHGG@?6?7?7?$DMconfig?5key?$DN?$CC?$CFs?$CC?$DO?$CFs?$DM?1config?$DO?$AA@ 0049789c     Dlgcode.obj
 0002:000058bc       ??_C@_03ICHNJLJF@key?$AA@  004978bc     Dlgcode.obj
 0002:000058c0       ??_C@_06HEJKKHEK@config?$AA@ 004978c0     Dlgcode.obj
 0002:000058c8       ??_C@_07OLOEDEPC@keyfile?$AA@ 004978c8     Dlgcode.obj
 0002:000058d0       ??_C@_0BB@DLBJPPEL@CipherShed?5debug?$AA@ 004978d0     Dlgcode.obj
 0002:000058e4       ??_C@_08PNLNEKOB@kernel32?$AA@ 004978e4     Dlgcode.obj
 0002:000058f0       ??_C@_0BH@KELIABGB@DEVICE_NOT_READY_ERROR?$AA@ 004978f0     Dlgcode.obj
 0002:00005908       ??_C@_0BI@GBJLPDI@SYS_ASSIGN_DRIVE_LETTER?$AA@ 00497908     Dlgcode.obj
 0002:00005920       ??_C@_0BH@DCKIMKAI@SYS_AUTOMOUNT_DISABLED?$AA@ 00497920     Dlgcode.obj
 0002:00005938       ??_C@_0M@PNKDIFLK@NoAutoMount?$AA@ 00497938     Dlgcode.obj
 0002:00005944       ??_C@_0CL@PBEPCFPL@SYSTEM?2CurrentControlSet?2Service@ 00497944     Dlgcode.obj
 0002:00005970       ??_C@_03EJABLKAK@?$DP?3?2?$AA@ 00497970     Dlgcode.obj
 0002:00005974       ??_C@_1BA@DBKIDAPL@?$AAc?$AAm?$AAd?$AA?4?$AAe?$AAx?$AAe?$AA?$AA@ 00497974     Dlgcode.obj
 0002:00005984       ??_C@_19BDAJEHDN@?$AAo?$AAp?$AAe?$AAn?$AA?$AA@ 00497984     Dlgcode.obj
 0002:00005990       ??_C@_1M@CDHIAJCD@?$AAr?$AAu?$AAn?$AAa?$AAs?$AA?$AA@ 00497990     Dlgcode.obj
 0002:000059a0       ??_C@_1EA@HMCMLJPJ@?$AA?1?$AAC?$AA?5?$AAe?$AAc?$AAh?$AAo?$AA?5?$AA?$CF?$AAs?$AA?5?$AA?$CG?$AA?5?$AAc?$AAh?$AAk?$AAd?$AAs?$AAk?$AA?5?$AA?$CF?$AAh?$AAs?$AA?5?$AA?$CG?$AA?5?$AAp?$AAa?$AAu?$AAs?$AAe?$AA?$AA@ 004979a0     Dlgcode.obj
 0002:000059e0       ??_C@_1EM@PJNCBGHJ@?$AA?1?$AAC?$AA?5?$AAe?$AAc?$AAh?$AAo?$AA?5?$AA?$CF?$AAs?$AA?5?$AA?$CG?$AA?5?$AAc?$AAh?$AAk?$AAd?$AAs?$AAk?$AA?5?$AA?$CF?$AAh?$AAs?$AA?5?$AA?1?$AAF?$AA?5?$AA?1?$AAX?$AA?5?$AA?$CG?$AA?5@ 004979e0     Dlgcode.obj
 0002:00005a2c       ??_C@_0M@DMNKLGFJ@CHECKING_FS?$AA@ 00497a2c     Dlgcode.obj
 0002:00005a38       ??_C@_0N@CFJEDEAE@REPAIRING_FS?$AA@ 00497a38     Dlgcode.obj
 0002:00005a48       ??_C@_0BO@JFNCHGE@FILESYS_REPAIR_CONFIRM_BACKUP?$AA@ 00497a48     Dlgcode.obj
 0002:00005a68       ??_C@_05KPBLJGDL@runas?$AA@ 00497a68     Dlgcode.obj
 0002:00005a70       ??_C@_05DAJPPLDE@exit?6?$AA@ 00497a70     Dlgcode.obj
 0002:00005a78       ??_C@_0DG@HAFOMLKA@select?5partition?5?$CFd?6attributes?5v@ 00497a78     Dlgcode.obj
 0002:00005ab0       ??_C@_0CP@DIEKEDPA@select?5disk?5?$CFd?6attributes?5disk?5c@ 00497ab0     Dlgcode.obj
 0002:00005ae0       ??_C@_0CI@FDJHAAPA@?$EAdiskpart?5?1s?5?$CC?$CFs?$CC?6?$EApause?6?$EAdel?5?$CC?$CF@ 00497ae0     Dlgcode.obj
 0002:00005b08       ??_C@_0DA@NHHHGBII@?$CFs?2CipherShed_Write_Protection_R@ 00497b08     Dlgcode.obj
 0002:00005b38       ??_C@_0CL@CNEGPLGJ@?$CFs?2CipherShed_Write_Protection_R@ 00497b38     Dlgcode.obj
 0002:00005b64       ??_C@_0BP@MDCLODBD@?2Device?2Harddisk?$CFd?2Partition?$CFd?$AA@ 00497b64     Dlgcode.obj
 0002:00005b84       ??_C@_0N@HOCBKDMB@?2isoburn?4exe?$AA@ 00497b84     Dlgcode.obj
 0002:00005b94       ??_C@_0CM@NNPMGACL@Global?2TrueCrypt?5In?9Place?5Encryp@ 00497b94     Dlgcode.obj
 0002:00005bc0       ??_C@_0BO@MBMDLLNJ@Global?2TrueCrypt?5Driver?5Setup?$AA@ 00497bc0     Dlgcode.obj
 0002:00005be0       ??_C@_0BH@HKGDHIEL@Global?2TrueCrypt?5Setup?$AA@ 00497be0     Dlgcode.obj
 0002:00005bf8       ??_C@_08OAECLFAP@WipeMode?$AA@ 00497bf8     Dlgcode.obj
 0002:00005c04       ??_C@_0BH@GJIMGGMJ@SystemEncryptionStatus?$AA@ 00497c04     Dlgcode.obj
 0002:00005c1c       ??_C@_0BO@IBNLKCDC@In?9Place?5Encryption?5Wipe?5Algo?$AA@ 00497c1c     Dlgcode.obj
 0002:00005c3c       ??_C@_0BE@NLGDPAAC@In?9Place?5Encryption?$AA@ 00497c3c     Dlgcode.obj
 0002:00005c50       ??_C@_0BN@CCKGMGAA@Post?9Install?5Task?5?9?5Tutorial?$AA@ 00497c50     Dlgcode.obj
 0002:00005c70       ??_C@_0CC@PPOKIEIE@Post?9Install?5Task?5?9?5Release?5Note@ 00497c70     Dlgcode.obj
 0002:00005c94       ??_C@_04OJAHODMC@Text?$AA@ 00497c94     Dlgcode.obj
 0002:00005ca0       ??_C@_1EK@MEIFFNPL@?$AA?$CF?$AAl?$AAs?$AA?5?$AA?$CI?$AA?$CK?$AA?4?$AA?$CK?$AA?$CJ?$AA?$CF?$AAc?$AA?$CK?$AA?4?$AA?$CK?$AA?$CF?$AAc?$AA?$CF?$AAl?$AAs?$AA?5?$AA?$CI?$AA?$CK?$AA?4?$AAt?$AAc?$AA?$CJ?$AA?$CF?$AAc?$AA?$CK?$AA?4?$AAt?$AAc@ 00497ca0     Dlgcode.obj
 0002:00005cec       ??_C@_09EEODDAII@ALL_FILES?$AA@ 00497cec     Dlgcode.obj
 0002:00005cf8       ??_C@_0L@KDKDGGJA@TC_VOLUMES?$AA@ 00497cf8     Dlgcode.obj
 0002:00005d04       ??_C@_01EEMJAFIK@?6?$AA@   00497d04     Dlgcode.obj
 0002:00005d08       ??_C@_05BFHEBJNP@?$CF02X?5?$AA@ 00497d08     Dlgcode.obj
 0002:00005d10       ??_C@_03NJNOMAJF@?5?4?5?$AA@ 00497d10     Dlgcode.obj
 0002:00005d14       ??_C@_04LAOFCJDB@?5?$CFc?5?$AA@ 00497d14     Dlgcode.obj
 0002:00005d1c       ??_C@_0BL@HFEGJCP@IDD_RANDOM_POOL_ENRICHMENT?$AA@ 00497d1c     Dlgcode.obj
 0002:00005d38       ??_C@_0BE@LMGFCBMP@IDD_CIPHER_TEST_DLG?$AA@ 00497d38     Dlgcode.obj
 0002:00005d4c       ??_C@_04NOJCDH@?$CF02x?$AA@ 00497d4c     Dlgcode.obj
 0002:00005d54       ??_C@_0CD@CMIOHKDK@TEST_INCORRECT_TEST_DATA_UNIT_SI@ 00497d54     Dlgcode.obj
 0002:00005d78       ??_C@_0CC@KLEPGHII@TEST_INCORRECT_SECONDARY_KEY_SIZ@ 00497d78     Dlgcode.obj
 0002:00005d9c       ??_C@_0BF@ONCDDKDD@TEST_CIPHERTEXT_SIZE?$AA@ 00497d9c     Dlgcode.obj
 0002:00005db4       ??_C@_0BE@EILEFIMF@TEST_PLAINTEXT_SIZE?$AA@ 00497db4     Dlgcode.obj
 0002:00005dc8       ??_C@_0O@HIHJOOAG@TEST_KEY_SIZE?$AA@ 00497dc8     Dlgcode.obj
 0002:00005dd8       ??_C@_0N@KEJMMFLH@TESTS_PASSED?$AA@ 00497dd8     Dlgcode.obj
 0002:00005de8       ??_C@_0N@ICLIKEKJ@TESTS_FAILED?$AA@ 00497de8     Dlgcode.obj
 0002:00005df8       ??_C@_13LBAGMAIH@?$AA?6?$AA?$AA@ 00497df8     Dlgcode.obj
 0002:00005dfc       ??_C@_07MAJILGNB@notepad?$AA@ 00497dfc     Dlgcode.obj
 0002:00005e04       ??_C@_02DEBJNODD@?$PP?$PO?$AA@ 00497e04     Dlgcode.obj
 0002:00005e08       ??_C@_04IOIMBAGL@?1p?5?$CC?$AA@ 00497e08     Dlgcode.obj
 0002:00005e14       ??_7PinRequestHandler@?4??InitSecurityTokenLibrary@@9@6B@ 00497e14     Dlgcode.obj
 0002:00005e20       ??_7WarningHandler@?5??InitSecurityTokenLibrary@@9@6B@ 00497e20     Dlgcode.obj
 0002:00005e28       ??_C@_0CN@CEHMIIEP@NONSYS_INPLACE_ENC_NOTIFICATION_@ 00497e28     Dlgcode.obj
 0002:00005e58       ??_C@_0BC@OBEHEBCI@KEEP_PROMPTING_ME?$AA@ 00497e58     Dlgcode.obj
 0002:00005e6c       ??_C@_0BB@DBNBKEPD@DO_NOT_PROMPT_ME?$AA@ 00497e6c     Dlgcode.obj
 0002:00005e80       ??_C@_0CM@MNHDIPFC@ASK_NONSYS_INPLACE_ENC_NOTIFICAT@ 00497e80     Dlgcode.obj
 0002:00005eac       ??_C@_0CB@FLOKBEFC@NONSYS_INPLACE_ENC_RESUME_PROMPT@ 00497eac     Dlgcode.obj
 0002:00005ed4       ??_7?$num_put@_WV?$ostreambuf_iterator@_WU?$char_traits@_W@std@@@std@@@std@@6B@ 00497ed4     Dlgcode.obj
 0002:00005ef8       ??_C@_09EPIDNIBP@SplashDlg?$AA@ 00497ef8     Dlgcode.obj
 0002:00005f04       ??_C@_09ODDMBMG@CustomDlg?$AA@ 00497f04     Dlgcode.obj
 0002:00005f10       ??_C@_0BA@CBDNBIND@KEYFILE_CREATED?$AA@ 00497f10     Dlgcode.obj
 0002:00005f20       ??_C@_09PLHAEEAO@INIT_RAND?$AA@ 00497f20     Dlgcode.obj
 0002:00005f2c       ??_C@_0BG@HKFCCDBK@IDD_KEYFILE_GENERATOR?$AA@ 00497f2c     Dlgcode.obj
 0002:00005f48       ??_7?$numpunct@_W@std@@6B@ 00497f48     Dlgcode.obj
 0002:00005f60       ??_C@_01LFCBOECM@?4?$AA@   00497f60     Dlgcode.obj
 0002:00005f64       ??_C@_02NJNOFBBI@?$CFx?$AA@ 00497f64     Dlgcode.obj
 0002:00005f68       ??_C@_0BJ@FNCHKEAA@GetSystemWow64DirectoryA?$AA@ 00497f68     Dlgcode.obj
 0002:00005f84       ??_C@_0BA@OFMBGJKB@X?3?2pagefile?4sys?$AA@ 00497f84     Dlgcode.obj
 0002:00005f94       ??_C@_06EFIGOLMA@?2?2?4?2X?3?$AA@ 00497f94     Dlgcode.obj
 0002:00005f9c       ??_C@_0BF@EKLCPBAN@ENTER_TOKEN_PASSWORD?$AA@ 00497f9c     Dlgcode.obj
 0002:00005fb4       ??_C@_0BD@PPCCOPON@IDD_TOKEN_PASSWORD?$AA@ 00497fb4     Dlgcode.obj
 0002:00005fc8       ??_C@_0BK@OPPAPAFF@PKCS11_MODULE_INIT_FAILED?$AA@ 00497fc8     Dlgcode.obj
 0002:00005fe4       ??_C@_0BL@NECJIJNL@NO_PKCS11_MODULE_SPECIFIED?$AA@ 00497fe4     Dlgcode.obj
 0002:00006000       ??_C@_08FALOLEII@?2DEVICE?2?$AA@ 00498000     Dlgcode.obj
 0002:0000600c       ??_C@_0M@JJLAKNKG@isoburn?4exe?$AA@ 0049800c     Dlgcode.obj
 0002:00006018       ??_C@_0M@MLHPPPJP@DisplayName?$AA@ 00498018     Dlgcode.obj
 0002:00006024       ??_C@_01HCONENDN@?$HL?$AA@ 00498024     Dlgcode.obj
 0002:00006028       ??_C@_0DE@HOJDGFDM@Software?2Microsoft?2Windows?2Curre@ 00498028     Dlgcode.obj
 0002:0000605c       ??_C@_02DJGKEECL@?4?4?$AA@ 0049805c     Dlgcode.obj
 0002:00006060       ??_C@_0CH@LFBCKMNM@SYS_ENCRYPTION_PRETEST_INFO2_POR@ 00498060     Dlgcode.obj
 0002:00006088       ??_C@_0CH@PKFDDKBL@SYS_ENCRYPTION_PRETEST_INFO2_POR@ 00498088     Dlgcode.obj
 0002:000060b0       ??_C@_0CH@ODEIALFK@SYS_ENCRYPTION_PRETEST_INFO2_POR@ 004980b0     Dlgcode.obj
 0002:000060d8       ??_C@_0CH@MIGFFIJJ@SYS_ENCRYPTION_PRETEST_INFO2_POR@ 004980d8     Dlgcode.obj
 0002:00006100       ??_C@_0BL@BIFKAJPO@RESCUE_DISK_HELP_PORTION_9?$AA@ 00498100     Dlgcode.obj
 0002:0000611c       ??_C@_0BL@BEBDILP@RESCUE_DISK_HELP_PORTION_8?$AA@ 0049811c     Dlgcode.obj
 0002:00006138       ??_C@_0BL@IGNJCEHA@RESCUE_DISK_HELP_PORTION_7?$AA@ 00498138     Dlgcode.obj
 0002:00006154       ??_C@_0BL@JPMCBFDB@RESCUE_DISK_HELP_PORTION_6?$AA@ 00498154     Dlgcode.obj
 0002:00006170       ??_C@_0BL@LEOPEGPC@RESCUE_DISK_HELP_PORTION_5?$AA@ 00498170     Dlgcode.obj
 0002:0000618c       ??_C@_0BL@KNPEHHLD@RESCUE_DISK_HELP_PORTION_4?$AA@ 0049818c     Dlgcode.obj
 0002:000061a8       ??_C@_0BL@OCLFOBHE@RESCUE_DISK_HELP_PORTION_3?$AA@ 004981a8     Dlgcode.obj
 0002:000061c4       ??_C@_0BL@PLKONADF@RESCUE_DISK_HELP_PORTION_2?$AA@ 004981c4     Dlgcode.obj
 0002:000061e0       ??_C@_0BL@NAIDIDPG@RESCUE_DISK_HELP_PORTION_1?$AA@ 004981e0     Dlgcode.obj
 0002:000061fc       ??_C@_0CB@MBHBFDO@DECOY_OS_INSTRUCTIONS_PORTION_18@ 004981fc     Dlgcode.obj
 0002:00006220       ??_C@_0CB@ILIPAJPB@DECOY_OS_INSTRUCTIONS_PORTION_17@ 00498220     Dlgcode.obj
 0002:00006244       ??_C@_0CB@JCJEDILA@DECOY_OS_INSTRUCTIONS_PORTION_16@ 00498244     Dlgcode.obj
 0002:00006268       ??_C@_0CB@LJLJGLHD@DECOY_OS_INSTRUCTIONS_PORTION_15@ 00498268     Dlgcode.obj
 0002:0000628c       ??_C@_0CB@KAKCFKDC@DECOY_OS_INSTRUCTIONS_PORTION_14@ 0049828c     Dlgcode.obj
 0002:000062b0       ??_C@_0CB@OPODMMPF@DECOY_OS_INSTRUCTIONS_PORTION_13@ 004982b0     Dlgcode.obj
 0002:000062d4       ??_C@_0CB@PGPIPNLE@DECOY_OS_INSTRUCTIONS_PORTION_12@ 004982d4     Dlgcode.obj
 0002:000062f8       ??_C@_0CB@NNNFKOHH@DECOY_OS_INSTRUCTIONS_PORTION_11@ 004982f8     Dlgcode.obj
 0002:0000631c       ??_C@_0CB@MEMOJPDG@DECOY_OS_INSTRUCTIONS_PORTION_10@ 0049831c     Dlgcode.obj
 0002:00006340       ??_C@_0CA@EBNFDEFN@DECOY_OS_INSTRUCTIONS_PORTION_9?$AA@ 00498340     Dlgcode.obj
 0002:00006360       ??_C@_0CA@FIMOAFBM@DECOY_OS_INSTRUCTIONS_PORTION_8?$AA@ 00498360     Dlgcode.obj
 0002:00006380       ??_C@_0CA@NPFGBJND@DECOY_OS_INSTRUCTIONS_PORTION_7?$AA@ 00498380     Dlgcode.obj
 0002:000063a0       ??_C@_0CA@MGENCIJC@DECOY_OS_INSTRUCTIONS_PORTION_6?$AA@ 004983a0     Dlgcode.obj
 0002:000063c0       ??_C@_0CA@ONGAHLFB@DECOY_OS_INSTRUCTIONS_PORTION_5?$AA@ 004983c0     Dlgcode.obj
 0002:000063e0       ??_C@_0CA@PEHLEKBA@DECOY_OS_INSTRUCTIONS_PORTION_4?$AA@ 004983e0     Dlgcode.obj
 0002:00006400       ??_C@_0CA@LLDKNMNH@DECOY_OS_INSTRUCTIONS_PORTION_3?$AA@ 00498400     Dlgcode.obj
 0002:00006420       ??_C@_0CA@KCCBONJG@DECOY_OS_INSTRUCTIONS_PORTION_2?$AA@ 00498420     Dlgcode.obj
 0002:00006440       ??_C@_0CA@IJAMLOFF@DECOY_OS_INSTRUCTIONS_PORTION_1?$AA@ 00498440     Dlgcode.obj
 0002:00006460       ??_C@_0CD@IBNJCEOK@How?5to?5Remove?5Extra?5Boot?5Partiti@ 00498460     Dlgcode.obj
 0002:00006484       ??_C@_0CK@GKLMBFMH@EXTRA_BOOT_PARTITION_REMOVAL_INS@ 00498484     Dlgcode.obj
 0002:000064b0       ??_C@_0BH@DOMMMACL@How?5to?5Create?5Decoy?5OS?$AA@ 004984b0     Dlgcode.obj
 0002:000064c8       ??_C@_0BM@BCCJBOGG@CipherShed?5Rescue?5Disk?5Help?$AA@ 004984c8     Dlgcode.obj
 0002:000064e4       ??_C@_0BJ@OAHHFEJL@Pre?9Boot?5Troubleshooting?$AA@ 004984e4     Dlgcode.obj
 0002:00006500       ??_C@_0BI@OOMIJPBL@LEGAL_NOTICES_DLG_TITLE?$AA@ 00498500     Dlgcode.obj
 0002:00006518       ??_C@_0CD@MHPFPHDI@ASK_REMOVE_DEVICE_WRITE_PROTECTI@ 00498518     Dlgcode.obj
 0002:0000653c       ??_C@_0BH@GHLJCPDI@?2Device?2HarddiskVolume?$AA@ 0049853c     Dlgcode.obj
 0002:00006554       ??_C@_0DB@LCJCCDBH@MOUNTED_DEVICE_FORCED_READ_ONLY_@ 00498554     Dlgcode.obj
 0002:00006588       ??_C@_0CA@HAHCAFMF@MOUNTED_DEVICE_FORCED_READ_ONLY?$AA@ 00498588     Dlgcode.obj
 0002:000065a8       ??_C@_0CD@HGDBCKJG@MOUNTED_CONTAINER_FORCED_READ_ON@ 004985a8     Dlgcode.obj
 0002:000065cc       ??_C@_0BF@GHMEOCNL@MOUNTED_VOLUME_DIRTY?$AA@ 004985cc     Dlgcode.obj
 0002:000065e4       ??_C@_0CI@EOBACLIE@HIDDEN_VOL_PROT_PASSWORD_US_KEYB@ 004985e4     Dlgcode.obj
 0002:0000660c       ??_C@_1DM@FMJIKGBL@?$AA?2?$AAD?$AAe?$AAv?$AAi?$AAc?$AAe?$AA?2?$AAH?$AAa?$AAr?$AAd?$AAd?$AAi?$AAs?$AAk?$AA?$CF?$AAd?$AA?2?$AAP?$AAa?$AAr?$AAt?$AAi?$AAt?$AAi?$AAo?$AAn?$AA0?$AA?$AA@ 0049860c     Dlgcode.obj
 0002:00006648       ??_C@_0BD@NBNNICAF@FILE_IN_USE_FAILED?$AA@ 00498648     Dlgcode.obj
 0002:0000665c       ??_C@_0M@CLFBJLHD@FILE_IN_USE?$AA@ 0049865c     Dlgcode.obj
 0002:00006668       ??_C@_1DK@KHADBPEJ@?$AA?2?$AAD?$AAe?$AAv?$AAi?$AAc?$AAe?$AA?2?$AAH?$AAa?$AAr?$AAd?$AAd?$AAi?$AAs?$AAk?$AA?$CF?$AAd?$AA?2?$AAP?$AAa?$AAr?$AAt?$AAi?$AAt?$AAi?$AAo?$AAn?$AA?$AA@ 00498668     Dlgcode.obj
 0002:000066a4       ??_C@_03IDDIGDHP@UNC?$AA@  004986a4     Dlgcode.obj
 0002:000066a8       ??_C@_04HMNMCKMH@?2?2?$DP?2?$AA@ 004986a8     Dlgcode.obj
 0002:000066b4       ??_7?$ContainerForward@V?$list@KV?$allocator@K@std@@@std@@@ForEach@CipherShed@@6B@ 004986b4     Dlgcode.obj
 0002:000066c0       ??_C@_03PFGLPIPP@?9sp?$AA@ 004986c0     Dlgcode.obj
 0002:000066c4       ??_C@_04DFMLABPB@?9x64?$AA@ 004986c4     Dlgcode.obj
 0002:000066cc       ??_C@_06FNMLEPMI@?9basic?$AA@ 004986cc     Dlgcode.obj
 0002:000066d4       ??_C@_05NIKDGMHP@Basic?$AA@ 004986d4     Dlgcode.obj
 0002:000066dc       ??_C@_08KHECKGMK@?9starter?$AA@ 004986dc     Dlgcode.obj
 0002:000066e8       ??_C@_09FDAPKNJ@?9ultimate?$AA@ 004986e8     Dlgcode.obj
 0002:000066f4       ??_C@_08DIOBIMMC@Ultimate?$AA@ 004986f4     Dlgcode.obj
 0002:00006700       ??_C@_0M@BOLPHPEH@?9datacenter?$AA@ 00498700     Dlgcode.obj
 0002:0000670c       ??_C@_0L@OOPFNAF@Datacenter?$AA@ 0049870c     Dlgcode.obj
 0002:00006718       ??_C@_0M@CCIJFPDH@?9enterprise?$AA@ 00498718     Dlgcode.obj
 0002:00006724       ??_C@_0L@DCNJHNHF@Enterprise?$AA@ 00498724     Dlgcode.obj
 0002:00006730       ??_C@_09LKNHIPDK@?9business?$AA@ 00498730     Dlgcode.obj
 0002:0000673c       ??_C@_08IHAGPJCB@Business?$AA@ 0049873c     Dlgcode.obj
 0002:00006748       ??_C@_0N@KIDDKEAC@Professional?$AA@ 00498748     Dlgcode.obj
 0002:00006758       ??_C@_09OBBBAFJO@?9standard?$AA@ 00498758     Dlgcode.obj
 0002:00006764       ??_C@_08NMMAHDIF@Standard?$AA@ 00498764     Dlgcode.obj
 0002:00006770       ??_C@_07ODEEFNBO@?9server?$AA@ 00498770     Dlgcode.obj
 0002:00006778       ??_C@_06HHKOBDNA@2008r2?$AA@ 00498778     Dlgcode.obj
 0002:00006780       ??_C@_01COCBENDE@7?$AA@    00498780     Dlgcode.obj
 0002:00006784       ??_C@_04CBODECMO@2008?$AA@ 00498784     Dlgcode.obj
 0002:0000678c       ??_C@_05FBPADAKE@vista?$AA@ 0049878c     Dlgcode.obj
 0002:00006794       ??_C@_04MCBHJLAF@2003?$AA@ 00498794     Dlgcode.obj
 0002:0000679c       ??_C@_04NOKDIIJN@?9pro?$AA@ 0049879c     Dlgcode.obj
 0002:000067a4       ??_C@_05GHINFEPM@?9home?$AA@ 004987a4     Dlgcode.obj
 0002:000067ac       ??_C@_02HFGDGGPD@xp?$AA@   004987ac     Dlgcode.obj
 0002:000067b0       ??_C@_04OJDKMIMG@2000?$AA@ 004987b0     Dlgcode.obj
 0002:000067b8       ??_C@_0CN@LCMFDIEF@SOFTWARE?2Microsoft?2Windows?5NT?2Cu@ 004987b8     Dlgcode.obj
 0002:000067e8       ??_C@_03JECLAOEA@win?$AA@  004987e8     Dlgcode.obj
 0002:000067ec       ??_C@_0DI@DCPBDEOF@http?3?1?1ciphershed?4org?1applink?$DPve@ 004987ec     Dlgcode.obj
 0002:00006824       ??_C@_04CIEGKLKE@?$CGos?$DN?$AA@ 00498824     Dlgcode.obj
 0002:00006830       ??_7?$ContainerForward@V?$list@USecurityTokenInfo@CipherShed@@V?$allocator@USecurityTokenInfo@CipherShed@@@std@@@std@@@ForEach@CipherShed@@6B@ 00498830     Dlgcode.obj
 0002:00006840       ??_7?$ContainerForward@V?$vector@USecurityTokenKeyfile@CipherShed@@V?$allocator@USecurityTokenKeyfile@CipherShed@@@std@@@std@@@ForEach@CipherShed@@6B@ 00498840     Dlgcode.obj
 0002:00006850       ??_7?$ContainerForward@V?$list@USecurityTokenKeyfile@CipherShed@@V?$allocator@USecurityTokenKeyfile@CipherShed@@@std@@@std@@@ForEach@CipherShed@@6B@ 00498850     Dlgcode.obj
 0002:00006860       ??_C@_0DDJ@INFJPGJH@Portions?5of?5this?5software?5are?5ba@ 00498860     Dlgcode.obj
 0002:00006b9c       ??_C@_04GHJNJNPO@main?$AA@ 00498b9c     Dlgcode.obj
 0002:00006ba4       ??_C@_0CL@OLEPOIOI@Released?5by?5CipherShed?5on?5Februa@ 00498ba4     Dlgcode.obj
 0002:00006bd0       ??_C@_0O@HAOBOOIJ@CipherShed?5?$CFs?$AA@ 00498bd0     Dlgcode.obj
 0002:00006be0       ??_C@_05JPPCAGFG@0?47?43?$AA@ 00498be0     Dlgcode.obj
 0002:00006be8       ??_C@_0P@POMHPHDI@ciphershed?4org?$AA@ 00498be8     Dlgcode.obj
 0002:00006bf8       ??_C@_0O@JLGCPBGA@IDD_ABOUT_DLG?$AA@ 00498bf8     Dlgcode.obj
 0002:00006c08       ??_C@_0BF@JIKAMFDK@EXCEPTION_REPORT_EXT?$AA@ 00498c08     Dlgcode.obj
 0002:00006c20       ??_C@_0BH@KPCDNAAO@EXCEPTION_REPORT_TITLE?$AA@ 00498c20     Dlgcode.obj
 0002:00006c38       ??_C@_0BB@PFGPMKFM@EXCEPTION_REPORT?$AA@ 00498c38     Dlgcode.obj
 0002:00006c50       ??_C@_0IK@LKDHDEMN@https?3?1?1ciphershed?4org?1applink?$DPv@ 00498c50     Dlgcode.obj
 0002:00006cdc       ??_C@_0BA@EIBJDAPB@?$CGlangpack?$DN?$CFs_?$CFs?$AA@ 00498cdc     Dlgcode.obj
 0002:00006cec       ??_C@_03BPHHBGPB@?$DN0x?$AA@ 00498cec     Dlgcode.obj
 0002:00006cf0       ??_C@_0M@GHNAPHBH@SymFromAddr?$AA@ 00498cf0     Dlgcode.obj
 0002:00006cfc       ??_C@_0M@FJINHFIC@StackWalk64?$AA@ 00498cfc     Dlgcode.obj
 0002:00006d08       ??_C@_0BD@JCAKOMOK@SymGetModuleBase64?$AA@ 00498d08     Dlgcode.obj
 0002:00006d1c       ??_C@_0BJ@OOGADJNM@SymFunctionTableAccess64?$AA@ 00498d1c     Dlgcode.obj
 0002:00006d38       ??_C@_0O@MCMFENKA@SymInitialize?$AA@ 00498d38     Dlgcode.obj
 0002:00006d48       ??_C@_0O@LIDFOEPH@SymSetOptions?$AA@ 00498d48     Dlgcode.obj
 0002:00006d58       ??_C@_0O@KGBKFDLO@SymGetOptions?$AA@ 00498d58     Dlgcode.obj
 0002:00006d68       ??_C@_0M@OOEJBPPK@dbghelp?4dll?$AA@ 00498d68     Dlgcode.obj
 0002:00006d74       ??_C@_0BN@PKGEAFIB@EXCEPTION_REPORT_EXT_FILESEL?$AA@ 00498d74     Dlgcode.obj
 0002:00006d94       ??_C@_0N@MAFEFKDE@releasenotes?$AA@ 00498d94     Dlgcode.obj
 0002:00006da4       ??_C@_0BM@PEPDOHPE@AFTER_UPGRADE_RELEASE_NOTES?$AA@ 00498da4     Dlgcode.obj
 0002:00006dc0       ??_C@_0BC@FIMNAHGL@beginnerstutorial?$AA@ 00498dc0     Dlgcode.obj
 0002:00006dd4       ??_C@_0BH@JALPBIFE@AFTER_INSTALL_TUTORIAL?$AA@ 00498dd4     Dlgcode.obj
 0002:00006dec       ??_C@_0O@HCBFIMAP@INIT_RICHEDIT?$AA@ 00498dec     Dlgcode.obj
 0002:00006dfc       ??_C@_0N@BMEDOHMB@Riched20?4dll?$AA@ 00498dfc     Dlgcode.obj
 0002:00006e0c       ??_C@_0O@PKFAAFKJ@INIT_REGISTER?$AA@ 00498e0c     Dlgcode.obj
 0002:00006e1c       ??_C@_06FGFHJIJL@?$CD32770?$AA@ 00498e1c     Dlgcode.obj
 0002:00006e24       ??_C@_0BC@GALHPKAM@HIBERBOOT_WARNING?$AA@ 00498e24     Dlgcode.obj
 0002:00006e38       ??_C@_0BB@HPCHMKPF@HiberbootEnabled?$AA@ 00498e38     Dlgcode.obj
 0002:00006e4c       ??_C@_0DH@LALKCDG@SYSTEM?2CurrentControlSet?2Control@ 00498e4c     Dlgcode.obj
 0002:00006e84       ??_C@_0BB@EMKOIAFP@HibernateEnabled?$AA@ 00498e84     Dlgcode.obj
 0002:00006e98       ??_C@_0CH@FAGKKBPC@SYSTEM?2CurrentControlSet?2Control@ 00498e98     Dlgcode.obj
 0002:00006ec0       ??_C@_0BO@CHBDAIFD@LARGE_IDE_WARNING_2K_REGISTRY?$AA@ 00498ec0     Dlgcode.obj
 0002:00006ee0       ??_C@_0N@MGFEFGLL@EnableBigLba?$AA@ 00498ee0     Dlgcode.obj
 0002:00006ef0       ??_C@_0DD@HENCBNAN@SYSTEM?2CurrentControlSet?2Service@ 00498ef0     Dlgcode.obj
 0002:00006f24       ??_C@_0BF@FAAJOFOJ@LARGE_IDE_WARNING_2K?$AA@ 00498f24     Dlgcode.obj
 0002:00006f3c       ??_C@_0BF@LMHPGAIF@LARGE_IDE_WARNING_XP?$AA@ 00498f3c     Dlgcode.obj
 0002:00006f54       ??_C@_0CI@KAEBDPBB@System?2CurrentControlSet?2Control@ 00498f54     Dlgcode.obj
 0002:00006f7c       ??_C@_0P@IEEIGCBO@UNSUPPORTED_OS?$AA@ 00498f7c     Dlgcode.obj
 0002:00006f8c       ??_C@_07MDDLOGBN@?1q?5UAC?5?$AA@ 00498f8c     Dlgcode.obj
 0002:00006f94       ??_C@_1DK@KHACNMIN@?$AAC?$AAi?$AAp?$AAh?$AAe?$AAr?$AAS?$AAh?$AAe?$AAd?$AAP?$AAr?$AAo?$AAj?$AAe?$AAc?$AAt?$AA?4?$AAC?$AAi?$AAp?$AAh?$AAe?$AAr?$AAS?$AAh?$AAe?$AAd?$AA?$AA@ 00498f94     Dlgcode.obj
 0002:00006fd0       ??_C@_0M@KFDNOLCO@shell32?4dll?$AA@ 00498fd0     Dlgcode.obj
 0002:00006fdc       ??_C@_0CI@MDCPAMLM@SetCurrentProcessExplicitAppUser@ 00498fdc     Dlgcode.obj
 0002:00007004       ??_C@_0CJ@DPNMADAJ@LIMITED_THREAD_COUNT_AFFECTS_PER@ 00499004     Dlgcode.obj
 0002:00007030       ??_C@_0BC@OLBIFKJH@NUMBER_OF_THREADS?$AA@ 00499030     Dlgcode.obj
 0002:00007044       ??_C@_0CE@PCOLOOBN@DISABLED_HW_AES_AFFECTS_PERFORMA@ 00499044     Dlgcode.obj
 0002:00007068       ??_C@_0P@OLANKFFE@UISTR_DISABLED?$AA@ 00499068     Dlgcode.obj
 0002:00007078       ??_C@_1O@MPLLELLM@?$AA2?$AA0?$AA0?$AA?5?$AA?$CF?$AAs?$AA?$AA@ 00499078     Dlgcode.obj
 0002:00007088       ??_C@_1M@LHMOADBN@?$AA5?$AA0?$AA?5?$AA?$CF?$AAs?$AA?$AA@ 00499088     Dlgcode.obj
 0002:00007094       ??_C@_1M@LEMIDIGC@?$AA1?$AA0?$AA?5?$AA?$CF?$AAs?$AA?$AA@ 00499094     Dlgcode.obj
 0002:000070a0       ??_C@_19EFDCCHFE@?$AA5?$AA?5?$AA?$CF?$AAs?$AA?$AA@ 004990a0     Dlgcode.obj
 0002:000070ac       ??_C@_19EMNJIHCO@?$AA1?$AA?5?$AA?$CF?$AAs?$AA?$AA@ 004990ac     Dlgcode.obj
 0002:000070b8       ??_C@_1O@KKHGOBHM@?$AA5?$AA0?$AA0?$AA?5?$AA?$CF?$AAs?$AA?$AA@ 004990b8     Dlgcode.obj
 0002:000070c8       ??_C@_1O@LDNKGOGH@?$AA1?$AA0?$AA0?$AA?5?$AA?$CF?$AAs?$AA?$AA@ 004990c8     Dlgcode.obj
 0002:000070d8       ??_C@_0L@CNNDFAGN@MEAN_SPEED?$AA@ 004990d8     Dlgcode.obj
 0002:000070e4       ??_C@_0BJ@CAIGIJEE@ALPHABETICAL_CATEGORIZED?$AA@ 004990e4     Dlgcode.obj
 0002:00007100       ??_C@_04CKNGLJGJ@MEAN?$AA@ 00499100     Dlgcode.obj
 0002:00007108       ??_C@_0L@POBGFBLK@DECRYPTION?$AA@ 00499108     Dlgcode.obj
 0002:00007114       ??_C@_0L@MHHIHFIN@ENCRYPTION?$AA@ 00499114     Dlgcode.obj
 0002:00007120       ??_C@_09KPCECDGB@ALGORITHM?$AA@ 00499120     Dlgcode.obj
 0002:0000712c       ??_C@_0BC@LMCINEGC@IDD_BENCHMARK_DLG?$AA@ 0049912c     Dlgcode.obj
 0002:00007140       ??_C@_04PCJFHION@help?$AA@ 00499140     Dlgcode.obj
 0002:00007148       ??_C@_0BC@HCJJOEDJ@HELP_READER_ERROR?$AA@ 00499148     Dlgcode.obj
 0002:0000715c       ??_C@_13MCLHKIEA@?$AA?$FL?$AA?$AA@ 0049915c     Dlgcode.obj
 0002:00007160       ??_C@_15FOBPOKEL@?$AA?$FN?$AA?5?$AA?$AA@ 00499160     Dlgcode.obj
 0002:00007168       ??_C@_0BA@PNGOBCAF@NO_TOKENS_FOUND?$AA@ 00499168     Dlgcode.obj
 0002:00007178       ??_C@_0BG@LFJKCHMB@IDD_NEW_TOKEN_KEYFILE?$AA@ 00499178     Dlgcode.obj
 0002:00007190       ??_C@_0P@CDPPHMOE@SELECT_KEYFILE?$AA@ 00499190     Dlgcode.obj
 0002:000071a0       ??_C@_0BJ@BMFGOBOD@CONFIRM_SEL_FILES_DELETE?$AA@ 004991a0     Dlgcode.obj
 0002:000071bc       ??_C@_0BB@PPCMEB@KEYFILE_EXPORTED?$AA@ 004991bc     Dlgcode.obj
 0002:000071d0       ??_C@_0BI@IHKDKJBG@TOKEN_DATA_OBJECT_LABEL?$AA@ 004991d0     Dlgcode.obj
 0002:000071e8       ??_C@_0L@NGNPCFGO@TOKEN_NAME?$AA@ 004991e8     Dlgcode.obj
 0002:000071f4       ??_C@_0O@FCMHIAOH@TOKEN_SLOT_ID?$AA@ 004991f4     Dlgcode.obj
 0002:00007204       ??_C@_0BD@HDBJEGLD@IDD_TOKEN_KEYFILES?$AA@ 00499204     Dlgcode.obj
 0002:00007218       ??_C@_0BG@NCEDCOKN@SELECT_TOKEN_KEYFILES?$AA@ 00499218     Dlgcode.obj
 0002:00007230       ??_C@_13EBCNDICG@?$AA?3?$AA?$AA@ 00499230     Dlgcode.obj
 0002:00007234       ??_C@_08IPBANHMA@HARDDISK?$AA@ 00499234     Dlgcode.obj
 0002:00007240       ??_C@_0P@MBKJGBEM@REMOVABLE_DISK?$AA@ 00499240     Dlgcode.obj
 0002:00007250       ??_C@_0L@IJFHJLKD@RAWDEVICES?$AA@ 00499250     Dlgcode.obj
 0002:0000725c       ??_C@_06CDNPEPDB@DEVICE?$AA@ 0049925c     Dlgcode.obj
 0002:00007264       ??_C@_0BD@OAMDNKIF@IDD_RAWDEVICES_DLG?$AA@ 00499264     Dlgcode.obj
 0002:00007a78       ??_C@_02JDPG@rb?$AA@       00499a78     Keyfiles.obj
 0002:00007a7c       ??_C@_0BH@EHNHOJEI@ERR_KEYFILE_PATH_EMPTY?$AA@ 00499a7c     Keyfiles.obj
 0002:00007a94       ??_C@_06GIIGBPHC@?$CFs?$CFc?$CFs?$AA@ 00499a94     Keyfiles.obj
 0002:00007a9c       ??_C@_0BJ@LAFEHOHO@ERR_PROCESS_KEYFILE_PATH?$AA@ 00499a9c     Keyfiles.obj
 0002:00007ab8       ??_C@_06BNHEIDIH@?$CFs?2?$CK?4?$CK?$AA@ 00499ab8     Keyfiles.obj
 0002:00007ac0       ??_C@_0BE@BKNFAOGD@ERR_PROCESS_KEYFILE?$AA@ 00499ac0     Keyfiles.obj
 0002:00007ad8       ??_7?$ContainerForward@V?$list@USecurityTokenKeyfilePath@CipherShed@@V?$allocator@USecurityTokenKeyfilePath@CipherShed@@@std@@@std@@@ForEach@CipherShed@@6B@ 00499ad8     Keyfiles.obj
 0002:00007ae4       ??_C@_08FHEKFNDB@keyfiles?$AA@ 00499ae4     Keyfiles.obj
 0002:00007af0       ??_C@_0BE@EJPKDEGH@SELECT_KEYFILE_PATH?$AA@ 00499af0     Keyfiles.obj
 0002:00007b04       ??_C@_0O@JNGBBDK@KEYFILES_NOTE?$AA@ 00499b04     Keyfiles.obj
 0002:00007b14       ??_C@_07BGLJIIHG@KEYFILE?$AA@ 00499b14     Keyfiles.obj
 0002:00007b1c       ??_C@_0N@OGGIJBFO@IDD_KEYFILES?$AA@ 00499b1c     Keyfiles.obj
 0002:00007b2c       ??_C@_0BE@CCFPMIGO@IDC_TOKEN_FILES_ADD?$AA@ 00499b2c     Keyfiles.obj
 0002:00007b40       ??_C@_0BF@NLAKGKFC@IDC_ADD_KEYFILE_PATH?$AA@ 00499b40     Keyfiles.obj
 0002:00007b58       ??_C@_0L@CJIBJHKI@IDC_KEYADD?$AA@ 00499b58     Keyfiles.obj
 0002:00007b64       ??_C@_03FJEFHLHG@Xml?$AA@  00499b64     Language.obj
 0002:00007b68       ??_C@_1BO@DAKOOJFM@?$AA?2?$AAL?$AAa?$AAn?$AAg?$AAu?$AAa?$AAg?$AAe?$AA?$CK?$AA?4?$AAx?$AAm?$AAl?$AA?$AA@ 00499b68     Language.obj
 0002:00007b88       ??_C@_1BE@ONAPIBAL@?$AA?$FL?$AA?$DP?$AA?$FN?$AA?$CF?$AAh?$AAs?$AA?$FL?$AA?$DP?$AA?$FN?$AA?$AA@ 00499b88     Language.obj
 0002:00007b9c       ??_C@_0O@MBEIEFFD@?$CDdefine?5?$CFs?5?$CFd?$AA@ 00499b9c     Language.obj
 0002:00007bac       ??_C@_06OENKJGA@Header?$AA@ 00499bac     Language.obj
 0002:00007bb4       ??_C@_06CALLMKCG@IDHELP?$AA@ 00499bb4     Language.obj
 0002:00007bbc       ??_C@_07CIAHAGHC@IDCLOSE?$AA@ 00499bbc     Language.obj
 0002:00007bc4       ??_C@_04BAADKBID@IDOK?$AA@ 00499bc4     Language.obj
 0002:00007bcc       ??_C@_0CO@OPBINFGK@CipherShed?3?5Error?5while?5decoding@ 00499bcc     Language.obj
 0002:00007bfc       ??_C@_0DC@NDOJKNIA@CipherShed?3?5Unknown?5?8?2?8?5escape?5s@ 00499bfc     Language.obj
 0002:00007c30       ??_C@_05ENKANFLO@class?$AA@ 00499c30     Language.obj
 0002:00007c38       ??_C@_05DONAFDKA@font_?$AA@ 00499c38     Language.obj
 0002:00007c40       ??_C@_04IAGNFIBA@size?$AA@ 00499c40     Language.obj
 0002:00007c48       ??_C@_04POCOPAPC@face?$AA@ 00499c48     Language.obj
 0002:00007c50       ??_C@_04IOHABJIC@lang?$AA@ 00499c50     Language.obj
 0002:00007c58       ??_C@_04EFPADHIC@font?$AA@ 00499c58     Language.obj
 0002:00007c60       ??_C@_07CPCPJPKL@version?$AA@ 00499c60     Language.obj
 0002:00007c68       ??_C@_06CLEJICHF@langid?$AA@ 00499c68     Language.obj
 0002:00007c70       ??_C@_08JGCCIMAA@language?$AA@ 00499c70     Language.obj
 0002:00007c80       ??_C@_1EAI@KOJNONI@?$AAT?$AAh?$AAe?$AA?5?$AAi?$AAn?$AAs?$AAt?$AAa?$AAl?$AAl?$AAe?$AAd?$AA?5?$AAl?$AAa?$AAn?$AAg?$AAu?$AAa?$AAg?$AAe?$AA?5?$AAp?$AAa?$AAc?$AAk?$AA?5?$AAi?$AAs?$AA?5?$AAi@ 00499c80     Language.obj
 0002:00008088       ??_C@_05KOLFGEDA@DEBUG?$AA@ 0049a088     Language.obj
 0002:00008090       ??_C@_0N@LEFFHNKM@prog?9version?$AA@ 0049a090     Language.obj
 0002:000080a0       ??_C@_0N@MFNNBINO@localization?$AA@ 0049a0a0     Language.obj
 0002:000080b0       ??_C@_06ICGJLFIM@string?$AA@ 0049a0b0     Language.obj
 0002:000080b8       ??_C@_07MMBOFDEG@control?$AA@ 0049a0b8     Language.obj
 0002:000080c0       ??_C@_0M@DOLNAGBN@translators?$AA@ 0049a0c0     Language.obj
 0002:000080cc       ??_C@_15KHFHDPFH@?$AA?9?$AA?9?$AA?$AA@ 0049a0cc     Language.obj
 0002:000080d4       ??_C@_0BC@KEBBFOHL@LANG_PACK_VERSION?$AA@ 0049a0d4     Language.obj
 0002:000080e8       ??_C@_1BA@CLLEDPIF@?$AAE?$AAn?$AAg?$AAl?$AAi?$AAs?$AAh?$AA?$AA@ 0049a0e8     Language.obj
 0002:000080f8       ??_C@_04MEMAJGDJ@name?$AA@ 0049a0f8     Language.obj
 0002:00008100       ??_C@_0N@CHAAEAGP@IDD_LANGUAGE?$AA@ 0049a100     Language.obj
 0002:00008110       ??_C@_0O@GFLMAIPO@localizations?$AA@ 0049a110     Language.obj
 0002:00008120       ??_C@_0BM@OECEHKD@?$CGlangpackversion?$DN?$CFs?$CGlang?$DN?$CFs?$AA@ 0049a120     Language.obj
 0002:0000813c       ??_C@_0BI@FPFPGNBO@PASSWORD_LENGTH_WARNING?$AA@ 0049a13c     Password.obj
 0002:00008154       ??_C@_09ONJBBFFA@?$CIUnknown?$CJ?$AA@ 0049a154     Pkcs5.obj
 0002:00008160       ??_C@_0P@NGLBIHKE@HMAC?9Whirlpool?$AA@ 0049a160     Pkcs5.obj
 0002:00008170       ??_C@_0BA@EMJCKHIJ@HMAC?9RIPEMD?9160?$AA@ 0049a170     Pkcs5.obj
 0002:00008180       ??_C@_0L@GENPDEDH@HMAC?9SHA?91?$AA@ 0049a180     Pkcs5.obj
 0002:0000818c       ??_C@_0N@PGAIHMNP@HMAC?9SHA?9512?$AA@ 0049a18c     Pkcs5.obj
 0002:0000819c       ??_C@_0BL@BENPDJPG@ERR_NOT_ENOUGH_RANDOM_DATA?$AA@ 0049a19c     Random.obj
 0002:000081b8       ??_C@_0BE@JBDFGGOO@?2?2?4?2PhysicalDrive?$CFd?$AA@ 0049a1b8     Random.obj
 0002:000081cc       ??_C@_1BK@FJCAAMNP@?$AAL?$AAa?$AAn?$AAm?$AAa?$AAn?$AAS?$AAe?$AAr?$AAv?$AAe?$AAr?$AA?$AA@ 0049a1cc     Random.obj
 0002:000081e8       ??_C@_1CE@MINGJEKI@?$AAL?$AAa?$AAn?$AAm?$AAa?$AAn?$AAW?$AAo?$AAr?$AAk?$AAs?$AAt?$AAa?$AAt?$AAi?$AAo?$AAn?$AA?$AA@ 0049a1e8     Random.obj
 0002:0000820c       ??_C@_0BB@EODNGDFL@NetApiBufferFree?$AA@ 0049a20c     Random.obj
 0002:00008220       ??_C@_0BB@HGFPEPHK@NetApiBufferSize?$AA@ 0049a220     Random.obj
 0002:00008234       ??_C@_0BB@NIBHPBJM@NetStatisticsGet?$AA@ 0049a234     Random.obj
 0002:00008248       ??_C@_0N@HNENINMF@NETAPI32?4DLL?$AA@ 0049a248     Random.obj
 0002:00008258       ??_C@_05LELOMLIF@WinNT?$AA@ 0049a258     Random.obj
 0002:00008260       ??_C@_0M@GGPOPAAP@ProductType?$AA@ 0049a260     Random.obj
 0002:0000826c       ??_C@_0DA@NKLICLFP@SYSTEM?2CurrentControlSet?2Control@ 0049a26c     Random.obj
 0002:0000829c       ??_C@_04HDOCAJNK@?$CFs?$CFs?$AA@ 0049a29c     Registry.obj
 0002:000082a4       ??_C@_0CC@HPOBEDNL@Software?2Microsoft?2Windows?2Curre@ 0049a2a4     Registry.obj
 0002:000082c8       ??_C@_0N@PGJGCAIL@tVersion?2Run?$AA@ 0049a2c8     Registry.obj
 0002:000082dc       ??_7Pkcs11Exception@CipherShed@@6B@ 0049a2dc     SecurityToken.obj
 0002:000082e4       ??_7InvalidSecurityTokenKeyfilePath@CipherShed@@6B@ 0049a2e4     SecurityToken.obj
 0002:000082e8       ??_C@_0BL@JIBHLIDC@INVALID_TOKEN_KEYFILE_PATH?$AA@ 0049a2e8     SecurityToken.obj
 0002:00008308       ??_7SecurityTokenKeyfileNotFound@CipherShed@@6B@ 0049a308     SecurityToken.obj
 0002:0000830c       ??_C@_0BI@BBCBGCML@TOKEN_KEYFILE_NOT_FOUND?$AA@ 0049a30c     SecurityToken.obj
 0002:00008328       ??_7SecurityTokenLibraryNotInitialized@CipherShed@@6B@ 0049a328     SecurityToken.obj
 0002:00008330       ??_7SecurityTokenKeyfileAlreadyExists@CipherShed@@6B@ 0049a330     SecurityToken.obj
 0002:00008334       ??_C@_0BN@LMLDGKPH@TOKEN_KEYFILE_ALREADY_EXISTS?$AA@ 0049a334     SecurityToken.obj
 0002:00008354       ??_C@_1BC@ELBDEFGA@?$AAt?$AAo?$AAk?$AAe?$AAn?$AA?3?$AA?1?$AA?1?$AA?$AA@ 0049a354     SecurityToken.obj
 0002:0000836c       ??_7?$ContainerForward@V?$vector@KV?$allocator@K@std@@@std@@@ForEach@CipherShed@@6B@ 0049a36c     SecurityToken.obj
 0002:0000837c       ??_7?$ContainerForward@V?$map@KUPkcs11Session@CipherShed@@U?$less@K@std@@V?$allocator@U?$pair@$$CBKUPkcs11Session@CipherShed@@@std@@@4@@std@@@ForEach@CipherShed@@6B@ 0049a37c     SecurityToken.obj
 0002:00008388       ??_C@_0CM@DAKHJILN@CipherShed?3?3SecurityToken?3?3Close@ 0049a388     SecurityToken.obj
 0002:000083b4       ??_C@_0DC@NACADLGC@CipherShed?3?3SecurityToken?3?3GetOb@ 0049a3b4     SecurityToken.obj
 0002:000083e8       ??_C@_0CK@EOHGJJNG@CipherShed?3?3SecurityToken?3?3GetOb@ 0049a3e8     SecurityToken.obj
 0002:00008414       ??_C@_1BM@IPMKACB@?$AAt?$AAo?$AAk?$AAe?$AAn?$AA?3?$AA?1?$AA?1?$AAs?$AAl?$AAo?$AAt?$AA?1?$AA?$AA@ 0049a414     SecurityToken.obj
 0002:00008430       ??_C@_1O@HIAFDIDB@?$AA?1?$AAf?$AAi?$AAl?$AAe?$AA?1?$AA?$AA@ 0049a430     SecurityToken.obj
 0002:00008440       ??_C@_01IPJKGB@?$CD?$AA@   0049a440     SecurityToken.obj
 0002:00008444       ??_C@_02MDDDDAID@0x?$AA@   0049a444     SecurityToken.obj
 0002:000086f8       ??_C@_0L@JIDCKNME@CKR_CANCEL?$AA@ 0049a6f8     SecurityToken.obj
 0002:00008704       ??_C@_0BA@HHDKGBBP@CKR_HOST_MEMORY?$AA@ 0049a704     SecurityToken.obj
 0002:00008714       ??_C@_0BE@FOAEJLLC@CKR_SLOT_ID_INVALID?$AA@ 0049a714     SecurityToken.obj
 0002:00008728       ??_C@_0BC@BPPOLCIH@CKR_GENERAL_ERROR?$AA@ 0049a728     SecurityToken.obj
 0002:0000873c       ??_C@_0BE@DIFKEOGI@CKR_FUNCTION_FAILED?$AA@ 0049a73c     SecurityToken.obj
 0002:00008750       ??_C@_0BC@LNHMJFHC@CKR_ARGUMENTS_BAD?$AA@ 0049a750     SecurityToken.obj
 0002:00008764       ??_C@_0N@KFPEOGN@CKR_NO_EVENT?$AA@ 0049a764     SecurityToken.obj
 0002:00008774       ??_C@_0BL@NDINCBKJ@CKR_NEED_TO_CREATE_THREADS?$AA@ 0049a774     SecurityToken.obj
 0002:00008790       ??_C@_0O@OHMKMDKB@CKR_CANT_LOCK?$AA@ 0049a790     SecurityToken.obj
 0002:000087a0       ??_C@_0BI@IDDIMLAI@CKR_ATTRIBUTE_READ_ONLY?$AA@ 0049a7a0     SecurityToken.obj
 0002:000087b8       ??_C@_0BI@LPANBEIN@CKR_ATTRIBUTE_SENSITIVE?$AA@ 0049a7b8     SecurityToken.obj
 0002:000087d0       ??_C@_0BL@CJHMMHEH@CKR_ATTRIBUTE_TYPE_INVALID?$AA@ 0049a7d0     SecurityToken.obj
 0002:000087ec       ??_C@_0BM@LMONJDMA@CKR_ATTRIBUTE_VALUE_INVALID?$AA@ 0049a7ec     SecurityToken.obj
 0002:00008808       ??_C@_0BB@HONBBNLK@CKR_DATA_INVALID?$AA@ 0049a808     SecurityToken.obj
 0002:0000881c       ??_C@_0BD@BPCFCEOF@CKR_DATA_LEN_RANGE?$AA@ 0049a81c     SecurityToken.obj
 0002:00008830       ??_C@_0BB@OAEPJIAO@CKR_DEVICE_ERROR?$AA@ 0049a830     SecurityToken.obj
 0002:00008844       ??_C@_0BC@EDKNPIJF@CKR_DEVICE_MEMORY?$AA@ 0049a844     SecurityToken.obj
 0002:00008858       ??_C@_0BD@CLPGKOPG@CKR_DEVICE_REMOVED?$AA@ 0049a858     SecurityToken.obj
 0002:0000886c       ??_C@_0BL@HMMBAKLE@CKR_ENCRYPTED_DATA_INVALID?$AA@ 0049a86c     SecurityToken.obj
 0002:00008888       ??_C@_0BN@CHFIOLM@CKR_ENCRYPTED_DATA_LEN_RANGE?$AA@ 0049a888     SecurityToken.obj
 0002:000088a8       ??_C@_0BG@GFNGJBLD@CKR_FUNCTION_CANCELED?$AA@ 0049a8a8     SecurityToken.obj
 0002:000088c0       ??_C@_0BK@CPMALGEH@CKR_FUNCTION_NOT_PARALLEL?$AA@ 0049a8c0     SecurityToken.obj
 0002:000088dc       ??_C@_0BL@FLCFPGMF@CKR_FUNCTION_NOT_SUPPORTED?$AA@ 0049a8dc     SecurityToken.obj
 0002:000088f8       ??_C@_0BH@JBCBCIHC@CKR_KEY_HANDLE_INVALID?$AA@ 0049a8f8     SecurityToken.obj
 0002:00008910       ??_C@_0BD@DCCEPOIK@CKR_KEY_SIZE_RANGE?$AA@ 0049a910     SecurityToken.obj
 0002:00008924       ??_C@_0BK@FBLHAPGA@CKR_KEY_TYPE_INCONSISTENT?$AA@ 0049a924     SecurityToken.obj
 0002:00008940       ??_C@_0BD@CADJPHKC@CKR_KEY_NOT_NEEDED?$AA@ 0049a940     SecurityToken.obj
 0002:00008954       ??_C@_0BA@PBNACHHM@CKR_KEY_CHANGED?$AA@ 0049a954     SecurityToken.obj
 0002:00008964       ??_C@_0P@CIJPGKMN@CKR_KEY_NEEDED?$AA@ 0049a964     SecurityToken.obj
 0002:00008974       ??_C@_0BF@GCBGIGLD@CKR_KEY_INDIGESTIBLE?$AA@ 0049a974     SecurityToken.obj
 0002:0000898c       ??_C@_0BP@PCNBFOEJ@CKR_KEY_FUNCTION_NOT_PERMITTED?$AA@ 0049a98c     SecurityToken.obj
 0002:000089ac       ??_C@_0BG@IEKNAGOL@CKR_KEY_NOT_WRAPPABLE?$AA@ 0049a9ac     SecurityToken.obj
 0002:000089c4       ??_C@_0BG@OIKHBDLJ@CKR_KEY_UNEXTRACTABLE?$AA@ 0049a9c4     SecurityToken.obj
 0002:000089dc       ??_C@_0BG@FIBINAPL@CKR_MECHANISM_INVALID?$AA@ 0049a9dc     SecurityToken.obj
 0002:000089f4       ??_C@_0BM@NHMBLBHF@CKR_MECHANISM_PARAM_INVALID?$AA@ 0049a9f4     SecurityToken.obj
 0002:00008a10       ??_C@_0BK@NIGFIGL@CKR_OBJECT_HANDLE_INVALID?$AA@ 0049aa10     SecurityToken.obj
 0002:00008a2c       ??_C@_0BF@LACBDJFM@CKR_OPERATION_ACTIVE?$AA@ 0049aa2c     SecurityToken.obj
 0002:00008a44       ??_C@_0BO@NIGNIKB@CKR_OPERATION_NOT_INITIALIZED?$AA@ 0049aa44     SecurityToken.obj
 0002:00008a64       ??_C@_0BC@PIDGDJNE@CKR_PIN_INCORRECT?$AA@ 0049aa64     SecurityToken.obj
 0002:00008a78       ??_C@_0BA@PDLKJELN@CKR_PIN_INVALID?$AA@ 0049aa78     SecurityToken.obj
 0002:00008a88       ??_C@_0BC@MEAAAEMN@CKR_PIN_LEN_RANGE?$AA@ 0049aa88     SecurityToken.obj
 0002:00008a9c       ??_C@_0BA@PPOOFJBC@CKR_PIN_EXPIRED?$AA@ 0049aa9c     SecurityToken.obj
 0002:00008aac       ??_C@_0P@JGPCDBMN@CKR_PIN_LOCKED?$AA@ 0049aaac     SecurityToken.obj
 0002:00008abc       ??_C@_0BD@EFPEBFCO@CKR_SESSION_CLOSED?$AA@ 0049aabc     SecurityToken.obj
 0002:00008ad0       ??_C@_0BC@GFNLAALM@CKR_SESSION_COUNT?$AA@ 0049aad0     SecurityToken.obj
 0002:00008ae4       ??_C@_0BL@JFEIAJEO@CKR_SESSION_HANDLE_INVALID?$AA@ 0049aae4     SecurityToken.obj
 0002:00008b00       ??_C@_0CD@CNJKDODF@CKR_SESSION_PARALLEL_NOT_SUPPORT@ 0049ab00     SecurityToken.obj
 0002:00008b24       ??_C@_0BG@NACFPKBK@CKR_SESSION_READ_ONLY?$AA@ 0049ab24     SecurityToken.obj
 0002:00008b3c       ??_C@_0BD@CJEENIOI@CKR_SESSION_EXISTS?$AA@ 0049ab3c     SecurityToken.obj
 0002:00008b50       ??_C@_0BN@FEECMDLD@CKR_SESSION_READ_ONLY_EXISTS?$AA@ 0049ab50     SecurityToken.obj
 0002:00008b70       ??_C@_0CB@MOHOJDLI@CKR_SESSION_READ_WRITE_SO_EXISTS@ 0049ab70     SecurityToken.obj
 0002:00008b94       ??_C@_0BG@FJFGJBPL@CKR_SIGNATURE_INVALID?$AA@ 0049ab94     SecurityToken.obj
 0002:00008bac       ??_C@_0BI@BCEJLCCN@CKR_SIGNATURE_LEN_RANGE?$AA@ 0049abac     SecurityToken.obj
 0002:00008bc4       ??_C@_0BI@OKLBFCJN@CKR_TEMPLATE_INCOMPLETE?$AA@ 0049abc4     SecurityToken.obj
 0002:00008bdc       ??_C@_0BK@NFOMODKD@CKR_TEMPLATE_INCONSISTENT?$AA@ 0049abdc     SecurityToken.obj
 0002:00008bf8       ??_C@_0BG@GJCOFLCP@CKR_TOKEN_NOT_PRESENT?$AA@ 0049abf8     SecurityToken.obj
 0002:00008c10       ??_C@_0BJ@DKIDJOKM@CKR_TOKEN_NOT_RECOGNIZED?$AA@ 0049ac10     SecurityToken.obj
 0002:00008c2c       ??_C@_0BK@LICPHIEK@CKR_TOKEN_WRITE_PROTECTED?$AA@ 0049ac2c     SecurityToken.obj
 0002:00008c48       ??_C@_0CC@BHIKKBJK@CKR_UNWRAPPING_KEY_HANDLE_INVALI@ 0049ac48     SecurityToken.obj
 0002:00008c6c       ??_C@_0BO@EDNGDMCF@CKR_UNWRAPPING_KEY_SIZE_RANGE?$AA@ 0049ac6c     SecurityToken.obj
 0002:00008c8c       ??_C@_0CF@FNADNHJM@CKR_UNWRAPPING_KEY_TYPE_INCONSIS@ 0049ac8c     SecurityToken.obj
 0002:00008cb4       ??_C@_0BL@HHCLDMIB@CKR_USER_ALREADY_LOGGED_IN?$AA@ 0049acb4     SecurityToken.obj
 0002:00008cd0       ??_C@_0BH@PHIJDFPC@CKR_USER_NOT_LOGGED_IN?$AA@ 0049acd0     SecurityToken.obj
 0002:00008ce8       ??_C@_0BN@CJFMMEDO@CKR_USER_PIN_NOT_INITIALIZED?$AA@ 0049ace8     SecurityToken.obj
 0002:00008d08       ??_C@_0BG@ECPOFDO@CKR_USER_TYPE_INVALID?$AA@ 0049ad08     SecurityToken.obj
 0002:00008d20       ??_C@_0CD@GJCCPLNL@CKR_USER_ANOTHER_ALREADY_LOGGED_@ 0049ad20     SecurityToken.obj
 0002:00008d44       ??_C@_0BI@MGNIFGMM@CKR_USER_TOO_MANY_TYPES?$AA@ 0049ad44     SecurityToken.obj
 0002:00008d5c       ??_C@_0BI@CPLHFH@CKR_WRAPPED_KEY_INVALID?$AA@ 0049ad5c     SecurityToken.obj
 0002:00008d74       ??_C@_0BK@MCPGJNEM@CKR_WRAPPED_KEY_LEN_RANGE?$AA@ 0049ad74     SecurityToken.obj
 0002:00008d90       ??_C@_0CA@DLBMIHED@CKR_WRAPPING_KEY_HANDLE_INVALID?$AA@ 0049ad90     SecurityToken.obj
 0002:00008db0       ??_C@_0BM@OCCHBGKK@CKR_WRAPPING_KEY_SIZE_RANGE?$AA@ 0049adb0     SecurityToken.obj
 0002:00008dcc       ??_C@_0CD@FOJGMFK@CKR_WRAPPING_KEY_TYPE_INCONSISTE@ 0049adcc     SecurityToken.obj
 0002:00008df0       ??_C@_0BO@GILEANPO@CKR_RANDOM_SEED_NOT_SUPPORTED?$AA@ 0049adf0     SecurityToken.obj
 0002:00008e10       ??_C@_0BC@JEFNGGNK@CKR_RANDOM_NO_RNG?$AA@ 0049ae10     SecurityToken.obj
 0002:00008e24       ??_C@_0BK@MMHDGADE@CKR_DOMAIN_PARAMS_INVALID?$AA@ 0049ae24     SecurityToken.obj
 0002:00008e40       ??_C@_0BF@DHOMKFCE@CKR_BUFFER_TOO_SMALL?$AA@ 0049ae40     SecurityToken.obj
 0002:00008e58       ??_C@_0BI@JPLEOJGD@CKR_SAVED_STATE_INVALID?$AA@ 0049ae58     SecurityToken.obj
 0002:00008e70       ??_C@_0BK@NJDKONLD@CKR_INFORMATION_SENSITIVE?$AA@ 0049ae70     SecurityToken.obj
 0002:00008e8c       ??_C@_0BF@EAMMCHLP@CKR_STATE_UNSAVEABLE?$AA@ 0049ae8c     SecurityToken.obj
 0002:00008ea4       ??_C@_0BN@ODFNBLKM@CKR_CRYPTOKI_NOT_INITIALIZED?$AA@ 0049aea4     SecurityToken.obj
 0002:00008ec4       ??_C@_0CB@JBBGANIO@CKR_CRYPTOKI_ALREADY_INITIALIZED@ 0049aec4     SecurityToken.obj
 0002:00008ee8       ??_C@_0O@GIMOJHGA@CKR_MUTEX_BAD?$AA@ 0049aee8     SecurityToken.obj
 0002:00008ef8       ??_C@_0BF@NLNAHNBM@CKR_MUTEX_NOT_LOCKED?$AA@ 0049aef8     SecurityToken.obj
 0002:00008f10       ??_C@_0BB@NJDNOJFN@CKR_NEW_PIN_MODE?$AA@ 0049af10     SecurityToken.obj
 0002:00008f24       ??_C@_0N@IBMCNMKC@CKR_NEXT_OTP?$AA@ 0049af24     SecurityToken.obj
 0002:00008f34       ??_C@_0BG@GCNMIEKF@CKR_FUNCTION_REJECTED?$AA@ 0049af34     SecurityToken.obj
 0002:00008f4c       ??_C@_1BK@FLCMNAGD@?$AA?6?$AA?6?$AAE?$AAr?$AAr?$AAo?$AAr?$AA?5?$AAc?$AAo?$AAd?$AAe?$AA?$AA@ 0049af4c     SecurityToken.obj
 0002:00008f68       ??_C@_1BG@PNNJJJBG@?$AA?$CF?$AAs?$AA?3?$AA?6?$AA?6?$AA?$CF?$AAh?$AAs?$AA?$CF?$AAs?$AA?$AA@ 0049af68     SecurityToken.obj
 0002:00008f80       ??_C@_0BF@NKGFDJIN@SECURITY_TOKEN_ERROR?$AA@ 0049af80     SecurityToken.obj
 0002:00008f98       ??_C@_04DIIAEOAC@CKR_?$AA@ 0049af98     SecurityToken.obj
 0002:00008fa0       ??_C@_15ELOONFKJ@?$AA?3?$AA?5?$AA?$AA@ 0049afa0     SecurityToken.obj
 0002:00008fa8       ??_C@_1CC@OMDFECBP@?$AAt?$AAo?$AAk?$AAe?$AAn?$AA?3?$AA?1?$AA?1?$AAs?$AAl?$AAo?$AAt?$AA?1?$AA?$CF?$AAl?$AAu?$AA?$AA@ 0049afa8     SecurityToken.obj
 0002:00008fcc       ??_C@_0CN@IMBEOLCN@CipherShed?3?3SecurityToken?3?3Creat@ 0049afcc     SecurityToken.obj
 0002:00009000       ??_C@_0EB@PHFBDMAI@?$AD?$JB?R?$IA?$AA?$LGb?$LL?$LI?f?$CD?$DO?hl?r?$LC?$IEtLs?$ILX?$AA?$LK?$CI?$BC?mRo?c?$BF?3@ 0049b000     Tests.obj
 0002:00009044       ??_C@_0DJ@NGDOEGCI@abcdbcdecdefdefgefghfghighijhijk@ 0049b044     Tests.obj
 0002:00009080       ??_C@_0EB@DIMDKBBC@?$AA?$BB?$CC3DUfw?$II?$JJ?$KK?$LL?L?$NN?n?$PP?$AB?$CDEg?$IJ?$KL?M?o?$AA?$BB?$CC3DUfw@ 0049b080     Tests.obj
 0002:000090c4       ??_C@_0BF@PFENIDMG@?$IF?qdp?$DOa?$KG11?$LO?$HOE?$JF?$IO?$AH?$JE?$BC9?$AE?y?$AA@ 0049b0c4     Tests.obj
 0002:000090dc       ??_C@_0BF@HFFLEHPC@?x6b?L?$IN3?$JM?$CC?$HO?$GA?$AP?MclW?RW?$BL?$BM4?$AA@ 0049b0dc     Tests.obj
 0002:000090f8       ??_C@_0FB@JDIKKJCI@12345678901234567890123456789012@ 0049b0f8     Tests.obj
 0002:0000914c       ??_C@_0P@ONGHGJEC@message?5digest?$AA@ 0049b14c     Tests.obj
 0002:0000915c       ??_C@_0BF@JFBGCNOI@?$AB?$CDEg?$IJ?$KL?M?o?$PO?$NM?$LK?$JIvT2?$BA?$AA?$BB?$CC3?$AA@ 0049b15c     Tests.obj
 0002:00009174       ??_C@_0BF@EKEAJOKM@?$AA?$BB?$CC3DUfw?$II?$JJ?$KK?$LL?L?$NN?n?$PP?$AB?$CDEg?$AA@ 0049b174     Tests.obj
 0002:0000918c       ??_C@_0BF@OJOCDNBL@?$BC?$FNsB?$LJ?$KM?$BB?M?$JB?$KD?$JK?t?$IK?$KB?$HLOc?qu?S?$AA@ 0049b18c     Tests.obj
 0002:000091a4       ??_C@_0BF@NPPNDLAN@?o?$PM?$NPj?e?k?1?$KC?Rt?$BG?U?q?$IE?$NP?$JM?$CF?$JK?$HMy?$AA@ 0049b1a4     Tests.obj
 0002:000091bc       ??_C@_0BF@BDDOKADE@?$LG?$BH1?$IGU?$AFrd?b?$IL?$MA?$LG?$PL7?$IM?$IO?qF?$LO?$AA?$AA@ 0049b1bc     Tests.obj
 0002:000091d4       ??_C@_0BF@KOBLBFLL@?$LM?t?$BO?$KL?$IL?$LC?X?$AC?s?P?2?$KP?$HM?$LA?$JC?l?x?Q?$KD?$KK?$AA@ 0049b1d4     Tests.obj
 0002:000091ec       ??_C@_09OCHOFPMP@Sample?5?$CD3?$AA@ 0049b1ec     Tests.obj
 0002:000091f8       ??_C@_0GF@PEHFLIKL@PQRSTUVWXYZ?$FL?2?$FN?$FO_?$GAabcdefghijklmno@ 0049b1f8     Tests.obj
 0002:00009260       ??_C@_0EB@IAGJFOJI@?c?$HLjw?$FN?H?$HN?$LK?$KE?$NP?$KJ?yn?$FO?$DP?$PN?$NO?$LNq?x?$IGr?$IJ?$IG?$FN?u?$KD?9?5?M?ID@ 0049b260     Tests.obj
 0002:000092a8       ??_C@_0EB@HIMJOCNA@?$IA?$LCBc?G?A?$KD?k?$LH?$BE?$JD?A?$NN?$HL?h?$LE?$JLF?Q?t?$BLJ?n?A?$BC?$BL?$AB7?$ID?x?sR@ 0049b2a8     Tests.obj
 0002:000092f0       ??_C@_0EB@LPCMCIMB@?$LA?$LKFV7E?$IMi?$JA?e?$KI?E?v?$BNJ?w?ev?Y?$HP?yK?$IH?9?go?$IAP6?$BO?c?$NL@ 0049b2f0     Tests.obj
 0002:00009338       ??_C@_0EB@KHIOOKPP@?zs?$LA?$AI?$JNV?$KC?$IE?o?$LA?pul?$IJ?$AL?i?$LB?$LF?$NL?$NN?$IO?h?$BK6U?x?$DO3?$LC?8?$JN9@ 0049b338     Tests.obj
 0002:00009380       ??_C@_0EB@OCCGLAFJ@?$BGKz?$HL?$PM?x?$BJ?b?c?$JF?$PL?g?$DLV?$OA?$KD?$IH?$LNd?$CC?4?$ID?$BP?V?$BA?8?$AM?W?j?$CF?$AFT@ 0049b380     Tests.obj
 0002:000093c8       ??_C@_0EB@NPCMCGAL@?$IH?$KK?$HM?$NO?$KF?oa?$JNO?p?$LE$?$BK?$BNl?$LA?$CDy?t?b?NN?Bxz?P?$LD?$AFE?a?$HM?$NO@ 0049b3c8     Tests.obj
 0002:00009410       ??_C@_0JJ@PIHOAKB@This?5is?5a?5test?5using?5a?5larger?5th@ 0049b410     Tests.obj
 0002:000094ac       ??_C@_0DH@HELOGHDO@Test?5Using?5Larger?5Than?5Block?9Siz@ 0049b4ac     Tests.obj
 0002:000094e4       ??_C@_0DD@JCGDPDJ@?M?M?M?M?M?M?M?M?M?M?M?M?M?M?M?M?M?M?M?M?M?M?M?M?M?M?M?M?M?M?M?M@ 0049b4e4     Tests.obj
 0002:00009518       ??_C@_0DD@ODBBAMCC@?$NN?$NN?$NN?$NN?$NN?$NN?$NN?$NN?$NN?$NN?$NN?$NN?$NN?$NN?$NN?$NN?$NN?$NN?$NN?$NN?$NN?$NN?$NN?$NN?$NN?$NN?$NN?$NN?$NN?$NN?$NN?$NN@ 0049b518     Tests.obj
 0002:0000954c       ??_C@_0BN@GJJCPKAL@what?5do?5ya?5want?5for?5nothing?$DP?$AA@ 0049b54c     Tests.obj
 0002:0000956c       ??_C@_08BPPJKMC@Hi?5There?$AA@ 0049b56c     Tests.obj
 0002:00009578       ??_C@_0IE@FDPIKKAI@?$KK?$KK?$KK?$KK?$KK?$KK?$KK?$KK?$KK?$KK?$KK?$KK?$KK?$KK?$KK?$KK?$KK?$KK?$KK?$KK?$KK?$KK?$KK?$KK?$KK?$KK?$KK?$KK?$KK?$KK?$KK?$KK@ 0049b578     Tests.obj
 0002:000095fc       ??_C@_0BK@LNLLCJNI@?$AB?$AC?$AD?$AE?$AF?$AG?$AH?$AI?7?6?$AL?$AM?$AN?$AO?$AP?$BA?$BB?$BC?$BD?$BE?$BF?$BG?$BH?$BI?$BJ?$AA@ 0049b5fc     Tests.obj
 0002:00009618       ??_C@_0BF@GHKGHDBL@?$KK?$KK?$KK?$KK?$KK?$KK?$KK?$KK?$KK?$KK?$KK?$KK?$KK?$KK?$KK?$KK?$KK?$KK?$KK?$KK?$AA@ 0049b618     Tests.obj
 0002:00009630       ??_C@_04HDLGGHEL@Jefe?$AA@ 0049b630     Tests.obj
 0002:00009638       ??_C@_0BF@EOMNKBPJ@?$AL?$AL?$AL?$AL?$AL?$AL?$AL?$AL?$AL?$AL?$AL?$AL?$AL?$AL?$AL?$AL?$AL?$AL?$AL?$AL?$AA@ 0049b638     Tests.obj
 0002:00009650       ??_C@_0BA@DNGGBODD@Twofish?9Serpent?$AA@ 0049b650     Tests.obj
 0002:00009660       ??_C@_0BE@HADLPGPH@Serpent?9Twofish?9AES?$AA@ 0049b660     Tests.obj
 0002:00009674       ??_C@_0M@MCFMFOIH@Serpent?9AES?$AA@ 0049b674     Tests.obj
 0002:00009680       ??_C@_0BE@LPKAFENL@AES?9Twofish?9Serpent?$AA@ 0049b680     Tests.obj
 0002:00009694       ??_C@_0M@DKAIMMJ@AES?9Twofish?$AA@ 0049b694     Tests.obj
 0002:000096a0       ??_C@_0BF@GDBAFGNG@AES?9Blowfish?9Serpent?$AA@ 0049b6a0     Tests.obj
 0002:000096b8       ??_C@_0N@NEJJJADE@AES?9Blowfish?$AA@ 0049b6b8     Tests.obj
 0002:000096c8       ??_C@_0GB@BHABHNEI@P?$HM6o?n?$BA?4?$JK?b?$IK?U?$ICr?$HN?8?$AP?hM?$HPhz?O?$LF?gCg?$KK?$JI?$JDR?$CL?7@ 0049b6c8     Tests.obj
 0002:0000972c       ??_C@_0DB@KJBGHKFA@z?$DN?$HM?$AD?g?$CGk?x?$DNx?$PL?$CJ?Rd?$BPV?j?p?e?u?L?D?31?$KI?$IEp?$LP?$LNo?$IOx@ 0049b72c     Tests.obj
 0002:00009760       ??_C@_0DB@MAMEFANK@?2u?N?p?$BK?$JG?$AN?wL?$LG?$LE?$JL?$JO8?f?$LF?$DL?$BB?$IA?c?1?w?$OA?$NN?$KK?J?$IP?$IB?8?v?$JPO@ 0049b760     Tests.obj
 0002:00009798       ??_C@_0JB@EEHAMOLN@?$BDd?$KO?x?$AN?uWl0?UqL?$KHu?$DP?$PN?$AA?e?$CF?$IL9?GD?$HP?N?$CD?$DN?$AIu?$OA?1H@ 0049b798     Tests.obj
 0002:0000982c       ??_C@_08NLHBPEGP@password?$AA@ 0049b82c     Tests.obj
 0002:00009838       ??_C@_04NDGDACAK@?$BC4Vx?$AA@ 0049b838     Tests.obj
 0002:00009840       ??_C@_04GFKCAHFK@?5?$DN?5?$CC?$AA@ 0049b840     Xml.obj
 0002:00009848       ??_C@_03PFIILPDO@?5?$DN?$CC?$AA@ 0049b848     Xml.obj
 0002:0000984c       ??_C@_03EDAFAAFP@?$DN?5?$CC?$AA@ 0049b84c     Xml.obj
 0002:00009850       ??_C@_02ILLPBGAO@?$DN?$CC?$AA@ 0049b850     Xml.obj
 0002:00009854       ??_C@_05JKJFEODM@?$CGamp?$DL?$AA@ 0049b854     Xml.obj
 0002:0000985c       ??_C@_04LOOHDCEI@?$CGgt?$DL?$AA@ 0049b85c     Xml.obj
 0002:00009864       ??_C@_04GJOGLFEJ@?$CGlt?$DL?$AA@ 0049b864     Xml.obj
 0002:0000986c       ??_C@_0DD@NFGIKLFN@?$DM?$DPxml?5version?$DN?$CC1?40?$CC?5encoding?$DN?$CCut@ 0049b86c     Xml.obj
 0002:000098a0       ??_C@_1GG@BPLLCFPM@?$AA?$DM?$AA?$DP?$AAx?$AAm?$AAl?$AA?5?$AAv?$AAe?$AAr?$AAs?$AAi?$AAo?$AAn?$AA?$DN?$AA?$CC?$AA1?$AA?4?$AA0?$AA?$CC?$AA?5?$AAe?$AAn?$AAc?$AAo?$AAd?$AAi?$AAn?$AAg?$AA?$DN?$AA?$CC?$AAu?$AAt@ 0049b8a0     Xml.obj
 0002:00009908       ??_C@_0O@KNDIKFEF@?6?$DM?1TrueCrypt?$DO?$AA@ 0049b908     Xml.obj
 0002:00009918       ??_C@_1BM@LBMOHPBG@?$AA?6?$AA?$DM?$AA?1?$AAT?$AAr?$AAu?$AAe?$AAC?$AAr?$AAy?$AAp?$AAt?$AA?$DO?$AA?$AA@ 0049b918     Xml.obj
 0002:00009938       ??_7?$ContainerForward@V?$basic_string@DU?$char_traits@D@std@@V?$allocator@D@2@@std@@@ForEach@CipherShed@@6B@ 0049b938     csstringutil.obj
 0002:00009a78       ??_C@_0BD@NLNANBEJ@ERR_HARDWARE_ERROR?$AA@ 0049ba78     errors.obj
 0002:00009a8c       ??_C@_0BC@GIPDODAO@ERR_ACCESS_DENIED?$AA@ 0049ba8c     errors.obj
 0002:00009aa0       ??_C@_0CF@ICCCDCPD@HIDDEN_FILES_PRESENT_IN_KEYFILE_@ 0049baa0     errors.obj
 0002:00009ac8       ??_C@_0BO@HLEOGNJG@SYSENC_MOUNT_WITHOUT_PBA_NOTE?$AA@ 0049bac8     errors.obj
 0002:00009ae8       ??_C@_0BH@CMAKHPOE@PASSWORD_OR_MODE_WRONG?$AA@ 0049bae8     errors.obj
 0002:00009b00       ??_C@_0CC@FKMPBFBP@PASSWORD_OR_KEYFILE_OR_MODE_WRON@ 0049bb00     errors.obj
 0002:00009b24       ??_C@_15GANGMFKL@?$AA?$CF?$AAs?$AA?$AA@ 0049bb24     errors.obj
 0002:00009b2c       ??_C@_0P@MKGPOAFK@PASSWORD_WRONG?$AA@ 0049bb2c     errors.obj
 0002:00009b3c       ??_C@_0BK@LAEGKAMJ@PASSWORD_OR_KEYFILE_WRONG?$AA@ 0049bb3c     errors.obj
 0002:00009b58       ??_C@_0M@FDOCLIJD@ERR_UNKNOWN?$AA@ 0049bb58     errors.obj
 0002:00009b64       ??_C@_0CF@MBJPLKGL@ERR_SYS_HIDVOL_HEAD_REENC_MODE_W@ 0049bb64     errors.obj
 0002:00009b8c       ??_C@_0CC@BGLNMIMN@ERR_NONSYS_INPLACE_ENC_INCOMPLET@ 0049bb8c     errors.obj
 0002:00009bb0       ??_C@_0BN@JLJPGHCL@ERR_ENCRYPTION_NOT_COMPLETED?$AA@ 0049bbb0     errors.obj
 0002:00009bd0       ??_C@_0BD@GJIBONDI@ERR_VOL_FORMAT_BAD?$AA@ 0049bbd0     errors.obj
 0002:00009be4       ??_C@_0BG@DKEEGIEL@ERR_SELF_TESTS_FAILED?$AA@ 0049bbe4     errors.obj
 0002:00009bfc       ??_C@_0BF@LDKGLOCG@NEW_VERSION_REQUIRED?$AA@ 0049bbfc     errors.obj
 0002:00009c14       ??_C@_0P@LICKOHFP@DRIVER_VERSION?$AA@ 0049bc14     errors.obj
 0002:00009c24       ??_C@_0O@ILOHOCOF@ACCESS_DENIED?$AA@ 0049bc24     errors.obj
 0002:00009c34       ??_C@_0P@ECPPAAM@NO_FREE_DRIVES?$AA@ 0049bc34     errors.obj
 0002:00009c44       ??_C@_0BB@JCPIJGNN@VOL_MOUNT_FAILED?$AA@ 0049bc44     errors.obj
 0002:00009c58       ??_C@_0BB@GLPAMHI@FILE_OPEN_FAILED?$AA@ 0049bc58     errors.obj
 0002:00009c6c       ??_C@_0BJ@DGGCCNCK@ERR_CIPHER_INIT_WEAK_KEY?$AA@ 0049bc6c     errors.obj
 0002:00009c88       ??_C@_0BI@BFLHAGLK@ERR_CIPHER_INIT_FAILURE?$AA@ 0049bc88     errors.obj
 0002:00009ca0       ??_C@_0M@KFLNHABP@VOL_SEEKING?$AA@ 0049bca0     errors.obj
 0002:00009cac       ??_C@_0P@BKLABIJI@WRONG_VOL_TYPE?$AA@ 0049bcac     errors.obj
 0002:00009cbc       ??_C@_0BK@FLKCANLN@COMPRESSION_NOT_SUPPORTED?$AA@ 0049bcbc     errors.obj
 0002:00009cd8       ??_C@_0P@HPMGPOAF@VOL_SIZE_WRONG?$AA@ 0049bcd8     errors.obj
 0002:00009ce8       ??_C@_0P@DNONBLBD@OPENFILES_LOCK?$AA@ 0049bce8     errors.obj
 0002:00009cf8       ??_C@_0BB@HBDCANKP@OPENFILES_DRIVER?$AA@ 0049bcf8     errors.obj
 0002:00009d0c       ??_C@_09IILMPLJM@NOT_FOUND?$AA@ 0049bd0c     errors.obj
 0002:00009d18       ??_C@_0P@LKABJJMO@IsWow64Process?$AA@ 0049bd18     userperms.obj
 0002:00009d28       ??_C@_0P@DJAFHMO@CipherShed?5UAC?$AA@ 0049bd28     userperms.obj
 0002:00009d38       ??_C@_0CF@DPFBLAAK@CipherShedEnableElevatedCursorCh@ 0049bd38     userperms.obj
 0002:00009d60       ??_C@_09IMBMLODE@EnableLUA?$AA@ 0049bd60     userperms.obj
 0002:00009d6c       ??_C@_0DK@IFNHFOHB@Software?2Microsoft?2Windows?2Curre@ 0049bd6c     userperms.obj
 0002:00009da8       ??_C@_08MBBBEOPI@?2Device?2?$AA@ 0049bda8     volutil.obj
 0002:00009db4       ??_C@_1DO@HBNMGCKD@?$AA?2?$AAD?$AAe?$AAv?$AAi?$AAc?$AAe?$AA?2?$AAH?$AAa?$AAr?$AAd?$AAd?$AAi?$AAs?$AAk?$AA?$CF?$AAd?$AA?2?$AAP?$AAa?$AAr?$AAt?$AAi?$AAt?$AAi?$AAo?$AAn?$AA?$CF?$AAd?$AA?$AA@ 0049bdb4     volutil.obj
 0002:00009df4       ??_C@_06OLPECHEJ@?2?$DP?$DP?2?$CFs?$AA@ 0049bdf4     volutil.obj
 0002:00009dfc       ??_C@_1BK@LABJKOM@?$AA?2?$AAD?$AAo?$AAs?$AAD?$AAe?$AAv?$AAi?$AAc?$AAe?$AAs?$AA?2?$AA?$AA@ 0049bdfc     diskutil.obj
 0002:0000d6f8       _k256                      0049f6f8     crypto:Sha2.obj
 0002:0000d7f8       _i224                      0049f7f8     crypto:Sha2.obj
 0002:0000d818       _i256                      0049f818     crypto:Sha2.obj
 0002:0000d838       _k512                      0049f838     crypto:Sha2.obj
 0002:0000dab8       _i384                      0049fab8     crypto:Sha2.obj
 0002:0000dd38       _i512                      0049fd38     crypto:Sha2.obj
 0002:00012020       _t_rc                      004a4020     crypto:Aestab.obj
 0002:00012060       _t_fn                      004a4060     crypto:Aestab.obj
 0002:00013060       _t_fl                      004a5060     crypto:Aestab.obj
 0002:00014060       _t_in                      004a6060     crypto:Aestab.obj
 0002:00015060       _t_il                      004a7060     crypto:Aestab.obj
 0002:00016060       _t_im                      004a8060     crypto:Aestab.obj
 0002:00017060       _IID_IUnknown              004a9060     uuid:unknwn_i.obj
 0002:00017070       _IID_IClassFactory         004a9070     uuid:unknwn_i.obj
 0002:00017080       _GUID_DEVCLASS_DISKDRIVE   004a9080     uuid:cguid_i.obj
 0002:00017090       _GUID_DEVCLASS_FLOPPYDISK  004a9090     uuid:cguid_i.obj
 0002:000170a0       _GUID_DEVCLASS_VOLUME      004a90a0     uuid:cguid_i.obj
 0002:000170b0       ??_C@_0BA@JFNIOLAK@string?5too?5long?$AA@ 004a90b0     libcpmt:string.obj
 0002:000170c0       ??_C@_0BI@CFPLBAOH@invalid?5string?5position?$AA@ 004a90c0     libcpmt:string.obj
 0002:000170dc       ??_7_Locimp@locale@std@@6B@ 004a90dc     libcpmt:locale0.obj
 0002:000170e0       ??_C@_01GFHCPBMG@C?$AA@    004a90e0     libcpmt:locale0.obj
 0002:000170e4       ?_BADOFF@std@@3JB          004a90e4     libcpmt:ios.obj
 0002:000170ec       ??_7exception@std@@6B@     004a90ec     LIBCMT:stdexcpt.obj
 0002:000170f4       ??_C@_0BC@EOODALEL@Unknown?5exception?$AA@ 004a90f4     LIBCMT:stdexcpt.obj
 0002:0001710c       ??_7bad_cast@std@@6B@      004a910c     LIBCMT:stdexcpt.obj
 0002:00017118       ??_7type_info@@6B@         004a9118     LIBCMT:typinfo.obj
 0002:0001713c       ??_C@_0P@MIGLKIOC@CorExitProcess?$AA@ 004a913c     LIBCMT:crt0dat.obj
 0002:0001714c       ??_C@_1BI@BGOHAHKC@?$AAm?$AAs?$AAc?$AAo?$AAr?$AAe?$AAe?$AA?4?$AAd?$AAl?$AAl?$AA?$AA@ 004a914c     LIBCMT:crt0dat.obj
 0002:00017164       __FPinit                   004a9164     LIBCMT:_fpinit_.obj
 0002:00017168       __FPmtinit                 004a9168     LIBCMT:_fpinit_.obj
 0002:0001716c       __FPmtterm                 004a916c     LIBCMT:_fpinit_.obj
 0002:00017210       ??_C@_03LLEJOLGL@?4?1?2?$AA@ 004a9210     LIBCMT:stati32.obj
 0002:00017214       ??_C@_02EAOCEIGI@?$DP?$CK?$AA@ 004a9214     LIBCMT:stati32.obj
 0002:00017218       ??_C@_13NOLLCAOD@?$AA?$AA?$AA?$AA@ 004a9218     LIBCMT:a_map.obj
 0002:00017220       ___newctype                004a9220     LIBCMT:ctype.obj
 0002:00017520       __wctype                   004a9520     LIBCMT:ctype.obj
 0002:00017728       ___newclmap                004a9728     LIBCMT:ctype.obj
 0002:000178a8       ___newcumap                004a98a8     LIBCMT:ctype.obj
 0002:00017a28       ??_C@_07LCBHPJJN@LC_TIME?$AA@ 004a9a28     LIBCMT:setlocal.obj
 0002:00017a30       ??_C@_0L@DLHIECNL@LC_NUMERIC?$AA@ 004a9a30     LIBCMT:setlocal.obj
 0002:00017a3c       ??_C@_0M@MIENIKLA@LC_MONETARY?$AA@ 004a9a3c     LIBCMT:setlocal.obj
 0002:00017a48       ??_C@_08EADHIDAD@LC_CTYPE?$AA@ 004a9a48     LIBCMT:setlocal.obj
 0002:00017a54       ??_C@_0L@KFJHEKIK@LC_COLLATE?$AA@ 004a9a54     LIBCMT:setlocal.obj
 0002:00017a60       ??_C@_06NEFDFEKB@LC_ALL?$AA@ 004a9a60     LIBCMT:setlocal.obj
 0002:00017a68       ___lc_category             004a9a68     LIBCMT:setlocal.obj
 0002:00017b30       ??_C@_03EGDHDPFD@_?4?0?$AA@ 004a9b30     LIBCMT:setlocal.obj
 0002:00017b34       ??_C@_01IDAFKMJL@_?$AA@    004a9b34     LIBCMT:setlocal.obj
 0002:00017b38       ??_C@_01ICJEACDI@?$DL?$AA@ 004a9b38     LIBCMT:setlocal.obj
 0002:00017b3c       ??_C@_02BALPLPBG@?$DN?$DL?$AA@ 004a9b3c     LIBCMT:setlocal.obj
 0002:00017b40       __pDestructExceptionObject 004a9b40     LIBCMT:frame.obj
 0002:00017b48       ??_7bad_exception@std@@6B@ 004a9b48     LIBCMT:frame.obj
 0002:00017b50       ??_C@_0O@DPKOEFFH@bad?5exception?$AA@ 004a9b50     LIBCMT:frame.obj
 0002:00017b60       ??_C@_0P@GGKDKEEG@runtime?5error?5?$AA@ 004a9b60     LIBCMT:crt0msg.obj
 0002:00017b70       ??_C@_02PCIJFNDE@?$AN?6?$AA@ 004a9b70     LIBCMT:crt0msg.obj
 0002:00017b74       ??_C@_0O@MJNIPGOH@TLOSS?5error?$AN?6?$AA@ 004a9b74     LIBCMT:crt0msg.obj
 0002:00017b84       ??_C@_0N@BONNPDHF@SING?5error?$AN?6?$AA@ 004a9b84     LIBCMT:crt0msg.obj
 0002:00017b94       ??_C@_0P@MBDAJNE@DOMAIN?5error?$AN?6?$AA@ 004a9b94     LIBCMT:crt0msg.obj
 0002:00017ba8       ??_C@_0JL@DFDOOABL@R6034?$AN?6An?5application?5has?5made?5a@ 004a9ba8     LIBCMT:crt0msg.obj
 0002:00017c48       ??_C@_0PH@EPAFIJ@R6033?$AN?6?9?5Attempt?5to?5use?5MSIL?5cod@ 004a9c48     LIBCMT:crt0msg.obj
 0002:00017d40       ??_C@_0DD@BKEEABMM@R6032?$AN?6?9?5not?5enough?5space?5for?5lo@ 004a9d40     LIBCMT:crt0msg.obj
 0002:00017d78       ??_C@_0GD@OFKILIED@R6031?$AN?6?9?5Attempt?5to?5initialize?5t@ 004a9d78     LIBCMT:crt0msg.obj
 0002:00017ddc       ??_C@_0BP@LPMHJOKI@R6030?$AN?6?9?5CRT?5not?5initialized?$AN?6?$AA@ 004a9ddc     LIBCMT:crt0msg.obj
 0002:00017dfc       ??_C@_0CF@KJDAIALP@R6028?$AN?6?9?5unable?5to?5initialize?5he@ 004a9dfc     LIBCMT:crt0msg.obj
 0002:00017e24       ??_C@_0DF@GAKBPDFP@R6027?$AN?6?9?5not?5enough?5space?5for?5lo@ 004a9e24     LIBCMT:crt0msg.obj
 0002:00017e5c       ??_C@_0DF@IBLNNAIG@R6026?$AN?6?9?5not?5enough?5space?5for?5st@ 004a9e5c     LIBCMT:crt0msg.obj
 0002:00017e94       ??_C@_0CG@IOHKGFNJ@R6025?$AN?6?9?5pure?5virtual?5function?5c@ 004a9e94     LIBCMT:crt0msg.obj
 0002:00017ebc       ??_C@_0DF@JIJJFJDC@R6024?$AN?6?9?5not?5enough?5space?5for?5_o@ 004a9ebc     LIBCMT:crt0msg.obj
 0002:00017ef4       ??_C@_0CJ@EGEJHFME@R6019?$AN?6?9?5unable?5to?5open?5console?5@ 004a9ef4     LIBCMT:crt0msg.obj
 0002:00017f20       ??_C@_0CB@GNHNIELH@R6018?$AN?6?9?5unexpected?5heap?5error?$AN?6@ 004a9f20     LIBCMT:crt0msg.obj
 0002:00017f44       ??_C@_0CN@FOLDKNG@R6017?$AN?6?9?5unexpected?5multithread?5@ 004a9f44     LIBCMT:crt0msg.obj
 0002:00017f74       ??_C@_0CM@FAHFJNHO@R6016?$AN?6?9?5not?5enough?5space?5for?5th@ 004a9f74     LIBCMT:crt0msg.obj
 0002:00017fa0       ??_C@_0JG@LBKMGKLD@?$AN?6This?5application?5has?5requested@ 004a9fa0     LIBCMT:crt0msg.obj
 0002:00018038       ??_C@_0CM@FLCNIPKK@R6009?$AN?6?9?5not?5enough?5space?5for?5en@ 004aa038     LIBCMT:crt0msg.obj
 0002:00018064       ??_C@_0CK@KMMJOAPP@R6008?$AN?6?9?5not?5enough?5space?5for?5ar@ 004aa064     LIBCMT:crt0msg.obj
 0002:00018090       ??_C@_0CN@LEKKICBM@R6002?$AN?6?9?5floating?5point?5support?5@ 004aa090     LIBCMT:crt0msg.obj
 0002:000180c0       ??_C@_0CF@GOGNBNAK@Microsoft?5Visual?5C?$CL?$CL?5Runtime?5Lib@ 004aa0c0     LIBCMT:crt0msg.obj
 0002:000180e8       ??_C@_02PHMGELLB@?6?6?$AA@ 004aa0e8     LIBCMT:crt0msg.obj
 0002:000180ec       ??_C@_03KHICJKCI@?4?4?4?$AA@ 004aa0ec     LIBCMT:crt0msg.obj
 0002:000180f0       ??_C@_0BH@DNAGHKFM@?$DMprogram?5name?5unknown?$DO?$AA@ 004aa0f0     LIBCMT:crt0msg.obj
 0002:00018108       ??_C@_0BK@OFGJDLJJ@Runtime?5Error?$CB?6?6Program?3?5?$AA@ 004aa108     LIBCMT:crt0msg.obj
 0002:00018124       ??_C@_0O@NLDKAIKN@EncodePointer?$AA@ 004aa124     LIBCMT:tidtable.obj
 0002:00018134       ??_C@_1BK@DBDEIDLH@?$AAK?$AAE?$AAR?$AAN?$AAE?$AAL?$AA3?$AA2?$AA?4?$AAD?$AAL?$AAL?$AA?$AA@ 004aa134     LIBCMT:tidtable.obj
 0002:00018150       ??_C@_0O@KBPMFGHI@DecodePointer?$AA@ 004aa150     LIBCMT:tidtable.obj
 0002:00018160       ??_C@_07PEJMOBNF@FlsFree?$AA@ 004aa160     LIBCMT:tidtable.obj
 0002:00018168       ??_C@_0M@JCPCPOEF@FlsSetValue?$AA@ 004aa168     LIBCMT:tidtable.obj
 0002:00018174       ??_C@_0M@GDNOONDI@FlsGetValue?$AA@ 004aa174     LIBCMT:tidtable.obj
 0002:00018180       ??_C@_08KNHFBNJ@FlsAlloc?$AA@ 004aa180     LIBCMT:tidtable.obj
 0002:000181b4       ??_C@_1O@CEDCILHN@?$AA?$CI?$AAn?$AAu?$AAl?$AAl?$AA?$CJ?$AA?$AA@ 004aa1b4     LIBCMT:output.obj
 0002:000181c4       ??_C@_06OJHGLDPL@?$CInull?$CJ?$AA@ 004aa1c4     LIBCMT:output.obj
 0002:000181d0       ___lookuptable             004aa1d0     LIBCMT:output.obj
 0002:00018230       __XcptActTab               004aa230     LIBCMT:winxfltr.obj
 0002:000182a8       ??_C@_05KLBDPFGC@e?$CL000?$AA@ 004aa2a8     LIBCMT:cvt.obj
 0002:000182b0       __real@4150017ec0000000    004aa2b0     LIBCMT:_testfdiv_.obj
 0002:000182b8       __real@4147ffff80000000    004aa2b8     LIBCMT:_testfdiv_.obj
 0002:000182c0       ??_C@_0BK@NHEOCAHP@IsProcessorFeaturePresent?$AA@ 004aa2c0     LIBCMT:_testfdiv_.obj
 0002:000182dc       ??_C@_08CPNIBGIE@KERNEL32?$AA@ 004aa2dc     LIBCMT:_testfdiv_.obj
 0002:00018350       ??_C@_03IIINPABG@tan?$AA@  004aa350     LIBCMT:_libm_error_.obj
 0002:00018354       ??_C@_03LALBNOCG@cos?$AA@  004aa354     LIBCMT:_libm_error_.obj
 0002:00018358       ??_C@_03BLEJJJBH@sin?$AA@  004aa358     LIBCMT:_libm_error_.obj
 0002:0001835c       ??_C@_04EHEDPDJG@modf?$AA@ 004aa35c     LIBCMT:_libm_error_.obj
 0002:00018364       ??_C@_05PBJFFIGL@floor?$AA@ 004aa364     LIBCMT:_libm_error_.obj
 0002:0001836c       ??_C@_04GFPJNGEK@ceil?$AA@ 004aa36c     LIBCMT:_libm_error_.obj
 0002:00018374       ??_C@_04MLLJIGOK@atan?$AA@ 004aa374     LIBCMT:_libm_error_.obj
 0002:0001837c       ??_C@_05EOHGHCHD@exp10?$AA@ 004aa37c     LIBCMT:_libm_error_.obj
 0002:00018384       ??_C@_04PDIFKINK@acos?$AA@ 004aa384     LIBCMT:_libm_error_.obj
 0002:0001838c       ??_C@_04FIHNOPOL@asin?$AA@ 004aa38c     LIBCMT:_libm_error_.obj
 0002:00018394       ??_C@_03MGHMBJCF@log?$AA@  004aa394     LIBCMT:_libm_error_.obj
 0002:00018398       ??_C@_05HGHHAHAP@log10?$AA@ 004aa398     LIBCMT:_libm_error_.obj
 0002:000183a0       ??_C@_03KHJOGHMM@exp?$AA@  004aa3a0     LIBCMT:_libm_error_.obj
 0002:000183a4       ??_C@_03JGHBODFD@pow?$AA@  004aa3a4     LIBCMT:_libm_error_.obj
 0002:000183a8       ??_C@_08JCCMCCIL@HH?3mm?3ss?$AA@ 004aa3a8     LIBCMT:strftime.obj
 0002:000183b4       ??_C@_0BE@CKGJFCPC@dddd?0?5MMMM?5dd?0?5yyyy?$AA@ 004aa3b4     LIBCMT:strftime.obj
 0002:000183c8       ??_C@_08BPBNCDIB@MM?1dd?1yy?$AA@ 004aa3c8     LIBCMT:strftime.obj
 0002:000183d4       ??_C@_02CJNFDJBF@PM?$AA@   004aa3d4     LIBCMT:strftime.obj
 0002:000183d8       ??_C@_02DEDBPAFC@AM?$AA@   004aa3d8     LIBCMT:strftime.obj
 0002:000183dc       ??_C@_08EDHMEBNP@December?$AA@ 004aa3dc     LIBCMT:strftime.obj
 0002:000183e8       ??_C@_08HCHEGEOA@November?$AA@ 004aa3e8     LIBCMT:strftime.obj
 0002:000183f4       ??_C@_07JJNFCEND@October?$AA@ 004aa3f4     LIBCMT:strftime.obj
 0002:000183fc       ??_C@_09BHHEALKD@September?$AA@ 004aa3fc     LIBCMT:strftime.obj
 0002:00018408       ??_C@_06LBBHFDDG@August?$AA@ 004aa408     LIBCMT:strftime.obj
 0002:00018410       ??_C@_04MIEPOIFP@July?$AA@ 004aa410     LIBCMT:strftime.obj
 0002:00018418       ??_C@_04CNLMGBGM@June?$AA@ 004aa418     LIBCMT:strftime.obj
 0002:00018420       ??_C@_05DMJDNLEJ@April?$AA@ 004aa420     LIBCMT:strftime.obj
 0002:00018428       ??_C@_05HPCKOFNC@March?$AA@ 004aa428     LIBCMT:strftime.obj
 0002:00018430       ??_C@_08GNJGEPFN@February?$AA@ 004aa430     LIBCMT:strftime.obj
 0002:0001843c       ??_C@_07CGJPFGJA@January?$AA@ 004aa43c     LIBCMT:strftime.obj
 0002:00018444       ??_C@_03MKABNOCG@Dec?$AA@  004aa444     LIBCMT:strftime.obj
 0002:00018448       ??_C@_03JPJOFNIA@Nov?$AA@  004aa448     LIBCMT:strftime.obj
 0002:0001844c       ??_C@_03BMAOKBAD@Oct?$AA@  004aa44c     LIBCMT:strftime.obj
 0002:00018450       ??_C@_03GGCAPAJC@Sep?$AA@  004aa450     LIBCMT:strftime.obj
 0002:00018454       ??_C@_03IFJFEIGA@Aug?$AA@  004aa454     LIBCMT:strftime.obj
 0002:00018458       ??_C@_03LBGABGKK@Jul?$AA@  004aa458     LIBCMT:strftime.obj
 0002:0001845c       ??_C@_03IDFGHECI@Jun?$AA@  004aa45c     LIBCMT:strftime.obj
 0002:00018460       ??_C@_03CNMDKL@May?$AA@    004aa460     LIBCMT:strftime.obj
 0002:00018464       ??_C@_03LEOLGMJP@Apr?$AA@  004aa464     LIBCMT:strftime.obj
 0002:00018468       ??_C@_03ODNJBKGA@Mar?$AA@  004aa468     LIBCMT:strftime.obj
 0002:0001846c       ??_C@_03HJBDCHOM@Feb?$AA@  004aa46c     LIBCMT:strftime.obj
 0002:00018470       ??_C@_03JIHJHPIE@Jan?$AA@  004aa470     LIBCMT:strftime.obj
 0002:00018474       ??_C@_08INBOOONO@Saturday?$AA@ 004aa474     LIBCMT:strftime.obj
 0002:00018480       ??_C@_06JECMNKMI@Friday?$AA@ 004aa480     LIBCMT:strftime.obj
 0002:00018488       ??_C@_08HACCIKIA@Thursday?$AA@ 004aa488     LIBCMT:strftime.obj
 0002:00018494       ??_C@_09DLIGFAKA@Wednesday?$AA@ 004aa494     LIBCMT:strftime.obj
 0002:000184a0       ??_C@_07BAAGCFCM@Tuesday?$AA@ 004aa4a0     LIBCMT:strftime.obj
 0002:000184a8       ??_C@_06JLEDEDGH@Monday?$AA@ 004aa4a8     LIBCMT:strftime.obj
 0002:000184b0       ??_C@_06OOPIFAJ@Sunday?$AA@ 004aa4b0     LIBCMT:strftime.obj
 0002:000184b8       ??_C@_03FEFJNEK@Sat?$AA@   004aa4b8     LIBCMT:strftime.obj
 0002:000184bc       ??_C@_03IDIOELNC@Fri?$AA@  004aa4bc     LIBCMT:strftime.obj
 0002:000184c0       ??_C@_03IOFIKPDN@Thu?$AA@  004aa4c0     LIBCMT:strftime.obj
 0002:000184c4       ??_C@_03MHOMLAJA@Wed?$AA@  004aa4c4     LIBCMT:strftime.obj
 0002:000184c8       ??_C@_03NAGEINEP@Tue?$AA@  004aa4c8     LIBCMT:strftime.obj
 0002:000184cc       ??_C@_03PDAGKDH@Mon?$AA@   004aa4cc     LIBCMT:strftime.obj
 0002:000184d0       ??_C@_03KOEHGMDN@Sun?$AA@  004aa4d0     LIBCMT:strftime.obj
 0002:000184d4       ??_C@_0O@FMJNFNKE@united?9states?$AA@ 004aa4d4     LIBCMT:getqloc.obj
 0002:000184e4       ??_C@_0P@NDHFFKCA@united?9kingdom?$AA@ 004aa4e4     LIBCMT:getqloc.obj
 0002:000184f4       ??_C@_0BC@HHDADLGF@trinidad?5?$CG?5tobago?$AA@ 004aa4f4     LIBCMT:getqloc.obj
 0002:00018508       ??_C@_0M@IOAEBDAC@south?9korea?$AA@ 004aa508     LIBCMT:getqloc.obj
 0002:00018514       ??_C@_0N@FIELFKIJ@south?9africa?$AA@ 004aa514     LIBCMT:getqloc.obj
 0002:00018524       ??_C@_0M@OPNDHCMC@south?5korea?$AA@ 004aa524     LIBCMT:getqloc.obj
 0002:00018530       ??_C@_0N@MDEOEPFI@south?5africa?$AA@ 004aa530     LIBCMT:getqloc.obj
 0002:00018540       ??_C@_06FKAPCJLB@slovak?$AA@ 004aa540     LIBCMT:getqloc.obj
 0002:00018548       ??_C@_0M@EFJANOAL@puerto?9rico?$AA@ 004aa548     LIBCMT:getqloc.obj
 0002:00018554       ??_C@_08PGOJKDAI@pr?9china?$AA@ 004aa554     LIBCMT:getqloc.obj
 0002:00018560       ??_C@_08JHDOMCMI@pr?5china?$AA@ 004aa560     LIBCMT:getqloc.obj
 0002:0001856c       ??_C@_02JHCHFBLL@nz?$AA@   004aa56c     LIBCMT:getqloc.obj
 0002:00018570       ??_C@_0M@LINHDHKP@new?9zealand?$AA@ 004aa570     LIBCMT:getqloc.obj
 0002:0001857c       ??_C@_09IIIPPBDB@hong?9kong?$AA@ 004aa57c     LIBCMT:getqloc.obj
 0002:00018588       ??_C@_07HJLCKBG@holland?$AA@ 004aa588     LIBCMT:getqloc.obj
 0002:00018590       ??_C@_0O@LEHGMHAG@great?5britain?$AA@ 004aa590     LIBCMT:getqloc.obj
 0002:000185a0       ??_C@_07FACOMELA@england?$AA@ 004aa5a0     LIBCMT:getqloc.obj
 0002:000185a8       ??_C@_05JIHCEICB@czech?$AA@ 004aa5a8     LIBCMT:getqloc.obj
 0002:000185b0       ??_C@_05BBJOBLGB@china?$AA@ 004aa5b0     LIBCMT:getqloc.obj
 0002:000185b8       ??_C@_07GPKPHICP@britain?$AA@ 004aa5b8     LIBCMT:getqloc.obj
 0002:000185c0       ??_C@_07MHIPBHMG@america?$AA@ 004aa5c0     LIBCMT:getqloc.obj
 0002:000185c8       ??_C@_03KIALPMKC@usa?$AA@  004aa5c8     LIBCMT:getqloc.obj
 0002:000185cc       ??_C@_02FGJGKGGD@us?$AA@   004aa5cc     LIBCMT:getqloc.obj
 0002:000185d0       ??_C@_02NEINDODK@uk?$AA@   004aa5d0     LIBCMT:getqloc.obj
 0002:000185d4       ??_C@_05JMPCFJFJ@swiss?$AA@ 004aa5d4     LIBCMT:getqloc.obj
 0002:000185dc       ??_C@_0BA@HLOCPIOD@swedish?9finland?$AA@ 004aa5dc     LIBCMT:getqloc.obj
 0002:000185ec       ??_C@_0BC@PKCNIABK@spanish?9venezuela?$AA@ 004aa5ec     LIBCMT:getqloc.obj
 0002:00018600       ??_C@_0BA@GBHHMIJI@spanish?9uruguay?$AA@ 004aa600     LIBCMT:getqloc.obj
 0002:00018610       ??_C@_0BE@BHDOHPMC@spanish?9puerto?5rico?$AA@ 004aa610     LIBCMT:getqloc.obj
 0002:00018624       ??_C@_0N@KMOIDGGN@spanish?9peru?$AA@ 004aa624     LIBCMT:getqloc.obj
 0002:00018634       ??_C@_0BB@HMHLPGPH@spanish?9paraguay?$AA@ 004aa634     LIBCMT:getqloc.obj
 0002:00018648       ??_C@_0P@MCPKNGFD@spanish?9panama?$AA@ 004aa648     LIBCMT:getqloc.obj
 0002:00018658       ??_C@_0BC@IHOHGAIL@spanish?9nicaragua?$AA@ 004aa658     LIBCMT:getqloc.obj
 0002:0001866c       ??_C@_0P@KLMJDNFJ@spanish?9modern?$AA@ 004aa66c     LIBCMT:getqloc.obj
 0002:0001867c       ??_C@_0BA@BPAPGBCM@spanish?9mexican?$AA@ 004aa67c     LIBCMT:getqloc.obj
 0002:0001868c       ??_C@_0BB@PDECHHHE@spanish?9honduras?$AA@ 004aa68c     LIBCMT:getqloc.obj
 0002:000186a0       ??_C@_0BC@KLHKFGDB@spanish?9guatemala?$AA@ 004aa6a0     LIBCMT:getqloc.obj
 0002:000186b4       ??_C@_0BE@MFOOKJAI@spanish?9el?5salvador?$AA@ 004aa6b4     LIBCMT:getqloc.obj
 0002:000186c8       ??_C@_0BA@FCOKFPFC@spanish?9ecuador?$AA@ 004aa6c8     LIBCMT:getqloc.obj
 0002:000186d8       ??_C@_0BL@PLMGIMOO@spanish?9dominican?5republic?$AA@ 004aa6d8     LIBCMT:getqloc.obj
 0002:000186f4       ??_C@_0BD@HLGDNMHB@spanish?9costa?5rica?$AA@ 004aa6f4     LIBCMT:getqloc.obj
 0002:00018708       ??_C@_0BB@PKCBKCPE@spanish?9colombia?$AA@ 004aa708     LIBCMT:getqloc.obj
 0002:0001871c       ??_C@_0O@MCBIJGNE@spanish?9chile?$AA@ 004aa71c     LIBCMT:getqloc.obj
 0002:0001872c       ??_C@_0BA@BEFEIGJJ@spanish?9bolivia?$AA@ 004aa72c     LIBCMT:getqloc.obj
 0002:0001873c       ??_C@_0BC@EMECMPD@spanish?9argentina?$AA@ 004aa73c     LIBCMT:getqloc.obj
 0002:00018750       ??_C@_0BF@EALFLENP@portuguese?9brazilian?$AA@ 004aa750     LIBCMT:getqloc.obj
 0002:00018768       ??_C@_0BC@HBLEBLNN@norwegian?9nynorsk?$AA@ 004aa768     LIBCMT:getqloc.obj
 0002:0001877c       ??_C@_0BB@HMACDDCK@norwegian?9bokmal?$AA@ 004aa77c     LIBCMT:getqloc.obj
 0002:00018790       ??_C@_09BAFFPPHE@norwegian?$AA@ 004aa790     LIBCMT:getqloc.obj
 0002:0001879c       ??_C@_0O@EAJFJDFG@italian?9swiss?$AA@ 004aa79c     LIBCMT:getqloc.obj
 0002:000187ac       ??_C@_0O@CNOMPGD@irish?9english?$AA@ 004aa7ac     LIBCMT:getqloc.obj
 0002:000187bc       ??_C@_0N@EDHBGCKG@german?9swiss?$AA@ 004aa7bc     LIBCMT:getqloc.obj
 0002:000187cc       ??_C@_0BC@JACMHNBP@german?9luxembourg?$AA@ 004aa7cc     LIBCMT:getqloc.obj
 0002:000187e0       ??_C@_0BE@HBGMGFEG@german?9lichtenstein?$AA@ 004aa7e0     LIBCMT:getqloc.obj
 0002:000187f4       ??_C@_0BA@HKKBIBKL@german?9austrian?$AA@ 004aa7f4     LIBCMT:getqloc.obj
 0002:00018804       ??_C@_0N@GCAEPEBK@french?9swiss?$AA@ 004aa804     LIBCMT:getqloc.obj
 0002:00018814       ??_C@_0BC@DJFJJCK@french?9luxembourg?$AA@ 004aa814     LIBCMT:getqloc.obj
 0002:00018828       ??_C@_0BA@NNCEDFIC@french?9canadian?$AA@ 004aa828     LIBCMT:getqloc.obj
 0002:00018838       ??_C@_0P@CMPOCLM@french?9belgian?$AA@ 004aa838     LIBCMT:getqloc.obj
 0002:00018848       ??_C@_0M@GHHDJOK@english?9usa?$AA@ 004aa848     LIBCMT:getqloc.obj
 0002:00018854       ??_C@_0L@PLDJKEIL@english?9us?$AA@ 004aa854     LIBCMT:getqloc.obj
 0002:00018860       ??_C@_0L@HJCCDMNC@english?9uk?$AA@ 004aa860     LIBCMT:getqloc.obj
 0002:0001886c       ??_C@_0BK@CKLIAGJB@english?9trinidad?5y?5tobago?$AA@ 004aa86c     LIBCMT:getqloc.obj
 0002:00018888       ??_C@_0BF@JMJMGNNF@english?9south?5africa?$AA@ 004aa888     LIBCMT:getqloc.obj
 0002:000188a0       ??_C@_0L@DKIIFDFD@english?9nz?$AA@ 004aa8a0     LIBCMT:getqloc.obj
 0002:000188ac       ??_C@_0BA@ONHGJCLH@english?9jamaica?$AA@ 004aa8ac     LIBCMT:getqloc.obj
 0002:000188bc       ??_C@_0M@HJBGHOPO@english?9ire?$AA@ 004aa8bc     LIBCMT:getqloc.obj
 0002:000188c8       ??_C@_0BC@LFEKMIFB@english?9caribbean?$AA@ 004aa8c8     LIBCMT:getqloc.obj
 0002:000188dc       ??_C@_0M@OLDPFKHI@english?9can?$AA@ 004aa8dc     LIBCMT:getqloc.obj
 0002:000188e8       ??_C@_0P@OMDEHBMP@english?9belize?$AA@ 004aa8e8     LIBCMT:getqloc.obj
 0002:000188f8       ??_C@_0M@KFHFPFED@english?9aus?$AA@ 004aa8f8     LIBCMT:getqloc.obj
 0002:00018904       ??_C@_0BB@MNMBKDFE@english?9american?$AA@ 004aa904     LIBCMT:getqloc.obj
 0002:00018918       ??_C@_0O@KIDLNNBA@dutch?9belgian?$AA@ 004aa918     LIBCMT:getqloc.obj
 0002:00018928       ??_C@_0BE@JBKABBMH@chinese?9traditional?$AA@ 004aa928     LIBCMT:getqloc.obj
 0002:0001893c       ??_C@_0BC@MJJMPKCG@chinese?9singapore?$AA@ 004aa93c     LIBCMT:getqloc.obj
 0002:00018950       ??_C@_0BD@FDKADDCP@chinese?9simplified?$AA@ 004aa950     LIBCMT:getqloc.obj
 0002:00018964       ??_C@_0BB@DBEFDDME@chinese?9hongkong?$AA@ 004aa964     LIBCMT:getqloc.obj
 0002:00018978       ??_C@_07DHNMFMCI@chinese?$AA@ 004aa978     LIBCMT:getqloc.obj
 0002:00018980       ??_C@_03FNDDCHI@chi?$AA@   004aa980     LIBCMT:getqloc.obj
 0002:00018984       ??_C@_03BMMIADDJ@chh?$AA@  004aa984     LIBCMT:getqloc.obj
 0002:00018988       ??_C@_08OAIPJDGI@canadian?$AA@ 004aa988     LIBCMT:getqloc.obj
 0002:00018994       ??_C@_07HBPMNPNJ@belgian?$AA@ 004aa994     LIBCMT:getqloc.obj
 0002:0001899c       ??_C@_0L@OEKOPBEL@australian?$AA@ 004aa99c     LIBCMT:getqloc.obj
 0002:000189a8       ??_C@_0BB@MEIMBEDG@american?9english?$AA@ 004aa9a8     LIBCMT:getqloc.obj
 0002:000189bc       ??_C@_0BB@DFMDPDGB@american?5english?$AA@ 004aa9bc     LIBCMT:getqloc.obj
 0002:000189d0       ??_C@_08IJLOKOLL@american?$AA@ 004aa9d0     LIBCMT:getqloc.obj
 0002:000189e0       ___rg_language             004aa9e0     LIBCMT:getqloc.obj
 0002:00018be8       ___rg_country              004aabe8     LIBCMT:getqloc.obj
 0002:00018ca0       ___rglangidNotDefault      004aaca0     LIBCMT:getqloc.obj
 0002:00018cb4       ??_C@_03NFKLAGEF@OCP?$AA@  004aacb4     LIBCMT:getqloc.obj
 0002:00018cb8       ??_C@_03DFHEHBHG@ACP?$AA@  004aacb8     LIBCMT:getqloc.obj
 0002:00018cbc       ??_C@_0BC@NFIEMBLL@Norwegian?9Nynorsk?$AA@ 004aacbc     LIBCMT:getqloc.obj
 0002:00018cd0       ??_C@_0BK@CFCOFLF@?5Complete?5Object?5Locator?8?$AA@ 004aacd0     LIBCMT:undname.obj
 0002:00018cec       ??_C@_0BN@MECKDCOJ@?5Class?5Hierarchy?5Descriptor?8?$AA@ 004aacec     LIBCMT:undname.obj
 0002:00018d0c       ??_C@_0BD@LGICGFMM@?5Base?5Class?5Array?8?$AA@ 004aad0c     LIBCMT:undname.obj
 0002:00018d20       ??_C@_0BM@LDKODKLH@?5Base?5Class?5Descriptor?5at?5?$CI?$AA@ 004aad20     LIBCMT:undname.obj
 0002:00018d3c       ??_C@_0BC@DAFEJGAK@?5Type?5Descriptor?8?$AA@ 004aad3c     LIBCMT:undname.obj
 0002:00018d50       ??_C@_0BM@PMGGMLDN@?$GAlocal?5static?5thread?5guard?8?$AA@ 004aad50     LIBCMT:undname.obj
 0002:00018d6c       ??_C@_0CL@FGIJHLCE@?$GAmanaged?5vector?5copy?5constructor@ 004aad6c     LIBCMT:undname.obj
 0002:00018d98       ??_C@_0CJ@GJELGAMM@?$GAvector?5vbase?5copy?5constructor?5i@ 004aad98     LIBCMT:undname.obj
 0002:00018dc4       ??_C@_0CD@CGAJBKEJ@?$GAvector?5copy?5constructor?5iterato@ 004aadc4     LIBCMT:undname.obj
 0002:00018de8       ??_C@_0CB@PDBIFEP@?$GAdynamic?5atexit?5destructor?5for?5?8@ 004aade8     LIBCMT:undname.obj
 0002:00018e0c       ??_C@_0BL@CLIPGLGB@?$GAdynamic?5initializer?5for?5?8?$AA@ 004aae0c     LIBCMT:undname.obj
 0002:00018e28       ??_C@_0CM@FCBBDIGB@?$GAeh?5vector?5vbase?5copy?5constructo@ 004aae28     LIBCMT:undname.obj
 0002:00018e54       ??_C@_0CG@HLDDJMAG@?$GAeh?5vector?5copy?5constructor?5iter@ 004aae54     LIBCMT:undname.obj
 0002:00018e7c       ??_C@_0CF@IMGKMJNO@?$GAmanaged?5vector?5destructor?5itera@ 004aae7c     LIBCMT:undname.obj
 0002:00018ea4       ??_C@_0CG@CFDHKGGD@?$GAmanaged?5vector?5constructor?5iter@ 004aaea4     LIBCMT:undname.obj
 0002:00018ecc       ??_C@_0BN@CKNJLHMB@?$GAplacement?5delete?$FL?$FN?5closure?8?$AA@ 004aaecc     LIBCMT:undname.obj
 0002:00018eec       ??_C@_0BL@CNOONJFP@?$GAplacement?5delete?5closure?8?$AA@ 004aaeec     LIBCMT:undname.obj
 0002:00018f08       ??_C@_0P@HJKNJFNN@?$GAomni?5callsig?8?$AA@ 004aaf08     LIBCMT:undname.obj
 0002:00018f18       ??_C@_09LBNFPBCA@?5delete?$FL?$FN?$AA@ 004aaf18     LIBCMT:undname.obj
 0002:00018f24       ??_C@_06FHBGPFGH@?5new?$FL?$FN?$AA@ 004aaf24     LIBCMT:undname.obj
 0002:00018f2c       ??_C@_0CE@IIHCMGGL@?$GAlocal?5vftable?5constructor?5closu@ 004aaf2c     LIBCMT:undname.obj
 0002:00018f50       ??_C@_0BA@KKLDJDLB@?$GAlocal?5vftable?8?$AA@ 004aaf50     LIBCMT:undname.obj
 0002:00018f60       ??_C@_05KHLCHHI@?$GARTTI?$AA@ 004aaf60     LIBCMT:undname.obj
 0002:00018f68       ??_C@_03KLGMFNMG@?$GAEH?$AA@ 004aaf68     LIBCMT:undname.obj
 0002:00018f6c       ??_C@_0BA@KBCDOMBN@?$GAudt?5returning?8?$AA@ 004aaf6c     LIBCMT:undname.obj
 0002:00018f7c       ??_C@_0BL@LLKPOHJI@?$GAcopy?5constructor?5closure?8?$AA@ 004aaf7c     LIBCMT:undname.obj
 0002:00018f98       ??_C@_0CH@OOJPLCPH@?$GAeh?5vector?5vbase?5constructor?5ite@ 004aaf98     LIBCMT:undname.obj
 0002:00018fc0       ??_C@_0CA@GCEOPDGL@?$GAeh?5vector?5destructor?5iterator?8?$AA@ 004aafc0     LIBCMT:undname.obj
 0002:00018fe0       ??_C@_0CB@JONCMFFK@?$GAeh?5vector?5constructor?5iterator?8@ 004aafe0     LIBCMT:undname.obj
 0002:00019004       ??_C@_0BL@NILFHHPC@?$GAvirtual?5displacement?5map?8?$AA@ 004ab004     LIBCMT:undname.obj
 0002:00019020       ??_C@_0CE@IKBNEHA@?$GAvector?5vbase?5constructor?5iterat@ 004ab020     LIBCMT:undname.obj
 0002:00019044       ??_C@_0BN@LFPFMEDL@?$GAvector?5destructor?5iterator?8?$AA@ 004ab044     LIBCMT:undname.obj
 0002:00019064       ??_C@_0BO@PFGOCPJJ@?$GAvector?5constructor?5iterator?8?$AA@ 004ab064     LIBCMT:undname.obj
 0002:00019084       ??_C@_0BN@IMDCHIKM@?$GAscalar?5deleting?5destructor?8?$AA@ 004ab084     LIBCMT:undname.obj
 0002:000190a4       ??_C@_0BO@OBMKPJIG@?$GAdefault?5constructor?5closure?8?$AA@ 004ab0a4     LIBCMT:undname.obj
 0002:000190c4       ??_C@_0BN@DEGPLNFK@?$GAvector?5deleting?5destructor?8?$AA@ 004ab0c4     LIBCMT:undname.obj
 0002:000190e4       ??_C@_0BD@JDLKDPAB@?$GAvbase?5destructor?8?$AA@ 004ab0e4     LIBCMT:undname.obj
 0002:000190f8       ??_C@_08OBABFOLI@?$GAstring?8?$AA@ 004ab0f8     LIBCMT:undname.obj
 0002:00019104       ??_C@_0BF@KDPPACIK@?$GAlocal?5static?5guard?8?$AA@ 004ab104     LIBCMT:undname.obj
 0002:0001911c       ??_C@_08LLFFHHDJ@?$GAtypeof?8?$AA@ 004ab11c     LIBCMT:undname.obj
 0002:00019128       ??_C@_07FEEIOKP@?$GAvcall?8?$AA@ 004ab128     LIBCMT:undname.obj
 0002:00019130       ??_C@_09BLBHBJP@?$GAvbtable?8?$AA@ 004ab130     LIBCMT:undname.obj
 0002:0001913c       ??_C@_09IFPLHPGF@?$GAvftable?8?$AA@ 004ab13c     LIBCMT:undname.obj
 0002:00019148       ??_C@_02MHEGNOJ@?$FO?$DN?$AA@ 004ab148     LIBCMT:undname.obj
 0002:0001914c       ??_C@_02DHLNPPGH@?$HM?$DN?$AA@ 004ab14c     LIBCMT:undname.obj
 0002:00019150       ??_C@_02FGJGFEAB@?$CG?$DN?$AA@ 004ab150     LIBCMT:undname.obj
 0002:00019154       ??_C@_03CDNPDDLA@?$DM?$DM?$DN?$AA@ 004ab154     LIBCMT:undname.obj
 0002:00019158       ??_C@_03IKFCCPFF@?$DO?$DO?$DN?$AA@ 004ab158     LIBCMT:undname.obj
 0002:0001915c       ??_C@_02FENAOKFI@?$CF?$DN?$AA@ 004ab15c     LIBCMT:undname.obj
 0002:00019160       ??_C@_02FJEHGPIO@?1?$DN?$AA@ 004ab160     LIBCMT:undname.obj
 0002:00019164       ??_C@_02FKMDLLOA@?9?$DN?$AA@ 004ab164     LIBCMT:undname.obj
 0002:00019168       ??_C@_02FOEOMHFC@?$CL?$DN?$AA@ 004ab168     LIBCMT:undname.obj
 0002:0001916c       ??_C@_02FPIMKNGF@?$CK?$DN?$AA@ 004ab16c     LIBCMT:undname.obj
 0002:00019170       ??_C@_02NONPIBCD@?$HM?$HM?$AA@ 004ab170     LIBCMT:undname.obj
 0002:00019174       ??_C@_02PPKAJPJL@?$CG?$CG?$AA@ 004ab174     LIBCMT:undname.obj
 0002:00019178       ??_C@_01DNKMNLPK@?$HM?$AA@ 004ab178     LIBCMT:undname.obj
 0002:0001917c       ??_C@_01JKBOJNNK@?$FO?$AA@ 004ab17c     LIBCMT:undname.obj
 0002:00019180       ??_C@_01PJKLJHI@?$HO?$AA@  004ab180     LIBCMT:undname.obj
 0002:00019184       ??_C@_02HCKGKOFO@?$CI?$CJ?$AA@ 004ab184     LIBCMT:undname.obj
 0002:00019188       ??_C@_01IHBHIGKO@?0?$AA@   004ab188     LIBCMT:undname.obj
 0002:0001918c       ??_C@_02EEKDKGMJ@?$DO?$DN?$AA@ 004ab18c     LIBCMT:undname.obj
 0002:00019190       ??_C@_01PPODPGHN@?$DO?$AA@ 004ab190     LIBCMT:undname.obj
 0002:00019194       ??_C@_02EHCHHCKH@?$DM?$DN?$AA@ 004ab194     LIBCMT:undname.obj
 0002:00019198       ??_C@_01MNNFJEPP@?$DM?$AA@ 004ab198     LIBCMT:undname.obj
 0002:0001919c       ??_C@_01FGNFDNOH@?$CF?$AA@ 004ab19c     LIBCMT:undname.obj
 0002:000191a0       ??_C@_01KMDKNFGN@?1?$AA@   004ab1a0     LIBCMT:undname.obj
 0002:000191a4       ??_C@_03MNHNFDLC@?9?$DO?$CK?$AA@ 004ab1a4     LIBCMT:undname.obj
 0002:000191a8       ??_C@_01HNPIGOCE@?$CG?$AA@ 004ab1a8     LIBCMT:undname.obj
 0002:000191ac       ??_C@_02BAABKJLB@?9?9?$AA@ 004ab1ac     LIBCMT:undname.obj
 0002:000191b0       ??_C@_02ECNGHCIF@?$CL?$CL?$AA@ 004ab1b0     LIBCMT:undname.obj
 0002:000191b4       ??_C@_02HBOOOICD@?9?$DO?$AA@ 004ab1b4     LIBCMT:undname.obj
 0002:000191b8       ??_C@_08LHJFAFGD@operator?$AA@ 004ab1b8     LIBCMT:undname.obj
 0002:000191c4       ??_C@_02GPECMEKF@?$FL?$FN?$AA@ 004ab1c4     LIBCMT:undname.obj
 0002:000191c8       ??_C@_02FDNJECIE@?$CB?$DN?$AA@ 004ab1c8     LIBCMT:undname.obj
 0002:000191cc       ??_C@_02EGOFBIJA@?$DN?$DN?$AA@ 004ab1cc     LIBCMT:undname.obj
 0002:000191d0       ??_C@_01DCLJPIOD@?$CB?$AA@ 004ab1d0     LIBCMT:undname.obj
 0002:000191d4       ??_C@_02FODMEDOG@?$DM?$DM?$AA@ 004ab1d4     LIBCMT:undname.obj
 0002:000191d8       ??_C@_02GPIOPFAK@?$DO?$DO?$AA@ 004ab1d8     LIBCMT:undname.obj
 0002:000191dc       ??_C@_07FPCDHGMM@?5delete?$AA@ 004ab1dc     LIBCMT:undname.obj
 0002:000191e4       ??_C@_04NIHEBCM@?5new?$AA@ 004ab1e4     LIBCMT:undname.obj
 0002:000191ec       ??_C@_0M@GFIIJFMG@__unaligned?$AA@ 004ab1ec     LIBCMT:undname.obj
 0002:000191f8       ??_C@_0L@PILCLIHE@__restrict?$AA@ 004ab1f8     LIBCMT:undname.obj
 0002:00019204       ??_C@_07JOMMBBKO@__ptr64?$AA@ 004ab204     LIBCMT:undname.obj
 0002:0001920c       ??_C@_09HIJEGCPM@__clrcall?$AA@ 004ab20c     LIBCMT:undname.obj
 0002:00019218       ??_C@_0L@JMKHOMEK@__fastcall?$AA@ 004ab218     LIBCMT:undname.obj
 0002:00019224       ??_C@_0L@NPHFGOKO@__thiscall?$AA@ 004ab224     LIBCMT:undname.obj
 0002:00019230       ??_C@_09IFJBGAPI@__stdcall?$AA@ 004ab230     LIBCMT:undname.obj
 0002:0001923c       ??_C@_08GHMPAG@__pascal?$AA@ 004ab23c     LIBCMT:undname.obj
 0002:00019248       ??_C@_07KOLFKCDI@__cdecl?$AA@ 004ab248     LIBCMT:undname.obj
 0002:00019250       ??_C@_08EHJDFFNH@__based?$CI?$AA@ 004ab250     LIBCMT:undname.obj
 0002:000193e0       ??_C@_0BI@DFKBFLJE@GetProcessWindowStation?$AA@ 004ab3e0     LIBCMT:crtmbox.obj
 0002:000193f8       ??_C@_0BK@CIDNPOGP@GetUserObjectInformationA?$AA@ 004ab3f8     LIBCMT:crtmbox.obj
 0002:00019414       ??_C@_0BD@HHGDFDBJ@GetLastActivePopup?$AA@ 004ab414     LIBCMT:crtmbox.obj
 0002:00019428       ??_C@_0BA@HNOPNCHB@GetActiveWindow?$AA@ 004ab428     LIBCMT:crtmbox.obj
 0002:00019438       ??_C@_0M@CHKKJDAI@MessageBoxA?$AA@ 004ab438     LIBCMT:crtmbox.obj
 0002:00019444       ??_C@_0L@NDEGIDAG@USER32?4DLL?$AA@ 004ab444     LIBCMT:crtmbox.obj
 0002:00019450       ___lookuptable_s           004ab450     LIBCMT:outputs.obj
 0002:000194ac       ??_C@_07GPDNMNG@CONOUT$?$AA@ 004ab4ac     LIBCMT:initcon.obj
 0002:000194b4       ??_C@_0L@KDOEJCKC@_nextafter?$AA@ 004ab4b4     LIBCMT:_fpexcept_.obj
 0002:000194c0       ??_C@_05JGDBENOH@_logb?$AA@ 004ab4c0     LIBCMT:_fpexcept_.obj
 0002:000194c8       ??_C@_03ONILCKOB@_yn?$AA@  004ab4c8     LIBCMT:_fpexcept_.obj
 0002:000194cc       ??_C@_03NAKIGLHK@_y1?$AA@  004ab4cc     LIBCMT:_fpexcept_.obj
 0002:000194d0       ??_C@_03MJLDFKDL@_y0?$AA@  004ab4d0     LIBCMT:_fpexcept_.obj
 0002:000194d4       ??_C@_05GKKHEGJL@frexp?$AA@ 004ab4d4     LIBCMT:_fpexcept_.obj
 0002:000194dc       ??_C@_04KEPJIHGP@fmod?$AA@ 004ab4dc     LIBCMT:_fpexcept_.obj
 0002:000194e4       ??_C@_06MEIMCGCF@_hypot?$AA@ 004ab4e4     LIBCMT:_fpexcept_.obj
 0002:000194ec       ??_C@_05KBKMEMPO@_cabs?$AA@ 004ab4ec     LIBCMT:_fpexcept_.obj
 0002:000194f4       ??_C@_05CEJMAHNP@ldexp?$AA@ 004ab4f4     LIBCMT:_fpexcept_.obj
 0002:000194fc       ??_C@_04ODHECPBC@fabs?$AA@ 004ab4fc     LIBCMT:_fpexcept_.obj
 0002:00019504       ??_C@_04EIAKFFMI@sqrt?$AA@ 004ab504     LIBCMT:_fpexcept_.obj
 0002:0001950c       ??_C@_05KNGEOGJB@atan2?$AA@ 004ab50c     LIBCMT:_fpexcept_.obj
 0002:00019514       ??_C@_04FJHINJAO@tanh?$AA@ 004ab514     LIBCMT:_fpexcept_.obj
 0002:0001951c       ??_C@_04HPJJNFIM@cosh?$AA@ 004ab51c     LIBCMT:_fpexcept_.obj
 0002:00019524       ??_C@_04COOMCNPB@sinh?$AA@ 004ab524     LIBCMT:_fpexcept_.obj
 0002:0001952c       ??_C@_02CLFPBFFP@TZ?$AA@   004ab52c     LIBCMT:tzset.obj
 0002:00019530       ___dnames                  004ab530     LIBCMT:timeset.obj
 0002:00019548       ___mnames                  004ab548     LIBCMT:timeset.obj
 0002:00019570       ??_C@_06IMKFLFPG@1?$CDQNAN?$AA@ 004ab570     LIBCMT:_x10fout_.obj
 0002:00019578       ??_C@_05DNEBIAHO@1?$CDINF?$AA@ 004ab578     LIBCMT:_x10fout_.obj
 0002:00019580       ??_C@_05PHHOCPM@1?$CDIND?$AA@ 004ab580     LIBCMT:_x10fout_.obj
 0002:00019588       ??_C@_06PGGFOGJG@1?$CDSNAN?$AA@ 004ab588     LIBCMT:_x10fout_.obj
 0002:00019590       __load_config_used         004ab590     LIBCMT:loadcfg.obj
 0002:000195d8       ??_R4bad_alloc@std@@6B@    004ab5d8     Favorites.obj
 0002:000195ec       ??_R3bad_alloc@std@@8      004ab5ec     Favorites.obj
 0002:000195fc       ??_R2bad_alloc@std@@8      004ab5fc     Favorites.obj
 0002:00019608       ??_R1A@?0A@EA@bad_alloc@std@@8 004ab608     Favorites.obj
 0002:00019624       ??_R1A@?0A@EA@exception@std@@8 004ab624     Favorites.obj
 0002:00019640       ??_R3exception@std@@8      004ab640     Favorites.obj
 0002:00019650       ??_R2exception@std@@8      004ab650     Favorites.obj
 0002:00019658       ??_R4Container@ForEach@CipherShed@@6B@ 004ab658     Favorites.obj
 0002:0001966c       ??_R3Container@ForEach@CipherShed@@8 004ab66c     Favorites.obj
 0002:0001967c       ??_R2Container@ForEach@CipherShed@@8 004ab67c     Favorites.obj
 0002:00019684       ??_R1A@?0A@EA@Container@ForEach@CipherShed@@8 004ab684     Favorites.obj
 0002:000196a0       ??_R4Exception@CipherShed@@6B@ 004ab6a0     Favorites.obj
 0002:000196b4       ??_R3Exception@CipherShed@@8 004ab6b4     Favorites.obj
 0002:000196c4       ??_R2Exception@CipherShed@@8 004ab6c4     Favorites.obj
 0002:000196cc       ??_R1A@?0A@EA@Exception@CipherShed@@8 004ab6cc     Favorites.obj
 0002:000196e8       ??_R4logic_error@std@@6B@  004ab6e8     Favorites.obj
 0002:000196fc       ??_R3logic_error@std@@8    004ab6fc     Favorites.obj
 0002:0001970c       ??_R2logic_error@std@@8    004ab70c     Favorites.obj
 0002:00019718       ??_R1A@?0A@EA@logic_error@std@@8 004ab718     Favorites.obj
 0002:00019734       ??_R4ErrorException@CipherShed@@6B@ 004ab734     Favorites.obj
 0002:00019748       ??_R3ErrorException@CipherShed@@8 004ab748     Favorites.obj
 0002:00019758       ??_R2ErrorException@CipherShed@@8 004ab758     Favorites.obj
 0002:00019764       ??_R1A@?0A@EA@ErrorException@CipherShed@@8 004ab764     Favorites.obj
 0002:00019780       ??_R4length_error@std@@6B@ 004ab780     Favorites.obj
 0002:00019794       ??_R3length_error@std@@8   004ab794     Favorites.obj
 0002:000197a4       ??_R2length_error@std@@8   004ab7a4     Favorites.obj
 0002:000197b4       ??_R1A@?0A@EA@length_error@std@@8 004ab7b4     Favorites.obj
 0002:000197d0       ??_R4?$ContainerForward@V?$vector@UFavoriteVolume@CipherShed@@V?$allocator@UFavoriteVolume@CipherShed@@@std@@@std@@@ForEach@CipherShed@@6B@ 004ab7d0     Favorites.obj
 0002:000197e4       ??_R3?$ContainerForward@V?$vector@UFavoriteVolume@CipherShed@@V?$allocator@UFavoriteVolume@CipherShed@@@std@@@std@@@ForEach@CipherShed@@8 004ab7e4     Favorites.obj
 0002:000197f4       ??_R2?$ContainerForward@V?$vector@UFavoriteVolume@CipherShed@@V?$allocator@UFavoriteVolume@CipherShed@@@std@@@std@@@ForEach@CipherShed@@8 004ab7f4     Favorites.obj
 0002:00019800       ??_R1A@?0A@EA@?$ContainerForward@V?$vector@UFavoriteVolume@CipherShed@@V?$allocator@UFavoriteVolume@CipherShed@@@std@@@std@@@ForEach@CipherShed@@8 004ab800     Favorites.obj
 0002:0001981c       ??_R4?$ContainerForward@V?$list@UFavoriteVolume@CipherShed@@V?$allocator@UFavoriteVolume@CipherShed@@@std@@@std@@@ForEach@CipherShed@@6B@ 004ab81c     Favorites.obj
 0002:00019830       ??_R3?$ContainerForward@V?$list@UFavoriteVolume@CipherShed@@V?$allocator@UFavoriteVolume@CipherShed@@@std@@@std@@@ForEach@CipherShed@@8 004ab830     Favorites.obj
 0002:00019840       ??_R2?$ContainerForward@V?$list@UFavoriteVolume@CipherShed@@V?$allocator@UFavoriteVolume@CipherShed@@@std@@@std@@@ForEach@CipherShed@@8 004ab840     Favorites.obj
 0002:0001984c       ??_R1A@?0A@EA@?$ContainerForward@V?$list@UFavoriteVolume@CipherShed@@V?$allocator@UFavoriteVolume@CipherShed@@@std@@@std@@@ForEach@CipherShed@@8 004ab84c     Favorites.obj
 0002:00019868       ??_R4UserAbort@CipherShed@@6B@ 004ab868     MainCom.obj
 0002:0001987c       ??_R3UserAbort@CipherShed@@8 004ab87c     MainCom.obj
 0002:0001988c       ??_R2UserAbort@CipherShed@@8 004ab88c     MainCom.obj
 0002:00019898       ??_R1A@?0A@EA@UserAbort@CipherShed@@8 004ab898     MainCom.obj
 0002:000198b4       ??_R4?$CipherShedFactory@VCipherShedMainCom@@@@6B@ 004ab8b4     MainCom.obj
 0002:000198c8       ??_R3?$CipherShedFactory@VCipherShedMainCom@@@@8 004ab8c8     MainCom.obj
 0002:000198d8       ??_R2?$CipherShedFactory@VCipherShedMainCom@@@@8 004ab8d8     MainCom.obj
 0002:000198e8       ??_R1A@?0A@EA@?$CipherShedFactory@VCipherShedMainCom@@@@8 004ab8e8     MainCom.obj
 0002:00019904       ??_R1A@?0A@EA@IClassFactory@@8 004ab904     MainCom.obj
 0002:00019920       ??_R3IClassFactory@@8      004ab920     MainCom.obj
 0002:00019930       ??_R2IClassFactory@@8      004ab930     MainCom.obj
 0002:0001993c       ??_R1A@?0A@EA@IUnknown@@8  004ab93c     MainCom.obj
 0002:00019958       ??_R3IUnknown@@8           004ab958     MainCom.obj
 0002:00019968       ??_R2IUnknown@@8           004ab968     MainCom.obj
 0002:00019970       ??_R4CipherShedMainCom@@6B@ 004ab970     MainCom.obj
 0002:00019984       ??_R3CipherShedMainCom@@8  004ab984     MainCom.obj
 0002:00019994       ??_R2CipherShedMainCom@@8  004ab994     MainCom.obj
 0002:000199a4       ??_R1A@?0A@EA@CipherShedMainCom@@8 004ab9a4     MainCom.obj
 0002:000199c0       ??_R1A@?0A@EA@ICipherShedMainCom@@8 004ab9c0     MainCom.obj
 0002:000199dc       ??_R3ICipherShedMainCom@@8 004ab9dc     MainCom.obj
 0002:000199ec       ??_R2ICipherShedMainCom@@8 004ab9ec     MainCom.obj
 0002:000199f8       ??_R4facet@locale@std@@6B@ 004ab9f8     Mount.obj
 0002:00019a0c       ??_R3facet@locale@std@@8   004aba0c     Mount.obj
 0002:00019a1c       ??_R2facet@locale@std@@8   004aba1c     Mount.obj
 0002:00019a24       ??_R1A@?0A@EA@facet@locale@std@@8 004aba24     Mount.obj
 0002:00019a40       ??_R3ctype_base@std@@8     004aba40     Mount.obj
 0002:00019a50       ??_R2ctype_base@std@@8     004aba50     Mount.obj
 0002:00019a5c       ??_R1A@?0A@EA@ctype_base@std@@8 004aba5c     Mount.obj
 0002:00019a78       ??_R4ios_base@std@@6B@     004aba78     Mount.obj
 0002:00019a8c       ??_R3ios_base@std@@8       004aba8c     Mount.obj
 0002:00019a9c       ??_R2ios_base@std@@8       004aba9c     Mount.obj
 0002:00019aa8       ??_R1A@?0A@EA@ios_base@std@@8 004abaa8     Mount.obj
 0002:00019ac4       ??_R13?0A@EA@?$_Iosb@H@std@@8 004abac4     Mount.obj
 0002:00019ae0       ??_R3?$_Iosb@H@std@@8      004abae0     Mount.obj
 0002:00019af0       ??_R2?$_Iosb@H@std@@8      004abaf0     Mount.obj
 0002:00019af8       ??_R1A@?0A@EA@?$_Iosb@H@std@@8 004abaf8     Mount.obj
 0002:00019b14       ??_R4?$basic_ostream@DU?$char_traits@D@std@@@std@@6B@ 004abb14     Mount.obj
 0002:00019b28       ??_R3?$basic_ostream@DU?$char_traits@D@std@@@std@@8 004abb28     Mount.obj
 0002:00019b38       ??_R2?$basic_ostream@DU?$char_traits@D@std@@@std@@8 004abb38     Mount.obj
 0002:00019b4c       ??_R1A@?0A@EA@?$basic_ostream@DU?$char_traits@D@std@@@std@@8 004abb4c     Mount.obj
 0002:00019b68       ??_R1A@A@3FA@?$basic_ios@DU?$char_traits@D@std@@@std@@8 004abb68     Mount.obj
 0002:00019b84       ??_R3?$basic_ios@DU?$char_traits@D@std@@@std@@8 004abb84     Mount.obj
 0002:00019b94       ??_R2?$basic_ios@DU?$char_traits@D@std@@@std@@8 004abb94     Mount.obj
 0002:00019ba4       ??_R1A@?0A@EA@?$basic_ios@DU?$char_traits@D@std@@@std@@8 004abba4     Mount.obj
 0002:00019bc0       ??_R1A@A@3EA@ios_base@std@@8 004abbc0     Mount.obj
 0002:00019bdc       ??_R13A@3EA@?$_Iosb@H@std@@8 004abbdc     Mount.obj
 0002:00019bf8       ??_R4?$basic_istream@DU?$char_traits@D@std@@@std@@6B@ 004abbf8     Mount.obj
 0002:00019c0c       ??_R3?$basic_istream@DU?$char_traits@D@std@@@std@@8 004abc0c     Mount.obj
 0002:00019c1c       ??_R2?$basic_istream@DU?$char_traits@D@std@@@std@@8 004abc1c     Mount.obj
 0002:00019c30       ??_R1A@?0A@EA@?$basic_istream@DU?$char_traits@D@std@@@std@@8 004abc30     Mount.obj
 0002:00019c4c       ??_R4?$basic_iostream@DU?$char_traits@D@std@@@std@@6B@ 004abc4c     Mount.obj
 0002:00019c60       ??_R3?$basic_iostream@DU?$char_traits@D@std@@@std@@8 004abc60     Mount.obj
 0002:00019c70       ??_R2?$basic_iostream@DU?$char_traits@D@std@@@std@@8 004abc70     Mount.obj
 0002:00019c98       ??_R1A@?0A@EA@?$basic_iostream@DU?$char_traits@D@std@@@std@@8 004abc98     Mount.obj
 0002:00019cb4       ??_R17?0A@EA@?$basic_ostream@DU?$char_traits@D@std@@@std@@8 004abcb4     Mount.obj
 0002:00019cd0       ??_R4?$basic_ios@DU?$char_traits@D@std@@@std@@6B@ 004abcd0     Mount.obj
 0002:00019ce4       ??_R4?$ctype@D@std@@6B@    004abce4     Mount.obj
 0002:00019cf8       ??_R3?$ctype@D@std@@8      004abcf8     Mount.obj
 0002:00019d08       ??_R2?$ctype@D@std@@8      004abd08     Mount.obj
 0002:00019d18       ??_R1A@?0A@EA@?$ctype@D@std@@8 004abd18     Mount.obj
 0002:00019d34       ??_R4?$basic_streambuf@DU?$char_traits@D@std@@@std@@6B@ 004abd34     Mount.obj
 0002:00019d48       ??_R3?$basic_streambuf@DU?$char_traits@D@std@@@std@@8 004abd48     Mount.obj
 0002:00019d58       ??_R2?$basic_streambuf@DU?$char_traits@D@std@@@std@@8 004abd58     Mount.obj
 0002:00019d60       ??_R1A@?0A@EA@?$basic_streambuf@DU?$char_traits@D@std@@@std@@8 004abd60     Mount.obj
 0002:00019d7c       ??_R4?$basic_stringbuf@DU?$char_traits@D@std@@V?$allocator@D@2@@std@@6B@ 004abd7c     Mount.obj
 0002:00019d90       ??_R3?$basic_stringbuf@DU?$char_traits@D@std@@V?$allocator@D@2@@std@@8 004abd90     Mount.obj
 0002:00019da0       ??_R2?$basic_stringbuf@DU?$char_traits@D@std@@V?$allocator@D@2@@std@@8 004abda0     Mount.obj
 0002:00019dac       ??_R1A@?0A@EA@?$basic_stringbuf@DU?$char_traits@D@std@@V?$allocator@D@2@@std@@8 004abdac     Mount.obj
 0002:00019dc8       ??_R4?$num_put@DV?$ostreambuf_iterator@DU?$char_traits@D@std@@@std@@@std@@6B@ 004abdc8     Mount.obj
 0002:00019ddc       ??_R3?$num_put@DV?$ostreambuf_iterator@DU?$char_traits@D@std@@@std@@@std@@8 004abddc     Mount.obj
 0002:00019dec       ??_R2?$num_put@DV?$ostreambuf_iterator@DU?$char_traits@D@std@@@std@@@std@@8 004abdec     Mount.obj
 0002:00019df8       ??_R1A@?0A@EA@?$num_put@DV?$ostreambuf_iterator@DU?$char_traits@D@std@@@std@@@std@@8 004abdf8     Mount.obj
 0002:00019e14       ??_R4?$basic_stringstream@DU?$char_traits@D@std@@V?$allocator@D@2@@std@@6B@ 004abe14     Mount.obj
 0002:00019e28       ??_R3?$basic_stringstream@DU?$char_traits@D@std@@V?$allocator@D@2@@std@@8 004abe28     Mount.obj
 0002:00019e38       ??_R2?$basic_stringstream@DU?$char_traits@D@std@@V?$allocator@D@2@@std@@8 004abe38     Mount.obj
 0002:00019e64       ??_R1A@?0A@EA@?$basic_stringstream@DU?$char_traits@D@std@@V?$allocator@D@2@@std@@8 004abe64     Mount.obj
 0002:00019e80       ??_R4?$numpunct@D@std@@6B@ 004abe80     Mount.obj
 0002:00019e94       ??_R3?$numpunct@D@std@@8   004abe94     Mount.obj
 0002:00019ea4       ??_R2?$numpunct@D@std@@8   004abea4     Mount.obj
 0002:00019eb0       ??_R1A@?0A@EA@?$numpunct@D@std@@8 004abeb0     Mount.obj
 0002:00019ecc       ??_R4runtime_error@std@@6B@ 004abecc     Mount.obj
 0002:00019ee0       ??_R3runtime_error@std@@8  004abee0     Mount.obj
 0002:00019ef0       ??_R2runtime_error@std@@8  004abef0     Mount.obj
 0002:00019efc       ??_R1A@?0A@EA@runtime_error@std@@8 004abefc     Mount.obj
 0002:00019f18       ??_R4failure@ios_base@std@@6B@ 004abf18     Mount.obj
 0002:00019f2c       ??_R3failure@ios_base@std@@8 004abf2c     Mount.obj
 0002:00019f3c       ??_R2failure@ios_base@std@@8 004abf3c     Mount.obj
 0002:00019f4c       ??_R1A@?0A@EA@failure@ios_base@std@@8 004abf4c     Mount.obj
 0002:00019f68       ??_R4?$ContainerForward@V?$vector@UHostDevice@@V?$allocator@UHostDevice@@@std@@@std@@@ForEach@CipherShed@@6B@ 004abf68     Mount.obj
 0002:00019f7c       ??_R3?$ContainerForward@V?$vector@UHostDevice@@V?$allocator@UHostDevice@@@std@@@std@@@ForEach@CipherShed@@8 004abf7c     Mount.obj
 0002:00019f8c       ??_R2?$ContainerForward@V?$vector@UHostDevice@@V?$allocator@UHostDevice@@@std@@@std@@@ForEach@CipherShed@@8 004abf8c     Mount.obj
 0002:00019f98       ??_R1A@?0A@EA@?$ContainerForward@V?$vector@UHostDevice@@V?$allocator@UHostDevice@@@std@@@std@@@ForEach@CipherShed@@8 004abf98     Mount.obj
 0002:00019fb4       ??_R4?$ContainerForward@V?$list@V?$basic_string@DU?$char_traits@D@std@@V?$allocator@D@2@@std@@V?$allocator@V?$basic_string@DU?$char_traits@D@std@@V?$allocator@D@2@@std@@@2@@std@@@ForEach@CipherShed@@6B@ 004abfb4     Mount.obj
 0002:00019fc8       ??_R3?$ContainerForward@V?$list@V?$basic_string@DU?$char_traits@D@std@@V?$allocator@D@2@@std@@V?$allocator@V?$basic_string@DU?$char_traits@D@std@@V?$allocator@D@2@@std@@@2@@std@@@ForEach@CipherShed@@8 004abfc8     Mount.obj
 0002:00019fd8       ??_R2?$ContainerForward@V?$list@V?$basic_string@DU?$char_traits@D@std@@V?$allocator@D@2@@std@@V?$allocator@V?$basic_string@DU?$char_traits@D@std@@V?$allocator@D@2@@std@@@2@@std@@@ForEach@CipherShed@@8 004abfd8     Mount.obj
 0002:00019fe4       ??_R1A@?0A@EA@?$ContainerForward@V?$list@V?$basic_string@DU?$char_traits@D@std@@V?$allocator@D@2@@std@@V?$allocator@V?$basic_string@DU?$char_traits@D@std@@V?$allocator@D@2@@std@@@2@@std@@@ForEach@CipherShed@@8 004abfe4     Mount.obj
 0002:0001a000       ??_R4ParameterIncorrect@CipherShed@@6B@ 004ac000     BootEncryption.obj
 0002:0001a014       ??_R3ParameterIncorrect@CipherShed@@8 004ac014     BootEncryption.obj
 0002:0001a024       ??_R2ParameterIncorrect@CipherShed@@8 004ac024     BootEncryption.obj
 0002:0001a030       ??_R1A@?0A@EA@ParameterIncorrect@CipherShed@@8 004ac030     BootEncryption.obj
 0002:0001a04c       ??_R4?$basic_ostream@_WU?$char_traits@_W@std@@@std@@6B@ 004ac04c     BootEncryption.obj
 0002:0001a060       ??_R3?$basic_ostream@_WU?$char_traits@_W@std@@@std@@8 004ac060     BootEncryption.obj
 0002:0001a070       ??_R2?$basic_ostream@_WU?$char_traits@_W@std@@@std@@8 004ac070     BootEncryption.obj
 0002:0001a084       ??_R1A@?0A@EA@?$basic_ostream@_WU?$char_traits@_W@std@@@std@@8 004ac084     BootEncryption.obj
 0002:0001a0a0       ??_R1A@A@3FA@?$basic_ios@_WU?$char_traits@_W@std@@@std@@8 004ac0a0     BootEncryption.obj
 0002:0001a0bc       ??_R3?$basic_ios@_WU?$char_traits@_W@std@@@std@@8 004ac0bc     BootEncryption.obj
 0002:0001a0cc       ??_R2?$basic_ios@_WU?$char_traits@_W@std@@@std@@8 004ac0cc     BootEncryption.obj
 0002:0001a0dc       ??_R1A@?0A@EA@?$basic_ios@_WU?$char_traits@_W@std@@@std@@8 004ac0dc     BootEncryption.obj
 0002:0001a0f8       ??_R4?$basic_istream@_WU?$char_traits@_W@std@@@std@@6B@ 004ac0f8     BootEncryption.obj
 0002:0001a10c       ??_R3?$basic_istream@_WU?$char_traits@_W@std@@@std@@8 004ac10c     BootEncryption.obj
 0002:0001a11c       ??_R2?$basic_istream@_WU?$char_traits@_W@std@@@std@@8 004ac11c     BootEncryption.obj
 0002:0001a130       ??_R1A@?0A@EA@?$basic_istream@_WU?$char_traits@_W@std@@@std@@8 004ac130     BootEncryption.obj
 0002:0001a14c       ??_R4?$basic_iostream@_WU?$char_traits@_W@std@@@std@@6B@ 004ac14c     BootEncryption.obj
 0002:0001a160       ??_R3?$basic_iostream@_WU?$char_traits@_W@std@@@std@@8 004ac160     BootEncryption.obj
 0002:0001a170       ??_R2?$basic_iostream@_WU?$char_traits@_W@std@@@std@@8 004ac170     BootEncryption.obj
 0002:0001a198       ??_R1A@?0A@EA@?$basic_iostream@_WU?$char_traits@_W@std@@@std@@8 004ac198     BootEncryption.obj
 0002:0001a1b4       ??_R17?0A@EA@?$basic_ostream@_WU?$char_traits@_W@std@@@std@@8 004ac1b4     BootEncryption.obj
 0002:0001a1d0       ??_R4?$basic_ios@_WU?$char_traits@_W@std@@@std@@6B@ 004ac1d0     BootEncryption.obj
 0002:0001a1e4       ??_R4?$ctype@_W@std@@6B@   004ac1e4     BootEncryption.obj
 0002:0001a1f8       ??_R3?$ctype@_W@std@@8     004ac1f8     BootEncryption.obj
 0002:0001a208       ??_R2?$ctype@_W@std@@8     004ac208     BootEncryption.obj
 0002:0001a218       ??_R1A@?0A@EA@?$ctype@_W@std@@8 004ac218     BootEncryption.obj
 0002:0001a234       ??_R4SystemException@CipherShed@@6B@ 004ac234     BootEncryption.obj
 0002:0001a248       ??_R3SystemException@CipherShed@@8 004ac248     BootEncryption.obj
 0002:0001a258       ??_R2SystemException@CipherShed@@8 004ac258     BootEncryption.obj
 0002:0001a264       ??_R1A@?0A@EA@SystemException@CipherShed@@8 004ac264     BootEncryption.obj
 0002:0001a280       ??_R4?$basic_streambuf@_WU?$char_traits@_W@std@@@std@@6B@ 004ac280     BootEncryption.obj
 0002:0001a294       ??_R3?$basic_streambuf@_WU?$char_traits@_W@std@@@std@@8 004ac294     BootEncryption.obj
 0002:0001a2a4       ??_R2?$basic_streambuf@_WU?$char_traits@_W@std@@@std@@8 004ac2a4     BootEncryption.obj
 0002:0001a2ac       ??_R1A@?0A@EA@?$basic_streambuf@_WU?$char_traits@_W@std@@@std@@8 004ac2ac     BootEncryption.obj
 0002:0001a2c8       ??_R4?$basic_stringbuf@_WU?$char_traits@_W@std@@V?$allocator@_W@2@@std@@6B@ 004ac2c8     BootEncryption.obj
 0002:0001a2dc       ??_R3?$basic_stringbuf@_WU?$char_traits@_W@std@@V?$allocator@_W@2@@std@@8 004ac2dc     BootEncryption.obj
 0002:0001a2ec       ??_R2?$basic_stringbuf@_WU?$char_traits@_W@std@@V?$allocator@_W@2@@std@@8 004ac2ec     BootEncryption.obj
 0002:0001a2f8       ??_R1A@?0A@EA@?$basic_stringbuf@_WU?$char_traits@_W@std@@V?$allocator@_W@2@@std@@8 004ac2f8     BootEncryption.obj
 0002:0001a314       ??_R4?$basic_stringstream@_WU?$char_traits@_W@std@@V?$allocator@_W@2@@std@@6B@ 004ac314     BootEncryption.obj
 0002:0001a328       ??_R3?$basic_stringstream@_WU?$char_traits@_W@std@@V?$allocator@_W@2@@std@@8 004ac328     BootEncryption.obj
 0002:0001a338       ??_R2?$basic_stringstream@_WU?$char_traits@_W@std@@V?$allocator@_W@2@@std@@8 004ac338     BootEncryption.obj
 0002:0001a364       ??_R1A@?0A@EA@?$basic_stringstream@_WU?$char_traits@_W@std@@V?$allocator@_W@2@@std@@8 004ac364     BootEncryption.obj
 0002:0001a380       ??_R4?$ContainerForward@V?$list@UPartition@CipherShed@@V?$allocator@UPartition@CipherShed@@@std@@@std@@@ForEach@CipherShed@@6B@ 004ac380     BootEncryption.obj
 0002:0001a394       ??_R3?$ContainerForward@V?$list@UPartition@CipherShed@@V?$allocator@UPartition@CipherShed@@@std@@@std@@@ForEach@CipherShed@@8 004ac394     BootEncryption.obj
 0002:0001a3a4       ??_R2?$ContainerForward@V?$list@UPartition@CipherShed@@V?$allocator@UPartition@CipherShed@@@std@@@std@@@ForEach@CipherShed@@8 004ac3a4     BootEncryption.obj
 0002:0001a3b0       ??_R1A@?0A@EA@?$ContainerForward@V?$list@UPartition@CipherShed@@V?$allocator@UPartition@CipherShed@@@std@@@std@@@ForEach@CipherShed@@8 004ac3b0     BootEncryption.obj
 0002:0001a3cc       ??_R4out_of_range@std@@6B@ 004ac3cc     Dictionary.obj
 0002:0001a3e0       ??_R3out_of_range@std@@8   004ac3e0     Dictionary.obj
 0002:0001a3f0       ??_R2out_of_range@std@@8   004ac3f0     Dictionary.obj
 0002:0001a400       ??_R1A@?0A@EA@out_of_range@std@@8 004ac400     Dictionary.obj
 0002:0001a41c       ??_R4GetPinFunctor@CipherShed@@6B@ 004ac41c     Dlgcode.obj
 0002:0001a430       ??_R3GetPinFunctor@CipherShed@@8 004ac430     Dlgcode.obj
 0002:0001a440       ??_R2GetPinFunctor@CipherShed@@8 004ac440     Dlgcode.obj
 0002:0001a448       ??_R1A@?0A@EA@GetPinFunctor@CipherShed@@8 004ac448     Dlgcode.obj
 0002:0001a464       ??_R4SendExceptionFunctor@CipherShed@@6B@ 004ac464     Dlgcode.obj
 0002:0001a478       ??_R3SendExceptionFunctor@CipherShed@@8 004ac478     Dlgcode.obj
 0002:0001a488       ??_R2SendExceptionFunctor@CipherShed@@8 004ac488     Dlgcode.obj
 0002:0001a490       ??_R1A@?0A@EA@SendExceptionFunctor@CipherShed@@8 004ac490     Dlgcode.obj
 0002:0001a4ac       ??_R4PinRequestHandler@?4??InitSecurityTokenLibrary@@9@6B@ 004ac4ac     Dlgcode.obj
 0002:0001a4c0       ??_R3PinRequestHandler@?4?InitSecurityTokenLibrary@8 004ac4c0     Dlgcode.obj
 0002:0001a4d0       ??_R2PinRequestHandler@?4?InitSecurityTokenLibrary@8 004ac4d0     Dlgcode.obj
 0002:0001a4dc       ??_R1A@?0A@EA@PinRequestHandler@?4?InitSecurityTokenLibrary@8 004ac4dc     Dlgcode.obj
 0002:0001a4f8       ??_R4WarningHandler@?5??InitSecurityTokenLibrary@@9@6B@ 004ac4f8     Dlgcode.obj
 0002:0001a50c       ??_R3WarningHandler@?5?InitSecurityTokenLibrary@8 004ac50c     Dlgcode.obj
 0002:0001a51c       ??_R2WarningHandler@?5?InitSecurityTokenLibrary@8 004ac51c     Dlgcode.obj
 0002:0001a528       ??_R1A@?0A@EA@WarningHandler@?5?InitSecurityTokenLibrary@8 004ac528     Dlgcode.obj
 0002:0001a544       ??_R4?$num_put@_WV?$ostreambuf_iterator@_WU?$char_traits@_W@std@@@std@@@std@@6B@ 004ac544     Dlgcode.obj
 0002:0001a558       ??_R3?$num_put@_WV?$ostreambuf_iterator@_WU?$char_traits@_W@std@@@std@@@std@@8 004ac558     Dlgcode.obj
 0002:0001a568       ??_R2?$num_put@_WV?$ostreambuf_iterator@_WU?$char_traits@_W@std@@@std@@@std@@8 004ac568     Dlgcode.obj
 0002:0001a574       ??_R1A@?0A@EA@?$num_put@_WV?$ostreambuf_iterator@_WU?$char_traits@_W@std@@@std@@@std@@8 004ac574     Dlgcode.obj
 0002:0001a590       ??_R4?$numpunct@_W@std@@6B@ 004ac590     Dlgcode.obj
 0002:0001a5a4       ??_R3?$numpunct@_W@std@@8  004ac5a4     Dlgcode.obj
 0002:0001a5b4       ??_R2?$numpunct@_W@std@@8  004ac5b4     Dlgcode.obj
 0002:0001a5c0       ??_R1A@?0A@EA@?$numpunct@_W@std@@8 004ac5c0     Dlgcode.obj
 0002:0001a5dc       ??_R4?$ContainerForward@V?$list@KV?$allocator@K@std@@@std@@@ForEach@CipherShed@@6B@ 004ac5dc     Dlgcode.obj
 0002:0001a5f0       ??_R3?$ContainerForward@V?$list@KV?$allocator@K@std@@@std@@@ForEach@CipherShed@@8 004ac5f0     Dlgcode.obj
 0002:0001a600       ??_R2?$ContainerForward@V?$list@KV?$allocator@K@std@@@std@@@ForEach@CipherShed@@8 004ac600     Dlgcode.obj
 0002:0001a60c       ??_R1A@?0A@EA@?$ContainerForward@V?$list@KV?$allocator@K@std@@@std@@@ForEach@CipherShed@@8 004ac60c     Dlgcode.obj
 0002:0001a628       ??_R4?$ContainerForward@V?$list@USecurityTokenInfo@CipherShed@@V?$allocator@USecurityTokenInfo@CipherShed@@@std@@@std@@@ForEach@CipherShed@@6B@ 004ac628     Dlgcode.obj
 0002:0001a63c       ??_R3?$ContainerForward@V?$list@USecurityTokenInfo@CipherShed@@V?$allocator@USecurityTokenInfo@CipherShed@@@std@@@std@@@ForEach@CipherShed@@8 004ac63c     Dlgcode.obj
 0002:0001a64c       ??_R2?$ContainerForward@V?$list@USecurityTokenInfo@CipherShed@@V?$allocator@USecurityTokenInfo@CipherShed@@@std@@@std@@@ForEach@CipherShed@@8 004ac64c     Dlgcode.obj
 0002:0001a658       ??_R1A@?0A@EA@?$ContainerForward@V?$list@USecurityTokenInfo@CipherShed@@V?$allocator@USecurityTokenInfo@CipherShed@@@std@@@std@@@ForEach@CipherShed@@8 004ac658     Dlgcode.obj
 0002:0001a674       ??_R4?$ContainerForward@V?$vector@USecurityTokenKeyfile@CipherShed@@V?$allocator@USecurityTokenKeyfile@CipherShed@@@std@@@std@@@ForEach@CipherShed@@6B@ 004ac674     Dlgcode.obj
 0002:0001a688       ??_R3?$ContainerForward@V?$vector@USecurityTokenKeyfile@CipherShed@@V?$allocator@USecurityTokenKeyfile@CipherShed@@@std@@@std@@@ForEach@CipherShed@@8 004ac688     Dlgcode.obj
 0002:0001a698       ??_R2?$ContainerForward@V?$vector@USecurityTokenKeyfile@CipherShed@@V?$allocator@USecurityTokenKeyfile@CipherShed@@@std@@@std@@@ForEach@CipherShed@@8 004ac698     Dlgcode.obj
 0002:0001a6a4       ??_R1A@?0A@EA@?$ContainerForward@V?$vector@USecurityTokenKeyfile@CipherShed@@V?$allocator@USecurityTokenKeyfile@CipherShed@@@std@@@std@@@ForEach@CipherShed@@8 004ac6a4     Dlgcode.obj
 0002:0001a6c0       ??_R4?$ContainerForward@V?$list@USecurityTokenKeyfile@CipherShed@@V?$allocator@USecurityTokenKeyfile@CipherShed@@@std@@@std@@@ForEach@CipherShed@@6B@ 004ac6c0     Dlgcode.obj
 0002:0001a6d4       ??_R3?$ContainerForward@V?$list@USecurityTokenKeyfile@CipherShed@@V?$allocator@USecurityTokenKeyfile@CipherShed@@@std@@@std@@@ForEach@CipherShed@@8 004ac6d4     Dlgcode.obj
 0002:0001a6e4       ??_R2?$ContainerForward@V?$list@USecurityTokenKeyfile@CipherShed@@V?$allocator@USecurityTokenKeyfile@CipherShed@@@std@@@std@@@ForEach@CipherShed@@8 004ac6e4     Dlgcode.obj
 0002:0001a6f0       ??_R1A@?0A@EA@?$ContainerForward@V?$list@USecurityTokenKeyfile@CipherShed@@V?$allocator@USecurityTokenKeyfile@CipherShed@@@std@@@std@@@ForEach@CipherShed@@8 004ac6f0     Dlgcode.obj
 0002:0001a70c       ??_R4?$ContainerForward@V?$list@USecurityTokenKeyfilePath@CipherShed@@V?$allocator@USecurityTokenKeyfilePath@CipherShed@@@std@@@std@@@ForEach@CipherShed@@6B@ 004ac70c     Keyfiles.obj
 0002:0001a720       ??_R3?$ContainerForward@V?$list@USecurityTokenKeyfilePath@CipherShed@@V?$allocator@USecurityTokenKeyfilePath@CipherShed@@@std@@@std@@@ForEach@CipherShed@@8 004ac720     Keyfiles.obj
 0002:0001a730       ??_R2?$ContainerForward@V?$list@USecurityTokenKeyfilePath@CipherShed@@V?$allocator@USecurityTokenKeyfilePath@CipherShed@@@std@@@std@@@ForEach@CipherShed@@8 004ac730     Keyfiles.obj
 0002:0001a73c       ??_R1A@?0A@EA@?$ContainerForward@V?$list@USecurityTokenKeyfilePath@CipherShed@@V?$allocator@USecurityTokenKeyfilePath@CipherShed@@@std@@@std@@@ForEach@CipherShed@@8 004ac73c     Keyfiles.obj
 0002:0001a758       ??_R4Pkcs11Exception@CipherShed@@6B@ 004ac758     SecurityToken.obj
 0002:0001a76c       ??_R3Pkcs11Exception@CipherShed@@8 004ac76c     SecurityToken.obj
 0002:0001a77c       ??_R2Pkcs11Exception@CipherShed@@8 004ac77c     SecurityToken.obj
 0002:0001a788       ??_R1A@?0A@EA@Pkcs11Exception@CipherShed@@8 004ac788     SecurityToken.obj
 0002:0001a7a4       ??_R4InvalidSecurityTokenKeyfilePath@CipherShed@@6B@ 004ac7a4     SecurityToken.obj
 0002:0001a7b8       ??_R3InvalidSecurityTokenKeyfilePath@CipherShed@@8 004ac7b8     SecurityToken.obj
 0002:0001a7c8       ??_R2InvalidSecurityTokenKeyfilePath@CipherShed@@8 004ac7c8     SecurityToken.obj
 0002:0001a7d4       ??_R1A@?0A@EA@InvalidSecurityTokenKeyfilePath@CipherShed@@8 004ac7d4     SecurityToken.obj
 0002:0001a7f0       ??_R4SecurityTokenKeyfileNotFound@CipherShed@@6B@ 004ac7f0     SecurityToken.obj
 0002:0001a804       ??_R3SecurityTokenKeyfileNotFound@CipherShed@@8 004ac804     SecurityToken.obj
 0002:0001a814       ??_R2SecurityTokenKeyfileNotFound@CipherShed@@8 004ac814     SecurityToken.obj
 0002:0001a820       ??_R1A@?0A@EA@SecurityTokenKeyfileNotFound@CipherShed@@8 004ac820     SecurityToken.obj
 0002:0001a83c       ??_R4SecurityTokenLibraryNotInitialized@CipherShed@@6B@ 004ac83c     SecurityToken.obj
 0002:0001a850       ??_R3SecurityTokenLibraryNotInitialized@CipherShed@@8 004ac850     SecurityToken.obj
 0002:0001a860       ??_R2SecurityTokenLibraryNotInitialized@CipherShed@@8 004ac860     SecurityToken.obj
 0002:0001a86c       ??_R1A@?0A@EA@SecurityTokenLibraryNotInitialized@CipherShed@@8 004ac86c     SecurityToken.obj
 0002:0001a888       ??_R4SecurityTokenKeyfileAlreadyExists@CipherShed@@6B@ 004ac888     SecurityToken.obj
 0002:0001a89c       ??_R3SecurityTokenKeyfileAlreadyExists@CipherShed@@8 004ac89c     SecurityToken.obj
 0002:0001a8ac       ??_R2SecurityTokenKeyfileAlreadyExists@CipherShed@@8 004ac8ac     SecurityToken.obj
 0002:0001a8b8       ??_R1A@?0A@EA@SecurityTokenKeyfileAlreadyExists@CipherShed@@8 004ac8b8     SecurityToken.obj
 0002:0001a8d4       ??_R4?$ContainerForward@V?$vector@KV?$allocator@K@std@@@std@@@ForEach@CipherShed@@6B@ 004ac8d4     SecurityToken.obj
 0002:0001a8e8       ??_R3?$ContainerForward@V?$vector@KV?$allocator@K@std@@@std@@@ForEach@CipherShed@@8 004ac8e8     SecurityToken.obj
 0002:0001a8f8       ??_R2?$ContainerForward@V?$vector@KV?$allocator@K@std@@@std@@@ForEach@CipherShed@@8 004ac8f8     SecurityToken.obj
 0002:0001a904       ??_R1A@?0A@EA@?$ContainerForward@V?$vector@KV?$allocator@K@std@@@std@@@ForEach@CipherShed@@8 004ac904     SecurityToken.obj
 0002:0001a920       ??_R4?$ContainerForward@V?$map@KUPkcs11Session@CipherShed@@U?$less@K@std@@V?$allocator@U?$pair@$$CBKUPkcs11Session@CipherShed@@@std@@@4@@std@@@ForEach@CipherShed@@6B@ 004ac920     SecurityToken.obj
 0002:0001a934       ??_R3?$ContainerForward@V?$map@KUPkcs11Session@CipherShed@@U?$less@K@std@@V?$allocator@U?$pair@$$CBKUPkcs11Session@CipherShed@@@std@@@4@@std@@@ForEach@CipherShed@@8 004ac934     SecurityToken.obj
 0002:0001a944       ??_R2?$ContainerForward@V?$map@KUPkcs11Session@CipherShed@@U?$less@K@std@@V?$allocator@U?$pair@$$CBKUPkcs11Session@CipherShed@@@std@@@4@@std@@@ForEach@CipherShed@@8 004ac944     SecurityToken.obj
 0002:0001a950       ??_R1A@?0A@EA@?$ContainerForward@V?$map@KUPkcs11Session@CipherShed@@U?$less@K@std@@V?$allocator@U?$pair@$$CBKUPkcs11Session@CipherShed@@@std@@@4@@std@@@ForEach@CipherShed@@8 004ac950     SecurityToken.obj
 0002:0001a96c       ??_R4?$ContainerForward@V?$basic_string@DU?$char_traits@D@std@@V?$allocator@D@2@@std@@@ForEach@CipherShed@@6B@ 004ac96c     csstringutil.obj
 0002:0001a980       ??_R3?$ContainerForward@V?$basic_string@DU?$char_traits@D@std@@V?$allocator@D@2@@std@@@ForEach@CipherShed@@8 004ac980     csstringutil.obj
 0002:0001a990       ??_R2?$ContainerForward@V?$basic_string@DU?$char_traits@D@std@@V?$allocator@D@2@@std@@@ForEach@CipherShed@@8 004ac990     csstringutil.obj
 0002:0001a99c       ??_R1A@?0A@EA@?$ContainerForward@V?$basic_string@DU?$char_traits@D@std@@V?$allocator@D@2@@std@@@ForEach@CipherShed@@8 004ac99c     csstringutil.obj
 0002:0001a9b8       ??_R4_Locimp@locale@std@@6B@ 004ac9b8     libcpmt:locale0.obj
 0002:0001a9cc       ??_R3_Locimp@locale@std@@8 004ac9cc     libcpmt:locale0.obj
 0002:0001a9dc       ??_R2_Locimp@locale@std@@8 004ac9dc     libcpmt:locale0.obj
 0002:0001a9e8       ??_R1A@?0A@EA@_Locimp@locale@std@@8 004ac9e8     libcpmt:locale0.obj
 0002:0001aa04       ??_R4exception@std@@6B@    004aca04     LIBCMT:stdexcpt.obj
 0002:0001aa18       ??_R4bad_cast@std@@6B@     004aca18     LIBCMT:stdexcpt.obj
 0002:0001aa2c       ??_R3bad_cast@std@@8       004aca2c     LIBCMT:stdexcpt.obj
 0002:0001aa3c       ??_R2bad_cast@std@@8       004aca3c     LIBCMT:stdexcpt.obj
 0002:0001aa48       ??_R1A@?0A@EA@bad_cast@std@@8 004aca48     LIBCMT:stdexcpt.obj
 0002:0001aa64       ??_R4type_info@@6B@        004aca64     LIBCMT:typinfo.obj
 0002:0001aa78       ??_R3type_info@@8          004aca78     LIBCMT:typinfo.obj
 0002:0001aa88       ??_R2type_info@@8          004aca88     LIBCMT:typinfo.obj
 0002:0001aa90       ??_R1A@?0A@EA@type_info@@8 004aca90     LIBCMT:typinfo.obj
 0002:0001aaac       ??_R4bad_exception@std@@6B@ 004acaac     LIBCMT:frame.obj
 0002:0001aac0       ??_R3bad_exception@std@@8  004acac0     LIBCMT:frame.obj
 0002:0001aad0       ??_R2bad_exception@std@@8  004acad0     LIBCMT:frame.obj
 0002:0001aadc       ??_R1A@?0A@EA@bad_exception@std@@8 004acadc     LIBCMT:frame.obj
 0002:0001ab00       ___safe_se_handler_table   004acb00     <linker-defined>
 0002:0001aeb8       ___rtc_iaa                 004aceb8     LIBCMT:_initsect_.obj
 0002:0001aebc       ___rtc_izz                 004acebc     LIBCMT:_initsect_.obj
 0002:0001aec0       ___rtc_taa                 004acec0     LIBCMT:_initsect_.obj
 0002:0001aec4       ___rtc_tzz                 004acec4     LIBCMT:_initsect_.obj
 0002:0001aec8       __TI2?AVbad_alloc@std@@    004acec8     Favorites.obj
 0002:0001aed8       __CTA2?AVbad_alloc@std@@   004aced8     Favorites.obj
 0002:0001aee4       __CT??_R0?AVbad_alloc@std@@@8??0bad_alloc@std@@QAE@ABV01@@Z12 004acee4     Favorites.obj
 0002:0001af00       __CT??_R0?AVexception@std@@@8??0exception@std@@QAE@ABV01@@Z12 004acf00     Favorites.obj
 0002:0001b09c       __TI3?AVlength_error@std@@ 004ad09c     Favorites.obj
 0002:0001b0ac       __CTA3?AVlength_error@std@@ 004ad0ac     Favorites.obj
 0002:0001b0bc       __CT??_R0?AVlength_error@std@@@8??0length_error@std@@QAE@ABV01@@Z40 004ad0bc     Favorites.obj
 0002:0001b0d8       __CT??_R0?AVlogic_error@std@@@8??0logic_error@std@@QAE@ABV01@@Z40 004ad0d8     Favorites.obj
 0002:0001b844       __TI2?AUErrorException@CipherShed@@ 004ad844     Favorites.obj
 0002:0001b928       __CTA2?AUErrorException@CipherShed@@ 004ad928     Favorites.obj
 0002:0001b934       __CT??_R0?AUErrorException@CipherShed@@@8??0ErrorException@CipherShed@@QAE@ABU01@@Z36 004ad934     Favorites.obj
 0002:0001b950       __CT??_R0?AUException@CipherShed@@@8??0Exception@CipherShed@@QAE@ABU01@@Z4 004ad950     Favorites.obj
 0002:0001bb0c       __TI1?AVCAtlException@ATL@@ 004adb0c     MainCom.obj
 0002:0001bb1c       __CTA1?AVCAtlException@ATL@@ 004adb1c     MainCom.obj
 0002:0001bb24       __CT??_R0?AVCAtlException@ATL@@@84 004adb24     MainCom.obj
 0002:0001bb40       __TI2?AUUserAbort@CipherShed@@ 004adb40     MainCom.obj
 0002:0001bb50       __CTA2?AUUserAbort@CipherShed@@ 004adb50     MainCom.obj
 0002:0001bb5c       __CT??_R0?AUUserAbort@CipherShed@@@8??0UserAbort@CipherShed@@QAE@ABU01@@Z4 004adb5c     MainCom.obj
 0002:0001c330       __TI2?AVbad_cast@std@@     004ae330     Mount.obj
 0002:0001c340       __CTA2?AVbad_cast@std@@    004ae340     Mount.obj
 0002:0001c34c       __CT??_R0?AVbad_cast@std@@@8??0bad_cast@std@@QAE@ABV01@@Z12 004ae34c     Mount.obj
 0002:0001c3e0       __TI3?AVfailure@ios_base@std@@ 004ae3e0     Mount.obj
 0002:0001c42c       __CTA3?AVfailure@ios_base@std@@ 004ae42c     Mount.obj
 0002:0001c43c       __CT??_R0?AVfailure@ios_base@std@@@8??0failure@ios_base@std@@QAE@ABV012@@Z40 004ae43c     Mount.obj
 0002:0001c458       __CT??_R0?AVruntime_error@std@@@8??0runtime_error@std@@QAE@ABV01@@Z40 004ae458     Mount.obj
 0002:0001d78c       __TI2?AUSystemException@CipherShed@@ 004af78c     BootEncryption.obj
 0002:0001d79c       __CTA2?AUSystemException@CipherShed@@ 004af79c     BootEncryption.obj
 0002:0001d7a8       __CT??_R0?AUSystemException@CipherShed@@@8??0SystemException@CipherShed@@QAE@ABU01@@Z8 004af7a8     BootEncryption.obj
 0002:0001d7c4       __TI2?AUParameterIncorrect@CipherShed@@ 004af7c4     BootEncryption.obj
 0002:0001d7d4       __CTA2?AUParameterIncorrect@CipherShed@@ 004af7d4     BootEncryption.obj
 0002:0001d7e0       __CT??_R0?AUParameterIncorrect@CipherShed@@@8??0ParameterIncorrect@CipherShed@@QAE@ABU01@@Z8 004af7e0     BootEncryption.obj
 0002:0001e730       __TI3?AVout_of_range@std@@ 004b0730     Dictionary.obj
 0002:0001e76c       __CTA3?AVout_of_range@std@@ 004b076c     Dictionary.obj
 0002:0001e77c       __CT??_R0?AVout_of_range@std@@@8??0out_of_range@std@@QAE@ABV01@@Z40 004b077c     Dictionary.obj
 0002:0001fc70       __TI2?AUSecurityTokenLibraryNotInitialized@CipherShed@@ 004b1c70     SecurityToken.obj
 0002:0001fc80       __CTA2?AUSecurityTokenLibraryNotInitialized@CipherShed@@ 004b1c80     SecurityToken.obj
 0002:0001fc8c       __CT??_R0?AUSecurityTokenLibraryNotInitialized@CipherShed@@@8??0SecurityTokenLibraryNotInitialized@CipherShed@@QAE@ABU01@@Z4 004b1c8c     SecurityToken.obj
 0002:0001fd00       __TI2?AUPkcs11Exception@CipherShed@@ 004b1d00     SecurityToken.obj
 0002:0001fd4c       __CTA2?AUPkcs11Exception@CipherShed@@ 004b1d4c     SecurityToken.obj
 0002:0001fd58       __CT??_R0?AUPkcs11Exception@CipherShed@@@8??0Pkcs11Exception@CipherShed@@QAE@ABU01@@Z24 004b1d58     SecurityToken.obj
 0002:00020464       __TI2?AUSecurityTokenKeyfileNotFound@CipherShed@@ 004b2464     SecurityToken.obj
 0002:00020474       __TI2?AUInvalidSecurityTokenKeyfilePath@CipherShed@@ 004b2474     SecurityToken.obj
 0002:000204f0       __CTA2?AUInvalidSecurityTokenKeyfilePath@CipherShed@@ 004b24f0     SecurityToken.obj
 0002:000204fc       __CT??_R0?AUInvalidSecurityTokenKeyfilePath@CipherShed@@@8??0InvalidSecurityTokenKeyfilePath@CipherShed@@QAE@ABU01@@Z4 004b24fc     SecurityToken.obj
 0002:00020518       __CTA2?AUSecurityTokenKeyfileNotFound@CipherShed@@ 004b2518     SecurityToken.obj
 0002:00020524       __CT??_R0?AUSecurityTokenKeyfileNotFound@CipherShed@@@8??0SecurityTokenKeyfileNotFound@CipherShed@@QAE@ABU01@@Z4 004b2524     SecurityToken.obj
 0002:00020540       __TI2?AUSecurityTokenKeyfileAlreadyExists@CipherShed@@ 004b2540     SecurityToken.obj
 0002:0002059c       __CTA2?AUSecurityTokenKeyfileAlreadyExists@CipherShed@@ 004b259c     SecurityToken.obj
 0002:000205a8       __CT??_R0?AUSecurityTokenKeyfileAlreadyExists@CipherShed@@@8??0SecurityTokenKeyfileAlreadyExists@CipherShed@@QAE@ABU01@@Z4 004b25a8     SecurityToken.obj
 0002:00020be4       __TI2?AVbad_exception@std@@ 004b2be4     LIBCMT:frame.obj
 0002:00020bf4       __CTA2?AVbad_exception@std@@ 004b2bf4     LIBCMT:frame.obj
 0002:00020c00       __CT??_R0?AVbad_exception@std@@@8??0bad_exception@std@@QAE@ABV01@@Z12 004b2c00     LIBCMT:frame.obj
 0002:00020fac       __IMPORT_DESCRIPTOR_COMCTL32 004b2fac     comctl32:COMCTL32.dll
 0002:00020fc0       __IMPORT_DESCRIPTOR_SETUPAPI 004b2fc0     setupapi:SETUPAPI.dll
 0002:00020fd4       __IMPORT_DESCRIPTOR_VERSION 004b2fd4     version:VERSION.dll
 0002:00020fe8       __IMPORT_DESCRIPTOR_KERNEL32 004b2fe8     kernel32:KERNEL32.dll
 0002:00020ffc       __IMPORT_DESCRIPTOR_USER32 004b2ffc     user32:USER32.dll
 0002:00021010       __IMPORT_DESCRIPTOR_GDI32  004b3010     gdi32:GDI32.dll
 0002:00021024       __IMPORT_DESCRIPTOR_COMDLG32 004b3024     comdlg32:COMDLG32.dll
 0002:00021038       __IMPORT_DESCRIPTOR_ADVAPI32 004b3038     advapi32:ADVAPI32.dll
 0002:0002104c       __IMPORT_DESCRIPTOR_SHELL32 004b304c     shell32:SHELL32.dll
 0002:00021060       __IMPORT_DESCRIPTOR_ole32  004b3060     ole32:ole32.dll
 0002:00021074       __IMPORT_DESCRIPTOR_OLEAUT32 004b3074     oleaut32:OLEAUT32.dll
 0002:00021088       __NULL_IMPORT_DESCRIPTOR   004b3088     comctl32:COMCTL32.dll
 0003:00000004       ??_R0?AVbad_alloc@std@@@8  004b6004     Favorites.obj
 0003:00000020       ??_R0?AVexception@std@@@8  004b6020     Favorites.obj
 0003:0000003c       ??_R0?AUContainer@ForEach@CipherShed@@@8 004b603c     Favorites.obj
 0003:00000068       ??_R0?AUException@CipherShed@@@8 004b6068     Favorites.obj
 0003:0000008c       ??_R0?AVlogic_error@std@@@8 004b608c     Favorites.obj
 0003:000000ac       ??_R0?AUErrorException@CipherShed@@@8 004b60ac     Favorites.obj
 0003:000000d4       ??_R0?AVlength_error@std@@@8 004b60d4     Favorites.obj
 0003:000000f8       ??_R0?AU?$ContainerForward@V?$vector@UFavoriteVolume@CipherShed@@V?$allocator@UFavoriteVolume@CipherShed@@@std@@@std@@@ForEach@CipherShed@@@8 004b60f8     Favorites.obj
 0003:00000188       ??_R0?AU?$ContainerForward@V?$list@UFavoriteVolume@CipherShed@@V?$allocator@UFavoriteVolume@CipherShed@@@std@@@std@@@ForEach@CipherShed@@@8 004b6188     Favorites.obj
 0003:00000218       ??_R0?AUUserAbort@CipherShed@@@8 004b6218     Favorites.obj
 0003:0000023c       ??_R0?AUSystemException@CipherShed@@@8 004b623c     Favorites.obj
 0003:0000026c       ??_R0?AVCAtlException@ATL@@@8 004b626c     MainCom.obj
 0003:0000028c       ??_R0?AV?$CipherShedFactory@VCipherShedMainCom@@@@@8 004b628c     MainCom.obj
 0003:000002c4       ??_R0?AUIClassFactory@@@8  004b62c4     MainCom.obj
 0003:000002e0       ??_R0?AUIUnknown@@@8       004b62e0     MainCom.obj
 0003:000002f8       ??_R0?AVCipherShedMainCom@@@8 004b62f8     MainCom.obj
 0003:00000318       ??_R0?AUICipherShedMainCom@@@8 004b6318     MainCom.obj
 0003:00000340       ?bUseDifferentTrayIconIfVolMounted@@3HA 004b6340     Mount.obj
 0003:00000344       ?bCloseDismountedWindows@@3HA 004b6344     Mount.obj
