; Listing generated by Microsoft (R) Optimizing Compiler Version 15.00.30729.01 

	TITLE	c:\home\public\Desktop\projects\ciphershed.build\src\Setup\Setup.c
	.686P
	.XMM
	include listing.inc
	.model	flat

INCLUDELIB LIBCMT
INCLUDELIB OLDNAMES

PUBLIC	??_C@_0BC@KMEHMKJJ@truecrypt?9x64?4sys?$AA@	; `string'
PUBLIC	??_C@_0O@OJENBJKN@truecrypt?4sys?$AA@		; `string'
PUBLIC	??_C@_0BG@NHCNJMON@CipherShed?5Format?4exe?$AA@	; `string'
PUBLIC	??_C@_0P@KEOPEMDF@CipherShed?4exe?$AA@		; `string'
PUBLIC	??_C@_0M@HNDLNFKG@License?4txt?$AA@		; `string'
PUBLIC	??_C@_0BK@LMECBCPP@CipherShed?5User?5Guide?4pdf?$AA@ ; `string'
PUBLIC	??_C@_0BG@DJBAHGBG@ACipherShed?9Setup?4exe?$AA@	; `string'
PUBLIC	??_C@_0P@KPKCHNJD@Dtruecrypt?4sys?$AA@		; `string'
PUBLIC	??_C@_0BD@ILLOKAML@Atruecrypt?9x64?4sys?$AA@	; `string'
PUBLIC	??_C@_0P@JMCFMDBI@Atruecrypt?4sys?$AA@		; `string'
PUBLIC	??_C@_0BH@JDBNPKKN@ACipherShed?5Format?4exe?$AA@ ; `string'
PUBLIC	??_C@_0BA@BPJBGDOM@ACipherShed?4exe?$AA@	; `string'
PUBLIC	??_C@_0N@GJIBBNGF@ALicense?4txt?$AA@		; `string'
PUBLIC	??_C@_0BL@MFPLEOCK@ACipherShed?5User?5Guide?4pdf?$AA@ ; `string'
PUBLIC	??_C@_0P@GHFPNOJB@bad?5allocation?$AA@		; `string'
PUBLIC	_SetupFilesDir
PUBLIC	_InstallationPath
PUBLIC	?UninstallBatch@@3PADA				; UninstallBatch
PUBLIC	?UninstallationPath@@3PADA			; UninstallationPath
PUBLIC	?_Value@?$_Is_swap_move@U_Swap_move_tag@std@@@std@@2_NB ; std::_Is_swap_move<std::_Swap_move_tag>::_Value
PUBLIC	?collate@?$_Locbase@H@std@@2HB			; std::_Locbase<int>::collate
PUBLIC	?ctype@?$_Locbase@H@std@@2HB			; std::_Locbase<int>::ctype
PUBLIC	?monetary@?$_Locbase@H@std@@2HB			; std::_Locbase<int>::monetary
PUBLIC	?numeric@?$_Locbase@H@std@@2HB			; std::_Locbase<int>::numeric
PUBLIC	?time@?$_Locbase@H@std@@2HB			; std::_Locbase<int>::time
PUBLIC	?messages@?$_Locbase@H@std@@2HB			; std::_Locbase<int>::messages
PUBLIC	?all@?$_Locbase@H@std@@2HB			; std::_Locbase<int>::all
PUBLIC	?none@?$_Locbase@H@std@@2HB			; std::_Locbase<int>::none
PUBLIC	?table_size@?$ctype@D@std@@2IB			; std::ctype<char>::table_size
PUBLIC	?skipws@?$_Iosb@H@std@@2W4_Fmtflags@12@B	; std::_Iosb<int>::skipws
PUBLIC	?unitbuf@?$_Iosb@H@std@@2W4_Fmtflags@12@B	; std::_Iosb<int>::unitbuf
PUBLIC	?uppercase@?$_Iosb@H@std@@2W4_Fmtflags@12@B	; std::_Iosb<int>::uppercase
PUBLIC	?showbase@?$_Iosb@H@std@@2W4_Fmtflags@12@B	; std::_Iosb<int>::showbase
PUBLIC	?showpoint@?$_Iosb@H@std@@2W4_Fmtflags@12@B	; std::_Iosb<int>::showpoint
PUBLIC	?showpos@?$_Iosb@H@std@@2W4_Fmtflags@12@B	; std::_Iosb<int>::showpos
PUBLIC	?left@?$_Iosb@H@std@@2W4_Fmtflags@12@B		; std::_Iosb<int>::left
PUBLIC	?right@?$_Iosb@H@std@@2W4_Fmtflags@12@B		; std::_Iosb<int>::right
PUBLIC	?internal@?$_Iosb@H@std@@2W4_Fmtflags@12@B	; std::_Iosb<int>::internal
PUBLIC	?dec@?$_Iosb@H@std@@2W4_Fmtflags@12@B		; std::_Iosb<int>::dec
PUBLIC	?oct@?$_Iosb@H@std@@2W4_Fmtflags@12@B		; std::_Iosb<int>::oct
PUBLIC	?hex@?$_Iosb@H@std@@2W4_Fmtflags@12@B		; std::_Iosb<int>::hex
PUBLIC	?scientific@?$_Iosb@H@std@@2W4_Fmtflags@12@B	; std::_Iosb<int>::scientific
PUBLIC	?fixed@?$_Iosb@H@std@@2W4_Fmtflags@12@B		; std::_Iosb<int>::fixed
PUBLIC	?hexfloat@?$_Iosb@H@std@@2W4_Fmtflags@12@B	; std::_Iosb<int>::hexfloat
PUBLIC	?boolalpha@?$_Iosb@H@std@@2W4_Fmtflags@12@B	; std::_Iosb<int>::boolalpha
PUBLIC	?_Stdio@?$_Iosb@H@std@@2W4_Fmtflags@12@B	; std::_Iosb<int>::_Stdio
PUBLIC	?adjustfield@?$_Iosb@H@std@@2W4_Fmtflags@12@B	; std::_Iosb<int>::adjustfield
PUBLIC	?basefield@?$_Iosb@H@std@@2W4_Fmtflags@12@B	; std::_Iosb<int>::basefield
PUBLIC	?floatfield@?$_Iosb@H@std@@2W4_Fmtflags@12@B	; std::_Iosb<int>::floatfield
PUBLIC	?goodbit@?$_Iosb@H@std@@2W4_Iostate@12@B	; std::_Iosb<int>::goodbit
PUBLIC	?eofbit@?$_Iosb@H@std@@2W4_Iostate@12@B		; std::_Iosb<int>::eofbit
PUBLIC	?failbit@?$_Iosb@H@std@@2W4_Iostate@12@B	; std::_Iosb<int>::failbit
PUBLIC	?badbit@?$_Iosb@H@std@@2W4_Iostate@12@B		; std::_Iosb<int>::badbit
PUBLIC	?_Hardfail@?$_Iosb@H@std@@2W4_Iostate@12@B	; std::_Iosb<int>::_Hardfail
PUBLIC	?in@?$_Iosb@H@std@@2W4_Openmode@12@B		; std::_Iosb<int>::in
PUBLIC	?out@?$_Iosb@H@std@@2W4_Openmode@12@B		; std::_Iosb<int>::out
PUBLIC	?ate@?$_Iosb@H@std@@2W4_Openmode@12@B		; std::_Iosb<int>::ate
PUBLIC	?app@?$_Iosb@H@std@@2W4_Openmode@12@B		; std::_Iosb<int>::app
PUBLIC	?trunc@?$_Iosb@H@std@@2W4_Openmode@12@B		; std::_Iosb<int>::trunc
PUBLIC	?_Nocreate@?$_Iosb@H@std@@2W4_Openmode@12@B	; std::_Iosb<int>::_Nocreate
PUBLIC	?_Noreplace@?$_Iosb@H@std@@2W4_Openmode@12@B	; std::_Iosb<int>::_Noreplace
PUBLIC	?binary@?$_Iosb@H@std@@2W4_Openmode@12@B	; std::_Iosb<int>::binary
PUBLIC	?beg@?$_Iosb@H@std@@2W4_Seekdir@12@B		; std::_Iosb<int>::beg
PUBLIC	?cur@?$_Iosb@H@std@@2W4_Seekdir@12@B		; std::_Iosb<int>::cur
PUBLIC	?end@?$_Iosb@H@std@@2W4_Seekdir@12@B		; std::_Iosb<int>::end
PUBLIC	?value@?$integral_constant@_N$0A@@tr1@std@@2_NB	; std::tr1::integral_constant<bool,0>::value
PUBLIC	?value@?$integral_constant@_N$00@tr1@std@@2_NB	; std::tr1::integral_constant<bool,1>::value
PUBLIC	?RescueIsoImageSize@BootEncryption@CipherShed@@1IB ; CipherShed::BootEncryption::RescueIsoImageSize
PUBLIC	?InstalledVersion@@3JA				; InstalledVersion
PUBLIC	?bUninstall@@3HA				; bUninstall
PUBLIC	_bRestartRequired
PUBLIC	?bMakePackage@@3HA				; bMakePackage
PUBLIC	?bDone@@3HA					; bDone
PUBLIC	_Rollback
PUBLIC	_bCipherShedMigration
PUBLIC	_bUpgrade
PUBLIC	?bDowngrade@@3HA				; bDowngrade
PUBLIC	_SystemEncryptionUpdate
PUBLIC	?PortableMode@@3HA				; PortableMode
PUBLIC	_bRepairMode
PUBLIC	?bChangeMode@@3HA				; bChangeMode
PUBLIC	_bDevm
PUBLIC	_bPossiblyFirstTimeInstall
PUBLIC	?bUninstallInProgress@@3HA			; bUninstallInProgress
PUBLIC	?UnloadDriver@@3HA				; UnloadDriver
PUBLIC	_bSystemRestore
PUBLIC	_bDisableSwapFiles
PUBLIC	_bForAllUsers
PUBLIC	_bRegisterFileExt
PUBLIC	_bAddToStartMenu
PUBLIC	_bDesktopIcon
PUBLIC	_bDesktopIconStatusDetermined
PUBLIC	_SystemRestoreDll
PUBLIC	?quiet@@3HA					; quiet
_BSS	SEGMENT
_SetupFilesDir DB 0104H DUP (?)
_InstallationPath DB 0104H DUP (?)
?UninstallBatch@@3PADA DB 0104H DUP (?)			; UninstallBatch
?UninstallationPath@@3PADA DB 0104H DUP (?)		; UninstallationPath
?InstalledVersion@@3JA DD 01H DUP (?)			; InstalledVersion
?bUninstall@@3HA DD 01H DUP (?)				; bUninstall
_bRestartRequired DD 01H DUP (?)
?bMakePackage@@3HA DD 01H DUP (?)			; bMakePackage
?bDone@@3HA DD	01H DUP (?)				; bDone
_Rollback DD	01H DUP (?)
_bCipherShedMigration DD 01H DUP (?)
_bUpgrade DD	01H DUP (?)
?bDowngrade@@3HA DD 01H DUP (?)				; bDowngrade
_SystemEncryptionUpdate DD 01H DUP (?)
?PortableMode@@3HA DD 01H DUP (?)			; PortableMode
_bRepairMode DD	01H DUP (?)
?bChangeMode@@3HA DD 01H DUP (?)			; bChangeMode
_bDevm	DD	01H DUP (?)
_bPossiblyFirstTimeInstall DD 01H DUP (?)
?bUninstallInProgress@@3HA DD 01H DUP (?)		; bUninstallInProgress
_bDisableSwapFiles DD 01H DUP (?)
_bDesktopIconStatusDetermined DD 01H DUP (?)
_SystemRestoreDll DD 01H DUP (?)
?quiet@@3HA DD	01H DUP (?)				; quiet
_BSS	ENDS
;	COMDAT ??_C@_0BC@KMEHMKJJ@truecrypt?9x64?4sys?$AA@
CONST	SEGMENT
??_C@_0BC@KMEHMKJJ@truecrypt?9x64?4sys?$AA@ DB 'truecrypt-x64.sys', 00H ; `string'
CONST	ENDS
;	COMDAT ??_C@_0O@OJENBJKN@truecrypt?4sys?$AA@
CONST	SEGMENT
??_C@_0O@OJENBJKN@truecrypt?4sys?$AA@ DB 'truecrypt.sys', 00H ; `string'
CONST	ENDS
;	COMDAT ??_C@_0BG@NHCNJMON@CipherShed?5Format?4exe?$AA@
CONST	SEGMENT
??_C@_0BG@NHCNJMON@CipherShed?5Format?4exe?$AA@ DB 'CipherShed Format.exe'
	DB	00H						; `string'
CONST	ENDS
;	COMDAT ??_C@_0P@KEOPEMDF@CipherShed?4exe?$AA@
CONST	SEGMENT
??_C@_0P@KEOPEMDF@CipherShed?4exe?$AA@ DB 'CipherShed.exe', 00H ; `string'
CONST	ENDS
;	COMDAT ??_C@_0M@HNDLNFKG@License?4txt?$AA@
CONST	SEGMENT
??_C@_0M@HNDLNFKG@License?4txt?$AA@ DB 'License.txt', 00H ; `string'
CONST	ENDS
;	COMDAT ??_C@_0BK@LMECBCPP@CipherShed?5User?5Guide?4pdf?$AA@
CONST	SEGMENT
??_C@_0BK@LMECBCPP@CipherShed?5User?5Guide?4pdf?$AA@ DB 'CipherShed User '
	DB	'Guide.pdf', 00H				; `string'
CONST	ENDS
;	COMDAT ??_C@_0BG@DJBAHGBG@ACipherShed?9Setup?4exe?$AA@
CONST	SEGMENT
??_C@_0BG@DJBAHGBG@ACipherShed?9Setup?4exe?$AA@ DB 'ACipherShed-Setup.exe'
	DB	00H						; `string'
CONST	ENDS
;	COMDAT ??_C@_0P@KPKCHNJD@Dtruecrypt?4sys?$AA@
CONST	SEGMENT
??_C@_0P@KPKCHNJD@Dtruecrypt?4sys?$AA@ DB 'Dtruecrypt.sys', 00H ; `string'
CONST	ENDS
;	COMDAT ??_C@_0BD@ILLOKAML@Atruecrypt?9x64?4sys?$AA@
CONST	SEGMENT
??_C@_0BD@ILLOKAML@Atruecrypt?9x64?4sys?$AA@ DB 'Atruecrypt-x64.sys', 00H ; `string'
CONST	ENDS
;	COMDAT ??_C@_0P@JMCFMDBI@Atruecrypt?4sys?$AA@
CONST	SEGMENT
??_C@_0P@JMCFMDBI@Atruecrypt?4sys?$AA@ DB 'Atruecrypt.sys', 00H ; `string'
CONST	ENDS
;	COMDAT ??_C@_0BH@JDBNPKKN@ACipherShed?5Format?4exe?$AA@
CONST	SEGMENT
??_C@_0BH@JDBNPKKN@ACipherShed?5Format?4exe?$AA@ DB 'ACipherShed Format.e'
	DB	'xe', 00H					; `string'
CONST	ENDS
;	COMDAT ??_C@_0BA@BPJBGDOM@ACipherShed?4exe?$AA@
CONST	SEGMENT
??_C@_0BA@BPJBGDOM@ACipherShed?4exe?$AA@ DB 'ACipherShed.exe', 00H ; `string'
CONST	ENDS
;	COMDAT ??_C@_0N@GJIBBNGF@ALicense?4txt?$AA@
CONST	SEGMENT
??_C@_0N@GJIBBNGF@ALicense?4txt?$AA@ DB 'ALicense.txt', 00H ; `string'
CONST	ENDS
;	COMDAT ??_C@_0BL@MFPLEOCK@ACipherShed?5User?5Guide?4pdf?$AA@
CONST	SEGMENT
??_C@_0BL@MFPLEOCK@ACipherShed?5User?5Guide?4pdf?$AA@ DB 'ACipherShed Use'
	DB	'r Guide.pdf', 00H				; `string'
CONST	ENDS
;	COMDAT ?RescueIsoImageSize@BootEncryption@CipherShed@@1IB
CONST	SEGMENT
?RescueIsoImageSize@BootEncryption@CipherShed@@1IB DD 01c0000H ; CipherShed::BootEncryption::RescueIsoImageSize
CONST	ENDS
;	COMDAT ?value@?$integral_constant@_N$00@tr1@std@@2_NB
CONST	SEGMENT
?value@?$integral_constant@_N$00@tr1@std@@2_NB DB 01H	; std::tr1::integral_constant<bool,1>::value
CONST	ENDS
;	COMDAT ?value@?$integral_constant@_N$0A@@tr1@std@@2_NB
CONST	SEGMENT
?value@?$integral_constant@_N$0A@@tr1@std@@2_NB DB 00H	; std::tr1::integral_constant<bool,0>::value
CONST	ENDS
;	COMDAT ?end@?$_Iosb@H@std@@2W4_Seekdir@12@B
CONST	SEGMENT
?end@?$_Iosb@H@std@@2W4_Seekdir@12@B DD 02H		; std::_Iosb<int>::end
CONST	ENDS
;	COMDAT ?cur@?$_Iosb@H@std@@2W4_Seekdir@12@B
CONST	SEGMENT
?cur@?$_Iosb@H@std@@2W4_Seekdir@12@B DD 01H		; std::_Iosb<int>::cur
CONST	ENDS
;	COMDAT ?beg@?$_Iosb@H@std@@2W4_Seekdir@12@B
CONST	SEGMENT
?beg@?$_Iosb@H@std@@2W4_Seekdir@12@B DD 00H		; std::_Iosb<int>::beg
CONST	ENDS
;	COMDAT ?binary@?$_Iosb@H@std@@2W4_Openmode@12@B
CONST	SEGMENT
?binary@?$_Iosb@H@std@@2W4_Openmode@12@B DD 020H	; std::_Iosb<int>::binary
CONST	ENDS
;	COMDAT ?_Noreplace@?$_Iosb@H@std@@2W4_Openmode@12@B
CONST	SEGMENT
?_Noreplace@?$_Iosb@H@std@@2W4_Openmode@12@B DD 080H	; std::_Iosb<int>::_Noreplace
CONST	ENDS
;	COMDAT ?_Nocreate@?$_Iosb@H@std@@2W4_Openmode@12@B
CONST	SEGMENT
?_Nocreate@?$_Iosb@H@std@@2W4_Openmode@12@B DD 040H	; std::_Iosb<int>::_Nocreate
CONST	ENDS
;	COMDAT ?trunc@?$_Iosb@H@std@@2W4_Openmode@12@B
CONST	SEGMENT
?trunc@?$_Iosb@H@std@@2W4_Openmode@12@B DD 010H		; std::_Iosb<int>::trunc
CONST	ENDS
;	COMDAT ?app@?$_Iosb@H@std@@2W4_Openmode@12@B
CONST	SEGMENT
?app@?$_Iosb@H@std@@2W4_Openmode@12@B DD 08H		; std::_Iosb<int>::app
CONST	ENDS
;	COMDAT ?ate@?$_Iosb@H@std@@2W4_Openmode@12@B
CONST	SEGMENT
?ate@?$_Iosb@H@std@@2W4_Openmode@12@B DD 04H		; std::_Iosb<int>::ate
CONST	ENDS
;	COMDAT ?out@?$_Iosb@H@std@@2W4_Openmode@12@B
CONST	SEGMENT
?out@?$_Iosb@H@std@@2W4_Openmode@12@B DD 02H		; std::_Iosb<int>::out
CONST	ENDS
;	COMDAT ?in@?$_Iosb@H@std@@2W4_Openmode@12@B
CONST	SEGMENT
?in@?$_Iosb@H@std@@2W4_Openmode@12@B DD 01H		; std::_Iosb<int>::in
CONST	ENDS
;	COMDAT ?_Hardfail@?$_Iosb@H@std@@2W4_Iostate@12@B
CONST	SEGMENT
?_Hardfail@?$_Iosb@H@std@@2W4_Iostate@12@B DD 010H	; std::_Iosb<int>::_Hardfail
CONST	ENDS
;	COMDAT ?badbit@?$_Iosb@H@std@@2W4_Iostate@12@B
CONST	SEGMENT
?badbit@?$_Iosb@H@std@@2W4_Iostate@12@B DD 04H		; std::_Iosb<int>::badbit
CONST	ENDS
;	COMDAT ?failbit@?$_Iosb@H@std@@2W4_Iostate@12@B
CONST	SEGMENT
?failbit@?$_Iosb@H@std@@2W4_Iostate@12@B DD 02H		; std::_Iosb<int>::failbit
CONST	ENDS
;	COMDAT ?eofbit@?$_Iosb@H@std@@2W4_Iostate@12@B
CONST	SEGMENT
?eofbit@?$_Iosb@H@std@@2W4_Iostate@12@B DD 01H		; std::_Iosb<int>::eofbit
CONST	ENDS
;	COMDAT ?goodbit@?$_Iosb@H@std@@2W4_Iostate@12@B
CONST	SEGMENT
?goodbit@?$_Iosb@H@std@@2W4_Iostate@12@B DD 00H		; std::_Iosb<int>::goodbit
CONST	ENDS
;	COMDAT ?floatfield@?$_Iosb@H@std@@2W4_Fmtflags@12@B
CONST	SEGMENT
?floatfield@?$_Iosb@H@std@@2W4_Fmtflags@12@B DD 03000H	; std::_Iosb<int>::floatfield
CONST	ENDS
;	COMDAT ?basefield@?$_Iosb@H@std@@2W4_Fmtflags@12@B
CONST	SEGMENT
?basefield@?$_Iosb@H@std@@2W4_Fmtflags@12@B DD 0e00H	; std::_Iosb<int>::basefield
CONST	ENDS
;	COMDAT ?adjustfield@?$_Iosb@H@std@@2W4_Fmtflags@12@B
CONST	SEGMENT
?adjustfield@?$_Iosb@H@std@@2W4_Fmtflags@12@B DD 01c0H	; std::_Iosb<int>::adjustfield
CONST	ENDS
;	COMDAT ?_Stdio@?$_Iosb@H@std@@2W4_Fmtflags@12@B
CONST	SEGMENT
?_Stdio@?$_Iosb@H@std@@2W4_Fmtflags@12@B DD 08000H	; std::_Iosb<int>::_Stdio
CONST	ENDS
;	COMDAT ?boolalpha@?$_Iosb@H@std@@2W4_Fmtflags@12@B
CONST	SEGMENT
?boolalpha@?$_Iosb@H@std@@2W4_Fmtflags@12@B DD 04000H	; std::_Iosb<int>::boolalpha
CONST	ENDS
;	COMDAT ?hexfloat@?$_Iosb@H@std@@2W4_Fmtflags@12@B
CONST	SEGMENT
?hexfloat@?$_Iosb@H@std@@2W4_Fmtflags@12@B DD 03000H	; std::_Iosb<int>::hexfloat
CONST	ENDS
;	COMDAT ?fixed@?$_Iosb@H@std@@2W4_Fmtflags@12@B
CONST	SEGMENT
?fixed@?$_Iosb@H@std@@2W4_Fmtflags@12@B DD 02000H	; std::_Iosb<int>::fixed
CONST	ENDS
;	COMDAT ?scientific@?$_Iosb@H@std@@2W4_Fmtflags@12@B
CONST	SEGMENT
?scientific@?$_Iosb@H@std@@2W4_Fmtflags@12@B DD 01000H	; std::_Iosb<int>::scientific
CONST	ENDS
;	COMDAT ?hex@?$_Iosb@H@std@@2W4_Fmtflags@12@B
CONST	SEGMENT
?hex@?$_Iosb@H@std@@2W4_Fmtflags@12@B DD 0800H		; std::_Iosb<int>::hex
CONST	ENDS
;	COMDAT ?oct@?$_Iosb@H@std@@2W4_Fmtflags@12@B
CONST	SEGMENT
?oct@?$_Iosb@H@std@@2W4_Fmtflags@12@B DD 0400H		; std::_Iosb<int>::oct
CONST	ENDS
;	COMDAT ?dec@?$_Iosb@H@std@@2W4_Fmtflags@12@B
CONST	SEGMENT
?dec@?$_Iosb@H@std@@2W4_Fmtflags@12@B DD 0200H		; std::_Iosb<int>::dec
CONST	ENDS
;	COMDAT ?internal@?$_Iosb@H@std@@2W4_Fmtflags@12@B
CONST	SEGMENT
?internal@?$_Iosb@H@std@@2W4_Fmtflags@12@B DD 0100H	; std::_Iosb<int>::internal
CONST	ENDS
;	COMDAT ?right@?$_Iosb@H@std@@2W4_Fmtflags@12@B
CONST	SEGMENT
?right@?$_Iosb@H@std@@2W4_Fmtflags@12@B DD 080H		; std::_Iosb<int>::right
CONST	ENDS
;	COMDAT ?left@?$_Iosb@H@std@@2W4_Fmtflags@12@B
CONST	SEGMENT
?left@?$_Iosb@H@std@@2W4_Fmtflags@12@B DD 040H		; std::_Iosb<int>::left
CONST	ENDS
;	COMDAT ?showpos@?$_Iosb@H@std@@2W4_Fmtflags@12@B
CONST	SEGMENT
?showpos@?$_Iosb@H@std@@2W4_Fmtflags@12@B DD 020H	; std::_Iosb<int>::showpos
CONST	ENDS
;	COMDAT ?showpoint@?$_Iosb@H@std@@2W4_Fmtflags@12@B
CONST	SEGMENT
?showpoint@?$_Iosb@H@std@@2W4_Fmtflags@12@B DD 010H	; std::_Iosb<int>::showpoint
CONST	ENDS
;	COMDAT ?showbase@?$_Iosb@H@std@@2W4_Fmtflags@12@B
CONST	SEGMENT
?showbase@?$_Iosb@H@std@@2W4_Fmtflags@12@B DD 08H	; std::_Iosb<int>::showbase
CONST	ENDS
;	COMDAT ?uppercase@?$_Iosb@H@std@@2W4_Fmtflags@12@B
CONST	SEGMENT
?uppercase@?$_Iosb@H@std@@2W4_Fmtflags@12@B DD 04H	; std::_Iosb<int>::uppercase
CONST	ENDS
;	COMDAT ?unitbuf@?$_Iosb@H@std@@2W4_Fmtflags@12@B
CONST	SEGMENT
?unitbuf@?$_Iosb@H@std@@2W4_Fmtflags@12@B DD 02H	; std::_Iosb<int>::unitbuf
CONST	ENDS
;	COMDAT ?skipws@?$_Iosb@H@std@@2W4_Fmtflags@12@B
CONST	SEGMENT
?skipws@?$_Iosb@H@std@@2W4_Fmtflags@12@B DD 01H		; std::_Iosb<int>::skipws
CONST	ENDS
;	COMDAT ?table_size@?$ctype@D@std@@2IB
CONST	SEGMENT
?table_size@?$ctype@D@std@@2IB DD 0100H			; std::ctype<char>::table_size
CONST	ENDS
;	COMDAT ?none@?$_Locbase@H@std@@2HB
CONST	SEGMENT
?none@?$_Locbase@H@std@@2HB DD 00H			; std::_Locbase<int>::none
CONST	ENDS
;	COMDAT ?all@?$_Locbase@H@std@@2HB
CONST	SEGMENT
?all@?$_Locbase@H@std@@2HB DD 03fH			; std::_Locbase<int>::all
CONST	ENDS
;	COMDAT ?messages@?$_Locbase@H@std@@2HB
CONST	SEGMENT
?messages@?$_Locbase@H@std@@2HB DD 020H			; std::_Locbase<int>::messages
CONST	ENDS
;	COMDAT ?time@?$_Locbase@H@std@@2HB
CONST	SEGMENT
?time@?$_Locbase@H@std@@2HB DD 010H			; std::_Locbase<int>::time
CONST	ENDS
;	COMDAT ?numeric@?$_Locbase@H@std@@2HB
CONST	SEGMENT
?numeric@?$_Locbase@H@std@@2HB DD 08H			; std::_Locbase<int>::numeric
CONST	ENDS
;	COMDAT ?monetary@?$_Locbase@H@std@@2HB
CONST	SEGMENT
?monetary@?$_Locbase@H@std@@2HB DD 04H			; std::_Locbase<int>::monetary
CONST	ENDS
;	COMDAT ?ctype@?$_Locbase@H@std@@2HB
CONST	SEGMENT
?ctype@?$_Locbase@H@std@@2HB DD 02H			; std::_Locbase<int>::ctype
CONST	ENDS
;	COMDAT ?collate@?$_Locbase@H@std@@2HB
CONST	SEGMENT
?collate@?$_Locbase@H@std@@2HB DD 01H			; std::_Locbase<int>::collate
CONST	ENDS
;	COMDAT ?_Value@?$_Is_swap_move@U_Swap_move_tag@std@@@std@@2_NB
CONST	SEGMENT
?_Value@?$_Is_swap_move@U_Swap_move_tag@std@@@std@@2_NB DB 01H ; std::_Is_swap_move<std::_Swap_move_tag>::_Value
CONST	ENDS
_DATA	SEGMENT
__bad_alloc_Message DD FLAT:??_C@_0P@GHFPNOJB@bad?5allocation?$AA@
_szFiles DD	FLAT:??_C@_0BL@MFPLEOCK@ACipherShed?5User?5Guide?4pdf?$AA@
	DD	FLAT:??_C@_0N@GJIBBNGF@ALicense?4txt?$AA@
	DD	FLAT:??_C@_0BA@BPJBGDOM@ACipherShed?4exe?$AA@
	DD	FLAT:??_C@_0BH@JDBNPKKN@ACipherShed?5Format?4exe?$AA@
	DD	FLAT:??_C@_0P@JMCFMDBI@Atruecrypt?4sys?$AA@
	DD	FLAT:??_C@_0BD@ILLOKAML@Atruecrypt?9x64?4sys?$AA@
	DD	FLAT:??_C@_0P@KPKCHNJD@Dtruecrypt?4sys?$AA@
	DD	FLAT:??_C@_0BG@DJBAHGBG@ACipherShed?9Setup?4exe?$AA@
_szCompressedFiles DD FLAT:??_C@_0BK@LMECBCPP@CipherShed?5User?5Guide?4pdf?$AA@
	DD	FLAT:??_C@_0M@HNDLNFKG@License?4txt?$AA@
	DD	FLAT:??_C@_0P@KEOPEMDF@CipherShed?4exe?$AA@
	DD	FLAT:??_C@_0BG@NHCNJMON@CipherShed?5Format?4exe?$AA@
	DD	FLAT:??_C@_0O@OJENBJKN@truecrypt?4sys?$AA@
	DD	FLAT:??_C@_0BC@KMEHMKJJ@truecrypt?9x64?4sys?$AA@
?UnloadDriver@@3HA DD 01H				; UnloadDriver
_bSystemRestore DD 01H
_bForAllUsers DD 01H
_bRegisterFileExt DD 01H
_bAddToStartMenu DD 01H
_bDesktopIcon DD 01H
_DATA	ENDS
;	COMDAT ??_C@_0P@GHFPNOJB@bad?5allocation?$AA@
CONST	SEGMENT
??_C@_0P@GHFPNOJB@bad?5allocation?$AA@ DB 'bad allocation', 00H ; `string'
CONST	ENDS
PUBLIC	?strrchr@@YAPADPADH@Z				; strrchr
EXTRN	_strrchr:PROC
; Function compile flags: /Ogtpy
; File c:\program files (x86)\microsoft visual studio 9.0\vc\include\string.h
;	COMDAT ?strrchr@@YAPADPADH@Z
_TEXT	SEGMENT
__Str$ = 8						; size = 4
__Ch$ = 12						; size = 4
?strrchr@@YAPADPADH@Z PROC				; strrchr, COMDAT

; 188  : 	{ return (char*)strrchr((const char*)_Str, _Ch); }

  00000	e9 00 00 00 00	 jmp	 _strrchr
?strrchr@@YAPADPADH@Z ENDP				; strrchr
_TEXT	ENDS
PUBLIC	?strstr@@YAPADPADPBD@Z				; strstr
EXTRN	_strstr:PROC
; Function compile flags: /Ogtpy
;	COMDAT ?strstr@@YAPADPADPBD@Z
_TEXT	SEGMENT
__Str$ = 8						; size = 4
__SubStr$ = 12						; size = 4
?strstr@@YAPADPADPBD@Z PROC				; strstr, COMDAT

; 190  : 	{ return (char*)strstr((const char*)_Str, _SubStr); }

  00000	e9 00 00 00 00	 jmp	 _strstr
?strstr@@YAPADPADPBD@Z ENDP				; strstr
_TEXT	ENDS
PUBLIC	_PropVariantInit
; Function compile flags: /Ogtpy
; File c:\program files\microsoft sdks\windows\v7.1\include\propidl.h
;	COMDAT _PropVariantInit
_TEXT	SEGMENT
_pvar$ = 8						; size = 4
_PropVariantInit PROC					; COMDAT

; 1173 :     memset ( pvar, 0, sizeof(PROPVARIANT) );

  00000	8b 4c 24 04	 mov	 ecx, DWORD PTR _pvar$[esp-4]
  00004	33 c0		 xor	 eax, eax
  00006	89 01		 mov	 DWORD PTR [ecx], eax
  00008	89 41 04	 mov	 DWORD PTR [ecx+4], eax
  0000b	89 41 08	 mov	 DWORD PTR [ecx+8], eax
  0000e	89 41 0c	 mov	 DWORD PTR [ecx+12], eax

; 1174 : }

  00011	c3		 ret	 0
_PropVariantInit ENDP
_TEXT	ENDS
PUBLIC	?swprintf@@YAHPA_WPB_WZZ			; swprintf
EXTRN	__vswprintf:PROC
; Function compile flags: /Ogtpy
; File c:\program files (x86)\microsoft visual studio 9.0\vc\include\swprintf.inl
;	COMDAT ?swprintf@@YAHPA_WPB_WZZ
_TEXT	SEGMENT
__String$ = 8						; size = 4
__Format$ = 12						; size = 4
?swprintf@@YAHPA_WPB_WZZ PROC				; swprintf, COMDAT

; 87   :     va_list _Arglist;
; 88   :     _crt_va_start(_Arglist, _Format);
; 89   :     int _Ret = _vswprintf(_String, _Format, _Arglist);

  00000	8b 4c 24 08	 mov	 ecx, DWORD PTR __Format$[esp-4]
  00004	8b 54 24 04	 mov	 edx, DWORD PTR __String$[esp-4]
  00008	8d 44 24 0c	 lea	 eax, DWORD PTR __Format$[esp]
  0000c	50		 push	 eax
  0000d	51		 push	 ecx
  0000e	52		 push	 edx
  0000f	e8 00 00 00 00	 call	 __vswprintf
  00014	83 c4 0c	 add	 esp, 12			; 0000000cH

; 90   :     _crt_va_end(_Arglist);
; 91   :     return _Ret;
; 92   : }

  00017	c3		 ret	 0
?swprintf@@YAHPA_WPB_WZZ ENDP				; swprintf
_TEXT	ENDS
PUBLIC	?InitPropVariantFromString@@YAJPB_WPAUtagPROPVARIANT@@@Z ; InitPropVariantFromString
EXTRN	__imp__SHStrDupW@8:PROC
; Function compile flags: /Ogtpy
; File c:\program files\microsoft sdks\windows\v7.1\include\propvarutil.h
;	COMDAT ?InitPropVariantFromString@@YAJPB_WPAUtagPROPVARIANT@@@Z
_TEXT	SEGMENT
_psz$ = 8						; size = 4
_ppropvar$ = 12						; size = 4
?InitPropVariantFromString@@YAJPB_WPAUtagPROPVARIANT@@@Z PROC ; InitPropVariantFromString, COMDAT

; 416  :     ppropvar->vt = VT_LPWSTR;
; 417  :     HRESULT hr = SHStrDupW(psz, &ppropvar->pwszVal);

  00000	8b 54 24 04	 mov	 edx, DWORD PTR _psz$[esp-4]
  00004	56		 push	 esi
  00005	8b 74 24 0c	 mov	 esi, DWORD PTR _ppropvar$[esp]
  00009	8d 4e 08	 lea	 ecx, DWORD PTR [esi+8]
  0000c	51		 push	 ecx
  0000d	b8 1f 00 00 00	 mov	 eax, 31			; 0000001fH
  00012	52		 push	 edx
  00013	66 89 06	 mov	 WORD PTR [esi], ax
  00016	ff 15 00 00 00
	00		 call	 DWORD PTR __imp__SHStrDupW@8

; 418  :     if (FAILED(hr))

  0001c	85 c0		 test	 eax, eax
  0001e	7d 0d		 jge	 SHORT $LN4@InitPropVa

; 419  :     {
; 420  :         PropVariantInit(ppropvar);

  00020	33 c9		 xor	 ecx, ecx
  00022	89 0e		 mov	 DWORD PTR [esi], ecx
  00024	89 4e 04	 mov	 DWORD PTR [esi+4], ecx
  00027	89 4e 08	 mov	 DWORD PTR [esi+8], ecx
  0002a	89 4e 0c	 mov	 DWORD PTR [esi+12], ecx
$LN4@InitPropVa:
  0002d	5e		 pop	 esi

; 421  :     }
; 422  :     return hr;
; 423  : }

  0002e	c3		 ret	 0
?InitPropVariantFromString@@YAJPB_WPAUtagPROPVARIANT@@@Z ENDP ; InitPropVariantFromString
_TEXT	ENDS
PUBLIC	??_7bad_alloc@std@@6B@				; std::bad_alloc::`vftable'
PUBLIC	??0bad_alloc@std@@QAE@PBD@Z			; std::bad_alloc::bad_alloc
PUBLIC	??_R4bad_alloc@std@@6B@				; std::bad_alloc::`RTTI Complete Object Locator'
PUBLIC	??_R0?AVbad_alloc@std@@@8			; std::bad_alloc `RTTI Type Descriptor'
PUBLIC	??_R3bad_alloc@std@@8				; std::bad_alloc::`RTTI Class Hierarchy Descriptor'
PUBLIC	??_R2bad_alloc@std@@8				; std::bad_alloc::`RTTI Base Class Array'
PUBLIC	??_R1A@?0A@EA@bad_alloc@std@@8			; std::bad_alloc::`RTTI Base Class Descriptor at (0,-1,0,64)'
PUBLIC	??_R1A@?0A@EA@exception@std@@8			; std::exception::`RTTI Base Class Descriptor at (0,-1,0,64)'
PUBLIC	??_R0?AVexception@std@@@8			; std::exception `RTTI Type Descriptor'
PUBLIC	??_R3exception@std@@8				; std::exception::`RTTI Class Hierarchy Descriptor'
PUBLIC	??_R2exception@std@@8				; std::exception::`RTTI Base Class Array'
EXTRN	??0exception@std@@QAE@ABQBD@Z:PROC		; std::exception::exception
EXTRN	??_7type_info@@6B@:QWORD			; type_info::`vftable'
EXTRN	??_Ebad_alloc@std@@UAEPAXI@Z:PROC		; std::bad_alloc::`vector deleting destructor'
EXTRN	?what@exception@std@@UBEPBDXZ:PROC		; std::exception::what
;	COMDAT ??_R2exception@std@@8
; File c:\program files (x86)\microsoft visual studio 9.0\vc\include\exception
rdata$r	SEGMENT
??_R2exception@std@@8 DD FLAT:??_R1A@?0A@EA@exception@std@@8 ; std::exception::`RTTI Base Class Array'
rdata$r	ENDS
;	COMDAT ??_R3exception@std@@8
rdata$r	SEGMENT
??_R3exception@std@@8 DD 00H				; std::exception::`RTTI Class Hierarchy Descriptor'
	DD	00H
	DD	01H
	DD	FLAT:??_R2exception@std@@8
rdata$r	ENDS
;	COMDAT ??_R0?AVexception@std@@@8
_DATA	SEGMENT
??_R0?AVexception@std@@@8 DD FLAT:??_7type_info@@6B@	; std::exception `RTTI Type Descriptor'
	DD	00H
	DB	'.?AVexception@std@@', 00H
_DATA	ENDS
;	COMDAT ??_R1A@?0A@EA@exception@std@@8
rdata$r	SEGMENT
??_R1A@?0A@EA@exception@std@@8 DD FLAT:??_R0?AVexception@std@@@8 ; std::exception::`RTTI Base Class Descriptor at (0,-1,0,64)'
	DD	00H
	DD	00H
	DD	0ffffffffH
	DD	00H
	DD	040H
	DD	FLAT:??_R3exception@std@@8
rdata$r	ENDS
;	COMDAT ??_R1A@?0A@EA@bad_alloc@std@@8
rdata$r	SEGMENT
??_R1A@?0A@EA@bad_alloc@std@@8 DD FLAT:??_R0?AVbad_alloc@std@@@8 ; std::bad_alloc::`RTTI Base Class Descriptor at (0,-1,0,64)'
	DD	01H
	DD	00H
	DD	0ffffffffH
	DD	00H
	DD	040H
	DD	FLAT:??_R3bad_alloc@std@@8
rdata$r	ENDS
;	COMDAT ??_R2bad_alloc@std@@8
rdata$r	SEGMENT
??_R2bad_alloc@std@@8 DD FLAT:??_R1A@?0A@EA@bad_alloc@std@@8 ; std::bad_alloc::`RTTI Base Class Array'
	DD	FLAT:??_R1A@?0A@EA@exception@std@@8
rdata$r	ENDS
;	COMDAT ??_R3bad_alloc@std@@8
rdata$r	SEGMENT
??_R3bad_alloc@std@@8 DD 00H				; std::bad_alloc::`RTTI Class Hierarchy Descriptor'
	DD	00H
	DD	02H
	DD	FLAT:??_R2bad_alloc@std@@8
rdata$r	ENDS
;	COMDAT ??_R0?AVbad_alloc@std@@@8
_DATA	SEGMENT
??_R0?AVbad_alloc@std@@@8 DD FLAT:??_7type_info@@6B@	; std::bad_alloc `RTTI Type Descriptor'
	DD	00H
	DB	'.?AVbad_alloc@std@@', 00H
_DATA	ENDS
;	COMDAT ??_R4bad_alloc@std@@6B@
rdata$r	SEGMENT
??_R4bad_alloc@std@@6B@ DD 00H				; std::bad_alloc::`RTTI Complete Object Locator'
	DD	00H
	DD	00H
	DD	FLAT:??_R0?AVbad_alloc@std@@@8
	DD	FLAT:??_R3bad_alloc@std@@8
rdata$r	ENDS
;	COMDAT ??_7bad_alloc@std@@6B@
CONST	SEGMENT
??_7bad_alloc@std@@6B@ DD FLAT:??_R4bad_alloc@std@@6B@	; std::bad_alloc::`vftable'
	DD	FLAT:??_Ebad_alloc@std@@UAEPAXI@Z
	DD	FLAT:?what@exception@std@@UBEPBDXZ
; Function compile flags: /Ogtpy
CONST	ENDS
;	COMDAT ??0bad_alloc@std@@QAE@PBD@Z
_TEXT	SEGMENT
__Message$ = 8						; size = 4
??0bad_alloc@std@@QAE@PBD@Z PROC			; std::bad_alloc::bad_alloc, COMDAT
; _this$ = ecx

; 371  : 		{	// construct from message string

  00000	56		 push	 esi
  00001	8d 44 24 08	 lea	 eax, DWORD PTR __Message$[esp]
  00005	50		 push	 eax
  00006	8b f1		 mov	 esi, ecx
  00008	e8 00 00 00 00	 call	 ??0exception@std@@QAE@ABQBD@Z ; std::exception::exception
  0000d	c7 06 00 00 00
	00		 mov	 DWORD PTR [esi], OFFSET ??_7bad_alloc@std@@6B@

; 372  : 		}

  00013	8b c6		 mov	 eax, esi
  00015	5e		 pop	 esi
  00016	c2 04 00	 ret	 4
??0bad_alloc@std@@QAE@PBD@Z ENDP			; std::bad_alloc::bad_alloc
_TEXT	ENDS
PUBLIC	??1bad_alloc@std@@UAE@XZ			; std::bad_alloc::~bad_alloc
EXTRN	??1exception@std@@UAE@XZ:PROC			; std::exception::~exception
; Function compile flags: /Ogtpy
;	COMDAT ??1bad_alloc@std@@UAE@XZ
_TEXT	SEGMENT
??1bad_alloc@std@@UAE@XZ PROC				; std::bad_alloc::~bad_alloc, COMDAT
; _this$ = ecx

; 380  : 		{	// destroy the object

  00000	c7 01 00 00 00
	00		 mov	 DWORD PTR [ecx], OFFSET ??_7bad_alloc@std@@6B@

; 381  : 		}

  00006	e9 00 00 00 00	 jmp	 ??1exception@std@@UAE@XZ ; std::exception::~exception
??1bad_alloc@std@@UAE@XZ ENDP				; std::bad_alloc::~bad_alloc
_TEXT	ENDS
EXTRN	??3@YAXPAX@Z:PROC				; operator delete
; Function compile flags: /Ogtpy
;	COMDAT ??_Gbad_alloc@std@@UAEPAXI@Z
_TEXT	SEGMENT
___flags$ = 8						; size = 4
??_Gbad_alloc@std@@UAEPAXI@Z PROC			; std::bad_alloc::`scalar deleting destructor', COMDAT
; _this$ = ecx
  00000	56		 push	 esi
  00001	8b f1		 mov	 esi, ecx
  00003	c7 06 00 00 00
	00		 mov	 DWORD PTR [esi], OFFSET ??_7bad_alloc@std@@6B@
  00009	e8 00 00 00 00	 call	 ??1exception@std@@UAE@XZ ; std::exception::~exception
  0000e	f6 44 24 08 01	 test	 BYTE PTR ___flags$[esp], 1
  00013	74 09		 je	 SHORT $LN6@scalar
  00015	56		 push	 esi
  00016	e8 00 00 00 00	 call	 ??3@YAXPAX@Z		; operator delete
  0001b	83 c4 04	 add	 esp, 4
$LN6@scalar:
  0001e	8b c6		 mov	 eax, esi
  00020	5e		 pop	 esi
  00021	c2 04 00	 ret	 4
??_Gbad_alloc@std@@UAEPAXI@Z ENDP			; std::bad_alloc::`scalar deleting destructor'
_TEXT	ENDS
PUBLIC	?assign@?$char_traits@D@std@@SAXAADABD@Z	; std::char_traits<char>::assign
; Function compile flags: /Ogtpy
; File c:\program files (x86)\microsoft visual studio 9.0\vc\include\iosfwd
;	COMDAT ?assign@?$char_traits@D@std@@SAXAADABD@Z
_TEXT	SEGMENT
__Left$ = 8						; size = 4
__Right$ = 12						; size = 4
?assign@?$char_traits@D@std@@SAXAADABD@Z PROC		; std::char_traits<char>::assign, COMDAT

; 425  : 		_Left = _Right;

  00000	8b 44 24 08	 mov	 eax, DWORD PTR __Right$[esp-4]
  00004	8a 08		 mov	 cl, BYTE PTR [eax]
  00006	8b 54 24 04	 mov	 edx, DWORD PTR __Left$[esp-4]
  0000a	88 0a		 mov	 BYTE PTR [edx], cl

; 426  : 		}

  0000c	c3		 ret	 0
?assign@?$char_traits@D@std@@SAXAADABD@Z ENDP		; std::char_traits<char>::assign
_TEXT	ENDS
PUBLIC	?compare@?$char_traits@D@std@@SAHPBD0I@Z	; std::char_traits<char>::compare
; Function compile flags: /Ogtpy
;	COMDAT ?compare@?$char_traits@D@std@@SAHPBD0I@Z
_TEXT	SEGMENT
__First1$ = 8						; size = 4
__First2$ = 12						; size = 4
__Count$ = 16						; size = 4
?compare@?$char_traits@D@std@@SAHPBD0I@Z PROC		; std::char_traits<char>::compare, COMDAT

; 441  : //		_DEBUG_POINTER(_First1);
; 442  : //		_DEBUG_POINTER(_First2);
; 443  : 		return (::memcmp(_First1, _First2, _Count));

  00000	8b 4c 24 08	 mov	 ecx, DWORD PTR __First2$[esp-4]
  00004	8b 54 24 04	 mov	 edx, DWORD PTR __First1$[esp-4]
  00008	56		 push	 esi
  00009	8b 74 24 10	 mov	 esi, DWORD PTR __Count$[esp]
  0000d	57		 push	 edi
  0000e	83 fe 04	 cmp	 esi, 4
  00011	72 14		 jb	 SHORT $LN11@compare
$LL4@compare:
  00013	8b 02		 mov	 eax, DWORD PTR [edx]
  00015	3b 01		 cmp	 eax, DWORD PTR [ecx]
  00017	75 12		 jne	 SHORT $LN5@compare
  00019	83 ee 04	 sub	 esi, 4
  0001c	83 c1 04	 add	 ecx, 4
  0001f	83 c2 04	 add	 edx, 4
  00022	83 fe 04	 cmp	 esi, 4
  00025	73 ec		 jae	 SHORT $LL4@compare
$LN11@compare:
  00027	85 f6		 test	 esi, esi
  00029	74 44		 je	 SHORT $LN6@compare
$LN5@compare:
  0002b	0f b6 02	 movzx	 eax, BYTE PTR [edx]
  0002e	0f b6 39	 movzx	 edi, BYTE PTR [ecx]
  00031	2b c7		 sub	 eax, edi
  00033	75 31		 jne	 SHORT $LN7@compare
  00035	83 fe 01	 cmp	 esi, 1
  00038	76 35		 jbe	 SHORT $LN6@compare
  0003a	0f b6 42 01	 movzx	 eax, BYTE PTR [edx+1]
  0003e	0f b6 79 01	 movzx	 edi, BYTE PTR [ecx+1]
  00042	2b c7		 sub	 eax, edi
  00044	75 20		 jne	 SHORT $LN7@compare
  00046	83 fe 02	 cmp	 esi, 2
  00049	76 24		 jbe	 SHORT $LN6@compare
  0004b	0f b6 42 02	 movzx	 eax, BYTE PTR [edx+2]
  0004f	0f b6 79 02	 movzx	 edi, BYTE PTR [ecx+2]
  00053	2b c7		 sub	 eax, edi
  00055	75 0f		 jne	 SHORT $LN7@compare
  00057	83 fe 03	 cmp	 esi, 3
  0005a	76 13		 jbe	 SHORT $LN6@compare
  0005c	0f b6 42 03	 movzx	 eax, BYTE PTR [edx+3]
  00060	0f b6 49 03	 movzx	 ecx, BYTE PTR [ecx+3]
  00064	2b c1		 sub	 eax, ecx
$LN7@compare:
  00066	c1 f8 1f	 sar	 eax, 31			; 0000001fH
  00069	5f		 pop	 edi
  0006a	83 c8 01	 or	 eax, 1
  0006d	5e		 pop	 esi

; 444  : 		}

  0006e	c3		 ret	 0
$LN6@compare:
  0006f	5f		 pop	 edi

; 441  : //		_DEBUG_POINTER(_First1);
; 442  : //		_DEBUG_POINTER(_First2);
; 443  : 		return (::memcmp(_First1, _First2, _Count));

  00070	33 c0		 xor	 eax, eax
  00072	5e		 pop	 esi

; 444  : 		}

  00073	c3		 ret	 0
?compare@?$char_traits@D@std@@SAHPBD0I@Z ENDP		; std::char_traits<char>::compare
_TEXT	ENDS
PUBLIC	?length@?$char_traits@D@std@@SAIPBD@Z		; std::char_traits<char>::length
; Function compile flags: /Ogtpy
;	COMDAT ?length@?$char_traits@D@std@@SAIPBD@Z
_TEXT	SEGMENT
__First$ = 8						; size = 4
?length@?$char_traits@D@std@@SAIPBD@Z PROC		; std::char_traits<char>::length, COMDAT

; 448  : //		_DEBUG_POINTER(_First);
; 449  : 		return (::strlen(_First));

  00000	8b 44 24 04	 mov	 eax, DWORD PTR __First$[esp-4]
  00004	8d 50 01	 lea	 edx, DWORD PTR [eax+1]
$LL3@length:
  00007	8a 08		 mov	 cl, BYTE PTR [eax]
  00009	40		 inc	 eax
  0000a	84 c9		 test	 cl, cl
  0000c	75 f9		 jne	 SHORT $LL3@length
  0000e	2b c2		 sub	 eax, edx

; 450  : 		}

  00010	c3		 ret	 0
?length@?$char_traits@D@std@@SAIPBD@Z ENDP		; std::char_traits<char>::length
_TEXT	ENDS
PUBLIC	?_Copy_s@?$char_traits@D@std@@SAPADPADIPBDI@Z	; std::char_traits<char>::_Copy_s
EXTRN	_memcpy_s:PROC
; Function compile flags: /Ogtpy
;	COMDAT ?_Copy_s@?$char_traits@D@std@@SAPADPADIPBDI@Z
_TEXT	SEGMENT
__First1$ = 8						; size = 4
__Size_in_bytes$ = 12					; size = 4
__First2$ = 16						; size = 4
__Count$ = 20						; size = 4
?_Copy_s@?$char_traits@D@std@@SAPADPADIPBDI@Z PROC	; std::char_traits<char>::_Copy_s, COMDAT

; 463  : //		_DEBUG_POINTER(_First1);
; 464  : //		_DEBUG_POINTER(_First2);
; 465  : 		_CRT_SECURE_MEMCPY(_First1, _Size_in_bytes, _First2, _Count);

  00000	8b 44 24 10	 mov	 eax, DWORD PTR __Count$[esp-4]
  00004	8b 4c 24 0c	 mov	 ecx, DWORD PTR __First2$[esp-4]
  00008	8b 54 24 08	 mov	 edx, DWORD PTR __Size_in_bytes$[esp-4]
  0000c	56		 push	 esi
  0000d	8b 74 24 08	 mov	 esi, DWORD PTR __First1$[esp]
  00011	50		 push	 eax
  00012	51		 push	 ecx
  00013	52		 push	 edx
  00014	56		 push	 esi
  00015	e8 00 00 00 00	 call	 _memcpy_s
  0001a	83 c4 10	 add	 esp, 16			; 00000010H

; 466  : 		return _First1;

  0001d	8b c6		 mov	 eax, esi
  0001f	5e		 pop	 esi

; 467  : 		}

  00020	c3		 ret	 0
?_Copy_s@?$char_traits@D@std@@SAPADPADIPBDI@Z ENDP	; std::char_traits<char>::_Copy_s
_TEXT	ENDS
PUBLIC	?find@?$char_traits@D@std@@SAPBDPBDIABD@Z	; std::char_traits<char>::find
EXTRN	_memchr:PROC
; Function compile flags: /Ogtpy
;	COMDAT ?find@?$char_traits@D@std@@SAPBDPBDIABD@Z
_TEXT	SEGMENT
__First$ = 8						; size = 4
__Count$ = 12						; size = 4
__Ch$ = 16						; size = 4
?find@?$char_traits@D@std@@SAPBDPBDIABD@Z PROC		; std::char_traits<char>::find, COMDAT

; 472  : //		_DEBUG_POINTER(_First);
; 473  : 		return ((const _Elem *)::memchr(_First, _Ch, _Count));

  00000	8b 4c 24 0c	 mov	 ecx, DWORD PTR __Ch$[esp-4]
  00004	8b 44 24 08	 mov	 eax, DWORD PTR __Count$[esp-4]
  00008	0f be 11	 movsx	 edx, BYTE PTR [ecx]
  0000b	50		 push	 eax
  0000c	8b 44 24 08	 mov	 eax, DWORD PTR __First$[esp]
  00010	52		 push	 edx
  00011	50		 push	 eax
  00012	e8 00 00 00 00	 call	 _memchr
  00017	83 c4 0c	 add	 esp, 12			; 0000000cH

; 474  : 		}

  0001a	c3		 ret	 0
?find@?$char_traits@D@std@@SAPBDPBDIABD@Z ENDP		; std::char_traits<char>::find
_TEXT	ENDS
PUBLIC	?_Move_s@?$char_traits@D@std@@SAPADPADIPBDI@Z	; std::char_traits<char>::_Move_s
EXTRN	_memmove_s:PROC
; Function compile flags: /Ogtpy
;	COMDAT ?_Move_s@?$char_traits@D@std@@SAPADPADIPBDI@Z
_TEXT	SEGMENT
__First1$ = 8						; size = 4
__Size_in_bytes$ = 12					; size = 4
__First2$ = 16						; size = 4
__Count$ = 20						; size = 4
?_Move_s@?$char_traits@D@std@@SAPADPADIPBDI@Z PROC	; std::char_traits<char>::_Move_s, COMDAT

; 487  : //		_DEBUG_POINTER(_First1);
; 488  : //		_DEBUG_POINTER(_First2);
; 489  : 		_CRT_SECURE_MEMMOVE(_First1, _Size_in_bytes, _First2, _Count);

  00000	8b 44 24 10	 mov	 eax, DWORD PTR __Count$[esp-4]
  00004	8b 4c 24 0c	 mov	 ecx, DWORD PTR __First2$[esp-4]
  00008	8b 54 24 08	 mov	 edx, DWORD PTR __Size_in_bytes$[esp-4]
  0000c	56		 push	 esi
  0000d	8b 74 24 08	 mov	 esi, DWORD PTR __First1$[esp]
  00011	50		 push	 eax
  00012	51		 push	 ecx
  00013	52		 push	 edx
  00014	56		 push	 esi
  00015	e8 00 00 00 00	 call	 _memmove_s
  0001a	83 c4 10	 add	 esp, 16			; 00000010H

; 490  : 		return _First1;

  0001d	8b c6		 mov	 eax, esi
  0001f	5e		 pop	 esi

; 491  : 		}

  00020	c3		 ret	 0
?_Move_s@?$char_traits@D@std@@SAPADPADIPBDI@Z ENDP	; std::char_traits<char>::_Move_s
_TEXT	ENDS
PUBLIC	_localcleanup
EXTRN	_CloseAppSetupMutex:PROC
EXTRN	_cleanup:PROC
EXTRN	_localcleanupwiz:PROC
; Function compile flags: /Ogtpy
; File c:\home\public\desktop\projects\ciphershed.build\src\setup\setup.c
;	COMDAT _localcleanup
_TEXT	SEGMENT
_localcleanup PROC					; COMDAT

; 86   : 	localcleanupwiz ();

  00000	e8 00 00 00 00	 call	 _localcleanupwiz

; 87   : 	cleanup ();

  00005	e8 00 00 00 00	 call	 _cleanup

; 88   : 
; 89   : 	CloseAppSetupMutex ();

  0000a	e9 00 00 00 00	 jmp	 _CloseAppSetupMutex
_localcleanup ENDP
_TEXT	ENDS
PUBLIC	_StatDeleteFile
EXTRN	__imp__DeleteFileA@4:PROC
EXTRN	__stat64:PROC
; Function compile flags: /Ogtpy
;	COMDAT _StatDeleteFile
_TEXT	SEGMENT
_st$ = -56						; size = 56
_lpszFile$ = 8						; size = 4
_StatDeleteFile PROC					; COMDAT

; 93   : {

  00000	83 ec 38	 sub	 esp, 56			; 00000038H
  00003	56		 push	 esi

; 94   : 	struct __stat64 st;
; 95   : 
; 96   : 	if (_stat64 (lpszFile, &st) == 0)

  00004	8b 74 24 40	 mov	 esi, DWORD PTR _lpszFile$[esp+56]
  00008	8d 44 24 04	 lea	 eax, DWORD PTR _st$[esp+60]
  0000c	50		 push	 eax
  0000d	56		 push	 esi
  0000e	e8 00 00 00 00	 call	 __stat64
  00013	83 c4 08	 add	 esp, 8
  00016	85 c0		 test	 eax, eax
  00018	75 0c		 jne	 SHORT $LN2@StatDelete

; 97   : 		return DeleteFile (lpszFile);

  0001a	56		 push	 esi
  0001b	ff 15 00 00 00
	00		 call	 DWORD PTR __imp__DeleteFileA@4
  00021	5e		 pop	 esi

; 100  : }

  00022	83 c4 38	 add	 esp, 56			; 00000038H
  00025	c3		 ret	 0
$LN2@StatDelete:

; 98   : 	else
; 99   : 		return TRUE;

  00026	b8 01 00 00 00	 mov	 eax, 1
  0002b	5e		 pop	 esi

; 100  : }

  0002c	83 c4 38	 add	 esp, 56			; 00000038H
  0002f	c3		 ret	 0
_StatDeleteFile ENDP
_TEXT	ENDS
PUBLIC	_StatRemoveDirectory
EXTRN	__imp__RemoveDirectoryA@4:PROC
; Function compile flags: /Ogtpy
;	COMDAT _StatRemoveDirectory
_TEXT	SEGMENT
_st$ = -56						; size = 56
_lpszDir$ = 8						; size = 4
_StatRemoveDirectory PROC				; COMDAT

; 103  : {

  00000	83 ec 38	 sub	 esp, 56			; 00000038H
  00003	56		 push	 esi

; 104  : 	struct __stat64 st;
; 105  : 
; 106  : 	if (_stat64 (lpszDir, &st) == 0)

  00004	8b 74 24 40	 mov	 esi, DWORD PTR _lpszDir$[esp+56]
  00008	8d 44 24 04	 lea	 eax, DWORD PTR _st$[esp+60]
  0000c	50		 push	 eax
  0000d	56		 push	 esi
  0000e	e8 00 00 00 00	 call	 __stat64
  00013	83 c4 08	 add	 esp, 8
  00016	85 c0		 test	 eax, eax
  00018	75 0c		 jne	 SHORT $LN2@StatRemove

; 107  : 		return RemoveDirectory (lpszDir);

  0001a	56		 push	 esi
  0001b	ff 15 00 00 00
	00		 call	 DWORD PTR __imp__RemoveDirectoryA@4
  00021	5e		 pop	 esi

; 110  : }

  00022	83 c4 38	 add	 esp, 56			; 00000038H
  00025	c3		 ret	 0
$LN2@StatRemove:

; 108  : 	else
; 109  : 		return TRUE;

  00026	b8 01 00 00 00	 mov	 eax, 1
  0002b	5e		 pop	 esi

; 110  : }

  0002c	83 c4 38	 add	 esp, 56			; 00000038H
  0002f	c3		 ret	 0
_StatRemoveDirectory ENDP
_TEXT	ENDS
PUBLIC	_GetProgramPath
EXTRN	__imp__SHGetPathFromIDListA@8:PROC
EXTRN	__imp__SHGetSpecialFolderLocation@12:PROC
; Function compile flags: /Ogtpy
;	COMDAT _GetProgramPath
_TEXT	SEGMENT
_i$ = -4						; size = 4
_hwndDlg$ = 8						; size = 4
_path$ = 12						; size = 4
_GetProgramPath PROC					; COMDAT

; 173  : {

  00000	51		 push	 ecx

; 174  : 	ITEMIDLIST *i;
; 175  : 	HRESULT res;
; 176  : 
; 177  : 	if (bForAllUsers)

  00001	83 3d 00 00 00
	00 00		 cmp	 DWORD PTR _bForAllUsers, 0
  00008	74 0d		 je	 SHORT $LN2@GetProgram

; 178  :         res = SHGetSpecialFolderLocation (hwndDlg, CSIDL_COMMON_PROGRAMS, &i);

  0000a	8b 4c 24 08	 mov	 ecx, DWORD PTR _hwndDlg$[esp]
  0000e	8d 04 24	 lea	 eax, DWORD PTR _i$[esp+4]
  00011	50		 push	 eax
  00012	6a 17		 push	 23			; 00000017H
  00014	51		 push	 ecx

; 179  : 	else

  00015	eb 0b		 jmp	 SHORT $LN5@GetProgram
$LN2@GetProgram:

; 180  :         res = SHGetSpecialFolderLocation (hwndDlg, CSIDL_PROGRAMS, &i);

  00017	8b 44 24 08	 mov	 eax, DWORD PTR _hwndDlg$[esp]
  0001b	8d 14 24	 lea	 edx, DWORD PTR _i$[esp+4]
  0001e	52		 push	 edx
  0001f	6a 02		 push	 2
  00021	50		 push	 eax
$LN5@GetProgram:
  00022	ff 15 00 00 00
	00		 call	 DWORD PTR __imp__SHGetSpecialFolderLocation@12

; 181  : 
; 182  : 	SHGetPathFromIDList (i, path);

  00028	8b 4c 24 0c	 mov	 ecx, DWORD PTR _path$[esp]
  0002c	8b 14 24	 mov	 edx, DWORD PTR _i$[esp+4]
  0002f	51		 push	 ecx
  00030	52		 push	 edx
  00031	ff 15 00 00 00
	00		 call	 DWORD PTR __imp__SHGetPathFromIDListA@8

; 183  : }

  00037	59		 pop	 ecx
  00038	c3		 ret	 0
_GetProgramPath ENDP
_TEXT	ENDS
PUBLIC	_StatusMessage
EXTRN	__imp__SendDlgItemMessageA@20:PROC
EXTRN	__imp__SendMessageW@16:PROC
EXTRN	__imp__GetDlgItem@8:PROC
EXTRN	_GetString:PROC
; Function compile flags: /Ogtpy
;	COMDAT _StatusMessage
_TEXT	SEGMENT
_hwndDlg$ = 8						; size = 4
_stringId$ = 12						; size = 4
_StatusMessage PROC					; COMDAT

; 187  : 	if (Rollback)

  00000	83 3d 00 00 00
	00 00		 cmp	 DWORD PTR _Rollback, 0
  00007	75 58		 jne	 SHORT $LN2@StatusMess

; 188  : 		return;
; 189  : 
; 190  : 	SendMessageW (GetDlgItem (hwndDlg, IDC_LOG_WINDOW), LB_ADDSTRING, 0, (LPARAM) GetString (stringId));

  00009	8b 44 24 08	 mov	 eax, DWORD PTR _stringId$[esp-4]
  0000d	56		 push	 esi
  0000e	57		 push	 edi
  0000f	50		 push	 eax
  00010	e8 00 00 00 00	 call	 _GetString
  00015	8b 74 24 10	 mov	 esi, DWORD PTR _hwndDlg$[esp+8]
  00019	83 c4 04	 add	 esp, 4
  0001c	50		 push	 eax
  0001d	6a 00		 push	 0
  0001f	68 80 01 00 00	 push	 384			; 00000180H
  00024	68 f9 03 00 00	 push	 1017			; 000003f9H
  00029	56		 push	 esi
  0002a	ff 15 00 00 00
	00		 call	 DWORD PTR __imp__GetDlgItem@8
  00030	50		 push	 eax
  00031	ff 15 00 00 00
	00		 call	 DWORD PTR __imp__SendMessageW@16

; 191  : 
; 192  : 	SendDlgItemMessage (hwndDlg, IDC_LOG_WINDOW, LB_SETTOPINDEX, 
; 193  : 		SendDlgItemMessage (hwndDlg, IDC_LOG_WINDOW, LB_GETCOUNT, 0, 0) - 1, 0);

  00037	8b 3d 00 00 00
	00		 mov	 edi, DWORD PTR __imp__SendDlgItemMessageA@20
  0003d	6a 00		 push	 0
  0003f	6a 00		 push	 0
  00041	6a 00		 push	 0
  00043	68 8b 01 00 00	 push	 395			; 0000018bH
  00048	68 f9 03 00 00	 push	 1017			; 000003f9H
  0004d	56		 push	 esi
  0004e	ff d7		 call	 edi
  00050	48		 dec	 eax
  00051	50		 push	 eax
  00052	68 97 01 00 00	 push	 407			; 00000197H
  00057	68 f9 03 00 00	 push	 1017			; 000003f9H
  0005c	56		 push	 esi
  0005d	ff d7		 call	 edi
  0005f	5f		 pop	 edi
  00060	5e		 pop	 esi
$LN2@StatusMess:

; 194  : }

  00061	c3		 ret	 0
_StatusMessage ENDP
_TEXT	ENDS
PUBLIC	??_C@_1O@FHLBCOCO@?$AA?$CF?$AAs?$AA?5?$AA?$CF?$AAh?$AAs?$AA?$AA@ ; `string'
PUBLIC	__$ArrayPad$
PUBLIC	_StatusMessageParam
EXTRN	__imp__wsprintfW:PROC
EXTRN	___security_cookie:DWORD
EXTRN	@__security_check_cookie@4:PROC
;	COMDAT ??_C@_1O@FHLBCOCO@?$AA?$CF?$AAs?$AA?5?$AA?$CF?$AAh?$AAs?$AA?$AA@
CONST	SEGMENT
??_C@_1O@FHLBCOCO@?$AA?$CF?$AAs?$AA?5?$AA?$CF?$AAh?$AAs?$AA?$AA@ DB '%', 00H
	DB	's', 00H, ' ', 00H, '%', 00H, 'h', 00H, 's', 00H, 00H, 00H ; `string'
; Function compile flags: /Ogtpy
CONST	ENDS
;	COMDAT _StatusMessageParam
_TEXT	SEGMENT
_szTmp$ = -2052						; size = 2048
__$ArrayPad$ = -4					; size = 4
_hwndDlg$ = 8						; size = 4
_stringId$ = 12						; size = 4
_param$ = 16						; size = 4
_StatusMessageParam PROC				; COMDAT

; 197  : {

  00000	81 ec 04 08 00
	00		 sub	 esp, 2052		; 00000804H
  00006	a1 00 00 00 00	 mov	 eax, DWORD PTR ___security_cookie
  0000b	33 c4		 xor	 eax, esp
  0000d	89 84 24 00 08
	00 00		 mov	 DWORD PTR __$ArrayPad$[esp+2052], eax

; 198  : 	wchar_t szTmp[1024];
; 199  : 
; 200  : 	if (Rollback)

  00014	83 3d 00 00 00
	00 00		 cmp	 DWORD PTR _Rollback, 0
  0001b	8b 84 24 0c 08
	00 00		 mov	 eax, DWORD PTR _stringId$[esp+2048]
  00022	8b 8c 24 10 08
	00 00		 mov	 ecx, DWORD PTR _param$[esp+2048]
  00029	56		 push	 esi
  0002a	8b b4 24 0c 08
	00 00		 mov	 esi, DWORD PTR _hwndDlg$[esp+2052]
  00031	75 67		 jne	 SHORT $LN2@StatusMess@2
  00033	57		 push	 edi

; 201  : 		return;
; 202  : 
; 203  : 	wsprintfW (szTmp, L"%s %hs", GetString (stringId), param);

  00034	51		 push	 ecx
  00035	50		 push	 eax
  00036	e8 00 00 00 00	 call	 _GetString
  0003b	83 c4 04	 add	 esp, 4
  0003e	50		 push	 eax
  0003f	8d 44 24 10	 lea	 eax, DWORD PTR _szTmp$[esp+2068]
  00043	68 00 00 00 00	 push	 OFFSET ??_C@_1O@FHLBCOCO@?$AA?$CF?$AAs?$AA?5?$AA?$CF?$AAh?$AAs?$AA?$AA@
  00048	50		 push	 eax
  00049	ff 15 00 00 00
	00		 call	 DWORD PTR __imp__wsprintfW
  0004f	83 c4 10	 add	 esp, 16			; 00000010H

; 204  : 	SendMessageW (GetDlgItem (hwndDlg, IDC_LOG_WINDOW), LB_ADDSTRING, 0, (LPARAM) szTmp);

  00052	8d 4c 24 08	 lea	 ecx, DWORD PTR _szTmp$[esp+2060]
  00056	51		 push	 ecx
  00057	6a 00		 push	 0
  00059	68 80 01 00 00	 push	 384			; 00000180H
  0005e	68 f9 03 00 00	 push	 1017			; 000003f9H
  00063	56		 push	 esi
  00064	ff 15 00 00 00
	00		 call	 DWORD PTR __imp__GetDlgItem@8
  0006a	50		 push	 eax
  0006b	ff 15 00 00 00
	00		 call	 DWORD PTR __imp__SendMessageW@16

; 205  : 		
; 206  : 	SendDlgItemMessage (hwndDlg, IDC_LOG_WINDOW, LB_SETTOPINDEX, 
; 207  : 		SendDlgItemMessage (hwndDlg, IDC_LOG_WINDOW, LB_GETCOUNT, 0, 0) - 1, 0);

  00071	8b 3d 00 00 00
	00		 mov	 edi, DWORD PTR __imp__SendDlgItemMessageA@20
  00077	6a 00		 push	 0
  00079	6a 00		 push	 0
  0007b	6a 00		 push	 0
  0007d	68 8b 01 00 00	 push	 395			; 0000018bH
  00082	68 f9 03 00 00	 push	 1017			; 000003f9H
  00087	56		 push	 esi
  00088	ff d7		 call	 edi
  0008a	48		 dec	 eax
  0008b	50		 push	 eax
  0008c	68 97 01 00 00	 push	 407			; 00000197H
  00091	68 f9 03 00 00	 push	 1017			; 000003f9H
  00096	56		 push	 esi
  00097	ff d7		 call	 edi
  00099	5f		 pop	 edi
$LN2@StatusMess@2:

; 208  : }

  0009a	8b 8c 24 04 08
	00 00		 mov	 ecx, DWORD PTR __$ArrayPad$[esp+2056]
  000a1	5e		 pop	 esi
  000a2	33 cc		 xor	 ecx, esp
  000a4	e8 00 00 00 00	 call	 @__security_check_cookie@4
  000a9	81 c4 04 08 00
	00		 add	 esp, 2052		; 00000804H
  000af	c3		 ret	 0
_StatusMessageParam ENDP
_TEXT	ENDS
PUBLIC	_ClearLogWindow
EXTRN	__imp__SendMessageA@16:PROC
; Function compile flags: /Ogtpy
;	COMDAT _ClearLogWindow
_TEXT	SEGMENT
_hwndDlg$ = 8						; size = 4
_ClearLogWindow PROC					; COMDAT

; 212  : 	SendMessage (GetDlgItem (hwndDlg, IDC_LOG_WINDOW), LB_RESETCONTENT, 0, 0);

  00000	8b 44 24 04	 mov	 eax, DWORD PTR _hwndDlg$[esp-4]
  00004	6a 00		 push	 0
  00006	6a 00		 push	 0
  00008	68 84 01 00 00	 push	 388			; 00000184H
  0000d	68 f9 03 00 00	 push	 1017			; 000003f9H
  00012	50		 push	 eax
  00013	ff 15 00 00 00
	00		 call	 DWORD PTR __imp__GetDlgItem@8
  00019	50		 push	 eax
  0001a	ff 15 00 00 00
	00		 call	 DWORD PTR __imp__SendMessageA@16

; 213  : }

  00020	c3		 ret	 0
_ClearLogWindow ENDP
_TEXT	ENDS
PUBLIC	??_C@_0L@LFAEJJAB@ADDING_REG?$AA@		; `string'
PUBLIC	_RegMessage
;	COMDAT ??_C@_0L@LFAEJJAB@ADDING_REG?$AA@
CONST	SEGMENT
??_C@_0L@LFAEJJAB@ADDING_REG?$AA@ DB 'ADDING_REG', 00H	; `string'
; Function compile flags: /Ogtpy
CONST	ENDS
;	COMDAT _RegMessage
_TEXT	SEGMENT
_hwndDlg$ = 8						; size = 4
_txt$ = 12						; size = 4
_RegMessage PROC					; COMDAT

; 217  : 	StatusMessageParam (hwndDlg, "ADDING_REG", txt);

  00000	8b 44 24 08	 mov	 eax, DWORD PTR _txt$[esp-4]
  00004	8b 4c 24 04	 mov	 ecx, DWORD PTR _hwndDlg$[esp-4]
  00008	50		 push	 eax
  00009	68 00 00 00 00	 push	 OFFSET ??_C@_0L@LFAEJJAB@ADDING_REG?$AA@
  0000e	51		 push	 ecx
  0000f	e8 00 00 00 00	 call	 _StatusMessageParam
  00014	83 c4 0c	 add	 esp, 12			; 0000000cH

; 218  : }

  00017	c3		 ret	 0
_RegMessage ENDP
_TEXT	ENDS
PUBLIC	??_C@_0L@HHILBMI@INSTALLING?$AA@		; `string'
PUBLIC	_CopyMessage
;	COMDAT ??_C@_0L@HHILBMI@INSTALLING?$AA@
CONST	SEGMENT
??_C@_0L@HHILBMI@INSTALLING?$AA@ DB 'INSTALLING', 00H	; `string'
; Function compile flags: /Ogtpy
CONST	ENDS
;	COMDAT _CopyMessage
_TEXT	SEGMENT
_hwndDlg$ = 8						; size = 4
_txt$ = 12						; size = 4
_CopyMessage PROC					; COMDAT

; 222  : 	StatusMessageParam (hwndDlg, "INSTALLING", txt);

  00000	8b 44 24 08	 mov	 eax, DWORD PTR _txt$[esp-4]
  00004	8b 4c 24 04	 mov	 ecx, DWORD PTR _hwndDlg$[esp-4]
  00008	50		 push	 eax
  00009	68 00 00 00 00	 push	 OFFSET ??_C@_0L@HHILBMI@INSTALLING?$AA@
  0000e	51		 push	 ecx
  0000f	e8 00 00 00 00	 call	 _StatusMessageParam
  00014	83 c4 0c	 add	 esp, 12			; 0000000cH

; 223  : }

  00017	c3		 ret	 0
_CopyMessage ENDP
_TEXT	ENDS
PUBLIC	??_C@_08GLIOLGPM@REMOVING?$AA@			; `string'
PUBLIC	_RemoveMessage
;	COMDAT ??_C@_08GLIOLGPM@REMOVING?$AA@
CONST	SEGMENT
??_C@_08GLIOLGPM@REMOVING?$AA@ DB 'REMOVING', 00H	; `string'
; Function compile flags: /Ogtpy
CONST	ENDS
;	COMDAT _RemoveMessage
_TEXT	SEGMENT
_hwndDlg$ = 8						; size = 4
_txt$ = 12						; size = 4
_RemoveMessage PROC					; COMDAT

; 227  : 	if (!Rollback)

  00000	83 3d 00 00 00
	00 00		 cmp	 DWORD PTR _Rollback, 0
  00007	75 17		 jne	 SHORT $LN1@RemoveMess

; 228  : 		StatusMessageParam (hwndDlg, "REMOVING", txt);

  00009	8b 44 24 08	 mov	 eax, DWORD PTR _txt$[esp-4]
  0000d	8b 4c 24 04	 mov	 ecx, DWORD PTR _hwndDlg$[esp-4]
  00011	50		 push	 eax
  00012	68 00 00 00 00	 push	 OFFSET ??_C@_08GLIOLGPM@REMOVING?$AA@
  00017	51		 push	 ecx
  00018	e8 00 00 00 00	 call	 _StatusMessageParam
  0001d	83 c4 0c	 add	 esp, 12			; 0000000cH
$LN1@RemoveMess:

; 229  : }

  00020	c3		 ret	 0
_RemoveMessage ENDP
_TEXT	ENDS
PUBLIC	??_C@_0M@CFAAPOHD@ADDING_ICON?$AA@		; `string'
PUBLIC	_IconMessage
;	COMDAT ??_C@_0M@CFAAPOHD@ADDING_ICON?$AA@
CONST	SEGMENT
??_C@_0M@CFAAPOHD@ADDING_ICON?$AA@ DB 'ADDING_ICON', 00H ; `string'
; Function compile flags: /Ogtpy
CONST	ENDS
;	COMDAT _IconMessage
_TEXT	SEGMENT
_hwndDlg$ = 8						; size = 4
_txt$ = 12						; size = 4
_IconMessage PROC					; COMDAT

; 233  : 	StatusMessageParam (hwndDlg, "ADDING_ICON", txt);

  00000	8b 44 24 08	 mov	 eax, DWORD PTR _txt$[esp-4]
  00004	8b 4c 24 04	 mov	 ecx, DWORD PTR _hwndDlg$[esp-4]
  00008	50		 push	 eax
  00009	68 00 00 00 00	 push	 OFFSET ??_C@_0M@CFAAPOHD@ADDING_ICON?$AA@
  0000e	51		 push	 ecx
  0000f	e8 00 00 00 00	 call	 _StatusMessageParam
  00014	83 c4 0c	 add	 esp, 12			; 0000000cH

; 234  : }

  00017	c3		 ret	 0
_IconMessage ENDP
_TEXT	ENDS
PUBLIC	_DetermineUpgradeDowngradeStatus
EXTRN	__imp__CloseHandle@4:PROC
EXTRN	__imp__DeviceIoControl@32:PROC
EXTRN	_DriverAttach:PROC
EXTRN	_hDriver:DWORD
; Function compile flags: /Ogtpy
;	COMDAT _DetermineUpgradeDowngradeStatus
_TEXT	SEGMENT
_driverVersion$ = -8					; size = 4
_dwResult$134128 = -4					; size = 4
_bCloseDriverHandle$ = 8				; size = 4
_driverVersionPtr$ = 12					; size = 4
_DetermineUpgradeDowngradeStatus PROC			; COMDAT

; 243  : {

  00000	83 ec 08	 sub	 esp, 8

; 244  : 	/* Defaults to the callers version number if no installed driver is found. */
; 245  : 	LONG driverVersion = VERSION_NUM;
; 246  : 
; 247  : 	/* Singleton pattern. */
; 248  : 	if (hDriver == INVALID_HANDLE_VALUE)

  00003	a1 00 00 00 00	 mov	 eax, DWORD PTR _hDriver
  00008	c7 04 24 30 07
	00 00		 mov	 DWORD PTR _driverVersion$[esp+8], 1840 ; 00000730H
  0000f	83 f8 ff	 cmp	 eax, -1
  00012	75 13		 jne	 SHORT $LN15@DetermineU

; 249  : 		DriverAttach();

  00014	e8 00 00 00 00	 call	 _DriverAttach

; 250  : 
; 251  : 	/* Check if the driver was opened successfully. */
; 252  : 	if (hDriver != INVALID_HANDLE_VALUE)

  00019	a1 00 00 00 00	 mov	 eax, DWORD PTR _hDriver
  0001e	83 f8 ff	 cmp	 eax, -1
  00021	0f 84 0c 01 00
	00		 je	 $LN17@DetermineU
$LN15@DetermineU:
  00027	56		 push	 esi

; 253  : 	{
; 254  : 		DWORD dwResult;
; 255  : 
; 256  : 		/* Send a ioctl to determine the driver version. */
; 257  : 		BOOL bResult = DeviceIoControl (hDriver, TC_IOCTL_GET_DRIVER_VERSION, NULL, 0, &driverVersion, sizeof (driverVersion), &dwResult, NULL);

  00028	8b 35 00 00 00
	00		 mov	 esi, DWORD PTR __imp__DeviceIoControl@32
  0002e	6a 00		 push	 0
  00030	8d 4c 24 0c	 lea	 ecx, DWORD PTR _dwResult$134128[esp+16]
  00034	51		 push	 ecx
  00035	6a 04		 push	 4
  00037	8d 54 24 10	 lea	 edx, DWORD PTR _driverVersion$[esp+24]
  0003b	52		 push	 edx
  0003c	6a 00		 push	 0
  0003e	6a 00		 push	 0
  00040	68 04 20 22 00	 push	 2236420			; 00222004H
  00045	50		 push	 eax
  00046	ff d6		 call	 esi

; 258  : 
; 259  : 		if (!bResult)

  00048	85 c0		 test	 eax, eax
  0004a	75 23		 jne	 SHORT $LN14@DetermineU

; 260  : 			bResult = DeviceIoControl (hDriver, TC_IOCTL_LEGACY_GET_DRIVER_VERSION, NULL, 0, &driverVersion, sizeof (driverVersion), &dwResult, NULL);

  0004c	8b 15 00 00 00
	00		 mov	 edx, DWORD PTR _hDriver
  00052	50		 push	 eax
  00053	8d 44 24 0c	 lea	 eax, DWORD PTR _dwResult$134128[esp+16]
  00057	50		 push	 eax
  00058	6a 04		 push	 4
  0005a	8d 4c 24 10	 lea	 ecx, DWORD PTR _driverVersion$[esp+24]
  0005e	51		 push	 ecx
  0005f	6a 00		 push	 0
  00061	6a 00		 push	 0
  00063	68 18 20 07 00	 push	 466968			; 00072018H
  00068	52		 push	 edx
  00069	ff d6		 call	 esi

; 261  : 
; 262  : 		if (bResult)

  0006b	85 c0		 test	 eax, eax
  0006d	74 1d		 je	 SHORT $LN18@DetermineU
$LN14@DetermineU:

; 263  : 			InstalledVersion = driverVersion;

  0006f	8b 4c 24 04	 mov	 ecx, DWORD PTR _driverVersion$[esp+12]
  00073	89 0d 00 00 00
	00		 mov	 DWORD PTR ?InstalledVersion@@3JA, ecx ; InstalledVersion

; 264  : 
; 265  : 		bUpgrade = (bResult && driverVersion < VERSION_NUM);

  00079	85 c0		 test	 eax, eax
  0007b	74 13		 je	 SHORT $LN8@DetermineU
  0007d	81 f9 30 07 00
	00		 cmp	 ecx, 1840		; 00000730H
  00083	7d 0b		 jge	 SHORT $LN8@DetermineU
  00085	ba 01 00 00 00	 mov	 edx, 1
  0008a	eb 06		 jmp	 SHORT $LN19@DetermineU
$LN18@DetermineU:
  0008c	8b 4c 24 04	 mov	 ecx, DWORD PTR _driverVersion$[esp+12]
$LN8@DetermineU:
  00090	33 d2		 xor	 edx, edx
$LN19@DetermineU:
  00092	89 15 00 00 00
	00		 mov	 DWORD PTR _bUpgrade, edx

; 266  : 		bDowngrade = (bResult && driverVersion > VERSION_NUM);

  00098	85 c0		 test	 eax, eax
  0009a	74 12		 je	 SHORT $LN10@DetermineU
  0009c	81 f9 30 07 00
	00		 cmp	 ecx, 1840		; 00000730H
  000a2	c7 05 00 00 00
	00 01 00 00 00	 mov	 DWORD PTR ?bDowngrade@@3HA, 1 ; bDowngrade
  000ac	7f 0a		 jg	 SHORT $LN11@DetermineU
$LN10@DetermineU:
  000ae	c7 05 00 00 00
	00 00 00 00 00	 mov	 DWORD PTR ?bDowngrade@@3HA, 0 ; bDowngrade
$LN11@DetermineU:

; 267  : 
; 268  : 		/* TrueCrypt to CipherShed migration flag. */
; 269  : 		bCipherShedMigration = (bUpgrade && driverVersion < 0x730);

  000b8	85 d2		 test	 edx, edx
  000ba	74 12		 je	 SHORT $LN12@DetermineU
  000bc	81 f9 30 07 00
	00		 cmp	 ecx, 1840		; 00000730H
  000c2	c7 05 00 00 00
	00 01 00 00 00	 mov	 DWORD PTR _bCipherShedMigration, 1
  000cc	7c 0a		 jl	 SHORT $LN13@DetermineU
$LN12@DetermineU:
  000ce	c7 05 00 00 00
	00 00 00 00 00	 mov	 DWORD PTR _bCipherShedMigration, 0
$LN13@DetermineU:

; 270  : 
; 271  : 		/* Determine if the driver was loaded in portable mode. */
; 272  : 		PortableMode = DeviceIoControl (hDriver, TC_IOCTL_GET_PORTABLE_MODE_STATUS, NULL, 0, NULL, 0, &dwResult, NULL);

  000d8	8b 0d 00 00 00
	00		 mov	 ecx, DWORD PTR _hDriver
  000de	6a 00		 push	 0
  000e0	8d 44 24 0c	 lea	 eax, DWORD PTR _dwResult$134128[esp+16]
  000e4	50		 push	 eax
  000e5	6a 00		 push	 0
  000e7	6a 00		 push	 0
  000e9	6a 00		 push	 0
  000eb	6a 00		 push	 0
  000ed	68 64 20 22 00	 push	 2236516			; 00222064H
  000f2	51		 push	 ecx
  000f3	ff d6		 call	 esi

; 273  : 
; 274  : 		if (bCloseDriverHandle)

  000f5	83 7c 24 10 00	 cmp	 DWORD PTR _bCloseDriverHandle$[esp+8], 0
  000fa	a3 00 00 00 00	 mov	 DWORD PTR ?PortableMode@@3HA, eax ; PortableMode
  000ff	5e		 pop	 esi
  00100	74 24		 je	 SHORT $LN16@DetermineU

; 275  : 		{
; 276  : 			CloseHandle (hDriver);

  00102	8b 15 00 00 00
	00		 mov	 edx, DWORD PTR _hDriver
  00108	52		 push	 edx
  00109	ff 15 00 00 00
	00		 call	 DWORD PTR __imp__CloseHandle@4

; 277  : 			hDriver = INVALID_HANDLE_VALUE;
; 278  : 		}
; 279  : 	}
; 280  : 
; 281  : 	*driverVersionPtr = driverVersion;

  0010f	8b 44 24 10	 mov	 eax, DWORD PTR _driverVersionPtr$[esp+4]
  00113	8b 0c 24	 mov	 ecx, DWORD PTR _driverVersion$[esp+8]
  00116	c7 05 00 00 00
	00 ff ff ff ff	 mov	 DWORD PTR _hDriver, -1
  00120	89 08		 mov	 DWORD PTR [eax], ecx

; 282  : }

  00122	83 c4 08	 add	 esp, 8
  00125	c3		 ret	 0
$LN16@DetermineU:

; 277  : 			hDriver = INVALID_HANDLE_VALUE;
; 278  : 		}
; 279  : 	}
; 280  : 
; 281  : 	*driverVersionPtr = driverVersion;

  00126	8b 54 24 10	 mov	 edx, DWORD PTR _driverVersionPtr$[esp+4]
  0012a	8b 04 24	 mov	 eax, DWORD PTR _driverVersion$[esp+8]
  0012d	89 02		 mov	 DWORD PTR [edx], eax

; 282  : }

  0012f	83 c4 08	 add	 esp, 8
  00132	c3		 ret	 0
$LN17@DetermineU:

; 277  : 			hDriver = INVALID_HANDLE_VALUE;
; 278  : 		}
; 279  : 	}
; 280  : 
; 281  : 	*driverVersionPtr = driverVersion;

  00133	8b 4c 24 10	 mov	 ecx, DWORD PTR _driverVersionPtr$[esp+4]
  00137	8b 14 24	 mov	 edx, DWORD PTR _driverVersion$[esp+8]
  0013a	89 11		 mov	 DWORD PTR [ecx], edx

; 282  : }

  0013c	83 c4 08	 add	 esp, 8
  0013f	c3		 ret	 0
_DetermineUpgradeDowngradeStatus ENDP
_TEXT	ENDS
PUBLIC	??_C@_0BJ@DAPCIKHM@TrueCrypt?5User?5Guide?4pdf?$AA@ ; `string'
PUBLIC	??_C@_0BE@NCPFOFMD@TrueCrypt?5Setup?4exe?$AA@	; `string'
PUBLIC	??_C@_0BF@PLOADIIL@TrueCrypt?5Format?4exe?$AA@	; `string'
PUBLIC	??_C@_04HDOCAJNK@?$CFs?$CFs?$AA@		; `string'
PUBLIC	??_C@_0O@DFMLFAG@TrueCrypt?4exe?$AA@		; `string'
PUBLIC	__$ArrayPad$
PUBLIC	_DoTrueCryptFilesUninstall
EXTRN	_handleWin32Error:PROC
EXTRN	__snprintf:PROC
EXTRN	_memset:PROC
;	COMDAT ??_C@_0BJ@DAPCIKHM@TrueCrypt?5User?5Guide?4pdf?$AA@
CONST	SEGMENT
??_C@_0BJ@DAPCIKHM@TrueCrypt?5User?5Guide?4pdf?$AA@ DB 'TrueCrypt User Gu'
	DB	'ide.pdf', 00H				; `string'
CONST	ENDS
;	COMDAT ??_C@_0BE@NCPFOFMD@TrueCrypt?5Setup?4exe?$AA@
CONST	SEGMENT
??_C@_0BE@NCPFOFMD@TrueCrypt?5Setup?4exe?$AA@ DB 'TrueCrypt Setup.exe', 00H ; `string'
CONST	ENDS
;	COMDAT ??_C@_0BF@PLOADIIL@TrueCrypt?5Format?4exe?$AA@
CONST	SEGMENT
??_C@_0BF@PLOADIIL@TrueCrypt?5Format?4exe?$AA@ DB 'TrueCrypt Format.exe', 00H ; `string'
CONST	ENDS
;	COMDAT ??_C@_04HDOCAJNK@?$CFs?$CFs?$AA@
CONST	SEGMENT
??_C@_04HDOCAJNK@?$CFs?$CFs?$AA@ DB '%s%s', 00H		; `string'
CONST	ENDS
;	COMDAT ??_C@_0O@DFMLFAG@TrueCrypt?4exe?$AA@
CONST	SEGMENT
??_C@_0O@DFMLFAG@TrueCrypt?4exe?$AA@ DB 'TrueCrypt.exe', 00H ; `string'
; Function compile flags: /Ogtpy
CONST	ENDS
;	COMDAT _DoTrueCryptFilesUninstall
_TEXT	SEGMENT
_st$138138 = -320					; size = 56
_st$138129 = -320					; size = 56
_st$138119 = -320					; size = 56
_st$138109 = -320					; size = 56
_st$138099 = -320					; size = 56
_st$138089 = -320					; size = 56
_st$138079 = -320					; size = 56
_st$138069 = -320					; size = 56
_path$ = -264						; size = 260
__$ArrayPad$ = -4					; size = 4
_hwndDlg$ = 8						; size = 4
_DoTrueCryptFilesUninstall PROC				; COMDAT

; 545  : {

  00000	81 ec 40 01 00
	00		 sub	 esp, 320		; 00000140H
  00006	a1 00 00 00 00	 mov	 eax, DWORD PTR ___security_cookie
  0000b	33 c4		 xor	 eax, esp
  0000d	89 84 24 3c 01
	00 00		 mov	 DWORD PTR __$ArrayPad$[esp+320], eax
  00014	53		 push	 ebx
  00015	56		 push	 esi
  00016	8b b4 24 4c 01
	00 00		 mov	 esi, DWORD PTR _hwndDlg$[esp+324]
  0001d	57		 push	 edi

; 546  : 	char path[MAX_PATH] = { 0 };

  0001e	68 03 01 00 00	 push	 259			; 00000103H
  00023	8d 44 24 49	 lea	 eax, DWORD PTR _path$[esp+337]
  00027	6a 00		 push	 0
  00029	50		 push	 eax
  0002a	c6 44 24 50 00	 mov	 BYTE PTR _path$[esp+344], 0
  0002f	e8 00 00 00 00	 call	 _memset

; 547  : 	BOOL bOK = TRUE;
; 548  : 
; 549  : 	/* TrueCrypt.exe */
; 550  : 	if (_snprintf (path, sizeof (path) - 1, "%s%s", UninstallationPath, TC_APP_NAME_LEGACY ".exe") >= 0)

  00034	68 00 00 00 00	 push	 OFFSET ??_C@_0O@DFMLFAG@TrueCrypt?4exe?$AA@
  00039	68 00 00 00 00	 push	 OFFSET ?UninstallationPath@@3PADA ; UninstallationPath
  0003e	68 00 00 00 00	 push	 OFFSET ??_C@_04HDOCAJNK@?$CFs?$CFs?$AA@
  00043	8d 4c 24 5c	 lea	 ecx, DWORD PTR _path$[esp+356]
  00047	68 03 01 00 00	 push	 259			; 00000103H
  0004c	51		 push	 ecx
  0004d	bb 01 00 00 00	 mov	 ebx, 1
  00052	e8 00 00 00 00	 call	 __snprintf
  00057	8b 3d 00 00 00
	00		 mov	 edi, DWORD PTR __imp__DeleteFileA@4
  0005d	83 c4 20	 add	 esp, 32			; 00000020H
  00060	85 c0		 test	 eax, eax
  00062	7c 39		 jl	 SHORT $LN18@DoTrueCryp

; 551  : 	{
; 552  : 		RemoveMessage (hwndDlg, path);

  00064	83 3d 00 00 00
	00 00		 cmp	 DWORD PTR _Rollback, 0
  0006b	75 13		 jne	 SHORT $LN14@DoTrueCryp
  0006d	8d 54 24 44	 lea	 edx, DWORD PTR _path$[esp+332]
  00071	52		 push	 edx
  00072	68 00 00 00 00	 push	 OFFSET ??_C@_08GLIOLGPM@REMOVING?$AA@
  00077	56		 push	 esi
  00078	e8 00 00 00 00	 call	 _StatusMessageParam
  0007d	83 c4 0c	 add	 esp, 12			; 0000000cH
$LN14@DoTrueCryp:

; 553  : 		StatDeleteFile (path);

  00080	8d 44 24 0c	 lea	 eax, DWORD PTR _st$138069[esp+332]
  00084	50		 push	 eax
  00085	8d 4c 24 48	 lea	 ecx, DWORD PTR _path$[esp+336]
  00089	51		 push	 ecx
  0008a	e8 00 00 00 00	 call	 __stat64
  0008f	83 c4 08	 add	 esp, 8
  00092	85 c0		 test	 eax, eax
  00094	75 07		 jne	 SHORT $LN18@DoTrueCryp
  00096	8d 54 24 44	 lea	 edx, DWORD PTR _path$[esp+332]
  0009a	52		 push	 edx
  0009b	ff d7		 call	 edi
$LN18@DoTrueCryp:

; 554  : 	}
; 555  : 
; 556  : 	/* TrueCrypt Format.exe */
; 557  : 	if (_snprintf (path, sizeof (path) - 1, "%s%s", UninstallationPath, TC_APP_NAME_LEGACY " Format.exe") >= 0)

  0009d	68 00 00 00 00	 push	 OFFSET ??_C@_0BF@PLOADIIL@TrueCrypt?5Format?4exe?$AA@
  000a2	68 00 00 00 00	 push	 OFFSET ?UninstallationPath@@3PADA ; UninstallationPath
  000a7	68 00 00 00 00	 push	 OFFSET ??_C@_04HDOCAJNK@?$CFs?$CFs?$AA@
  000ac	8d 44 24 50	 lea	 eax, DWORD PTR _path$[esp+344]
  000b0	68 03 01 00 00	 push	 259			; 00000103H
  000b5	50		 push	 eax
  000b6	e8 00 00 00 00	 call	 __snprintf
  000bb	83 c4 14	 add	 esp, 20			; 00000014H
  000be	85 c0		 test	 eax, eax
  000c0	7c 39		 jl	 SHORT $LN25@DoTrueCryp

; 558  : 	{
; 559  : 		RemoveMessage (hwndDlg, path);

  000c2	83 3d 00 00 00
	00 00		 cmp	 DWORD PTR _Rollback, 0
  000c9	75 13		 jne	 SHORT $LN21@DoTrueCryp
  000cb	8d 4c 24 44	 lea	 ecx, DWORD PTR _path$[esp+332]
  000cf	51		 push	 ecx
  000d0	68 00 00 00 00	 push	 OFFSET ??_C@_08GLIOLGPM@REMOVING?$AA@
  000d5	56		 push	 esi
  000d6	e8 00 00 00 00	 call	 _StatusMessageParam
  000db	83 c4 0c	 add	 esp, 12			; 0000000cH
$LN21@DoTrueCryp:

; 560  : 		StatDeleteFile (path);

  000de	8d 54 24 0c	 lea	 edx, DWORD PTR _st$138079[esp+332]
  000e2	52		 push	 edx
  000e3	8d 44 24 48	 lea	 eax, DWORD PTR _path$[esp+336]
  000e7	50		 push	 eax
  000e8	e8 00 00 00 00	 call	 __stat64
  000ed	83 c4 08	 add	 esp, 8
  000f0	85 c0		 test	 eax, eax
  000f2	75 07		 jne	 SHORT $LN25@DoTrueCryp
  000f4	8d 4c 24 44	 lea	 ecx, DWORD PTR _path$[esp+332]
  000f8	51		 push	 ecx
  000f9	ff d7		 call	 edi
$LN25@DoTrueCryp:

; 561  : 	}
; 562  : 
; 563  : 	/* TrueCrypt Setup.exe */
; 564  : 	if (_snprintf (path, sizeof (path) - 1, "%s%s", UninstallationPath, TC_APP_NAME_LEGACY " Setup.exe") >= 0)

  000fb	68 00 00 00 00	 push	 OFFSET ??_C@_0BE@NCPFOFMD@TrueCrypt?5Setup?4exe?$AA@
  00100	68 00 00 00 00	 push	 OFFSET ?UninstallationPath@@3PADA ; UninstallationPath
  00105	68 00 00 00 00	 push	 OFFSET ??_C@_04HDOCAJNK@?$CFs?$CFs?$AA@
  0010a	8d 54 24 50	 lea	 edx, DWORD PTR _path$[esp+344]
  0010e	68 03 01 00 00	 push	 259			; 00000103H
  00113	52		 push	 edx
  00114	e8 00 00 00 00	 call	 __snprintf
  00119	83 c4 14	 add	 esp, 20			; 00000014H
  0011c	85 c0		 test	 eax, eax
  0011e	7c 39		 jl	 SHORT $LN32@DoTrueCryp

; 565  : 	{
; 566  : 		RemoveMessage (hwndDlg, path);

  00120	83 3d 00 00 00
	00 00		 cmp	 DWORD PTR _Rollback, 0
  00127	75 13		 jne	 SHORT $LN28@DoTrueCryp
  00129	8d 44 24 44	 lea	 eax, DWORD PTR _path$[esp+332]
  0012d	50		 push	 eax
  0012e	68 00 00 00 00	 push	 OFFSET ??_C@_08GLIOLGPM@REMOVING?$AA@
  00133	56		 push	 esi
  00134	e8 00 00 00 00	 call	 _StatusMessageParam
  00139	83 c4 0c	 add	 esp, 12			; 0000000cH
$LN28@DoTrueCryp:

; 567  : 		StatDeleteFile (path);

  0013c	8d 4c 24 0c	 lea	 ecx, DWORD PTR _st$138089[esp+332]
  00140	51		 push	 ecx
  00141	8d 54 24 48	 lea	 edx, DWORD PTR _path$[esp+336]
  00145	52		 push	 edx
  00146	e8 00 00 00 00	 call	 __stat64
  0014b	83 c4 08	 add	 esp, 8
  0014e	85 c0		 test	 eax, eax
  00150	75 07		 jne	 SHORT $LN32@DoTrueCryp
  00152	8d 44 24 44	 lea	 eax, DWORD PTR _path$[esp+332]
  00156	50		 push	 eax
  00157	ff d7		 call	 edi
$LN32@DoTrueCryp:

; 568  : 	}
; 569  : 
; 570  : 	/* TrueCrypt User Guide.pdf */
; 571  : 	if (_snprintf (path, sizeof (path) - 1, "%s%s", UninstallationPath, TC_APP_NAME_LEGACY " User Guide.pdf") >= 0)

  00159	68 00 00 00 00	 push	 OFFSET ??_C@_0BJ@DAPCIKHM@TrueCrypt?5User?5Guide?4pdf?$AA@
  0015e	68 00 00 00 00	 push	 OFFSET ?UninstallationPath@@3PADA ; UninstallationPath
  00163	68 00 00 00 00	 push	 OFFSET ??_C@_04HDOCAJNK@?$CFs?$CFs?$AA@
  00168	8d 4c 24 50	 lea	 ecx, DWORD PTR _path$[esp+344]
  0016c	68 03 01 00 00	 push	 259			; 00000103H
  00171	51		 push	 ecx
  00172	e8 00 00 00 00	 call	 __snprintf
  00177	83 c4 14	 add	 esp, 20			; 00000014H
  0017a	85 c0		 test	 eax, eax
  0017c	7c 39		 jl	 SHORT $LN39@DoTrueCryp

; 572  : 	{
; 573  : 		RemoveMessage (hwndDlg, path);

  0017e	83 3d 00 00 00
	00 00		 cmp	 DWORD PTR _Rollback, 0
  00185	75 13		 jne	 SHORT $LN35@DoTrueCryp
  00187	8d 54 24 44	 lea	 edx, DWORD PTR _path$[esp+332]
  0018b	52		 push	 edx
  0018c	68 00 00 00 00	 push	 OFFSET ??_C@_08GLIOLGPM@REMOVING?$AA@
  00191	56		 push	 esi
  00192	e8 00 00 00 00	 call	 _StatusMessageParam
  00197	83 c4 0c	 add	 esp, 12			; 0000000cH
$LN35@DoTrueCryp:

; 574  : 		StatDeleteFile (path);

  0019a	8d 44 24 0c	 lea	 eax, DWORD PTR _st$138099[esp+332]
  0019e	50		 push	 eax
  0019f	8d 4c 24 48	 lea	 ecx, DWORD PTR _path$[esp+336]
  001a3	51		 push	 ecx
  001a4	e8 00 00 00 00	 call	 __stat64
  001a9	83 c4 08	 add	 esp, 8
  001ac	85 c0		 test	 eax, eax
  001ae	75 07		 jne	 SHORT $LN39@DoTrueCryp
  001b0	8d 54 24 44	 lea	 edx, DWORD PTR _path$[esp+332]
  001b4	52		 push	 edx
  001b5	ff d7		 call	 edi
$LN39@DoTrueCryp:

; 575  : 	}
; 576  : 
; 577  : 	if (strcmp(InstallationPath, UninstallationPath) != 0)

  001b7	b9 00 00 00 00	 mov	 ecx, OFFSET ?UninstallationPath@@3PADA ; UninstallationPath
  001bc	b8 00 00 00 00	 mov	 eax, OFFSET _InstallationPath
$LL71@DoTrueCryp:
  001c1	8a 10		 mov	 dl, BYTE PTR [eax]
  001c3	3a 11		 cmp	 dl, BYTE PTR [ecx]
  001c5	75 1a		 jne	 SHORT $LN72@DoTrueCryp
  001c7	84 d2		 test	 dl, dl
  001c9	74 12		 je	 SHORT $LN73@DoTrueCryp
  001cb	8a 50 01	 mov	 dl, BYTE PTR [eax+1]
  001ce	3a 51 01	 cmp	 dl, BYTE PTR [ecx+1]
  001d1	75 0e		 jne	 SHORT $LN72@DoTrueCryp
  001d3	83 c0 02	 add	 eax, 2
  001d6	83 c1 02	 add	 ecx, 2
  001d9	84 d2		 test	 dl, dl
  001db	75 e4		 jne	 SHORT $LL71@DoTrueCryp
$LN73@DoTrueCryp:
  001dd	33 c0		 xor	 eax, eax
  001df	eb 05		 jmp	 SHORT $LN74@DoTrueCryp
$LN72@DoTrueCryp:
  001e1	1b c0		 sbb	 eax, eax
  001e3	83 d8 ff	 sbb	 eax, -1
$LN74@DoTrueCryp:
  001e6	85 c0		 test	 eax, eax
  001e8	0f 84 b2 01 00
	00		 je	 $LN78@DoTrueCryp

; 578  : 	{
; 579  : 		/* truecrypt.sys */
; 580  : 		if (_snprintf (path, sizeof (path) - 1, "%s%s", UninstallationPath, "truecrypt.sys") >= 0)

  001ee	68 00 00 00 00	 push	 OFFSET ??_C@_0O@OJENBJKN@truecrypt?4sys?$AA@
  001f3	68 00 00 00 00	 push	 OFFSET ?UninstallationPath@@3PADA ; UninstallationPath
  001f8	68 00 00 00 00	 push	 OFFSET ??_C@_04HDOCAJNK@?$CFs?$CFs?$AA@
  001fd	8d 44 24 50	 lea	 eax, DWORD PTR _path$[esp+344]
  00201	68 03 01 00 00	 push	 259			; 00000103H
  00206	50		 push	 eax
  00207	e8 00 00 00 00	 call	 __snprintf
  0020c	83 c4 14	 add	 esp, 20			; 00000014H
  0020f	85 c0		 test	 eax, eax
  00211	7c 39		 jl	 SHORT $LN46@DoTrueCryp

; 581  : 		{
; 582  : 			RemoveMessage (hwndDlg, path);

  00213	83 3d 00 00 00
	00 00		 cmp	 DWORD PTR _Rollback, 0
  0021a	75 13		 jne	 SHORT $LN42@DoTrueCryp
  0021c	8d 4c 24 44	 lea	 ecx, DWORD PTR _path$[esp+332]
  00220	51		 push	 ecx
  00221	68 00 00 00 00	 push	 OFFSET ??_C@_08GLIOLGPM@REMOVING?$AA@
  00226	56		 push	 esi
  00227	e8 00 00 00 00	 call	 _StatusMessageParam
  0022c	83 c4 0c	 add	 esp, 12			; 0000000cH
$LN42@DoTrueCryp:

; 583  : 			StatDeleteFile (path);

  0022f	8d 54 24 0c	 lea	 edx, DWORD PTR _st$138109[esp+332]
  00233	52		 push	 edx
  00234	8d 44 24 48	 lea	 eax, DWORD PTR _path$[esp+336]
  00238	50		 push	 eax
  00239	e8 00 00 00 00	 call	 __stat64
  0023e	83 c4 08	 add	 esp, 8
  00241	85 c0		 test	 eax, eax
  00243	75 07		 jne	 SHORT $LN46@DoTrueCryp
  00245	8d 4c 24 44	 lea	 ecx, DWORD PTR _path$[esp+332]
  00249	51		 push	 ecx
  0024a	ff d7		 call	 edi
$LN46@DoTrueCryp:

; 584  : 		}
; 585  : 
; 586  : 		/* truecrypt-x64.sys */
; 587  : 		if (_snprintf (path, sizeof (path) - 1, "%s%s", UninstallationPath, "truecrypt-x64.sys") >= 0)

  0024c	68 00 00 00 00	 push	 OFFSET ??_C@_0BC@KMEHMKJJ@truecrypt?9x64?4sys?$AA@
  00251	68 00 00 00 00	 push	 OFFSET ?UninstallationPath@@3PADA ; UninstallationPath
  00256	68 00 00 00 00	 push	 OFFSET ??_C@_04HDOCAJNK@?$CFs?$CFs?$AA@
  0025b	8d 54 24 50	 lea	 edx, DWORD PTR _path$[esp+344]
  0025f	68 03 01 00 00	 push	 259			; 00000103H
  00264	52		 push	 edx
  00265	e8 00 00 00 00	 call	 __snprintf
  0026a	83 c4 14	 add	 esp, 20			; 00000014H
  0026d	85 c0		 test	 eax, eax
  0026f	7c 39		 jl	 SHORT $LN53@DoTrueCryp

; 588  : 		{
; 589  : 			RemoveMessage (hwndDlg, path);

  00271	83 3d 00 00 00
	00 00		 cmp	 DWORD PTR _Rollback, 0
  00278	75 13		 jne	 SHORT $LN49@DoTrueCryp
  0027a	8d 44 24 44	 lea	 eax, DWORD PTR _path$[esp+332]
  0027e	50		 push	 eax
  0027f	68 00 00 00 00	 push	 OFFSET ??_C@_08GLIOLGPM@REMOVING?$AA@
  00284	56		 push	 esi
  00285	e8 00 00 00 00	 call	 _StatusMessageParam
  0028a	83 c4 0c	 add	 esp, 12			; 0000000cH
$LN49@DoTrueCryp:

; 590  : 			StatDeleteFile (path);

  0028d	8d 4c 24 0c	 lea	 ecx, DWORD PTR _st$138119[esp+332]
  00291	51		 push	 ecx
  00292	8d 54 24 48	 lea	 edx, DWORD PTR _path$[esp+336]
  00296	52		 push	 edx
  00297	e8 00 00 00 00	 call	 __stat64
  0029c	83 c4 08	 add	 esp, 8
  0029f	85 c0		 test	 eax, eax
  002a1	75 07		 jne	 SHORT $LN53@DoTrueCryp
  002a3	8d 44 24 44	 lea	 eax, DWORD PTR _path$[esp+332]
  002a7	50		 push	 eax
  002a8	ff d7		 call	 edi
$LN53@DoTrueCryp:

; 591  : 		}
; 592  : 
; 593  : 		/* License.txt */
; 594  : 		if (_snprintf (path, sizeof (path) - 1, "%s%s", UninstallationPath, "License.txt") >= 0)

  002aa	68 00 00 00 00	 push	 OFFSET ??_C@_0M@HNDLNFKG@License?4txt?$AA@
  002af	68 00 00 00 00	 push	 OFFSET ?UninstallationPath@@3PADA ; UninstallationPath
  002b4	68 00 00 00 00	 push	 OFFSET ??_C@_04HDOCAJNK@?$CFs?$CFs?$AA@
  002b9	8d 4c 24 50	 lea	 ecx, DWORD PTR _path$[esp+344]
  002bd	68 03 01 00 00	 push	 259			; 00000103H
  002c2	51		 push	 ecx
  002c3	e8 00 00 00 00	 call	 __snprintf
  002c8	83 c4 14	 add	 esp, 20			; 00000014H
  002cb	85 c0		 test	 eax, eax
  002cd	7c 39		 jl	 SHORT $LN60@DoTrueCryp

; 595  : 		{
; 596  : 			RemoveMessage (hwndDlg, path);

  002cf	83 3d 00 00 00
	00 00		 cmp	 DWORD PTR _Rollback, 0
  002d6	75 13		 jne	 SHORT $LN56@DoTrueCryp
  002d8	8d 54 24 44	 lea	 edx, DWORD PTR _path$[esp+332]
  002dc	52		 push	 edx
  002dd	68 00 00 00 00	 push	 OFFSET ??_C@_08GLIOLGPM@REMOVING?$AA@
  002e2	56		 push	 esi
  002e3	e8 00 00 00 00	 call	 _StatusMessageParam
  002e8	83 c4 0c	 add	 esp, 12			; 0000000cH
$LN56@DoTrueCryp:

; 597  : 			StatDeleteFile (path);

  002eb	8d 44 24 0c	 lea	 eax, DWORD PTR _st$138129[esp+332]
  002ef	50		 push	 eax
  002f0	8d 4c 24 48	 lea	 ecx, DWORD PTR _path$[esp+336]
  002f4	51		 push	 ecx
  002f5	e8 00 00 00 00	 call	 __stat64
  002fa	83 c4 08	 add	 esp, 8
  002fd	85 c0		 test	 eax, eax
  002ff	75 07		 jne	 SHORT $LN60@DoTrueCryp
  00301	8d 54 24 44	 lea	 edx, DWORD PTR _path$[esp+332]
  00305	52		 push	 edx
  00306	ff d7		 call	 edi
$LN60@DoTrueCryp:

; 598  : 		}
; 599  : 
; 600  : 		strcpy(path, UninstallationPath);

  00308	33 c0		 xor	 eax, eax
  0030a	8d 9b 00 00 00
	00		 npad	 6
$LL13@DoTrueCryp:
  00310	8a 88 00 00 00
	00		 mov	 cl, BYTE PTR ?UninstallationPath@@3PADA[eax]
  00316	88 4c 04 44	 mov	 BYTE PTR _path$[esp+eax+332], cl
  0031a	40		 inc	 eax
  0031b	84 c9		 test	 cl, cl
  0031d	75 f1		 jne	 SHORT $LL13@DoTrueCryp

; 601  : 
; 602  : 		/* Remove trailing backslash. */
; 603  : 		size_t len = strlen (path);

  0031f	8d 44 24 44	 lea	 eax, DWORD PTR _path$[esp+332]
  00323	8d 50 01	 lea	 edx, DWORD PTR [eax+1]
$LL75@DoTrueCryp:
  00326	8a 08		 mov	 cl, BYTE PTR [eax]
  00328	40		 inc	 eax
  00329	84 c9		 test	 cl, cl
  0032b	75 f9		 jne	 SHORT $LL75@DoTrueCryp
  0032d	2b c2		 sub	 eax, edx

; 604  : 		if (path[len - 1] == '\\')

  0032f	80 7c 04 43 5c	 cmp	 BYTE PTR _path$[esp+eax+331], 92 ; 0000005cH
  00334	8d 44 04 43	 lea	 eax, DWORD PTR _path$[esp+eax+331]
  00338	75 02		 jne	 SHORT $LN2@DoTrueCryp

; 605  : 			path[len - 1] = 0;

  0033a	88 08		 mov	 BYTE PTR [eax], cl
$LN2@DoTrueCryp:

; 606  : 
; 607  : 		/* Remove directory */
; 608  : 		RemoveMessage (hwndDlg, path);

  0033c	83 3d 00 00 00
	00 00		 cmp	 DWORD PTR _Rollback, 0
  00343	75 13		 jne	 SHORT $LN63@DoTrueCryp
  00345	8d 44 24 44	 lea	 eax, DWORD PTR _path$[esp+332]
  00349	50		 push	 eax
  0034a	68 00 00 00 00	 push	 OFFSET ??_C@_08GLIOLGPM@REMOVING?$AA@
  0034f	56		 push	 esi
  00350	e8 00 00 00 00	 call	 _StatusMessageParam
  00355	83 c4 0c	 add	 esp, 12			; 0000000cH
$LN63@DoTrueCryp:

; 609  : 		if (!StatRemoveDirectory (path))

  00358	8d 4c 24 0c	 lea	 ecx, DWORD PTR _st$138138[esp+332]
  0035c	51		 push	 ecx
  0035d	8d 54 24 48	 lea	 edx, DWORD PTR _path$[esp+336]
  00361	52		 push	 edx
  00362	e8 00 00 00 00	 call	 __stat64
  00367	83 c4 08	 add	 esp, 8
  0036a	85 c0		 test	 eax, eax
  0036c	75 32		 jne	 SHORT $LN78@DoTrueCryp
  0036e	8d 44 24 44	 lea	 eax, DWORD PTR _path$[esp+332]
  00372	50		 push	 eax
  00373	ff 15 00 00 00
	00		 call	 DWORD PTR __imp__RemoveDirectoryA@4
  00379	85 c0		 test	 eax, eax
  0037b	75 23		 jne	 SHORT $LN78@DoTrueCryp

; 610  : 		{
; 611  : 			handleWin32Error (hwndDlg);

  0037d	56		 push	 esi
  0037e	e8 00 00 00 00	 call	 _handleWin32Error
  00383	83 c4 04	 add	 esp, 4
  00386	5f		 pop	 edi
  00387	5e		 pop	 esi

; 612  : 			bOK = FALSE;

  00388	33 c0		 xor	 eax, eax
  0038a	5b		 pop	 ebx

; 613  : 		}
; 614  : 	}
; 615  : 
; 616  : 	return bOK;
; 617  : }

  0038b	8b 8c 24 3c 01
	00 00		 mov	 ecx, DWORD PTR __$ArrayPad$[esp+320]
  00392	33 cc		 xor	 ecx, esp
  00394	e8 00 00 00 00	 call	 @__security_check_cookie@4
  00399	81 c4 40 01 00
	00		 add	 esp, 320		; 00000140H
  0039f	c3		 ret	 0
$LN78@DoTrueCryp:
  003a0	8b 8c 24 48 01
	00 00		 mov	 ecx, DWORD PTR __$ArrayPad$[esp+332]
  003a7	5f		 pop	 edi
  003a8	5e		 pop	 esi
  003a9	8b c3		 mov	 eax, ebx
  003ab	5b		 pop	 ebx
  003ac	33 cc		 xor	 ecx, esp
  003ae	e8 00 00 00 00	 call	 @__security_check_cookie@4
  003b3	81 c4 40 01 00
	00		 add	 esp, 320		; 00000140H
  003b9	c3		 ret	 0
_DoTrueCryptFilesUninstall ENDP
_TEXT	ENDS
PUBLIC	??_C@_0P@LLMHDMAL@COM_REG_FAILED?$AA@		; `string'
PUBLIC	??_C@_0BD@HFNFAFOP@REG_INSTALL_FAILED?$AA@	; `string'
PUBLIC	??_C@_0BB@GIJFLPKB@MigrationVersion?$AA@	; `string'
PUBLIC	??_C@_0O@PNHONFDO@MigrationPath?$AA@		; `string'
PUBLIC	??_C@_0BB@FKJFEMO@InstallationPath?$AA@		; `string'
PUBLIC	??_C@_0BE@GEGOEFMH@Software?2CipherShed?$AA@	; `string'
PUBLIC	??_C@_09PNIDBPNC@Publisher?$AA@			; `string'
PUBLIC	??_C@_0BD@GIJEKPBA@CipherShed?5Project?$AA@	; `string'
PUBLIC	??_C@_0M@MLHPPPJP@DisplayName?$AA@		; `string'
PUBLIC	??_C@_0M@DDCGOGKB@DisplayIcon?$AA@		; `string'
PUBLIC	??_C@_0BJ@BAIMPNHC@?$CC?$CFsCipherShed?9Setup?4exe?$CC?$AA@ ; `string'
PUBLIC	??_C@_0L@OGHNHFGG@ModifyPath?$AA@		; `string'
PUBLIC	??_C@_0BM@MPJKHKFC@?$CC?$CFsCipherShed?9Setup?4exe?$CC?5?1c?$AA@ ; `string'
PUBLIC	??_C@_0BA@OJMJCMCH@UninstallString?$AA@		; `string'
PUBLIC	??_C@_0BM@NDACMPIF@?$CC?$CFsCipherShed?9Setup?4exe?$CC?5?1u?$AA@ ; `string'
PUBLIC	??_C@_0N@CIJCJNDA@URLInfoAbout?$AA@		; `string'
PUBLIC	??_C@_0BI@INHGIDBI@https?3?1?1ciphershed?4org?1?$AA@ ; `string'
PUBLIC	??_C@_0P@BNDLMAIF@DisplayVersion?$AA@		; `string'
PUBLIC	??_C@_05JPPCAGFG@0?47?43?$AA@			; `string'
PUBLIC	??_C@_0DO@FLBIDANE@Software?2Microsoft?2Windows?2Curre@ ; `string'
PUBLIC	??_C@_0BA@OLBPPLP@TrueCryptVolume?$AA@		; `string'
PUBLIC	??_C@_0BF@MHIJGGNK@Software?2Classes?2?4tc?$AA@	; `string'
PUBLIC	??_C@_0BM@JMPIFFGC@?$CC?$CFsCipherShed?4exe?$CC?5?1v?5?$CC?$CF?$CF1?$CC?$AA@ ; `string'
PUBLIC	??_C@_0DE@JBHHIJAN@Software?2Classes?2TrueCryptVolume@ ; `string'
PUBLIC	??_C@_0BD@CFGFJIC@?$CFsCipherShed?4exe?01?$AA@	; `string'
PUBLIC	??_C@_0CN@DNPKJBAH@Software?2Classes?2TrueCryptVolume@ ; `string'
PUBLIC	??_C@_0P@LGELIEHB@AppUserModelID?$AA@		; `string'
PUBLIC	??_C@_03BMPLCLAP@?$CFws?$AA@			; `string'
PUBLIC	??_C@_1DK@KHACNMIN@?$AAC?$AAi?$AAp?$AAh?$AAe?$AAr?$AAS?$AAh?$AAe?$AAd?$AAP?$AAr?$AAo?$AAj?$AAe?$AAc?$AAt?$AA?4?$AAC?$AAi?$AAp?$AAh?$AAe?$AAr?$AAS?$AAh?$AAe?$AAd?$AA?$AA@ ; `string'
PUBLIC	??_C@_0BC@NFHPLCKP@CipherShed?5Volume?$AA@	; `string'
PUBLIC	??_C@_0CB@JOIIBOEC@Software?2Classes?2TrueCryptVolume@ ; `string'
PUBLIC	??_C@_0L@FEEFGEIL@CipherShed?$AA@		; `string'
PUBLIC	??_C@_0O@LOPOCHJI@?5?1a?5favorites?$AA@		; `string'
PUBLIC	??_C@_0M@JCEADJGE@?5?1a?5devices?$AA@		; `string'
PUBLIC	??_C@_0CL@INAOHPON@?$CC?$CFsCipherShed?4exe?$CC?5?1q?5preference@ ; `string'
PUBLIC	??_C@_0P@MOFIICPA@?2TrueCrypt?4exe?$AA@		; `string'
PUBLIC	??_C@_09EMKKFGIH@TrueCrypt?$AA@			; `string'
PUBLIC	??_C@_00CNPNBAHC@?$AA@				; `string'
PUBLIC	??_C@_01KICIPPFI@?2?$AA@			; `string'
PUBLIC	_hwndDlg$GSCopy$
PUBLIC	__$ArrayPad$
PUBLIC	_DoRegInstall
EXTRN	_RegisterComServers:PROC
EXTRN	_IsOSAtLeast:PROC
EXTRN	_Error:PROC
EXTRN	__imp__SHChangeNotify@16:PROC
EXTRN	_ReadLocalMachineRegistryString:PROC
EXTRN	__imp__RegCloseKey@4:PROC
EXTRN	_sprintf_s:PROC
EXTRN	__imp__RegCreateKeyExA@36:PROC
EXTRN	__imp__RegSetValueExA@24:PROC
EXTRN	_DeleteRegistryValue:PROC
EXTRN	_WriteRegistryString:PROC
EXTRN	_ReadRegistryString:PROC
EXTRN	_GetStartupRegKeyName:PROC
EXTRN	_strcat_s:PROC
;	COMDAT ??_C@_0P@LLMHDMAL@COM_REG_FAILED?$AA@
CONST	SEGMENT
??_C@_0P@LLMHDMAL@COM_REG_FAILED?$AA@ DB 'COM_REG_FAILED', 00H ; `string'
CONST	ENDS
;	COMDAT ??_C@_0BD@HFNFAFOP@REG_INSTALL_FAILED?$AA@
CONST	SEGMENT
??_C@_0BD@HFNFAFOP@REG_INSTALL_FAILED?$AA@ DB 'REG_INSTALL_FAILED', 00H ; `string'
CONST	ENDS
;	COMDAT ??_C@_0BB@GIJFLPKB@MigrationVersion?$AA@
CONST	SEGMENT
??_C@_0BB@GIJFLPKB@MigrationVersion?$AA@ DB 'MigrationVersion', 00H ; `string'
CONST	ENDS
;	COMDAT ??_C@_0O@PNHONFDO@MigrationPath?$AA@
CONST	SEGMENT
??_C@_0O@PNHONFDO@MigrationPath?$AA@ DB 'MigrationPath', 00H ; `string'
CONST	ENDS
;	COMDAT ??_C@_0BB@FKJFEMO@InstallationPath?$AA@
CONST	SEGMENT
??_C@_0BB@FKJFEMO@InstallationPath?$AA@ DB 'InstallationPath', 00H ; `string'
CONST	ENDS
;	COMDAT ??_C@_0BE@GEGOEFMH@Software?2CipherShed?$AA@
CONST	SEGMENT
??_C@_0BE@GEGOEFMH@Software?2CipherShed?$AA@ DB 'Software\CipherShed', 00H ; `string'
CONST	ENDS
;	COMDAT ??_C@_09PNIDBPNC@Publisher?$AA@
CONST	SEGMENT
??_C@_09PNIDBPNC@Publisher?$AA@ DB 'Publisher', 00H	; `string'
CONST	ENDS
;	COMDAT ??_C@_0BD@GIJEKPBA@CipherShed?5Project?$AA@
CONST	SEGMENT
??_C@_0BD@GIJEKPBA@CipherShed?5Project?$AA@ DB 'CipherShed Project', 00H ; `string'
CONST	ENDS
;	COMDAT ??_C@_0M@MLHPPPJP@DisplayName?$AA@
CONST	SEGMENT
??_C@_0M@MLHPPPJP@DisplayName?$AA@ DB 'DisplayName', 00H ; `string'
CONST	ENDS
;	COMDAT ??_C@_0M@DDCGOGKB@DisplayIcon?$AA@
CONST	SEGMENT
??_C@_0M@DDCGOGKB@DisplayIcon?$AA@ DB 'DisplayIcon', 00H ; `string'
CONST	ENDS
;	COMDAT ??_C@_0BJ@BAIMPNHC@?$CC?$CFsCipherShed?9Setup?4exe?$CC?$AA@
CONST	SEGMENT
??_C@_0BJ@BAIMPNHC@?$CC?$CFsCipherShed?9Setup?4exe?$CC?$AA@ DB '"%sCipher'
	DB	'Shed-Setup.exe"', 00H			; `string'
CONST	ENDS
;	COMDAT ??_C@_0L@OGHNHFGG@ModifyPath?$AA@
CONST	SEGMENT
??_C@_0L@OGHNHFGG@ModifyPath?$AA@ DB 'ModifyPath', 00H	; `string'
CONST	ENDS
;	COMDAT ??_C@_0BM@MPJKHKFC@?$CC?$CFsCipherShed?9Setup?4exe?$CC?5?1c?$AA@
CONST	SEGMENT
??_C@_0BM@MPJKHKFC@?$CC?$CFsCipherShed?9Setup?4exe?$CC?5?1c?$AA@ DB '"%sC'
	DB	'ipherShed-Setup.exe" /c', 00H		; `string'
CONST	ENDS
;	COMDAT ??_C@_0BA@OJMJCMCH@UninstallString?$AA@
CONST	SEGMENT
??_C@_0BA@OJMJCMCH@UninstallString?$AA@ DB 'UninstallString', 00H ; `string'
CONST	ENDS
;	COMDAT ??_C@_0BM@NDACMPIF@?$CC?$CFsCipherShed?9Setup?4exe?$CC?5?1u?$AA@
CONST	SEGMENT
??_C@_0BM@NDACMPIF@?$CC?$CFsCipherShed?9Setup?4exe?$CC?5?1u?$AA@ DB '"%sC'
	DB	'ipherShed-Setup.exe" /u', 00H		; `string'
CONST	ENDS
;	COMDAT ??_C@_0N@CIJCJNDA@URLInfoAbout?$AA@
CONST	SEGMENT
??_C@_0N@CIJCJNDA@URLInfoAbout?$AA@ DB 'URLInfoAbout', 00H ; `string'
CONST	ENDS
;	COMDAT ??_C@_0BI@INHGIDBI@https?3?1?1ciphershed?4org?1?$AA@
CONST	SEGMENT
??_C@_0BI@INHGIDBI@https?3?1?1ciphershed?4org?1?$AA@ DB 'https://ciphersh'
	DB	'ed.org/', 00H				; `string'
CONST	ENDS
;	COMDAT ??_C@_0P@BNDLMAIF@DisplayVersion?$AA@
CONST	SEGMENT
??_C@_0P@BNDLMAIF@DisplayVersion?$AA@ DB 'DisplayVersion', 00H ; `string'
CONST	ENDS
;	COMDAT ??_C@_05JPPCAGFG@0?47?43?$AA@
CONST	SEGMENT
??_C@_05JPPCAGFG@0?47?43?$AA@ DB '0.7.3', 00H		; `string'
CONST	ENDS
;	COMDAT ??_C@_0DO@FLBIDANE@Software?2Microsoft?2Windows?2Curre@
CONST	SEGMENT
??_C@_0DO@FLBIDANE@Software?2Microsoft?2Windows?2Curre@ DB 'Software\Micr'
	DB	'osoft\Windows\CurrentVersion\Uninstall\TrueCrypt', 00H ; `string'
CONST	ENDS
;	COMDAT ??_C@_0BA@OLBPPLP@TrueCryptVolume?$AA@
CONST	SEGMENT
??_C@_0BA@OLBPPLP@TrueCryptVolume?$AA@ DB 'TrueCryptVolume', 00H ; `string'
CONST	ENDS
;	COMDAT ??_C@_0BF@MHIJGGNK@Software?2Classes?2?4tc?$AA@
CONST	SEGMENT
??_C@_0BF@MHIJGGNK@Software?2Classes?2?4tc?$AA@ DB 'Software\Classes\.tc', 00H ; `string'
CONST	ENDS
;	COMDAT ??_C@_0BM@JMPIFFGC@?$CC?$CFsCipherShed?4exe?$CC?5?1v?5?$CC?$CF?$CF1?$CC?$AA@
CONST	SEGMENT
??_C@_0BM@JMPIFFGC@?$CC?$CFsCipherShed?4exe?$CC?5?1v?5?$CC?$CF?$CF1?$CC?$AA@ DB '"'
	DB	'%sCipherShed.exe" /v "%%1"', 00H		; `string'
CONST	ENDS
;	COMDAT ??_C@_0DE@JBHHIJAN@Software?2Classes?2TrueCryptVolume@
CONST	SEGMENT
??_C@_0DE@JBHHIJAN@Software?2Classes?2TrueCryptVolume@ DB 'Software\Class'
	DB	'es\TrueCryptVolume\Shell\open\command', 00H	; `string'
CONST	ENDS
;	COMDAT ??_C@_0BD@CFGFJIC@?$CFsCipherShed?4exe?01?$AA@
CONST	SEGMENT
??_C@_0BD@CFGFJIC@?$CFsCipherShed?4exe?01?$AA@ DB '%sCipherShed.exe,1', 00H ; `string'
CONST	ENDS
;	COMDAT ??_C@_0CN@DNPKJBAH@Software?2Classes?2TrueCryptVolume@
CONST	SEGMENT
??_C@_0CN@DNPKJBAH@Software?2Classes?2TrueCryptVolume@ DB 'Software\Class'
	DB	'es\TrueCryptVolume\DefaultIcon', 00H	; `string'
CONST	ENDS
;	COMDAT ??_C@_0P@LGELIEHB@AppUserModelID?$AA@
CONST	SEGMENT
??_C@_0P@LGELIEHB@AppUserModelID?$AA@ DB 'AppUserModelID', 00H ; `string'
CONST	ENDS
;	COMDAT ??_C@_03BMPLCLAP@?$CFws?$AA@
CONST	SEGMENT
??_C@_03BMPLCLAP@?$CFws?$AA@ DB '%ws', 00H		; `string'
CONST	ENDS
;	COMDAT ??_C@_1DK@KHACNMIN@?$AAC?$AAi?$AAp?$AAh?$AAe?$AAr?$AAS?$AAh?$AAe?$AAd?$AAP?$AAr?$AAo?$AAj?$AAe?$AAc?$AAt?$AA?4?$AAC?$AAi?$AAp?$AAh?$AAe?$AAr?$AAS?$AAh?$AAe?$AAd?$AA?$AA@
CONST	SEGMENT
??_C@_1DK@KHACNMIN@?$AAC?$AAi?$AAp?$AAh?$AAe?$AAr?$AAS?$AAh?$AAe?$AAd?$AAP?$AAr?$AAo?$AAj?$AAe?$AAc?$AAt?$AA?4?$AAC?$AAi?$AAp?$AAh?$AAe?$AAr?$AAS?$AAh?$AAe?$AAd?$AA?$AA@ DB 'C'
	DB	00H, 'i', 00H, 'p', 00H, 'h', 00H, 'e', 00H, 'r', 00H, 'S', 00H
	DB	'h', 00H, 'e', 00H, 'd', 00H, 'P', 00H, 'r', 00H, 'o', 00H, 'j'
	DB	00H, 'e', 00H, 'c', 00H, 't', 00H, '.', 00H, 'C', 00H, 'i', 00H
	DB	'p', 00H, 'h', 00H, 'e', 00H, 'r', 00H, 'S', 00H, 'h', 00H, 'e'
	DB	00H, 'd', 00H, 00H, 00H			; `string'
CONST	ENDS
;	COMDAT ??_C@_0BC@NFHPLCKP@CipherShed?5Volume?$AA@
CONST	SEGMENT
??_C@_0BC@NFHPLCKP@CipherShed?5Volume?$AA@ DB 'CipherShed Volume', 00H ; `string'
CONST	ENDS
;	COMDAT ??_C@_0CB@JOIIBOEC@Software?2Classes?2TrueCryptVolume@
CONST	SEGMENT
??_C@_0CB@JOIIBOEC@Software?2Classes?2TrueCryptVolume@ DB 'Software\Class'
	DB	'es\TrueCryptVolume', 00H			; `string'
CONST	ENDS
;	COMDAT ??_C@_0L@FEEFGEIL@CipherShed?$AA@
CONST	SEGMENT
??_C@_0L@FEEFGEIL@CipherShed?$AA@ DB 'CipherShed', 00H	; `string'
CONST	ENDS
;	COMDAT ??_C@_0O@LOPOCHJI@?5?1a?5favorites?$AA@
CONST	SEGMENT
??_C@_0O@LOPOCHJI@?5?1a?5favorites?$AA@ DB ' /a favorites', 00H ; `string'
CONST	ENDS
;	COMDAT ??_C@_0M@JCEADJGE@?5?1a?5devices?$AA@
CONST	SEGMENT
??_C@_0M@JCEADJGE@?5?1a?5devices?$AA@ DB ' /a devices', 00H ; `string'
CONST	ENDS
;	COMDAT ??_C@_0CL@INAOHPON@?$CC?$CFsCipherShed?4exe?$CC?5?1q?5preference@
CONST	SEGMENT
??_C@_0CL@INAOHPON@?$CC?$CFsCipherShed?4exe?$CC?5?1q?5preference@ DB '"%s'
	DB	'CipherShed.exe" /q preferences /a logon', 00H ; `string'
CONST	ENDS
;	COMDAT ??_C@_0P@MOFIICPA@?2TrueCrypt?4exe?$AA@
CONST	SEGMENT
??_C@_0P@MOFIICPA@?2TrueCrypt?4exe?$AA@ DB '\TrueCrypt.exe', 00H ; `string'
CONST	ENDS
;	COMDAT ??_C@_09EMKKFGIH@TrueCrypt?$AA@
CONST	SEGMENT
??_C@_09EMKKFGIH@TrueCrypt?$AA@ DB 'TrueCrypt', 00H	; `string'
CONST	ENDS
;	COMDAT ??_C@_00CNPNBAHC@?$AA@
CONST	SEGMENT
??_C@_00CNPNBAHC@?$AA@ DB 00H				; `string'
CONST	ENDS
;	COMDAT ??_C@_01KICIPPFI@?2?$AA@
CONST	SEGMENT
??_C@_01KICIPPFI@?2?$AA@ DB '\', 00H			; `string'
; Function compile flags: /Ogtpy
CONST	ENDS
;	COMDAT _DoRegInstall
_TEXT	SEGMENT
_hkey$ = -2164						; size = 4
_dw$ = -2160						; size = 4
_hwndDlg$GSCopy$ = -2156				; size = 4
_bOK$ = -2152						; size = 4
_typeClassSize$134358 = -2148				; size = 4
_szTmp$ = -2144						; size = 1040
_regk$134289 = -1104					; size = 64
_szDir$ = -1040						; size = 260
_exe$134290 = -780					; size = 520
_typeClass$134357 = -260				; size = 256
__$ArrayPad$ = -4					; size = 4
_hwndDlg$ = 8						; size = 4
_szDestDir$ = 12					; size = 4
_bInstallType$ = 16					; size = 4
_DoRegInstall PROC					; COMDAT

; 620  : {

  00000	81 ec 74 08 00
	00		 sub	 esp, 2164		; 00000874H
  00006	a1 00 00 00 00	 mov	 eax, DWORD PTR ___security_cookie
  0000b	33 c4		 xor	 eax, esp
  0000d	89 84 24 70 08
	00 00		 mov	 DWORD PTR __$ArrayPad$[esp+2164], eax
  00014	53		 push	 ebx
  00015	56		 push	 esi

; 621  : 	char szDir[TC_MAX_PATH], *key;
; 622  : 	char szTmp[TC_MAX_PATH*4];
; 623  : 	HKEY hkey = 0;
; 624  : 	BOOL bSlash, bOK = FALSE;
; 625  : 	DWORD dw;
; 626  : 	int x;
; 627  : 
; 628  : 	strcpy (szDir, szDestDir);

  00016	8b b4 24 84 08
	00 00		 mov	 esi, DWORD PTR _szDestDir$[esp+2168]
  0001d	33 db		 xor	 ebx, ebx
  0001f	57		 push	 edi
  00020	8b bc 24 84 08
	00 00		 mov	 edi, DWORD PTR _hwndDlg$[esp+2172]
  00027	8d 94 24 70 04
	00 00		 lea	 edx, DWORD PTR _szDir$[esp+2176]
  0002e	89 7c 24 14	 mov	 DWORD PTR _hwndDlg$GSCopy$[esp+2176], edi
  00032	89 5c 24 0c	 mov	 DWORD PTR _hkey$[esp+2176], ebx
  00036	89 5c 24 18	 mov	 DWORD PTR _bOK$[esp+2176], ebx
  0003a	8b c6		 mov	 eax, esi
  0003c	2b d6		 sub	 edx, esi
  0003e	8b ff		 npad	 2
$LL62@DoRegInsta:
  00040	8a 08		 mov	 cl, BYTE PTR [eax]
  00042	88 0c 02	 mov	 BYTE PTR [edx+eax], cl
  00045	40		 inc	 eax
  00046	3a cb		 cmp	 cl, bl
  00048	75 f6		 jne	 SHORT $LL62@DoRegInsta

; 629  : 	x = strlen (szDestDir);

  0004a	8b c6		 mov	 eax, esi
  0004c	8d 50 01	 lea	 edx, DWORD PTR [eax+1]
  0004f	90		 npad	 1
$LL75@DoRegInsta:
  00050	8a 08		 mov	 cl, BYTE PTR [eax]
  00052	40		 inc	 eax
  00053	3a cb		 cmp	 cl, bl
  00055	75 f9		 jne	 SHORT $LL75@DoRegInsta
  00057	2b c2		 sub	 eax, edx

; 630  : 	if (szDestDir[x - 1] == '\\')

  00059	80 7c 30 ff 5c	 cmp	 BYTE PTR [eax+esi-1], 92 ; 0000005cH

; 631  : 		bSlash = TRUE;
; 632  : 	else

  0005e	74 1a		 je	 SHORT $LN57@DoRegInsta

; 633  : 		bSlash = FALSE;
; 634  : 
; 635  : 	if (bSlash == FALSE)
; 636  : 		strcat_s (szDir, sizeof(szDir), "\\");

  00060	68 00 00 00 00	 push	 OFFSET ??_C@_01KICIPPFI@?2?$AA@
  00065	8d 84 24 74 04
	00 00		 lea	 eax, DWORD PTR _szDir$[esp+2180]
  0006c	68 04 01 00 00	 push	 260			; 00000104H
  00071	50		 push	 eax
  00072	e8 00 00 00 00	 call	 _strcat_s
  00077	83 c4 0c	 add	 esp, 12			; 0000000cH
$LN57@DoRegInsta:

; 637  : 
; 638  : 	/* CipherShed registry migration. */
; 639  : 	if (bCipherShedMigration)

  0007a	39 1d 00 00 00
	00		 cmp	 DWORD PTR _bCipherShedMigration, ebx
  00080	0f 84 c7 03 00
	00		 je	 $LN56@DoRegInsta

; 640  : 	{
; 641  : 		/* Gui autorun entry. */
; 642  : 		char regk[64];
; 643  : 		char exe[MAX_PATH * 2] = { 0 }; // terminating null character

  00086	68 07 02 00 00	 push	 519			; 00000207H
  0008b	8d 8c 24 79 05
	00 00		 lea	 ecx, DWORD PTR _exe$134290[esp+2181]
  00092	53		 push	 ebx
  00093	51		 push	 ecx
  00094	88 9c 24 80 05
	00 00		 mov	 BYTE PTR _exe$134290[esp+2188], bl
  0009b	e8 00 00 00 00	 call	 _memset

; 644  : 
; 645  : 		GetStartupRegKeyName (regk);

  000a0	8d 94 24 3c 04
	00 00		 lea	 edx, DWORD PTR _regk$134289[esp+2188]
  000a7	52		 push	 edx
  000a8	e8 00 00 00 00	 call	 _GetStartupRegKeyName

; 646  : 		ReadRegistryString (regk, "TrueCrypt", "", szTmp, sizeof (szTmp));

  000ad	68 10 04 00 00	 push	 1040			; 00000410H
  000b2	8d 44 24 34	 lea	 eax, DWORD PTR _szTmp$[esp+2196]
  000b6	50		 push	 eax
  000b7	68 00 00 00 00	 push	 OFFSET ??_C@_00CNPNBAHC@?$AA@
  000bc	8d 8c 24 4c 04
	00 00		 lea	 ecx, DWORD PTR _regk$134289[esp+2204]
  000c3	68 00 00 00 00	 push	 OFFSET ??_C@_09EMKKFGIH@TrueCrypt?$AA@
  000c8	51		 push	 ecx
  000c9	e8 00 00 00 00	 call	 _ReadRegistryString

; 647  : 
; 648  : 		if (strstr (szTmp, "\\TrueCrypt.exe") &&
; 649  : 			_snprintf (exe, sizeof (exe) - 32, "\"%sCipherShed.exe\" /q preferences /a logon", szDir) >= 0)

  000ce	8d 54 24 44	 lea	 edx, DWORD PTR _szTmp$[esp+2212]
  000d2	68 00 00 00 00	 push	 OFFSET ??_C@_0P@MOFIICPA@?2TrueCrypt?4exe?$AA@
  000d7	52		 push	 edx
  000d8	e8 00 00 00 00	 call	 _strstr
  000dd	83 c4 2c	 add	 esp, 44			; 0000002cH
  000e0	85 c0		 test	 eax, eax
  000e2	0f 84 a3 00 00
	00		 je	 $LN55@DoRegInsta
  000e8	8d 84 24 70 04
	00 00		 lea	 eax, DWORD PTR _szDir$[esp+2176]
  000ef	50		 push	 eax
  000f0	68 00 00 00 00	 push	 OFFSET ??_C@_0CL@INAOHPON@?$CC?$CFsCipherShed?4exe?$CC?5?1q?5preference@
  000f5	8d 8c 24 7c 05
	00 00		 lea	 ecx, DWORD PTR _exe$134290[esp+2184]
  000fc	68 e8 01 00 00	 push	 488			; 000001e8H
  00101	51		 push	 ecx
  00102	e8 00 00 00 00	 call	 __snprintf
  00107	83 c4 10	 add	 esp, 16			; 00000010H
  0010a	85 c0		 test	 eax, eax
  0010c	7c 7d		 jl	 SHORT $LN55@DoRegInsta

; 650  : 		{
; 651  : 			if (strstr (szTmp, " /a devices"))

  0010e	8d 54 24 20	 lea	 edx, DWORD PTR _szTmp$[esp+2176]
  00112	68 00 00 00 00	 push	 OFFSET ??_C@_0M@JCEADJGE@?5?1a?5devices?$AA@
  00117	52		 push	 edx
  00118	e8 00 00 00 00	 call	 _strstr
  0011d	83 c4 08	 add	 esp, 8
  00120	85 c0		 test	 eax, eax
  00122	74 1a		 je	 SHORT $LN54@DoRegInsta

; 652  : 				strcat_s (exe, sizeof(exe), " /a devices");

  00124	68 00 00 00 00	 push	 OFFSET ??_C@_0M@JCEADJGE@?5?1a?5devices?$AA@
  00129	8d 84 24 78 05
	00 00		 lea	 eax, DWORD PTR _exe$134290[esp+2180]
  00130	68 08 02 00 00	 push	 520			; 00000208H
  00135	50		 push	 eax
  00136	e8 00 00 00 00	 call	 _strcat_s
  0013b	83 c4 0c	 add	 esp, 12			; 0000000cH
$LN54@DoRegInsta:

; 653  : 			if (strstr (szTmp, " /a favorites"))

  0013e	8d 4c 24 20	 lea	 ecx, DWORD PTR _szTmp$[esp+2176]
  00142	68 00 00 00 00	 push	 OFFSET ??_C@_0O@LOPOCHJI@?5?1a?5favorites?$AA@
  00147	51		 push	 ecx
  00148	e8 00 00 00 00	 call	 _strstr
  0014d	83 c4 08	 add	 esp, 8
  00150	85 c0		 test	 eax, eax
  00152	74 1a		 je	 SHORT $LN53@DoRegInsta

; 654  : 				strcat_s (exe, sizeof(exe), " /a favorites");

  00154	68 00 00 00 00	 push	 OFFSET ??_C@_0O@LOPOCHJI@?5?1a?5favorites?$AA@
  00159	8d 94 24 78 05
	00 00		 lea	 edx, DWORD PTR _exe$134290[esp+2180]
  00160	68 08 02 00 00	 push	 520			; 00000208H
  00165	52		 push	 edx
  00166	e8 00 00 00 00	 call	 _strcat_s
  0016b	83 c4 0c	 add	 esp, 12			; 0000000cH
$LN53@DoRegInsta:

; 655  : 
; 656  : 			WriteRegistryString (regk, "CipherShed", exe);

  0016e	8d 84 24 74 05
	00 00		 lea	 eax, DWORD PTR _exe$134290[esp+2176]
  00175	50		 push	 eax
  00176	8d 8c 24 34 04
	00 00		 lea	 ecx, DWORD PTR _regk$134289[esp+2180]
  0017d	68 00 00 00 00	 push	 OFFSET ??_C@_0L@FEEFGEIL@CipherShed?$AA@
  00182	51		 push	 ecx
  00183	e8 00 00 00 00	 call	 _WriteRegistryString
  00188	83 c4 0c	 add	 esp, 12			; 0000000cH
$LN55@DoRegInsta:

; 657  : 		}
; 658  : 
; 659  : 		DeleteRegistryValue (regk, "TrueCrypt");

  0018b	8d 94 24 30 04
	00 00		 lea	 edx, DWORD PTR _regk$134289[esp+2176]
  00192	68 00 00 00 00	 push	 OFFSET ??_C@_09EMKKFGIH@TrueCrypt?$AA@
  00197	52		 push	 edx
  00198	e8 00 00 00 00	 call	 _DeleteRegistryValue
  0019d	83 c4 08	 add	 esp, 8
$LN51@DoRegInsta:

; 677  : 	}
; 678  : 
; 679  : 	if (bInstallType)

  001a0	8b 35 00 00 00
	00		 mov	 esi, DWORD PTR __imp__RegSetValueExA@24
  001a6	55		 push	 ebp
  001a7	8b 2d 00 00 00
	00		 mov	 ebp, DWORD PTR __imp__RegCreateKeyExA@36
  001ad	39 9c 24 90 08
	00 00		 cmp	 DWORD PTR _bInstallType$[esp+2176], ebx
  001b4	0f 84 52 04 00
	00		 je	 $LN29@DoRegInsta

; 680  : 	{
; 681  : 
; 682  : 		key = "Software\\Classes\\TrueCryptVolume";
; 683  : 		RegMessage (hwndDlg, key);

  001ba	68 00 00 00 00	 push	 OFFSET ??_C@_0CB@JOIIBOEC@Software?2Classes?2TrueCryptVolume@
  001bf	68 00 00 00 00	 push	 OFFSET ??_C@_0L@LFAEJJAB@ADDING_REG?$AA@
  001c4	57		 push	 edi
  001c5	e8 00 00 00 00	 call	 _StatusMessageParam
  001ca	83 c4 0c	 add	 esp, 12			; 0000000cH

; 684  : 		if (RegCreateKeyEx (HKEY_LOCAL_MACHINE,
; 685  : 				    key,
; 686  : 				    0, NULL, REG_OPTION_NON_VOLATILE, KEY_WRITE, NULL, &hkey, &dw) != ERROR_SUCCESS)

  001cd	8d 44 24 14	 lea	 eax, DWORD PTR _dw$[esp+2180]
  001d1	50		 push	 eax
  001d2	8d 4c 24 14	 lea	 ecx, DWORD PTR _hkey$[esp+2184]
  001d6	51		 push	 ecx
  001d7	53		 push	 ebx
  001d8	68 06 00 02 00	 push	 131078			; 00020006H
  001dd	53		 push	 ebx
  001de	53		 push	 ebx
  001df	53		 push	 ebx
  001e0	68 00 00 00 00	 push	 OFFSET ??_C@_0CB@JOIIBOEC@Software?2Classes?2TrueCryptVolume@
  001e5	68 02 00 00 80	 push	 -2147483646		; 80000002H
  001ea	ff d5		 call	 ebp
  001ec	85 c0		 test	 eax, eax
  001ee	0f 85 95 07 00
	00		 jne	 $error$134319

; 687  : 			goto error;
; 688  : 
; 689  : 		strcpy (szTmp, "CipherShed Volume");

  001f4	a1 04 00 00 00	 mov	 eax, DWORD PTR ??_C@_0BC@NFHPLCKP@CipherShed?5Volume?$AA@+4
  001f9	8b 15 00 00 00
	00		 mov	 edx, DWORD PTR ??_C@_0BC@NFHPLCKP@CipherShed?5Volume?$AA@
  001ff	8b 0d 08 00 00
	00		 mov	 ecx, DWORD PTR ??_C@_0BC@NFHPLCKP@CipherShed?5Volume?$AA@+8
  00205	89 44 24 28	 mov	 DWORD PTR _szTmp$[esp+2184], eax
  00209	66 a1 10 00 00
	00		 mov	 ax, WORD PTR ??_C@_0BC@NFHPLCKP@CipherShed?5Volume?$AA@+16
  0020f	89 54 24 24	 mov	 DWORD PTR _szTmp$[esp+2180], edx
  00213	8b 15 0c 00 00
	00		 mov	 edx, DWORD PTR ??_C@_0BC@NFHPLCKP@CipherShed?5Volume?$AA@+12
  00219	66 89 44 24 34	 mov	 WORD PTR _szTmp$[esp+2196], ax

; 690  : 		if (RegSetValueEx (hkey, "", 0, REG_SZ, (BYTE *) szTmp, strlen (szTmp) + 1) != ERROR_SUCCESS)

  0021e	8d 44 24 24	 lea	 eax, DWORD PTR _szTmp$[esp+2180]
  00222	89 54 24 30	 mov	 DWORD PTR _szTmp$[esp+2192], edx
  00226	89 4c 24 2c	 mov	 DWORD PTR _szTmp$[esp+2188], ecx
  0022a	8d 50 01	 lea	 edx, DWORD PTR [eax+1]
  0022d	8d 49 00	 npad	 3
$LL78@DoRegInsta:
  00230	8a 08		 mov	 cl, BYTE PTR [eax]
  00232	40		 inc	 eax
  00233	3a cb		 cmp	 cl, bl
  00235	75 f9		 jne	 SHORT $LL78@DoRegInsta
  00237	2b c2		 sub	 eax, edx
  00239	8b 54 24 10	 mov	 edx, DWORD PTR _hkey$[esp+2180]
  0023d	40		 inc	 eax
  0023e	50		 push	 eax
  0023f	8d 4c 24 28	 lea	 ecx, DWORD PTR _szTmp$[esp+2184]
  00243	51		 push	 ecx
  00244	6a 01		 push	 1
  00246	53		 push	 ebx
  00247	68 00 00 00 00	 push	 OFFSET ??_C@_00CNPNBAHC@?$AA@
  0024c	52		 push	 edx
  0024d	ff d6		 call	 esi
  0024f	85 c0		 test	 eax, eax
  00251	0f 85 32 07 00
	00		 jne	 $error$134319

; 691  : 			goto error;
; 692  : 
; 693  : 		snprintf (szTmp, sizeof(szTmp), "%ws", TC_APPLICATION_ID);

  00257	68 00 00 00 00	 push	 OFFSET ??_C@_1DK@KHACNMIN@?$AAC?$AAi?$AAp?$AAh?$AAe?$AAr?$AAS?$AAh?$AAe?$AAd?$AAP?$AAr?$AAo?$AAj?$AAe?$AAc?$AAt?$AA?4?$AAC?$AAi?$AAp?$AAh?$AAe?$AAr?$AAS?$AAh?$AAe?$AAd?$AA?$AA@
  0025c	68 00 00 00 00	 push	 OFFSET ??_C@_03BMPLCLAP@?$CFws?$AA@
  00261	8d 44 24 2c	 lea	 eax, DWORD PTR _szTmp$[esp+2188]
  00265	68 10 04 00 00	 push	 1040			; 00000410H
  0026a	50		 push	 eax
  0026b	e8 00 00 00 00	 call	 _sprintf_s

; 694  : 		if (RegSetValueEx (hkey, "AppUserModelID", 0, REG_SZ, (BYTE *) szTmp, strlen (szTmp) + 1) != ERROR_SUCCESS)

  00270	8d 44 24 34	 lea	 eax, DWORD PTR _szTmp$[esp+2196]
  00274	83 c4 10	 add	 esp, 16			; 00000010H
  00277	8d 50 01	 lea	 edx, DWORD PTR [eax+1]
  0027a	8d 9b 00 00 00
	00		 npad	 6
$LL79@DoRegInsta:
  00280	8a 08		 mov	 cl, BYTE PTR [eax]
  00282	40		 inc	 eax
  00283	3a cb		 cmp	 cl, bl
  00285	75 f9		 jne	 SHORT $LL79@DoRegInsta
  00287	2b c2		 sub	 eax, edx
  00289	8b 54 24 10	 mov	 edx, DWORD PTR _hkey$[esp+2180]
  0028d	40		 inc	 eax
  0028e	50		 push	 eax
  0028f	8d 4c 24 28	 lea	 ecx, DWORD PTR _szTmp$[esp+2184]
  00293	51		 push	 ecx
  00294	6a 01		 push	 1
  00296	53		 push	 ebx
  00297	68 00 00 00 00	 push	 OFFSET ??_C@_0P@LGELIEHB@AppUserModelID?$AA@
  0029c	52		 push	 edx
  0029d	ff d6		 call	 esi
  0029f	85 c0		 test	 eax, eax
  002a1	0f 85 e2 06 00
	00		 jne	 $error$134319

; 695  : 			goto error;
; 696  : 
; 697  : 		RegCloseKey (hkey);

  002a7	8b 44 24 10	 mov	 eax, DWORD PTR _hkey$[esp+2180]
  002ab	50		 push	 eax
  002ac	ff 15 00 00 00
	00		 call	 DWORD PTR __imp__RegCloseKey@4

; 698  : 		hkey = 0;
; 699  : 
; 700  : 		key = "Software\\Classes\\TrueCryptVolume\\DefaultIcon";
; 701  : 		RegMessage (hwndDlg, key);

  002b2	68 00 00 00 00	 push	 OFFSET ??_C@_0CN@DNPKJBAH@Software?2Classes?2TrueCryptVolume@
  002b7	57		 push	 edi
  002b8	89 5c 24 18	 mov	 DWORD PTR _hkey$[esp+2188], ebx
  002bc	e8 00 00 00 00	 call	 _RegMessage
  002c1	83 c4 08	 add	 esp, 8

; 702  : 		if (RegCreateKeyEx (HKEY_LOCAL_MACHINE,
; 703  : 				    key,
; 704  : 				    0, NULL, REG_OPTION_NON_VOLATILE, KEY_WRITE, NULL, &hkey, &dw) != ERROR_SUCCESS)

  002c4	8d 4c 24 14	 lea	 ecx, DWORD PTR _dw$[esp+2180]
  002c8	51		 push	 ecx
  002c9	8d 54 24 14	 lea	 edx, DWORD PTR _hkey$[esp+2184]
  002cd	52		 push	 edx
  002ce	53		 push	 ebx
  002cf	68 06 00 02 00	 push	 131078			; 00020006H
  002d4	53		 push	 ebx
  002d5	53		 push	 ebx
  002d6	53		 push	 ebx
  002d7	68 00 00 00 00	 push	 OFFSET ??_C@_0CN@DNPKJBAH@Software?2Classes?2TrueCryptVolume@
  002dc	68 02 00 00 80	 push	 -2147483646		; 80000002H
  002e1	ff d5		 call	 ebp
  002e3	85 c0		 test	 eax, eax
  002e5	0f 85 9e 06 00
	00		 jne	 $error$134319

; 705  : 			goto error;
; 706  : 
; 707  : 		snprintf (szTmp, sizeof(szTmp), "%sCipherShed.exe,1", szDir);

  002eb	8d 84 24 74 04
	00 00		 lea	 eax, DWORD PTR _szDir$[esp+2180]
  002f2	50		 push	 eax
  002f3	68 00 00 00 00	 push	 OFFSET ??_C@_0BD@CFGFJIC@?$CFsCipherShed?4exe?01?$AA@
  002f8	8d 4c 24 2c	 lea	 ecx, DWORD PTR _szTmp$[esp+2188]
  002fc	68 10 04 00 00	 push	 1040			; 00000410H
  00301	51		 push	 ecx
  00302	e8 00 00 00 00	 call	 _sprintf_s

; 708  : 		if (RegSetValueEx (hkey, "", 0, REG_SZ, (BYTE *) szTmp, strlen (szTmp) + 1) != ERROR_SUCCESS)

  00307	8d 44 24 34	 lea	 eax, DWORD PTR _szTmp$[esp+2196]
  0030b	83 c4 10	 add	 esp, 16			; 00000010H
  0030e	8d 50 01	 lea	 edx, DWORD PTR [eax+1]
$LL80@DoRegInsta:
  00311	8a 08		 mov	 cl, BYTE PTR [eax]
  00313	40		 inc	 eax
  00314	3a cb		 cmp	 cl, bl
  00316	75 f9		 jne	 SHORT $LL80@DoRegInsta
  00318	2b c2		 sub	 eax, edx
  0031a	40		 inc	 eax
  0031b	50		 push	 eax
  0031c	8b 44 24 14	 mov	 eax, DWORD PTR _hkey$[esp+2184]
  00320	8d 54 24 28	 lea	 edx, DWORD PTR _szTmp$[esp+2184]
  00324	52		 push	 edx
  00325	6a 01		 push	 1
  00327	53		 push	 ebx
  00328	68 00 00 00 00	 push	 OFFSET ??_C@_00CNPNBAHC@?$AA@
  0032d	50		 push	 eax
  0032e	ff d6		 call	 esi
  00330	85 c0		 test	 eax, eax
  00332	0f 85 51 06 00
	00		 jne	 $error$134319

; 709  : 			goto error;
; 710  : 
; 711  : 		RegCloseKey (hkey);

  00338	8b 4c 24 10	 mov	 ecx, DWORD PTR _hkey$[esp+2180]
  0033c	51		 push	 ecx
  0033d	ff 15 00 00 00
	00		 call	 DWORD PTR __imp__RegCloseKey@4

; 712  : 		hkey = 0;
; 713  : 
; 714  : 		key = "Software\\Classes\\TrueCryptVolume\\Shell\\open\\command";
; 715  : 		RegMessage (hwndDlg, key);

  00343	68 00 00 00 00	 push	 OFFSET ??_C@_0DE@JBHHIJAN@Software?2Classes?2TrueCryptVolume@
  00348	57		 push	 edi
  00349	89 5c 24 18	 mov	 DWORD PTR _hkey$[esp+2188], ebx
  0034d	e8 00 00 00 00	 call	 _RegMessage
  00352	83 c4 08	 add	 esp, 8

; 716  : 		if (RegCreateKeyEx (HKEY_LOCAL_MACHINE,
; 717  : 				    key,
; 718  : 				    0, NULL, REG_OPTION_NON_VOLATILE, KEY_WRITE, NULL, &hkey, &dw) != ERROR_SUCCESS)

  00355	8d 54 24 14	 lea	 edx, DWORD PTR _dw$[esp+2180]
  00359	52		 push	 edx
  0035a	8d 44 24 14	 lea	 eax, DWORD PTR _hkey$[esp+2184]
  0035e	50		 push	 eax
  0035f	53		 push	 ebx
  00360	68 06 00 02 00	 push	 131078			; 00020006H
  00365	53		 push	 ebx
  00366	53		 push	 ebx
  00367	53		 push	 ebx
  00368	68 00 00 00 00	 push	 OFFSET ??_C@_0DE@JBHHIJAN@Software?2Classes?2TrueCryptVolume@
  0036d	68 02 00 00 80	 push	 -2147483646		; 80000002H
  00372	ff d5		 call	 ebp
  00374	85 c0		 test	 eax, eax
  00376	0f 85 0d 06 00
	00		 jne	 $error$134319

; 719  : 			goto error;
; 720  : 
; 721  : 		snprintf (szTmp, sizeof(szTmp), "\"%sCipherShed.exe\" /v \"%%1\"", szDir );

  0037c	8d 8c 24 74 04
	00 00		 lea	 ecx, DWORD PTR _szDir$[esp+2180]
  00383	51		 push	 ecx
  00384	68 00 00 00 00	 push	 OFFSET ??_C@_0BM@JMPIFFGC@?$CC?$CFsCipherShed?4exe?$CC?5?1v?5?$CC?$CF?$CF1?$CC?$AA@
  00389	8d 54 24 2c	 lea	 edx, DWORD PTR _szTmp$[esp+2188]
  0038d	68 10 04 00 00	 push	 1040			; 00000410H
  00392	52		 push	 edx
  00393	e8 00 00 00 00	 call	 _sprintf_s

; 722  : 		if (RegSetValueEx (hkey, "", 0, REG_SZ, (BYTE *) szTmp, strlen (szTmp) + 1) != ERROR_SUCCESS)

  00398	8d 44 24 34	 lea	 eax, DWORD PTR _szTmp$[esp+2196]
  0039c	83 c4 10	 add	 esp, 16			; 00000010H
  0039f	8d 50 01	 lea	 edx, DWORD PTR [eax+1]
$LL81@DoRegInsta:
  003a2	8a 08		 mov	 cl, BYTE PTR [eax]
  003a4	40		 inc	 eax
  003a5	3a cb		 cmp	 cl, bl
  003a7	75 f9		 jne	 SHORT $LL81@DoRegInsta
  003a9	8b 4c 24 10	 mov	 ecx, DWORD PTR _hkey$[esp+2180]
  003ad	2b c2		 sub	 eax, edx
  003af	40		 inc	 eax
  003b0	50		 push	 eax
  003b1	8d 44 24 28	 lea	 eax, DWORD PTR _szTmp$[esp+2184]
  003b5	50		 push	 eax
  003b6	6a 01		 push	 1
  003b8	53		 push	 ebx
  003b9	68 00 00 00 00	 push	 OFFSET ??_C@_00CNPNBAHC@?$AA@
  003be	51		 push	 ecx
  003bf	ff d6		 call	 esi
  003c1	85 c0		 test	 eax, eax
  003c3	0f 85 c0 05 00
	00		 jne	 $error$134319

; 723  : 			goto error;
; 724  : 
; 725  : 		RegCloseKey (hkey);

  003c9	8b 54 24 10	 mov	 edx, DWORD PTR _hkey$[esp+2180]
  003cd	52		 push	 edx
  003ce	ff 15 00 00 00
	00		 call	 DWORD PTR __imp__RegCloseKey@4

; 726  : 		hkey = 0;
; 727  : 
; 728  : 		key = "Software\\Classes\\.tc";
; 729  : 		BOOL typeClassChanged = TRUE;
; 730  : 		char typeClass[256];
; 731  : 		DWORD typeClassSize = sizeof (typeClass);
; 732  : 
; 733  : 		if (ReadLocalMachineRegistryString (key, "", typeClass, &typeClassSize) && typeClassSize > 0 && strcmp (typeClass, "TrueCryptVolume") == 0)

  003d4	8d 44 24 20	 lea	 eax, DWORD PTR _typeClassSize$134358[esp+2180]
  003d8	50		 push	 eax
  003d9	8d 8c 24 84 07
	00 00		 lea	 ecx, DWORD PTR _typeClass$134357[esp+2184]
  003e0	51		 push	 ecx
  003e1	68 00 00 00 00	 push	 OFFSET ??_C@_00CNPNBAHC@?$AA@
  003e6	68 00 00 00 00	 push	 OFFSET ??_C@_0BF@MHIJGGNK@Software?2Classes?2?4tc?$AA@
  003eb	89 5c 24 20	 mov	 DWORD PTR _hkey$[esp+2196], ebx
  003ef	bf 01 00 00 00	 mov	 edi, 1
  003f4	c7 44 24 30 00
	01 00 00	 mov	 DWORD PTR _typeClassSize$134358[esp+2196], 256 ; 00000100H
  003fc	e8 00 00 00 00	 call	 _ReadLocalMachineRegistryString
  00401	83 c4 10	 add	 esp, 16			; 00000010H
  00404	85 c0		 test	 eax, eax
  00406	0f 84 4c 01 00
	00		 je	 $LN34@DoRegInsta
  0040c	39 5c 24 20	 cmp	 DWORD PTR _typeClassSize$134358[esp+2180], ebx
  00410	0f 86 42 01 00
	00		 jbe	 $LN34@DoRegInsta
  00416	ba 00 00 00 00	 mov	 edx, OFFSET ??_C@_0BA@OLBPPLP@TrueCryptVolume?$AA@
  0041b	8d 8c 24 80 07
	00 00		 lea	 ecx, DWORD PTR _typeClass$134357[esp+2180]
$LL82@DoRegInsta:
  00422	8a 01		 mov	 al, BYTE PTR [ecx]
  00424	3a 02		 cmp	 al, BYTE PTR [edx]
  00426	0f 85 21 01 00
	00		 jne	 $LN83@DoRegInsta
  0042c	3a c3		 cmp	 al, bl
  0042e	74 16		 je	 SHORT $LN84@DoRegInsta
  00430	8a 41 01	 mov	 al, BYTE PTR [ecx+1]
  00433	3a 42 01	 cmp	 al, BYTE PTR [edx+1]
  00436	0f 85 11 01 00
	00		 jne	 $LN83@DoRegInsta
  0043c	83 c1 02	 add	 ecx, 2
  0043f	83 c2 02	 add	 edx, 2
  00442	3a c3		 cmp	 al, bl
  00444	75 dc		 jne	 SHORT $LL82@DoRegInsta
$LN84@DoRegInsta:
  00446	33 c0		 xor	 eax, eax
  00448	e9 05 01 00 00	 jmp	 $LN85@DoRegInsta
$LN56@DoRegInsta:

; 660  : 	}
; 661  : 
; 662  : 	else if (SystemEncryptionUpdate)

  0044d	39 1d 00 00 00
	00		 cmp	 DWORD PTR _SystemEncryptionUpdate, ebx
  00453	0f 84 47 fd ff
	ff		 je	 $LN51@DoRegInsta

; 663  : 	{
; 664  : 		if (RegCreateKeyEx (HKEY_LOCAL_MACHINE, "Software\\Microsoft\\Windows\\CurrentVersion\\Uninstall\\TrueCrypt",
; 665  : 			0, NULL, REG_OPTION_NON_VOLATILE, KEY_WRITE, NULL, &hkey, &dw) == ERROR_SUCCESS)

  00459	8d 44 24 10	 lea	 eax, DWORD PTR _dw$[esp+2176]
  0045d	50		 push	 eax
  0045e	8d 4c 24 10	 lea	 ecx, DWORD PTR _hkey$[esp+2180]
  00462	51		 push	 ecx
  00463	53		 push	 ebx
  00464	68 06 00 02 00	 push	 131078			; 00020006H
  00469	53		 push	 ebx
  0046a	53		 push	 ebx
  0046b	53		 push	 ebx
  0046c	68 00 00 00 00	 push	 OFFSET ??_C@_0DO@FLBIDANE@Software?2Microsoft?2Windows?2Curre@
  00471	68 02 00 00 80	 push	 -2147483646		; 80000002H
  00476	ff 15 00 00 00
	00		 call	 DWORD PTR __imp__RegCreateKeyExA@36
  0047c	85 c0		 test	 eax, eax
  0047e	0f 85 ac 00 00
	00		 jne	 $LN50@DoRegInsta

; 666  : 		{
; 667  : 			strcpy (szTmp, VERSION_STRING);

  00484	66 a1 04 00 00
	00		 mov	 ax, WORD PTR ??_C@_05JPPCAGFG@0?47?43?$AA@+4
  0048a	8b 15 00 00 00
	00		 mov	 edx, DWORD PTR ??_C@_05JPPCAGFG@0?47?43?$AA@
  00490	66 89 44 24 24	 mov	 WORD PTR _szTmp$[esp+2180], ax

; 668  : 			RegSetValueEx (hkey, "DisplayVersion", 0, REG_SZ, (BYTE *) szTmp, strlen (szTmp) + 1);

  00495	8d 44 24 20	 lea	 eax, DWORD PTR _szTmp$[esp+2176]
  00499	89 54 24 20	 mov	 DWORD PTR _szTmp$[esp+2176], edx
  0049d	8d 50 01	 lea	 edx, DWORD PTR [eax+1]
$LL76@DoRegInsta:
  004a0	8a 08		 mov	 cl, BYTE PTR [eax]
  004a2	40		 inc	 eax
  004a3	3a cb		 cmp	 cl, bl
  004a5	75 f9		 jne	 SHORT $LL76@DoRegInsta
  004a7	8b 35 00 00 00
	00		 mov	 esi, DWORD PTR __imp__RegSetValueExA@24
  004ad	2b c2		 sub	 eax, edx
  004af	8b 54 24 0c	 mov	 edx, DWORD PTR _hkey$[esp+2176]
  004b3	40		 inc	 eax
  004b4	50		 push	 eax
  004b5	8d 4c 24 24	 lea	 ecx, DWORD PTR _szTmp$[esp+2180]
  004b9	51		 push	 ecx
  004ba	6a 01		 push	 1
  004bc	53		 push	 ebx
  004bd	68 00 00 00 00	 push	 OFFSET ??_C@_0P@BNDLMAIF@DisplayVersion?$AA@
  004c2	52		 push	 edx
  004c3	ff d6		 call	 esi

; 669  : 
; 670  : 			strcpy (szTmp, TC_HOMEPAGE);

  004c5	a1 00 00 00 00	 mov	 eax, DWORD PTR ??_C@_0BI@INHGIDBI@https?3?1?1ciphershed?4org?1?$AA@
  004ca	8b 15 08 00 00
	00		 mov	 edx, DWORD PTR ??_C@_0BI@INHGIDBI@https?3?1?1ciphershed?4org?1?$AA@+8
  004d0	8b 0d 04 00 00
	00		 mov	 ecx, DWORD PTR ??_C@_0BI@INHGIDBI@https?3?1?1ciphershed?4org?1?$AA@+4
  004d6	89 44 24 20	 mov	 DWORD PTR _szTmp$[esp+2176], eax
  004da	a1 0c 00 00 00	 mov	 eax, DWORD PTR ??_C@_0BI@INHGIDBI@https?3?1?1ciphershed?4org?1?$AA@+12
  004df	89 54 24 28	 mov	 DWORD PTR _szTmp$[esp+2184], edx
  004e3	8b 15 14 00 00
	00		 mov	 edx, DWORD PTR ??_C@_0BI@INHGIDBI@https?3?1?1ciphershed?4org?1?$AA@+20
  004e9	89 4c 24 24	 mov	 DWORD PTR _szTmp$[esp+2180], ecx
  004ed	8b 0d 10 00 00
	00		 mov	 ecx, DWORD PTR ??_C@_0BI@INHGIDBI@https?3?1?1ciphershed?4org?1?$AA@+16
  004f3	89 44 24 2c	 mov	 DWORD PTR _szTmp$[esp+2188], eax

; 671  : 			RegSetValueEx (hkey, "URLInfoAbout", 0, REG_SZ, (BYTE *) szTmp, strlen (szTmp) + 1);

  004f7	8d 44 24 20	 lea	 eax, DWORD PTR _szTmp$[esp+2176]
  004fb	89 54 24 34	 mov	 DWORD PTR _szTmp$[esp+2196], edx
  004ff	89 4c 24 30	 mov	 DWORD PTR _szTmp$[esp+2192], ecx
  00503	8d 50 01	 lea	 edx, DWORD PTR [eax+1]
$LL77@DoRegInsta:
  00506	8a 08		 mov	 cl, BYTE PTR [eax]
  00508	40		 inc	 eax
  00509	3a cb		 cmp	 cl, bl
  0050b	75 f9		 jne	 SHORT $LL77@DoRegInsta
  0050d	8b 4c 24 0c	 mov	 ecx, DWORD PTR _hkey$[esp+2176]
  00511	2b c2		 sub	 eax, edx
  00513	40		 inc	 eax
  00514	50		 push	 eax
  00515	8d 44 24 24	 lea	 eax, DWORD PTR _szTmp$[esp+2180]
  00519	50		 push	 eax
  0051a	6a 01		 push	 1
  0051c	53		 push	 ebx
  0051d	68 00 00 00 00	 push	 OFFSET ??_C@_0N@CIJCJNDA@URLInfoAbout?$AA@
  00522	51		 push	 ecx
  00523	ff d6		 call	 esi

; 672  : 
; 673  : 			RegCloseKey (hkey);

  00525	8b 54 24 0c	 mov	 edx, DWORD PTR _hkey$[esp+2176]
  00529	52		 push	 edx
  0052a	ff 15 00 00 00
	00		 call	 DWORD PTR __imp__RegCloseKey@4
$LN50@DoRegInsta:
  00530	5f		 pop	 edi
  00531	5e		 pop	 esi

; 674  : 		}
; 675  : 
; 676  : 		return TRUE;

  00532	b8 01 00 00 00	 mov	 eax, 1
  00537	5b		 pop	 ebx

; 828  : 		}
; 829  : 	}
; 830  : 
; 831  : 	return bOK;
; 832  : }

  00538	8b 8c 24 70 08
	00 00		 mov	 ecx, DWORD PTR __$ArrayPad$[esp+2164]
  0053f	33 cc		 xor	 ecx, esp
  00541	e8 00 00 00 00	 call	 @__security_check_cookie@4
  00546	81 c4 74 08 00
	00		 add	 esp, 2164		; 00000874H
  0054c	c3		 ret	 0
$LN83@DoRegInsta:

; 726  : 		hkey = 0;
; 727  : 
; 728  : 		key = "Software\\Classes\\.tc";
; 729  : 		BOOL typeClassChanged = TRUE;
; 730  : 		char typeClass[256];
; 731  : 		DWORD typeClassSize = sizeof (typeClass);
; 732  : 
; 733  : 		if (ReadLocalMachineRegistryString (key, "", typeClass, &typeClassSize) && typeClassSize > 0 && strcmp (typeClass, "TrueCryptVolume") == 0)

  0054d	1b c0		 sbb	 eax, eax
  0054f	83 d8 ff	 sbb	 eax, -1
$LN85@DoRegInsta:
  00552	3b c3		 cmp	 eax, ebx
  00554	75 02		 jne	 SHORT $LN34@DoRegInsta

; 734  : 			typeClassChanged = FALSE;

  00556	33 ff		 xor	 edi, edi
$LN34@DoRegInsta:

; 735  : 
; 736  : 		RegMessage (hwndDlg, key);

  00558	8b 54 24 18	 mov	 edx, DWORD PTR _hwndDlg$GSCopy$[esp+2180]
  0055c	68 00 00 00 00	 push	 OFFSET ??_C@_0BF@MHIJGGNK@Software?2Classes?2?4tc?$AA@
  00561	52		 push	 edx
  00562	e8 00 00 00 00	 call	 _RegMessage
  00567	83 c4 08	 add	 esp, 8

; 737  : 		if (RegCreateKeyEx (HKEY_LOCAL_MACHINE,
; 738  : 				    key,
; 739  : 				    0, NULL, REG_OPTION_NON_VOLATILE, KEY_WRITE, NULL, &hkey, &dw) != ERROR_SUCCESS)

  0056a	8d 44 24 14	 lea	 eax, DWORD PTR _dw$[esp+2180]
  0056e	50		 push	 eax
  0056f	8d 4c 24 14	 lea	 ecx, DWORD PTR _hkey$[esp+2184]
  00573	51		 push	 ecx
  00574	53		 push	 ebx
  00575	68 06 00 02 00	 push	 131078			; 00020006H
  0057a	53		 push	 ebx
  0057b	53		 push	 ebx
  0057c	53		 push	 ebx
  0057d	68 00 00 00 00	 push	 OFFSET ??_C@_0BF@MHIJGGNK@Software?2Classes?2?4tc?$AA@
  00582	68 02 00 00 80	 push	 -2147483646		; 80000002H
  00587	ff d5		 call	 ebp
  00589	85 c0		 test	 eax, eax
  0058b	0f 85 f4 03 00
	00		 jne	 $LN97@DoRegInsta

; 740  : 			goto error;
; 741  : 
; 742  : 		strcpy (szTmp, "TrueCryptVolume");

  00591	8b 15 00 00 00
	00		 mov	 edx, DWORD PTR ??_C@_0BA@OLBPPLP@TrueCryptVolume?$AA@
  00597	a1 04 00 00 00	 mov	 eax, DWORD PTR ??_C@_0BA@OLBPPLP@TrueCryptVolume?$AA@+4
  0059c	8b 0d 08 00 00
	00		 mov	 ecx, DWORD PTR ??_C@_0BA@OLBPPLP@TrueCryptVolume?$AA@+8
  005a2	89 54 24 24	 mov	 DWORD PTR _szTmp$[esp+2180], edx
  005a6	8b 15 0c 00 00
	00		 mov	 edx, DWORD PTR ??_C@_0BA@OLBPPLP@TrueCryptVolume?$AA@+12
  005ac	89 44 24 28	 mov	 DWORD PTR _szTmp$[esp+2184], eax

; 743  : 		if (RegSetValueEx (hkey, "", 0, REG_SZ, (BYTE *) szTmp, strlen (szTmp) + 1) != ERROR_SUCCESS)

  005b0	8d 44 24 24	 lea	 eax, DWORD PTR _szTmp$[esp+2180]
  005b4	89 54 24 30	 mov	 DWORD PTR _szTmp$[esp+2192], edx
  005b8	89 4c 24 2c	 mov	 DWORD PTR _szTmp$[esp+2188], ecx
  005bc	8d 50 01	 lea	 edx, DWORD PTR [eax+1]
  005bf	90		 npad	 1
$LL86@DoRegInsta:
  005c0	8a 08		 mov	 cl, BYTE PTR [eax]
  005c2	40		 inc	 eax
  005c3	3a cb		 cmp	 cl, bl
  005c5	75 f9		 jne	 SHORT $LL86@DoRegInsta
  005c7	8b 4c 24 10	 mov	 ecx, DWORD PTR _hkey$[esp+2180]
  005cb	2b c2		 sub	 eax, edx
  005cd	40		 inc	 eax
  005ce	50		 push	 eax
  005cf	8d 44 24 28	 lea	 eax, DWORD PTR _szTmp$[esp+2184]
  005d3	50		 push	 eax
  005d4	6a 01		 push	 1
  005d6	53		 push	 ebx
  005d7	68 00 00 00 00	 push	 OFFSET ??_C@_00CNPNBAHC@?$AA@
  005dc	51		 push	 ecx
  005dd	ff d6		 call	 esi
  005df	85 c0		 test	 eax, eax
  005e1	0f 85 9e 03 00
	00		 jne	 $LN97@DoRegInsta

; 744  : 			goto error;
; 745  : 		
; 746  : 		RegCloseKey (hkey);

  005e7	8b 54 24 10	 mov	 edx, DWORD PTR _hkey$[esp+2180]
  005eb	52		 push	 edx
  005ec	ff 15 00 00 00
	00		 call	 DWORD PTR __imp__RegCloseKey@4

; 747  : 		hkey = 0;

  005f2	89 5c 24 10	 mov	 DWORD PTR _hkey$[esp+2180], ebx

; 748  : 
; 749  : 		if (typeClassChanged)

  005f6	3b fb		 cmp	 edi, ebx
  005f8	74 0e		 je	 SHORT $LN96@DoRegInsta

; 750  : 			SHChangeNotify (SHCNE_ASSOCCHANGED, SHCNF_IDLIST, NULL, NULL);

  005fa	53		 push	 ebx
  005fb	53		 push	 ebx
  005fc	53		 push	 ebx
  005fd	68 00 00 00 08	 push	 134217728		; 08000000H
  00602	ff 15 00 00 00
	00		 call	 DWORD PTR __imp__SHChangeNotify@16
$LN96@DoRegInsta:
  00608	8b 7c 24 18	 mov	 edi, DWORD PTR _hwndDlg$GSCopy$[esp+2180]
$LN29@DoRegInsta:

; 751  : 	}
; 752  : 
; 753  : 	key = "Software\\Microsoft\\Windows\\CurrentVersion\\Uninstall\\TrueCrypt";
; 754  : 	RegMessage (hwndDlg, key);

  0060c	68 00 00 00 00	 push	 OFFSET ??_C@_0DO@FLBIDANE@Software?2Microsoft?2Windows?2Curre@
  00611	68 00 00 00 00	 push	 OFFSET ??_C@_0L@LFAEJJAB@ADDING_REG?$AA@
  00616	57		 push	 edi
  00617	e8 00 00 00 00	 call	 _StatusMessageParam
  0061c	83 c4 0c	 add	 esp, 12			; 0000000cH

; 755  : 	if (RegCreateKeyEx (HKEY_LOCAL_MACHINE,
; 756  : 		key,
; 757  : 		0, NULL, REG_OPTION_NON_VOLATILE, KEY_WRITE, NULL, &hkey, &dw) != ERROR_SUCCESS)

  0061f	8d 44 24 14	 lea	 eax, DWORD PTR _dw$[esp+2180]
  00623	50		 push	 eax
  00624	8d 4c 24 14	 lea	 ecx, DWORD PTR _hkey$[esp+2184]
  00628	51		 push	 ecx
  00629	53		 push	 ebx
  0062a	68 06 00 02 00	 push	 131078			; 00020006H
  0062f	53		 push	 ebx
  00630	53		 push	 ebx
  00631	53		 push	 ebx
  00632	68 00 00 00 00	 push	 OFFSET ??_C@_0DO@FLBIDANE@Software?2Microsoft?2Windows?2Curre@
  00637	68 02 00 00 80	 push	 -2147483646		; 80000002H
  0063c	ff d5		 call	 ebp
  0063e	85 c0		 test	 eax, eax
  00640	0f 85 43 03 00
	00		 jne	 $error$134319

; 758  : 		goto error;
; 759  : 
; 760  : 	/* IMPORTANT: IF YOU CHANGE THIS IN ANY WAY, REVISE AND UPDATE SetInstallationPath() ACCORDINGLY! */ 
; 761  : 	snprintf (szTmp, sizeof(szTmp), "\"%sCipherShed-Setup.exe\" /u", szDir);

  00646	8d 94 24 74 04
	00 00		 lea	 edx, DWORD PTR _szDir$[esp+2180]
  0064d	52		 push	 edx
  0064e	68 00 00 00 00	 push	 OFFSET ??_C@_0BM@NDACMPIF@?$CC?$CFsCipherShed?9Setup?4exe?$CC?5?1u?$AA@
  00653	8d 44 24 2c	 lea	 eax, DWORD PTR _szTmp$[esp+2188]
  00657	68 10 04 00 00	 push	 1040			; 00000410H
  0065c	50		 push	 eax
  0065d	e8 00 00 00 00	 call	 _sprintf_s

; 762  : 	if (RegSetValueEx (hkey, "UninstallString", 0, REG_SZ, (BYTE *) szTmp, strlen (szTmp) + 1) != ERROR_SUCCESS)

  00662	8d 44 24 34	 lea	 eax, DWORD PTR _szTmp$[esp+2196]
  00666	83 c4 10	 add	 esp, 16			; 00000010H
  00669	8d 50 01	 lea	 edx, DWORD PTR [eax+1]
  0066c	8d 64 24 00	 npad	 4
$LL87@DoRegInsta:
  00670	8a 08		 mov	 cl, BYTE PTR [eax]
  00672	40		 inc	 eax
  00673	3a cb		 cmp	 cl, bl
  00675	75 f9		 jne	 SHORT $LL87@DoRegInsta
  00677	2b c2		 sub	 eax, edx
  00679	8b 54 24 10	 mov	 edx, DWORD PTR _hkey$[esp+2180]
  0067d	40		 inc	 eax
  0067e	50		 push	 eax
  0067f	8d 4c 24 28	 lea	 ecx, DWORD PTR _szTmp$[esp+2184]
  00683	51		 push	 ecx
  00684	6a 01		 push	 1
  00686	53		 push	 ebx
  00687	68 00 00 00 00	 push	 OFFSET ??_C@_0BA@OJMJCMCH@UninstallString?$AA@
  0068c	52		 push	 edx
  0068d	ff d6		 call	 esi
  0068f	85 c0		 test	 eax, eax
  00691	0f 85 f2 02 00
	00		 jne	 $error$134319

; 763  : 		goto error;
; 764  : 
; 765  : 	snprintf (szTmp, sizeof(szTmp), "\"%sCipherShed-Setup.exe\" /c", szDir);

  00697	8d 84 24 74 04
	00 00		 lea	 eax, DWORD PTR _szDir$[esp+2180]
  0069e	50		 push	 eax
  0069f	68 00 00 00 00	 push	 OFFSET ??_C@_0BM@MPJKHKFC@?$CC?$CFsCipherShed?9Setup?4exe?$CC?5?1c?$AA@
  006a4	8d 4c 24 2c	 lea	 ecx, DWORD PTR _szTmp$[esp+2188]
  006a8	68 10 04 00 00	 push	 1040			; 00000410H
  006ad	51		 push	 ecx
  006ae	e8 00 00 00 00	 call	 _sprintf_s

; 766  : 	if (RegSetValueEx (hkey, "ModifyPath", 0, REG_SZ, (BYTE *) szTmp, strlen (szTmp) + 1) != ERROR_SUCCESS)

  006b3	8d 44 24 34	 lea	 eax, DWORD PTR _szTmp$[esp+2196]
  006b7	83 c4 10	 add	 esp, 16			; 00000010H
  006ba	8d 50 01	 lea	 edx, DWORD PTR [eax+1]
  006bd	8d 49 00	 npad	 3
$LL88@DoRegInsta:
  006c0	8a 08		 mov	 cl, BYTE PTR [eax]
  006c2	40		 inc	 eax
  006c3	3a cb		 cmp	 cl, bl
  006c5	75 f9		 jne	 SHORT $LL88@DoRegInsta
  006c7	2b c2		 sub	 eax, edx
  006c9	40		 inc	 eax
  006ca	50		 push	 eax
  006cb	8b 44 24 14	 mov	 eax, DWORD PTR _hkey$[esp+2184]
  006cf	8d 54 24 28	 lea	 edx, DWORD PTR _szTmp$[esp+2184]
  006d3	52		 push	 edx
  006d4	6a 01		 push	 1
  006d6	53		 push	 ebx
  006d7	68 00 00 00 00	 push	 OFFSET ??_C@_0L@OGHNHFGG@ModifyPath?$AA@
  006dc	50		 push	 eax
  006dd	ff d6		 call	 esi
  006df	85 c0		 test	 eax, eax
  006e1	0f 85 a2 02 00
	00		 jne	 $error$134319

; 767  : 		goto error;
; 768  : 
; 769  : 	snprintf (szTmp, sizeof(szTmp), "\"%sCipherShed-Setup.exe\"", szDir);

  006e7	8d 8c 24 74 04
	00 00		 lea	 ecx, DWORD PTR _szDir$[esp+2180]
  006ee	51		 push	 ecx
  006ef	68 00 00 00 00	 push	 OFFSET ??_C@_0BJ@BAIMPNHC@?$CC?$CFsCipherShed?9Setup?4exe?$CC?$AA@
  006f4	8d 54 24 2c	 lea	 edx, DWORD PTR _szTmp$[esp+2188]
  006f8	68 10 04 00 00	 push	 1040			; 00000410H
  006fd	52		 push	 edx
  006fe	e8 00 00 00 00	 call	 _sprintf_s

; 770  : 	if (RegSetValueEx (hkey, "DisplayIcon", 0, REG_SZ, (BYTE *) szTmp, strlen (szTmp) + 1) != ERROR_SUCCESS)

  00703	8d 44 24 34	 lea	 eax, DWORD PTR _szTmp$[esp+2196]
  00707	83 c4 10	 add	 esp, 16			; 00000010H
  0070a	8d 50 01	 lea	 edx, DWORD PTR [eax+1]
  0070d	8d 49 00	 npad	 3
$LL89@DoRegInsta:
  00710	8a 08		 mov	 cl, BYTE PTR [eax]
  00712	40		 inc	 eax
  00713	3a cb		 cmp	 cl, bl
  00715	75 f9		 jne	 SHORT $LL89@DoRegInsta
  00717	8b 4c 24 10	 mov	 ecx, DWORD PTR _hkey$[esp+2180]
  0071b	2b c2		 sub	 eax, edx
  0071d	40		 inc	 eax
  0071e	50		 push	 eax
  0071f	8d 44 24 28	 lea	 eax, DWORD PTR _szTmp$[esp+2184]
  00723	50		 push	 eax
  00724	6a 01		 push	 1
  00726	53		 push	 ebx
  00727	68 00 00 00 00	 push	 OFFSET ??_C@_0M@DDCGOGKB@DisplayIcon?$AA@
  0072c	51		 push	 ecx
  0072d	ff d6		 call	 esi
  0072f	85 c0		 test	 eax, eax
  00731	0f 85 52 02 00
	00		 jne	 $error$134319

; 771  : 		goto error;
; 772  : 
; 773  : 	strcpy (szTmp, VERSION_STRING);

  00737	66 a1 04 00 00
	00		 mov	 ax, WORD PTR ??_C@_05JPPCAGFG@0?47?43?$AA@+4
  0073d	8b 15 00 00 00
	00		 mov	 edx, DWORD PTR ??_C@_05JPPCAGFG@0?47?43?$AA@
  00743	66 89 44 24 28	 mov	 WORD PTR _szTmp$[esp+2184], ax

; 774  : 	if (RegSetValueEx (hkey, "DisplayVersion", 0, REG_SZ, (BYTE *) szTmp, strlen (szTmp) + 1) != ERROR_SUCCESS)

  00748	8d 44 24 24	 lea	 eax, DWORD PTR _szTmp$[esp+2180]
  0074c	89 54 24 24	 mov	 DWORD PTR _szTmp$[esp+2180], edx
  00750	8d 50 01	 lea	 edx, DWORD PTR [eax+1]
$LL90@DoRegInsta:
  00753	8a 08		 mov	 cl, BYTE PTR [eax]
  00755	40		 inc	 eax
  00756	3a cb		 cmp	 cl, bl
  00758	75 f9		 jne	 SHORT $LL90@DoRegInsta
  0075a	2b c2		 sub	 eax, edx
  0075c	8b 54 24 10	 mov	 edx, DWORD PTR _hkey$[esp+2180]
  00760	40		 inc	 eax
  00761	50		 push	 eax
  00762	8d 4c 24 28	 lea	 ecx, DWORD PTR _szTmp$[esp+2184]
  00766	51		 push	 ecx
  00767	6a 01		 push	 1
  00769	53		 push	 ebx
  0076a	68 00 00 00 00	 push	 OFFSET ??_C@_0P@BNDLMAIF@DisplayVersion?$AA@
  0076f	52		 push	 edx
  00770	ff d6		 call	 esi
  00772	85 c0		 test	 eax, eax
  00774	0f 85 0f 02 00
	00		 jne	 $error$134319

; 775  : 		goto error;
; 776  : 		
; 777  : 	strcpy (szTmp, "CipherShed");

  0077a	a1 00 00 00 00	 mov	 eax, DWORD PTR ??_C@_0L@FEEFGEIL@CipherShed?$AA@
  0077f	66 8b 15 08 00
	00 00		 mov	 dx, WORD PTR ??_C@_0L@FEEFGEIL@CipherShed?$AA@+8
  00786	8b 0d 04 00 00
	00		 mov	 ecx, DWORD PTR ??_C@_0L@FEEFGEIL@CipherShed?$AA@+4
  0078c	89 44 24 24	 mov	 DWORD PTR _szTmp$[esp+2180], eax
  00790	a0 0a 00 00 00	 mov	 al, BYTE PTR ??_C@_0L@FEEFGEIL@CipherShed?$AA@+10
  00795	88 44 24 2e	 mov	 BYTE PTR _szTmp$[esp+2190], al

; 778  : 	if (RegSetValueEx (hkey, "DisplayName", 0, REG_SZ, (BYTE *) szTmp, strlen (szTmp) + 1) != ERROR_SUCCESS)

  00799	8d 44 24 24	 lea	 eax, DWORD PTR _szTmp$[esp+2180]
  0079d	66 89 54 24 2c	 mov	 WORD PTR _szTmp$[esp+2188], dx
  007a2	89 4c 24 28	 mov	 DWORD PTR _szTmp$[esp+2184], ecx
  007a6	8d 50 01	 lea	 edx, DWORD PTR [eax+1]
  007a9	8d a4 24 00 00
	00 00		 npad	 7
$LL91@DoRegInsta:
  007b0	8a 08		 mov	 cl, BYTE PTR [eax]
  007b2	40		 inc	 eax
  007b3	3a cb		 cmp	 cl, bl
  007b5	75 f9		 jne	 SHORT $LL91@DoRegInsta
  007b7	2b c2		 sub	 eax, edx
  007b9	8b 54 24 10	 mov	 edx, DWORD PTR _hkey$[esp+2180]
  007bd	40		 inc	 eax
  007be	50		 push	 eax
  007bf	8d 4c 24 28	 lea	 ecx, DWORD PTR _szTmp$[esp+2184]
  007c3	51		 push	 ecx
  007c4	6a 01		 push	 1
  007c6	53		 push	 ebx
  007c7	68 00 00 00 00	 push	 OFFSET ??_C@_0M@MLHPPPJP@DisplayName?$AA@
  007cc	52		 push	 edx
  007cd	ff d6		 call	 esi
  007cf	85 c0		 test	 eax, eax
  007d1	0f 85 b2 01 00
	00		 jne	 $error$134319

; 779  : 		goto error;
; 780  : 
; 781  : 	strcpy (szTmp, "CipherShed Project");

  007d7	a1 00 00 00 00	 mov	 eax, DWORD PTR ??_C@_0BD@GIJEKPBA@CipherShed?5Project?$AA@
  007dc	8b 15 08 00 00
	00		 mov	 edx, DWORD PTR ??_C@_0BD@GIJEKPBA@CipherShed?5Project?$AA@+8
  007e2	8b 0d 04 00 00
	00		 mov	 ecx, DWORD PTR ??_C@_0BD@GIJEKPBA@CipherShed?5Project?$AA@+4
  007e8	89 44 24 24	 mov	 DWORD PTR _szTmp$[esp+2180], eax
  007ec	a1 0c 00 00 00	 mov	 eax, DWORD PTR ??_C@_0BD@GIJEKPBA@CipherShed?5Project?$AA@+12
  007f1	89 54 24 2c	 mov	 DWORD PTR _szTmp$[esp+2188], edx
  007f5	8a 15 12 00 00
	00		 mov	 dl, BYTE PTR ??_C@_0BD@GIJEKPBA@CipherShed?5Project?$AA@+18
  007fb	89 4c 24 28	 mov	 DWORD PTR _szTmp$[esp+2184], ecx
  007ff	66 8b 0d 10 00
	00 00		 mov	 cx, WORD PTR ??_C@_0BD@GIJEKPBA@CipherShed?5Project?$AA@+16
  00806	89 44 24 30	 mov	 DWORD PTR _szTmp$[esp+2192], eax

; 782  : 	if (RegSetValueEx (hkey, "Publisher", 0, REG_SZ, (BYTE *) szTmp, strlen (szTmp) + 1) != ERROR_SUCCESS)

  0080a	8d 44 24 24	 lea	 eax, DWORD PTR _szTmp$[esp+2180]
  0080e	88 54 24 36	 mov	 BYTE PTR _szTmp$[esp+2198], dl
  00812	66 89 4c 24 34	 mov	 WORD PTR _szTmp$[esp+2196], cx
  00817	8d 50 01	 lea	 edx, DWORD PTR [eax+1]
  0081a	8d 9b 00 00 00
	00		 npad	 6
$LL92@DoRegInsta:
  00820	8a 08		 mov	 cl, BYTE PTR [eax]
  00822	40		 inc	 eax
  00823	3a cb		 cmp	 cl, bl
  00825	75 f9		 jne	 SHORT $LL92@DoRegInsta
  00827	8b 4c 24 10	 mov	 ecx, DWORD PTR _hkey$[esp+2180]
  0082b	2b c2		 sub	 eax, edx
  0082d	40		 inc	 eax
  0082e	50		 push	 eax
  0082f	8d 44 24 28	 lea	 eax, DWORD PTR _szTmp$[esp+2184]
  00833	50		 push	 eax
  00834	6a 01		 push	 1
  00836	53		 push	 ebx
  00837	68 00 00 00 00	 push	 OFFSET ??_C@_09PNIDBPNC@Publisher?$AA@
  0083c	51		 push	 ecx
  0083d	ff d6		 call	 esi
  0083f	85 c0		 test	 eax, eax
  00841	0f 85 42 01 00
	00		 jne	 $error$134319

; 783  : 		goto error;
; 784  : 
; 785  : 	strcpy (szTmp, TC_HOMEPAGE);

  00847	a1 04 00 00 00	 mov	 eax, DWORD PTR ??_C@_0BI@INHGIDBI@https?3?1?1ciphershed?4org?1?$AA@+4
  0084c	8b 15 00 00 00
	00		 mov	 edx, DWORD PTR ??_C@_0BI@INHGIDBI@https?3?1?1ciphershed?4org?1?$AA@
  00852	8b 0d 08 00 00
	00		 mov	 ecx, DWORD PTR ??_C@_0BI@INHGIDBI@https?3?1?1ciphershed?4org?1?$AA@+8
  00858	89 44 24 28	 mov	 DWORD PTR _szTmp$[esp+2184], eax
  0085c	a1 10 00 00 00	 mov	 eax, DWORD PTR ??_C@_0BI@INHGIDBI@https?3?1?1ciphershed?4org?1?$AA@+16
  00861	89 54 24 24	 mov	 DWORD PTR _szTmp$[esp+2180], edx
  00865	8b 15 0c 00 00
	00		 mov	 edx, DWORD PTR ??_C@_0BI@INHGIDBI@https?3?1?1ciphershed?4org?1?$AA@+12
  0086b	89 4c 24 2c	 mov	 DWORD PTR _szTmp$[esp+2188], ecx
  0086f	8b 0d 14 00 00
	00		 mov	 ecx, DWORD PTR ??_C@_0BI@INHGIDBI@https?3?1?1ciphershed?4org?1?$AA@+20
  00875	89 44 24 34	 mov	 DWORD PTR _szTmp$[esp+2196], eax

; 786  : 	if (RegSetValueEx (hkey, "URLInfoAbout", 0, REG_SZ, (BYTE *) szTmp, strlen (szTmp) + 1) != ERROR_SUCCESS)

  00879	8d 44 24 24	 lea	 eax, DWORD PTR _szTmp$[esp+2180]
  0087d	89 54 24 30	 mov	 DWORD PTR _szTmp$[esp+2192], edx
  00881	89 4c 24 38	 mov	 DWORD PTR _szTmp$[esp+2200], ecx
  00885	8d 50 01	 lea	 edx, DWORD PTR [eax+1]
$LL93@DoRegInsta:
  00888	8a 08		 mov	 cl, BYTE PTR [eax]
  0088a	40		 inc	 eax
  0088b	3a cb		 cmp	 cl, bl
  0088d	75 f9		 jne	 SHORT $LL93@DoRegInsta
  0088f	2b c2		 sub	 eax, edx
  00891	40		 inc	 eax
  00892	50		 push	 eax
  00893	8b 44 24 14	 mov	 eax, DWORD PTR _hkey$[esp+2184]
  00897	8d 54 24 28	 lea	 edx, DWORD PTR _szTmp$[esp+2184]
  0089b	52		 push	 edx
  0089c	6a 01		 push	 1
  0089e	53		 push	 ebx
  0089f	68 00 00 00 00	 push	 OFFSET ??_C@_0N@CIJCJNDA@URLInfoAbout?$AA@
  008a4	50		 push	 eax
  008a5	ff d6		 call	 esi
  008a7	85 c0		 test	 eax, eax
  008a9	0f 85 da 00 00
	00		 jne	 $error$134319

; 787  : 		goto error;
; 788  : 
; 789  : 	RegCloseKey (hkey);

  008af	8b 4c 24 10	 mov	 ecx, DWORD PTR _hkey$[esp+2180]
  008b3	51		 push	 ecx
  008b4	ff 15 00 00 00
	00		 call	 DWORD PTR __imp__RegCloseKey@4

; 790  : 	hkey = 0;
; 791  : 
; 792  : 	/* CipherShed. */
; 793  : 	key = "Software\\CipherShed";
; 794  : 	RegMessage (hwndDlg, key);

  008ba	68 00 00 00 00	 push	 OFFSET ??_C@_0BE@GEGOEFMH@Software?2CipherShed?$AA@
  008bf	57		 push	 edi
  008c0	89 5c 24 18	 mov	 DWORD PTR _hkey$[esp+2188], ebx
  008c4	e8 00 00 00 00	 call	 _RegMessage
  008c9	83 c4 08	 add	 esp, 8

; 795  : 	if (RegCreateKeyEx (HKEY_LOCAL_MACHINE,
; 796  : 		key,
; 797  : 		0, NULL, REG_OPTION_NON_VOLATILE, KEY_WRITE, NULL, &hkey, &dw) != ERROR_SUCCESS)

  008cc	8d 54 24 14	 lea	 edx, DWORD PTR _dw$[esp+2180]
  008d0	52		 push	 edx
  008d1	8d 44 24 14	 lea	 eax, DWORD PTR _hkey$[esp+2184]
  008d5	50		 push	 eax
  008d6	53		 push	 ebx
  008d7	68 06 00 02 00	 push	 131078			; 00020006H
  008dc	53		 push	 ebx
  008dd	53		 push	 ebx
  008de	53		 push	 ebx
  008df	68 00 00 00 00	 push	 OFFSET ??_C@_0BE@GEGOEFMH@Software?2CipherShed?$AA@
  008e4	68 02 00 00 80	 push	 -2147483646		; 80000002H
  008e9	ff d5		 call	 ebp
  008eb	85 c0		 test	 eax, eax
  008ed	0f 85 96 00 00
	00		 jne	 $error$134319

; 798  : 		goto error;
; 799  : 
; 800  : 	if (RegSetValueEx (hkey, "InstallationPath", 0, REG_SZ, (BYTE *) szDir, strlen (szDir) + 1) != ERROR_SUCCESS)

  008f3	8d 84 24 74 04
	00 00		 lea	 eax, DWORD PTR _szDir$[esp+2180]
  008fa	8d 50 01	 lea	 edx, DWORD PTR [eax+1]
  008fd	8d 49 00	 npad	 3
$LL94@DoRegInsta:
  00900	8a 08		 mov	 cl, BYTE PTR [eax]
  00902	40		 inc	 eax
  00903	3a cb		 cmp	 cl, bl
  00905	75 f9		 jne	 SHORT $LL94@DoRegInsta
  00907	2b c2		 sub	 eax, edx
  00909	8b 54 24 10	 mov	 edx, DWORD PTR _hkey$[esp+2180]
  0090d	40		 inc	 eax
  0090e	50		 push	 eax
  0090f	8d 8c 24 78 04
	00 00		 lea	 ecx, DWORD PTR _szDir$[esp+2184]
  00916	51		 push	 ecx
  00917	6a 01		 push	 1
  00919	53		 push	 ebx
  0091a	68 00 00 00 00	 push	 OFFSET ??_C@_0BB@FKJFEMO@InstallationPath?$AA@
  0091f	52		 push	 edx
  00920	ff d6		 call	 esi
  00922	85 c0		 test	 eax, eax
  00924	75 63		 jne	 SHORT $error$134319

; 801  : 		goto error;
; 802  : 
; 803  : 	if (bCipherShedMigration && RegSetValueEx (hkey, "MigrationPath", 0, REG_SZ, (BYTE *) UninstallationPath, strlen (UninstallationPath) + 1) != ERROR_SUCCESS)

  00926	39 1d 00 00 00
	00		 cmp	 DWORD PTR _bCipherShedMigration, ebx
  0092c	74 4d		 je	 SHORT $LN6@DoRegInsta
  0092e	b8 00 00 00 00	 mov	 eax, OFFSET ?UninstallationPath@@3PADA ; UninstallationPath
  00933	8d 50 01	 lea	 edx, DWORD PTR [eax+1]
$LL95@DoRegInsta:
  00936	8a 08		 mov	 cl, BYTE PTR [eax]
  00938	40		 inc	 eax
  00939	3a cb		 cmp	 cl, bl
  0093b	75 f9		 jne	 SHORT $LL95@DoRegInsta
  0093d	2b c2		 sub	 eax, edx
  0093f	40		 inc	 eax
  00940	50		 push	 eax
  00941	8b 44 24 14	 mov	 eax, DWORD PTR _hkey$[esp+2184]
  00945	68 00 00 00 00	 push	 OFFSET ?UninstallationPath@@3PADA ; UninstallationPath
  0094a	6a 01		 push	 1
  0094c	53		 push	 ebx
  0094d	68 00 00 00 00	 push	 OFFSET ??_C@_0O@PNHONFDO@MigrationPath?$AA@
  00952	50		 push	 eax
  00953	ff d6		 call	 esi
  00955	85 c0		 test	 eax, eax
  00957	75 30		 jne	 SHORT $error$134319

; 804  : 		goto error;
; 805  : 
; 806  : 	if (bCipherShedMigration && RegSetValueEx (hkey, "MigrationVersion", 0, REG_DWORD, (BYTE *) &InstalledVersion, sizeof (InstalledVersion)) != ERROR_SUCCESS)

  00959	39 1d 00 00 00
	00		 cmp	 DWORD PTR _bCipherShedMigration, ebx
  0095f	74 1a		 je	 SHORT $LN6@DoRegInsta
  00961	8b 4c 24 10	 mov	 ecx, DWORD PTR _hkey$[esp+2180]
  00965	6a 04		 push	 4
  00967	68 00 00 00 00	 push	 OFFSET ?InstalledVersion@@3JA ; InstalledVersion
  0096c	6a 04		 push	 4
  0096e	53		 push	 ebx
  0096f	68 00 00 00 00	 push	 OFFSET ??_C@_0BB@GIJFLPKB@MigrationVersion?$AA@
  00974	51		 push	 ecx
  00975	ff d6		 call	 esi
  00977	85 c0		 test	 eax, eax
  00979	75 0e		 jne	 SHORT $error$134319
$LN6@DoRegInsta:

; 807  : 		goto error;
; 808  : 
; 809  : 	bOK = TRUE;

  0097b	c7 44 24 1c 01
	00 00 00	 mov	 DWORD PTR _bOK$[esp+2180], 1
  00983	eb 04		 jmp	 SHORT $error$134319
$LN97@DoRegInsta:
  00985	8b 7c 24 18	 mov	 edi, DWORD PTR _hwndDlg$GSCopy$[esp+2180]
$error$134319:

; 810  : 
; 811  : error:
; 812  : 	if (hkey != 0)

  00989	8b 44 24 10	 mov	 eax, DWORD PTR _hkey$[esp+2180]
  0098d	5d		 pop	 ebp
  0098e	3b c3		 cmp	 eax, ebx
  00990	74 07		 je	 SHORT $LN4@DoRegInsta

; 813  : 		RegCloseKey (hkey);

  00992	50		 push	 eax
  00993	ff 15 00 00 00
	00		 call	 DWORD PTR __imp__RegCloseKey@4
$LN4@DoRegInsta:

; 814  : 
; 815  : 	if (bOK == FALSE)

  00999	8b 74 24 18	 mov	 esi, DWORD PTR _bOK$[esp+2176]
  0099d	3b f3		 cmp	 esi, ebx
  0099f	75 13		 jne	 SHORT $LN3@DoRegInsta

; 816  : 	{
; 817  : 		handleWin32Error (hwndDlg);

  009a1	57		 push	 edi
  009a2	e8 00 00 00 00	 call	 _handleWin32Error

; 818  : 		Error ("REG_INSTALL_FAILED");

  009a7	68 00 00 00 00	 push	 OFFSET ??_C@_0BD@HFNFAFOP@REG_INSTALL_FAILED?$AA@
  009ac	e8 00 00 00 00	 call	 _Error
  009b1	83 c4 08	 add	 esp, 8
$LN3@DoRegInsta:

; 819  : 	}
; 820  : 	
; 821  : 	// Register COM servers for UAC
; 822  : 	if (IsOSAtLeast (WIN_VISTA))

  009b4	6a 0b		 push	 11			; 0000000bH
  009b6	e8 00 00 00 00	 call	 _IsOSAtLeast
  009bb	83 c4 04	 add	 esp, 4
  009be	85 c0		 test	 eax, eax
  009c0	74 3b		 je	 SHORT $LN1@DoRegInsta

; 823  : 	{
; 824  : 		if (!RegisterComServers (szDir))

  009c2	8d 94 24 70 04
	00 00		 lea	 edx, DWORD PTR _szDir$[esp+2176]
  009c9	52		 push	 edx
  009ca	e8 00 00 00 00	 call	 _RegisterComServers
  009cf	83 c4 04	 add	 esp, 4
  009d2	85 c0		 test	 eax, eax
  009d4	75 27		 jne	 SHORT $LN1@DoRegInsta

; 825  : 		{
; 826  : 			Error ("COM_REG_FAILED");

  009d6	68 00 00 00 00	 push	 OFFSET ??_C@_0P@LLMHDMAL@COM_REG_FAILED?$AA@
  009db	e8 00 00 00 00	 call	 _Error
  009e0	83 c4 04	 add	 esp, 4
  009e3	5f		 pop	 edi
  009e4	5e		 pop	 esi

; 827  : 			return FALSE;

  009e5	33 c0		 xor	 eax, eax
  009e7	5b		 pop	 ebx

; 828  : 		}
; 829  : 	}
; 830  : 
; 831  : 	return bOK;
; 832  : }

  009e8	8b 8c 24 70 08
	00 00		 mov	 ecx, DWORD PTR __$ArrayPad$[esp+2164]
  009ef	33 cc		 xor	 ecx, esp
  009f1	e8 00 00 00 00	 call	 @__security_check_cookie@4
  009f6	81 c4 74 08 00
	00		 add	 esp, 2164		; 00000874H
  009fc	c3		 ret	 0
$LN1@DoRegInsta:
  009fd	8b 8c 24 7c 08
	00 00		 mov	 ecx, DWORD PTR __$ArrayPad$[esp+2176]
  00a04	5f		 pop	 edi
  00a05	8b c6		 mov	 eax, esi
  00a07	5e		 pop	 esi
  00a08	5b		 pop	 ebx
  00a09	33 cc		 xor	 ecx, esp
  00a0b	e8 00 00 00 00	 call	 @__security_check_cookie@4
  00a10	81 c4 74 08 00
	00		 add	 esp, 2164		; 00000874H
  00a16	c3		 ret	 0
_DoRegInstall ENDP
_TEXT	ENDS
PUBLIC	??_C@_0L@LGADMAPO@?2TrueCrypt?$AA@		; `string'
PUBLIC	??_C@_0BG@NJOIKHOP@System?5Encryption?4xml?$AA@	; `string'
PUBLIC	??_C@_0BC@FNANDAA@Configuration?4xml?$AA@	; `string'
PUBLIC	??_C@_0M@COMBLGLD@History?4xml?$AA@		; `string'
PUBLIC	??_C@_0BF@CEDLNBLM@Default?5Keyfiles?4xml?$AA@	; `string'
PUBLIC	??_C@_0BF@EGBOIEGJ@Favorite?5Volumes?4xml?$AA@	; `string'
PUBLIC	??_C@_0M@EMLNMOID@?2TrueCrypt?2?$AA@		; `string'
PUBLIC	??_C@_0BB@EKLCNMAG@REMOVING_APPDATA?$AA@	; `string'
PUBLIC	__$ArrayPad$
PUBLIC	?DoApplicationDataUninstall@@YAHPAUHWND__@@@Z	; DoApplicationDataUninstall
EXTRN	__imp__SHGetFolderPathA@20:PROC
;	COMDAT ??_C@_0L@LGADMAPO@?2TrueCrypt?$AA@
CONST	SEGMENT
??_C@_0L@LGADMAPO@?2TrueCrypt?$AA@ DB '\TrueCrypt', 00H	; `string'
CONST	ENDS
;	COMDAT ??_C@_0BG@NJOIKHOP@System?5Encryption?4xml?$AA@
CONST	SEGMENT
??_C@_0BG@NJOIKHOP@System?5Encryption?4xml?$AA@ DB 'System Encryption.xml'
	DB	00H						; `string'
CONST	ENDS
;	COMDAT ??_C@_0BC@FNANDAA@Configuration?4xml?$AA@
CONST	SEGMENT
??_C@_0BC@FNANDAA@Configuration?4xml?$AA@ DB 'Configuration.xml', 00H ; `string'
CONST	ENDS
;	COMDAT ??_C@_0M@COMBLGLD@History?4xml?$AA@
CONST	SEGMENT
??_C@_0M@COMBLGLD@History?4xml?$AA@ DB 'History.xml', 00H ; `string'
CONST	ENDS
;	COMDAT ??_C@_0BF@CEDLNBLM@Default?5Keyfiles?4xml?$AA@
CONST	SEGMENT
??_C@_0BF@CEDLNBLM@Default?5Keyfiles?4xml?$AA@ DB 'Default Keyfiles.xml', 00H ; `string'
CONST	ENDS
;	COMDAT ??_C@_0BF@EGBOIEGJ@Favorite?5Volumes?4xml?$AA@
CONST	SEGMENT
??_C@_0BF@EGBOIEGJ@Favorite?5Volumes?4xml?$AA@ DB 'Favorite Volumes.xml', 00H ; `string'
CONST	ENDS
;	COMDAT ??_C@_0M@EMLNMOID@?2TrueCrypt?2?$AA@
CONST	SEGMENT
??_C@_0M@EMLNMOID@?2TrueCrypt?2?$AA@ DB '\TrueCrypt\', 00H ; `string'
CONST	ENDS
;	COMDAT ??_C@_0BB@EKLCNMAG@REMOVING_APPDATA?$AA@
CONST	SEGMENT
??_C@_0BB@EKLCNMAG@REMOVING_APPDATA?$AA@ DB 'REMOVING_APPDATA', 00H ; `string'
; Function compile flags: /Ogtpy
CONST	ENDS
;	COMDAT ?DoApplicationDataUninstall@@YAHPAUHWND__@@@Z
_TEXT	SEGMENT
_st$138260 = -580					; size = 56
_st$138250 = -580					; size = 56
_st$138239 = -580					; size = 56
_st$138229 = -580					; size = 56
_st$138219 = -580					; size = 56
_st$138209 = -580					; size = 56
_path2$ = -524						; size = 260
_path$ = -264						; size = 260
__$ArrayPad$ = -4					; size = 4
_hwndDlg$ = 8						; size = 4
?DoApplicationDataUninstall@@YAHPAUHWND__@@@Z PROC	; DoApplicationDataUninstall, COMDAT

; 835  : {

  00000	81 ec 44 02 00
	00		 sub	 esp, 580		; 00000244H
  00006	a1 00 00 00 00	 mov	 eax, DWORD PTR ___security_cookie
  0000b	33 c4		 xor	 eax, esp
  0000d	89 84 24 40 02
	00 00		 mov	 DWORD PTR __$ArrayPad$[esp+580], eax
  00014	55		 push	 ebp
  00015	56		 push	 esi
  00016	8b b4 24 50 02
	00 00		 mov	 esi, DWORD PTR _hwndDlg$[esp+584]
  0001d	57		 push	 edi

; 836  : 	char path[MAX_PATH];
; 837  : 	char path2[MAX_PATH];
; 838  : 	BOOL bOK = TRUE;
; 839  : 
; 840  : 	StatusMessage (hwndDlg, "REMOVING_APPDATA");

  0001e	68 00 00 00 00	 push	 OFFSET ??_C@_0BB@EKLCNMAG@REMOVING_APPDATA?$AA@
  00023	56		 push	 esi
  00024	bd 01 00 00 00	 mov	 ebp, 1
  00029	e8 00 00 00 00	 call	 _StatusMessage

; 841  : 
; 842  : 	SHGetFolderPath (NULL, CSIDL_APPDATA, NULL, 0, path);

  0002e	8b 3d 00 00 00
	00		 mov	 edi, DWORD PTR __imp__SHGetFolderPathA@20
  00034	83 c4 08	 add	 esp, 8
  00037	8d 84 24 48 01
	00 00		 lea	 eax, DWORD PTR _path$[esp+592]
  0003e	50		 push	 eax
  0003f	6a 00		 push	 0
  00041	6a 00		 push	 0
  00043	6a 1a		 push	 26			; 0000001aH
  00045	6a 00		 push	 0
  00047	ff d7		 call	 edi

; 843  : 	strcat_s (path, sizeof(path), "\\TrueCrypt\\");

  00049	68 00 00 00 00	 push	 OFFSET ??_C@_0M@EMLNMOID@?2TrueCrypt?2?$AA@
  0004e	8d 8c 24 4c 01
	00 00		 lea	 ecx, DWORD PTR _path$[esp+596]
  00055	68 04 01 00 00	 push	 260			; 00000104H
  0005a	51		 push	 ecx
  0005b	e8 00 00 00 00	 call	 _strcat_s

; 844  : 
; 845  : 	// Delete favorite volumes file
; 846  : 	snprintf (path2, sizeof(path2), "%s%s", path, TC_APPD_FILENAME_FAVORITE_VOLUMES);

  00060	68 00 00 00 00	 push	 OFFSET ??_C@_0BF@EGBOIEGJ@Favorite?5Volumes?4xml?$AA@
  00065	8d 94 24 58 01
	00 00		 lea	 edx, DWORD PTR _path$[esp+608]
  0006c	52		 push	 edx
  0006d	68 00 00 00 00	 push	 OFFSET ??_C@_04HDOCAJNK@?$CFs?$CFs?$AA@
  00072	8d 44 24 5c	 lea	 eax, DWORD PTR _path2$[esp+616]
  00076	68 04 01 00 00	 push	 260			; 00000104H
  0007b	50		 push	 eax
  0007c	e8 00 00 00 00	 call	 _sprintf_s
  00081	83 c4 20	 add	 esp, 32			; 00000020H

; 847  : 	RemoveMessage (hwndDlg, path2);

  00084	83 3d 00 00 00
	00 00		 cmp	 DWORD PTR _Rollback, 0
  0008b	75 13		 jne	 SHORT $LN4@DoApplicat
  0008d	8d 4c 24 44	 lea	 ecx, DWORD PTR _path2$[esp+592]
  00091	51		 push	 ecx
  00092	68 00 00 00 00	 push	 OFFSET ??_C@_08GLIOLGPM@REMOVING?$AA@
  00097	56		 push	 esi
  00098	e8 00 00 00 00	 call	 _StatusMessageParam
  0009d	83 c4 0c	 add	 esp, 12			; 0000000cH
$LN4@DoApplicat:
  000a0	53		 push	 ebx

; 848  : 	StatDeleteFile (path2);

  000a1	8d 54 24 10	 lea	 edx, DWORD PTR _st$138209[esp+596]
  000a5	52		 push	 edx
  000a6	8d 44 24 4c	 lea	 eax, DWORD PTR _path2$[esp+600]
  000aa	50		 push	 eax
  000ab	e8 00 00 00 00	 call	 __stat64
  000b0	8b 1d 00 00 00
	00		 mov	 ebx, DWORD PTR __imp__DeleteFileA@4
  000b6	83 c4 08	 add	 esp, 8
  000b9	85 c0		 test	 eax, eax
  000bb	75 07		 jne	 SHORT $LN8@DoApplicat
  000bd	8d 4c 24 48	 lea	 ecx, DWORD PTR _path2$[esp+596]
  000c1	51		 push	 ecx
  000c2	ff d3		 call	 ebx
$LN8@DoApplicat:

; 849  : 
; 850  : 	// Delete keyfile defaults
; 851  : 	snprintf (path2, sizeof(path2), "%s%s", path, TC_APPD_FILENAME_DEFAULT_KEYFILES);

  000c4	68 00 00 00 00	 push	 OFFSET ??_C@_0BF@CEDLNBLM@Default?5Keyfiles?4xml?$AA@
  000c9	8d 94 24 50 01
	00 00		 lea	 edx, DWORD PTR _path$[esp+600]
  000d0	52		 push	 edx
  000d1	68 00 00 00 00	 push	 OFFSET ??_C@_04HDOCAJNK@?$CFs?$CFs?$AA@
  000d6	8d 44 24 54	 lea	 eax, DWORD PTR _path2$[esp+608]
  000da	68 04 01 00 00	 push	 260			; 00000104H
  000df	50		 push	 eax
  000e0	e8 00 00 00 00	 call	 _sprintf_s
  000e5	83 c4 14	 add	 esp, 20			; 00000014H

; 852  : 	RemoveMessage (hwndDlg, path2);

  000e8	83 3d 00 00 00
	00 00		 cmp	 DWORD PTR _Rollback, 0
  000ef	75 13		 jne	 SHORT $LN11@DoApplicat
  000f1	8d 4c 24 48	 lea	 ecx, DWORD PTR _path2$[esp+596]
  000f5	51		 push	 ecx
  000f6	68 00 00 00 00	 push	 OFFSET ??_C@_08GLIOLGPM@REMOVING?$AA@
  000fb	56		 push	 esi
  000fc	e8 00 00 00 00	 call	 _StatusMessageParam
  00101	83 c4 0c	 add	 esp, 12			; 0000000cH
$LN11@DoApplicat:

; 853  : 	StatDeleteFile (path2);

  00104	8d 54 24 10	 lea	 edx, DWORD PTR _st$138219[esp+596]
  00108	52		 push	 edx
  00109	8d 44 24 4c	 lea	 eax, DWORD PTR _path2$[esp+600]
  0010d	50		 push	 eax
  0010e	e8 00 00 00 00	 call	 __stat64
  00113	83 c4 08	 add	 esp, 8
  00116	85 c0		 test	 eax, eax
  00118	75 07		 jne	 SHORT $LN15@DoApplicat
  0011a	8d 4c 24 48	 lea	 ecx, DWORD PTR _path2$[esp+596]
  0011e	51		 push	 ecx
  0011f	ff d3		 call	 ebx
$LN15@DoApplicat:

; 854  : 
; 855  : 	// Delete history file
; 856  : 	snprintf (path2, sizeof(path2), "%s%s", path, TC_APPD_FILENAME_HISTORY);

  00121	68 00 00 00 00	 push	 OFFSET ??_C@_0M@COMBLGLD@History?4xml?$AA@
  00126	8d 94 24 50 01
	00 00		 lea	 edx, DWORD PTR _path$[esp+600]
  0012d	52		 push	 edx
  0012e	68 00 00 00 00	 push	 OFFSET ??_C@_04HDOCAJNK@?$CFs?$CFs?$AA@
  00133	8d 44 24 54	 lea	 eax, DWORD PTR _path2$[esp+608]
  00137	68 04 01 00 00	 push	 260			; 00000104H
  0013c	50		 push	 eax
  0013d	e8 00 00 00 00	 call	 _sprintf_s
  00142	83 c4 14	 add	 esp, 20			; 00000014H

; 857  : 	RemoveMessage (hwndDlg, path2);

  00145	83 3d 00 00 00
	00 00		 cmp	 DWORD PTR _Rollback, 0
  0014c	75 13		 jne	 SHORT $LN18@DoApplicat
  0014e	8d 4c 24 48	 lea	 ecx, DWORD PTR _path2$[esp+596]
  00152	51		 push	 ecx
  00153	68 00 00 00 00	 push	 OFFSET ??_C@_08GLIOLGPM@REMOVING?$AA@
  00158	56		 push	 esi
  00159	e8 00 00 00 00	 call	 _StatusMessageParam
  0015e	83 c4 0c	 add	 esp, 12			; 0000000cH
$LN18@DoApplicat:

; 858  : 	StatDeleteFile (path2);

  00161	8d 54 24 10	 lea	 edx, DWORD PTR _st$138229[esp+596]
  00165	52		 push	 edx
  00166	8d 44 24 4c	 lea	 eax, DWORD PTR _path2$[esp+600]
  0016a	50		 push	 eax
  0016b	e8 00 00 00 00	 call	 __stat64
  00170	83 c4 08	 add	 esp, 8
  00173	85 c0		 test	 eax, eax
  00175	75 07		 jne	 SHORT $LN22@DoApplicat
  00177	8d 4c 24 48	 lea	 ecx, DWORD PTR _path2$[esp+596]
  0017b	51		 push	 ecx
  0017c	ff d3		 call	 ebx
$LN22@DoApplicat:

; 859  : 	
; 860  : 	// Delete configuration file
; 861  : 	snprintf (path2, sizeof(path2), "%s%s", path, TC_APPD_FILENAME_CONFIGURATION);

  0017e	68 00 00 00 00	 push	 OFFSET ??_C@_0BC@FNANDAA@Configuration?4xml?$AA@
  00183	8d 94 24 50 01
	00 00		 lea	 edx, DWORD PTR _path$[esp+600]
  0018a	52		 push	 edx
  0018b	68 00 00 00 00	 push	 OFFSET ??_C@_04HDOCAJNK@?$CFs?$CFs?$AA@
  00190	8d 44 24 54	 lea	 eax, DWORD PTR _path2$[esp+608]
  00194	68 04 01 00 00	 push	 260			; 00000104H
  00199	50		 push	 eax
  0019a	e8 00 00 00 00	 call	 _sprintf_s
  0019f	83 c4 14	 add	 esp, 20			; 00000014H

; 862  : 	RemoveMessage (hwndDlg, path2);

  001a2	83 3d 00 00 00
	00 00		 cmp	 DWORD PTR _Rollback, 0
  001a9	75 13		 jne	 SHORT $LN25@DoApplicat
  001ab	8d 4c 24 48	 lea	 ecx, DWORD PTR _path2$[esp+596]
  001af	51		 push	 ecx
  001b0	68 00 00 00 00	 push	 OFFSET ??_C@_08GLIOLGPM@REMOVING?$AA@
  001b5	56		 push	 esi
  001b6	e8 00 00 00 00	 call	 _StatusMessageParam
  001bb	83 c4 0c	 add	 esp, 12			; 0000000cH
$LN25@DoApplicat:

; 863  : 	StatDeleteFile (path2);

  001be	8d 54 24 10	 lea	 edx, DWORD PTR _st$138239[esp+596]
  001c2	52		 push	 edx
  001c3	8d 44 24 4c	 lea	 eax, DWORD PTR _path2$[esp+600]
  001c7	50		 push	 eax
  001c8	e8 00 00 00 00	 call	 __stat64
  001cd	83 c4 08	 add	 esp, 8
  001d0	85 c0		 test	 eax, eax
  001d2	75 07		 jne	 SHORT $LN29@DoApplicat
  001d4	8d 4c 24 48	 lea	 ecx, DWORD PTR _path2$[esp+596]
  001d8	51		 push	 ecx
  001d9	ff d3		 call	 ebx
$LN29@DoApplicat:

; 864  : 
; 865  : 	// Delete system encryption configuration file
; 866  : 	snprintf (path2, sizeof(path2), "%s%s", path, TC_APPD_FILENAME_SYSTEM_ENCRYPTION);

  001db	68 00 00 00 00	 push	 OFFSET ??_C@_0BG@NJOIKHOP@System?5Encryption?4xml?$AA@
  001e0	8d 94 24 50 01
	00 00		 lea	 edx, DWORD PTR _path$[esp+600]
  001e7	52		 push	 edx
  001e8	68 00 00 00 00	 push	 OFFSET ??_C@_04HDOCAJNK@?$CFs?$CFs?$AA@
  001ed	8d 44 24 54	 lea	 eax, DWORD PTR _path2$[esp+608]
  001f1	68 04 01 00 00	 push	 260			; 00000104H
  001f6	50		 push	 eax
  001f7	e8 00 00 00 00	 call	 _sprintf_s
  001fc	83 c4 14	 add	 esp, 20			; 00000014H

; 867  : 	RemoveMessage (hwndDlg, path2);

  001ff	83 3d 00 00 00
	00 00		 cmp	 DWORD PTR _Rollback, 0
  00206	75 13		 jne	 SHORT $LN32@DoApplicat
  00208	8d 4c 24 48	 lea	 ecx, DWORD PTR _path2$[esp+596]
  0020c	51		 push	 ecx
  0020d	68 00 00 00 00	 push	 OFFSET ??_C@_08GLIOLGPM@REMOVING?$AA@
  00212	56		 push	 esi
  00213	e8 00 00 00 00	 call	 _StatusMessageParam
  00218	83 c4 0c	 add	 esp, 12			; 0000000cH
$LN32@DoApplicat:

; 868  : 	StatDeleteFile (path2);

  0021b	8d 54 24 10	 lea	 edx, DWORD PTR _st$138250[esp+596]
  0021f	52		 push	 edx
  00220	8d 44 24 4c	 lea	 eax, DWORD PTR _path2$[esp+600]
  00224	50		 push	 eax
  00225	e8 00 00 00 00	 call	 __stat64
  0022a	83 c4 08	 add	 esp, 8
  0022d	85 c0		 test	 eax, eax
  0022f	75 07		 jne	 SHORT $LN36@DoApplicat
  00231	8d 4c 24 48	 lea	 ecx, DWORD PTR _path2$[esp+596]
  00235	51		 push	 ecx
  00236	ff d3		 call	 ebx
$LN36@DoApplicat:

; 869  : 
; 870  : 	SHGetFolderPath (NULL, CSIDL_APPDATA, NULL, 0, path);

  00238	8d 94 24 4c 01
	00 00		 lea	 edx, DWORD PTR _path$[esp+596]
  0023f	52		 push	 edx
  00240	6a 00		 push	 0
  00242	6a 00		 push	 0
  00244	6a 1a		 push	 26			; 0000001aH
  00246	6a 00		 push	 0
  00248	ff d7		 call	 edi

; 871  : 	strcat_s (path, sizeof(path), "\\TrueCrypt");

  0024a	68 00 00 00 00	 push	 OFFSET ??_C@_0L@LGADMAPO@?2TrueCrypt?$AA@
  0024f	8d 84 24 50 01
	00 00		 lea	 eax, DWORD PTR _path$[esp+600]
  00256	68 04 01 00 00	 push	 260			; 00000104H
  0025b	50		 push	 eax
  0025c	e8 00 00 00 00	 call	 _strcat_s
  00261	83 c4 0c	 add	 esp, 12			; 0000000cH

; 872  : 	RemoveMessage (hwndDlg, path);

  00264	83 3d 00 00 00
	00 00		 cmp	 DWORD PTR _Rollback, 0
  0026b	5b		 pop	 ebx
  0026c	75 16		 jne	 SHORT $LN39@DoApplicat
  0026e	8d 8c 24 48 01
	00 00		 lea	 ecx, DWORD PTR _path$[esp+592]
  00275	51		 push	 ecx
  00276	68 00 00 00 00	 push	 OFFSET ??_C@_08GLIOLGPM@REMOVING?$AA@
  0027b	56		 push	 esi
  0027c	e8 00 00 00 00	 call	 _StatusMessageParam
  00281	83 c4 0c	 add	 esp, 12			; 0000000cH
$LN39@DoApplicat:

; 873  : 	if (!StatRemoveDirectory (path))

  00284	8d 54 24 0c	 lea	 edx, DWORD PTR _st$138260[esp+592]
  00288	52		 push	 edx
  00289	8d 84 24 4c 01
	00 00		 lea	 eax, DWORD PTR _path$[esp+596]
  00290	50		 push	 eax
  00291	e8 00 00 00 00	 call	 __stat64
  00296	83 c4 08	 add	 esp, 8
  00299	85 c0		 test	 eax, eax
  0029b	75 35		 jne	 SHORT $LN47@DoApplicat
  0029d	8d 8c 24 48 01
	00 00		 lea	 ecx, DWORD PTR _path$[esp+592]
  002a4	51		 push	 ecx
  002a5	ff 15 00 00 00
	00		 call	 DWORD PTR __imp__RemoveDirectoryA@4
  002ab	85 c0		 test	 eax, eax
  002ad	75 23		 jne	 SHORT $LN47@DoApplicat

; 874  : 	{
; 875  : 		handleWin32Error (hwndDlg);

  002af	56		 push	 esi
  002b0	e8 00 00 00 00	 call	 _handleWin32Error
  002b5	83 c4 04	 add	 esp, 4
  002b8	5f		 pop	 edi
  002b9	5e		 pop	 esi

; 876  : 		bOK = FALSE;

  002ba	33 c0		 xor	 eax, eax
  002bc	5d		 pop	 ebp

; 877  : 	}
; 878  : 
; 879  : 	return bOK;
; 880  : }

  002bd	8b 8c 24 40 02
	00 00		 mov	 ecx, DWORD PTR __$ArrayPad$[esp+580]
  002c4	33 cc		 xor	 ecx, esp
  002c6	e8 00 00 00 00	 call	 @__security_check_cookie@4
  002cb	81 c4 44 02 00
	00		 add	 esp, 580		; 00000244H
  002d1	c3		 ret	 0
$LN47@DoApplicat:
  002d2	8b 8c 24 4c 02
	00 00		 mov	 ecx, DWORD PTR __$ArrayPad$[esp+592]
  002d9	5f		 pop	 edi
  002da	5e		 pop	 esi
  002db	8b c5		 mov	 eax, ebp
  002dd	5d		 pop	 ebp
  002de	33 cc		 xor	 ecx, esp
  002e0	e8 00 00 00 00	 call	 @__security_check_cookie@4
  002e5	81 c4 44 02 00
	00		 add	 esp, 580		; 00000244H
  002eb	c3		 ret	 0
?DoApplicationDataUninstall@@YAHPAUHWND__@@@Z ENDP	; DoApplicationDataUninstall
_TEXT	ENDS
PUBLIC	??_C@_0BD@NCHEPDGI@Software?2TrueCrypt?$AA@	; `string'
PUBLIC	??_C@_0CH@BHAFNGC@Software?2Classes?2TrueCryptVolume@ ; `string'
PUBLIC	??_C@_0CM@CJAMGNCN@Software?2Classes?2TrueCryptVolume@ ; `string'
PUBLIC	??_C@_0N@GACNCPHC@REMOVING_REG?$AA@		; `string'
PUBLIC	??_C@_0BB@OBMIEKIN@COM_DEREG_FAILED?$AA@	; `string'
PUBLIC	__$ArrayPad$
PUBLIC	_DoRegUninstall
EXTRN	__imp__RegDeleteKeyA@8:PROC
EXTRN	_UnregisterComServers:PROC
;	COMDAT ??_C@_0BD@NCHEPDGI@Software?2TrueCrypt?$AA@
CONST	SEGMENT
??_C@_0BD@NCHEPDGI@Software?2TrueCrypt?$AA@ DB 'Software\TrueCrypt', 00H ; `string'
CONST	ENDS
;	COMDAT ??_C@_0CH@BHAFNGC@Software?2Classes?2TrueCryptVolume@
CONST	SEGMENT
??_C@_0CH@BHAFNGC@Software?2Classes?2TrueCryptVolume@ DB 'Software\Classe'
	DB	's\TrueCryptVolume\Shell', 00H		; `string'
CONST	ENDS
;	COMDAT ??_C@_0CM@CJAMGNCN@Software?2Classes?2TrueCryptVolume@
CONST	SEGMENT
??_C@_0CM@CJAMGNCN@Software?2Classes?2TrueCryptVolume@ DB 'Software\Class'
	DB	'es\TrueCryptVolume\Shell\open', 00H		; `string'
CONST	ENDS
;	COMDAT ??_C@_0N@GACNCPHC@REMOVING_REG?$AA@
CONST	SEGMENT
??_C@_0N@GACNCPHC@REMOVING_REG?$AA@ DB 'REMOVING_REG', 00H ; `string'
CONST	ENDS
;	COMDAT ??_C@_0BB@OBMIEKIN@COM_DEREG_FAILED?$AA@
CONST	SEGMENT
??_C@_0BB@OBMIEKIN@COM_DEREG_FAILED?$AA@ DB 'COM_DEREG_FAILED', 00H ; `string'
; Function compile flags: /Ogtpy
CONST	ENDS
;	COMDAT _DoRegUninstall
_TEXT	SEGMENT
_regk$ = -68						; size = 64
__$ArrayPad$ = -4					; size = 4
_hwndDlg$ = 8						; size = 4
_bRemoveDeprecated$ = 12				; size = 4
_DoRegUninstall PROC					; COMDAT

; 883  : {

  00000	83 ec 44	 sub	 esp, 68			; 00000044H
  00003	a1 00 00 00 00	 mov	 eax, DWORD PTR ___security_cookie
  00008	33 c4		 xor	 eax, esp
  0000a	89 44 24 40	 mov	 DWORD PTR __$ArrayPad$[esp+68], eax
  0000e	56		 push	 esi
  0000f	8b 74 24 4c	 mov	 esi, DWORD PTR _hwndDlg$[esp+68]
  00013	57		 push	 edi

; 884  : 	BOOL bOK = FALSE;
; 885  : 	char regk [64];
; 886  : 
; 887  : 	// Unregister COM servers
; 888  : 	if (!bRemoveDeprecated && IsOSAtLeast (WIN_VISTA))

  00014	8b 7c 24 54	 mov	 edi, DWORD PTR _bRemoveDeprecated$[esp+72]
  00018	85 ff		 test	 edi, edi
  0001a	75 3b		 jne	 SHORT $LN4@DoRegUnins
  0001c	6a 0b		 push	 11			; 0000000bH
  0001e	e8 00 00 00 00	 call	 _IsOSAtLeast
  00023	83 c4 04	 add	 esp, 4
  00026	85 c0		 test	 eax, eax
  00028	74 1f		 je	 SHORT $LN9@DoRegUnins

; 889  : 	{
; 890  : 		if (!UnregisterComServers (UninstallationPath))

  0002a	68 00 00 00 00	 push	 OFFSET ?UninstallationPath@@3PADA ; UninstallationPath
  0002f	e8 00 00 00 00	 call	 _UnregisterComServers
  00034	83 c4 04	 add	 esp, 4
  00037	85 c0		 test	 eax, eax
  00039	75 0e		 jne	 SHORT $LN9@DoRegUnins

; 891  : 			StatusMessage (hwndDlg, "COM_DEREG_FAILED");

  0003b	68 00 00 00 00	 push	 OFFSET ??_C@_0BB@OBMIEKIN@COM_DEREG_FAILED?$AA@
  00040	56		 push	 esi
  00041	e8 00 00 00 00	 call	 _StatusMessage
  00046	83 c4 08	 add	 esp, 8
$LN9@DoRegUnins:

; 892  : 	}
; 893  : 
; 894  : 	if (!bRemoveDeprecated)
; 895  : 		StatusMessage (hwndDlg, "REMOVING_REG");

  00049	68 00 00 00 00	 push	 OFFSET ??_C@_0N@GACNCPHC@REMOVING_REG?$AA@
  0004e	56		 push	 esi
  0004f	e8 00 00 00 00	 call	 _StatusMessage
  00054	83 c4 08	 add	 esp, 8
$LN4@DoRegUnins:

; 896  : 
; 897  : 	RegDeleteKey (HKEY_LOCAL_MACHINE, "Software\\Microsoft\\Windows\\CurrentVersion\\Uninstall\\TrueCrypt");

  00057	8b 35 00 00 00
	00		 mov	 esi, DWORD PTR __imp__RegDeleteKeyA@8
  0005d	68 00 00 00 00	 push	 OFFSET ??_C@_0DO@FLBIDANE@Software?2Microsoft?2Windows?2Curre@
  00062	68 02 00 00 80	 push	 -2147483646		; 80000002H
  00067	ff d6		 call	 esi

; 898  : 	RegDeleteKey (HKEY_LOCAL_MACHINE, "Software\\Classes\\TrueCryptVolume\\Shell\\open\\command");

  00069	68 00 00 00 00	 push	 OFFSET ??_C@_0DE@JBHHIJAN@Software?2Classes?2TrueCryptVolume@
  0006e	68 02 00 00 80	 push	 -2147483646		; 80000002H
  00073	ff d6		 call	 esi

; 899  : 	RegDeleteKey (HKEY_LOCAL_MACHINE, "Software\\Classes\\TrueCryptVolume\\Shell\\open");

  00075	68 00 00 00 00	 push	 OFFSET ??_C@_0CM@CJAMGNCN@Software?2Classes?2TrueCryptVolume@
  0007a	68 02 00 00 80	 push	 -2147483646		; 80000002H
  0007f	ff d6		 call	 esi

; 900  : 	RegDeleteKey (HKEY_LOCAL_MACHINE, "Software\\Classes\\TrueCryptVolume\\Shell");

  00081	68 00 00 00 00	 push	 OFFSET ??_C@_0CH@BHAFNGC@Software?2Classes?2TrueCryptVolume@
  00086	68 02 00 00 80	 push	 -2147483646		; 80000002H
  0008b	ff d6		 call	 esi

; 901  : 	RegDeleteKey (HKEY_LOCAL_MACHINE, "Software\\Classes\\TrueCryptVolume\\DefaultIcon");

  0008d	68 00 00 00 00	 push	 OFFSET ??_C@_0CN@DNPKJBAH@Software?2Classes?2TrueCryptVolume@
  00092	68 02 00 00 80	 push	 -2147483646		; 80000002H
  00097	ff d6		 call	 esi

; 902  : 	RegDeleteKey (HKEY_LOCAL_MACHINE, "Software\\Classes\\TrueCryptVolume");

  00099	68 00 00 00 00	 push	 OFFSET ??_C@_0CB@JOIIBOEC@Software?2Classes?2TrueCryptVolume@
  0009e	68 02 00 00 80	 push	 -2147483646		; 80000002H
  000a3	ff d6		 call	 esi

; 903  : 	RegDeleteKey (HKEY_CURRENT_USER, "Software\\TrueCrypt");

  000a5	68 00 00 00 00	 push	 OFFSET ??_C@_0BD@NCHEPDGI@Software?2TrueCrypt?$AA@
  000aa	68 01 00 00 80	 push	 -2147483647		; 80000001H
  000af	ff d6		 call	 esi

; 904  : 
; 905  : 	if (!bRemoveDeprecated)

  000b1	85 ff		 test	 edi, edi
  000b3	75 42		 jne	 SHORT $LN10@DoRegUnins

; 906  : 	{
; 907  : 		/* CipherShed. */
; 908  : 		RegDeleteKey (HKEY_LOCAL_MACHINE, "Software\\CipherShed");

  000b5	68 00 00 00 00	 push	 OFFSET ??_C@_0BE@GEGOEFMH@Software?2CipherShed?$AA@
  000ba	68 02 00 00 80	 push	 -2147483646		; 80000002H
  000bf	ff d6		 call	 esi

; 909  : 
; 910  : 		GetStartupRegKeyName (regk);

  000c1	8d 44 24 08	 lea	 eax, DWORD PTR _regk$[esp+76]
  000c5	50		 push	 eax
  000c6	e8 00 00 00 00	 call	 _GetStartupRegKeyName

; 911  : 		DeleteRegistryValue (regk, "CipherShed");

  000cb	8d 4c 24 0c	 lea	 ecx, DWORD PTR _regk$[esp+80]
  000cf	68 00 00 00 00	 push	 OFFSET ??_C@_0L@FEEFGEIL@CipherShed?$AA@
  000d4	51		 push	 ecx
  000d5	e8 00 00 00 00	 call	 _DeleteRegistryValue
  000da	83 c4 0c	 add	 esp, 12			; 0000000cH

; 912  : 
; 913  : 		RegDeleteKey (HKEY_LOCAL_MACHINE, "Software\\Classes\\.tc");

  000dd	68 00 00 00 00	 push	 OFFSET ??_C@_0BF@MHIJGGNK@Software?2Classes?2?4tc?$AA@
  000e2	68 02 00 00 80	 push	 -2147483646		; 80000002H
  000e7	ff d6		 call	 esi

; 914  : 		SHChangeNotify (SHCNE_ASSOCCHANGED, SHCNF_IDLIST, NULL, NULL);

  000e9	57		 push	 edi
  000ea	57		 push	 edi
  000eb	57		 push	 edi
  000ec	68 00 00 00 08	 push	 134217728		; 08000000H
  000f1	ff 15 00 00 00
	00		 call	 DWORD PTR __imp__SHChangeNotify@16
$LN10@DoRegUnins:

; 915  : 	}
; 916  : 
; 917  : 	bOK = TRUE;
; 918  : 
; 919  : 	if (bOK == FALSE && GetLastError ()!= ERROR_NO_TOKEN && GetLastError ()!= ERROR_FILE_NOT_FOUND
; 920  : 	    && GetLastError ()!= ERROR_PATH_NOT_FOUND)
; 921  : 	{
; 922  : 		handleWin32Error (hwndDlg);
; 923  : 	}
; 924  : 	else
; 925  : 		bOK = TRUE;
; 926  : 
; 927  : 	return bOK;
; 928  : }

  000f7	8b 4c 24 48	 mov	 ecx, DWORD PTR __$ArrayPad$[esp+76]
  000fb	5f		 pop	 edi
  000fc	5e		 pop	 esi
  000fd	33 cc		 xor	 ecx, esp
  000ff	b8 01 00 00 00	 mov	 eax, 1
  00104	e8 00 00 00 00	 call	 @__security_check_cookie@4
  00109	83 c4 44	 add	 esp, 68			; 00000044H
  0010c	c3		 ret	 0
_DoRegUninstall ENDP
_TEXT	ENDS
PUBLIC	??_C@_0BH@BJNFCLGM@DRIVER_UINSTALL_FAILED?$AA@	; `string'
PUBLIC	??_C@_0BA@LFOBNNHD@REMOVING_DRIVER?$AA@		; `string'
PUBLIC	??_C@_08CGLLMHMN@STOPPING?$AA@			; `string'
PUBLIC	??_C@_0BA@HLDEBKOH@STOPPING_DRIVER?$AA@		; `string'
PUBLIC	??_C@_09EFLFAGB@truecrypt?$AA@			; `string'
PUBLIC	_lpszService$GSCopy$
PUBLIC	_hwndDlg$GSCopy$
PUBLIC	__$ArrayPad$
PUBLIC	_DoServiceUninstall
EXTRN	__imp__MessageBoxW@16:PROC
EXTRN	_lpszTitle:DWORD
EXTRN	__imp__GetLastError@0:PROC
EXTRN	__imp__DeleteService@4:PROC
EXTRN	__imp__CloseServiceHandle@4:PROC
EXTRN	__imp__ControlService@12:PROC
EXTRN	__imp__Sleep@4:PROC
EXTRN	__imp__QueryServiceStatus@8:PROC
EXTRN	??1BootEncryption@CipherShed@@QAE@XZ:PROC	; CipherShed::BootEncryption::~BootEncryption
EXTRN	?RegisterFilterDriver@BootEncryption@CipherShed@@QAEX_NW4FilterType@12@@Z:PROC ; CipherShed::BootEncryption::RegisterFilterDriver
EXTRN	?GetDriverServiceStartType@BootEncryption@CipherShed@@QAEKXZ:PROC ; CipherShed::BootEncryption::GetDriverServiceStartType
EXTRN	??0BootEncryption@CipherShed@@QAE@PAUHWND__@@@Z:PROC ; CipherShed::BootEncryption::BootEncryption
EXTRN	__imp__OpenServiceA@12:PROC
EXTRN	__imp__OpenSCManagerA@12:PROC
EXTRN	___CxxFrameHandler3:PROC
;	COMDAT ??_C@_0BH@BJNFCLGM@DRIVER_UINSTALL_FAILED?$AA@
CONST	SEGMENT
??_C@_0BH@BJNFCLGM@DRIVER_UINSTALL_FAILED?$AA@ DB 'DRIVER_UINSTALL_FAILED'
	DB	00H						; `string'
CONST	ENDS
;	COMDAT ??_C@_0BA@LFOBNNHD@REMOVING_DRIVER?$AA@
CONST	SEGMENT
??_C@_0BA@LFOBNNHD@REMOVING_DRIVER?$AA@ DB 'REMOVING_DRIVER', 00H ; `string'
CONST	ENDS
;	COMDAT ??_C@_08CGLLMHMN@STOPPING?$AA@
CONST	SEGMENT
??_C@_08CGLLMHMN@STOPPING?$AA@ DB 'STOPPING', 00H	; `string'
CONST	ENDS
;	COMDAT ??_C@_0BA@HLDEBKOH@STOPPING_DRIVER?$AA@
CONST	SEGMENT
??_C@_0BA@HLDEBKOH@STOPPING_DRIVER?$AA@ DB 'STOPPING_DRIVER', 00H ; `string'
CONST	ENDS
;	COMDAT ??_C@_09EFLFAGB@truecrypt?$AA@
CONST	SEGMENT
??_C@_09EFLFAGB@truecrypt?$AA@ DB 'truecrypt', 00H	; `string'
CONST	ENDS
;	COMDAT xdata$x
xdata$x	SEGMENT
__catchsym$_DoServiceUninstall$21 DD 040H
	DD	00H
	DD	00H
	DD	FLAT:__catch$_DoServiceUninstall$8
__catchsym$_DoServiceUninstall$20 DD 040H
	DD	00H
	DD	00H
	DD	FLAT:__catch$_DoServiceUninstall$6
__catchsym$_DoServiceUninstall$19 DD 040H
	DD	00H
	DD	00H
	DD	FLAT:__catch$_DoServiceUninstall$4
__catchsym$_DoServiceUninstall$18 DD 040H
	DD	00H
	DD	00H
	DD	FLAT:__catch$_DoServiceUninstall$2
__ehfuncinfo$_DoServiceUninstall DD 019930522H
	DD	09H
	DD	FLAT:__unwindtable$_DoServiceUninstall
	DD	04H
	DD	FLAT:__tryblocktable$_DoServiceUninstall
	DD	2 DUP(00H)
	DD	00H
	DD	01H
__unwindtable$_DoServiceUninstall DD 0ffffffffH
	DD	00H
	DD	00H
	DD	FLAT:__unwindfunclet$_DoServiceUninstall$17
	DD	01H
	DD	00H
	DD	01H
	DD	00H
	DD	01H
	DD	00H
	DD	01H
	DD	00H
	DD	01H
	DD	00H
	DD	01H
	DD	00H
	DD	0ffffffffH
	DD	00H
__tryblocktable$_DoServiceUninstall DD 02H
	DD	02H
	DD	03H
	DD	01H
	DD	FLAT:__catchsym$_DoServiceUninstall$18
	DD	04H
	DD	04H
	DD	05H
	DD	01H
	DD	FLAT:__catchsym$_DoServiceUninstall$19
	DD	06H
	DD	06H
	DD	07H
	DD	01H
	DD	FLAT:__catchsym$_DoServiceUninstall$20
	DD	00H
	DD	07H
	DD	08H
	DD	01H
	DD	FLAT:__catchsym$_DoServiceUninstall$21
; Function compile flags: /Ogtpy
xdata$x	ENDS
;	COMDAT _DoServiceUninstall
_TEXT	SEGMENT
_status$ = -68						; size = 28
_firstTry$ = -40					; size = 4
_lpszService$GSCopy$ = -36				; size = 4
_hwndDlg$GSCopy$ = -32					; size = 4
_hService$ = -28					; size = 4
_bOK$ = -24						; size = 4
_hManager$ = -20					; size = 4
__$EHRec$ = -16						; size = 16
_bootEnc$134508 = 0					; size = 1560
__$ArrayPad$ = 1560					; size = 4
_hwndDlg$ = 1572					; size = 4
_lpszService$ = 1576					; size = 4
_DoServiceUninstall PROC				; COMDAT

; 938  : {

  00000	55		 push	 ebp
  00001	8d ac 24 e4 f9
	ff ff		 lea	 ebp, DWORD PTR [esp-1564]
  00008	81 ec 1c 06 00
	00		 sub	 esp, 1564		; 0000061cH
  0000e	6a ff		 push	 -1
  00010	68 00 00 00 00	 push	 __ehhandler$_DoServiceUninstall
  00015	64 a1 00 00 00
	00		 mov	 eax, DWORD PTR fs:0
  0001b	50		 push	 eax
  0001c	83 ec 38	 sub	 esp, 56			; 00000038H
  0001f	a1 00 00 00 00	 mov	 eax, DWORD PTR ___security_cookie
  00024	33 c5		 xor	 eax, ebp
  00026	89 85 18 06 00
	00		 mov	 DWORD PTR __$ArrayPad$[ebp], eax
  0002c	53		 push	 ebx
  0002d	56		 push	 esi
  0002e	57		 push	 edi
  0002f	50		 push	 eax
  00030	8d 45 f4	 lea	 eax, DWORD PTR __$EHRec$[ebp+4]
  00033	64 a3 00 00 00
	00		 mov	 DWORD PTR fs:0, eax
  00039	89 65 f0	 mov	 DWORD PTR __$EHRec$[ebp], esp
  0003c	8b 9d 24 06 00
	00		 mov	 ebx, DWORD PTR _hwndDlg$[ebp]
  00042	8b b5 28 06 00
	00		 mov	 esi, DWORD PTR _lpszService$[ebp]

; 939  : 	SC_HANDLE hManager, hService = NULL;

  00048	33 c0		 xor	 eax, eax
  0004a	89 5d e0	 mov	 DWORD PTR _hwndDlg$GSCopy$[ebp], ebx
  0004d	89 75 dc	 mov	 DWORD PTR _lpszService$GSCopy$[ebp], esi
  00050	33 ff		 xor	 edi, edi

; 940  : 	BOOL bOK = FALSE, bRet;

  00052	89 45 e8	 mov	 DWORD PTR _bOK$[ebp], eax

; 941  : 	SERVICE_STATUS status;
; 942  : 	BOOL firstTry = TRUE;

  00055	c7 45 d8 01 00
	00 00		 mov	 DWORD PTR _firstTry$[ebp], 1

; 943  : 	int x;
; 944  : 
; 945  : 	memset (&status, 0, sizeof (status));	/* Keep VC6 quiet */

  0005c	89 45 bc	 mov	 DWORD PTR _status$[ebp], eax
  0005f	89 45 c0	 mov	 DWORD PTR _status$[ebp+4], eax
  00062	89 45 c4	 mov	 DWORD PTR _status$[ebp+8], eax
  00065	89 45 c8	 mov	 DWORD PTR _status$[ebp+12], eax
  00068	89 45 cc	 mov	 DWORD PTR _status$[ebp+16], eax
  0006b	89 45 d0	 mov	 DWORD PTR _status$[ebp+20], eax
  0006e	89 45 d4	 mov	 DWORD PTR _status$[ebp+24], eax
$retry$134499:

; 946  : 
; 947  : retry:
; 948  : 
; 949  : 	/* Service control manager. */
; 950  : 	hManager = OpenSCManager (NULL, NULL, SC_MANAGER_ALL_ACCESS);

  00071	68 3f 00 0f 00	 push	 983103			; 000f003fH
  00076	6a 00		 push	 0
  00078	6a 00		 push	 0
  0007a	ff 15 00 00 00
	00		 call	 DWORD PTR __imp__OpenSCManagerA@12
  00080	89 45 ec	 mov	 DWORD PTR _hManager$[ebp], eax

; 951  : 	if (hManager == NULL)

  00083	85 c0		 test	 eax, eax
  00085	0f 84 04 03 00
	00		 je	 $LN96@DoServiceU

; 952  : 		goto error;
; 953  : 
; 954  : 	hService = OpenService (hManager, lpszService, SERVICE_ALL_ACCESS);

  0008b	68 ff 01 0f 00	 push	 983551			; 000f01ffH
  00090	56		 push	 esi
  00091	50		 push	 eax
  00092	ff 15 00 00 00
	00		 call	 DWORD PTR __imp__OpenServiceA@12
  00098	8b f8		 mov	 edi, eax
  0009a	89 7d e4	 mov	 DWORD PTR _hService$[ebp], edi

; 955  : 	if (hService == NULL)

  0009d	85 ff		 test	 edi, edi
  0009f	0f 84 ea 02 00
	00		 je	 $LN96@DoServiceU

; 956  : 		goto error;
; 957  : 
; 958  : 	if (strcmp ("truecrypt", lpszService) == 0)

  000a5	8b ce		 mov	 ecx, esi
  000a7	b8 00 00 00 00	 mov	 eax, OFFSET ??_C@_09EFLFAGB@truecrypt?$AA@
  000ac	8d 64 24 00	 npad	 4
$LL79@DoServiceU:
  000b0	8a 10		 mov	 dl, BYTE PTR [eax]
  000b2	3a 11		 cmp	 dl, BYTE PTR [ecx]
  000b4	75 1a		 jne	 SHORT $LN80@DoServiceU
  000b6	84 d2		 test	 dl, dl
  000b8	74 12		 je	 SHORT $LN81@DoServiceU
  000ba	8a 50 01	 mov	 dl, BYTE PTR [eax+1]
  000bd	3a 51 01	 cmp	 dl, BYTE PTR [ecx+1]
  000c0	75 0e		 jne	 SHORT $LN80@DoServiceU
  000c2	83 c0 02	 add	 eax, 2
  000c5	83 c1 02	 add	 ecx, 2
  000c8	84 d2		 test	 dl, dl
  000ca	75 e4		 jne	 SHORT $LL79@DoServiceU
$LN81@DoServiceU:
  000cc	33 c0		 xor	 eax, eax
  000ce	eb 05		 jmp	 SHORT $LN82@DoServiceU
$LN80@DoServiceU:
  000d0	1b c0		 sbb	 eax, eax
  000d2	83 d8 ff	 sbb	 eax, -1
$LN82@DoServiceU:
  000d5	85 c0		 test	 eax, eax
  000d7	0f 85 e8 00 00
	00		 jne	 $LN39@DoServiceU

; 959  : 	{
; 960  : 		try
; 961  : 		{
; 962  : 			BootEncryption bootEnc (hwndDlg);

  000dd	53		 push	 ebx
  000de	8d 4d 00	 lea	 ecx, DWORD PTR _bootEnc$134508[ebp]
  000e1	89 45 fc	 mov	 DWORD PTR __$EHRec$[ebp+12], eax
  000e4	e8 00 00 00 00	 call	 ??0BootEncryption@CipherShed@@QAE@PAUHWND__@@@Z ; CipherShed::BootEncryption::BootEncryption

; 963  : 
; 964  : 			if (bootEnc.GetDriverServiceStartType() == SERVICE_BOOT_START)

  000e9	8d 4d 00	 lea	 ecx, DWORD PTR _bootEnc$134508[ebp]
  000ec	c6 45 fc 01	 mov	 BYTE PTR __$EHRec$[ebp+12], 1
  000f0	e8 00 00 00 00	 call	 ?GetDriverServiceStartType@BootEncryption@CipherShed@@QAEKXZ ; CipherShed::BootEncryption::GetDriverServiceStartType
  000f5	85 c0		 test	 eax, eax
  000f7	0f 85 82 00 00
	00		 jne	 $LN60@DoServiceU

; 965  : 			{
; 966  : 				/* Uninstall filter drivers. */
; 967  : 				try { bootEnc.RegisterFilterDriver (false, BootEncryption::DriveFilter); } catch (...) { }

  000fd	50		 push	 eax
  000fe	50		 push	 eax
  000ff	8d 4d 00	 lea	 ecx, DWORD PTR _bootEnc$134508[ebp]
  00102	c6 45 fc 02	 mov	 BYTE PTR __$EHRec$[ebp+12], 2
  00106	e8 00 00 00 00	 call	 ?RegisterFilterDriver@BootEncryption@CipherShed@@QAEX_NW4FilterType@12@@Z ; CipherShed::BootEncryption::RegisterFilterDriver
  0010b	c7 45 fc 01 00
	00 00		 mov	 DWORD PTR __$EHRec$[ebp+12], 1
  00112	eb 13		 jmp	 SHORT $LN56@DoServiceU
__catch$_DoServiceUninstall$2:
  00114	c7 45 fc 01 00
	00 00		 mov	 DWORD PTR __$EHRec$[ebp+12], 1
  0011b	b8 00 00 00 00	 mov	 eax, $LN88@DoServiceU
  00120	c3		 ret	 0
$LN88@DoServiceU:
  00121	8b 7d e4	 mov	 edi, DWORD PTR _hService$[ebp]
  00124	8b 5d e0	 mov	 ebx, DWORD PTR _hwndDlg$GSCopy$[ebp]
$LN56@DoServiceU:

; 968  : 				try { bootEnc.RegisterFilterDriver (false, BootEncryption::VolumeFilter); } catch (...) { }

  00127	6a 01		 push	 1
  00129	6a 00		 push	 0
  0012b	8d 4d 00	 lea	 ecx, DWORD PTR _bootEnc$134508[ebp]
  0012e	c6 45 fc 04	 mov	 BYTE PTR __$EHRec$[ebp+12], 4
  00132	e8 00 00 00 00	 call	 ?RegisterFilterDriver@BootEncryption@CipherShed@@QAEX_NW4FilterType@12@@Z ; CipherShed::BootEncryption::RegisterFilterDriver
  00137	c7 45 fc 01 00
	00 00		 mov	 DWORD PTR __$EHRec$[ebp+12], 1
  0013e	eb 13		 jmp	 SHORT $LN58@DoServiceU
__catch$_DoServiceUninstall$4:
  00140	c7 45 fc 01 00
	00 00		 mov	 DWORD PTR __$EHRec$[ebp+12], 1
  00147	b8 00 00 00 00	 mov	 eax, $LN89@DoServiceU
  0014c	c3		 ret	 0
$LN89@DoServiceU:
  0014d	8b 7d e4	 mov	 edi, DWORD PTR _hService$[ebp]
  00150	8b 5d e0	 mov	 ebx, DWORD PTR _hwndDlg$GSCopy$[ebp]
$LN58@DoServiceU:

; 969  : 				try { bootEnc.RegisterFilterDriver (false, BootEncryption::DumpFilter); } catch (...) { }

  00153	6a 02		 push	 2
  00155	6a 00		 push	 0
  00157	8d 4d 00	 lea	 ecx, DWORD PTR _bootEnc$134508[ebp]
  0015a	c6 45 fc 06	 mov	 BYTE PTR __$EHRec$[ebp+12], 6
  0015e	e8 00 00 00 00	 call	 ?RegisterFilterDriver@BootEncryption@CipherShed@@QAEX_NW4FilterType@12@@Z ; CipherShed::BootEncryption::RegisterFilterDriver
  00163	c7 45 fc 01 00
	00 00		 mov	 DWORD PTR __$EHRec$[ebp+12], 1
  0016a	eb 13		 jmp	 SHORT $LN60@DoServiceU
__catch$_DoServiceUninstall$6:
  0016c	c7 45 fc 01 00
	00 00		 mov	 DWORD PTR __$EHRec$[ebp+12], 1
  00173	b8 00 00 00 00	 mov	 eax, $LN90@DoServiceU
  00178	c3		 ret	 0
$LN90@DoServiceU:
  00179	8b 7d e4	 mov	 edi, DWORD PTR _hService$[ebp]
  0017c	8b 5d e0	 mov	 ebx, DWORD PTR _hwndDlg$GSCopy$[ebp]
$LN60@DoServiceU:

; 970  : 			}
; 971  : 		}

  0017f	8d 4d 00	 lea	 ecx, DWORD PTR _bootEnc$134508[ebp]
  00182	c6 45 fc 00	 mov	 BYTE PTR __$EHRec$[ebp+12], 0
  00186	e8 00 00 00 00	 call	 ??1BootEncryption@CipherShed@@QAE@XZ ; CipherShed::BootEncryption::~BootEncryption

; 973  : 
; 974  : 		StatusMessage (hwndDlg, "STOPPING_DRIVER");

  0018b	68 00 00 00 00	 push	 OFFSET ??_C@_0BA@HLDEBKOH@STOPPING_DRIVER?$AA@
  00190	53		 push	 ebx
  00191	c7 45 fc ff ff
	ff ff		 mov	 DWORD PTR __$EHRec$[ebp+12], -1
  00198	e8 00 00 00 00	 call	 _StatusMessage
  0019d	83 c4 08	 add	 esp, 8

; 975  : 	}
; 976  : 	else

  001a0	eb 32		 jmp	 SHORT $LN33@DoServiceU
__catch$_DoServiceUninstall$8:

; 972  : 		catch (...) { }

  001a2	c7 45 fc ff ff
	ff ff		 mov	 DWORD PTR __$EHRec$[ebp+12], -1
  001a9	b8 00 00 00 00	 mov	 eax, $LN91@DoServiceU
  001ae	c3		 ret	 0
$LN91@DoServiceU:
  001af	8b 5d e0	 mov	 ebx, DWORD PTR _hwndDlg$GSCopy$[ebp]
  001b2	8b 7d e4	 mov	 edi, DWORD PTR _hService$[ebp]

; 973  : 
; 974  : 		StatusMessage (hwndDlg, "STOPPING_DRIVER");

  001b5	68 00 00 00 00	 push	 OFFSET ??_C@_0BA@HLDEBKOH@STOPPING_DRIVER?$AA@
  001ba	53		 push	 ebx
  001bb	e8 00 00 00 00	 call	 _StatusMessage
  001c0	83 c4 08	 add	 esp, 8

; 975  : 	}
; 976  : 	else

  001c3	eb 0f		 jmp	 SHORT $LN33@DoServiceU
$LN39@DoServiceU:

; 977  : 		StatusMessageParam (hwndDlg, "STOPPING", lpszService);

  001c5	56		 push	 esi
  001c6	68 00 00 00 00	 push	 OFFSET ??_C@_08CGLLMHMN@STOPPING?$AA@
  001cb	53		 push	 ebx
  001cc	e8 00 00 00 00	 call	 _StatusMessageParam
  001d1	83 c4 0c	 add	 esp, 12			; 0000000cH
$LN33@DoServiceU:

; 978  : 
; 979  : #define WAIT_PERIOD 3
; 980  : 
; 981  : 	/* Status pending. */
; 982  : 	for (x = 0; x < WAIT_PERIOD; x++)

  001d4	33 f6		 xor	 esi, esi
$LL32@DoServiceU:

; 983  : 	{
; 984  : 		bRet = QueryServiceStatus (hService, &status);

  001d6	8d 45 bc	 lea	 eax, DWORD PTR _status$[ebp]
  001d9	50		 push	 eax
  001da	57		 push	 edi
  001db	ff 15 00 00 00
	00		 call	 DWORD PTR __imp__QueryServiceStatus@8

; 985  : 		if (bRet != TRUE)

  001e1	83 f8 01	 cmp	 eax, 1
  001e4	0f 85 a5 01 00
	00		 jne	 $LN96@DoServiceU

; 986  : 			goto error;
; 987  : 
; 988  : 		if (status.dwCurrentState != SERVICE_START_PENDING &&
; 989  : 		    status.dwCurrentState != SERVICE_STOP_PENDING &&
; 990  : 		    status.dwCurrentState != SERVICE_CONTINUE_PENDING)

  001ea	8b 45 c0	 mov	 eax, DWORD PTR _status$[ebp+4]
  001ed	83 f8 02	 cmp	 eax, 2
  001f0	74 0a		 je	 SHORT $LN27@DoServiceU
  001f2	83 f8 03	 cmp	 eax, 3
  001f5	74 05		 je	 SHORT $LN27@DoServiceU
  001f7	83 f8 05	 cmp	 eax, 5
  001fa	75 14		 jne	 SHORT $LN74@DoServiceU
$LN27@DoServiceU:

; 991  : 			break;
; 992  : 
; 993  : 		Sleep (1000);

  001fc	68 e8 03 00 00	 push	 1000			; 000003e8H
  00201	ff 15 00 00 00
	00		 call	 DWORD PTR __imp__Sleep@4
  00207	46		 inc	 esi
  00208	83 fe 03	 cmp	 esi, 3
  0020b	7c c9		 jl	 SHORT $LL32@DoServiceU

; 978  : 
; 979  : #define WAIT_PERIOD 3
; 980  : 
; 981  : 	/* Status pending. */
; 982  : 	for (x = 0; x < WAIT_PERIOD; x++)

  0020d	8b 45 c0	 mov	 eax, DWORD PTR _status$[ebp+4]
$LN74@DoServiceU:

; 994  : 	}
; 995  : 
; 996  : 	/* Check if the service is running (driver is loaded). */
; 997  : 	if (status.dwCurrentState != SERVICE_STOPPED)

  00210	83 f8 01	 cmp	 eax, 1
  00213	74 5b		 je	 SHORT $try_delete$134524

; 998  : 	{
; 999  : 		/* Stop the service (unload the driver). */
; 1000 : 		bRet = ControlService (hService, SERVICE_CONTROL_STOP, &status);

  00215	8d 4d bc	 lea	 ecx, DWORD PTR _status$[ebp]
  00218	51		 push	 ecx
  00219	6a 01		 push	 1
  0021b	57		 push	 edi
  0021c	ff 15 00 00 00
	00		 call	 DWORD PTR __imp__ControlService@12

; 1001 : 		if (bRet == FALSE)

  00222	85 c0		 test	 eax, eax
  00224	74 4a		 je	 SHORT $try_delete$134524

; 1002 : 			goto try_delete;
; 1003 : 
; 1004 : 		/* Status pending. */
; 1005 : 		for (x = 0; x < WAIT_PERIOD; x++)

  00226	33 f6		 xor	 esi, esi
$LL23@DoServiceU:

; 1006 : 		{
; 1007 : 			bRet = QueryServiceStatus (hService, &status);

  00228	8d 55 bc	 lea	 edx, DWORD PTR _status$[ebp]
  0022b	52		 push	 edx
  0022c	57		 push	 edi
  0022d	ff 15 00 00 00
	00		 call	 DWORD PTR __imp__QueryServiceStatus@8

; 1008 : 			if (bRet != TRUE)

  00233	83 f8 01	 cmp	 eax, 1
  00236	0f 85 53 01 00
	00		 jne	 $LN96@DoServiceU

; 1009 : 				goto error;
; 1010 : 
; 1011 : 			if (status.dwCurrentState != SERVICE_START_PENDING &&
; 1012 : 			    status.dwCurrentState != SERVICE_STOP_PENDING &&
; 1013 : 			  status.dwCurrentState != SERVICE_CONTINUE_PENDING)

  0023c	8b 45 c0	 mov	 eax, DWORD PTR _status$[ebp+4]
  0023f	83 f8 02	 cmp	 eax, 2
  00242	74 0a		 je	 SHORT $LN18@DoServiceU
  00244	83 f8 03	 cmp	 eax, 3
  00247	74 05		 je	 SHORT $LN18@DoServiceU
  00249	83 f8 05	 cmp	 eax, 5
  0024c	75 14		 jne	 SHORT $LN76@DoServiceU
$LN18@DoServiceU:

; 1014 : 				break;
; 1015 : 
; 1016 : 			Sleep (1000);

  0024e	68 e8 03 00 00	 push	 1000			; 000003e8H
  00253	ff 15 00 00 00
	00		 call	 DWORD PTR __imp__Sleep@4
  00259	46		 inc	 esi
  0025a	83 fe 03	 cmp	 esi, 3
  0025d	7c c9		 jl	 SHORT $LL23@DoServiceU

; 1002 : 			goto try_delete;
; 1003 : 
; 1004 : 		/* Status pending. */
; 1005 : 		for (x = 0; x < WAIT_PERIOD; x++)

  0025f	8b 45 c0	 mov	 eax, DWORD PTR _status$[ebp+4]
$LN76@DoServiceU:

; 1017 : 		}
; 1018 : 
; 1019 : 		if (status.dwCurrentState != SERVICE_STOPPED && status.dwCurrentState != SERVICE_STOP_PENDING)

  00262	83 f8 01	 cmp	 eax, 1
  00265	74 09		 je	 SHORT $try_delete$134524
  00267	83 f8 03	 cmp	 eax, 3
  0026a	0f 85 1f 01 00
	00		 jne	 $LN96@DoServiceU
$try_delete$134524:

; 1020 : 			goto error;
; 1021 : 	}
; 1022 : 
; 1023 : try_delete:
; 1024 : 
; 1025 : 	if (strcmp ("truecrypt", lpszService) == 0)

  00270	8b 75 dc	 mov	 esi, DWORD PTR _lpszService$GSCopy$[ebp]
  00273	8b ce		 mov	 ecx, esi
  00275	b8 00 00 00 00	 mov	 eax, OFFSET ??_C@_09EFLFAGB@truecrypt?$AA@
  0027a	8d 9b 00 00 00
	00		 npad	 6
$LL83@DoServiceU:
  00280	8a 10		 mov	 dl, BYTE PTR [eax]
  00282	3a 11		 cmp	 dl, BYTE PTR [ecx]
  00284	75 1a		 jne	 SHORT $LN84@DoServiceU
  00286	84 d2		 test	 dl, dl
  00288	74 12		 je	 SHORT $LN85@DoServiceU
  0028a	8a 50 01	 mov	 dl, BYTE PTR [eax+1]
  0028d	3a 51 01	 cmp	 dl, BYTE PTR [ecx+1]
  00290	75 0e		 jne	 SHORT $LN84@DoServiceU
  00292	83 c0 02	 add	 eax, 2
  00295	83 c1 02	 add	 ecx, 2
  00298	84 d2		 test	 dl, dl
  0029a	75 e4		 jne	 SHORT $LL83@DoServiceU
$LN85@DoServiceU:
  0029c	33 c0		 xor	 eax, eax
  0029e	eb 05		 jmp	 SHORT $LN86@DoServiceU
$LN84@DoServiceU:
  002a0	1b c0		 sbb	 eax, eax
  002a2	83 d8 ff	 sbb	 eax, -1
$LN86@DoServiceU:
  002a5	85 c0		 test	 eax, eax
  002a7	75 5a		 jne	 SHORT $LN15@DoServiceU

; 1026 : 		StatusMessage (hwndDlg, "REMOVING_DRIVER");

  002a9	39 05 00 00 00
	00		 cmp	 DWORD PTR _Rollback, eax
  002af	75 61		 jne	 SHORT $LN14@DoServiceU
  002b1	68 00 00 00 00	 push	 OFFSET ??_C@_0BA@LFOBNNHD@REMOVING_DRIVER?$AA@
  002b6	e8 00 00 00 00	 call	 _GetString
  002bb	83 c4 04	 add	 esp, 4
  002be	50		 push	 eax
  002bf	6a 00		 push	 0
  002c1	68 80 01 00 00	 push	 384			; 00000180H
  002c6	68 f9 03 00 00	 push	 1017			; 000003f9H
  002cb	53		 push	 ebx
  002cc	ff 15 00 00 00
	00		 call	 DWORD PTR __imp__GetDlgItem@8
  002d2	50		 push	 eax
  002d3	ff 15 00 00 00
	00		 call	 DWORD PTR __imp__SendMessageW@16
  002d9	8b 35 00 00 00
	00		 mov	 esi, DWORD PTR __imp__SendDlgItemMessageA@20
  002df	6a 00		 push	 0
  002e1	6a 00		 push	 0
  002e3	6a 00		 push	 0
  002e5	68 8b 01 00 00	 push	 395			; 0000018bH
  002ea	68 f9 03 00 00	 push	 1017			; 000003f9H
  002ef	53		 push	 ebx
  002f0	ff d6		 call	 esi
  002f2	48		 dec	 eax
  002f3	50		 push	 eax
  002f4	68 97 01 00 00	 push	 407			; 00000197H
  002f9	68 f9 03 00 00	 push	 1017			; 000003f9H
  002fe	53		 push	 ebx
  002ff	ff d6		 call	 esi

; 1027 : 	else

  00301	eb 0f		 jmp	 SHORT $LN14@DoServiceU
$LN15@DoServiceU:

; 1028 : 		StatusMessageParam (hwndDlg, "REMOVING", lpszService);

  00303	56		 push	 esi
  00304	68 00 00 00 00	 push	 OFFSET ??_C@_08GLIOLGPM@REMOVING?$AA@
  00309	53		 push	 ebx
  0030a	e8 00 00 00 00	 call	 _StatusMessageParam
  0030f	83 c4 0c	 add	 esp, 12			; 0000000cH
$LN14@DoServiceU:

; 1029 : 
; 1030 : 	if (hService != NULL)
; 1031 : 		CloseServiceHandle (hService);

  00312	8b 35 00 00 00
	00		 mov	 esi, DWORD PTR __imp__CloseServiceHandle@4
  00318	57		 push	 edi
  00319	ff d6		 call	 esi

; 1032 : 
; 1033 : 	if (hManager != NULL)
; 1034 : 		CloseServiceHandle (hManager);

  0031b	8b 45 ec	 mov	 eax, DWORD PTR _hManager$[ebp]
  0031e	50		 push	 eax
  0031f	ff d6		 call	 esi

; 1035 : 
; 1036 : 	hManager = OpenSCManager (NULL, NULL, SC_MANAGER_ALL_ACCESS);

  00321	68 3f 00 0f 00	 push	 983103			; 000f003fH
  00326	6a 00		 push	 0
  00328	6a 00		 push	 0
  0032a	ff 15 00 00 00
	00		 call	 DWORD PTR __imp__OpenSCManagerA@12
  00330	89 45 ec	 mov	 DWORD PTR _hManager$[ebp], eax

; 1037 : 	if (hManager == NULL)

  00333	85 c0		 test	 eax, eax
  00335	74 5e		 je	 SHORT $error$134501

; 1038 : 		goto error;
; 1039 : 
; 1040 : 	hService = OpenService (hManager, lpszService, SERVICE_ALL_ACCESS);

  00337	8b 4d dc	 mov	 ecx, DWORD PTR _lpszService$GSCopy$[ebp]
  0033a	68 ff 01 0f 00	 push	 983551			; 000f01ffH
  0033f	51		 push	 ecx
  00340	8b d0		 mov	 edx, eax
  00342	52		 push	 edx
  00343	ff 15 00 00 00
	00		 call	 DWORD PTR __imp__OpenServiceA@12
  00349	8b f8		 mov	 edi, eax

; 1041 : 	if (hService == NULL)

  0034b	85 ff		 test	 edi, edi
  0034d	74 46		 je	 SHORT $error$134501

; 1042 : 		goto error;
; 1043 : 
; 1044 : 	/* Delete service registry keys. */
; 1045 : 	bRet = DeleteService (hService);

  0034f	57		 push	 edi
  00350	ff 15 00 00 00
	00		 call	 DWORD PTR __imp__DeleteService@4

; 1046 : 	if (bRet == FALSE)

  00356	85 c0		 test	 eax, eax
  00358	75 77		 jne	 SHORT $LN4@DoServiceU

; 1047 : 	{
; 1048 : 		if (firstTry && GetLastError () == ERROR_SERVICE_MARKED_FOR_DELETE)

  0035a	39 45 d8	 cmp	 DWORD PTR _firstTry$[ebp], eax
  0035d	74 36		 je	 SHORT $error$134501
  0035f	ff 15 00 00 00
	00		 call	 DWORD PTR __imp__GetLastError@0
  00365	3d 30 04 00 00	 cmp	 eax, 1072		; 00000430H
  0036a	75 29		 jne	 SHORT $error$134501

; 1049 : 		{
; 1050 : 			// Second try for an eventual no-install driver instance
; 1051 : 			CloseServiceHandle (hService);

  0036c	57		 push	 edi
  0036d	ff d6		 call	 esi

; 1052 : 			CloseServiceHandle (hManager);

  0036f	8b 45 ec	 mov	 eax, DWORD PTR _hManager$[ebp]
  00372	50		 push	 eax
  00373	ff d6		 call	 esi

; 1053 : 
; 1054 : 			Sleep(1000);

  00375	68 e8 03 00 00	 push	 1000			; 000003e8H
  0037a	ff 15 00 00 00
	00		 call	 DWORD PTR __imp__Sleep@4

; 1055 : 			firstTry = FALSE;
; 1056 : 			goto retry;

  00380	8b 75 dc	 mov	 esi, DWORD PTR _lpszService$GSCopy$[ebp]
  00383	c7 45 d8 00 00
	00 00		 mov	 DWORD PTR _firstTry$[ebp], 0
  0038a	e9 e2 fc ff ff	 jmp	 $retry$134499
$LN96@DoServiceU:
  0038f	8b 35 00 00 00
	00		 mov	 esi, DWORD PTR __imp__CloseServiceHandle@4
$error$134501:

; 1057 : 		}
; 1058 : 
; 1059 : 		goto error;
; 1060 : 	}
; 1061 : 
; 1062 : 	bOK = TRUE;
; 1063 : 
; 1064 : error:
; 1065 : 
; 1066 : 	if (bOK == FALSE && GetLastError ()!= ERROR_SERVICE_DOES_NOT_EXIST)

  00395	83 7d e8 00	 cmp	 DWORD PTR _bOK$[ebp], 0
  00399	75 36		 jne	 SHORT $LN4@DoServiceU
  0039b	ff 15 00 00 00
	00		 call	 DWORD PTR __imp__GetLastError@0
  003a1	3d 24 04 00 00	 cmp	 eax, 1060		; 00000424H
  003a6	74 29		 je	 SHORT $LN4@DoServiceU

; 1067 : 	{
; 1068 : 		handleWin32Error (hwndDlg);

  003a8	53		 push	 ebx
  003a9	e8 00 00 00 00	 call	 _handleWin32Error

; 1069 : 		MessageBoxW (hwndDlg, GetString ("DRIVER_UINSTALL_FAILED"), lpszTitle, MB_ICONHAND);

  003ae	8b 0d 00 00 00
	00		 mov	 ecx, DWORD PTR _lpszTitle
  003b4	83 c4 04	 add	 esp, 4
  003b7	6a 10		 push	 16			; 00000010H
  003b9	51		 push	 ecx
  003ba	68 00 00 00 00	 push	 OFFSET ??_C@_0BH@BJNFCLGM@DRIVER_UINSTALL_FAILED?$AA@
  003bf	e8 00 00 00 00	 call	 _GetString
  003c4	83 c4 04	 add	 esp, 4
  003c7	50		 push	 eax
  003c8	53		 push	 ebx
  003c9	ff 15 00 00 00
	00		 call	 DWORD PTR __imp__MessageBoxW@16

; 1070 : 	}
; 1071 : 	else

  003cf	eb 07		 jmp	 SHORT $LN3@DoServiceU
$LN4@DoServiceU:

; 1072 : 		bOK = TRUE;

  003d1	c7 45 e8 01 00
	00 00		 mov	 DWORD PTR _bOK$[ebp], 1
$LN3@DoServiceU:

; 1073 : 
; 1074 : 	if (hService != NULL)

  003d8	85 ff		 test	 edi, edi
  003da	74 03		 je	 SHORT $LN2@DoServiceU

; 1075 : 		CloseServiceHandle (hService);

  003dc	57		 push	 edi
  003dd	ff d6		 call	 esi
$LN2@DoServiceU:

; 1076 : 
; 1077 : 	if (hManager != NULL)

  003df	8b 45 ec	 mov	 eax, DWORD PTR _hManager$[ebp]
  003e2	85 c0		 test	 eax, eax
  003e4	74 03		 je	 SHORT $LN87@DoServiceU

; 1078 : 		CloseServiceHandle (hManager);

  003e6	50		 push	 eax
  003e7	ff d6		 call	 esi
$LN87@DoServiceU:

; 1079 : 
; 1080 : 	return bOK;

  003e9	8b 45 e8	 mov	 eax, DWORD PTR _bOK$[ebp]

; 1081 : }

  003ec	8b 4d f4	 mov	 ecx, DWORD PTR __$EHRec$[ebp+4]
  003ef	64 89 0d 00 00
	00 00		 mov	 DWORD PTR fs:0, ecx
  003f6	59		 pop	 ecx
  003f7	5f		 pop	 edi
  003f8	5e		 pop	 esi
  003f9	5b		 pop	 ebx
  003fa	8b 8d 18 06 00
	00		 mov	 ecx, DWORD PTR __$ArrayPad$[ebp]
  00400	33 cd		 xor	 ecx, ebp
  00402	e8 00 00 00 00	 call	 @__security_check_cookie@4
  00407	81 c5 1c 06 00
	00		 add	 ebp, 1564		; 0000061cH
  0040d	8b e5		 mov	 esp, ebp
  0040f	5d		 pop	 ebp
  00410	c3		 ret	 0
_TEXT	ENDS
;	COMDAT text$x
text$x	SEGMENT
__unwindfunclet$_DoServiceUninstall$17:
  00000	8d 4d 00	 lea	 ecx, DWORD PTR _bootEnc$134508[ebp]
  00003	e9 00 00 00 00	 jmp	 ??1BootEncryption@CipherShed@@QAE@XZ ; CipherShed::BootEncryption::~BootEncryption
__ehhandler$_DoServiceUninstall:
  00008	8b 54 24 08	 mov	 edx, DWORD PTR [esp+8]
  0000c	8d 42 0c	 lea	 eax, DWORD PTR [edx+12]
  0000f	8b 4a b8	 mov	 ecx, DWORD PTR [edx-72]
  00012	33 c8		 xor	 ecx, eax
  00014	e8 00 00 00 00	 call	 @__security_check_cookie@4
  00019	8b 8a 24 06 00
	00		 mov	 ecx, DWORD PTR [edx+1572]
  0001f	33 c8		 xor	 ecx, eax
  00021	e8 00 00 00 00	 call	 @__security_check_cookie@4
  00026	b8 00 00 00 00	 mov	 eax, OFFSET __ehfuncinfo$_DoServiceUninstall
  0002b	e9 00 00 00 00	 jmp	 ___CxxFrameHandler3
text$x	ENDS
_DoServiceUninstall ENDP
PUBLIC	??_C@_0P@KGAEHPDJ@CLOSE_TC_FIRST?$AA@		; `string'
PUBLIC	??_C@_0BD@OMJBKKEL@DISMOUNT_ALL_FIRST?$AA@	; `string'
PUBLIC	??_C@_0CC@MKLHADEI@SETUP_FAILED_BOOT_DRIVE_ENCRYPTE@ ; `string'
PUBLIC	??_C@_0CM@LPOONFIE@SETUP_FAILED_BOOT_DRIVE_ENCRYPTE@ ; `string'
PUBLIC	??_C@_0DA@EDIMDHJI@SYS_ENCRYPTION_UPGRADE_UNSUPPORT@ ; `string'
PUBLIC	??_C@_0BM@PPLHKJJC@UPDATE_TC_IN_DECOY_OS_FIRST?$AA@ ; `string'
PUBLIC	??_C@_08ELEAABKI@NODRIVER?$AA@			; `string'
PUBLIC	_hwndDlg$GSCopy$
PUBLIC	__$ArrayPad$
PUBLIC	_DoDriverUnload
EXTRN	__imp__EnumWindows@8:PROC
EXTRN	_CloseTCWindowsEnum@8:PROC
EXTRN	_CurrentOSServicePack:DWORD
EXTRN	_CurrentOSMinor:DWORD
EXTRN	_CurrentOSMajor:DWORD
EXTRN	?SetDriverServiceStartType@BootEncryption@CipherShed@@QAEXK@Z:PROC ; CipherShed::BootEncryption::SetDriverServiceStartType
EXTRN	?GetStatus@BootEncryption@CipherShed@@QAE?AUBootEncryptionStatus@@XZ:PROC ; CipherShed::BootEncryption::GetStatus
EXTRN	_AbortProcessSilent:PROC
EXTRN	_AskWarnNoYes:PROC
EXTRN	?GetInstalledBootLoaderVersion@BootEncryption@CipherShed@@QAEGXZ:PROC ; CipherShed::BootEncryption::GetInstalledBootLoaderVersion
EXTRN	_IsHiddenOSRunning:PROC
EXTRN	_handleError:PROC
EXTRN	_AbortProcess:PROC
EXTRN	__chkstk:PROC
;	COMDAT ??_C@_0P@KGAEHPDJ@CLOSE_TC_FIRST?$AA@
CONST	SEGMENT
??_C@_0P@KGAEHPDJ@CLOSE_TC_FIRST?$AA@ DB 'CLOSE_TC_FIRST', 00H ; `string'
CONST	ENDS
;	COMDAT ??_C@_0BD@OMJBKKEL@DISMOUNT_ALL_FIRST?$AA@
CONST	SEGMENT
??_C@_0BD@OMJBKKEL@DISMOUNT_ALL_FIRST?$AA@ DB 'DISMOUNT_ALL_FIRST', 00H ; `string'
CONST	ENDS
;	COMDAT ??_C@_0CC@MKLHADEI@SETUP_FAILED_BOOT_DRIVE_ENCRYPTE@
CONST	SEGMENT
??_C@_0CC@MKLHADEI@SETUP_FAILED_BOOT_DRIVE_ENCRYPTE@ DB 'SETUP_FAILED_BOO'
	DB	'T_DRIVE_ENCRYPTED', 00H			; `string'
CONST	ENDS
;	COMDAT ??_C@_0CM@LPOONFIE@SETUP_FAILED_BOOT_DRIVE_ENCRYPTE@
CONST	SEGMENT
??_C@_0CM@LPOONFIE@SETUP_FAILED_BOOT_DRIVE_ENCRYPTE@ DB 'SETUP_FAILED_BOO'
	DB	'T_DRIVE_ENCRYPTED_DOWNGRADE', 00H		; `string'
CONST	ENDS
;	COMDAT ??_C@_0DA@EDIMDHJI@SYS_ENCRYPTION_UPGRADE_UNSUPPORT@
CONST	SEGMENT
??_C@_0DA@EDIMDHJI@SYS_ENCRYPTION_UPGRADE_UNSUPPORT@ DB 'SYS_ENCRYPTION_U'
	DB	'PGRADE_UNSUPPORTED_ON_VISTA_SP0', 00H	; `string'
CONST	ENDS
;	COMDAT ??_C@_0BM@PPLHKJJC@UPDATE_TC_IN_DECOY_OS_FIRST?$AA@
CONST	SEGMENT
??_C@_0BM@PPLHKJJC@UPDATE_TC_IN_DECOY_OS_FIRST?$AA@ DB 'UPDATE_TC_IN_DECO'
	DB	'Y_OS_FIRST', 00H				; `string'
CONST	ENDS
;	COMDAT ??_C@_08ELEAABKI@NODRIVER?$AA@
CONST	SEGMENT
??_C@_08ELEAABKI@NODRIVER?$AA@ DB 'NODRIVER', 00H	; `string'
CONST	ENDS
;	COMDAT xdata$x
xdata$x	SEGMENT
__catchsym$_DoDriverUnload$15 DD 040H
	DD	00H
	DD	00H
	DD	FLAT:__catch$_DoDriverUnload$8
__catchsym$_DoDriverUnload$14 DD 040H
	DD	00H
	DD	00H
	DD	FLAT:__catch$_DoDriverUnload$6
__catchsym$_DoDriverUnload$13 DD 040H
	DD	00H
	DD	00H
	DD	FLAT:__catch$_DoDriverUnload$4
__catchsym$_DoDriverUnload$12 DD 040H
	DD	00H
	DD	00H
	DD	FLAT:__catch$_DoDriverUnload$2
__catchsym$_DoDriverUnload$11 DD 040H
	DD	00H
	DD	00H
	DD	FLAT:__catch$_DoDriverUnload$0
__ehfuncinfo$_DoDriverUnload DD 019930522H
	DD	0bH
	DD	FLAT:__unwindtable$_DoDriverUnload
	DD	05H
	DD	FLAT:__tryblocktable$_DoDriverUnload
	DD	2 DUP(00H)
	DD	00H
	DD	01H
__unwindtable$_DoDriverUnload DD 0ffffffffH
	DD	00H
	DD	00H
	DD	FLAT:__unwindfunclet$_DoDriverUnload$10
	DD	01H
	DD	00H
	DD	01H
	DD	00H
	DD	01H
	DD	00H
	DD	01H
	DD	00H
	DD	01H
	DD	00H
	DD	01H
	DD	00H
	DD	01H
	DD	00H
	DD	01H
	DD	00H
	DD	0ffffffffH
	DD	00H
__tryblocktable$_DoDriverUnload DD 02H
	DD	02H
	DD	03H
	DD	01H
	DD	FLAT:__catchsym$_DoDriverUnload$11
	DD	04H
	DD	04H
	DD	05H
	DD	01H
	DD	FLAT:__catchsym$_DoDriverUnload$12
	DD	06H
	DD	06H
	DD	07H
	DD	01H
	DD	FLAT:__catchsym$_DoDriverUnload$13
	DD	08H
	DD	08H
	DD	09H
	DD	01H
	DD	FLAT:__catchsym$_DoDriverUnload$14
	DD	00H
	DD	09H
	DD	0aH
	DD	01H
	DD	FLAT:__catchsym$_DoDriverUnload$15
; Function compile flags: /Ogtpy
xdata$x	ENDS
;	COMDAT _DoDriverUnload
_TEXT	SEGMENT
_driver$134563 = -14072					; size = 13940
$T138351 = -130						; size = 94
_refCount$134565 = -36					; size = 4
_dwResult$134566 = -32					; size = 4
_hwndDlg$GSCopy$ = -28					; size = 4
_TCWindowClosed$134601 = -24				; size = 4
_driverVersion$134564 = -24				; size = 4
_volumesMounted$134593 = -20				; size = 4
__$EHRec$ = -16						; size = 16
_bootEnc$134569 = 0					; size = 1560
__$ArrayPad$ = 1560					; size = 4
_hwndDlg$ = 1572					; size = 4
_DoDriverUnload PROC					; COMDAT

; 1089 : {

  00000	55		 push	 ebp
  00001	8d ac 24 e4 f9
	ff ff		 lea	 ebp, DWORD PTR [esp-1564]
  00008	81 ec 1c 06 00
	00		 sub	 esp, 1564		; 0000061cH
  0000e	6a ff		 push	 -1
  00010	68 00 00 00 00	 push	 __ehhandler$_DoDriverUnload
  00015	64 a1 00 00 00
	00		 mov	 eax, DWORD PTR fs:0
  0001b	50		 push	 eax
  0001c	51		 push	 ecx
  0001d	b8 e8 36 00 00	 mov	 eax, 14056		; 000036e8H
  00022	e8 00 00 00 00	 call	 __chkstk
  00027	a1 00 00 00 00	 mov	 eax, DWORD PTR ___security_cookie
  0002c	33 c5		 xor	 eax, ebp
  0002e	89 85 18 06 00
	00		 mov	 DWORD PTR __$ArrayPad$[ebp], eax
  00034	53		 push	 ebx
  00035	56		 push	 esi
  00036	57		 push	 edi
  00037	50		 push	 eax
  00038	8d 45 f4	 lea	 eax, DWORD PTR __$EHRec$[ebp+4]
  0003b	64 a3 00 00 00
	00		 mov	 DWORD PTR fs:0, eax
  00041	89 65 f0	 mov	 DWORD PTR __$EHRec$[ebp], esp
  00044	8b b5 24 06 00
	00		 mov	 esi, DWORD PTR _hwndDlg$[ebp]

; 1090 : 	BOOL bOK = TRUE;

  0004a	bb 01 00 00 00	 mov	 ebx, 1
  0004f	89 75 e4	 mov	 DWORD PTR _hwndDlg$GSCopy$[ebp], esi
  00052	8b fb		 mov	 edi, ebx

; 1091 : 	int status;
; 1092 : 
; 1093 : 	/* Open a handle to the driver device. */
; 1094 : 	status = DriverAttach ();

  00054	e8 00 00 00 00	 call	 _DriverAttach

; 1095 : 	if (status != 0)

  00059	85 c0		 test	 eax, eax
  0005b	74 39		 je	 SHORT $LN32@DoDriverUn

; 1096 : 	{
; 1097 : 		if (status == ERR_OS_ERROR && GetLastError () != ERROR_FILE_NOT_FOUND)

  0005d	3b c3		 cmp	 eax, ebx
  0005f	75 20		 jne	 SHORT $LN68@DoDriverUn
  00061	ff 15 00 00 00
	00		 call	 DWORD PTR __imp__GetLastError@0
  00067	83 f8 02	 cmp	 eax, 2
  0006a	74 2a		 je	 SHORT $LN32@DoDriverUn

; 1098 : 		{
; 1099 : 			handleWin32Error (hwndDlg);

  0006c	56		 push	 esi
  0006d	e8 00 00 00 00	 call	 _handleWin32Error

; 1100 : 			AbortProcess ("NODRIVER");

  00072	68 00 00 00 00	 push	 OFFSET ??_C@_08ELEAABKI@NODRIVER?$AA@
  00077	e8 00 00 00 00	 call	 _AbortProcess
  0007c	83 c4 08	 add	 esp, 8

; 1101 : 		}
; 1102 : 
; 1103 : 		if (status != ERR_OS_ERROR)

  0007f	eb 15		 jmp	 SHORT $LN32@DoDriverUn
$LN68@DoDriverUn:

; 1104 : 		{
; 1105 : 			handleError (NULL, status);

  00081	50		 push	 eax
  00082	6a 00		 push	 0
  00084	e8 00 00 00 00	 call	 _handleError

; 1106 : 			AbortProcess ("NODRIVER");

  00089	68 00 00 00 00	 push	 OFFSET ??_C@_08ELEAABKI@NODRIVER?$AA@
  0008e	e8 00 00 00 00	 call	 _AbortProcess
  00093	83 c4 0c	 add	 esp, 12			; 0000000cH
$LN32@DoDriverUn:

; 1107 : 		}
; 1108 : 	}
; 1109 : 
; 1110 : 	if (hDriver != INVALID_HANDLE_VALUE)

  00096	83 3d 00 00 00
	00 ff		 cmp	 DWORD PTR _hDriver, -1
  0009d	0f 84 8a 03 00
	00		 je	 $LN31@DoDriverUn

; 1111 : 	{
; 1112 : 		MOUNT_LIST_STRUCT driver;
; 1113 : 		LONG driverVersion = VERSION_NUM;
; 1114 : 		int refCount;
; 1115 : 		DWORD dwResult;
; 1116 : 		BOOL bResult;
; 1117 : 
; 1118 : 		// Try to determine if it's upgrade (and not reinstall, downgrade, or first-time install).
; 1119 : 		DetermineUpgradeDowngradeStatus (FALSE, &driverVersion);

  000a3	8d 45 e8	 lea	 eax, DWORD PTR _driverVersion$134564[ebp]
  000a6	50		 push	 eax
  000a7	6a 00		 push	 0
  000a9	c7 45 e8 30 07
	00 00		 mov	 DWORD PTR _driverVersion$134564[ebp], 1840 ; 00000730H
  000b0	e8 00 00 00 00	 call	 _DetermineUpgradeDowngradeStatus
  000b5	83 c4 08	 add	 esp, 8

; 1120 : 
; 1121 : 		// Test for encrypted boot drive
; 1122 : 		try
; 1123 : 		{
; 1124 : 			BootEncryption bootEnc (hwndDlg);

  000b8	56		 push	 esi
  000b9	8d 4d 00	 lea	 ecx, DWORD PTR _bootEnc$134569[ebp]
  000bc	c7 45 fc 00 00
	00 00		 mov	 DWORD PTR __$EHRec$[ebp+12], 0
  000c3	e8 00 00 00 00	 call	 ??0BootEncryption@CipherShed@@QAE@PAUHWND__@@@Z ; CipherShed::BootEncryption::BootEncryption

; 1125 : 
; 1126 : 			/* The driver starts at boot time in case of full system encryption. */
; 1127 : 			if (bootEnc.GetDriverServiceStartType() == SERVICE_BOOT_START)

  000c8	8d 4d 00	 lea	 ecx, DWORD PTR _bootEnc$134569[ebp]
  000cb	88 5d fc	 mov	 BYTE PTR __$EHRec$[ebp+12], bl
  000ce	e8 00 00 00 00	 call	 ?GetDriverServiceStartType@BootEncryption@CipherShed@@QAEKXZ ; CipherShed::BootEncryption::GetDriverServiceStartType
  000d3	85 c0		 test	 eax, eax
  000d5	0f 85 08 01 00
	00		 jne	 $LN19@DoDriverUn

; 1128 : 			{
; 1129 : 				try
; 1130 : 				{

  000db	c6 45 fc 02	 mov	 BYTE PTR __$EHRec$[ebp+12], 2

; 1131 : 					// Check hidden OS update consistency
; 1132 : 					if (IsHiddenOSRunning() &&
; 1133 : 						bootEnc.GetInstalledBootLoaderVersion() != VERSION_NUM &&
; 1134 : 						AskWarnNoYes ("UPDATE_TC_IN_DECOY_OS_FIRST") == IDNO)

  000df	e8 00 00 00 00	 call	 _IsHiddenOSRunning
  000e4	85 c0		 test	 eax, eax
  000e6	74 2c		 je	 SHORT $LN27@DoDriverUn
  000e8	8d 4d 00	 lea	 ecx, DWORD PTR _bootEnc$134569[ebp]
  000eb	e8 00 00 00 00	 call	 ?GetInstalledBootLoaderVersion@BootEncryption@CipherShed@@QAEGXZ ; CipherShed::BootEncryption::GetInstalledBootLoaderVersion
  000f0	0f b7 c0	 movzx	 eax, ax
  000f3	b9 30 07 00 00	 mov	 ecx, 1840		; 00000730H
  000f8	66 3b c1	 cmp	 ax, cx
  000fb	74 17		 je	 SHORT $LN27@DoDriverUn
  000fd	68 00 00 00 00	 push	 OFFSET ??_C@_0BM@PPLHKJJC@UPDATE_TC_IN_DECOY_OS_FIRST?$AA@
  00102	e8 00 00 00 00	 call	 _AskWarnNoYes
  00107	83 c4 04	 add	 esp, 4
  0010a	83 f8 07	 cmp	 eax, 7
  0010d	75 05		 jne	 SHORT $LN27@DoDriverUn

; 1135 : 					{
; 1136 : 						AbortProcessSilent ();

  0010f	e8 00 00 00 00	 call	 _AbortProcessSilent
$LN27@DoDriverUn:
  00114	89 5d fc	 mov	 DWORD PTR __$EHRec$[ebp+12], ebx
$LN50@DoDriverUn:

; 1140 : 
; 1141 : 				/* Uninstall filter drivers and set driver start to "system start". */
; 1142 : 				if (bUninstallInProgress && driverVersion >= 0x500 && !bootEnc.GetStatus().DriveMounted)

  00117	83 3d 00 00 00
	00 00		 cmp	 DWORD PTR ?bUninstallInProgress@@3HA, 0 ; bUninstallInProgress
  0011e	0f 84 d9 00 00
	00		 je	 $LN67@DoDriverUn
  00124	81 7d e8 00 05
	00 00		 cmp	 DWORD PTR _driverVersion$134564[ebp], 1280 ; 00000500H
  0012b	0f 8c c3 00 00
	00		 jl	 $LN26@DoDriverUn
  00131	8d 95 7e ff ff
	ff		 lea	 edx, DWORD PTR $T138351[ebp]
  00137	52		 push	 edx
  00138	8d 4d 00	 lea	 ecx, DWORD PTR _bootEnc$134569[ebp]
  0013b	e8 00 00 00 00	 call	 ?GetStatus@BootEncryption@CipherShed@@QAE?AUBootEncryptionStatus@@XZ ; CipherShed::BootEncryption::GetStatus
  00140	83 78 06 00	 cmp	 DWORD PTR [eax+6], 0
  00144	0f 85 aa 00 00
	00		 jne	 $LN26@DoDriverUn

; 1143 : 				{
; 1144 : 					try { bootEnc.RegisterFilterDriver (false, BootEncryption::DriveFilter); } catch (...) { }

  0014a	6a 00		 push	 0
  0014c	6a 00		 push	 0
  0014e	8d 4d 00	 lea	 ecx, DWORD PTR _bootEnc$134569[ebp]
  00151	c6 45 fc 04	 mov	 BYTE PTR __$EHRec$[ebp+12], 4
  00155	e8 00 00 00 00	 call	 ?RegisterFilterDriver@BootEncryption@CipherShed@@QAEX_NW4FilterType@12@@Z ; CipherShed::BootEncryption::RegisterFilterDriver
  0015a	89 5d fc	 mov	 DWORD PTR __$EHRec$[ebp+12], ebx
  0015d	eb 2a		 jmp	 SHORT $LN53@DoDriverUn
__catch$_DoDriverUnload$0:

; 1137 : 					}
; 1138 : 				}
; 1139 : 				catch (...) { }

  0015f	c7 45 fc 01 00
	00 00		 mov	 DWORD PTR __$EHRec$[ebp+12], 1
  00166	b8 00 00 00 00	 mov	 eax, $LN51@DoDriverUn
  0016b	c3		 ret	 0
$LN51@DoDriverUn:
  0016c	bb 01 00 00 00	 mov	 ebx, 1
  00171	8b fb		 mov	 edi, ebx
  00173	eb a2		 jmp	 SHORT $LN50@DoDriverUn
__catch$_DoDriverUnload$2:

; 1143 : 				{
; 1144 : 					try { bootEnc.RegisterFilterDriver (false, BootEncryption::DriveFilter); } catch (...) { }

  00175	c7 45 fc 01 00
	00 00		 mov	 DWORD PTR __$EHRec$[ebp+12], 1
  0017c	b8 00 00 00 00	 mov	 eax, $LN72@DoDriverUn
  00181	c3		 ret	 0
$LN72@DoDriverUn:
  00182	bb 01 00 00 00	 mov	 ebx, 1
  00187	8b fb		 mov	 edi, ebx
$LN53@DoDriverUn:

; 1145 : 					try { bootEnc.RegisterFilterDriver (false, BootEncryption::VolumeFilter); } catch (...) { }

  00189	53		 push	 ebx
  0018a	6a 00		 push	 0
  0018c	8d 4d 00	 lea	 ecx, DWORD PTR _bootEnc$134569[ebp]
  0018f	c6 45 fc 06	 mov	 BYTE PTR __$EHRec$[ebp+12], 6
  00193	e8 00 00 00 00	 call	 ?RegisterFilterDriver@BootEncryption@CipherShed@@QAEX_NW4FilterType@12@@Z ; CipherShed::BootEncryption::RegisterFilterDriver
  00198	89 5d fc	 mov	 DWORD PTR __$EHRec$[ebp+12], ebx
  0019b	eb 14		 jmp	 SHORT $LN55@DoDriverUn
__catch$_DoDriverUnload$4:
  0019d	c7 45 fc 01 00
	00 00		 mov	 DWORD PTR __$EHRec$[ebp+12], 1
  001a4	b8 00 00 00 00	 mov	 eax, $LN73@DoDriverUn
  001a9	c3		 ret	 0
$LN73@DoDriverUn:
  001aa	bb 01 00 00 00	 mov	 ebx, 1
  001af	8b fb		 mov	 edi, ebx
$LN55@DoDriverUn:

; 1146 : 					try { bootEnc.RegisterFilterDriver (false, BootEncryption::DumpFilter); } catch (...) { }

  001b1	6a 02		 push	 2
  001b3	6a 00		 push	 0
  001b5	8d 4d 00	 lea	 ecx, DWORD PTR _bootEnc$134569[ebp]
  001b8	c6 45 fc 08	 mov	 BYTE PTR __$EHRec$[ebp+12], 8
  001bc	e8 00 00 00 00	 call	 ?RegisterFilterDriver@BootEncryption@CipherShed@@QAEX_NW4FilterType@12@@Z ; CipherShed::BootEncryption::RegisterFilterDriver
  001c1	89 5d fc	 mov	 DWORD PTR __$EHRec$[ebp+12], ebx
  001c4	eb 14		 jmp	 SHORT $LN57@DoDriverUn
__catch$_DoDriverUnload$6:
  001c6	c7 45 fc 01 00
	00 00		 mov	 DWORD PTR __$EHRec$[ebp+12], 1
  001cd	b8 00 00 00 00	 mov	 eax, $LN74@DoDriverUn
  001d2	c3		 ret	 0
$LN74@DoDriverUn:
  001d3	bb 01 00 00 00	 mov	 ebx, 1
  001d8	8b fb		 mov	 edi, ebx
$LN57@DoDriverUn:

; 1147 : 					bootEnc.SetDriverServiceStartType (SERVICE_SYSTEM_START);

  001da	53		 push	 ebx
  001db	8d 4d 00	 lea	 ecx, DWORD PTR _bootEnc$134569[ebp]
  001de	e8 00 00 00 00	 call	 ?SetDriverServiceStartType@BootEncryption@CipherShed@@QAEXK@Z ; CipherShed::BootEncryption::SetDriverServiceStartType
$LN19@DoDriverUn:

; 1159 : 
; 1160 : 					SystemEncryptionUpdate = TRUE;
; 1161 : 					PortableMode = FALSE;
; 1162 : 				}
; 1163 : 			}
; 1164 : 		}

  001e3	8d 4d 00	 lea	 ecx, DWORD PTR _bootEnc$134569[ebp]
  001e6	c6 45 fc 00	 mov	 BYTE PTR __$EHRec$[ebp+12], 0
  001ea	e8 00 00 00 00	 call	 ??1BootEncryption@CipherShed@@QAE@XZ ; CipherShed::BootEncryption::~BootEncryption
  001ef	e9 95 00 00 00	 jmp	 $LN59@DoDriverUn
$LN26@DoDriverUn:

; 1148 : 				}
; 1149 : 				/* Abort if the boot drive is encrypted. */
; 1150 : 				else if (bUninstallInProgress || bDowngrade)

  001f4	83 3d 00 00 00
	00 00		 cmp	 DWORD PTR ?bUninstallInProgress@@3HA, 0 ; bUninstallInProgress
  001fb	75 4e		 jne	 SHORT $LN20@DoDriverUn
$LN67@DoDriverUn:
  001fd	83 3d 00 00 00
	00 00		 cmp	 DWORD PTR ?bDowngrade@@3HA, 0 ; bDowngrade
  00204	75 4e		 jne	 SHORT $LN66@DoDriverUn

; 1154 : 				}
; 1155 : 				else
; 1156 : 				{
; 1157 : 					if (CurrentOSMajor == 6 && CurrentOSMinor == 0 && CurrentOSServicePack < 1)

  00206	83 3d 00 00 00
	00 06		 cmp	 DWORD PTR _CurrentOSMajor, 6
  0020d	75 1e		 jne	 SHORT $LN18@DoDriverUn
  0020f	83 3d 00 00 00
	00 00		 cmp	 DWORD PTR _CurrentOSMinor, 0
  00216	75 15		 jne	 SHORT $LN18@DoDriverUn
  00218	39 1d 00 00 00
	00		 cmp	 DWORD PTR _CurrentOSServicePack, ebx
  0021e	7d 0d		 jge	 SHORT $LN18@DoDriverUn

; 1158 : 						AbortProcess ("SYS_ENCRYPTION_UPGRADE_UNSUPPORTED_ON_VISTA_SP0");

  00220	68 00 00 00 00	 push	 OFFSET ??_C@_0DA@EDIMDHJI@SYS_ENCRYPTION_UPGRADE_UNSUPPORT@
  00225	e8 00 00 00 00	 call	 _AbortProcess
  0022a	83 c4 04	 add	 esp, 4
$LN18@DoDriverUn:

; 1159 : 
; 1160 : 					SystemEncryptionUpdate = TRUE;
; 1161 : 					PortableMode = FALSE;
; 1162 : 				}
; 1163 : 			}
; 1164 : 		}

  0022d	8d 4d 00	 lea	 ecx, DWORD PTR _bootEnc$134569[ebp]
  00230	89 1d 00 00 00
	00		 mov	 DWORD PTR _SystemEncryptionUpdate, ebx
  00236	c7 05 00 00 00
	00 00 00 00 00	 mov	 DWORD PTR ?PortableMode@@3HA, 0 ; PortableMode
  00240	c6 45 fc 00	 mov	 BYTE PTR __$EHRec$[ebp+12], 0
  00244	e8 00 00 00 00	 call	 ??1BootEncryption@CipherShed@@QAE@XZ ; CipherShed::BootEncryption::~BootEncryption
  00249	eb 3e		 jmp	 SHORT $LN59@DoDriverUn
$LN20@DoDriverUn:

; 1151 : 				{
; 1152 : 					Error (bDowngrade ? "SETUP_FAILED_BOOT_DRIVE_ENCRYPTED_DOWNGRADE" : "SETUP_FAILED_BOOT_DRIVE_ENCRYPTED");

  0024b	83 3d 00 00 00
	00 00		 cmp	 DWORD PTR ?bDowngrade@@3HA, 0 ; bDowngrade
  00252	74 07		 je	 SHORT $LN37@DoDriverUn
$LN66@DoDriverUn:
  00254	b8 00 00 00 00	 mov	 eax, OFFSET ??_C@_0CM@LPOONFIE@SETUP_FAILED_BOOT_DRIVE_ENCRYPTE@
  00259	eb 05		 jmp	 SHORT $LN38@DoDriverUn
$LN37@DoDriverUn:
  0025b	b8 00 00 00 00	 mov	 eax, OFFSET ??_C@_0CC@MKLHADEI@SETUP_FAILED_BOOT_DRIVE_ENCRYPTE@
$LN38@DoDriverUn:
  00260	50		 push	 eax
  00261	e8 00 00 00 00	 call	 _Error
  00266	83 c4 04	 add	 esp, 4

; 1153 : 					return FALSE;

  00269	8d 4d 00	 lea	 ecx, DWORD PTR _bootEnc$134569[ebp]
  0026c	c6 45 fc 00	 mov	 BYTE PTR __$EHRec$[ebp+12], 0
  00270	e8 00 00 00 00	 call	 ??1BootEncryption@CipherShed@@QAE@XZ ; CipherShed::BootEncryption::~BootEncryption
  00275	33 c0		 xor	 eax, eax
  00277	e9 b9 01 00 00	 jmp	 $LN35@DoDriverUn
__catch$_DoDriverUnload$8:

; 1165 : 		catch (...)	{ }

  0027c	b8 00 00 00 00	 mov	 eax, $LN77@DoDriverUn
  00281	c3		 ret	 0
$LN77@DoDriverUn:
  00282	bb 01 00 00 00	 mov	 ebx, 1
  00287	8b fb		 mov	 edi, ebx
$LN59@DoDriverUn:

; 1166 : 
; 1167 : 		/* Do not unload the driver in case of upgrade or system encryption update. */
; 1168 : 		if (!bUninstall
; 1169 : 			&& (bUpgrade || SystemEncryptionUpdate)
; 1170 : 			&& (!bDevm || SystemEncryptionUpdate))

  00289	83 3d 00 00 00
	00 00		 cmp	 DWORD PTR ?bUninstall@@3HA, 0 ; bUninstall
  00290	75 2e		 jne	 SHORT $LN17@DoDriverUn
  00292	83 3d 00 00 00
	00 00		 cmp	 DWORD PTR _bUpgrade, 0
  00299	75 09		 jne	 SHORT $LN16@DoDriverUn
  0029b	83 3d 00 00 00
	00 00		 cmp	 DWORD PTR _SystemEncryptionUpdate, 0
  002a2	74 1c		 je	 SHORT $LN17@DoDriverUn
$LN16@DoDriverUn:
  002a4	83 3d 00 00 00
	00 00		 cmp	 DWORD PTR _bDevm, 0
  002ab	74 09		 je	 SHORT $LN15@DoDriverUn
  002ad	83 3d 00 00 00
	00 00		 cmp	 DWORD PTR _SystemEncryptionUpdate, 0
  002b4	74 0a		 je	 SHORT $LN17@DoDriverUn
$LN15@DoDriverUn:

; 1171 : 		{
; 1172 : 			UnloadDriver = FALSE;

  002b6	c7 05 00 00 00
	00 00 00 00 00	 mov	 DWORD PTR ?UnloadDriver@@3HA, 0 ; UnloadDriver
$LN17@DoDriverUn:

; 1173 : 		}
; 1174 : 
; 1175 : 		if (PortableMode && !SystemEncryptionUpdate)

  002c0	83 3d 00 00 00
	00 00		 cmp	 DWORD PTR ?PortableMode@@3HA, 0 ; PortableMode
  002c7	74 11		 je	 SHORT $LN14@DoDriverUn
  002c9	83 3d 00 00 00
	00 00		 cmp	 DWORD PTR _SystemEncryptionUpdate, 0
  002d0	75 08		 jne	 SHORT $LN14@DoDriverUn

; 1176 : 			UnloadDriver = TRUE;

  002d2	89 1d 00 00 00
	00		 mov	 DWORD PTR ?UnloadDriver@@3HA, ebx ; UnloadDriver

; 1177 : 
; 1178 : 		/* Check mounted volumes. */
; 1179 : 		if (UnloadDriver)

  002d8	eb 0d		 jmp	 SHORT $LN69@DoDriverUn
$LN14@DoDriverUn:
  002da	83 3d 00 00 00
	00 00		 cmp	 DWORD PTR ?UnloadDriver@@3HA, 0 ; UnloadDriver
  002e1	0f 84 9a 00 00
	00		 je	 $LN82@DoDriverUn
$LN69@DoDriverUn:

; 1180 : 		{
; 1181 : 			int volumesMounted = 0;
; 1182 : 
; 1183 : 			bResult = DeviceIoControl (hDriver, TC_IOCTL_IS_ANY_VOLUME_MOUNTED, NULL, 0, &volumesMounted, sizeof (volumesMounted), &dwResult, NULL);

  002e7	8b 15 00 00 00
	00		 mov	 edx, DWORD PTR _hDriver
  002ed	8b 35 00 00 00
	00		 mov	 esi, DWORD PTR __imp__DeviceIoControl@32
  002f3	6a 00		 push	 0
  002f5	8d 45 e0	 lea	 eax, DWORD PTR _dwResult$134566[ebp]
  002f8	50		 push	 eax
  002f9	6a 04		 push	 4
  002fb	8d 4d ec	 lea	 ecx, DWORD PTR _volumesMounted$134593[ebp]
  002fe	51		 push	 ecx
  002ff	6a 00		 push	 0
  00301	6a 00		 push	 0
  00303	68 28 20 22 00	 push	 2236456			; 00222028H
  00308	52		 push	 edx
  00309	c7 45 ec 00 00
	00 00		 mov	 DWORD PTR _volumesMounted$134593[ebp], 0
  00310	ff d6		 call	 esi

; 1184 : 
; 1185 : 			if (!bResult)

  00312	85 c0		 test	 eax, eax
  00314	75 30		 jne	 SHORT $LN65@DoDriverUn

; 1186 : 			{
; 1187 : 				bResult = DeviceIoControl (hDriver, TC_IOCTL_LEGACY_GET_MOUNTED_VOLUMES, NULL, 0, &driver, sizeof (driver), &dwResult, NULL);

  00316	8b 15 00 00 00
	00		 mov	 edx, DWORD PTR _hDriver
  0031c	50		 push	 eax
  0031d	8d 45 e0	 lea	 eax, DWORD PTR _dwResult$134566[ebp]
  00320	50		 push	 eax
  00321	68 74 36 00 00	 push	 13940			; 00003674H
  00326	8d 8d 08 c9 ff
	ff		 lea	 ecx, DWORD PTR _driver$134563[ebp]
  0032c	51		 push	 ecx
  0032d	6a 00		 push	 0
  0032f	6a 00		 push	 0
  00331	68 04 20 07 00	 push	 466948			; 00072004H
  00336	52		 push	 edx
  00337	ff d6		 call	 esi

; 1188 : 				if (bResult)

  00339	85 c0		 test	 eax, eax
  0033b	74 34		 je	 SHORT $LN10@DoDriverUn

; 1189 : 					volumesMounted = driver.ulMountedDrives;

  0033d	8b 85 08 c9 ff
	ff		 mov	 eax, DWORD PTR _driver$134563[ebp]
  00343	89 45 ec	 mov	 DWORD PTR _volumesMounted$134593[ebp], eax
$LN65@DoDriverUn:

; 1190 : 			}
; 1191 : 
; 1192 : 			if (bResult)
; 1193 : 			{
; 1194 : 				if (volumesMounted != 0)

  00346	83 7d ec 00	 cmp	 DWORD PTR _volumesMounted$134593[ebp], 0
  0034a	74 3b		 je	 SHORT $LN70@DoDriverUn

; 1195 : 				{
; 1196 : 					/* Abort. */
; 1197 : 					bOK = FALSE;
; 1198 : 					MessageBoxW (hwndDlg, GetString ("DISMOUNT_ALL_FIRST"), lpszTitle, MB_ICONHAND);

  0034c	8b 0d 00 00 00
	00		 mov	 ecx, DWORD PTR _lpszTitle
  00352	6a 10		 push	 16			; 00000010H
  00354	51		 push	 ecx
  00355	68 00 00 00 00	 push	 OFFSET ??_C@_0BD@OMJBKKEL@DISMOUNT_ALL_FIRST?$AA@
  0035a	33 ff		 xor	 edi, edi
  0035c	e8 00 00 00 00	 call	 _GetString
  00361	8b 55 e4	 mov	 edx, DWORD PTR _hwndDlg$GSCopy$[ebp]
  00364	83 c4 04	 add	 esp, 4
  00367	50		 push	 eax
  00368	52		 push	 edx
  00369	ff 15 00 00 00
	00		 call	 DWORD PTR __imp__MessageBoxW@16

; 1199 : 				}
; 1200 : 			}
; 1201 : 			else

  0036f	eb 3d		 jmp	 SHORT $LN6@DoDriverUn
$LN10@DoDriverUn:

; 1202 : 			{
; 1203 : 				/* Abort. */
; 1204 : 				bOK = FALSE;
; 1205 : 				handleWin32Error (hwndDlg);

  00371	8b 45 e4	 mov	 eax, DWORD PTR _hwndDlg$GSCopy$[ebp]
  00374	50		 push	 eax
  00375	33 ff		 xor	 edi, edi
  00377	e8 00 00 00 00	 call	 _handleWin32Error
  0037c	83 c4 04	 add	 esp, 4

; 1206 : 			}
; 1207 : 		}
; 1208 : 
; 1209 : 		// Try to close all open TC windows
; 1210 : 		if (bOK)

  0037f	eb 2d		 jmp	 SHORT $LN6@DoDriverUn
$LN82@DoDriverUn:
  00381	8b 35 00 00 00
	00		 mov	 esi, DWORD PTR __imp__DeviceIoControl@32
$LN70@DoDriverUn:

; 1211 : 		{
; 1212 : 			BOOL TCWindowClosed = FALSE;
; 1213 : 
; 1214 : 			EnumWindows (CloseTCWindowsEnum, (LPARAM) &TCWindowClosed);

  00387	8d 4d e8	 lea	 ecx, DWORD PTR _TCWindowClosed$134601[ebp]
  0038a	51		 push	 ecx
  0038b	68 00 00 00 00	 push	 OFFSET _CloseTCWindowsEnum@8
  00390	c7 45 e8 00 00
	00 00		 mov	 DWORD PTR _TCWindowClosed$134601[ebp], 0
  00397	ff 15 00 00 00
	00		 call	 DWORD PTR __imp__EnumWindows@8

; 1215 : 
; 1216 : 			if (TCWindowClosed) 

  0039d	83 7d e8 00	 cmp	 DWORD PTR _TCWindowClosed$134601[ebp], 0
  003a1	74 0b		 je	 SHORT $LN6@DoDriverUn

; 1217 : 				Sleep (2000);

  003a3	68 d0 07 00 00	 push	 2000			; 000007d0H
  003a8	ff 15 00 00 00
	00		 call	 DWORD PTR __imp__Sleep@4
$LN6@DoDriverUn:

; 1218 : 		}
; 1219 : 
; 1220 : 		// Test for any applications attached to driver
; 1221 : 		if (!bUpgrade)

  003ae	83 3d 00 00 00
	00 00		 cmp	 DWORD PTR _bUpgrade, 0
  003b5	75 50		 jne	 SHORT $LN4@DoDriverUn

; 1222 : 		{
; 1223 : 			bResult = DeviceIoControl (hDriver, TC_IOCTL_GET_DEVICE_REFCOUNT, &refCount, sizeof (refCount), &refCount,
; 1224 : 				sizeof (refCount), &dwResult, NULL);

  003b7	6a 00		 push	 0
  003b9	8d 55 e0	 lea	 edx, DWORD PTR _dwResult$134566[ebp]
  003bc	52		 push	 edx
  003bd	8b 15 00 00 00
	00		 mov	 edx, DWORD PTR _hDriver
  003c3	6a 04		 push	 4
  003c5	8d 45 dc	 lea	 eax, DWORD PTR _refCount$134565[ebp]
  003c8	50		 push	 eax
  003c9	6a 04		 push	 4
  003cb	8b c8		 mov	 ecx, eax
  003cd	51		 push	 ecx
  003ce	68 20 20 22 00	 push	 2236448			; 00222020H
  003d3	52		 push	 edx
  003d4	ff d6		 call	 esi

; 1225 : 
; 1226 : 			if (bOK && bResult && refCount > 1)

  003d6	85 ff		 test	 edi, edi
  003d8	74 3a		 je	 SHORT $LN2@DoDriverUn
  003da	85 c0		 test	 eax, eax
  003dc	74 29		 je	 SHORT $LN4@DoDriverUn
  003de	39 5d dc	 cmp	 DWORD PTR _refCount$134565[ebp], ebx
  003e1	7e 24		 jle	 SHORT $LN4@DoDriverUn

; 1227 : 			{
; 1228 : 				/* Abort. */
; 1229 : 				MessageBoxW (hwndDlg, GetString ("CLOSE_TC_FIRST"), lpszTitle, MB_ICONSTOP);

  003e3	a1 00 00 00 00	 mov	 eax, DWORD PTR _lpszTitle
  003e8	6a 10		 push	 16			; 00000010H
  003ea	50		 push	 eax
  003eb	68 00 00 00 00	 push	 OFFSET ??_C@_0P@KGAEHPDJ@CLOSE_TC_FIRST?$AA@
  003f0	e8 00 00 00 00	 call	 _GetString
  003f5	8b 4d e4	 mov	 ecx, DWORD PTR _hwndDlg$GSCopy$[ebp]
  003f8	83 c4 04	 add	 esp, 4
  003fb	50		 push	 eax
  003fc	51		 push	 ecx
  003fd	ff 15 00 00 00
	00		 call	 DWORD PTR __imp__MessageBoxW@16

; 1230 : 				bOK = FALSE;

  00403	33 ff		 xor	 edi, edi

; 1231 : 			}
; 1232 : 		}
; 1233 : 
; 1234 : 		/* Close the driver device handle. */
; 1235 : 		if (!bOK || UnloadDriver)

  00405	eb 0d		 jmp	 SHORT $LN2@DoDriverUn
$LN4@DoDriverUn:
  00407	85 ff		 test	 edi, edi
  00409	74 09		 je	 SHORT $LN2@DoDriverUn
  0040b	83 3d 00 00 00
	00 00		 cmp	 DWORD PTR ?UnloadDriver@@3HA, 0 ; UnloadDriver
  00412	74 1f		 je	 SHORT $LN1@DoDriverUn
$LN2@DoDriverUn:

; 1236 : 		{
; 1237 : 			CloseHandle (hDriver);

  00414	8b 15 00 00 00
	00		 mov	 edx, DWORD PTR _hDriver
  0041a	52		 push	 edx
  0041b	ff 15 00 00 00
	00		 call	 DWORD PTR __imp__CloseHandle@4

; 1238 : 			hDriver = INVALID_HANDLE_VALUE;

  00421	c7 05 00 00 00
	00 ff ff ff ff	 mov	 DWORD PTR _hDriver, -1

; 1239 : 		}
; 1240 : 	}
; 1241 : 	else

  0042b	eb 06		 jmp	 SHORT $LN1@DoDriverUn
$LN31@DoDriverUn:

; 1242 : 	{
; 1243 : 		// Note that the driver may have already been unloaded during this session (e.g. retry after an error, etc.) so it is not 
; 1244 : 		// guaranteed that the user is installing CipherShed for the first time now (we also cannot know if the user has already
; 1245 : 		// installed and used CipherShed on another system before).
; 1246 : 		bPossiblyFirstTimeInstall = TRUE;

  0042d	89 1d 00 00 00
	00		 mov	 DWORD PTR _bPossiblyFirstTimeInstall, ebx
$LN1@DoDriverUn:

; 1247 : 	}
; 1248 : 
; 1249 : 	return bOK;

  00433	8b c7		 mov	 eax, edi
$LN35@DoDriverUn:

; 1250 : }

  00435	8b 4d f4	 mov	 ecx, DWORD PTR __$EHRec$[ebp+4]
  00438	64 89 0d 00 00
	00 00		 mov	 DWORD PTR fs:0, ecx
  0043f	59		 pop	 ecx
  00440	5f		 pop	 edi
  00441	5e		 pop	 esi
  00442	5b		 pop	 ebx
  00443	8b 8d 18 06 00
	00		 mov	 ecx, DWORD PTR __$ArrayPad$[ebp]
  00449	33 cd		 xor	 ecx, ebp
  0044b	e8 00 00 00 00	 call	 @__security_check_cookie@4
  00450	81 c5 1c 06 00
	00		 add	 ebp, 1564		; 0000061cH
  00456	8b e5		 mov	 esp, ebp
  00458	5d		 pop	 ebp
  00459	c3		 ret	 0
_TEXT	ENDS
;	COMDAT text$x
text$x	SEGMENT
__unwindfunclet$_DoDriverUnload$10:
  00000	8d 4d 00	 lea	 ecx, DWORD PTR _bootEnc$134569[ebp]
  00003	e9 00 00 00 00	 jmp	 ??1BootEncryption@CipherShed@@QAE@XZ ; CipherShed::BootEncryption::~BootEncryption
__ehhandler$_DoDriverUnload:
  00008	8b 54 24 08	 mov	 edx, DWORD PTR [esp+8]
  0000c	8d 42 0c	 lea	 eax, DWORD PTR [edx+12]
  0000f	8b 8a 04 c9 ff
	ff		 mov	 ecx, DWORD PTR [edx-14076]
  00015	33 c8		 xor	 ecx, eax
  00017	e8 00 00 00 00	 call	 @__security_check_cookie@4
  0001c	8b 8a 24 06 00
	00		 mov	 ecx, DWORD PTR [edx+1572]
  00022	33 c8		 xor	 ecx, eax
  00024	e8 00 00 00 00	 call	 @__security_check_cookie@4
  00029	b8 00 00 00 00	 mov	 eax, OFFSET __ehfuncinfo$_DoDriverUnload
  0002e	e9 00 00 00 00	 jmp	 ___CxxFrameHandler3
text$x	ENDS
_DoDriverUnload ENDP
PUBLIC	??_C@_0BL@LKLMNDDM@BOOT_LOADER_UPGRADE_FAILED?$AA@ ; `string'
PUBLIC	??_C@_0BH@FCKJHOEL@BOOT_LOADER_UPGRADE_OK?$AA@	; `string'
PUBLIC	??_C@_0CB@JHJCAANH@BOOT_LOADER_UPGRADE_OK_HIDDEN_OS@ ; `string'
PUBLIC	??_C@_0BP@LJKCMEDG@INSTALLER_UPDATING_BOOT_LOADER?$AA@ ; `string'
PUBLIC	_hwndDlg$GSCopy$
PUBLIC	__$ArrayPad$
PUBLIC	_UpgradeBootLoader
PUBLIC	??_R0?AUException@CipherShed@@@8		; CipherShed::Exception `RTTI Type Descriptor'
EXTRN	_Info:PROC
EXTRN	?InstallBootLoader@BootEncryption@CipherShed@@QAEX_N0@Z:PROC ; CipherShed::BootEncryption::InstallBootLoader
;	COMDAT ??_R0?AUException@CipherShed@@@8
_DATA	SEGMENT
??_R0?AUException@CipherShed@@@8 DD FLAT:??_7type_info@@6B@ ; CipherShed::Exception `RTTI Type Descriptor'
	DD	00H
	DB	'.?AUException@CipherShed@@', 00H
_DATA	ENDS
;	COMDAT ??_C@_0BL@LKLMNDDM@BOOT_LOADER_UPGRADE_FAILED?$AA@
CONST	SEGMENT
??_C@_0BL@LKLMNDDM@BOOT_LOADER_UPGRADE_FAILED?$AA@ DB 'BOOT_LOADER_UPGRAD'
	DB	'E_FAILED', 00H				; `string'
CONST	ENDS
;	COMDAT ??_C@_0BH@FCKJHOEL@BOOT_LOADER_UPGRADE_OK?$AA@
CONST	SEGMENT
??_C@_0BH@FCKJHOEL@BOOT_LOADER_UPGRADE_OK?$AA@ DB 'BOOT_LOADER_UPGRADE_OK'
	DB	00H						; `string'
CONST	ENDS
;	COMDAT ??_C@_0CB@JHJCAANH@BOOT_LOADER_UPGRADE_OK_HIDDEN_OS@
CONST	SEGMENT
??_C@_0CB@JHJCAANH@BOOT_LOADER_UPGRADE_OK_HIDDEN_OS@ DB 'BOOT_LOADER_UPGR'
	DB	'ADE_OK_HIDDEN_OS', 00H			; `string'
CONST	ENDS
;	COMDAT ??_C@_0BP@LJKCMEDG@INSTALLER_UPDATING_BOOT_LOADER?$AA@
CONST	SEGMENT
??_C@_0BP@LJKCMEDG@INSTALLER_UPDATING_BOOT_LOADER?$AA@ DB 'INSTALLER_UPDA'
	DB	'TING_BOOT_LOADER', 00H			; `string'
CONST	ENDS
;	COMDAT xdata$x
xdata$x	SEGMENT
__tryblocktable$_UpgradeBootLoader DD 00H
	DD	01H
	DD	02H
	DD	02H
	DD	FLAT:__catchsym$_UpgradeBootLoader$4
__unwindtable$_UpgradeBootLoader DD 0ffffffffH
	DD	00H
	DD	00H
	DD	FLAT:__unwindfunclet$_UpgradeBootLoader$3
	DD	0ffffffffH
	DD	00H
__catchsym$_UpgradeBootLoader$4 DD 08H
	DD	FLAT:??_R0?AUException@CipherShed@@@8
	DD	0fffff9ccH
	DD	FLAT:__catch$_UpgradeBootLoader$0
	DD	040H
	DD	00H
	DD	00H
	DD	FLAT:__catch$_UpgradeBootLoader$1
__ehfuncinfo$_UpgradeBootLoader DD 019930522H
	DD	03H
	DD	FLAT:__unwindtable$_UpgradeBootLoader
	DD	01H
	DD	FLAT:__tryblocktable$_UpgradeBootLoader
	DD	2 DUP(00H)
	DD	00H
	DD	01H
; Function compile flags: /Ogtpy
xdata$x	ENDS
;	COMDAT _UpgradeBootLoader
_TEXT	SEGMENT
_e$134624 = -1588					; size = 4
_hwndDlg$GSCopy$ = -1584				; size = 4
_bootEnc$134617 = -1580					; size = 1560
__$ArrayPad$ = -20					; size = 4
__$EHRec$ = -16						; size = 16
_hwndDlg$ = 8						; size = 4
_UpgradeBootLoader PROC					; COMDAT

; 1258 : {

  00000	55		 push	 ebp
  00001	8b ec		 mov	 ebp, esp
  00003	6a ff		 push	 -1
  00005	68 00 00 00 00	 push	 __ehhandler$_UpgradeBootLoader
  0000a	64 a1 00 00 00
	00		 mov	 eax, DWORD PTR fs:0
  00010	50		 push	 eax
  00011	81 ec 28 06 00
	00		 sub	 esp, 1576		; 00000628H
  00017	a1 00 00 00 00	 mov	 eax, DWORD PTR ___security_cookie
  0001c	33 c5		 xor	 eax, ebp
  0001e	89 45 ec	 mov	 DWORD PTR __$ArrayPad$[ebp], eax
  00021	53		 push	 ebx
  00022	56		 push	 esi
  00023	57		 push	 edi
  00024	50		 push	 eax
  00025	8d 45 f4	 lea	 eax, DWORD PTR __$EHRec$[ebp+4]
  00028	64 a3 00 00 00
	00		 mov	 DWORD PTR fs:0, eax
  0002e	89 65 f0	 mov	 DWORD PTR __$EHRec$[ebp], esp
  00031	8b 75 08	 mov	 esi, DWORD PTR _hwndDlg$[ebp]

; 1259 : 	/*
; 1260 : 	 * The bootloader is only installed in case of full system encryption,
; 1261 : 	 * otherwise no upgrade is needed and we return here.
; 1262 : 	 */
; 1263 : 	if (!SystemEncryptionUpdate)

  00034	33 db		 xor	 ebx, ebx
  00036	89 b5 d0 f9 ff
	ff		 mov	 DWORD PTR _hwndDlg$GSCopy$[ebp], esi
  0003c	39 1d 00 00 00
	00		 cmp	 DWORD PTR _SystemEncryptionUpdate, ebx

; 1264 : 		return TRUE;

  00042	0f 84 89 00 00
	00		 je	 $LN21@UpgradeBoo

; 1265 : 
; 1266 : 	try
; 1267 : 	{
; 1268 : 		BootEncryption bootEnc (hwndDlg);

  00048	56		 push	 esi
  00049	8d 8d d4 f9 ff
	ff		 lea	 ecx, DWORD PTR _bootEnc$134617[ebp]
  0004f	89 5d fc	 mov	 DWORD PTR __$EHRec$[ebp+12], ebx
  00052	e8 00 00 00 00	 call	 ??0BootEncryption@CipherShed@@QAE@PAUHWND__@@@Z ; CipherShed::BootEncryption::BootEncryption

; 1269 : 
; 1270 : 		if (bootEnc.GetInstalledBootLoaderVersion() < VERSION_NUM)

  00057	8d 8d d4 f9 ff
	ff		 lea	 ecx, DWORD PTR _bootEnc$134617[ebp]
  0005d	c6 45 fc 01	 mov	 BYTE PTR __$EHRec$[ebp+12], 1
  00061	e8 00 00 00 00	 call	 ?GetInstalledBootLoaderVersion@BootEncryption@CipherShed@@QAEGXZ ; CipherShed::BootEncryption::GetInstalledBootLoaderVersion
  00066	0f b7 c0	 movzx	 eax, ax
  00069	b9 30 07 00 00	 mov	 ecx, 1840		; 00000730H
  0006e	66 3b c1	 cmp	 ax, cx
  00071	73 50		 jae	 SHORT $LN1@UpgradeBoo

; 1271 : 		{
; 1272 : 			StatusMessage (hwndDlg, "INSTALLER_UPDATING_BOOT_LOADER");

  00073	68 00 00 00 00	 push	 OFFSET ??_C@_0BP@LJKCMEDG@INSTALLER_UPDATING_BOOT_LOADER?$AA@
  00078	56		 push	 esi
  00079	e8 00 00 00 00	 call	 _StatusMessage
  0007e	83 c4 08	 add	 esp, 8

; 1273 : 
; 1274 : 			/* Upgrade the installed bootloader to new version. */
; 1275 : 			bootEnc.InstallBootLoader (true);

  00081	53		 push	 ebx
  00082	6a 01		 push	 1
  00084	8d 8d d4 f9 ff
	ff		 lea	 ecx, DWORD PTR _bootEnc$134617[ebp]
  0008a	e8 00 00 00 00	 call	 ?InstallBootLoader@BootEncryption@CipherShed@@QAEX_N0@Z ; CipherShed::BootEncryption::InstallBootLoader

; 1276 : 
; 1277 : 			/* Give the user an advice to create a new rescue disk with updated bootloader (<= TrueCrypt 6.0a). */
; 1278 : 			if (bootEnc.GetInstalledBootLoaderVersion() <= TC_RESCUE_DISK_UPGRADE_NOTICE_MAX_VERSION)

  0008f	8d 8d d4 f9 ff
	ff		 lea	 ecx, DWORD PTR _bootEnc$134617[ebp]
  00095	e8 00 00 00 00	 call	 ?GetInstalledBootLoaderVersion@BootEncryption@CipherShed@@QAEGXZ ; CipherShed::BootEncryption::GetInstalledBootLoaderVersion
  0009a	0f b7 c0	 movzx	 eax, ax
  0009d	ba 0a 06 00 00	 mov	 edx, 1546		; 0000060aH
  000a2	66 3b c2	 cmp	 ax, dx
  000a5	77 1c		 ja	 SHORT $LN1@UpgradeBoo

; 1279 : 				Info (IsHiddenOSRunning() ? "BOOT_LOADER_UPGRADE_OK_HIDDEN_OS" : "BOOT_LOADER_UPGRADE_OK");

  000a7	e8 00 00 00 00	 call	 _IsHiddenOSRunning
  000ac	85 c0		 test	 eax, eax
  000ae	b8 00 00 00 00	 mov	 eax, OFFSET ??_C@_0CB@JHJCAANH@BOOT_LOADER_UPGRADE_OK_HIDDEN_OS@
  000b3	75 05		 jne	 SHORT $LN8@UpgradeBoo
  000b5	b8 00 00 00 00	 mov	 eax, OFFSET ??_C@_0BH@FCKJHOEL@BOOT_LOADER_UPGRADE_OK?$AA@
$LN8@UpgradeBoo:
  000ba	50		 push	 eax
  000bb	e8 00 00 00 00	 call	 _Info
  000c0	83 c4 04	 add	 esp, 4
$LN1@UpgradeBoo:

; 1280 : 		}
; 1281 : 
; 1282 : 		return TRUE;

  000c3	8d 8d d4 f9 ff
	ff		 lea	 ecx, DWORD PTR _bootEnc$134617[ebp]
  000c9	88 5d fc	 mov	 BYTE PTR __$EHRec$[ebp+12], bl
  000cc	e8 00 00 00 00	 call	 ??1BootEncryption@CipherShed@@QAE@XZ ; CipherShed::BootEncryption::~BootEncryption
$LN21@UpgradeBoo:
  000d1	b8 01 00 00 00	 mov	 eax, 1
  000d6	eb 28		 jmp	 SHORT $LN5@UpgradeBoo
__catch$_UpgradeBootLoader$0:

; 1283 : 	}
; 1284 : 	catch (Exception &e)
; 1285 : 	{
; 1286 : 		e.Show (hwndDlg);

  000d8	8b 8d cc f9 ff
	ff		 mov	 ecx, DWORD PTR _e$134624[ebp]
  000de	8b 01		 mov	 eax, DWORD PTR [ecx]
  000e0	8b 95 d0 f9 ff
	ff		 mov	 edx, DWORD PTR _hwndDlg$GSCopy$[ebp]
  000e6	8b 00		 mov	 eax, DWORD PTR [eax]
  000e8	52		 push	 edx
  000e9	ff d0		 call	 eax

; 1287 : 	}

  000eb	b8 00 00 00 00	 mov	 eax, $LN16@UpgradeBoo
  000f0	c3		 ret	 0
$LN16@UpgradeBoo:

; 1289 : 
; 1290 : 	Error ("BOOT_LOADER_UPGRADE_FAILED");

  000f1	68 00 00 00 00	 push	 OFFSET ??_C@_0BL@LKLMNDDM@BOOT_LOADER_UPGRADE_FAILED?$AA@
  000f6	e8 00 00 00 00	 call	 _Error
  000fb	83 c4 04	 add	 esp, 4

; 1291 : 	return FALSE;

  000fe	33 c0		 xor	 eax, eax
$LN5@UpgradeBoo:

; 1292 : }

  00100	8b 4d f4	 mov	 ecx, DWORD PTR __$EHRec$[ebp+4]
  00103	64 89 0d 00 00
	00 00		 mov	 DWORD PTR fs:0, ecx
  0010a	59		 pop	 ecx
  0010b	5f		 pop	 edi
  0010c	5e		 pop	 esi
  0010d	5b		 pop	 ebx
  0010e	8b 4d ec	 mov	 ecx, DWORD PTR __$ArrayPad$[ebp]
  00111	33 cd		 xor	 ecx, ebp
  00113	e8 00 00 00 00	 call	 @__security_check_cookie@4
  00118	8b e5		 mov	 esp, ebp
  0011a	5d		 pop	 ebp
  0011b	c3		 ret	 0
__catch$_UpgradeBootLoader$1:

; 1288 : 	catch (...) { }

  0011c	b8 00 00 00 00	 mov	 eax, $LN16@UpgradeBoo
  00121	c3		 ret	 0
_TEXT	ENDS
;	COMDAT text$x
text$x	SEGMENT
__unwindfunclet$_UpgradeBootLoader$3:
  00000	8d 8d d4 f9 ff
	ff		 lea	 ecx, DWORD PTR _bootEnc$134617[ebp]
  00006	e9 00 00 00 00	 jmp	 ??1BootEncryption@CipherShed@@QAE@XZ ; CipherShed::BootEncryption::~BootEncryption
__ehhandler$_UpgradeBootLoader:
  0000b	8b 54 24 08	 mov	 edx, DWORD PTR [esp+8]
  0000f	8d 42 0c	 lea	 eax, DWORD PTR [edx+12]
  00012	8b 8a c8 f9 ff
	ff		 mov	 ecx, DWORD PTR [edx-1592]
  00018	33 c8		 xor	 ecx, eax
  0001a	e8 00 00 00 00	 call	 @__security_check_cookie@4
  0001f	8b 4a f8	 mov	 ecx, DWORD PTR [edx-8]
  00022	33 c8		 xor	 ecx, eax
  00024	e8 00 00 00 00	 call	 @__security_check_cookie@4
  00029	b8 00 00 00 00	 mov	 eax, OFFSET __ehfuncinfo$_UpgradeBootLoader
  0002e	e9 00 00 00 00	 jmp	 ___CxxFrameHandler3
text$x	ENDS
_UpgradeBootLoader ENDP
PUBLIC	??_C@_0BN@DGJJNBJI@?2CipherShed?5User?8s?5Guide?4lnk?$AA@ ; `string'
PUBLIC	??_C@_0BK@EABHBBNJ@?2Uninstall?5CipherShed?4lnk?$AA@ ; `string'
PUBLIC	??_C@_0BI@GABNFKIJ@?2CipherShed?5Website?4url?$AA@ ; `string'
PUBLIC	??_C@_0BA@LNMKCON@?2CipherShed?4lnk?$AA@	; `string'
PUBLIC	??_C@_0M@HNGGAEIF@?2CipherShed?$AA@		; `string'
PUBLIC	__$ArrayPad$
PUBLIC	_DoShortcutsUninstall
EXTRN	__imp__OleUninitialize@0:PROC
EXTRN	__stat64i32:PROC
EXTRN	__imp__SHGetSpecialFolderPathA@16:PROC
EXTRN	__imp__OleInitialize@4:PROC
;	COMDAT ??_C@_0BN@DGJJNBJI@?2CipherShed?5User?8s?5Guide?4lnk?$AA@
CONST	SEGMENT
??_C@_0BN@DGJJNBJI@?2CipherShed?5User?8s?5Guide?4lnk?$AA@ DB '\CipherShed'
	DB	' User''s Guide.lnk', 00H			; `string'
CONST	ENDS
;	COMDAT ??_C@_0BK@EABHBBNJ@?2Uninstall?5CipherShed?4lnk?$AA@
CONST	SEGMENT
??_C@_0BK@EABHBBNJ@?2Uninstall?5CipherShed?4lnk?$AA@ DB '\Uninstall Ciphe'
	DB	'rShed.lnk', 00H				; `string'
CONST	ENDS
;	COMDAT ??_C@_0BI@GABNFKIJ@?2CipherShed?5Website?4url?$AA@
CONST	SEGMENT
??_C@_0BI@GABNFKIJ@?2CipherShed?5Website?4url?$AA@ DB '\CipherShed Websit'
	DB	'e.url', 00H					; `string'
CONST	ENDS
;	COMDAT ??_C@_0BA@LNMKCON@?2CipherShed?4lnk?$AA@
CONST	SEGMENT
??_C@_0BA@LNMKCON@?2CipherShed?4lnk?$AA@ DB '\CipherShed.lnk', 00H ; `string'
CONST	ENDS
;	COMDAT ??_C@_0M@HNGGAEIF@?2CipherShed?$AA@
CONST	SEGMENT
??_C@_0M@HNGGAEIF@?2CipherShed?$AA@ DB '\CipherShed', 00H ; `string'
; Function compile flags: /Ogtpy
CONST	ENDS
;	COMDAT _DoShortcutsUninstall
_TEXT	SEGMENT
_bOK$ = -844						; size = 4
_st$138475 = -840					; size = 56
_st$138464 = -840					; size = 56
_st$138453 = -840					; size = 56
_st$134641 = -840					; size = 48
_szTmp2$ = -784						; size = 260
_szLinkDir$ = -524					; size = 260
_path$134642 = -264					; size = 260
__$ArrayPad$ = -4					; size = 4
_hwndDlg$ = 8						; size = 4
_szDestDir$ = 12					; size = 4
_DoShortcutsUninstall PROC				; COMDAT

; 1298 : {

  00000	81 ec 4c 03 00
	00		 sub	 esp, 844		; 0000034cH
  00006	a1 00 00 00 00	 mov	 eax, DWORD PTR ___security_cookie
  0000b	33 c4		 xor	 eax, esp
  0000d	89 84 24 48 03
	00 00		 mov	 DWORD PTR __$ArrayPad$[esp+844], eax
  00014	53		 push	 ebx
  00015	55		 push	 ebp
  00016	56		 push	 esi
  00017	57		 push	 edi
  00018	8b bc 24 60 03
	00 00		 mov	 edi, DWORD PTR _hwndDlg$[esp+856]

; 1299 : 	char szLinkDir[TC_MAX_PATH];
; 1300 : 	char szTmp2[TC_MAX_PATH];
; 1301 : 	BOOL bSlash, bOK = FALSE;
; 1302 : 	HRESULT hOle;
; 1303 : 	int x;
; 1304 : 	BOOL allUsers = FALSE;

  0001f	33 ed		 xor	 ebp, ebp

; 1305 : 
; 1306 : 	hOle = OleInitialize (NULL);

  00021	55		 push	 ebp
  00022	c7 44 24 14 00
	00 00 00	 mov	 DWORD PTR _bOK$[esp+864], 0
  0002a	ff 15 00 00 00
	00		 call	 DWORD PTR __imp__OleInitialize@4

; 1307 : 
; 1308 : 	// User start menu
; 1309 : 	SHGetSpecialFolderPath (hwndDlg, szLinkDir, CSIDL_PROGRAMS, 0);

  00030	8b 1d 00 00 00
	00		 mov	 ebx, DWORD PTR __imp__SHGetSpecialFolderPathA@16
  00036	55		 push	 ebp
  00037	6a 02		 push	 2
  00039	8d 84 24 58 01
	00 00		 lea	 eax, DWORD PTR _szLinkDir$[esp+868]
  00040	50		 push	 eax
  00041	57		 push	 edi
  00042	ff d3		 call	 ebx

; 1310 : 	x = strlen (szLinkDir);

  00044	8d 84 24 50 01
	00 00		 lea	 eax, DWORD PTR _szLinkDir$[esp+860]
  0004b	8d 50 01	 lea	 edx, DWORD PTR [eax+1]
  0004e	8b ff		 npad	 2
$LL52@DoShortcut:
  00050	8a 08		 mov	 cl, BYTE PTR [eax]
  00052	40		 inc	 eax
  00053	84 c9		 test	 cl, cl
  00055	75 f9		 jne	 SHORT $LL52@DoShortcut
  00057	2b c2		 sub	 eax, edx

; 1311 : 	if (szLinkDir[x - 1] == '\\')

  00059	80 bc 04 4f 01
	00 00 5c	 cmp	 BYTE PTR _szLinkDir$[esp+eax+859], 92 ; 0000005cH
  00061	74 1a		 je	 SHORT $LN53@DoShortcut

; 1312 : 		bSlash = TRUE;
; 1313 : 	else
; 1314 : 		bSlash = FALSE;
; 1315 : 
; 1316 : 	if (bSlash == FALSE)
; 1317 : 		strcat_s (szLinkDir, sizeof(szLinkDir), "\\");

  00063	68 00 00 00 00	 push	 OFFSET ??_C@_01KICIPPFI@?2?$AA@
  00068	8d 8c 24 54 01
	00 00		 lea	 ecx, DWORD PTR _szLinkDir$[esp+864]
  0006f	68 04 01 00 00	 push	 260			; 00000104H
  00074	51		 push	 ecx
  00075	e8 00 00 00 00	 call	 _strcat_s
  0007a	83 c4 0c	 add	 esp, 12			; 0000000cH
$LN53@DoShortcut:

; 1318 : 
; 1319 : 	strcat_s (szLinkDir, sizeof(szLinkDir), "CipherShed");

  0007d	68 00 00 00 00	 push	 OFFSET ??_C@_0L@FEEFGEIL@CipherShed?$AA@
  00082	8d 94 24 54 01
	00 00		 lea	 edx, DWORD PTR _szLinkDir$[esp+864]
  00089	68 04 01 00 00	 push	 260			; 00000104H
  0008e	52		 push	 edx
  0008f	e8 00 00 00 00	 call	 _strcat_s
  00094	83 c4 0c	 add	 esp, 12			; 0000000cH

; 1320 : 
; 1321 : 	// Global start menu
; 1322 : 	{
; 1323 : 		struct _stat st;
; 1324 : 		char path[TC_MAX_PATH];
; 1325 : 
; 1326 : 		SHGetSpecialFolderPath (hwndDlg, path, CSIDL_COMMON_PROGRAMS, 0);

  00097	6a 00		 push	 0
  00099	6a 17		 push	 23			; 00000017H
  0009b	8d 84 24 5c 02
	00 00		 lea	 eax, DWORD PTR _path$134642[esp+868]
  000a2	50		 push	 eax
  000a3	57		 push	 edi
  000a4	ff d3		 call	 ebx

; 1327 : 		strcat_s (path, sizeof(path), "\\CipherShed");

  000a6	68 00 00 00 00	 push	 OFFSET ??_C@_0M@HNGGAEIF@?2CipherShed?$AA@
  000ab	8d 8c 24 58 02
	00 00		 lea	 ecx, DWORD PTR _path$134642[esp+864]
  000b2	68 04 01 00 00	 push	 260			; 00000104H
  000b7	51		 push	 ecx
  000b8	e8 00 00 00 00	 call	 _strcat_s

; 1328 : 
; 1329 : 		if (_stat (path, &st) == 0)

  000bd	8d 54 24 20	 lea	 edx, DWORD PTR _st$134641[esp+872]
  000c1	52		 push	 edx
  000c2	8d 84 24 64 02
	00 00		 lea	 eax, DWORD PTR _path$134642[esp+876]
  000c9	50		 push	 eax
  000ca	e8 00 00 00 00	 call	 __stat64i32
  000cf	83 c4 14	 add	 esp, 20			; 00000014H
  000d2	85 c0		 test	 eax, eax
  000d4	75 22		 jne	 SHORT $LN13@DoShortcut
  000d6	eb 08 8d a4 24
	00 00 00 00 90	 npad	 10
$LL19@DoShortcut:

; 1330 : 		{
; 1331 : 			strcpy (szLinkDir, path);

  000e0	8a 8c 04 54 02
	00 00		 mov	 cl, BYTE PTR _path$134642[esp+eax+860]
  000e7	88 8c 04 50 01
	00 00		 mov	 BYTE PTR _szLinkDir$[esp+eax+860], cl
  000ee	40		 inc	 eax
  000ef	84 c9		 test	 cl, cl
  000f1	75 ed		 jne	 SHORT $LL19@DoShortcut

; 1332 : 			allUsers = TRUE;

  000f3	bd 01 00 00 00	 mov	 ebp, 1
$LN13@DoShortcut:

; 1333 : 		}
; 1334 : 	}
; 1335 : 
; 1336 : 	// Start menu entries
; 1337 : 	snprintf (szTmp2, sizeof(szTmp2), "%s%s", szLinkDir, "\\CipherShed.lnk");

  000f8	68 00 00 00 00	 push	 OFFSET ??_C@_0BA@LNMKCON@?2CipherShed?4lnk?$AA@
  000fd	8d 8c 24 54 01
	00 00		 lea	 ecx, DWORD PTR _szLinkDir$[esp+864]
  00104	51		 push	 ecx
  00105	68 00 00 00 00	 push	 OFFSET ??_C@_04HDOCAJNK@?$CFs?$CFs?$AA@
  0010a	8d 54 24 58	 lea	 edx, DWORD PTR _szTmp2$[esp+872]
  0010e	68 04 01 00 00	 push	 260			; 00000104H
  00113	52		 push	 edx
  00114	e8 00 00 00 00	 call	 _sprintf_s
  00119	83 c4 14	 add	 esp, 20			; 00000014H

; 1338 : 	RemoveMessage (hwndDlg, szTmp2);

  0011c	83 3d 00 00 00
	00 00		 cmp	 DWORD PTR _Rollback, 0
  00123	75 13		 jne	 SHORT $LN20@DoShortcut
  00125	8d 44 24 4c	 lea	 eax, DWORD PTR _szTmp2$[esp+860]
  00129	50		 push	 eax
  0012a	68 00 00 00 00	 push	 OFFSET ??_C@_08GLIOLGPM@REMOVING?$AA@
  0012f	57		 push	 edi
  00130	e8 00 00 00 00	 call	 _StatusMessageParam
  00135	83 c4 0c	 add	 esp, 12			; 0000000cH
$LN20@DoShortcut:

; 1339 : 	if (StatDeleteFile (szTmp2) == FALSE)

  00138	8d 4c 24 14	 lea	 ecx, DWORD PTR _st$138453[esp+860]
  0013c	51		 push	 ecx
  0013d	8d 54 24 50	 lea	 edx, DWORD PTR _szTmp2$[esp+864]
  00141	52		 push	 edx
  00142	e8 00 00 00 00	 call	 __stat64
  00147	8b 35 00 00 00
	00		 mov	 esi, DWORD PTR __imp__DeleteFileA@4
  0014d	83 c4 08	 add	 esp, 8
  00150	85 c0		 test	 eax, eax
  00152	75 0f		 jne	 SHORT $LN49@DoShortcut
  00154	8d 44 24 4c	 lea	 eax, DWORD PTR _szTmp2$[esp+860]
  00158	50		 push	 eax
  00159	ff d6		 call	 esi
  0015b	85 c0		 test	 eax, eax
  0015d	0f 84 cd 01 00
	00		 je	 $LN54@DoShortcut
$LN49@DoShortcut:

; 1340 : 		goto error;
; 1341 : 
; 1342 : 	snprintf (szTmp2, sizeof(szTmp2), "%s%s", szLinkDir, "\\CipherShed Website.url");

  00163	68 00 00 00 00	 push	 OFFSET ??_C@_0BI@GABNFKIJ@?2CipherShed?5Website?4url?$AA@
  00168	8d 8c 24 54 01
	00 00		 lea	 ecx, DWORD PTR _szLinkDir$[esp+864]
  0016f	51		 push	 ecx
  00170	68 00 00 00 00	 push	 OFFSET ??_C@_04HDOCAJNK@?$CFs?$CFs?$AA@
  00175	8d 54 24 58	 lea	 edx, DWORD PTR _szTmp2$[esp+872]
  00179	68 04 01 00 00	 push	 260			; 00000104H
  0017e	52		 push	 edx
  0017f	e8 00 00 00 00	 call	 _sprintf_s
  00184	83 c4 14	 add	 esp, 20			; 00000014H

; 1343 : 	RemoveMessage (hwndDlg, szTmp2);

  00187	83 3d 00 00 00
	00 00		 cmp	 DWORD PTR _Rollback, 0
  0018e	75 13		 jne	 SHORT $LN27@DoShortcut
  00190	8d 44 24 4c	 lea	 eax, DWORD PTR _szTmp2$[esp+860]
  00194	50		 push	 eax
  00195	68 00 00 00 00	 push	 OFFSET ??_C@_08GLIOLGPM@REMOVING?$AA@
  0019a	57		 push	 edi
  0019b	e8 00 00 00 00	 call	 _StatusMessageParam
  001a0	83 c4 0c	 add	 esp, 12			; 0000000cH
$LN27@DoShortcut:

; 1344 : 	if (StatDeleteFile (szTmp2) == FALSE)

  001a3	8d 4c 24 14	 lea	 ecx, DWORD PTR _st$138464[esp+860]
  001a7	51		 push	 ecx
  001a8	8d 54 24 50	 lea	 edx, DWORD PTR _szTmp2$[esp+864]
  001ac	52		 push	 edx
  001ad	e8 00 00 00 00	 call	 __stat64
  001b2	83 c4 08	 add	 esp, 8
  001b5	85 c0		 test	 eax, eax
  001b7	75 0f		 jne	 SHORT $LN50@DoShortcut
  001b9	8d 44 24 4c	 lea	 eax, DWORD PTR _szTmp2$[esp+860]
  001bd	50		 push	 eax
  001be	ff d6		 call	 esi
  001c0	85 c0		 test	 eax, eax
  001c2	0f 84 68 01 00
	00		 je	 $LN54@DoShortcut
$LN50@DoShortcut:

; 1345 : 		goto error;
; 1346 : 
; 1347 : 	snprintf (szTmp2, sizeof(szTmp2), "%s%s", szLinkDir, "\\Uninstall CipherShed.lnk");

  001c8	68 00 00 00 00	 push	 OFFSET ??_C@_0BK@EABHBBNJ@?2Uninstall?5CipherShed?4lnk?$AA@
  001cd	8d 8c 24 54 01
	00 00		 lea	 ecx, DWORD PTR _szLinkDir$[esp+864]
  001d4	51		 push	 ecx
  001d5	68 00 00 00 00	 push	 OFFSET ??_C@_04HDOCAJNK@?$CFs?$CFs?$AA@
  001da	8d 54 24 58	 lea	 edx, DWORD PTR _szTmp2$[esp+872]
  001de	68 04 01 00 00	 push	 260			; 00000104H
  001e3	52		 push	 edx
  001e4	e8 00 00 00 00	 call	 _sprintf_s
  001e9	83 c4 14	 add	 esp, 20			; 00000014H

; 1348 : 	RemoveMessage (hwndDlg, szTmp2);

  001ec	83 3d 00 00 00
	00 00		 cmp	 DWORD PTR _Rollback, 0
  001f3	75 13		 jne	 SHORT $LN34@DoShortcut
  001f5	8d 44 24 4c	 lea	 eax, DWORD PTR _szTmp2$[esp+860]
  001f9	50		 push	 eax
  001fa	68 00 00 00 00	 push	 OFFSET ??_C@_08GLIOLGPM@REMOVING?$AA@
  001ff	57		 push	 edi
  00200	e8 00 00 00 00	 call	 _StatusMessageParam
  00205	83 c4 0c	 add	 esp, 12			; 0000000cH
$LN34@DoShortcut:

; 1349 : 	if (StatDeleteFile (szTmp2) == FALSE)

  00208	8d 4c 24 14	 lea	 ecx, DWORD PTR _st$138475[esp+860]
  0020c	51		 push	 ecx
  0020d	8d 54 24 50	 lea	 edx, DWORD PTR _szTmp2$[esp+864]
  00211	52		 push	 edx
  00212	e8 00 00 00 00	 call	 __stat64
  00217	83 c4 08	 add	 esp, 8
  0021a	85 c0		 test	 eax, eax
  0021c	75 0f		 jne	 SHORT $LN51@DoShortcut
  0021e	8d 44 24 4c	 lea	 eax, DWORD PTR _szTmp2$[esp+860]
  00222	50		 push	 eax
  00223	ff d6		 call	 esi
  00225	85 c0		 test	 eax, eax
  00227	0f 84 03 01 00
	00		 je	 $LN54@DoShortcut
$LN51@DoShortcut:

; 1350 : 		goto error;
; 1351 : 	
; 1352 : 	snprintf (szTmp2, sizeof(szTmp2), "%s%s", szLinkDir, "\\CipherShed User's Guide.lnk");

  0022d	68 00 00 00 00	 push	 OFFSET ??_C@_0BN@DGJJNBJI@?2CipherShed?5User?8s?5Guide?4lnk?$AA@
  00232	8d 8c 24 54 01
	00 00		 lea	 ecx, DWORD PTR _szLinkDir$[esp+864]
  00239	51		 push	 ecx
  0023a	68 00 00 00 00	 push	 OFFSET ??_C@_04HDOCAJNK@?$CFs?$CFs?$AA@
  0023f	8d 54 24 58	 lea	 edx, DWORD PTR _szTmp2$[esp+872]
  00243	68 04 01 00 00	 push	 260			; 00000104H
  00248	52		 push	 edx
  00249	e8 00 00 00 00	 call	 _sprintf_s
  0024e	83 c4 14	 add	 esp, 20			; 00000014H

; 1353 : 	DeleteFile (szTmp2);

  00251	8d 44 24 4c	 lea	 eax, DWORD PTR _szTmp2$[esp+860]
  00255	50		 push	 eax
  00256	ff d6		 call	 esi

; 1354 : 
; 1355 : 	// Start menu group
; 1356 : 	RemoveMessage ((HWND) hwndDlg, szLinkDir);

  00258	83 3d 00 00 00
	00 00		 cmp	 DWORD PTR _Rollback, 0
  0025f	75 16		 jne	 SHORT $LN41@DoShortcut
  00261	8d 8c 24 50 01
	00 00		 lea	 ecx, DWORD PTR _szLinkDir$[esp+860]
  00268	51		 push	 ecx
  00269	68 00 00 00 00	 push	 OFFSET ??_C@_08GLIOLGPM@REMOVING?$AA@
  0026e	57		 push	 edi
  0026f	e8 00 00 00 00	 call	 _StatusMessageParam
  00274	83 c4 0c	 add	 esp, 12			; 0000000cH
$LN41@DoShortcut:

; 1357 : 	if (StatRemoveDirectory (szLinkDir))

  00277	8d 94 24 50 01
	00 00		 lea	 edx, DWORD PTR _szLinkDir$[esp+860]
  0027e	52		 push	 edx
  0027f	e8 00 00 00 00	 call	 _StatRemoveDirectory
  00284	8b 35 00 00 00
	00		 mov	 esi, DWORD PTR __imp__SHChangeNotify@16
  0028a	83 c4 04	 add	 esp, 4
  0028d	85 c0		 test	 eax, eax
  0028f	74 12		 je	 SHORT $LN6@DoShortcut

; 1358 : 		SHChangeNotify (SHCNE_RMDIR, SHCNF_PATH, szLinkDir, NULL);

  00291	6a 00		 push	 0
  00293	8d 84 24 54 01
	00 00		 lea	 eax, DWORD PTR _szLinkDir$[esp+864]
  0029a	50		 push	 eax
  0029b	6a 01		 push	 1
  0029d	6a 10		 push	 16			; 00000010H
  0029f	ff d6		 call	 esi

; 1359 : 	else

  002a1	eb 09		 jmp	 SHORT $LN5@DoShortcut
$LN6@DoShortcut:

; 1360 : 		handleWin32Error ((HWND) hwndDlg);

  002a3	57		 push	 edi
  002a4	e8 00 00 00 00	 call	 _handleWin32Error
  002a9	83 c4 04	 add	 esp, 4
$LN5@DoShortcut:

; 1361 : 
; 1362 : 	// Desktop icon
; 1363 : 	if (allUsers)
; 1364 : 		SHGetSpecialFolderPath (hwndDlg, szLinkDir, CSIDL_COMMON_DESKTOPDIRECTORY, 0);

  002ac	6a 00		 push	 0
  002ae	85 ed		 test	 ebp, ebp
  002b0	74 0c		 je	 SHORT $LN4@DoShortcut
  002b2	6a 19		 push	 25			; 00000019H
  002b4	8d 8c 24 58 01
	00 00		 lea	 ecx, DWORD PTR _szLinkDir$[esp+868]
  002bb	51		 push	 ecx

; 1365 : 	else

  002bc	eb 0a		 jmp	 SHORT $LN55@DoShortcut
$LN4@DoShortcut:

; 1366 : 		SHGetSpecialFolderPath (hwndDlg, szLinkDir, CSIDL_DESKTOPDIRECTORY, 0);

  002be	6a 10		 push	 16			; 00000010H
  002c0	8d 94 24 58 01
	00 00		 lea	 edx, DWORD PTR _szLinkDir$[esp+868]
  002c7	52		 push	 edx
$LN55@DoShortcut:
  002c8	57		 push	 edi
  002c9	ff d3		 call	 ebx

; 1367 : 
; 1368 : 	snprintf (szTmp2, sizeof(szTmp2), "%s%s", szLinkDir, "\\CipherShed.lnk");

  002cb	68 00 00 00 00	 push	 OFFSET ??_C@_0BA@LNMKCON@?2CipherShed?4lnk?$AA@
  002d0	8d 84 24 54 01
	00 00		 lea	 eax, DWORD PTR _szLinkDir$[esp+864]
  002d7	50		 push	 eax
  002d8	68 00 00 00 00	 push	 OFFSET ??_C@_04HDOCAJNK@?$CFs?$CFs?$AA@
  002dd	8d 4c 24 58	 lea	 ecx, DWORD PTR _szTmp2$[esp+872]
  002e1	68 04 01 00 00	 push	 260			; 00000104H
  002e6	51		 push	 ecx
  002e7	e8 00 00 00 00	 call	 _sprintf_s
  002ec	83 c4 14	 add	 esp, 20			; 00000014H

; 1369 : 
; 1370 : 	RemoveMessage (hwndDlg, szTmp2);

  002ef	83 3d 00 00 00
	00 00		 cmp	 DWORD PTR _Rollback, 0
  002f6	75 13		 jne	 SHORT $LN44@DoShortcut
  002f8	8d 54 24 4c	 lea	 edx, DWORD PTR _szTmp2$[esp+860]
  002fc	52		 push	 edx
  002fd	68 00 00 00 00	 push	 OFFSET ??_C@_08GLIOLGPM@REMOVING?$AA@
  00302	57		 push	 edi
  00303	e8 00 00 00 00	 call	 _StatusMessageParam
  00308	83 c4 0c	 add	 esp, 12			; 0000000cH
$LN44@DoShortcut:

; 1371 : 	if (StatDeleteFile (szTmp2) == FALSE)

  0030b	8d 44 24 4c	 lea	 eax, DWORD PTR _szTmp2$[esp+860]
  0030f	50		 push	 eax
  00310	e8 00 00 00 00	 call	 _StatDeleteFile
  00315	83 c4 04	 add	 esp, 4
  00318	85 c0		 test	 eax, eax
  0031a	74 14		 je	 SHORT $LN54@DoShortcut

; 1372 : 		goto error;
; 1373 : 
; 1374 : 	SHChangeNotify (SHCNE_DELETE, SHCNF_PATH, szTmp2, NULL);

  0031c	6a 00		 push	 0
  0031e	8d 4c 24 50	 lea	 ecx, DWORD PTR _szTmp2$[esp+864]
  00322	51		 push	 ecx
  00323	6a 01		 push	 1
  00325	6a 04		 push	 4
  00327	ff d6		 call	 esi

; 1375 : 
; 1376 : 	bOK = TRUE;

  00329	be 01 00 00 00	 mov	 esi, 1
  0032e	eb 04		 jmp	 SHORT $error$134647
$LN54@DoShortcut:
  00330	8b 74 24 10	 mov	 esi, DWORD PTR _bOK$[esp+860]
$error$134647:

; 1377 : 
; 1378 : error:
; 1379 : 	OleUninitialize ();

  00334	ff 15 00 00 00
	00		 call	 DWORD PTR __imp__OleUninitialize@0

; 1380 : 
; 1381 : 	return bOK;
; 1382 : }

  0033a	8b 8c 24 58 03
	00 00		 mov	 ecx, DWORD PTR __$ArrayPad$[esp+860]
  00341	5f		 pop	 edi
  00342	8b c6		 mov	 eax, esi
  00344	5e		 pop	 esi
  00345	5d		 pop	 ebp
  00346	5b		 pop	 ebx
  00347	33 cc		 xor	 ecx, esp
  00349	e8 00 00 00 00	 call	 @__security_check_cookie@4
  0034e	81 c4 4c 03 00
	00		 add	 esp, 844		; 0000034cH
  00354	c3		 ret	 0
_DoShortcutsUninstall ENDP
_TEXT	ENDS
PUBLIC	??_C@_0BM@LNFOIEOO@?2TrueCrypt?5User?8s?5Guide?4lnk?$AA@ ; `string'
PUBLIC	??_C@_0BJ@PKBPEMBD@?2Uninstall?5TrueCrypt?4lnk?$AA@ ; `string'
PUBLIC	??_C@_0BH@CJOJHCCA@?2TrueCrypt?5Website?4url?$AA@ ; `string'
PUBLIC	??_C@_0P@DFHIDPDG@?2TrueCrypt?4lnk?$AA@		; `string'
PUBLIC	__$ArrayPad$
PUBLIC	_DoTrueCryptShortcutsUninstall
;	COMDAT ??_C@_0BM@LNFOIEOO@?2TrueCrypt?5User?8s?5Guide?4lnk?$AA@
CONST	SEGMENT
??_C@_0BM@LNFOIEOO@?2TrueCrypt?5User?8s?5Guide?4lnk?$AA@ DB '\TrueCrypt U'
	DB	'ser''s Guide.lnk', 00H			; `string'
CONST	ENDS
;	COMDAT ??_C@_0BJ@PKBPEMBD@?2Uninstall?5TrueCrypt?4lnk?$AA@
CONST	SEGMENT
??_C@_0BJ@PKBPEMBD@?2Uninstall?5TrueCrypt?4lnk?$AA@ DB '\Uninstall TrueCr'
	DB	'ypt.lnk', 00H				; `string'
CONST	ENDS
;	COMDAT ??_C@_0BH@CJOJHCCA@?2TrueCrypt?5Website?4url?$AA@
CONST	SEGMENT
??_C@_0BH@CJOJHCCA@?2TrueCrypt?5Website?4url?$AA@ DB '\TrueCrypt Website.'
	DB	'url', 00H					; `string'
CONST	ENDS
;	COMDAT ??_C@_0P@DFHIDPDG@?2TrueCrypt?4lnk?$AA@
CONST	SEGMENT
??_C@_0P@DFHIDPDG@?2TrueCrypt?4lnk?$AA@ DB '\TrueCrypt.lnk', 00H ; `string'
; Function compile flags: /Ogtpy
CONST	ENDS
;	COMDAT _DoTrueCryptShortcutsUninstall
_TEXT	SEGMENT
_bOK$ = -844						; size = 4
_st$138530 = -840					; size = 56
_st$138519 = -840					; size = 56
_st$138508 = -840					; size = 56
_st$134678 = -840					; size = 48
_szTmp2$ = -784						; size = 260
_szLinkDir$ = -524					; size = 260
_path$134679 = -264					; size = 260
__$ArrayPad$ = -4					; size = 4
_hwndDlg$ = 8						; size = 4
_szDestDir$ = 12					; size = 4
_DoTrueCryptShortcutsUninstall PROC			; COMDAT

; 1388 : {

  00000	81 ec 4c 03 00
	00		 sub	 esp, 844		; 0000034cH
  00006	a1 00 00 00 00	 mov	 eax, DWORD PTR ___security_cookie
  0000b	33 c4		 xor	 eax, esp
  0000d	89 84 24 48 03
	00 00		 mov	 DWORD PTR __$ArrayPad$[esp+844], eax
  00014	53		 push	 ebx
  00015	55		 push	 ebp
  00016	56		 push	 esi
  00017	57		 push	 edi
  00018	8b bc 24 60 03
	00 00		 mov	 edi, DWORD PTR _hwndDlg$[esp+856]

; 1389 : 	char szLinkDir[TC_MAX_PATH];
; 1390 : 	char szTmp2[TC_MAX_PATH];
; 1391 : 	BOOL bSlash, bOK = FALSE;
; 1392 : 	HRESULT hOle;
; 1393 : 	int x;
; 1394 : 	BOOL allUsers = FALSE;

  0001f	33 ed		 xor	 ebp, ebp

; 1395 : 
; 1396 : 	hOle = OleInitialize (NULL);

  00021	55		 push	 ebp
  00022	c7 44 24 14 00
	00 00 00	 mov	 DWORD PTR _bOK$[esp+864], 0
  0002a	ff 15 00 00 00
	00		 call	 DWORD PTR __imp__OleInitialize@4

; 1397 : 
; 1398 : 	// User start menu
; 1399 : 	SHGetSpecialFolderPath (hwndDlg, szLinkDir, CSIDL_PROGRAMS, 0);

  00030	8b 1d 00 00 00
	00		 mov	 ebx, DWORD PTR __imp__SHGetSpecialFolderPathA@16
  00036	55		 push	 ebp
  00037	6a 02		 push	 2
  00039	8d 84 24 58 01
	00 00		 lea	 eax, DWORD PTR _szLinkDir$[esp+868]
  00040	50		 push	 eax
  00041	57		 push	 edi
  00042	ff d3		 call	 ebx

; 1400 : 	x = strlen (szLinkDir);

  00044	8d 84 24 50 01
	00 00		 lea	 eax, DWORD PTR _szLinkDir$[esp+860]
  0004b	8d 50 01	 lea	 edx, DWORD PTR [eax+1]
  0004e	8b ff		 npad	 2
$LL52@DoTrueCryp@2:
  00050	8a 08		 mov	 cl, BYTE PTR [eax]
  00052	40		 inc	 eax
  00053	84 c9		 test	 cl, cl
  00055	75 f9		 jne	 SHORT $LL52@DoTrueCryp@2
  00057	2b c2		 sub	 eax, edx

; 1401 : 	if (szLinkDir[x - 1] == '\\')

  00059	80 bc 04 4f 01
	00 00 5c	 cmp	 BYTE PTR _szLinkDir$[esp+eax+859], 92 ; 0000005cH
  00061	74 1a		 je	 SHORT $LN53@DoTrueCryp@2

; 1402 : 		bSlash = TRUE;
; 1403 : 	else
; 1404 : 		bSlash = FALSE;
; 1405 : 
; 1406 : 	if (bSlash == FALSE)
; 1407 : 		strcat_s (szLinkDir, sizeof(szLinkDir), "\\");

  00063	68 00 00 00 00	 push	 OFFSET ??_C@_01KICIPPFI@?2?$AA@
  00068	8d 8c 24 54 01
	00 00		 lea	 ecx, DWORD PTR _szLinkDir$[esp+864]
  0006f	68 04 01 00 00	 push	 260			; 00000104H
  00074	51		 push	 ecx
  00075	e8 00 00 00 00	 call	 _strcat_s
  0007a	83 c4 0c	 add	 esp, 12			; 0000000cH
$LN53@DoTrueCryp@2:

; 1408 : 
; 1409 : 	strcat_s (szLinkDir, sizeof(szLinkDir), "TrueCrypt");

  0007d	68 00 00 00 00	 push	 OFFSET ??_C@_09EMKKFGIH@TrueCrypt?$AA@
  00082	8d 94 24 54 01
	00 00		 lea	 edx, DWORD PTR _szLinkDir$[esp+864]
  00089	68 04 01 00 00	 push	 260			; 00000104H
  0008e	52		 push	 edx
  0008f	e8 00 00 00 00	 call	 _strcat_s
  00094	83 c4 0c	 add	 esp, 12			; 0000000cH

; 1410 : 
; 1411 : 	// Global start menu
; 1412 : 	{
; 1413 : 		struct _stat st;
; 1414 : 		char path[TC_MAX_PATH];
; 1415 : 
; 1416 : 		SHGetSpecialFolderPath (hwndDlg, path, CSIDL_COMMON_PROGRAMS, 0);

  00097	6a 00		 push	 0
  00099	6a 17		 push	 23			; 00000017H
  0009b	8d 84 24 5c 02
	00 00		 lea	 eax, DWORD PTR _path$134679[esp+868]
  000a2	50		 push	 eax
  000a3	57		 push	 edi
  000a4	ff d3		 call	 ebx

; 1417 : 		strcat_s (path, sizeof(path), "\\TrueCrypt");

  000a6	68 00 00 00 00	 push	 OFFSET ??_C@_0L@LGADMAPO@?2TrueCrypt?$AA@
  000ab	8d 8c 24 58 02
	00 00		 lea	 ecx, DWORD PTR _path$134679[esp+864]
  000b2	68 04 01 00 00	 push	 260			; 00000104H
  000b7	51		 push	 ecx
  000b8	e8 00 00 00 00	 call	 _strcat_s

; 1418 : 
; 1419 : 		if (_stat (path, &st) == 0)

  000bd	8d 54 24 20	 lea	 edx, DWORD PTR _st$134678[esp+872]
  000c1	52		 push	 edx
  000c2	8d 84 24 64 02
	00 00		 lea	 eax, DWORD PTR _path$134679[esp+876]
  000c9	50		 push	 eax
  000ca	e8 00 00 00 00	 call	 __stat64i32
  000cf	83 c4 14	 add	 esp, 20			; 00000014H
  000d2	85 c0		 test	 eax, eax
  000d4	75 22		 jne	 SHORT $LN13@DoTrueCryp@2
  000d6	eb 08 8d a4 24
	00 00 00 00 90	 npad	 10
$LL19@DoTrueCryp@2:

; 1420 : 		{
; 1421 : 			strcpy (szLinkDir, path);

  000e0	8a 8c 04 54 02
	00 00		 mov	 cl, BYTE PTR _path$134679[esp+eax+860]
  000e7	88 8c 04 50 01
	00 00		 mov	 BYTE PTR _szLinkDir$[esp+eax+860], cl
  000ee	40		 inc	 eax
  000ef	84 c9		 test	 cl, cl
  000f1	75 ed		 jne	 SHORT $LL19@DoTrueCryp@2

; 1422 : 			allUsers = TRUE;

  000f3	bd 01 00 00 00	 mov	 ebp, 1
$LN13@DoTrueCryp@2:

; 1423 : 		}
; 1424 : 	}
; 1425 : 
; 1426 : 	// Start menu entries
; 1427 : 	snprintf (szTmp2, sizeof(szTmp2), "%s%s", szLinkDir, "\\TrueCrypt.lnk");

  000f8	68 00 00 00 00	 push	 OFFSET ??_C@_0P@DFHIDPDG@?2TrueCrypt?4lnk?$AA@
  000fd	8d 8c 24 54 01
	00 00		 lea	 ecx, DWORD PTR _szLinkDir$[esp+864]
  00104	51		 push	 ecx
  00105	68 00 00 00 00	 push	 OFFSET ??_C@_04HDOCAJNK@?$CFs?$CFs?$AA@
  0010a	8d 54 24 58	 lea	 edx, DWORD PTR _szTmp2$[esp+872]
  0010e	68 04 01 00 00	 push	 260			; 00000104H
  00113	52		 push	 edx
  00114	e8 00 00 00 00	 call	 _sprintf_s
  00119	83 c4 14	 add	 esp, 20			; 00000014H

; 1428 : 	RemoveMessage (hwndDlg, szTmp2);

  0011c	83 3d 00 00 00
	00 00		 cmp	 DWORD PTR _Rollback, 0
  00123	75 13		 jne	 SHORT $LN20@DoTrueCryp@2
  00125	8d 44 24 4c	 lea	 eax, DWORD PTR _szTmp2$[esp+860]
  00129	50		 push	 eax
  0012a	68 00 00 00 00	 push	 OFFSET ??_C@_08GLIOLGPM@REMOVING?$AA@
  0012f	57		 push	 edi
  00130	e8 00 00 00 00	 call	 _StatusMessageParam
  00135	83 c4 0c	 add	 esp, 12			; 0000000cH
$LN20@DoTrueCryp@2:

; 1429 : 	if (StatDeleteFile (szTmp2) == FALSE)

  00138	8d 4c 24 14	 lea	 ecx, DWORD PTR _st$138508[esp+860]
  0013c	51		 push	 ecx
  0013d	8d 54 24 50	 lea	 edx, DWORD PTR _szTmp2$[esp+864]
  00141	52		 push	 edx
  00142	e8 00 00 00 00	 call	 __stat64
  00147	8b 35 00 00 00
	00		 mov	 esi, DWORD PTR __imp__DeleteFileA@4
  0014d	83 c4 08	 add	 esp, 8
  00150	85 c0		 test	 eax, eax
  00152	75 0f		 jne	 SHORT $LN49@DoTrueCryp@2
  00154	8d 44 24 4c	 lea	 eax, DWORD PTR _szTmp2$[esp+860]
  00158	50		 push	 eax
  00159	ff d6		 call	 esi
  0015b	85 c0		 test	 eax, eax
  0015d	0f 84 cd 01 00
	00		 je	 $LN54@DoTrueCryp@2
$LN49@DoTrueCryp@2:

; 1430 : 		goto error;
; 1431 : 
; 1432 : 	snprintf (szTmp2, sizeof(szTmp2), "%s%s", szLinkDir, "\\TrueCrypt Website.url");

  00163	68 00 00 00 00	 push	 OFFSET ??_C@_0BH@CJOJHCCA@?2TrueCrypt?5Website?4url?$AA@
  00168	8d 8c 24 54 01
	00 00		 lea	 ecx, DWORD PTR _szLinkDir$[esp+864]
  0016f	51		 push	 ecx
  00170	68 00 00 00 00	 push	 OFFSET ??_C@_04HDOCAJNK@?$CFs?$CFs?$AA@
  00175	8d 54 24 58	 lea	 edx, DWORD PTR _szTmp2$[esp+872]
  00179	68 04 01 00 00	 push	 260			; 00000104H
  0017e	52		 push	 edx
  0017f	e8 00 00 00 00	 call	 _sprintf_s
  00184	83 c4 14	 add	 esp, 20			; 00000014H

; 1433 : 	RemoveMessage (hwndDlg, szTmp2);

  00187	83 3d 00 00 00
	00 00		 cmp	 DWORD PTR _Rollback, 0
  0018e	75 13		 jne	 SHORT $LN27@DoTrueCryp@2
  00190	8d 44 24 4c	 lea	 eax, DWORD PTR _szTmp2$[esp+860]
  00194	50		 push	 eax
  00195	68 00 00 00 00	 push	 OFFSET ??_C@_08GLIOLGPM@REMOVING?$AA@
  0019a	57		 push	 edi
  0019b	e8 00 00 00 00	 call	 _StatusMessageParam
  001a0	83 c4 0c	 add	 esp, 12			; 0000000cH
$LN27@DoTrueCryp@2:

; 1434 : 	if (StatDeleteFile (szTmp2) == FALSE)

  001a3	8d 4c 24 14	 lea	 ecx, DWORD PTR _st$138519[esp+860]
  001a7	51		 push	 ecx
  001a8	8d 54 24 50	 lea	 edx, DWORD PTR _szTmp2$[esp+864]
  001ac	52		 push	 edx
  001ad	e8 00 00 00 00	 call	 __stat64
  001b2	83 c4 08	 add	 esp, 8
  001b5	85 c0		 test	 eax, eax
  001b7	75 0f		 jne	 SHORT $LN50@DoTrueCryp@2
  001b9	8d 44 24 4c	 lea	 eax, DWORD PTR _szTmp2$[esp+860]
  001bd	50		 push	 eax
  001be	ff d6		 call	 esi
  001c0	85 c0		 test	 eax, eax
  001c2	0f 84 68 01 00
	00		 je	 $LN54@DoTrueCryp@2
$LN50@DoTrueCryp@2:

; 1435 : 		goto error;
; 1436 : 
; 1437 : 	snprintf (szTmp2, sizeof(szTmp2), "%s%s", szLinkDir, "\\Uninstall TrueCrypt.lnk");

  001c8	68 00 00 00 00	 push	 OFFSET ??_C@_0BJ@PKBPEMBD@?2Uninstall?5TrueCrypt?4lnk?$AA@
  001cd	8d 8c 24 54 01
	00 00		 lea	 ecx, DWORD PTR _szLinkDir$[esp+864]
  001d4	51		 push	 ecx
  001d5	68 00 00 00 00	 push	 OFFSET ??_C@_04HDOCAJNK@?$CFs?$CFs?$AA@
  001da	8d 54 24 58	 lea	 edx, DWORD PTR _szTmp2$[esp+872]
  001de	68 04 01 00 00	 push	 260			; 00000104H
  001e3	52		 push	 edx
  001e4	e8 00 00 00 00	 call	 _sprintf_s
  001e9	83 c4 14	 add	 esp, 20			; 00000014H

; 1438 : 	RemoveMessage (hwndDlg, szTmp2);

  001ec	83 3d 00 00 00
	00 00		 cmp	 DWORD PTR _Rollback, 0
  001f3	75 13		 jne	 SHORT $LN34@DoTrueCryp@2
  001f5	8d 44 24 4c	 lea	 eax, DWORD PTR _szTmp2$[esp+860]
  001f9	50		 push	 eax
  001fa	68 00 00 00 00	 push	 OFFSET ??_C@_08GLIOLGPM@REMOVING?$AA@
  001ff	57		 push	 edi
  00200	e8 00 00 00 00	 call	 _StatusMessageParam
  00205	83 c4 0c	 add	 esp, 12			; 0000000cH
$LN34@DoTrueCryp@2:

; 1439 : 	if (StatDeleteFile (szTmp2) == FALSE)

  00208	8d 4c 24 14	 lea	 ecx, DWORD PTR _st$138530[esp+860]
  0020c	51		 push	 ecx
  0020d	8d 54 24 50	 lea	 edx, DWORD PTR _szTmp2$[esp+864]
  00211	52		 push	 edx
  00212	e8 00 00 00 00	 call	 __stat64
  00217	83 c4 08	 add	 esp, 8
  0021a	85 c0		 test	 eax, eax
  0021c	75 0f		 jne	 SHORT $LN51@DoTrueCryp@2
  0021e	8d 44 24 4c	 lea	 eax, DWORD PTR _szTmp2$[esp+860]
  00222	50		 push	 eax
  00223	ff d6		 call	 esi
  00225	85 c0		 test	 eax, eax
  00227	0f 84 03 01 00
	00		 je	 $LN54@DoTrueCryp@2
$LN51@DoTrueCryp@2:

; 1440 : 		goto error;
; 1441 : 	
; 1442 : 	snprintf (szTmp2, sizeof(szTmp2), "%s%s", szLinkDir, "\\TrueCrypt User's Guide.lnk");

  0022d	68 00 00 00 00	 push	 OFFSET ??_C@_0BM@LNFOIEOO@?2TrueCrypt?5User?8s?5Guide?4lnk?$AA@
  00232	8d 8c 24 54 01
	00 00		 lea	 ecx, DWORD PTR _szLinkDir$[esp+864]
  00239	51		 push	 ecx
  0023a	68 00 00 00 00	 push	 OFFSET ??_C@_04HDOCAJNK@?$CFs?$CFs?$AA@
  0023f	8d 54 24 58	 lea	 edx, DWORD PTR _szTmp2$[esp+872]
  00243	68 04 01 00 00	 push	 260			; 00000104H
  00248	52		 push	 edx
  00249	e8 00 00 00 00	 call	 _sprintf_s
  0024e	83 c4 14	 add	 esp, 20			; 00000014H

; 1443 : 	DeleteFile (szTmp2);

  00251	8d 44 24 4c	 lea	 eax, DWORD PTR _szTmp2$[esp+860]
  00255	50		 push	 eax
  00256	ff d6		 call	 esi

; 1444 : 
; 1445 : 	// Start menu group
; 1446 : 	RemoveMessage ((HWND) hwndDlg, szLinkDir);

  00258	83 3d 00 00 00
	00 00		 cmp	 DWORD PTR _Rollback, 0
  0025f	75 16		 jne	 SHORT $LN41@DoTrueCryp@2
  00261	8d 8c 24 50 01
	00 00		 lea	 ecx, DWORD PTR _szLinkDir$[esp+860]
  00268	51		 push	 ecx
  00269	68 00 00 00 00	 push	 OFFSET ??_C@_08GLIOLGPM@REMOVING?$AA@
  0026e	57		 push	 edi
  0026f	e8 00 00 00 00	 call	 _StatusMessageParam
  00274	83 c4 0c	 add	 esp, 12			; 0000000cH
$LN41@DoTrueCryp@2:

; 1447 : 	if (StatRemoveDirectory (szLinkDir))

  00277	8d 94 24 50 01
	00 00		 lea	 edx, DWORD PTR _szLinkDir$[esp+860]
  0027e	52		 push	 edx
  0027f	e8 00 00 00 00	 call	 _StatRemoveDirectory
  00284	8b 35 00 00 00
	00		 mov	 esi, DWORD PTR __imp__SHChangeNotify@16
  0028a	83 c4 04	 add	 esp, 4
  0028d	85 c0		 test	 eax, eax
  0028f	74 12		 je	 SHORT $LN6@DoTrueCryp@2

; 1448 : 		SHChangeNotify (SHCNE_RMDIR, SHCNF_PATH, szLinkDir, NULL);

  00291	6a 00		 push	 0
  00293	8d 84 24 54 01
	00 00		 lea	 eax, DWORD PTR _szLinkDir$[esp+864]
  0029a	50		 push	 eax
  0029b	6a 01		 push	 1
  0029d	6a 10		 push	 16			; 00000010H
  0029f	ff d6		 call	 esi

; 1449 : 	else

  002a1	eb 09		 jmp	 SHORT $LN5@DoTrueCryp@2
$LN6@DoTrueCryp@2:

; 1450 : 		handleWin32Error ((HWND) hwndDlg);

  002a3	57		 push	 edi
  002a4	e8 00 00 00 00	 call	 _handleWin32Error
  002a9	83 c4 04	 add	 esp, 4
$LN5@DoTrueCryp@2:

; 1451 : 
; 1452 : 	// Desktop icon
; 1453 : 	if (allUsers)
; 1454 : 		SHGetSpecialFolderPath (hwndDlg, szLinkDir, CSIDL_COMMON_DESKTOPDIRECTORY, 0);

  002ac	6a 00		 push	 0
  002ae	85 ed		 test	 ebp, ebp
  002b0	74 0c		 je	 SHORT $LN4@DoTrueCryp@2
  002b2	6a 19		 push	 25			; 00000019H
  002b4	8d 8c 24 58 01
	00 00		 lea	 ecx, DWORD PTR _szLinkDir$[esp+868]
  002bb	51		 push	 ecx

; 1455 : 	else

  002bc	eb 0a		 jmp	 SHORT $LN55@DoTrueCryp@2
$LN4@DoTrueCryp@2:

; 1456 : 		SHGetSpecialFolderPath (hwndDlg, szLinkDir, CSIDL_DESKTOPDIRECTORY, 0);

