 CipherShedSetup

 Timestamp is 54e87d4c (Sat Feb 21 12:42:52 2015)

 Preferred load address is 00400000

 Start         Length     Name                   Class
 0001:00000000 0003ffaeH .text                   CODE
 0001:0003ffb0 00001848H .text$x                 CODE
 0001:00041800 000000d0H .text$yc                CODE
 0001:000418d0 000000caH .text$yd                CODE
 0002:00000000 00000494H .idata$5                DATA
 0002:00000494 00000004H .CRT$XCA                DATA
 0002:00000498 0000000cH .CRT$XCC                DATA
 0002:000004a4 00000014H .CRT$XCU                DATA
 0002:000004b8 00000004H .CRT$XCZ                DATA
 0002:000004bc 00000004H .CRT$XIA                DATA
 0002:000004c0 00000014H .CRT$XIC                DATA
 0002:000004d4 00000004H .CRT$XID                DATA
 0002:000004d8 00000004H .CRT$XIY                DATA
 0002:000004dc 00000004H .CRT$XIZ                DATA
 0002:000004e0 00000004H .CRT$XPA                DATA
 0002:000004e4 00000004H .CRT$XPX                DATA
 0002:000004e8 00000004H .CRT$XPXA               DATA
 0002:000004ec 00000004H .CRT$XPZ                DATA
 0002:000004f0 00000004H .CRT$XTA                DATA
 0002:000004f4 00000004H .CRT$XTZ                DATA
 0002:00000500 00006858H .rdata                  DATA
 0002:00006d58 00000e60H .rdata$r                DATA
 0002:00007bc0 0000017cH .rdata$sxdata           DATA
 0002:00007d3c 00000004H .rtc$IAA                DATA
 0002:00007d40 00000004H .rtc$IZZ                DATA
 0002:00007d44 00000004H .rtc$TAA                DATA
 0002:00007d48 00000004H .rtc$TZZ                DATA
 0002:00007d50 000027b4H .xdata$x                DATA
 0002:0000a504 00000000H ATL$__a                 DATA
 0002:0000a504 00000000H ATL$__z                 DATA
 0002:0000a504 000000c8H .idata$2                DATA
 0002:0000a5cc 00000014H .idata$3                DATA
 0002:0000a5e0 00000494H .idata$4                DATA
 0002:0000aa74 000013d6H .idata$6                DATA
 0002:0000be4a 00000000H .edata                  DATA
 0003:00000000 0000234cH .data                   DATA
 0003:00002360 0002be18H .bss                    DATA
 0004:00000000 00000f4cH .rsrc$01                DATA
 0004:00000f50 000b3168H .rsrc$02                DATA

  Address         Publics by Value              Rva+Base       Lib:Object

 0000:00000000       __except_list              00000000     <absolute>
 0000:0000005f       ___safe_se_handler_count   0000005f     <absolute>
 0000:00000000       ___ImageBase               00400000     <linker-defined>
 0001:00000000       ??$AtlMultiply@H@ATL@@YAJPAHHH@Z 00401000 f i ComSetup.obj
 0001:00000030       ?AtlA2WHelper@@YGPA_WPA_WPBDHI@Z 00401030 f i ComSetup.obj
 0001:00000070       ?AtlW2AHelper@@YGPADPADPB_WHI@Z 00401070 f i ComSetup.obj
 0001:000000b0       ?AtlThrowImpl@ATL@@YGXJ@Z  004010b0 f i ComSetup.obj
 0001:000000d0       ?AtlCrtErrorCheck@ATL@@YAHH@Z 004010d0 f i ComSetup.obj
 0001:00000170       ?memcpy_s@Checked@ATL@@YAXPAXIPBXI@Z 00401170 f i ComSetup.obj
 0001:000001a0       ?Init@CComCriticalSection@ATL@@QAEJXZ 004011a0 f i ComSetup.obj
 0001:00000220       ?AtlHresultFromLastError@ATL@@YAJXZ 00401220 f i ComSetup.obj
 0001:00000240       ?AtlHresultFromWin32@ATL@@YAJK@Z 00401240 f i ComSetup.obj
 0001:00000260       ?DeleteSubKey@CRegKey@ATL@@QAEJPBD@Z 00401260 f i ComSetup.obj
 0001:000002c0       ?Open@CRegKey@ATL@@QAEJPAUHKEY__@@PBDK@Z 004012c0 f i ComSetup.obj
 0001:00000320       ?SetDWORDValue@CRegKey@ATL@@QAEJPBDK@Z 00401320 f i ComSetup.obj
 0001:00000340       ?SetStringValue@CRegKey@ATL@@QAEJPBD0K@Z 00401340 f i ComSetup.obj
 0001:00000380       ?SetMultiStringValue@CRegKey@ATL@@QAEJPBD0@Z 00401380 f i ComSetup.obj
 0001:000003d0       ??0CParseBuffer@CRegParser@ATL@@QAE@H@Z 004013d0 f i ComSetup.obj
 0001:00000410       ??1CParseBuffer@CRegParser@ATL@@QAE@XZ 00401410 f i ComSetup.obj
 0001:00000420       ?Append@CParseBuffer@CRegParser@ATL@@QAEHPBDH@Z 00401420 f i ComSetup.obj
 0001:000004c0       ?AddChar@CParseBuffer@CRegParser@ATL@@QAEHPBD@Z 004014c0 f i ComSetup.obj
 0001:000004e0       ?VTFromRegType@CRegParser@ATL@@KAHPBDAAG@Z 004014e0 f i ComSetup.obj
 0001:00000590       ?ChToByte@CRegParser@ATL@@KAED@Z 00401590 f i ComSetup.obj
 0001:00000600       ?StrChrA@CRegParser@ATL@@KAPADPADD@Z 00401600 f i ComSetup.obj
 0001:00000640       ?SkipWhiteSpace@CRegParser@ATL@@IAEXXZ 00401640 f i ComSetup.obj
 0001:000006a0       ?NextToken@CRegParser@ATL@@IAEJPAD@Z 004016a0 f i ComSetup.obj
 0001:000007d0       ?CanForceRemoveKey@CRegParser@ATL@@IAEHPBD@Z 004017d0 f i ComSetup.obj
 0001:00000810       ?HasSubKeys@CRegParser@ATL@@IAEHPAUHKEY__@@@Z 00401810 f i ComSetup.obj
 0001:00000860       ?SkipAssignment@CRegParser@ATL@@IAEJPAD@Z 00401860 f i ComSetup.obj
 0001:000008d0       ??1?$CAtlSafeAllocBufferManager@VCCRTAllocator@ATL@@@_ATL_SAFE_ALLOCA_IMPL@ATL@@QAE@XZ 004018d0 f i ComSetup.obj
 0001:000008f0       ?FindKey@?$CSimpleMap@PADPA_WVCExpansionVectorEqualHelper@ATL@@@ATL@@QBEHABQAD@Z 004018f0 f i ComSetup.obj
 0001:00000930       ?FreeHeap@?$CTempBuffer@D$0EAA@VCCRTAllocator@ATL@@@ATL@@AAEXXZ 00401930 f i ComSetup.obj
 0001:00000930       ?FreeHeap@?$CTempBuffer@D$0BAA@VCCRTAllocator@ATL@@@ATL@@AAEXXZ 00401930 f i ComSetup.obj
 0001:00000930       ?FreeHeap@?$CTempBuffer@E$0BAA@VCCRTAllocator@ATL@@@ATL@@AAEXXZ 00401930 f i ComSetup.obj
 0001:00000940       ?AllocateHeap@?$CTempBuffer@E$0BAA@VCCRTAllocator@ATL@@@ATL@@AAEXI@Z 00401940 f i ComSetup.obj
 0001:00000940       ?AllocateHeap@?$CTempBuffer@D$0BAA@VCCRTAllocator@ATL@@@ATL@@AAEXI@Z 00401940 f i ComSetup.obj
 0001:00000940       ?AllocateHeap@?$CTempBuffer@D$0EAA@VCCRTAllocator@ATL@@@ATL@@AAEXI@Z 00401940 f i ComSetup.obj
 0001:00000970       ??$AtlAdd@K@ATL@@YAJPAKKK@Z 00401970 f i ComSetup.obj
 0001:000009a0       ?_AtlVerifyStackAvailable@_ATL_SAFE_ALLOCA_IMPL@ATL@@YA_NK@Z 004019a0 f i ComSetup.obj
 0001:00000a60       ??1CRegKey@ATL@@QAE@XZ     00401a60 f i ComSetup.obj
 0001:00000a80       ?RecurseDeleteKey@CRegKey@ATL@@QAEJPBD@Z 00401a80 f i ComSetup.obj
 0001:00000c10       ?ClearReplacements@CExpansionVector@ATL@@QAEJXZ 00401c10 f i ComSetup.obj
 0001:00000ca0       ?ClearReplacements@CRegObject@ATL@@UAGJXZ 00401ca0 f i ComSetup.obj
 0001:00000cd0       ??_G_com_error@@UAEPAXI@Z  00401cd0 f i ComSetup.obj
 0001:00000cd0       ??_E_com_error@@UAEPAXI@Z  00401cd0 f i ComSetup.obj
 0001:00000d10       ?ErrorMessage@_com_error@@QBEPBDXZ 00401d10 f i ComSetup.obj
 0001:00000de0       ?Allocate@?$CAtlSafeAllocBufferManager@VCCRTAllocator@ATL@@@_ATL_SAFE_ALLOCA_IMPL@ATL@@QAEPAXK@Z 00401de0 f i ComSetup.obj
 0001:00000e20       ??1?$CAutoVectorPtr@D@ATL@@QAE@XZ 00401e20 f i ComSetup.obj
 0001:00000e20       ??1?$CAutoVectorPtr@_W@ATL@@QAE@XZ 00401e20 f i ComSetup.obj
 0001:00000e40       ??1?$CTempBuffer@D$0BAA@VCCRTAllocator@ATL@@@ATL@@QAE@XZ 00401e40 f i ComSetup.obj
 0001:00000e40       ??1?$CTempBuffer@E$0BAA@VCCRTAllocator@ATL@@@ATL@@QAE@XZ 00401e40 f i ComSetup.obj
 0001:00000e40       ??1?$CTempBuffer@D$0EAA@VCCRTAllocator@ATL@@@ATL@@QAE@XZ 00401e40 f i ComSetup.obj
 0001:00000e50       ?AddString@CParseBuffer@CRegParser@ATL@@QAEHPB_W@Z 00401e50 f i ComSetup.obj
 0001:00000f60       ??1CRegObject@ATL@@UAE@XZ  00401f60 f i ComSetup.obj
 0001:00000fd0       ?QueryInterface@CRegObject@ATL@@UAGJABU_GUID@@PAPAX@Z 00401fd0 f i ComSetup.obj
 0001:00000fe0       ?AddRef@CRegObject@ATL@@UAGKXZ 00401fe0 f i ComSetup.obj
 0001:00000ff0       ?Release@CRegObject@ATL@@UAGKXZ 00401ff0 f i ComSetup.obj
 0001:00001000       ??_ECRegObject@ATL@@UAEPAXI@Z 00402000 f i ComSetup.obj
 0001:00001000       ??_GCRegObject@ATL@@UAEPAXI@Z 00402000 f i ComSetup.obj
 0001:00001020       ?StrFromMap@CRegObject@ATL@@QAEPB_WPAD@Z 00402020 f i ComSetup.obj
 0001:00001090       ?PreProcessBuffer@CRegParser@ATL@@QAEJPADPAPAD@Z 00402090 f i ComSetup.obj
 0001:00001360       ?Add@?$CSimpleMap@PADPA_WVCExpansionVectorEqualHelper@ATL@@@ATL@@QAEHABQADABQA_W@Z 00402360 f i ComSetup.obj
 0001:000013d0       ?Allocate@?$CTempBuffer@D$0EAA@VCCRTAllocator@ATL@@@ATL@@QAEPADI@Z 004023d0 f i ComSetup.obj
 0001:00001410       ?Allocate@?$CTempBuffer@D$0BAA@VCCRTAllocator@ATL@@@ATL@@QAEPADI@Z 00402410 f i ComSetup.obj
 0001:00001410       ?Allocate@?$CTempBuffer@E$0BAA@VCCRTAllocator@ATL@@@ATL@@QAEPAEI@Z 00402410 f i ComSetup.obj
 0001:00001450       ?Add@CExpansionVector@ATL@@QAEHPBDPB_W@Z 00402450 f i ComSetup.obj
 0001:000015c0       ?AddReplacement@CRegObject@ATL@@UAGJPB_W0@Z 004025c0 f i ComSetup.obj
 0001:000016e0       ?AddValue@CRegParser@ATL@@IAEJAAVCRegKey@2@PBDPAD@Z 004026e0 f i ComSetup.obj
 0001:00001a90       ?RegisterSubkeys@CRegParser@ATL@@IAEJPADPAUHKEY__@@HH@Z 00402a90 f i ComSetup.obj
 0001:00002140       ?RegisterBuffer@CRegParser@ATL@@QAEJPADH@Z 00403140 f i ComSetup.obj
 0001:00002280       ?RegisterFromResource@CRegObject@ATL@@IAEJPB_WPBD1H@Z 00403280 f i ComSetup.obj
 0001:000024e0       ?ResourceRegister@CRegObject@ATL@@QAGJPB_WI0@Z 004034e0 f i ComSetup.obj
 0001:000025f0       ?ResourceUnregister@CRegObject@ATL@@QAGJPB_WI0@Z 004035f0 f i ComSetup.obj
 0001:00002700       _RegisterComServers        00403700 f   ComSetup.obj
 0001:00002920       _UnregisterComServers      00403920 f   ComSetup.obj
 0001:00002a80       _mkfulldir_internal        00403a80 f   Dir.obj
 0001:00002c70       _mkfulldir                 00403c70 f   Dir.obj
 0001:000030d0       _MakeSelfExtractingPackage 004040d0 f   SelfExtract.obj
 0001:000037e0       _VerifyPackageIntegrity    004047e0 f   SelfExtract.obj
 0001:000039a0       _IsSelfExtractingPackage   004049a0 f   SelfExtract.obj
 0001:00003b10       _SelfExtractInMemory       00404b10 f   SelfExtract.obj
 0001:00003d80       _ExtractAllFilesThread     00404d80 f   SelfExtract.obj
 0001:00004010       _SelfExtractStartupInit    00405010 f   SelfExtract.obj
 0001:00004040       ?swprintf@@YAHPA_WPB_WZZ   00405040 f i Setup.obj
 0001:00004060       ??1bad_alloc@std@@UAE@XZ   00405060 f i Setup.obj
 0001:00004070       ??_Gbad_alloc@std@@UAEPAXI@Z 00405070 f i Setup.obj
 0001:00004070       ??_Ebad_alloc@std@@UAEPAXI@Z 00405070 f i Setup.obj
 0001:000040a0       ?compare@?$char_traits@D@std@@SAHPBD0I@Z 004050a0 f i Setup.obj
 0001:00004120       _localcleanup              00405120 f   Setup.obj
 0001:00004130       _StatDeleteFile            00405130 f   Setup.obj
 0001:00004160       _StatRemoveDirectory       00405160 f   Setup.obj
 0001:00004190       _StatusMessage             00405190 f   Setup.obj
 0001:00004200       _StatusMessageParam        00405200 f   Setup.obj
 0001:000042b0       _ClearLogWindow            004052b0 f   Setup.obj
 0001:000042e0       _RegMessage                004052e0 f   Setup.obj
 0001:00004300       _DetermineUpgradeDowngradeStatus 00405300 f   Setup.obj
 0001:00004440       _DoTrueCryptFilesUninstall 00405440 f   Setup.obj
 0001:00004800       _DoRegInstall              00405800 f   Setup.obj
 0001:00005220       ?DoApplicationDataUninstall@@YAHPAUHWND__@@@Z 00406220 f   Setup.obj
 0001:00005510       _DoRegUninstall            00406510 f   Setup.obj
 0001:00005620       _DoServiceUninstall        00406620 f   Setup.obj
 0001:00005a40       _DoDriverUnload            00406a40 f   Setup.obj
 0001:00005ea0       _UpgradeBootLoader         00406ea0 f   Setup.obj
 0001:00005fd0       _DoShortcutsUninstall      00406fd0 f   Setup.obj
 0001:00006330       _DoTrueCryptShortcutsUninstall 00407330 f   Setup.obj
 0001:00006690       _OutcomePrompt             00407690 f   Setup.obj
 0001:00006900       ?_Myptr@?$basic_string@DU?$char_traits@D@std@@V?$allocator@D@2@@std@@IBEPBDXZ 00407900 f i Setup.obj
 0001:00006910       ??$_Allocate@D@std@@YAPADIPAD@Z 00407910 f i Setup.obj
 0001:00006970       ??0bad_alloc@std@@QAE@ABV01@@Z 00407970 f i Setup.obj
 0001:00006990       _CreateLink                00407990 f   Setup.obj
 0001:00006b10       _DoShortcutsInstall        00407b10 f   Setup.obj
 0001:00006f80       ?find@?$basic_string@DU?$char_traits@D@std@@V?$allocator@D@2@@std@@QBEIPBDII@Z 00407f80 f i Setup.obj
 0001:00007040       ??$copy_s@U?$char_traits@D@std@@@_Traits_helper@std@@YAPADPADIPBDI@Z 00408040 f i Setup.obj
 0001:000070c0       ?find@?$basic_string@DU?$char_traits@D@std@@V?$allocator@D@2@@std@@QBEIPBDI@Z 004080c0 f i Setup.obj
 0001:000070f0       ?_Tidy@?$basic_string@DU?$char_traits@D@std@@V?$allocator@D@2@@std@@IAEX_NI@Z 004080f0 f i Setup.obj
 0001:00007140       ?erase@?$basic_string@DU?$char_traits@D@std@@V?$allocator@D@2@@std@@QAEAAV12@II@Z 00408140 f i Setup.obj
 0001:000071d0       ?_Copy@?$basic_string@DU?$char_traits@D@std@@V?$allocator@D@2@@std@@IAEXII@Z 004081d0 f i Setup.obj
 0001:00007310       ?append@?$basic_string@DU?$char_traits@D@std@@V?$allocator@D@2@@std@@QAEAAV12@ABV12@II@Z 00408310 f i Setup.obj
 0001:00007410       ?append@?$basic_string@DU?$char_traits@D@std@@V?$allocator@D@2@@std@@QAEAAV12@PBDI@Z 00408410 f i Setup.obj
 0001:00007520       _DoFilesInstall            00408520 f   Setup.obj
 0001:00007ce0       _DoUninstall               00408ce0 f   Setup.obj
 0001:00007f20       ?UninstallDlgProc@@YGHPAUHWND__@@IIJ@Z 00408f20 f   Setup.obj
 0001:00008160       ?assign@?$basic_string@DU?$char_traits@D@std@@V?$allocator@D@2@@std@@QAEAAV12@ABV12@II@Z 00409160 f i Setup.obj
 0001:00008240       ?insert@?$basic_string@DU?$char_traits@D@std@@V?$allocator@D@2@@std@@QAEAAV12@IABV12@II@Z 00409240 f i Setup.obj
 0001:000083b0       ?assign@?$basic_string@DU?$char_traits@D@std@@V?$allocator@D@2@@std@@QAEAAV12@PBDI@Z 004093b0 f i Setup.obj
 0001:00008490       ??0?$basic_string@DU?$char_traits@D@std@@V?$allocator@D@2@@std@@QAE@ABV01@@Z 00409490 f i Setup.obj
 0001:000084c0       ?insert@?$basic_string@DU?$char_traits@D@std@@V?$allocator@D@2@@std@@QAEAAV12@IPBDI@Z 004094c0 f i Setup.obj
 0001:00008630       ?insert@?$basic_string@DU?$char_traits@D@std@@V?$allocator@D@2@@std@@QAEAAV12@IPBD@Z 00409630 f i Setup.obj
 0001:00008660       ??Y?$basic_string@DU?$char_traits@D@std@@V?$allocator@D@2@@std@@QAEAAV01@PBD@Z 00409660 f i Setup.obj
 0001:00008690       ??0?$basic_string@DU?$char_traits@D@std@@V?$allocator@D@2@@std@@QAE@PBD@Z 00409690 f i Setup.obj
 0001:000086d0       ?substr@?$basic_string@DU?$char_traits@D@std@@V?$allocator@D@2@@std@@QBE?AV12@II@Z 004096d0 f i Setup.obj
 0001:00008710       ??$?HDU?$char_traits@D@std@@V?$allocator@D@1@@std@@YA?AV?$basic_string@DU?$char_traits@D@std@@V?$allocator@D@2@@0@ABV10@PBD@Z 00409710 f i Setup.obj
 0001:000087d0       _DoInstall                 004097d0 f   Setup.obj
 0001:000094c0       _SetInstallationPath       0040a4c0 f   Setup.obj
 0001:00009940       _WinMain@16                0040a940 f   Setup.obj
 0001:00009bd0       _localcleanupwiz           0040abd0 f   Wizard.obj
 0001:00009df0       _InitProgressBar           0040adf0 f   Wizard.obj
 0001:00009e40       _RefreshUIGFX              0040ae40 f   Wizard.obj
 0001:00009f60       ??$_Allocate@_W@std@@YAPA_WIPA_W@Z 0040af60 f i Wizard.obj
 0001:00009fc0       _UpdateProgressBarProc     0040afc0 f   Wizard.obj
 0001:0000a070       ??$copy_s@U?$char_traits@_W@std@@@_Traits_helper@std@@YAPA_WPA_WIPB_WI@Z 0040b070 f i Wizard.obj
 0001:0000a0a0       ?erase@?$basic_string@_WU?$char_traits@_W@std@@V?$allocator@_W@2@@std@@QAEAAV12@II@Z 0040b0a0 f i Wizard.obj
 0001:0000a140       ?_Copy@?$basic_string@_WU?$char_traits@_W@std@@V?$allocator@_W@2@@std@@IAEXII@Z 0040b140 f i Wizard.obj
 0001:0000a290       ??1?$basic_string@_WU?$char_traits@_W@std@@V?$allocator@_W@2@@std@@QAE@XZ 0040b290 f i Wizard.obj
 0001:0000a2c0       ?assign@?$basic_string@_WU?$char_traits@_W@std@@V?$allocator@_W@2@@std@@QAEAAV12@ABV12@II@Z 0040b2c0 f i Wizard.obj
 0001:0000a3c0       ?assign@?$basic_string@_WU?$char_traits@_W@std@@V?$allocator@_W@2@@std@@QAEAAV12@PB_WI@Z 0040b3c0 f i Wizard.obj
 0001:0000a4b0       ??4?$basic_string@_WU?$char_traits@_W@std@@V?$allocator@_W@2@@std@@QAEAAV01@PB_W@Z 0040b4b0 f i Wizard.obj
 0001:0000a4e0       _PageDialogProc@16         0040b4e0 f   Wizard.obj
 0001:0000b7f0       ?LoadPage@@YAXPAUHWND__@@H@Z 0040c7f0 f   Wizard.obj
 0001:0000b970       _MainDialogProc@16         0040c970 f   Wizard.obj
 0001:0000c6c0       _XmlFindElement            0040d6c0 f   Xml.obj
 0001:0000c750       _XmlGetAttributeText       0040d750 f   Xml.obj
 0001:0000c8c0       _XmlGetNodeText            0040d8c0 f   Xml.obj
 0001:0000c9a0       _XmlFindElementByAttributeValue 0040d9a0 f   Xml.obj
 0001:0000ca60       ??0bad_alloc@std@@QAE@XZ   0040da60 f i BootEncryption.obj
 0001:0000ca80       ??3@YAXPAX0@Z              0040da80 f i BootEncryption.obj
 0001:0000ca90       ?_Incref@facet@locale@std@@QAEXXZ 0040da90 f i BootEncryption.obj
 0001:0000cac0       ?_Decref@facet@locale@std@@QAEPAV123@XZ 0040dac0 f i BootEncryption.obj
 0001:0000cb00       ??1facet@locale@std@@UAE@XZ 0040db00 f i BootEncryption.obj
 0001:0000cb10       ??1locale@std@@QAE@XZ      0040db10 f i BootEncryption.obj
 0001:0000cb60       ??_Efacet@locale@std@@UAEPAXI@Z 0040db60 f i BootEncryption.obj
 0001:0000cb60       ??_G?$num_put@DV?$ostreambuf_iterator@DU?$char_traits@D@std@@@std@@@std@@MAEPAXI@Z 0040db60 f i BootEncryption.obj
 0001:0000cb60       ??_E?$num_put@DV?$ostreambuf_iterator@DU?$char_traits@D@std@@@std@@@std@@MAEPAXI@Z 0040db60 f i BootEncryption.obj
 0001:0000cb60       ??_Gfacet@locale@std@@UAEPAXI@Z 0040db60 f i BootEncryption.obj
 0001:0000cb80       ?getloc@ios_base@std@@QBE?AVlocale@2@XZ 0040db80 f i BootEncryption.obj
 0001:0000cbc0       ??_G?$basic_ios@_WU?$char_traits@_W@std@@@std@@UAEPAXI@Z 0040dbc0 f i BootEncryption.obj
 0001:0000cbc0       ??_Eios_base@std@@UAEPAXI@Z 0040dbc0 f i BootEncryption.obj
 0001:0000cbc0       ??_G?$basic_ios@DU?$char_traits@D@std@@@std@@UAEPAXI@Z 0040dbc0 f i BootEncryption.obj
 0001:0000cbc0       ??_E?$basic_ios@_WU?$char_traits@_W@std@@@std@@UAEPAXI@Z 0040dbc0 f i BootEncryption.obj
 0001:0000cbc0       ??_Gios_base@std@@UAEPAXI@Z 0040dbc0 f i BootEncryption.obj
 0001:0000cbc0       ??_E?$basic_ios@DU?$char_traits@D@std@@@std@@UAEPAXI@Z 0040dbc0 f i BootEncryption.obj
 0001:0000cbf0       ??1Container@ForEach@CipherShed@@UAE@XZ 0040dbf0 f i BootEncryption.obj
 0001:0000cc00       ??_GContainer@ForEach@CipherShed@@UAEPAXI@Z 0040dc00 f i BootEncryption.obj
 0001:0000cc00       ??_EContainer@ForEach@CipherShed@@UAEPAXI@Z 0040dc00 f i BootEncryption.obj
 0001:0000cc20       ?CallDriver@Elevator@CipherShed@@SAXKPAXK0K@Z 0040dc20 f i BootEncryption.obj
 0001:0000cc50       ?ReadWriteFile@Elevator@CipherShed@@SAXHHABV?$basic_string@DU?$char_traits@D@std@@V?$allocator@D@2@@std@@PAE_KIPAK@Z 0040dc50 f i BootEncryption.obj
 0001:0000cc80       ?RegisterFilterDriver@Elevator@CipherShed@@SAX_NW4FilterType@BootEncryption@2@@Z 0040dc80 f i BootEncryption.obj
 0001:0000ccb0       ?SetDriverServiceStartType@Elevator@CipherShed@@SAXK@Z 0040dcb0 f i BootEncryption.obj
 0001:0000cce0       ??0Exception@CipherShed@@QAE@ABU01@@Z 0040dce0 f i BootEncryption.obj
 0001:0000cd00       ?GetChecksum@BootEncryption@CipherShed@@IAEIPAEI@Z 0040dd00 f   BootEncryption.obj
 0001:0000cd50       ?ReadDriverConfigurationFlags@BootEncryption@CipherShed@@QAEIXZ 0040dd50 f   BootEncryption.obj
 0001:0000cd50       _ReadDriverConfigurationFlags 0040dd50 f   Dlgcode.obj
 0001:0000cd80       ??1?$basic_ios@DU?$char_traits@D@std@@@std@@UAE@XZ 0040dd80 f i BootEncryption.obj
 0001:0000cd80       ??1?$basic_ios@_WU?$char_traits@_W@std@@@std@@UAE@XZ 0040dd80 f i BootEncryption.obj
 0001:0000cd90       ??1?$basic_istream@DU?$char_traits@D@std@@@std@@UAE@XZ 0040dd90 f i BootEncryption.obj
 0001:0000cda0       ??1?$basic_istream@_WU?$char_traits@_W@std@@@std@@UAE@XZ 0040dda0 f i BootEncryption.obj
 0001:0000cdb0       ??1?$basic_iostream@DU?$char_traits@D@std@@@std@@UAE@XZ 0040ddb0 f i BootEncryption.obj
 0001:0000cde0       ??1?$basic_iostream@_WU?$char_traits@_W@std@@@std@@UAE@XZ 0040dde0 f i BootEncryption.obj
 0001:0000ce10       ??_Glocale@std@@QAEPAXI@Z  0040de10 f i BootEncryption.obj
 0001:0000ce80       ?_Pnavail@?$basic_streambuf@_WU?$char_traits@_W@std@@@std@@IBEHXZ 0040de80 f i BootEncryption.obj
 0001:0000ce80       ?_Pnavail@?$basic_streambuf@DU?$char_traits@D@std@@@std@@IBEHXZ 0040de80 f i BootEncryption.obj
 0001:0000cea0       ?setg@?$basic_streambuf@_WU?$char_traits@_W@std@@@std@@IAEXPA_W00@Z 0040dea0 f i BootEncryption.obj
 0001:0000ced0       ?setp@?$basic_streambuf@_WU?$char_traits@_W@std@@@std@@IAEXPA_W00@Z 0040ded0 f i BootEncryption.obj
 0001:0000cf00       ?_Tidy@?$basic_stringbuf@_WU?$char_traits@_W@std@@V?$allocator@_W@2@@std@@IAEXXZ 0040df00 f i BootEncryption.obj
 0001:0000cf00       ?_Tidy@?$basic_stringbuf@DU?$char_traits@D@std@@V?$allocator@D@2@@std@@IAEXXZ 0040df00 f i BootEncryption.obj
 0001:0000cf60       ?_Chassign@?$basic_string@DU?$char_traits@D@std@@V?$allocator@D@2@@std@@IAEXIID@Z 0040df60 f i BootEncryption.obj
 0001:0000cfc0       ??1_Sentry_base@?$basic_ostream@_WU?$char_traits@_W@std@@@std@@QAE@XZ 0040dfc0 f i BootEncryption.obj
 0001:0000cfc0       ??1_Sentry_base@?$basic_ostream@DU?$char_traits@D@std@@@std@@QAE@XZ 0040dfc0 f i BootEncryption.obj
 0001:0000cfe0       ?_Init@?$basic_streambuf@DU?$char_traits@D@std@@@std@@IAEXXZ 0040dfe0 f i BootEncryption.obj
 0001:0000cfe0       ?_Init@?$basic_streambuf@_WU?$char_traits@_W@std@@@std@@IAEXXZ 0040dfe0 f i BootEncryption.obj
 0001:0000d040       ??F?$_Const_iterator@$00@?$list@KV?$allocator@K@std@@@std@@QAEAAV012@XZ 0040e040 f i Dlgcode.obj
 0001:0000d040       ??F?$_Const_iterator@$00@?$list@UPartition@CipherShed@@V?$allocator@UPartition@CipherShed@@@std@@@std@@QAEAAV012@XZ 0040e040 f i BootEncryption.obj
 0001:0000d070       ??0?$ctype@D@std@@QAE@ABV_Locinfo@1@I@Z 0040e070 f i BootEncryption.obj
 0001:0000d0b0       ?do_tolower@?$ctype@D@std@@MBEDD@Z 0040e0b0 f i BootEncryption.obj
 0001:0000d0d0       ?do_tolower@?$ctype@D@std@@MBEPBDPADPBD@Z 0040e0d0 f i BootEncryption.obj
 0001:0000d100       ?do_toupper@?$ctype@D@std@@MBEDD@Z 0040e100 f i BootEncryption.obj
 0001:0000d120       ?do_toupper@?$ctype@D@std@@MBEPBDPADPBD@Z 0040e120 f i BootEncryption.obj
 0001:0000d150       ?do_widen@?$ctype@D@std@@MBEDD@Z 0040e150 f i BootEncryption.obj
 0001:0000d160       ?do_widen@?$ctype@D@std@@MBEPBDPBD0PAD@Z 0040e160 f i BootEncryption.obj
 0001:0000d190       ?_Do_widen_s@?$ctype@D@std@@MBEPBDPBD0PADI@Z 0040e190 f i BootEncryption.obj
 0001:0000d1d0       ?do_narrow@?$ctype@D@std@@MBEDDD@Z 0040e1d0 f i BootEncryption.obj
 0001:0000d1e0       ?do_narrow@?$ctype@D@std@@MBEPBDPBD0DPAD@Z 0040e1e0 f i BootEncryption.obj
 0001:0000d210       ?_Do_narrow_s@?$ctype@D@std@@MBEPBDPBD0DPADI@Z 0040e210 f i BootEncryption.obj
 0001:0000d250       ??_E?$ctype@D@std@@MAEPAXI@Z 0040e250 f i BootEncryption.obj
 0001:0000d250       ??_G?$ctype@D@std@@MAEPAXI@Z 0040e250 f i BootEncryption.obj
 0001:0000d2a0       ??0?$ctype@_W@std@@QAE@ABV_Locinfo@1@I@Z 0040e2a0 f i BootEncryption.obj
 0001:0000d2f0       ?do_is@?$ctype@_W@std@@MBE_NF_W@Z 0040e2f0 f i BootEncryption.obj
 0001:0000d320       ?do_is@?$ctype@_W@std@@MBEPB_WPB_W0PAF@Z 0040e320 f i BootEncryption.obj
 0001:0000d340       ?do_scan_is@?$ctype@_W@std@@MBEPB_WFPB_W0@Z 0040e340 f i BootEncryption.obj
 0001:0000d380       ?do_scan_not@?$ctype@_W@std@@MBEPB_WFPB_W0@Z 0040e380 f i BootEncryption.obj
 0001:0000d3c0       ?do_tolower@?$ctype@_W@std@@MBE_W_W@Z 0040e3c0 f i BootEncryption.obj
 0001:0000d3e0       ?do_tolower@?$ctype@_W@std@@MBEPB_WPA_WPB_W@Z 0040e3e0 f i BootEncryption.obj
 0001:0000d420       ?do_toupper@?$ctype@_W@std@@MBE_W_W@Z 0040e420 f i BootEncryption.obj
 0001:0000d440       ?do_toupper@?$ctype@_W@std@@MBEPB_WPA_WPB_W@Z 0040e440 f i BootEncryption.obj
 0001:0000d480       ?do_widen@?$ctype@_W@std@@MBE_WD@Z 0040e480 f i BootEncryption.obj
 0001:0000d4d0       ?do_widen@?$ctype@_W@std@@MBEPBDPBD0PA_W@Z 0040e4d0 f i BootEncryption.obj
 0001:0000d500       ?_Do_widen_s@?$ctype@_W@std@@MBEPBDPBD0PA_WI@Z 0040e500 f i BootEncryption.obj
 0001:0000d580       ?do_narrow@?$ctype@_W@std@@MBED_WD@Z 0040e580 f i BootEncryption.obj
 0001:0000d5d0       ?do_narrow@?$ctype@_W@std@@MBEPB_WPB_W0DPAD@Z 0040e5d0 f i BootEncryption.obj
 0001:0000d600       ?_Do_narrow_s@?$ctype@_W@std@@MBEPB_WPB_W0DPADI@Z 0040e600 f i BootEncryption.obj
 0001:0000d690       ??_E?$ctype@_W@std@@MAEPAXI@Z 0040e690 f i BootEncryption.obj
 0001:0000d690       ??_G?$ctype@_W@std@@MAEPAXI@Z 0040e690 f i BootEncryption.obj
 0001:0000d6d0       ??0SystemException@CipherShed@@QAE@XZ 0040e6d0 f i BootEncryption.obj
 0001:0000d6f0       ?Show@SystemException@CipherShed@@UBEXPAUHWND__@@@Z 0040e6f0 f i BootEncryption.obj
 0001:0000d710       ??0ParameterIncorrect@CipherShed@@QAE@ABU01@@Z 0040e710 f i BootEncryption.obj
 0001:0000d730       ?Read@File@CipherShed@@QAEKPAEK@Z 0040e730 f   BootEncryption.obj
 0001:0000d7b0       ??0SystemException@CipherShed@@QAE@ABU01@@Z 0040e7b0 f i BootEncryption.obj
 0001:0000d7d0       ?SeekAt@File@CipherShed@@QAEX_J@Z 0040e7d0 f   BootEncryption.obj
 0001:0000d820       ?CallDriver@BootEncryption@CipherShed@@QAEXKPAXK0K@Z 0040e820 f   BootEncryption.obj
 0001:0000d8f0       ?GetDriverServiceStartType@BootEncryption@CipherShed@@QAEKXZ 0040e8f0 f   BootEncryption.obj
 0001:0000d940       ?GetInstalledBootLoaderVersion@BootEncryption@CipherShed@@QAEGXZ 0040e940 f   BootEncryption.obj
 0001:0000d960       ?GetStatus@BootEncryption@CipherShed@@QAE?AUBootEncryptionStatus@@XZ 0040e960 f   BootEncryption.obj
 0001:0000d980       ?GetVolumeProperties@BootEncryption@CipherShed@@QAEXPAUVOLUME_PROPERTIES_STRUCT@@@Z 0040e980 f   BootEncryption.obj
 0001:0000d9d0       ?IsHiddenSystemRunning@BootEncryption@CipherShed@@QAE_NXZ 0040e9d0 f   BootEncryption.obj
 0001:0000d9f0       ?WriteBootDriveSector@BootEncryption@CipherShed@@QAEX_KPAE@Z 0040e9f0 f   BootEncryption.obj
 0001:0000da60       ??1?$basic_streambuf@DU?$char_traits@D@std@@@std@@UAE@XZ 0040ea60 f i BootEncryption.obj
 0001:0000dad0       ?overflow@?$basic_streambuf@DU?$char_traits@D@std@@@std@@MAEHH@Z 0040ead0 f i BootEncryption.obj
 0001:0000dad0       ?pbackfail@?$basic_streambuf@DU?$char_traits@D@std@@@std@@MAEHH@Z 0040ead0 f i BootEncryption.obj
 0001:0000dae0       ?underflow@?$basic_streambuf@DU?$char_traits@D@std@@@std@@MAEHXZ 0040eae0 f i BootEncryption.obj
 0001:0000daf0       ?showmanyc@?$basic_streambuf@DU?$char_traits@D@std@@@std@@MAEHXZ 0040eaf0 f i BootEncryption.obj
 0001:0000daf0       ?sync@?$basic_streambuf@_WU?$char_traits@_W@std@@@std@@MAEHXZ 0040eaf0 f i BootEncryption.obj
 0001:0000daf0       ?sync@?$basic_streambuf@DU?$char_traits@D@std@@@std@@MAEHXZ 0040eaf0 f i BootEncryption.obj
 0001:0000daf0       ?showmanyc@?$basic_streambuf@_WU?$char_traits@_W@std@@@std@@MAEHXZ 0040eaf0 f i BootEncryption.obj
 0001:0000db00       ?imbue@?$basic_streambuf@_WU?$char_traits@_W@std@@@std@@MAEXABVlocale@2@@Z 0040eb00 f i BootEncryption.obj
 0001:0000db00       ?imbue@?$basic_streambuf@DU?$char_traits@D@std@@@std@@MAEXABVlocale@2@@Z 0040eb00 f i BootEncryption.obj
 0001:0000db10       ?uflow@?$basic_streambuf@DU?$char_traits@D@std@@@std@@MAEHXZ 0040eb10 f i BootEncryption.obj
 0001:0000db40       ?seekpos@?$basic_streambuf@_WU?$char_traits@_W@std@@@std@@MAE?AV?$fpos@H@2@V32@H@Z 0040eb40 f i BootEncryption.obj
 0001:0000db40       ?seekpos@?$basic_streambuf@DU?$char_traits@D@std@@@std@@MAE?AV?$fpos@H@2@V32@H@Z 0040eb40 f i BootEncryption.obj
 0001:0000db60       ??1?$basic_streambuf@_WU?$char_traits@_W@std@@@std@@UAE@XZ 0040eb60 f i BootEncryption.obj
 0001:0000dbd0       ?overflow@?$basic_streambuf@_WU?$char_traits@_W@std@@@std@@MAEGG@Z 0040ebd0 f i BootEncryption.obj
 0001:0000dbd0       ?pbackfail@?$basic_streambuf@_WU?$char_traits@_W@std@@@std@@MAEGG@Z 0040ebd0 f i BootEncryption.obj
 0001:0000dbe0       ?underflow@?$basic_streambuf@_WU?$char_traits@_W@std@@@std@@MAEGXZ 0040ebe0 f i BootEncryption.obj
 0001:0000dbf0       ?xsgetn@?$basic_streambuf@_WU?$char_traits@_W@std@@@std@@MAEHPA_WH@Z 0040ebf0 f i BootEncryption.obj
 0001:0000dbf0       ?xsgetn@?$basic_streambuf@DU?$char_traits@D@std@@@std@@MAEHPADH@Z 0040ebf0 f i BootEncryption.obj
 0001:0000dc10       ?setbuf@?$basic_streambuf@DU?$char_traits@D@std@@@std@@MAEPAV12@PADH@Z 0040ec10 f i BootEncryption.obj
 0001:0000dc10       ?setbuf@?$basic_streambuf@_WU?$char_traits@_W@std@@@std@@MAEPAV12@PA_WH@Z 0040ec10 f i BootEncryption.obj
 0001:0000dc20       ?_Gnavail@?$basic_streambuf@_WU?$char_traits@_W@std@@@std@@IBEHXZ 0040ec20 f i BootEncryption.obj
 0001:0000dc20       ?_Gnavail@?$basic_streambuf@DU?$char_traits@D@std@@@std@@IBEHXZ 0040ec20 f i BootEncryption.obj
 0001:0000dc40       ?uflow@?$basic_streambuf@_WU?$char_traits@_W@std@@@std@@MAEGXZ 0040ec40 f i BootEncryption.obj
 0001:0000dc70       ?seekoff@?$basic_streambuf@_WU?$char_traits@_W@std@@@std@@MAE?AV?$fpos@H@2@JHH@Z 0040ec70 f i BootEncryption.obj
 0001:0000dc70       ?seekoff@?$basic_streambuf@DU?$char_traits@D@std@@@std@@MAE?AV?$fpos@H@2@JHH@Z 0040ec70 f i BootEncryption.obj
 0001:0000dc90       ?pbackfail@?$basic_stringbuf@DU?$char_traits@D@std@@V?$allocator@D@2@@std@@MAEHH@Z 0040ec90 f i BootEncryption.obj
 0001:0000dce0       ?underflow@?$basic_stringbuf@DU?$char_traits@D@std@@V?$allocator@D@2@@std@@MAEHXZ 0040ece0 f i BootEncryption.obj
 0001:0000dd50       ?seekoff@?$basic_stringbuf@DU?$char_traits@D@std@@V?$allocator@D@2@@std@@MAE?AV?$fpos@H@2@JHH@Z 0040ed50 f i BootEncryption.obj
 0001:0000deb0       ?seekpos@?$basic_stringbuf@DU?$char_traits@D@std@@V?$allocator@D@2@@std@@MAE?AV?$fpos@H@2@V32@H@Z 0040eeb0 f i BootEncryption.obj
 0001:0000df80       ?pbackfail@?$basic_stringbuf@_WU?$char_traits@_W@std@@V?$allocator@_W@2@@std@@MAEGG@Z 0040ef80 f i BootEncryption.obj
 0001:0000dfe0       ?underflow@?$basic_stringbuf@_WU?$char_traits@_W@std@@V?$allocator@_W@2@@std@@MAEGXZ 0040efe0 f i BootEncryption.obj
 0001:0000e050       ?seekoff@?$basic_stringbuf@_WU?$char_traits@_W@std@@V?$allocator@_W@2@@std@@MAE?AV?$fpos@H@2@JHH@Z 0040f050 f i BootEncryption.obj
 0001:0000e1c0       ?seekpos@?$basic_stringbuf@_WU?$char_traits@_W@std@@V?$allocator@_W@2@@std@@MAE?AV?$fpos@H@2@V32@H@Z 0040f1c0 f i BootEncryption.obj
 0001:0000e2a0       ??_E?$basic_ostream@DU?$char_traits@D@std@@@std@@UAEPAXI@Z 0040f2a0 f i BootEncryption.obj
 0001:0000e2a0       ??_G?$basic_ostream@DU?$char_traits@D@std@@@std@@UAEPAXI@Z 0040f2a0 f i BootEncryption.obj
 0001:0000e2e0       ??_E?$basic_ostream@_WU?$char_traits@_W@std@@@std@@UAEPAXI@Z 0040f2e0 f i BootEncryption.obj
 0001:0000e2e0       ??_G?$basic_ostream@_WU?$char_traits@_W@std@@@std@@UAEPAXI@Z 0040f2e0 f i BootEncryption.obj
 0001:0000e320       ??_E?$basic_istream@DU?$char_traits@D@std@@@std@@UAEPAXI@Z 0040f320 f i BootEncryption.obj
 0001:0000e320       ??_G?$basic_istream@DU?$char_traits@D@std@@@std@@UAEPAXI@Z 0040f320 f i BootEncryption.obj
 0001:0000e360       ??_E?$basic_streambuf@DU?$char_traits@D@std@@@std@@UAEPAXI@Z 0040f360 f i BootEncryption.obj
 0001:0000e360       ??_G?$basic_streambuf@DU?$char_traits@D@std@@@std@@UAEPAXI@Z 0040f360 f i BootEncryption.obj
 0001:0000e380       ??_G?$basic_istream@_WU?$char_traits@_W@std@@@std@@UAEPAXI@Z 0040f380 f i BootEncryption.obj
 0001:0000e380       ??_E?$basic_istream@_WU?$char_traits@_W@std@@@std@@UAEPAXI@Z 0040f380 f i BootEncryption.obj
 0001:0000e3c0       ??_G?$basic_streambuf@_WU?$char_traits@_W@std@@@std@@UAEPAXI@Z 0040f3c0 f i BootEncryption.obj
 0001:0000e3c0       ??_E?$basic_streambuf@_WU?$char_traits@_W@std@@@std@@UAEPAXI@Z 0040f3c0 f i BootEncryption.obj
 0001:0000e3e0       ??_G?$basic_iostream@DU?$char_traits@D@std@@@std@@UAEPAXI@Z 0040f3e0 f i BootEncryption.obj
 0001:0000e3e0       ??_E?$basic_iostream@DU?$char_traits@D@std@@@std@@UAEPAXI@Z 0040f3e0 f i BootEncryption.obj
 0001:0000e440       ??_G?$basic_stringbuf@DU?$char_traits@D@std@@V?$allocator@D@2@@std@@UAEPAXI@Z 0040f440 f i BootEncryption.obj
 0001:0000e440       ??_E?$basic_stringbuf@DU?$char_traits@D@std@@V?$allocator@D@2@@std@@UAEPAXI@Z 0040f440 f i BootEncryption.obj
 0001:0000e470       ??_E?$basic_iostream@_WU?$char_traits@_W@std@@@std@@UAEPAXI@Z 0040f470 f i BootEncryption.obj
 0001:0000e470       ??_G?$basic_iostream@_WU?$char_traits@_W@std@@@std@@UAEPAXI@Z 0040f470 f i BootEncryption.obj
 0001:0000e4d0       ??_E?$basic_stringbuf@_WU?$char_traits@_W@std@@V?$allocator@_W@2@@std@@UAEPAXI@Z 0040f4d0 f i BootEncryption.obj
 0001:0000e4d0       ??_G?$basic_stringbuf@_WU?$char_traits@_W@std@@V?$allocator@_W@2@@std@@UAEPAXI@Z 0040f4d0 f i BootEncryption.obj
 0001:0000e500       ?rfind@?$basic_string@DU?$char_traits@D@std@@V?$allocator@D@2@@std@@QBEIPBDII@Z 0040f500 f i BootEncryption.obj
 0001:0000e5b0       ??E?$_Const_iterator@$00@?$list@KV?$allocator@K@std@@@std@@QAEAAV012@XZ 0040f5b0 f i Dlgcode.obj
 0001:0000e5b0       ??E?$_Const_iterator@$00@?$list@UPartition@CipherShed@@V?$allocator@UPartition@CipherShed@@@std@@@std@@QAEAAV012@XZ 0040f5b0 f i BootEncryption.obj
 0001:0000e5f0       ??0?$basic_streambuf@DU?$char_traits@D@std@@@std@@IAE@XZ 0040f5f0 f i BootEncryption.obj
 0001:0000e6a0       ??0?$basic_streambuf@_WU?$char_traits@_W@std@@@std@@IAE@XZ 0040f6a0 f i BootEncryption.obj
 0001:0000e750       ??0?$_String_const_iterator@DU?$char_traits@D@std@@V?$allocator@D@2@@std@@QAE@PBDPBV_Container_base_secure@1@@Z 0040f750 f i BootEncryption.obj
 0001:0000e7b0       ?_Ifmt@?$num_put@DV?$ostreambuf_iterator@DU?$char_traits@D@std@@@std@@@std@@ABAPADPADPBDH@Z 0040f7b0 f i BootEncryption.obj
 0001:0000e840       ?_Tidy@?$numpunct@D@std@@AAEXXZ 0040f840 f i BootEncryption.obj
 0001:0000e870       ??$_Maklocstr@D@std@@YAPADPBDPADABU_Cvtvec@@@Z 0040f870 f i BootEncryption.obj
 0001:0000e8b0       ?_Init@?$numpunct@D@std@@IAEXABV_Locinfo@2@_N@Z 0040f8b0 f i BootEncryption.obj
 0001:0000ea20       ?rfind@?$basic_string@DU?$char_traits@D@std@@V?$allocator@D@2@@std@@QBEIPBDI@Z 0040fa20 f i BootEncryption.obj
 0001:0000ea50       ?_Xsgetn_s@?$basic_streambuf@DU?$char_traits@D@std@@@std@@MAEHPADIH@Z 0040fa50 f i BootEncryption.obj
 0001:0000eae0       ?xsputn@?$basic_streambuf@DU?$char_traits@D@std@@@std@@MAEHPBDH@Z 0040fae0 f i BootEncryption.obj
 0001:0000eb70       ?_Xsgetn_s@?$basic_streambuf@_WU?$char_traits@_W@std@@@std@@MAEHPA_WIH@Z 0040fb70 f i BootEncryption.obj
 0001:0000ec20       ?xsputn@?$basic_streambuf@_WU?$char_traits@_W@std@@@std@@MAEHPB_WH@Z 0040fc20 f i BootEncryption.obj
 0001:0000ecd0       ??1?$basic_stringstream@DU?$char_traits@D@std@@V?$allocator@D@2@@std@@UAE@XZ 0040fcd0 f i BootEncryption.obj
 0001:0000ed60       ?overflow@?$basic_stringbuf@DU?$char_traits@D@std@@V?$allocator@D@2@@std@@MAEHH@Z 0040fd60 f i BootEncryption.obj
 0001:0000ef30       ??1?$basic_stringstream@_WU?$char_traits@_W@std@@V?$allocator@_W@2@@std@@UAE@XZ 0040ff30 f i BootEncryption.obj
 0001:0000efc0       ?overflow@?$basic_stringbuf@_WU?$char_traits@_W@std@@V?$allocator@_W@2@@std@@MAEGG@Z 0040ffc0 f i BootEncryption.obj
 0001:0000f1b0       ?_Buynode@?$list@UPartition@CipherShed@@V?$allocator@UPartition@CipherShed@@@std@@@std@@IAEPAU_Node@?$_List_nod@UPartition@CipherShed@@V?$allocator@UPartition@CipherShed@@@std@@@2@XZ 004101b0 f i BootEncryption.obj
 0001:0000f1d0       ?_Put@?$num_put@DV?$ostreambuf_iterator@DU?$char_traits@D@std@@@std@@@std@@ABA?AV?$ostreambuf_iterator@DU?$char_traits@D@std@@@2@V32@PBDI@Z 004101d0 f i BootEncryption.obj
 0001:0000f1d0       ?_Putc@?$num_put@DV?$ostreambuf_iterator@DU?$char_traits@D@std@@@std@@@std@@ABA?AV?$ostreambuf_iterator@DU?$char_traits@D@std@@@2@V32@PBDI@Z 004101d0 f i BootEncryption.obj
 0001:0000f240       ?_Rep@?$num_put@DV?$ostreambuf_iterator@DU?$char_traits@D@std@@@std@@@std@@ABA?AV?$ostreambuf_iterator@DU?$char_traits@D@std@@@2@V32@DI@Z 00410240 f i BootEncryption.obj
 0001:0000f2b0       ?_Putgrouped@?$num_put@DV?$ostreambuf_iterator@DU?$char_traits@D@std@@@std@@@std@@ABA?AV?$ostreambuf_iterator@DU?$char_traits@D@std@@@2@V32@PBDID@Z 004102b0 f i BootEncryption.obj
 0001:0000f350       ??0?$numpunct@D@std@@QAE@ABV_Locinfo@1@I_N@Z 00410350 f i BootEncryption.obj
 0001:0000f3c0       ?do_decimal_point@?$numpunct@D@std@@MBEDXZ 004103c0 f i BootEncryption.obj
 0001:0000f3d0       ?do_thousands_sep@?$numpunct@D@std@@MBEDXZ 004103d0 f i BootEncryption.obj
 0001:0000f3e0       ??_G?$numpunct@D@std@@MAEPAXI@Z 004103e0 f i BootEncryption.obj
 0001:0000f3e0       ??_E?$numpunct@D@std@@MAEPAXI@Z 004103e0 f i BootEncryption.obj
 0001:0000f430       ??_D?$basic_stringstream@DU?$char_traits@D@std@@V?$allocator@D@2@@std@@QAEXXZ 00410430 f i BootEncryption.obj
 0001:0000f450       ??_D?$basic_stringstream@_WU?$char_traits@_W@std@@V?$allocator@_W@2@@std@@QAEXXZ 00410450 f i BootEncryption.obj
 0001:0000f470       ??_E?$basic_stringstream@DU?$char_traits@D@std@@V?$allocator@D@2@@std@@UAEPAXI@Z 00410470 f i BootEncryption.obj
 0001:0000f470       ??_G?$basic_stringstream@DU?$char_traits@D@std@@V?$allocator@D@2@@std@@UAEPAXI@Z 00410470 f i BootEncryption.obj
 0001:0000f4b0       ??_E?$basic_stringstream@_WU?$char_traits@_W@std@@V?$allocator@_W@2@@std@@UAEPAXI@Z 004104b0 f i BootEncryption.obj
 0001:0000f4b0       ??_G?$basic_stringstream@_WU?$char_traits@_W@std@@V?$allocator@_W@2@@std@@UAEPAXI@Z 004104b0 f i BootEncryption.obj
 0001:0000f4f0       ??0?$basic_stringbuf@DU?$char_traits@D@std@@V?$allocator@D@2@@std@@QAE@H@Z 004104f0 f i BootEncryption.obj
 0001:0000f570       ?falsename@?$numpunct@D@std@@QBE?AV?$basic_string@DU?$char_traits@D@std@@V?$allocator@D@2@@2@XZ 00410570 f i BootEncryption.obj
 0001:0000f590       ?truename@?$numpunct@D@std@@QBE?AV?$basic_string@DU?$char_traits@D@std@@V?$allocator@D@2@@2@XZ 00410590 f i BootEncryption.obj
 0001:0000f5b0       ?insert@?$basic_string@DU?$char_traits@D@std@@V?$allocator@D@2@@std@@QAEAAV12@IID@Z 004105b0 f i BootEncryption.obj
 0001:0000f6b0       ?grouping@?$numpunct@D@std@@QBE?AV?$basic_string@DU?$char_traits@D@std@@V?$allocator@D@2@@2@XZ 004106b0 f i BootEncryption.obj
 0001:0000f6d0       ?append@?$basic_string@_WU?$char_traits@_W@std@@V?$allocator@_W@2@@std@@QAEAAV12@ABV12@II@Z 004106d0 f i BootEncryption.obj
 0001:0000f7e0       ?append@?$basic_string@_WU?$char_traits@_W@std@@V?$allocator@_W@2@@std@@QAEAAV12@PB_WI@Z 004107e0 f i BootEncryption.obj
 0001:0000f900       ?what@logic_error@std@@UBEPBDXZ 00410900 f i BootEncryption.obj
 0001:0000f900       ?what@runtime_error@std@@UBEPBDXZ 00410900 f i BootEncryption.obj
 0001:0000f910       ??_Elogic_error@std@@UAEPAXI@Z 00410910 f i BootEncryption.obj
 0001:0000f910       ??_Gout_of_range@std@@UAEPAXI@Z 00410910 f i Dictionary.obj
 0001:0000f910       ??_Glogic_error@std@@UAEPAXI@Z 00410910 f i BootEncryption.obj
 0001:0000f910       ??_Elength_error@std@@UAEPAXI@Z 00410910 f i BootEncryption.obj
 0001:0000f910       ??_Eout_of_range@std@@UAEPAXI@Z 00410910 f i Dictionary.obj
 0001:0000f910       ??_Glength_error@std@@UAEPAXI@Z 00410910 f i BootEncryption.obj
 0001:0000f960       ??0_Locinfo@std@@QAE@ABV?$basic_string@DU?$char_traits@D@std@@V?$allocator@D@2@@1@@Z 00410960 f i BootEncryption.obj
 0001:0000f9f0       ??1_Locinfo@std@@QAE@XZ    004109f0 f i BootEncryption.obj
 0001:0000fad0       ?Show@ErrorException@CipherShed@@UBEXPAUHWND__@@@Z 00410ad0 f i BootEncryption.obj
 0001:0000fb10       ??1File@CipherShed@@QAE@XZ 00410b10 f i BootEncryption.obj
 0001:0000fb10       ??1Device@CipherShed@@QAE@XZ 00410b10 f i BootEncryption.obj
 0001:0000fb60       ??1Partition@CipherShed@@QAE@XZ 00410b60 f i BootEncryption.obj
 0001:0000fc10       ?append@?$basic_string@DU?$char_traits@D@std@@V?$allocator@D@2@@std@@QAEAAV12@ID@Z 00410c10 f i BootEncryption.obj
 0001:0000fcc0       ??0?$list@UPartition@CipherShed@@V?$allocator@UPartition@CipherShed@@@std@@@std@@QAE@XZ 00410cc0 f i BootEncryption.obj
 0001:0000fd30       ??$?HDU?$char_traits@D@std@@V?$allocator@D@1@@std@@YA?AV?$basic_string@DU?$char_traits@D@std@@V?$allocator@D@2@@0@ABV10@0@Z 00410d30 f i BootEncryption.obj
 0001:0000fde0       ??$?HDU?$char_traits@D@std@@V?$allocator@D@1@@std@@YA?AV?$basic_string@DU?$char_traits@D@std@@V?$allocator@D@2@@0@ABV10@D@Z 00410de0 f i BootEncryption.obj
 0001:0000fe90       ??0logic_error@std@@QAE@ABV?$basic_string@DU?$char_traits@D@std@@V?$allocator@D@2@@1@@Z 00410e90 f i BootEncryption.obj
 0001:0000ff00       ??0length_error@std@@QAE@ABV?$basic_string@DU?$char_traits@D@std@@V?$allocator@D@2@@1@@Z 00410f00 f i BootEncryption.obj
 0001:0000ff20       ??1out_of_range@std@@UAE@XZ 00410f20 f i Dictionary.obj
 0001:0000ff20       ??1length_error@std@@UAE@XZ 00410f20 f i BootEncryption.obj
 0001:0000ff60       ??0runtime_error@std@@QAE@ABV?$basic_string@DU?$char_traits@D@std@@V?$allocator@D@2@@1@@Z 00410f60 f i BootEncryption.obj
 0001:0000ffd0       ?name@locale@std@@QBE?AV?$basic_string@DU?$char_traits@D@std@@V?$allocator@D@2@@2@XZ 00410fd0 f i BootEncryption.obj
 0001:00010000       ?_Getcat@?$ctype@D@std@@SAIPAPBVfacet@locale@2@PBV42@@Z 00411000 f i BootEncryption.obj
 0001:00010100       ?_Getcat@?$ctype@_W@std@@SAIPAPBVfacet@locale@2@PBV42@@Z 00411100 f i BootEncryption.obj
 0001:00010200       ??1failure@ios_base@std@@UAE@XZ 00411200 f i BootEncryption.obj
 0001:00010240       ??_Eruntime_error@std@@UAEPAXI@Z 00411240 f i BootEncryption.obj
 0001:00010240       ??_Gruntime_error@std@@UAEPAXI@Z 00411240 f i BootEncryption.obj
 0001:00010240       ??_Gfailure@ios_base@std@@UAEPAXI@Z 00411240 f i BootEncryption.obj
 0001:00010240       ??_Efailure@ios_base@std@@UAEPAXI@Z 00411240 f i BootEncryption.obj
 0001:00010290       ??0Partition@CipherShed@@QAE@ABU01@@Z 00411290 f i BootEncryption.obj
 0001:000103c0       ??4?$basic_string@DU?$char_traits@D@std@@V?$allocator@D@2@@std@@QAEAAV01@PBD@Z 004113c0 f i BootEncryption.obj
 0001:000103c0       ?assign@?$basic_string@DU?$char_traits@D@std@@V?$allocator@D@2@@std@@QAEAAV12@PBD@Z 004113c0 f i Setup.obj
 0001:000103f0       ?substr@?$basic_string@_WU?$char_traits@_W@std@@V?$allocator@_W@2@@std@@QBE?AV12@II@Z 004113f0 f i BootEncryption.obj
 0001:00010430       ?str@?$basic_stringbuf@DU?$char_traits@D@std@@V?$allocator@D@2@@std@@QBE?AV?$basic_string@DU?$char_traits@D@std@@V?$allocator@D@2@@2@XZ 00411430 f i BootEncryption.obj
 0001:00010580       ?str@?$basic_stringbuf@_WU?$char_traits@_W@std@@V?$allocator@_W@2@@std@@QBE?AV?$basic_string@_WU?$char_traits@_W@std@@V?$allocator@_W@2@@2@XZ 00411580 f i BootEncryption.obj
 0001:000106f0       ?_Incsize@?$list@UPartition@CipherShed@@V?$allocator@UPartition@CipherShed@@@std@@@std@@IAEXI@Z 004116f0 f i BootEncryption.obj
 0001:00010790       ??0logic_error@std@@QAE@ABV01@@Z 00411790 f i BootEncryption.obj
 0001:00010810       ?do_grouping@?$numpunct@D@std@@MBE?AV?$basic_string@DU?$char_traits@D@std@@V?$allocator@D@2@@2@XZ 00411810 f i BootEncryption.obj
 0001:00010860       ?do_falsename@?$numpunct@D@std@@MBE?AV?$basic_string@DU?$char_traits@D@std@@V?$allocator@D@2@@2@XZ 00411860 f i BootEncryption.obj
 0001:000108b0       ?do_truename@?$numpunct@D@std@@MBE?AV?$basic_string@DU?$char_traits@D@std@@V?$allocator@D@2@@2@XZ 004118b0 f i BootEncryption.obj
 0001:00010900       ??0length_error@std@@QAE@ABV01@@Z 00411900 f i BootEncryption.obj
 0001:00010920       ??$use_facet@V?$ctype@D@std@@@std@@YAABV?$ctype@D@0@ABVlocale@0@@Z 00411920 f i BootEncryption.obj
 0001:00010a70       ??$use_facet@V?$ctype@_W@std@@@std@@YAABV?$ctype@_W@0@ABVlocale@0@@Z 00411a70 f i BootEncryption.obj
 0001:00010bc0       ??$?HDU?$char_traits@D@std@@V?$allocator@D@1@@std@@YA?AV?$basic_string@DU?$char_traits@D@std@@V?$allocator@D@2@@0@PBDABV10@@Z 00411bc0 f i BootEncryption.obj
 0001:00010c80       ??$?H_WU?$char_traits@_W@std@@V?$allocator@_W@1@@std@@YA?AV?$basic_string@_WU?$char_traits@_W@std@@V?$allocator@_W@2@@0@ABV10@PB_W@Z 00411c80 f i BootEncryption.obj
 0001:00010d50       ??$_Construct@UPartition@CipherShed@@U12@@std@@YAXPAUPartition@CipherShed@@ABU12@@Z 00411d50 f i BootEncryption.obj
 0001:00010db0       ?_Getcat@?$num_put@DV?$ostreambuf_iterator@DU?$char_traits@D@std@@@std@@@std@@SAIPAPBVfacet@locale@2@PBV42@@Z 00411db0 f i BootEncryption.obj
 0001:00010ec0       ?_Getcat@?$numpunct@D@std@@SAIPAPBVfacet@locale@2@PBV42@@Z 00411ec0 f i BootEncryption.obj
 0001:00010fd0       ?clear@ios_base@std@@QAEXH_N@Z 00411fd0 f i BootEncryption.obj
 0001:00011100       ??0runtime_error@std@@QAE@ABV01@@Z 00412100 f i BootEncryption.obj
 0001:00011180       ??0failure@ios_base@std@@QAE@ABV012@@Z 00412180 f i BootEncryption.obj
 0001:000111a0       ?_Init@ios_base@std@@IAEXXZ 004121a0 f i BootEncryption.obj
 0001:00011220       ?Show@ParameterIncorrect@CipherShed@@UBEXPAUHWND__@@@Z 00412220 f i BootEncryption.obj
 0001:00011350       ??0File@CipherShed@@QAE@V?$basic_string@DU?$char_traits@D@std@@V?$allocator@D@2@@std@@_N1@Z 00412350 f   BootEncryption.obj
 0001:00011480       ??0Device@CipherShed@@QAE@V?$basic_string@DU?$char_traits@D@std@@V?$allocator@D@2@@std@@_N@Z 00412480 f   BootEncryption.obj
 0001:00011620       ??4Partition@CipherShed@@QAEAAU01@ABU01@@Z 00412620 f i BootEncryption.obj
 0001:00011680       ?GetWindowsDirectoryA@BootEncryption@CipherShed@@IAE?AV?$basic_string@DU?$char_traits@D@std@@V?$allocator@D@2@@std@@XZ 00412680 f   BootEncryption.obj
 0001:00011730       ?GetTempPathA@BootEncryption@CipherShed@@QAE?AV?$basic_string@DU?$char_traits@D@std@@V?$allocator@D@2@@std@@XZ 00412730 f   BootEncryption.obj
 0001:000117e0       ?GetSystemLoaderBackupPath@BootEncryption@CipherShed@@IAE?AV?$basic_string@DU?$char_traits@D@std@@V?$allocator@D@2@@std@@XZ 004127e0 f   BootEncryption.obj
 0001:00011980       ?RenameDeprecatedSystemLoaderBackup@BootEncryption@CipherShed@@QAEXXZ 00412980 f   BootEncryption.obj
 0001:00011c10       ?str@?$basic_stringstream@DU?$char_traits@D@std@@V?$allocator@D@2@@std@@QBE?AV?$basic_string@DU?$char_traits@D@std@@V?$allocator@D@2@@2@XZ 00412c10 f i BootEncryption.obj
 0001:00011c30       ?str@?$basic_stringstream@_WU?$char_traits@_W@std@@V?$allocator@_W@2@@std@@QBE?AV?$basic_string@_WU?$char_traits@_W@std@@V?$allocator@_W@2@@2@XZ 00412c30 f i BootEncryption.obj
 0001:00011c50       ?widen@?$basic_ios@DU?$char_traits@D@std@@@std@@QBEDD@Z 00412c50 f i BootEncryption.obj
 0001:00011d10       ?widen@?$basic_ios@_WU?$char_traits@_W@std@@@std@@QBE_WD@Z 00412d10 f i BootEncryption.obj
 0001:00011dd0       ??$use_facet@V?$num_put@DV?$ostreambuf_iterator@DU?$char_traits@D@std@@@std@@@std@@@std@@YAABV?$num_put@DV?$ostreambuf_iterator@DU?$char_traits@D@std@@@std@@@0@ABVlocale@0@@Z 00412dd0 f i BootEncryption.obj
 0001:00011f20       ??$use_facet@V?$numpunct@D@std@@@std@@YAABV?$numpunct@D@0@ABVlocale@0@@Z 00412f20 f i BootEncryption.obj
 0001:00012070       ?SetDriverServiceStartType@BootEncryption@CipherShed@@QAEXK@Z 00413070 f   BootEncryption.obj
 0001:000123e0       ?erase@?$list@UPartition@CipherShed@@V?$allocator@UPartition@CipherShed@@@std@@@std@@QAE?AV?$_Iterator@$00@12@V?$_Const_iterator@$00@12@@Z 004133e0 f i BootEncryption.obj
 0001:00012470       ?do_put@?$num_put@DV?$ostreambuf_iterator@DU?$char_traits@D@std@@@std@@@std@@MBE?AV?$ostreambuf_iterator@DU?$char_traits@D@std@@@2@V32@AAVios_base@2@D_N@Z 00413470 f i BootEncryption.obj
 0001:00012690       ?clear@?$list@UPartition@CipherShed@@V?$allocator@UPartition@CipherShed@@@std@@@std@@QAEXXZ 00413690 f i BootEncryption.obj
 0001:000126d0       ?_Buynode@?$list@UPartition@CipherShed@@V?$allocator@UPartition@CipherShed@@@std@@@std@@IAEPAU_Node@?$_List_nod@UPartition@CipherShed@@V?$allocator@UPartition@CipherShed@@@std@@@2@PAU342@0ABUPartition@CipherShed@@@Z 004136d0 f i BootEncryption.obj
 0001:00012770       ?_Fput@?$num_put@DV?$ostreambuf_iterator@DU?$char_traits@D@std@@@std@@@std@@ABA?AV?$ostreambuf_iterator@DU?$char_traits@D@std@@@2@V32@AAVios_base@2@DPBDIIII@Z 00413770 f i BootEncryption.obj
 0001:00012e00       ?_Iput@?$num_put@DV?$ostreambuf_iterator@DU?$char_traits@D@std@@@std@@@std@@ABA?AV?$ostreambuf_iterator@DU?$char_traits@D@std@@@2@V32@AAVios_base@2@DPADI@Z 00413e00 f i BootEncryption.obj
 0001:000130f0       ?flush@?$basic_ostream@DU?$char_traits@D@std@@@std@@QAEAAV12@XZ 004140f0 f i BootEncryption.obj
 0001:000130f0       ?flush@?$basic_ostream@_WU?$char_traits@_W@std@@@std@@QAEAAV12@XZ 004140f0 f i BootEncryption.obj
 0001:00013140       ?_Tidy@?$list@UPartition@CipherShed@@V?$allocator@UPartition@CipherShed@@@std@@@std@@IAEXXZ 00414140 f i BootEncryption.obj
 0001:00013160       ??0sentry@?$basic_ostream@_WU?$char_traits@_W@std@@@std@@QAE@AAV12@@Z 00414160 f i BootEncryption.obj
 0001:00013160       ??0sentry@?$basic_ostream@DU?$char_traits@D@std@@@std@@QAE@AAV12@@Z 00414160 f i BootEncryption.obj
 0001:000131f0       ?do_put@?$num_put@DV?$ostreambuf_iterator@DU?$char_traits@D@std@@@std@@@std@@MBE?AV?$ostreambuf_iterator@DU?$char_traits@D@std@@@2@V32@AAVios_base@2@DJ@Z 004141f0 f i BootEncryption.obj
 0001:00013270       ?do_put@?$num_put@DV?$ostreambuf_iterator@DU?$char_traits@D@std@@@std@@@std@@MBE?AV?$ostreambuf_iterator@DU?$char_traits@D@std@@@2@V32@AAVios_base@2@DK@Z 00414270 f i BootEncryption.obj
 0001:000132f0       ?do_put@?$num_put@DV?$ostreambuf_iterator@DU?$char_traits@D@std@@@std@@@std@@MBE?AV?$ostreambuf_iterator@DU?$char_traits@D@std@@@2@V32@AAVios_base@2@D_J@Z 004142f0 f i BootEncryption.obj
 0001:00013380       ?do_put@?$num_put@DV?$ostreambuf_iterator@DU?$char_traits@D@std@@@std@@@std@@MBE?AV?$ostreambuf_iterator@DU?$char_traits@D@std@@@2@V32@AAVios_base@2@D_K@Z 00414380 f i BootEncryption.obj
 0001:00013410       ?do_put@?$num_put@DV?$ostreambuf_iterator@DU?$char_traits@D@std@@@std@@@std@@MBE?AV?$ostreambuf_iterator@DU?$char_traits@D@std@@@2@V32@AAVios_base@2@DN@Z 00414410 f i BootEncryption.obj
 0001:00013600       ?do_put@?$num_put@DV?$ostreambuf_iterator@DU?$char_traits@D@std@@@std@@@std@@MBE?AV?$ostreambuf_iterator@DU?$char_traits@D@std@@@2@V32@AAVios_base@2@DO@Z 00414600 f i BootEncryption.obj
 0001:000137e0       ?do_put@?$num_put@DV?$ostreambuf_iterator@DU?$char_traits@D@std@@@std@@@std@@MBE?AV?$ostreambuf_iterator@DU?$char_traits@D@std@@@2@V32@AAVios_base@2@DPBX@Z 004147e0 f i BootEncryption.obj
 0001:00013850       ?_Osfx@?$basic_ostream@_WU?$char_traits@_W@std@@@std@@QAEXXZ 00414850 f i BootEncryption.obj
 0001:00013850       ?_Osfx@?$basic_ostream@DU?$char_traits@D@std@@@std@@QAEXXZ 00414850 f i BootEncryption.obj
 0001:000138b0       ??$_Insert@V?$_Const_iterator@$00@?$list@UPartition@CipherShed@@V?$allocator@UPartition@CipherShed@@@std@@@std@@@?$list@UPartition@CipherShed@@V?$allocator@UPartition@CipherShed@@@std@@@std@@QAEXV?$_Const_iterator@$00@01@00Uforward_iterator_tag@1@@Z 004148b0 f i BootEncryption.obj
 0001:00013a10       ??1?$list@UPartition@CipherShed@@V?$allocator@UPartition@CipherShed@@@std@@@std@@QAE@XZ 00414a10 f i BootEncryption.obj
 0001:00013a40       ??0?$basic_iostream@DU?$char_traits@D@std@@@std@@QAE@PAV?$basic_streambuf@DU?$char_traits@D@std@@@1@@Z 00414a40 f i BootEncryption.obj
 0001:00013b20       ??0?$basic_iostream@_WU?$char_traits@_W@std@@@std@@QAE@PAV?$basic_streambuf@_WU?$char_traits@_W@std@@@1@@Z 00414b20 f i BootEncryption.obj
 0001:00013c00       ??1sentry@?$basic_ostream@_WU?$char_traits@_W@std@@@std@@QAE@XZ 00414c00 f i BootEncryption.obj
 0001:00013c00       ??1sentry@?$basic_ostream@DU?$char_traits@D@std@@@std@@QAE@XZ 00414c00 f i BootEncryption.obj
 0001:00013c70       ??$?6U?$char_traits@D@std@@@std@@YAAAV?$basic_ostream@DU?$char_traits@D@std@@@0@AAV10@PBD@Z 00414c70 f i BootEncryption.obj
 0001:00013e80       ??$?6_WU?$char_traits@_W@std@@@std@@YAAAV?$basic_ostream@_WU?$char_traits@_W@std@@@0@AAV10@PBD@Z 00414e80 f i BootEncryption.obj
 0001:00014150       ??0SystemDriveConfiguration@CipherShed@@QAE@XZ 00415150 f i BootEncryption.obj
 0001:00014230       ??1SystemDriveConfiguration@CipherShed@@QAE@XZ 00415230 f i BootEncryption.obj
 0001:000142c0       ??1BootEncryption@CipherShed@@QAE@XZ 004152c0 f   BootEncryption.obj
 0001:000142f0       ??1?$ContainerForward@V?$list@UPartition@CipherShed@@V?$allocator@UPartition@CipherShed@@@std@@@std@@@ForEach@CipherShed@@UAE@XZ 004152f0 f i BootEncryption.obj
 0001:00014330       ??6?$basic_ostream@DU?$char_traits@D@std@@@std@@QAEAAV01@H@Z 00415330 f i BootEncryption.obj
 0001:00014480       ??0?$list@UPartition@CipherShed@@V?$allocator@UPartition@CipherShed@@@std@@@std@@QAE@ABV01@@Z 00415480 f i BootEncryption.obj
 0001:00014530       ??0?$basic_stringstream@DU?$char_traits@D@std@@V?$allocator@D@2@@std@@QAE@H@Z 00415530 f i BootEncryption.obj
 0001:000145d0       ??0?$ContainerForward@V?$list@UPartition@CipherShed@@V?$allocator@UPartition@CipherShed@@@std@@@std@@@ForEach@CipherShed@@QAE@ABV?$list@UPartition@CipherShed@@V?$allocator@UPartition@CipherShed@@@std@@@std@@@Z 004155d0 f i BootEncryption.obj
 0001:00014660       ?Next@?$ContainerForward@V?$list@UPartition@CipherShed@@V?$allocator@UPartition@CipherShed@@@std@@@std@@@ForEach@CipherShed@@UBEXXZ 00415660 f i BootEncryption.obj
 0001:00014660       ?Next@?$ContainerForward@V?$list@KV?$allocator@K@std@@@std@@@ForEach@CipherShed@@UBEXXZ 00415660 f i Dlgcode.obj
 0001:000146a0       ??_E?$ContainerForward@V?$list@UPartition@CipherShed@@V?$allocator@UPartition@CipherShed@@@std@@@std@@@ForEach@CipherShed@@UAEPAXI@Z 004156a0 f i BootEncryption.obj
 0001:000146a0       ??_G?$ContainerForward@V?$list@UPartition@CipherShed@@V?$allocator@UPartition@CipherShed@@@std@@@std@@@ForEach@CipherShed@@UAEPAXI@Z 004156a0 f i BootEncryption.obj
 0001:000146f0       ??0BootEncryption@CipherShed@@QAE@PAUHWND__@@@Z 004156f0 f   BootEncryption.obj
 0001:00014770       ?GetDrivePartitions@BootEncryption@CipherShed@@IAE?AV?$list@UPartition@CipherShed@@V?$allocator@UPartition@CipherShed@@@std@@@std@@H@Z 00415770 f   BootEncryption.obj
 0001:00014e40       ??0SystemDriveConfiguration@CipherShed@@QAE@ABU01@@Z 00415e40 f i BootEncryption.obj
 0001:00014f50       ??$GetContainerForward@V?$list@UPartition@CipherShed@@V?$allocator@UPartition@CipherShed@@@std@@@std@@@ForEach@CipherShed@@SA?AU?$ContainerForward@V?$list@UPartition@CipherShed@@V?$allocator@UPartition@CipherShed@@@std@@@std@@@01@ABV?$list@UPartition@CipherShed@@V?$allocator@UPartition@CipherShed@@@std@@@std@@@Z 00415f50 f i BootEncryption.obj
 0001:00014f70       ?Write@File@CipherShed@@QAEXPAEK@Z 00415f70 f   BootEncryption.obj
 0001:000150d0       ??4SystemDriveConfiguration@CipherShed@@QAEAAU01@ABU01@@Z 004160d0 f i BootEncryption.obj
 0001:000151c0       ?RegisterFilter@BootEncryption@CipherShed@@IAEX_NW4FilterType@12@PBU_GUID@@@Z 004161c0 f   BootEncryption.obj
 0001:00015940       ?RegisterFilterDriver@BootEncryption@CipherShed@@QAEX_NW4FilterType@12@@Z 00416940 f   BootEncryption.obj
 0001:00015a00       ?GetSystemDriveConfiguration@BootEncryption@CipherShed@@QAE?AUSystemDriveConfiguration@2@XZ 00416a00 f   BootEncryption.obj
 0001:00016760       ?CreateBootLoaderInMemory@BootEncryption@CipherShed@@IAEXPAEI_N1@Z 00417760 f   BootEncryption.obj
 0001:00016c20       ??1ErrorException@CipherShed@@QAE@XZ 00417c20 f i BootEncryption.obj
 0001:00016c50       ??0ErrorException@CipherShed@@QAE@ABU01@@Z 00417c50 f i BootEncryption.obj
 0001:00016c90       ?InstallBootLoader@BootEncryption@CipherShed@@QAEX_N0@Z 00417c90 f   BootEncryption.obj
 0001:00017090       _GetCrc32                  00418090 f   Crc.obj
 0001:000170a0       _AddPoolData               004180a0 f   Dictionary.obj
 0001:00017110       ??8const_iterator@?$_Tree@V?$_Tmap_traits@HPAXU?$less@H@std@@V?$allocator@U?$pair@$$CBHPAX@std@@@2@$0A@@std@@@std@@QBE_NABV012@@Z 00418110 f i Dictionary.obj
 0001:00017110       ??8const_iterator@?$_Tree@V?$_Tmap_traits@V?$basic_string@DU?$char_traits@D@std@@V?$allocator@D@2@@std@@PAXU?$less@V?$basic_string@DU?$char_traits@D@std@@V?$allocator@D@2@@std@@@2@V?$allocator@U?$pair@$$CBV?$basic_string@DU?$char_traits@D@std@@V?$allocator@D@2@@std@@PAX@std@@@2@$0A@@std@@@std@@QBE_NABV012@@Z 00418110 f i Dictionary.obj
 0001:00017140       ?_Max@?$_Tree@V?$_Tmap_traits@V?$basic_string@DU?$char_traits@D@std@@V?$allocator@D@2@@std@@PAXU?$less@V?$basic_string@DU?$char_traits@D@std@@V?$allocator@D@2@@std@@@2@V?$allocator@U?$pair@$$CBV?$basic_string@DU?$char_traits@D@std@@V?$allocator@D@2@@std@@PAX@std@@@2@$0A@@std@@@std@@KAPAU_Node@?$_Tree_nod@V?$_Tmap_traits@V?$basic_string@DU?$char_traits@D@std@@V?$allocator@D@2@@std@@PAXU?$less@V?$basic_string@DU?$char_traits@D@std@@V?$allocator@D@2@@std@@@2@V?$allocator@U?$pair@$$CBV?$basic_string@DU?$char_traits@D@std@@V?$allocator@D@2@@std@@PAX@std@@@2@$0A@@std@@@2@PAU342@@Z 00418140 f i Dictionary.obj
 0001:00017160       ?_Min@?$_Tree@V?$_Tmap_traits@V?$basic_string@DU?$char_traits@D@std@@V?$allocator@D@2@@std@@PAXU?$less@V?$basic_string@DU?$char_traits@D@std@@V?$allocator@D@2@@std@@@2@V?$allocator@U?$pair@$$CBV?$basic_string@DU?$char_traits@D@std@@V?$allocator@D@2@@std@@PAX@std@@@2@$0A@@std@@@std@@KAPAU_Node@?$_Tree_nod@V?$_Tmap_traits@V?$basic_string@DU?$char_traits@D@std@@V?$allocator@D@2@@std@@PAXU?$less@V?$basic_string@DU?$char_traits@D@std@@V?$allocator@D@2@@std@@@2@V?$allocator@U?$pair@$$CBV?$basic_string@DU?$char_traits@D@std@@V?$allocator@D@2@@std@@PAX@std@@@2@$0A@@std@@@2@PAU342@@Z 00418160 f i Dictionary.obj
 0001:00017180       ?_Max@?$_Tree@V?$_Tmap_traits@HPAXU?$less@H@std@@V?$allocator@U?$pair@$$CBHPAX@std@@@2@$0A@@std@@@std@@KAPAU_Node@?$_Tree_nod@V?$_Tmap_traits@HPAXU?$less@H@std@@V?$allocator@U?$pair@$$CBHPAX@std@@@2@$0A@@std@@@2@PAU342@@Z 00418180 f i Dictionary.obj
 0001:000171a0       ?_Min@?$_Tree@V?$_Tmap_traits@HPAXU?$less@H@std@@V?$allocator@U?$pair@$$CBHPAX@std@@@2@$0A@@std@@@std@@KAPAU_Node@?$_Tree_nod@V?$_Tmap_traits@HPAXU?$less@H@std@@V?$allocator@U?$pair@$$CBHPAX@std@@@2@$0A@@std@@@2@PAU342@@Z 004181a0 f i Dictionary.obj
 0001:000171c0       ?compare@?$basic_string@DU?$char_traits@D@std@@V?$allocator@D@2@@std@@QBEHIIPBDI@Z 004181c0 f i Dictionary.obj
 0001:00017230       ?_Lrotate@?$_Tree@V?$_Tmap_traits@V?$basic_string@DU?$char_traits@D@std@@V?$allocator@D@2@@std@@PAXU?$less@V?$basic_string@DU?$char_traits@D@std@@V?$allocator@D@2@@std@@@2@V?$allocator@U?$pair@$$CBV?$basic_string@DU?$char_traits@D@std@@V?$allocator@D@2@@std@@PAX@std@@@2@$0A@@std@@@std@@IAEXPAU_Node@?$_Tree_nod@V?$_Tmap_traits@V?$basic_string@DU?$char_traits@D@std@@V?$allocator@D@2@@std@@PAXU?$less@V?$basic_string@DU?$char_traits@D@std@@V?$allocator@D@2@@std@@@2@V?$allocator@U?$pair@$$CBV?$basic_string@DU?$char_traits@D@std@@V?$allocator@D@2@@std@@PAX@std@@@2@$0A@@std@@@2@@Z 00418230 f i Dictionary.obj
 0001:00017280       ?_Rrotate@?$_Tree@V?$_Tmap_traits@V?$basic_string@DU?$char_traits@D@std@@V?$allocator@D@2@@std@@PAXU?$less@V?$basic_string@DU?$char_traits@D@std@@V?$allocator@D@2@@std@@@2@V?$allocator@U?$pair@$$CBV?$basic_string@DU?$char_traits@D@std@@V?$allocator@D@2@@std@@PAX@std@@@2@$0A@@std@@@std@@IAEXPAU_Node@?$_Tree_nod@V?$_Tmap_traits@V?$basic_string@DU?$char_traits@D@std@@V?$allocator@D@2@@std@@PAXU?$less@V?$basic_string@DU?$char_traits@D@std@@V?$allocator@D@2@@std@@@2@V?$allocator@U?$pair@$$CBV?$basic_string@DU?$char_traits@D@std@@V?$allocator@D@2@@std@@PAX@std@@@2@$0A@@std@@@2@@Z 00418280 f i Dictionary.obj
 0001:000172e0       ?_Lrotate@?$_Tree@V?$_Tmap_traits@HPAXU?$less@H@std@@V?$allocator@U?$pair@$$CBHPAX@std@@@2@$0A@@std@@@std@@IAEXPAU_Node@?$_Tree_nod@V?$_Tmap_traits@HPAXU?$less@H@std@@V?$allocator@U?$pair@$$CBHPAX@std@@@2@$0A@@std@@@2@@Z 004182e0 f i Dictionary.obj
 0001:00017330       ?_Rrotate@?$_Tree@V?$_Tmap_traits@HPAXU?$less@H@std@@V?$allocator@U?$pair@$$CBHPAX@std@@@2@$0A@@std@@@std@@IAEXPAU_Node@?$_Tree_nod@V?$_Tmap_traits@HPAXU?$less@H@std@@V?$allocator@U?$pair@$$CBHPAX@std@@@2@$0A@@std@@@2@@Z 00418330 f i Dictionary.obj
 0001:00017390       ?_Dec@const_iterator@?$_Tree@V?$_Tmap_traits@V?$basic_string@DU?$char_traits@D@std@@V?$allocator@D@2@@std@@PAXU?$less@V?$basic_string@DU?$char_traits@D@std@@V?$allocator@D@2@@std@@@2@V?$allocator@U?$pair@$$CBV?$basic_string@DU?$char_traits@D@std@@V?$allocator@D@2@@std@@PAX@std@@@2@$0A@@std@@@std@@QAEXXZ 00418390 f i Dictionary.obj
 0001:00017420       ?_Inc@const_iterator@?$_Tree@V?$_Tmap_traits@V?$basic_string@DU?$char_traits@D@std@@V?$allocator@D@2@@std@@PAXU?$less@V?$basic_string@DU?$char_traits@D@std@@V?$allocator@D@2@@std@@@2@V?$allocator@U?$pair@$$CBV?$basic_string@DU?$char_traits@D@std@@V?$allocator@D@2@@std@@PAX@std@@@2@$0A@@std@@@std@@QAEXXZ 00418420 f i Dictionary.obj
 0001:00017490       ?_Dec@const_iterator@?$_Tree@V?$_Tmap_traits@HPAXU?$less@H@std@@V?$allocator@U?$pair@$$CBHPAX@std@@@2@$0A@@std@@@std@@QAEXXZ 00418490 f i Dictionary.obj
 0001:00017520       ?_Inc@const_iterator@?$_Tree@V?$_Tmap_traits@HPAXU?$less@H@std@@V?$allocator@U?$pair@$$CBHPAX@std@@@2@$0A@@std@@@std@@QAEXXZ 00418520 f i Dictionary.obj
 0001:00017590       ?_Erase@?$_Tree@V?$_Tmap_traits@HPAXU?$less@H@std@@V?$allocator@U?$pair@$$CBHPAX@std@@@2@$0A@@std@@@std@@IAEXPAU_Node@?$_Tree_nod@V?$_Tmap_traits@HPAXU?$less@H@std@@V?$allocator@U?$pair@$$CBHPAX@std@@@2@$0A@@std@@@2@@Z 00418590 f i Dictionary.obj
 0001:000175d0       ?_Buynode@?$_Tree@V?$_Tmap_traits@V?$basic_string@DU?$char_traits@D@std@@V?$allocator@D@2@@std@@PAXU?$less@V?$basic_string@DU?$char_traits@D@std@@V?$allocator@D@2@@std@@@2@V?$allocator@U?$pair@$$CBV?$basic_string@DU?$char_traits@D@std@@V?$allocator@D@2@@std@@PAX@std@@@2@$0A@@std@@@std@@IAEPAU_Node@?$_Tree_nod@V?$_Tmap_traits@V?$basic_string@DU?$char_traits@D@std@@V?$allocator@D@2@@std@@PAXU?$less@V?$basic_string@DU?$char_traits@D@std@@V?$allocator@D@2@@std@@@2@V?$allocator@U?$pair@$$CBV?$basic_string@DU?$char_traits@D@std@@V?$allocator@D@2@@std@@PAX@std@@@2@$0A@@std@@@2@XZ 004185d0 f i Dictionary.obj
 0001:00017610       ?_Buynode@?$_Tree@V?$_Tmap_traits@HPAXU?$less@H@std@@V?$allocator@U?$pair@$$CBHPAX@std@@@2@$0A@@std@@@std@@IAEPAU_Node@?$_Tree_nod@V?$_Tmap_traits@HPAXU?$less@H@std@@V?$allocator@U?$pair@$$CBHPAX@std@@@2@$0A@@std@@@2@XZ 00418610 f i Dictionary.obj
 0001:00017650       ?_Buynode@?$_Tree@V?$_Tmap_traits@HPAXU?$less@H@std@@V?$allocator@U?$pair@$$CBHPAX@std@@@2@$0A@@std@@@std@@IAEPAU_Node@?$_Tree_nod@V?$_Tmap_traits@HPAXU?$less@H@std@@V?$allocator@U?$pair@$$CBHPAX@std@@@2@$0A@@std@@@2@PAU342@00ABU?$pair@$$CBHPAX@2@D@Z 00418650 f i Dictionary.obj
 0001:00017690       ??1?$basic_string@DU?$char_traits@D@std@@V?$allocator@D@2@@std@@QAE@XZ 00418690 f i Setup.obj
 0001:00017690       ??1?$pair@$$CBV?$basic_string@DU?$char_traits@D@std@@V?$allocator@D@2@@std@@PAX@std@@QAE@XZ 00418690 f i Dictionary.obj
 0001:000176c0       ??R?$less@V?$basic_string@DU?$char_traits@D@std@@V?$allocator@D@2@@std@@@std@@QBE_NABV?$basic_string@DU?$char_traits@D@std@@V?$allocator@D@2@@1@0@Z 004186c0 f i Dictionary.obj
 0001:00017700       ?_Lbound@?$_Tree@V?$_Tmap_traits@V?$basic_string@DU?$char_traits@D@std@@V?$allocator@D@2@@std@@PAXU?$less@V?$basic_string@DU?$char_traits@D@std@@V?$allocator@D@2@@std@@@2@V?$allocator@U?$pair@$$CBV?$basic_string@DU?$char_traits@D@std@@V?$allocator@D@2@@std@@PAX@std@@@2@$0A@@std@@@std@@IBEPAU_Node@?$_Tree_nod@V?$_Tmap_traits@V?$basic_string@DU?$char_traits@D@std@@V?$allocator@D@2@@std@@PAXU?$less@V?$basic_string@DU?$char_traits@D@std@@V?$allocator@D@2@@std@@@2@V?$allocator@U?$pair@$$CBV?$basic_string@DU?$char_traits@D@std@@V?$allocator@D@2@@std@@PAX@std@@@2@$0A@@std@@@2@ABV?$basic_string@DU?$char_traits@D@std@@V?$allocator@D@2@@2@@Z 00418700 f i Dictionary.obj
 0001:00017790       ?find@?$_Tree@V?$_Tmap_traits@V?$basic_string@DU?$char_traits@D@std@@V?$allocator@D@2@@std@@PAXU?$less@V?$basic_string@DU?$char_traits@D@std@@V?$allocator@D@2@@std@@@2@V?$allocator@U?$pair@$$CBV?$basic_string@DU?$char_traits@D@std@@V?$allocator@D@2@@std@@PAX@std@@@2@$0A@@std@@@std@@QAE?AViterator@12@ABV?$basic_string@DU?$char_traits@D@std@@V?$allocator@D@2@@2@@Z 00418790 f i Dictionary.obj
 0001:00017820       ?find@?$_Tree@V?$_Tmap_traits@HPAXU?$less@H@std@@V?$allocator@U?$pair@$$CBHPAX@std@@@2@$0A@@std@@@std@@QAE?AViterator@12@ABH@Z 00418820 f i Dictionary.obj
 0001:000178b0       ??0out_of_range@std@@QAE@ABV?$basic_string@DU?$char_traits@D@std@@V?$allocator@D@2@@1@@Z 004188b0 f i Dictionary.obj
 0001:000178d0       _GetDictionaryValueByInt   004188d0 f   Dictionary.obj
 0001:00017940       ?_Insert@?$_Tree@V?$_Tmap_traits@HPAXU?$less@H@std@@V?$allocator@U?$pair@$$CBHPAX@std@@@2@$0A@@std@@@std@@IAE?AViterator@12@_NPAU_Node@?$_Tree_nod@V?$_Tmap_traits@HPAXU?$less@H@std@@V?$allocator@U?$pair@$$CBHPAX@std@@@2@$0A@@std@@@2@ABU?$pair@$$CBHPAX@2@@Z 00418940 f i Dictionary.obj
 0001:00017b40       ?erase@?$_Tree@V?$_Tmap_traits@V?$basic_string@DU?$char_traits@D@std@@V?$allocator@D@2@@std@@PAXU?$less@V?$basic_string@DU?$char_traits@D@std@@V?$allocator@D@2@@std@@@2@V?$allocator@U?$pair@$$CBV?$basic_string@DU?$char_traits@D@std@@V?$allocator@D@2@@std@@PAX@std@@@2@$0A@@std@@@std@@QAE?AViterator@12@Vconst_iterator@12@@Z 00418b40 f i Dictionary.obj
 0001:00017e30       ?erase@?$_Tree@V?$_Tmap_traits@HPAXU?$less@H@std@@V?$allocator@U?$pair@$$CBHPAX@std@@@2@$0A@@std@@@std@@QAE?AViterator@12@Vconst_iterator@12@@Z 00418e30 f i Dictionary.obj
 0001:00018100       ??0_Node@?$_Tree_nod@V?$_Tmap_traits@V?$basic_string@DU?$char_traits@D@std@@V?$allocator@D@2@@std@@PAXU?$less@V?$basic_string@DU?$char_traits@D@std@@V?$allocator@D@2@@std@@@2@V?$allocator@U?$pair@$$CBV?$basic_string@DU?$char_traits@D@std@@V?$allocator@D@2@@std@@PAX@std@@@2@$0A@@std@@@std@@QAE@PAU012@00ABU?$pair@$$CBV?$basic_string@DU?$char_traits@D@std@@V?$allocator@D@2@@std@@PAX@2@D@Z 00419100 f i Dictionary.obj
 0001:00018160       ??0out_of_range@std@@QAE@ABV01@@Z 00419160 f i Dictionary.obj
 0001:00018180       _GetDictionaryValue        00419180 f   Dictionary.obj
 0001:00018240       ??0?$_Tree@V?$_Tmap_traits@V?$basic_string@DU?$char_traits@D@std@@V?$allocator@D@2@@std@@PAXU?$less@V?$basic_string@DU?$char_traits@D@std@@V?$allocator@D@2@@std@@@2@V?$allocator@U?$pair@$$CBV?$basic_string@DU?$char_traits@D@std@@V?$allocator@D@2@@std@@PAX@std@@@2@$0A@@std@@@std@@QAE@ABU?$less@V?$basic_string@DU?$char_traits@D@std@@V?$allocator@D@2@@std@@@1@ABV?$allocator@U?$pair@$$CBV?$basic_string@DU?$char_traits@D@std@@V?$allocator@D@2@@std@@PAX@std@@@1@@Z 00419240 f i Dictionary.obj
 0001:000182d0       ?_Erase@?$_Tree@V?$_Tmap_traits@V?$basic_string@DU?$char_traits@D@std@@V?$allocator@D@2@@std@@PAXU?$less@V?$basic_string@DU?$char_traits@D@std@@V?$allocator@D@2@@std@@@2@V?$allocator@U?$pair@$$CBV?$basic_string@DU?$char_traits@D@std@@V?$allocator@D@2@@std@@PAX@std@@@2@$0A@@std@@@std@@IAEXPAU_Node@?$_Tree_nod@V?$_Tmap_traits@V?$basic_string@DU?$char_traits@D@std@@V?$allocator@D@2@@std@@PAXU?$less@V?$basic_string@DU?$char_traits@D@std@@V?$allocator@D@2@@std@@@2@V?$allocator@U?$pair@$$CBV?$basic_string@DU?$char_traits@D@std@@V?$allocator@D@2@@std@@PAX@std@@@2@$0A@@std@@@2@@Z 004192d0 f i Dictionary.obj
 0001:00018330       ??0?$_Tree@V?$_Tmap_traits@HPAXU?$less@H@std@@V?$allocator@U?$pair@$$CBHPAX@std@@@2@$0A@@std@@@std@@QAE@ABU?$less@H@1@ABV?$allocator@U?$pair@$$CBHPAX@std@@@1@@Z 00419330 f i Dictionary.obj
 0001:000183c0       ?insert@?$_Tree@V?$_Tmap_traits@HPAXU?$less@H@std@@V?$allocator@U?$pair@$$CBHPAX@std@@@2@$0A@@std@@@std@@QAE?AU?$pair@Viterator@?$_Tree@V?$_Tmap_traits@HPAXU?$less@H@std@@V?$allocator@U?$pair@$$CBHPAX@std@@@2@$0A@@std@@@std@@_N@2@ABU?$pair@$$CBHPAX@2@@Z 004193c0 f i Dictionary.obj
 0001:000184b0       ?erase@?$_Tree@V?$_Tmap_traits@HPAXU?$less@H@std@@V?$allocator@U?$pair@$$CBHPAX@std@@@2@$0A@@std@@@std@@QAE?AViterator@12@Vconst_iterator@12@0@Z 004194b0 f i Dictionary.obj
 0001:00018590       ?_Buynode@?$_Tree@V?$_Tmap_traits@V?$basic_string@DU?$char_traits@D@std@@V?$allocator@D@2@@std@@PAXU?$less@V?$basic_string@DU?$char_traits@D@std@@V?$allocator@D@2@@std@@@2@V?$allocator@U?$pair@$$CBV?$basic_string@DU?$char_traits@D@std@@V?$allocator@D@2@@std@@PAX@std@@@2@$0A@@std@@@std@@IAEPAU_Node@?$_Tree_nod@V?$_Tmap_traits@V?$basic_string@DU?$char_traits@D@std@@V?$allocator@D@2@@std@@PAXU?$less@V?$basic_string@DU?$char_traits@D@std@@V?$allocator@D@2@@std@@@2@V?$allocator@U?$pair@$$CBV?$basic_string@DU?$char_traits@D@std@@V?$allocator@D@2@@std@@PAX@std@@@2@$0A@@std@@@2@PAU342@00ABU?$pair@$$CBV?$basic_string@DU?$char_traits@D@std@@V?$allocator@D@2@@std@@PAX@2@D@Z 00419590 f i Dictionary.obj
 0001:00018630       ?insert@?$_Tree@V?$_Tmap_traits@HPAXU?$less@H@std@@V?$allocator@U?$pair@$$CBHPAX@std@@@2@$0A@@std@@@std@@QAE?AViterator@12@Vconst_iterator@12@ABU?$pair@$$CBHPAX@2@@Z 00419630 f i Dictionary.obj
 0001:00018800       ?erase@?$_Tree@V?$_Tmap_traits@V?$basic_string@DU?$char_traits@D@std@@V?$allocator@D@2@@std@@PAXU?$less@V?$basic_string@DU?$char_traits@D@std@@V?$allocator@D@2@@std@@@2@V?$allocator@U?$pair@$$CBV?$basic_string@DU?$char_traits@D@std@@V?$allocator@D@2@@std@@PAX@std@@@2@$0A@@std@@@std@@QAE?AViterator@12@Vconst_iterator@12@0@Z 00419800 f i Dictionary.obj
 0001:000188e0       ?_Insert@?$_Tree@V?$_Tmap_traits@V?$basic_string@DU?$char_traits@D@std@@V?$allocator@D@2@@std@@PAXU?$less@V?$basic_string@DU?$char_traits@D@std@@V?$allocator@D@2@@std@@@2@V?$allocator@U?$pair@$$CBV?$basic_string@DU?$char_traits@D@std@@V?$allocator@D@2@@std@@PAX@std@@@2@$0A@@std@@@std@@IAE?AViterator@12@_NPAU_Node@?$_Tree_nod@V?$_Tmap_traits@V?$basic_string@DU?$char_traits@D@std@@V?$allocator@D@2@@std@@PAXU?$less@V?$basic_string@DU?$char_traits@D@std@@V?$allocator@D@2@@std@@@2@V?$allocator@U?$pair@$$CBV?$basic_string@DU?$char_traits@D@std@@V?$allocator@D@2@@std@@PAX@std@@@2@$0A@@std@@@2@ABU?$pair@$$CBV?$basic_string@DU?$char_traits@D@std@@V?$allocator@D@2@@std@@PAX@2@@Z 004198e0 f i Dictionary.obj
 0001:00018ae0       _ClearDictionaryPool       00419ae0 f   Dictionary.obj
 0001:00018b60       ??A?$map@HPAXU?$less@H@std@@V?$allocator@U?$pair@$$CBHPAX@std@@@2@@std@@QAEAAPAXABH@Z 00419b60 f i Dictionary.obj
 0001:00018c10       ??1?$_Tree@V?$_Tmap_traits@HPAXU?$less@H@std@@V?$allocator@U?$pair@$$CBHPAX@std@@@2@$0A@@std@@@std@@QAE@XZ 00419c10 f i Dictionary.obj
 0001:00018c90       ?insert@?$_Tree@V?$_Tmap_traits@V?$basic_string@DU?$char_traits@D@std@@V?$allocator@D@2@@std@@PAXU?$less@V?$basic_string@DU?$char_traits@D@std@@V?$allocator@D@2@@std@@@2@V?$allocator@U?$pair@$$CBV?$basic_string@DU?$char_traits@D@std@@V?$allocator@D@2@@std@@PAX@std@@@2@$0A@@std@@@std@@QAE?AU?$pair@Viterator@?$_Tree@V?$_Tmap_traits@V?$basic_string@DU?$char_traits@D@std@@V?$allocator@D@2@@std@@PAXU?$less@V?$basic_string@DU?$char_traits@D@std@@V?$allocator@D@2@@std@@@2@V?$allocator@U?$pair@$$CBV?$basic_string@DU?$char_traits@D@std@@V?$allocator@D@2@@std@@PAX@std@@@2@$0A@@std@@@std@@_N@2@ABU?$pair@$$CBV?$basic_string@DU?$char_traits@D@std@@V?$allocator@D@2@@std@@PAX@2@@Z 00419c90 f i Dictionary.obj
 0001:00018df0       ??1?$_Tree@V?$_Tmap_traits@V?$basic_string@DU?$char_traits@D@std@@V?$allocator@D@2@@std@@PAXU?$less@V?$basic_string@DU?$char_traits@D@std@@V?$allocator@D@2@@std@@@2@V?$allocator@U?$pair@$$CBV?$basic_string@DU?$char_traits@D@std@@V?$allocator@D@2@@std@@PAX@std@@@2@$0A@@std@@@std@@QAE@XZ 00419df0 f i Dictionary.obj
 0001:00018e70       ?insert@?$_Tree@V?$_Tmap_traits@V?$basic_string@DU?$char_traits@D@std@@V?$allocator@D@2@@std@@PAXU?$less@V?$basic_string@DU?$char_traits@D@std@@V?$allocator@D@2@@std@@@2@V?$allocator@U?$pair@$$CBV?$basic_string@DU?$char_traits@D@std@@V?$allocator@D@2@@std@@PAX@std@@@2@$0A@@std@@@std@@QAE?AViterator@12@Vconst_iterator@12@ABU?$pair@$$CBV?$basic_string@DU?$char_traits@D@std@@V?$allocator@D@2@@std@@PAX@2@@Z 00419e70 f i Dictionary.obj
 0001:000190a0       ??A?$map@V?$basic_string@DU?$char_traits@D@std@@V?$allocator@D@2@@std@@PAXU?$less@V?$basic_string@DU?$char_traits@D@std@@V?$allocator@D@2@@std@@@2@V?$allocator@U?$pair@$$CBV?$basic_string@DU?$char_traits@D@std@@V?$allocator@D@2@@std@@PAX@std@@@2@@std@@QAEAAPAXABV?$basic_string@DU?$char_traits@D@std@@V?$allocator@D@2@@1@@Z 0041a0a0 f i Dictionary.obj
 0001:000191c0       _AddDictionaryEntry        0041a1c0 f   Dictionary.obj
 0001:00019250       ?dec@std@@YAAAVios_base@1@AAV21@@Z 0041a250 f i Dlgcode.obj
 0001:00019270       ?hex@std@@YAAAVios_base@1@AAV21@@Z 0041a270 f i Dlgcode.obj
 0001:00019290       _AbortProcess              0041a290 f   Dlgcode.obj
 0001:000192c0       _AbortProcessSilent        0041a2c0 f   Dlgcode.obj
 0001:000192d0       _CompensateDPIFont         0041a2d0 f   Dlgcode.obj
 0001:00019320       _CompensateXDPI            0041a320 f   Dlgcode.obj
 0001:00019370       _CompensateYDPI            0041a370 f   Dlgcode.obj
 0001:000193c0       _GetTextGfxWidth           0041a3c0 f   Dlgcode.obj
 0001:00019430       _GetTextGfxHeight          0041a430 f   Dlgcode.obj
 0001:00019520       _AccommodateTextField      0041a520 f   Dlgcode.obj
 0001:00019710       ?AuxiliaryDlgProc@@YGHPAUHWND__@@IIJ@Z 0041a710 f   Dlgcode.obj
 0001:00019800       _IsButtonChecked           0041a800 f   Dlgcode.obj
 0001:00019820       _CheckButton               0041a820 f   Dlgcode.obj
 0001:00019840       _InitDialog                0041a840 f   Dlgcode.obj
 0001:00019c80       _CreateMemBitmap           0041ac80 f   Dlgcode.obj
 0001:00019ce0       _RenderBitmap              0041ace0 f   Dlgcode.obj
 0001:00019e70       _SplashDlgProc@16          0041ae70 f   Dlgcode.obj
 0001:00019e80       _CustomDlgProc@16          0041ae80 f   Dlgcode.obj
 0001:00019f40       ?InvalidParameterHandler@@YAXPB_W00II@Z 0041af40 f   Dlgcode.obj
 0001:00019f50       _InitOSVersionInfo         0041af50 f   Dlgcode.obj
 0001:0001a270       _InitHelpFileName          0041b270 f   Dlgcode.obj
 0001:0001a390       _DoDriverInstall           0041b390 f   Dlgcode.obj
 0001:0001a520       _BrowseDirectories         0041b520 f   Dlgcode.obj
 0001:0001a5f0       _CheckFileStreamWriteErrors 0041b5f0 f   Dlgcode.obj
 0001:0001a740       _LocalizeDialog            0041b740 f   Dlgcode.obj
 0001:0001a7b0       _CheckCapsLock             0041b7b0 f   Dlgcode.obj
 0001:0001a7f0       _FindString                0041b7f0 f   Dlgcode.obj
 0001:0001a8f0       _FileExists                0041b8f0 f   Dlgcode.obj
 0001:0001a990       _TCCopyFile                0041b990 f   Dlgcode.obj
 0001:0001aad0       _SaveBufferToFile          0041bad0 f   Dlgcode.obj
 0001:0001aba0       _TCFlushFile               0041bba0 f   Dlgcode.obj
 0001:0001abe0       _IsNonInstallMode          0041bbe0 f   Dlgcode.obj
 0001:0001ada0       _SetCheckBox               0041bda0 f   Dlgcode.obj
 0001:0001add0       _GetDriverRefCount         0041bdd0 f   Dlgcode.obj
 0001:0001ae10       _LoadInt32                 0041be10 f   Dlgcode.obj
 0001:0001aee0       _LoadFile                  0041bee0 f   Dlgcode.obj
 0001:0001af70       _LoadFileBlock             0041bf70 f   Dlgcode.obj
 0001:0001b030       _GetFileSize64             0041c030 f   Dlgcode.obj
 0001:0001b090       _GetConfigPath             0041c090 f   Dlgcode.obj
 0001:0001b190       _GetProgramConfigPath      0041c190 f   Dlgcode.obj
 0001:0001b290       _ConfigReadInt             0041c290 f   Dlgcode.obj
 0001:0001b2f0       _IsHiddenOSRunning         0041c2f0 f   Dlgcode.obj
 0001:0001b390       _EnableWow64FsRedirection  0041c390 f   Dlgcode.obj
 0001:0001b3c0       _RestartComputer           0041c3c0 f   Dlgcode.obj
 0001:0001b440       _HandleDriveNotReadyError  0041c440 f   Dlgcode.obj
 0001:0001b4e0       _CloseTCWindowsEnum@8      0041c4e0 f   Dlgcode.obj
 0001:0001b5e0       _MapResource               0041c5e0 f   Dlgcode.obj
 0001:0001b630       _IsPagingFileWildcardActive 0041c630 f   Dlgcode.obj
 0001:0001b6f0       _DisablePagingFile         0041c6f0 f   Dlgcode.obj
 0001:0001b720       _BufferContainsString      0041c720 f   Dlgcode.obj
 0001:0001b7b0       ??6?$basic_ostream@DU?$char_traits@D@std@@@std@@QAEAAV01@P6AAAVios_base@1@AAV21@@Z@Z 0041c7b0 f i Dlgcode.obj
 0001:0001b7e0       _ToCustHyperlink           0041c7e0 f   Dlgcode.obj
 0001:0001b840       _CreateAppSetupMutex       0041c840 f   Dlgcode.obj
 0001:0001b8a0       _CloseAppSetupMutex        0041c8a0 f   Dlgcode.obj
 0001:0001b8e0       _SavePostInstallTasksSettings 0041c8e0 f   Dlgcode.obj
 0001:0001b990       _GetLegalNotices           0041c990 f   Dlgcode.obj
 0001:0001ba20       _DriverUnload              0041ca20 f   Dlgcode.obj
 0001:0001bc10       _DriverAttach              0041cc10 f   Dlgcode.obj
 0001:0001bcd0       _MultiChoiceDialogProc@16  0041ccd0 f   Dlgcode.obj
 0001:0001c4e0       _FindStringInFile          0041d4e0 f   Dlgcode.obj
 0001:0001c6d0       _AskMultiChoice            0041d6d0 f   Dlgcode.obj
 0001:0001c710       ??9?$_Const_iterator@$00@?$list@UPartition@CipherShed@@V?$allocator@UPartition@CipherShed@@@std@@@std@@QBE_NABV012@@Z 0041d710 f i BootEncryption.obj
 0001:0001c710       ??9?$_Const_iterator@$00@?$list@KV?$allocator@K@std@@@std@@QBE_NABV012@@Z 0041d710 f i Dlgcode.obj
 0001:0001c740       _cleanup                   0041d740 f   Dlgcode.obj
 0001:0001c8b0       _ToHyperlink               0041d8b0 f   Dlgcode.obj
 0001:0001c8d0       ?_Buynode@?$list@KV?$allocator@K@std@@@std@@IAEPAU_Node@?$_List_nod@KV?$allocator@K@std@@@2@XZ 0041d8d0 f i Dlgcode.obj
 0001:0001c8f0       ?_Buynode@?$list@KV?$allocator@K@std@@@std@@IAEPAU_Node@?$_List_nod@KV?$allocator@K@std@@@2@PAU342@0ABK@Z 0041d8f0 f i Dlgcode.obj
 0001:0001c930       ?_Tidy@?$list@KV?$allocator@K@std@@@std@@IAEXXZ 0041d930 f i Dlgcode.obj
 0001:0001c980       ??$?9DU?$char_traits@D@std@@V?$allocator@D@1@@std@@YA_NPBDABV?$basic_string@DU?$char_traits@D@std@@V?$allocator@D@2@@0@@Z 0041d980 f i Dlgcode.obj
 0001:0001c9c0       ??1?$_Tree_val@V?$_Tmap_traits@HPAXU?$less@H@std@@V?$allocator@U?$pair@$$CBHPAX@std@@@2@$0A@@std@@@std@@QAE@XZ 0041d9c0 f i Dictionary.obj
 0001:0001c9c0       ??1?$_Tree_val@V?$_Tmap_traits@V?$basic_string@DU?$char_traits@D@std@@V?$allocator@D@2@@std@@PAXU?$less@V?$basic_string@DU?$char_traits@D@std@@V?$allocator@D@2@@std@@@2@V?$allocator@U?$pair@$$CBV?$basic_string@DU?$char_traits@D@std@@V?$allocator@D@2@@std@@PAX@std@@@2@$0A@@std@@@std@@QAE@XZ 0041d9c0 f i Dictionary.obj
 0001:0001c9c0       ??1?$_List_val@UPartition@CipherShed@@V?$allocator@UPartition@CipherShed@@@std@@@std@@QAE@XZ 0041d9c0 f i BootEncryption.obj
 0001:0001c9c0       ??1?$_List_val@KV?$allocator@K@std@@@std@@QAE@XZ 0041d9c0 f i Dlgcode.obj
 0001:0001c9d0       ?erase@?$list@KV?$allocator@K@std@@@std@@QAE?AV?$_Iterator@$00@12@V?$_Const_iterator@$00@12@@Z 0041d9d0 f i Dlgcode.obj
 0001:0001ca50       ??0?$list@KV?$allocator@K@std@@@std@@QAE@XZ 0041da50 f i Dlgcode.obj
 0001:0001cac0       ??1?$list@KV?$allocator@K@std@@@std@@QAE@XZ 0041dac0 f i Dlgcode.obj
 0001:0001cae0       ??1?$ContainerForward@V?$list@KV?$allocator@K@std@@@std@@@ForEach@CipherShed@@UAE@XZ 0041dae0 f i Dlgcode.obj
 0001:0001cb10       ?_Incsize@?$list@KV?$allocator@K@std@@@std@@IAEXI@Z 0041db10 f i Dlgcode.obj
 0001:0001cbb0       ?GetServiceConfigPath@@YA?AV?$basic_string@DU?$char_traits@D@std@@V?$allocator@D@2@@std@@PBD@Z 0041dbb0 f   Dlgcode.obj
 0001:0001cd00       _IsPagingFileActive        0041dd00 f   Dlgcode.obj
 0001:0001cf90       ??$_Insert@V?$_Const_iterator@$00@?$list@KV?$allocator@K@std@@@std@@@?$list@KV?$allocator@K@std@@@std@@QAEXV?$_Const_iterator@$00@01@00Uforward_iterator_tag@1@@Z 0041df90 f i Dlgcode.obj
 0001:0001d0f0       ?push_back@?$list@KV?$allocator@K@std@@@std@@QAEXABK@Z 0041e0f0 f i Dlgcode.obj
 0001:0001d130       ??0?$list@KV?$allocator@K@std@@@std@@QAE@ABV01@@Z 0041e130 f i Dlgcode.obj
 0001:0001d1e0       ??0?$ContainerForward@V?$list@KV?$allocator@K@std@@@std@@@ForEach@CipherShed@@QAE@ABV?$list@KV?$allocator@K@std@@@std@@@Z 0041e1e0 f i Dlgcode.obj
 0001:0001d270       ?IsNotEnd@?$ContainerForward@V?$list@KV?$allocator@K@std@@@std@@@ForEach@CipherShed@@UBE_NXZ 0041e270 f i Dlgcode.obj
 0001:0001d270       ?IsNotEnd@?$ContainerForward@V?$list@UPartition@CipherShed@@V?$allocator@UPartition@CipherShed@@@std@@@std@@@ForEach@CipherShed@@UBE_NXZ 0041e270 f i BootEncryption.obj
 0001:0001d2b0       ??_E?$ContainerForward@V?$list@KV?$allocator@K@std@@@std@@@ForEach@CipherShed@@UAEPAXI@Z 0041e2b0 f i Dlgcode.obj
 0001:0001d2b0       ??_G?$ContainerForward@V?$list@KV?$allocator@K@std@@@std@@@ForEach@CipherShed@@UAEPAXI@Z 0041e2b0 f i Dlgcode.obj
 0001:0001d2f0       ??6?$basic_ostream@DU?$char_traits@D@std@@@std@@QAEAAV01@K@Z 0041e2f0 f i Dlgcode.obj
 0001:0001d440       ??6?$basic_ostream@DU?$char_traits@D@std@@@std@@QAEAAV01@_K@Z 0041e440 f i Dlgcode.obj
 0001:0001d590       ??$GetContainerForward@V?$list@KV?$allocator@K@std@@@std@@@ForEach@CipherShed@@SA?AU?$ContainerForward@V?$list@KV?$allocator@K@std@@@std@@@01@ABV?$list@KV?$allocator@K@std@@@std@@@Z 0041e590 f i Dlgcode.obj
 0001:0001d5b0       ?GetWindowsEdition@@YA?AV?$basic_string@DU?$char_traits@D@std@@V?$allocator@D@2@@std@@XZ 0041e5b0 f   Dlgcode.obj
 0001:0001daa0       _Applink                   0041eaa0 f   Dlgcode.obj
 0001:0001dbc0       _AboutDlgProc@16           0041ebc0 f   Dlgcode.obj
 0001:0001de10       ?ExceptionHandlerThread@@YAXPAX@Z 0041ee10 f   Dlgcode.obj
 0001:0001e9b0       ?ExceptionHandler@@YGJPAU_EXCEPTION_POINTERS@@@Z 0041f9b0 f   Dlgcode.obj
 0001:0001ea50       _InitApp                   0041fa50 f   Dlgcode.obj
 0001:0001eda0       _OpenPageHelp              0041fda0 f   Dlgcode.obj
 0001:0001ee10       _MirrorBytes16             0041fe10 f   Endian.obj
 0001:0001ee20       _inflate_codes             0041fe20 f   Inflate.obj
 0001:0001f380       _huft_free                 00420380 f   Inflate.obj
 0001:0001f3b0       _huft_build                004203b0 f   Inflate.obj
 0001:00020190       _inflate                   00421190 f   Inflate.obj
 0001:00020200       _DecompressDeflatedData    00421200 f   Inflate.obj
 0001:00020450       _GetPreferredLangId        00421450 f   Language.obj
 0001:00020460       _SetPreferredLangId        00421460 f   Language.obj
 0001:00020480       _GetActiveLangPackVersion  00421480 f   Language.obj
 0001:00020490       _GetString                 00421490 f   Language.obj
 0001:000204d0       _GetFont                   004214d0 f   Language.obj
 0001:000204e0       _LoadLanguageFile          004214e0 f   Language.obj
 0001:00020d60       _LanguageDlgProc@16        00421d60 f   Language.obj
 0001:000212a0       _ReadLocalMachineRegistryDword 004222a0 f   Registry.obj
 0001:00021320       _ReadLocalMachineRegistryMultiString 00422320 f   Registry.obj
 0001:000213a0       _ReadLocalMachineRegistryString 004223a0 f   Registry.obj
 0001:00021420       _ReadRegistryString        00422420 f   Registry.obj
 0001:00021500       _WriteLocalMachineRegistryDword 00422500 f   Registry.obj
 0001:000215a0       _WriteLocalMachineRegistryMultiString 004225a0 f   Registry.obj
 0001:00021640       _WriteLocalMachineRegistryString 00422640 f   Registry.obj
 0001:000216f0       _WriteRegistryString       004226f0 f   Registry.obj
 0001:00021760       _DeleteRegistryValue       00422760 f   Registry.obj
 0001:000217b0       _GetStartupRegKeyName      004227b0 f   Registry.obj
 0001:000217d0       _WaitCursor                004227d0 f   cursor.obj
 0001:00021800       _NormalCursor              00422800 f   cursor.obj
 0001:00021830       _ArrowWaitCursor           00422830 f   cursor.obj
 0001:00021860       _HandCursor                00422860 f   cursor.obj
 0001:000218b0       _Info                      004228b0 f   errors.obj
 0001:000218e0       _Warning                   004228e0 f   errors.obj
 0001:00021910       _WarningDirect             00422910 f   errors.obj
 0001:00021940       _Error                     00422940 f   errors.obj
 0001:00021970       _AskYesNo                  00422970 f   errors.obj
 0001:000219b0       _AskNoYes                  004229b0 f   errors.obj
 0001:000219f0       _AskWarnNoYes              004229f0 f   errors.obj
 0001:00021a30       _handleWin32Error          00422a30 f   errors.obj
 0001:00021b00       _ErrorDirect               00422b00 f   errors.obj
 0001:00021b30       _AskWarnYesNo              00422b30 f   errors.obj
 0001:00021b70       ?GetWrongPasswordErrorMessage@@YA?AV?$basic_string@_WU?$char_traits@_W@std@@V?$allocator@_W@2@@std@@PAUHWND__@@@Z 00422b70 f   errors.obj
 0001:00021c80       _handleError               00422c80 f   errors.obj
 0001:000220c0       _IsOSVersionAtLeast        004230c0 f   userperms.obj
 0001:000221a0       _Is64BitOs                 004231a0 f   userperms.obj
 0001:000221f0       _IsServerOS                004231f0 f   userperms.obj
 0001:00022260       _IsAdmin                   00423260 f   userperms.obj
 0001:00022270       _IsOSAtLeast               00423270 f   userperms.obj
 0001:00022280       _IsUacSupported            00423280 f   userperms.obj
 0001:00022330       ??1?$ContainerForward@V?$basic_string@DU?$char_traits@D@std@@V?$allocator@D@2@@std@@@ForEach@CipherShed@@UAE@XZ 00423330 f i csstringutil.obj
 0001:00022360       ??0?$ContainerForward@V?$basic_string@DU?$char_traits@D@std@@V?$allocator@D@2@@std@@@ForEach@CipherShed@@QAE@ABV?$basic_string@DU?$char_traits@D@std@@V?$allocator@D@2@@std@@@Z 00423360 f i csstringutil.obj
 0001:00022410       ?Next@?$ContainerForward@V?$basic_string@DU?$char_traits@D@std@@V?$allocator@D@2@@std@@@ForEach@CipherShed@@UBEXXZ 00423410 f i csstringutil.obj
 0001:00022450       ?IsNotEnd@?$ContainerForward@V?$basic_string@DU?$char_traits@D@std@@V?$allocator@D@2@@std@@@ForEach@CipherShed@@UBE_NXZ 00423450 f i csstringutil.obj
 0001:00022490       ??_G?$ContainerForward@V?$basic_string@DU?$char_traits@D@std@@V?$allocator@D@2@@std@@@ForEach@CipherShed@@UAEPAXI@Z 00423490 f i csstringutil.obj
 0001:00022490       ??_E?$ContainerForward@V?$basic_string@DU?$char_traits@D@std@@V?$allocator@D@2@@std@@@ForEach@CipherShed@@UAEPAXI@Z 00423490 f i csstringutil.obj
 0001:000224d0       ??$GetContainerForward@V?$basic_string@DU?$char_traits@D@std@@V?$allocator@D@2@@std@@@ForEach@CipherShed@@SA?AU?$ContainerForward@V?$basic_string@DU?$char_traits@D@std@@V?$allocator@D@2@@std@@@01@ABV?$basic_string@DU?$char_traits@D@std@@V?$allocator@D@2@@std@@@Z 004234d0 f i csstringutil.obj
 0001:000224f0       ?ToUpperCase@@YA?AV?$basic_string@DU?$char_traits@D@std@@V?$allocator@D@2@@std@@ABV12@@Z 004234f0 f   csstringutil.obj
 0001:00022650       _GetDiskDeviceDriveLetter  00423650 f   diskutil.obj
 0001:000227b0       _IsDiskError               004237b0 f   diskutil.obj
 0001:000227f0       _ResolveSymbolicLink       004237f0 f   fsutil.obj
 0001:0002289a       ??_U@YAPAXI@Z              0042389a f   libcpmt:newaop.obj
 0001:000228a5       ?_Xlen@_String_base@std@@SAXXZ 004238a5 f   libcpmt:string.obj
 0001:000228dd       ?_Xran@_String_base@std@@SAXXZ 004238dd f   libcpmt:string.obj
 0001:00022915       __Tolower                  00423915 f   libcpmt:_tolower.obj
 0001:00022a22       __Getctype                 00423a22 f   libcpmt:_tolower.obj
 0001:00022a82       __Wcrtomb                  00423a82 f   libcpmt:xwctomb.obj
 0001:00022b09       __Getcvt                   00423b09 f   libcpmt:xwctomb.obj
 0001:00022b1f       ??0_Init_locks@std@@QAE@XZ 00423b1f f   libcpmt:xlock.obj
 0001:00022b50       ??1_Init_locks@std@@QAE@XZ 00423b50 f   libcpmt:xlock.obj
 0001:00022b79       ??0_Lockit@std@@QAE@H@Z    00423b79 f   libcpmt:xlock.obj
 0001:00022ba1       ??1_Lockit@std@@QAE@XZ     00423ba1 f   libcpmt:xlock.obj
 0001:00022bb8       ?_AtModuleExit@@YAXP6AXXZ@Z 00423bb8 f   libcpmt:locale0.obj
 0001:00022bd2       ??1_Fac_node@std@@QAE@XZ   00423bd2 f i libcpmt:locale0.obj
 0001:00022be7       ??_G_Fac_node@std@@QAEPAXI@Z 00423be7 f i libcpmt:locale0.obj
 0001:00022c08       __Deletegloballocale       00423c08 f   libcpmt:locale0.obj
 0001:00022c55       ?_Getgloballocale@locale@std@@CAPAV_Locimp@12@XZ 00423c55 f   libcpmt:locale0.obj
 0001:00022c5b       ?_Setgloballocale@locale@std@@CAXPAX@Z 00423c5b f   libcpmt:locale0.obj
 0001:00022c85       ?_Locimp_dtor@_Locimp@locale@std@@CAXPAV123@@Z 00423c85 f   libcpmt:locale0.obj
 0001:00022ce5       __Fac_tidy                 00423ce5 f   libcpmt:locale0.obj
 0001:00022d1a       ?facet_Register@facet@locale@std@@CAXPAV123@@Z 00423d1a f   libcpmt:locale0.obj
 0001:00022d58       ?_Locinfo_dtor@_Locinfo@std@@SAXPAV12@@Z 00423d58 f   libcpmt:locale0.obj
 0001:00022d80       ??0_Locimp@locale@std@@AAE@_N@Z 00423d80 f i libcpmt:locale0.obj
 0001:00022dc9       ??1_Locimp@locale@std@@MAE@XZ 00423dc9 f i libcpmt:locale0.obj
 0001:00022e06       ??_E_Locimp@locale@std@@MAEPAXI@Z 00423e06 f i libcpmt:locale0.obj
 0001:00022e06       ??_G_Locimp@locale@std@@MAEPAXI@Z 00423e06 f i libcpmt:locale0.obj
 0001:00022e27       ?_Init@locale@std@@CAPAV_Locimp@12@XZ 00423e27 f   libcpmt:locale0.obj
 0001:00022ec1       ?_Locinfo_ctor@_Locinfo@std@@SAXPAV12@ABV?$basic_string@DU?$char_traits@D@std@@V?$allocator@D@2@@2@@Z 00423ec1 f   libcpmt:locale0.obj
 0001:00022f1d       ?_Callfns@ios_base@std@@AAEXW4event@12@@Z 00423f1d f i libcpmt:ios.obj
 0001:00022f44       ?_Tidy@ios_base@std@@AAAXXZ 00423f44 f i libcpmt:ios.obj
 0001:00022f8f       ?_Ios_base_dtor@ios_base@std@@CAXPAV12@@Z 00423f8f f   libcpmt:ios.obj
 0001:00022fcb       ??0_Mutex@std@@QAE@XZ      00423fcb f   libcpmt:xmutex.obj
 0001:00022fe5       ??1_Mutex@std@@QAE@XZ      00423fe5 f   libcpmt:xmutex.obj
 0001:00022ffc       ?_Lock@_Mutex@std@@QAEXXZ  00423ffc f   libcpmt:xmutex.obj
 0001:00023005       ?_Unlock@_Mutex@std@@QAEXXZ 00424005 f   libcpmt:xmutex.obj
 0001:0002300e       __Toupper                  0042400e f   libcpmt:_toupper.obj
 0001:00023120       __Getwctype                00424120 f   libcpmt:xgetwctype.obj
 0001:0002314f       __Getwctypes               0042414f f   libcpmt:xgetwctype.obj
 0001:0002317c       __Towlower                 0042417c f   libcpmt:xtowlower.obj
 0001:000231e9       __Towupper                 004241e9 f   libcpmt:xtowupper.obj
 0001:00023298       __GetLocaleForCP           00424298 f   libcpmt:xmbtowc.obj
 0001:00023386       __Mbrtowc                  00424386 f   libcpmt:xmbtowc.obj
 0001:000234fa       ?uncaught_exception@std@@YA_NXZ 004244fa f   libcpmt:uncaught.obj
 0001:000234ff       __Mtxinit                  004244ff f   libcpmt:xmtx.obj
 0001:0002350f       __Mtxdst                   0042450f f   libcpmt:xmtx.obj
 0001:0002351f       __Mtxlock                  0042451f f   libcpmt:xmtx.obj
 0001:0002352f       __Mtxunlock                0042452f f   libcpmt:xmtx.obj
 0001:0002353f       ?_Atexit@@YAXP6AXXZ@Z      0042453f f   libcpmt:iosptrs.obj
 0001:00023565       ??1_Init_atexit@@QAE@XZ    00424565 f i libcpmt:iosptrs.obj
 0001:0002358a       ??3@YAXPAX@Z               0042458a f   LIBCMT:delete.obj
 0001:00023595       ??1type_info@@UAE@XZ       00424595 f   LIBCMT:typinfo.obj
 0001:000235a5       ??_Etype_info@@UAEPAXI@Z   004245a5 f i LIBCMT:typinfo.obj
 0001:000235a5       ??_Gtype_info@@UAEPAXI@Z   004245a5 f i LIBCMT:typinfo.obj
 0001:000235c6       ??8type_info@@QBE_NABV0@@Z 004245c6 f   LIBCMT:typinfo.obj
 0001:000235e6       __mbsnbcpy_s               004245e6 f   LIBCMT:mbsnbcpy_s.obj
 0001:00023603       ??0_LocaleUpdate@@QAE@PAUlocaleinfo_struct@@@Z 00424603 f i LIBCMT:mbsstr.obj
 0001:0002368a       __mbsstr_l                 0042468a f   LIBCMT:mbsstr.obj
 0001:000237cb       __mbsstr                   004247cb f   LIBCMT:mbsstr.obj
 0001:000237e2       _V6_HeapAlloc              004247e2 f   LIBCMT:malloc.obj
 0001:00023831       _malloc                    00424831 f   LIBCMT:malloc.obj
 0001:000238fb       _free                      004248fb f   LIBCMT:free.obj
 0001:00023989       __CxxThrowException@8      00424989 f   LIBCMT:throw.obj
 0001:000239d5       _memcpy_s                  004249d5 f   LIBCMT:memcpy_s.obj
 0001:00023a60       __except_handler4          00424a60 f   LIBCMT:chandler4.obj
 0001:00023bec       @__security_check_cookie@4 00424bec f   LIBCMT:secchk.obj
 0001:00023c00       __chkstk                   00424c00 f   LIBCMT:chkstk.obj
 0001:00023c00       __alloca_probe             00424c00     LIBCMT:chkstk.obj
 0001:00023c2b       ??_V@YAXPAX@Z              00424c2b f   LIBCMT:delete2.obj
 0001:00023c36       __resetstkoflw             00424c36 f   LIBCMT:resetstk.obj
 0001:00023d30       __alloca_probe_16          00424d30 f   LIBCMT:alloca16.obj
 0001:00023d46       __alloca_probe_8           00424d46     LIBCMT:alloca16.obj
 0001:00023d5c       _sprintf                   00424d5c f   LIBCMT:sprintf.obj
 0001:00023dd9       _sprintf_s                 00424dd9 f   LIBCMT:sprintf.obj
 0001:00023df7       ?_JumpToContinuation@@YGXPAXPAUEHRegistrationNode@@@Z 00424df7 f   LIBCMT:_trnsctrl_.obj
 0001:00023e29       ?_CallMemberFunction1@@YGXPAX00@Z 00424e29 f   LIBCMT:_trnsctrl_.obj
 0001:00023e29       ?_CallMemberFunction0@@YGXPAX0@Z 00424e29 f   LIBCMT:_trnsctrl_.obj
 0001:00023e29       ?_CallMemberFunction2@@YGXPAX00H@Z 00424e29 f   LIBCMT:_trnsctrl_.obj
 0001:00023e30       ?_UnwindNestedFrames@@YGXPAUEHRegistrationNode@@PAUEHExceptionRecord@@@Z 00424e30 f   LIBCMT:_trnsctrl_.obj
 0001:00023e84       ___CxxFrameHandler3        00424e84 f   LIBCMT:_trnsctrl_.obj
 0001:00023eed       ?_CallSETranslator@@YAHPAUEHExceptionRecord@@PAUEHRegistrationNode@@PAX2PBU_s_FuncInfo@@H1@Z 00424eed f   LIBCMT:_trnsctrl_.obj
 0001:00024063       ?_GetRangeOfTrysToCheck@@YAPBU_s_TryBlockMapEntry@@PBU_s_FuncInfo@@HHPAI1@Z 00425063 f   LIBCMT:_trnsctrl_.obj
 0001:000240d8       __CreateFrameInfo          004250d8 f   LIBCMT:_trnsctrl_.obj
 0001:00024104       __IsExceptionObjectToBeDestroyed 00425104 f   LIBCMT:_trnsctrl_.obj
 0001:0002412b       __FindAndUnlinkFrame       0042512b f   LIBCMT:_trnsctrl_.obj
 0001:0002417d       ?_CallCatchBlock2@@YAPAXPAUEHRegistrationNode@@PBU_s_FuncInfo@@PAXHK@Z 0042517d f   LIBCMT:_trnsctrl_.obj
 0001:000241e0       __allmul                   004251e0 f   LIBCMT:llmul.obj
 0001:00024214       __recalloc                 00425214 f   LIBCMT:recalloc.obj
 0001:00024290       _memset                    00425290 f   LIBCMT:memset.obj
 0001:0002430a       __stat64i32                0042530a f   LIBCMT:stati32.obj
 0001:00024749       __mkdir                    00425749 f   LIBCMT:mkdir.obj
 0001:0002477b       _strtok                    0042577b f   LIBCMT:strtok.obj
 0001:00024840       _strrchr                   00425840 f   LIBCMT:strrchr.obj
 0001:0002486d       __endthread                0042586d f   LIBCMT:thread.obj
 0001:0002496e       __beginthread              0042596e f   LIBCMT:thread.obj
 0001:00024a30       _memcpy                    00425a30 f   LIBCMT:memcpy.obj
 0001:00024d95       _remove                    00425d95 f   LIBCMT:unlink.obj
 0001:00024dc5       __snprintf                 00425dc5 f   LIBCMT:snprintf.obj
 0001:00024e80       _strncat                   00425e80 f   LIBCMT:strncat.obj
 0001:00024fb5       __snwprintf                00425fb5 f   LIBCMT:snwprint.obj
 0001:00025090       _strncpy                   00426090 f   LIBCMT:strncpy.obj
 0001:000251b4       __cfltcvt_init             004261b4 f   LIBCMT:_fpinit_.obj
 0001:00025214       __fpmath                   00426214 f   LIBCMT:_fpinit_.obj
 0001:00025240       __ftol2_sse                00426240 f   LIBCMT:ftol2.obj
 0001:00025249       __ftol2_pentium4           00426249 f   LIBCMT:ftol2.obj
 0001:0002525c       __ftol2_sse_excpt          0042625c f   LIBCMT:ftol2.obj
 0001:00025276       __ftol2                    00426276 f   LIBCMT:ftol2.obj
 0001:000252f0       _strstr                    004262f0 f   LIBCMT:strstr.obj
 0001:00025376       __vswprintf_l              00426376 f   LIBCMT:vswprint.obj
 0001:0002540f       __vswprintf                0042640f f   LIBCMT:vswprint.obj
 0001:00025429       ??0exception@std@@QAE@XZ   00426429 f   LIBCMT:stdexcpt.obj
 0001:0002543a       ??0exception@std@@QAE@ABQBD@Z 0042643a f   LIBCMT:stdexcpt.obj
 0001:0002548d       ??0exception@std@@QAE@ABQBDH@Z 0042648d f   LIBCMT:stdexcpt.obj
 0001:000254aa       ??0exception@std@@QAE@ABV01@@Z 004264aa f   LIBCMT:stdexcpt.obj
 0001:00025507       ??1exception@std@@UAE@XZ   00426507 f   LIBCMT:stdexcpt.obj
 0001:0002551d       ?what@exception@std@@UBEPBDXZ 0042651d f   LIBCMT:stdexcpt.obj
 0001:0002552a       ??0bad_cast@std@@QAE@PBD@Z 0042652a f   LIBCMT:stdexcpt.obj
 0001:00025548       ??0bad_cast@std@@QAE@ABV01@@Z 00426548 f   LIBCMT:stdexcpt.obj
 0001:00025565       ??1bad_cast@std@@UAE@XZ    00426565 f   LIBCMT:stdexcpt.obj
 0001:00025570       ??_Eexception@std@@UAEPAXI@Z 00426570 f i LIBCMT:stdexcpt.obj
 0001:00025570       ??_Gexception@std@@UAEPAXI@Z 00426570 f i LIBCMT:stdexcpt.obj
 0001:00025591       ??_Gbad_cast@std@@UAEPAXI@Z 00426591 f i LIBCMT:stdexcpt.obj
 0001:00025591       ??_Ebad_cast@std@@UAEPAXI@Z 00426591 f i LIBCMT:stdexcpt.obj
 0001:000255c0       _memchr                    004265c0 f   LIBCMT:memchr.obj
 0001:0002566d       _memmove_s                 0042666d f   LIBCMT:memmove_s.obj
 0001:000257a4       __stat64                   004267a4 f   LIBCMT:stat64.obj
 0001:00025bfa       _strcat_s                  00426bfa f   LIBCMT:strcat_s.obj
 0001:00025c6e       ??2@YAPAXI@Z               00426c6e f   LIBCMT:new.obj
 0001:00025cd3       __fclose_nolock            00426cd3 f   LIBCMT:fclose.obj
 0001:00025d4a       _fclose                    00426d4a f   LIBCMT:fclose.obj
 0001:00025dc6       _fprintf                   00426dc6 f   LIBCMT:fprintf.obj
 0001:00025ee2       __fsopen                   00426ee2 f   LIBCMT:fopen.obj
 0001:00025fa6       _fopen                     00426fa6 f   LIBCMT:fopen.obj
 0001:00025fbd       _strcpy_s                  00426fbd f   LIBCMT:strcpy_s.obj
 0001:00026025       __access_s                 00427025 f   LIBCMT:access.obj
 0001:000260ae       __access                   004270ae f   LIBCMT:access.obj
 0001:000260c6       _strncmp                   004270c6 f   LIBCMT:strncmp.obj
 0001:00026186       __crt_waiting_on_module_handle 00427186 f   LIBCMT:crt0dat.obj
 0001:000261b6       __amsg_exit                004271b6 f   LIBCMT:crt0dat.obj
 0001:000261df       ___crtCorExitProcess       004271df f   LIBCMT:crt0dat.obj
 0001:0002620a       ___crtExitProcess          0042720a f   LIBCMT:crt0dat.obj
 0001:00026222       __lockexit                 00427222 f   LIBCMT:crt0dat.obj
 0001:0002622b       __unlockexit               0042722b f   LIBCMT:crt0dat.obj
 0001:00026251       __initterm_e               00427251 f   LIBCMT:crt0dat.obj
 0001:00026275       __cinit                    00427275 f   LIBCMT:crt0dat.obj
 0001:00026426       _exit                      00427426 f   LIBCMT:crt0dat.obj
 0001:0002643c       __exit                     0042743c f   LIBCMT:crt0dat.obj
 0001:00026452       __cexit                    00427452 f   LIBCMT:crt0dat.obj
 0001:00026461       __c_exit                   00427461 f   LIBCMT:crt0dat.obj
 0001:00026470       __init_pointers            00427470 f   LIBCMT:crt0dat.obj
 0001:00026578       ___onexitinit              00427578 f   LIBCMT:onexit.obj
 0001:000265a9       __onexit                   004275a9 f   LIBCMT:onexit.obj
 0001:000265e5       _atexit                    004275e5 f   LIBCMT:onexit.obj
 0001:000265fc       __time64                   004275fc f   LIBCMT:time64.obj
 0001:0002664d       _srand                     0042764d f   LIBCMT:rand.obj
 0001:0002665f       _rand                      0042765f f   LIBCMT:rand.obj
 0001:00026681       _wcsncpy                   00427681 f   LIBCMT:wcsncpy.obj
 0001:000266e0       _strchr                    004276e0 f   LIBCMT:strchr.obj
 0001:000266e6       ___from_strstr_to_strchr   004276e6     LIBCMT:strchr.obj
 0001:0002679e       _fputs                     0042779e f   LIBCMT:fputs.obj
 0001:000268ad       __purecall                 004278ad f   LIBCMT:purevirt.obj
 0001:000268d7       __initp_misc_invarg        004278d7 f   LIBCMT:invarg.obj
 0001:000268e6       __invoke_watson            004278e6 f   LIBCMT:invarg.obj
 0001:00026a0e       __set_invalid_parameter_handler 00427a0e f   LIBCMT:invarg.obj
 0001:00026a35       __invalid_parameter        00427a35 f   LIBCMT:invarg.obj
 0001:00026a5b       __invalid_parameter_noinfo 00427a5b f   LIBCMT:invarg.obj
 0001:00026a6b       _localeconv                00427a6b f   LIBCMT:lconv.obj
 0001:00026a91       _rename                    00427a91 f   LIBCMT:rename.obj
 0001:00026ad0       _strcspn                   00427ad0 f   LIBCMT:strcspn.obj
 0001:00026b16       __waccess_s                00427b16 f   LIBCMT:waccess.obj
 0001:00026b9f       __waccess                  00427b9f f   LIBCMT:waccess.obj
 0001:00026bb7       ___ascii_stricmp           00427bb7 f   LIBCMT:stricmp.obj
 0001:00026bf0       __stricmp_l                00427bf0 f   LIBCMT:stricmp.obj
 0001:00026cc5       __stricmp                  00427cc5 f   LIBCMT:stricmp.obj
 0001:00026d17       _wcsrchr                   00427d17 f   LIBCMT:wcsrchr.obj
 0001:00026d50       _memmove                   00427d50 f   LIBCMT:memmove.obj
 0001:000270c0       _ceil                      004280c0 f   LIBCMT:_ceil_pentium4_.obj
 0001:00027100       __ceil_pentium4            00428100 f   LIBCMT:_ceil_pentium4_.obj
 0001:000271e0       _floor                     004281e0 f   LIBCMT:_floor_pentium4_.obj
 0001:00027220       __floor_pentium4           00428220 f   LIBCMT:_floor_pentium4_.obj
 0001:00027301       __swprintf                 00428301 f   LIBCMT:swprintf.obj
 0001:00027399       _swprintf_s                00428399 f   LIBCMT:swprintf.obj
 0001:000273b7       _ferror                    004283b7 f   LIBCMT:feoferr.obj
 0001:000273eb       __flush                    004283eb f   LIBCMT:fflush.obj
 0001:00027453       __fflush_nolock            00428453 f   LIBCMT:fflush.obj
 0001:00027575       _fflush                    00428575 f   LIBCMT:fflush.obj
 0001:000275c8       __flushall                 004285c8 f   LIBCMT:fflush.obj
 0001:000275d1       __set_osfhnd               004285d1 f   LIBCMT:osfinfo.obj
 0001:00027652       __free_osfhnd              00428652 f   LIBCMT:osfinfo.obj
 0001:000276d8       __get_osfhandle            004286d8 f   LIBCMT:osfinfo.obj
 0001:0002774f       ___lock_fhandle            0042874f f   LIBCMT:osfinfo.obj
 0001:000277ef       __unlock_fhandle           004287ef f   LIBCMT:osfinfo.obj
 0001:00027816       __alloc_osfhnd             00428816 f   LIBCMT:osfinfo.obj
 0001:000279b0       __fileno                   004289b0 f   LIBCMT:fileno.obj
 0001:000279e2       __toupper_l                004289e2 f   LIBCMT:toupper.obj
 0001:00027af8       _toupper                   00428af8 f   LIBCMT:toupper.obj
 0001:00027b24       _atol                      00428b24 f   LIBCMT:atox.obj
 0001:00027b3a       _atoi                      00428b3a f   LIBCMT:atox.obj
 0001:00027baf       _sscanf                    00428baf f   LIBCMT:sscanf.obj
 0001:00027bd1       __isupper_l                00428bd1 f i LIBCMT:_ctype.obj
 0001:00027c22       _isupper                   00428c22 f i LIBCMT:_ctype.obj
 0001:00027c50       __islower_l                00428c50 f i LIBCMT:_ctype.obj
 0001:00027ca1       _islower                   00428ca1 f i LIBCMT:_ctype.obj
 0001:00027ccf       __isdigit_l                00428ccf f i LIBCMT:_ctype.obj
 0001:00027d20       _isdigit                   00428d20 f i LIBCMT:_ctype.obj
 0001:00027d4e       __isxdigit_l               00428d4e f i LIBCMT:_ctype.obj
 0001:00027da4       _isxdigit                  00428da4 f i LIBCMT:_ctype.obj
 0001:00027dd4       __isspace_l                00428dd4 f i LIBCMT:_ctype.obj
 0001:00027e25       _isspace                   00428e25 f i LIBCMT:_ctype.obj
 0001:00027e53       __isalnum_l                00428e53 f i LIBCMT:_ctype.obj
 0001:00027ea9       _isalnum                   00428ea9 f i LIBCMT:_ctype.obj
 0001:00027ed9       ___iob_func                00428ed9 f   LIBCMT:_file.obj
 0001:00027edf       ___initstdio               00428edf f   LIBCMT:_file.obj
 0001:00027f90       ___endstdio                00428f90 f   LIBCMT:_file.obj
 0001:00027fb0       __lock_file                00428fb0 f   LIBCMT:_file.obj
 0001:00027ff1       __lock_file2               00428ff1 f   LIBCMT:_file.obj
 0001:00028023       __unlock_file              00429023 f   LIBCMT:_file.obj
 0001:0002805f       __unlock_file2             0042905f f   LIBCMT:_file.obj
 0001:0002808e       __vswprintf_helper         0042908e f   LIBCMT:vswprnc.obj
 0001:00028186       __vswprintf_c_l            00429186 f   LIBCMT:vswprnc.obj
 0001:000281b0       __vswprintf_s_l            004291b0 f   LIBCMT:vswprnc.obj
 0001:0002823b       __tolower_l                0042923b f   LIBCMT:tolower.obj
 0001:00028350       _tolower                   00429350 f   LIBCMT:tolower.obj
 0001:0002837c       __freea                    0042937c f i LIBCMT:strupr.obj
 0001:00028543       _WinMainCRTStartup         00429543 f   LIBCMT:wincrt0.obj
 0001:00028550       _strlen                    00429550 f   LIBCMT:strlen.obj
 0001:000285db       __EH_prolog3               004295db f   LIBCMT:ehprolg3.obj
 0001:0002860e       __EH_prolog3_catch         0042960e f   LIBCMT:ehprolg3.obj
 0001:00028644       __EH_epilog3               00429644 f   LIBCMT:ehprolg3.obj
 0001:000289fd       ___crtLCMapStringA         004299fd f   LIBCMT:a_map.obj
 0001:00028a42       ___pctype_func             00429a42 f   LIBCMT:ctype.obj
 0001:00028a6b       ___init_ctype              00429a6b f   LIBCMT:initctyp.obj
 0001:00028e0d       ____mb_cur_max_func        00429e0d f   LIBCMT:initctyp.obj
 0001:00028e36       ____mb_cur_max_l_func      00429e36 f   LIBCMT:initctyp.obj
 0001:00028e52       ____lc_codepage_func       00429e52 f   LIBCMT:initctyp.obj
 0001:00028e78       ____lc_handle_func         00429e78 f   LIBCMT:initctyp.obj
 0001:00028e9e       __malloc_crt               00429e9e f   LIBCMT:crtheap.obj
 0001:00028ee3       __calloc_crt               00429ee3 f   LIBCMT:crtheap.obj
 0001:00028f2f       __realloc_crt              00429f2f f   LIBCMT:crtheap.obj
 0001:00028f7d       __recalloc_crt             00429f7d f   LIBCMT:crtheap.obj
 0001:00028fcf       __get_errno_from_oserr     00429fcf f   LIBCMT:dosmap.obj
 0001:00029011       __errno                    0042a011 f   LIBCMT:dosmap.obj
 0001:00029024       ___doserrno                0042a024 f   LIBCMT:dosmap.obj
 0001:00029037       __dosmaperr                0042a037 f   LIBCMT:dosmap.obj
 0001:0002905a       _abort                     0042a05a f   LIBCMT:abort.obj
 0001:00029171       __set_abort_behavior       0042a171 f   LIBCMT:abort.obj
 0001:00029192       ___freetlocinfo            0042a192 f   LIBCMT:setlocal.obj
 0001:000292db       ___addlocaleref            0042a2db f   LIBCMT:setlocal.obj
 0001:0002936a       ___removelocaleref         0042a36a f   LIBCMT:setlocal.obj
 0001:00029467       ___updatetlocinfo          0042a467 f   LIBCMT:setlocal.obj
 0001:00029530       __free_locale              0042a530 f   LIBCMT:setlocal.obj
 0001:000295f2       __strcats                  0042a5f2 f   LIBCMT:setlocal.obj
 0001:00029632       ___lc_strtolc              0042a632 f   LIBCMT:setlocal.obj
 0001:0002975b       ___lc_lctostr              0042a75b f   LIBCMT:setlocal.obj
 0001:00029945       __expandlocale             0042a945 f   LIBCMT:setlocal.obj
 0001:0002a093       __create_locale            0042b093 f   LIBCMT:setlocal.obj
 0001:0002a188       _setlocale                 0042b188 f   LIBCMT:setlocal.obj
 0001:0002a2f8       ___crtGetStringTypeW       0042b2f8 f   LIBCMT:w_str.obj
 0001:0002a336       ___crtLCMapStringW         0042b336 f   LIBCMT:w_map.obj
 0001:0002a46a       __itoa_s                   0042b46a f   LIBCMT:xtoas.obj
 0001:0002a58c       __ui64toa_s                0042b58c f   LIBCMT:xtoas.obj
 0001:0002a5ab       ??0bad_exception@std@@QAE@PBD@Z 0042b5ab f i LIBCMT:frame.obj
 0001:0002a5c9       ??1bad_exception@std@@UAE@XZ 0042b5c9 f i LIBCMT:frame.obj
 0001:0002a5d4       ??_Gbad_exception@std@@UAEPAXI@Z 0042b5d4 f i LIBCMT:frame.obj
 0001:0002a5d4       ??_Ebad_exception@std@@UAEPAXI@Z 0042b5d4 f i LIBCMT:frame.obj
 0001:0002a5fb       ___TypeMatch               0042b5fb f   LIBCMT:frame.obj
 0001:0002a65a       ___FrameUnwindFilter       0042b65a f   LIBCMT:frame.obj
 0001:0002a6a3       ___FrameUnwindToState      0042b6a3 f   LIBCMT:frame.obj
 0001:0002a7c9       ___DestructExceptionObject 0042b7c9 f   LIBCMT:frame.obj
 0001:0002a81e       ___AdjustPointer           0042b81e f   LIBCMT:frame.obj
 0001:0002a847       ?__uncaught_exception@@YA_NXZ 0042b847 f   LIBCMT:frame.obj
 0001:0002aaba       ___BuildCatchObjectHelper  0042baba f   LIBCMT:frame.obj
 0001:0002ac39       ___BuildCatchObject        0042bc39 f   LIBCMT:frame.obj
 0001:0002b174       ??0bad_exception@std@@QAE@ABV01@@Z 0042c174 f i LIBCMT:frame.obj
 0001:0002b191       ___InternalCxxFrameHandler 0042c191 f   LIBCMT:frame.obj
 0001:0002b277       ?_Type_info_dtor@type_info@@CAXPAV1@@Z 0042c277 f   LIBCMT:typname.obj
 0001:0002b2f0       _strcmp                    0042c2f0 f   LIBCMT:strcmp.obj
 0001:0002b378       __mbsnbcpy_s_l             0042c378 f   LIBCMT:mbsnbcpy_s_l.obj
 0001:0002b7ad       ___updatetmbcinfo          0042c7ad f   LIBCMT:mbctype.obj
 0001:0002b8cd       __setmbcp_nolock           0042c8cd f   LIBCMT:mbctype.obj
 0001:0002bab2       __setmbcp                  0042cab2 f   LIBCMT:mbctype.obj
 0001:0002bc4c       ___initmbctable            0042cc4c f   LIBCMT:mbctype.obj
 0001:0002bc6a       __encode_pointer           0042cc6a f   LIBCMT:tidtable.obj
 0001:0002bcdc       __encoded_null             0042ccdc f   LIBCMT:tidtable.obj
 0001:0002bce5       __decode_pointer           0042cce5 f   LIBCMT:tidtable.obj
 0001:0002bd57       ___crtTlsAlloc@4           0042cd57 f   LIBCMT:tidtable.obj
 0001:0002bd60       ___fls_getvalue@4          0042cd60 f   LIBCMT:tidtable.obj
 0001:0002bd7a       ___get_flsindex            0042cd7a f   LIBCMT:tidtable.obj
 0001:0002bd80       ___set_flsgetvalue         0042cd80 f   LIBCMT:tidtable.obj
 0001:0002bdb4       ___fls_setvalue@8          0042cdb4 f   LIBCMT:tidtable.obj
 0001:0002bdd1       __mtterm                   0042cdd1 f   LIBCMT:tidtable.obj
 0001:0002be0e       __initptd                  0042ce0e f   LIBCMT:tidtable.obj
 0001:0002bef5       __getptd_noexit            0042cef5 f   LIBCMT:tidtable.obj
 0001:0002bf6e       __getptd                   0042cf6e f   LIBCMT:tidtable.obj
 0001:0002bf88       __freefls@4                0042cf88 f   LIBCMT:tidtable.obj
 0001:0002c0b7       __freeptd                  0042d0b7 f   LIBCMT:tidtable.obj
 0001:0002c125       __mtinit                   0042d125 f   LIBCMT:tidtable.obj
 0001:0002c2b2       __mtinitlocks              0042d2b2 f   LIBCMT:mlock.obj
 0001:0002c2fd       __mtdeletelocks            0042d2fd f   LIBCMT:mlock.obj
 0001:0002c354       __unlock                   0042d354 f   LIBCMT:mlock.obj
 0001:0002c36b       __mtinitlocknum            0042d36b f   LIBCMT:mlock.obj
 0001:0002c42e       __lock                     0042d42e f   LIBCMT:mlock.obj
 0001:0002c461       ___sbh_find_block          0042d461 f   LIBCMT:sbheap.obj
 0001:0002c491       ___sbh_free_block          0042d491 f   LIBCMT:sbheap.obj
 0001:0002c7a7       ___sbh_alloc_new_region    0042d7a7 f   LIBCMT:sbheap.obj
 0001:0002c857       ___sbh_alloc_new_group     0042d857 f   LIBCMT:sbheap.obj
 0001:0002c95f       ___sbh_resize_block        0042d95f f   LIBCMT:sbheap.obj
 0001:0002cc40       ___sbh_alloc_block         0042dc40 f   LIBCMT:sbheap.obj
 0001:0002cf28       __SEH_prolog4              0042df28 f   LIBCMT:sehprolg4.obj
 0001:0002cf6d       __SEH_epilog4              0042df6d f   LIBCMT:sehprolg4.obj
 0001:0002cf81       __heap_init                0042df81 f   LIBCMT:heapinit.obj
 0001:0002cfb1       __NMSG_WRITE               0042dfb1 f   LIBCMT:crt0msg.obj
 0001:0002d15c       __FF_MSGBANNER             0042e15c f   LIBCMT:crt0msg.obj
 0001:0002d195       __initp_heap_handler       0042e195 f   LIBCMT:handler.obj
 0001:0002d1a4       __callnewh                 0042e1a4 f   LIBCMT:handler.obj
 0001:0002d1cc       __local_unwind4            0042e1cc f   LIBCMT:exsup4.obj
 0001:0002d2a2       __seh_longjmp_unwind4@4    0042e2a2 f   LIBCMT:exsup4.obj
 0001:0002d2be       @_EH4_CallFilterFunc@8     0042e2be f   LIBCMT:exsup4.obj
 0001:0002d2d5       @_EH4_TransferToHandler@8  0042e2d5 f   LIBCMT:exsup4.obj
 0001:0002d2ee       @_EH4_GlobalUnwind@4       0042e2ee f   LIBCMT:exsup4.obj
 0001:0002d308       @_EH4_LocalUnwind@16       0042e308 f   LIBCMT:exsup4.obj
 0001:0002d320       __ValidateImageBase        0042e320 f   LIBCMT:pesect.obj
 0001:0002d360       __FindPESection            0042e360 f   LIBCMT:pesect.obj
 0001:0002d3b0       __IsNonwritableInCurrentImage 0042e3b0 f   LIBCMT:pesect.obj
 0001:0002d46d       ___report_gsfailure        0042e46d f   LIBCMT:gs_report.obj
 0001:0002d573       __flsbuf                   0042e573 f   LIBCMT:_flsbuf.obj
 0001:0002d724       __output_l                 0042e724 f   LIBCMT:output.obj
 0001:0002e2bc       __vsnprintf_helper         0042f2bc f   LIBCMT:vsnprnc.obj
 0001:0002e388       __vsprintf_s_l             0042f388 f   LIBCMT:vsnprnc.obj
 0001:0002e410       ?terminate@@YAXXZ          0042f410 f   LIBCMT:hooks.obj
 0001:0002e449       ?unexpected@@YAXXZ         0042f449 f   LIBCMT:hooks.obj
 0001:0002e45c       ?_inconsistency@@YAXXZ     0042f45c f   LIBCMT:hooks.obj
 0001:0002e494       __initp_eh_hooks           0042f494 f   LIBCMT:hooks.obj
 0001:0002e4b0       __CallSettingFrame@12      0042f4b0 f   LIBCMT:lowhelpr.obj
 0001:0002e4d7       __NLG_Return               0042f4d7     LIBCMT:lowhelpr.obj
 0001:0002e4fc       _realloc                   0042f4fc f   LIBCMT:realloc.obj
 0001:0002e717       __msize                    0042f717 f   LIBCMT:msize.obj
 0001:0002e811       __VEC_memzero              0042f811 f   LIBCMT:p4_memset.obj
 0001:0002e8f0       __get_sse2_info            0042f8f0 f   LIBCMT:cpu_disp.obj
 0001:0002e952       ___sse2_available_init     0042f952 f   LIBCMT:cpu_disp.obj
 0001:0002e95f       __fullpath                 0042f95f f   LIBCMT:fullpath.obj
 0001:0002ea69       ___dtoxmode                0042fa69 f   LIBCMT:stat.obj
 0001:0002eb26       __close_nolock             0042fb26 f   LIBCMT:close.obj
 0001:0002ebc2       __close                    0042fbc2 f   LIBCMT:close.obj
 0001:0002ec8f       __fstat64i32               0042fc8f f   LIBCMT:fstati32.obj
 0001:0002f705       __sopen_helper             00430705 f   LIBCMT:open.obj
 0001:0002f7d1       __sopen_s                  004307d1 f   LIBCMT:open.obj
 0001:0002f7f1       ___loctotime64_t           004307f1 f   LIBCMT:dtoxtm64.obj
 0001:0002fa5c       __getdrive                 00430a5c f   LIBCMT:drive.obj
 0001:0002fb25       __mbctolower_l             00430b25 f   LIBCMT:mbtolwr.obj
 0001:0002fbcb       __mbctolower               00430bcb f   LIBCMT:mbtolwr.obj
 0001:0002fbde       __mbspbrk_l                00430bde f   LIBCMT:mbspbrk.obj
 0001:0002fcab       __mbspbrk                  00430cab f   LIBCMT:mbspbrk.obj
 0001:0002fcc2       __initp_misc_winxfltr      00430cc2 f   LIBCMT:winxfltr.obj
 0001:0002fcc2       __fpclear                  00430cc2 f   LIBCMT:_fpinit_.obj
 0001:0002fcc3       __XcptFilter               00430cc3 f   LIBCMT:winxfltr.obj
 0001:0002feaa       __VEC_memcpy               00430eaa f   LIBCMT:p4_memcpy.obj
 0001:0002ff8d       __woutput_l                00430f8d f   LIBCMT:woutput.obj
 0001:00030b25       __forcdecpt_l              00431b25 f   LIBCMT:cvt.obj
 0001:00030b98       __cropzeros_l              00431b98 f   LIBCMT:cvt.obj
 0001:00030c1a       __positive                 00431c1a f   LIBCMT:cvt.obj
 0001:00030c36       __fassign_l                00431c36 f   LIBCMT:cvt.obj
 0001:00030c78       __fassign                  00431c78 f   LIBCMT:cvt.obj
 0001:00030cb1       __forcdecpt                00431cb1 f   LIBCMT:cvt.obj
 0001:00030cc4       __cropzeros                00431cc4 f   LIBCMT:cvt.obj
 0001:00030e46       __cftoe_l                  00431e46 f   LIBCMT:cvt.obj
 0001:00030f16       __cftoe                    00431f16 f   LIBCMT:cvt.obj
 0001:00030f36       __cftoa_l                  00431f36 f   LIBCMT:cvt.obj
 0001:000313a0       __cftof_l                  004323a0 f   LIBCMT:cvt.obj
 0001:0003145b       __cftog_l                  0043245b f   LIBCMT:cvt.obj
 0001:00031555       __cfltcvt_l                00432555 f   LIBCMT:cvt.obj
 0001:000315dd       __cfltcvt                  004325dd f   LIBCMT:cvt.obj
 0001:00031600       __initp_misc_cfltcvt_tab   00432600 f   LIBCMT:cmiscdat.obj
 0001:00031621       __setdefaultprecision      00432621 f   LIBCMT:fp8.obj
 0001:0003164c       __ms_p5_test_fdiv          0043264c f   LIBCMT:_testfdiv_.obj
 0001:0003168a       __ms_p5_mp_test_fdiv       0043268a f   LIBCMT:_testfdiv_.obj
 0001:000316b3       __fstat64                  004326b3 f   LIBCMT:fstat64.obj
 0001:00031a26       __freebuf                  00432a26 f   LIBCMT:_freebuf.obj
 0001:00031a57       __stbuf                    00432a57 f   LIBCMT:_sftbuf.obj
 0001:00031af3       __ftbuf                    00432af3 f   LIBCMT:_sftbuf.obj
 0001:00031b27       __ioinit                   00432b27 f   LIBCMT:ioinit.obj
 0001:00031d7b       __openfile                 00432d7b f   LIBCMT:_open.obj
 0001:00032044       __getstream                00433044 f   LIBCMT:stream.obj
 0001:0003217c       __RTC_Initialize           0043317c f   LIBCMT:_initsect_.obj
 0001:000321a2       __RTC_Terminate            004331a2 f   LIBCMT:_initsect_.obj
 0001:000321c8       __initp_misc_winsig        004331c8 f   LIBCMT:winsig.obj
 0001:0003221d       ___get_sigabrt             0043321d f   LIBCMT:winsig.obj
 0001:0003222a       _raise                     0043322a f   LIBCMT:winsig.obj
 0001:000323da       __initp_misc_rand_s        004333da f   LIBCMT:rand_s.obj
 0001:000323e9       ___getlocaleinfo           004333e9 f   LIBCMT:inithelp.obj
 0001:00032568       __initp_misc_purevirt      00433568 f   LIBCMT:inithelp.obj
 0001:00032577       __initp_misc_initcrit      00433577 f   LIBCMT:initcrit.obj
 0001:00032586       ___crtInitCritSecAndSpinCount 00433586 f   LIBCMT:initcrit.obj
 0001:000325f0       __aulldiv                  004335f0 f   LIBCMT:ulldiv.obj
 0001:00032658       __fwrite_nolock            00433658 f   LIBCMT:fwrite.obj
 0001:000327ba       __fputwc_nolock            004337ba f   LIBCMT:fputwc.obj
 0001:00032941       __crt_debugger_hook        00433941 f   LIBCMT:dbghook.obj
 0001:00032949       ___libm_error_support      00433949 f   LIBCMT:_libm_error_.obj
 0001:00032bf9       __sse2_mathfcns_init       00433bf9 f   LIBCMT:_mathfcns_.obj
 0001:00032c0d       __ceil_default             00433c0d f   LIBCMT:_ceil_.obj
 0001:00032ce2       __floor_default            00433ce2 f   LIBCMT:_floor_.obj
 0001:00032db7       __write_nolock             00433db7 f   LIBCMT:write.obj
 0001:000334ea       __write                    004344ea f   LIBCMT:write.obj
 0001:000335c6       __commit                   004345c6 f   LIBCMT:commit.obj
 0001:000336a7       __isleadbyte_l             004346a7 f i LIBCMT:_wctype.obj
 0001:000336df       _isleadbyte                004346df f i LIBCMT:_wctype.obj
 0001:000336f2       __isctype_l                004346f2 f   LIBCMT:isctype.obj
 0001:000339d9       _strtol                    004349d9 f   LIBCMT:strtol.obj
 0001:00033ace       __input_l                  00434ace f   LIBCMT:input.obj
 0001:00034a8b       __fcloseall                00435a8b f   LIBCMT:closeall.obj
 0001:00034bd2       __woutput_s_l              00435bd2 f   LIBCMT:woutputs.obj
 0001:00035772       ?__CxxUnhandledExceptionFilter@@YGJPAU_EXCEPTION_POINTERS@@@Z 00436772 f   LIBCMT:unhandld.obj
 0001:000357b4       ___CxxSetUnhandledExceptionFilter 004367b4 f   LIBCMT:unhandld.obj
 0001:000357c2       __wincmdln                 004367c2 f   LIBCMT:wincmdln.obj
 0001:00035821       __setenvp                  00436821 f   LIBCMT:stdenvp.obj
 0001:00035a99       __setargv                  00436a99 f   LIBCMT:stdargv.obj
 0001:00035b54       ___crtGetEnvironmentStringsA 00436b54 f   LIBCMT:a_env.obj
 0001:00035c8b       ___security_init_cookie    00436c8b f   LIBCMT:gs_support.obj
 0001:00035d21       ___ansicp                  00436d21 f   LIBCMT:convrtcp.obj
 0001:00035d6a       ___convertcp               00436d6a f   LIBCMT:convrtcp.obj
 0001:000360d8       ___crtGetStringTypeA       004370d8 f   LIBCMT:a_str.obj
 0001:0003611a       __calloc_impl              0043711a f   LIBCMT:calloc_impl.obj
 0001:00036653       ___free_lc_time            00437653 f   LIBCMT:inittime.obj
 0001:000367e8       ___init_time               004377e8 f   LIBCMT:inittime.obj
 0001:00036861       ___free_lconv_num          00437861 f   LIBCMT:initnum.obj
 0001:000368a6       ___init_numeric            004378a6 f   LIBCMT:initnum.obj
 0001:00036a70       ___free_lconv_mon          00437a70 f   LIBCMT:initmon.obj
 0001:00036afe       ___init_monetary           00437afe f   LIBCMT:initmon.obj
 0001:00036dc4       ___init_dummy              00437dc4 f   LIBCMT:setlocal.obj
 0001:00036dc4       __matherr                  00437dc4 f   LIBCMT:_matherr_.obj
 0001:00036dc4       ___init_collate            00437dc4 f   LIBCMT:initcoll.obj
 0001:00036dc7       _strncpy_s                 00437dc7 f   LIBCMT:strncpy_s.obj
 0001:00037437       ___get_qualified_locale    00438437 f   LIBCMT:getqloc.obj
 0001:00037628       _memcmp                    00438628 f   LIBCMT:memcmp.obj
 0001:00038cb0       _strpbrk                   00439cb0 f   LIBCMT:strpbrk.obj
 0001:00038cf0       __aulldvrm                 00439cf0 f   LIBCMT:ulldvrm.obj
 0001:00038d85       ?_ValidateExecute@@YAHP6GHXZ@Z 00439d85 f   LIBCMT:validate.obj
 0001:00038d85       ?_ValidateWrite@@YAHPAXI@Z 00439d85 f   LIBCMT:validate.obj
 0001:00038d85       ?_ValidateRead@@YAHPBXI@Z  00439d85 f   LIBCMT:validate.obj
 0001:00038dea       __ismbblead_l              00439dea f   LIBCMT:ismbbyte.obj
 0001:00038e03       __ismbblead                00439e03 f   LIBCMT:ismbbyte.obj
 0001:00038e1b       ___crtMessageBoxA          00439e1b f   LIBCMT:crtmbox.obj
 0001:00038f84       __set_error_mode           00439f84 f   LIBCMT:errmode.obj
 0001:00038fd0       __global_unwind2           00439fd0 f   LIBCMT:exsup.obj
 0001:00039035       __local_unwind2            0043a035 f   LIBCMT:exsup.obj
 0001:000390b9       __abnormal_termination     0043a0b9 f   LIBCMT:exsup.obj
 0001:000390dc       __NLG_Notify1              0043a0dc f   LIBCMT:exsup.obj
 0001:000390e5       __NLG_Notify               0043a0e5 f   LIBCMT:exsup.obj
 0001:000390fc       __NLG_Dispatch             0043a0fc     LIBCMT:exsup.obj
 0001:000390fc       __NLG_Dispatch2            0043a0fc     LIBCMT:exsup.obj
 0001:00039104       __NLG_Call                 0043a104 f   LIBCMT:exsup.obj
 0001:00039106       __NLG_Return2              0043a106     LIBCMT:exsup.obj
 0001:00039107       __lseeki64_nolock          0043a107 f   LIBCMT:lseeki64.obj
 0001:0003918c       __lseeki64                 0043a18c f   LIBCMT:lseeki64.obj
 0001:000392a5       __getbuf                   0043a2a5 f   LIBCMT:_getbuf.obj
 0001:000392ee       __isatty                   0043a2ee f   LIBCMT:isatty.obj
 0001:00039352       __get_printf_count_output  0043a352 f   LIBCMT:printf.obj
 0001:00039368       __wctomb_s_l               0043a368 f   LIBCMT:wctomb.obj
 0001:000394d4       _wctomb_s                  0043a4d4 f   LIBCMT:wctomb.obj
 0001:0003954a       __output_s_l               0043a54a f   LIBCMT:outputs.obj
 0001:0003a11a       __validdrive               0043b11a f   LIBCMT:getcwd.obj
 0001:0003a153       __getdcwd_nolock           0043b153 f   LIBCMT:getcwd.obj
 0001:0003a28a       __getcwd                   0043b28a f   LIBCMT:getcwd.obj
 0001:0003a2d3       _calloc                    0043b2d3 f   LIBCMT:calloc.obj
 0001:0003a313       __mbsicmp_l                0043b313 f   LIBCMT:mbsicmp.obj
 0001:0003a539       __mbsicmp                  0043b539 f   LIBCMT:mbsicmp.obj
 0001:0003a550       __mbsrchr_l                0043b550 f   LIBCMT:mbsrchr.obj
 0001:0003a60c       __mbsrchr                  0043b60c f   LIBCMT:mbsrchr.obj
 0001:0003a623       __chsize_nolock            0043b623 f   LIBCMT:chsize.obj
 0001:0003a7d9       __read_nolock              0043b7d9 f   LIBCMT:read.obj
 0001:0003ad9b       __read                     0043bd9b f   LIBCMT:read.obj
 0001:0003ae98       __lseek_nolock             0043be98 f   LIBCMT:lseek.obj
 0001:0003af0d       __setmode_nolock           0043bf0d f   LIBCMT:setmode.obj
 0001:0003afc9       __get_fmode                0043bfc9 f   LIBCMT:setmode.obj
 0001:0003b002       __set_daylight             0043c002 f i LIBCMT:tzset.obj
 0001:0003b013       __set_dstbias              0043c013 f i LIBCMT:tzset.obj
 0001:0003b024       __set_timezone             0043c024 f i LIBCMT:tzset.obj
 0001:0003b74a       ___tzset                   0043c74a f   LIBCMT:tzset.obj
 0001:0003b799       __isindst                  0043c799 f   LIBCMT:tzset.obj
 0001:0003b7da       __get_daylight             0043c7da f   LIBCMT:timeset.obj
 0001:0003b813       __get_dstbias              0043c813 f   LIBCMT:timeset.obj
 0001:0003b84c       __get_timezone             0043c84c f   LIBCMT:timeset.obj
 0001:0003b885       ___daylight                0043c885 f   LIBCMT:timeset.obj
 0001:0003b88b       ___dstbias                 0043c88b f   LIBCMT:timeset.obj
 0001:0003b891       ___timezone                0043c891 f   LIBCMT:timeset.obj
 0001:0003b897       ___tzname                  0043c897 f   LIBCMT:timeset.obj
 0001:0003b89d       __mbtowc_l                 0043c89d f   LIBCMT:mbtowc.obj
 0001:0003b9b4       _mbtowc                    0043c9b4 f   LIBCMT:mbtowc.obj
 0001:0003b9ce       __atodbl_l                 0043c9ce f   LIBCMT:atodbl.obj
 0001:0003ba76       __atoflt_l                 0043ca76 f   LIBCMT:atodbl.obj
 0001:0003bb1e       __fptostr                  0043cb1e f   LIBCMT:_fptostr.obj
 0001:0003bbdd       ___dtold                   0043cbdd f   LIBCMT:_cfout_.obj
 0001:0003bc95       __fltout2                  0043cc95 f   LIBCMT:_cfout_.obj
 0001:0003bd30       __alldvrm                  0043cd30 f   LIBCMT:lldvrm.obj
 0001:0003be10       __aullshr                  0043ce10 f   LIBCMT:ullshr.obj
 0001:0003be2f       __fptrap                   0043ce2f f   LIBCMT:crt0fp.obj
 0001:0003be38       __controlfp_s              0043ce38 f   LIBCMT:_contrlfp_.obj
 0001:0003bea4       __mbsnbicmp_l              0043cea4 f   LIBCMT:mbsnbicm.obj
 0001:0003c0cf       __mbsnbicmp                0043d0cf f   LIBCMT:mbsnbicm.obj
 0001:0003c0e9       __mbsnbcmp_l               0043d0e9 f   LIBCMT:mbsnbcmp.obj
 0001:0003c253       __mbsnbcmp                 0043d253 f   LIBCMT:mbsnbcmp.obj
 0001:0003c26d       ___crtGetLocaleInfoW       0043d26d f   LIBCMT:w_loc.obj
 0001:0003c3e0       ___crtGetLocaleInfoA       0043d3e0 f   LIBCMT:a_loc.obj
 0001:0003c41d       __flswbuf                  0043d41d f   LIBCMT:_flswbuf.obj
 0001:0003c591       __raise_exc_ex             0043d591 f   LIBCMT:_fpexcept_.obj
 0001:0003c86d       __raise_exc                0043d86d f   LIBCMT:_fpexcept_.obj
 0001:0003c890       __handle_exc               0043d890 f   LIBCMT:_fpexcept_.obj
 0001:0003ca72       __set_errno_from_matherr   0043da72 f   LIBCMT:_fpexcept_.obj
 0001:0003ca9f       __errcode                  0043da9f f   LIBCMT:_fpexcept_.obj
 0001:0003cad3       __umatherr                 0043dad3 f   LIBCMT:_fpexcept_.obj
 0001:0003cb73       __handle_qnan1             0043db73 f   LIBCMT:_fpexcept_.obj
 0001:0003cbc8       __except1                  0043dbc8 f   LIBCMT:_fpexcept_.obj
 0001:0003cc91       __frnd                     0043dc91 f   LIBCMT:_frnd_.obj
 0001:0003cca5       __set_exp                  0043dca5 f   LIBCMT:_util_.obj
 0001:0003ccd1       __sptype                   0043dcd1 f   LIBCMT:_util_.obj
 0001:0003cd31       __decomp                   0043dd31 f   LIBCMT:_util_.obj
 0001:0003cdea       __statfp                   0043ddea f   LIBCMT:_fpctrl_.obj
 0001:0003cdfa       __clrfp                    0043ddfa f   LIBCMT:_fpctrl_.obj
 0001:0003ce0b       __ctrlfp                   0043de0b f   LIBCMT:_fpctrl_.obj
 0001:0003ce34       __set_statfp               0043de34 f   LIBCMT:_fpctrl_.obj
 0001:0003ce8c       ___set_fpsr_sse2           0043de8c f   LIBCMT:_fpctrl_.obj
 0001:0003cefe       __putwch_nolock            0043defe f   LIBCMT:putwch.obj
 0001:0003cfc3       __filbuf                   0043dfc3 f   LIBCMT:_filbuf.obj
 0001:0003d0ee       __ungetc_nolock            0043e0ee f   LIBCMT:ungetc.obj
 0001:0003d1df       __strnicmp_l               0043e1df f   LIBCMT:strnicmp.obj
 0001:0003d2d1       __strnicmp                 0043e2d1 f   LIBCMT:strnicmp.obj
 0001:0003d32f       __getenv_helper_nolock     0043e32f f   LIBCMT:getenv.obj
 0001:0003d3b6       __ld12tod                  0043e3b6 f   LIBCMT:_intrncvt_.obj
 0001:0003d8fa       __ld12tof                  0043e8fa f   LIBCMT:_intrncvt_.obj
 0001:0003de3e       ___strgtold12_l            0043ee3e f   LIBCMT:_strgtold_.obj
 0001:0003e536       _$I10_OUTPUT               0043f536 f   LIBCMT:_x10fout_.obj
 0001:0003ef8b       __control87                0043ff8b f i LIBCMT:_ieee87_.obj
 0001:0003f29a       ___initconout              0044029a f   LIBCMT:initcon.obj
 0001:0003f2b9       ___termcon                 004402b9 f   LIBCMT:initcon.obj
 0001:0003f2f0       ___ascii_strnicmp          004402f0 f   LIBCMT:_strnicm.obj
 0001:0003f351       __mbsnbicoll_l             00440351 f   LIBCMT:mbsnbico.obj
 0001:0003f43f       __mbsnbicoll               0044043f f   LIBCMT:mbsnbico.obj
 0001:0003f459       ___wtomb_environ           00440459 f   LIBCMT:wtombenv.obj
 0001:0003f4f0       ___mtold12                 004404f0 f   LIBCMT:_mantold_.obj
 0001:0003fa4c       ___crtCompareStringA       00440a4c f   LIBCMT:a_cmp.obj
 0001:0003fa8e       __strnicoll_l              00440a8e f   LIBCMT:strnicol.obj
 0001:0003fc34       ___crtsetenv               00440c34 f   LIBCMT:setenv.obj
 0001:0003fe7f       __strdup                   00440e7f f   LIBCMT:strdup.obj
 0001:0003fed4       __mbschr_l                 00440ed4 f   LIBCMT:mbschr.obj
 0001:0003ff90       __mbschr                   00440f90 f   LIBCMT:mbschr.obj
 0001:0003ffa8       _RtlUnwind@16              00440fa8 f   kernel32:KERNEL32.dll
 0002:00000000       __imp__LookupPrivilegeValueA@12 00443000     advapi32:ADVAPI32.dll
 0002:00000004       __imp__AdjustTokenPrivileges@24 00443004     advapi32:ADVAPI32.dll
 0002:00000008       __imp__CreateServiceA@52   00443008     advapi32:ADVAPI32.dll
 0002:0000000c       __imp__StartServiceA@12    0044300c     advapi32:ADVAPI32.dll
 0002:00000010       __imp__ChangeServiceConfigA@44 00443010     advapi32:ADVAPI32.dll
 0002:00000014       __imp__CryptAcquireContextA@20 00443014     advapi32:ADVAPI32.dll
 0002:00000018       __imp__CryptGenRandom@12   00443018     advapi32:ADVAPI32.dll
 0002:0000001c       __imp__CryptReleaseContext@8 0044301c     advapi32:ADVAPI32.dll
 0002:00000020       __imp__RegQueryValueExA@24 00443020     advapi32:ADVAPI32.dll
 0002:00000024       __imp__OpenSCManagerA@12   00443024     advapi32:ADVAPI32.dll
 0002:00000028       __imp__OpenServiceA@12     00443028     advapi32:ADVAPI32.dll
 0002:0000002c       __imp__QueryServiceStatus@8 0044302c     advapi32:ADVAPI32.dll
 0002:00000030       __imp__ControlService@12   00443030     advapi32:ADVAPI32.dll
 0002:00000034       __imp__CloseServiceHandle@4 00443034     advapi32:ADVAPI32.dll
 0002:00000038       __imp__DeleteService@4     00443038     advapi32:ADVAPI32.dll
 0002:0000003c       __imp__RegEnumKeyExA@32    0044303c     advapi32:ADVAPI32.dll
 0002:00000040       __imp__RegQueryInfoKeyA@48 00443040     advapi32:ADVAPI32.dll
 0002:00000044       __imp__RegSetValueExA@24   00443044     advapi32:ADVAPI32.dll
 0002:00000048       __imp__RegOpenKeyExA@20    00443048     advapi32:ADVAPI32.dll
 0002:0000004c       __imp__RegCreateKeyExA@36  0044304c     advapi32:ADVAPI32.dll
 0002:00000050       __imp__RegCloseKey@4       00443050     advapi32:ADVAPI32.dll
 0002:00000054       __imp__RegDeleteValueA@8   00443054     advapi32:ADVAPI32.dll
 0002:00000058       __imp__RegDeleteKeyA@8     00443058     advapi32:ADVAPI32.dll
 0002:0000005c       __imp__OpenProcessToken@12 0044305c     advapi32:ADVAPI32.dll
 0002:00000060       \177ADVAPI32_NULL_THUNK_DATA 00443060     advapi32:ADVAPI32.dll
 0002:00000064       __imp__InitCommonControls@0 00443064     comctl32:COMCTL32.dll
 0002:00000068       \177COMCTL32_NULL_THUNK_DATA 00443068     comctl32:COMCTL32.dll
 0002:0000006c       __imp__GetCurrentObject@8  0044306c     gdi32:GDI32.dll
 0002:00000070       __imp__GetObjectA@12       00443070     gdi32:GDI32.dll
 0002:00000074       __imp__CreateCompatibleBitmap@12 00443074     gdi32:GDI32.dll
 0002:00000078       __imp__SetStretchBltMode@8 00443078     gdi32:GDI32.dll
 0002:0000007c       __imp__StretchBlt@44       0044307c     gdi32:GDI32.dll
 0002:00000080       __imp__DeleteDC@4          00443080     gdi32:GDI32.dll
 0002:00000084       __imp__BitBlt@36           00443084     gdi32:GDI32.dll
 0002:00000088       __imp__CreateCompatibleDC@4 00443088     gdi32:GDI32.dll
 0002:0000008c       __imp__SetMapMode@8        0044308c     gdi32:GDI32.dll
 0002:00000090       __imp__GetDeviceCaps@8     00443090     gdi32:GDI32.dll
 0002:00000094       __imp__GetTextExtentPoint32W@16 00443094     gdi32:GDI32.dll
 0002:00000098       __imp__GetTextMetricsA@8   00443098     gdi32:GDI32.dll
 0002:0000009c       __imp__SelectObject@8      0044309c     gdi32:GDI32.dll
 0002:000000a0       __imp__CreateSolidBrush@4  004430a0     gdi32:GDI32.dll
 0002:000000a4       __imp__SetTextColor@8      004430a4     gdi32:GDI32.dll
 0002:000000a8       __imp__SetBkColor@8        004430a8     gdi32:GDI32.dll
 0002:000000ac       __imp__SetTextAlign@8      004430ac     gdi32:GDI32.dll
 0002:000000b0       __imp__TextOutW@20         004430b0     gdi32:GDI32.dll
 0002:000000b4       __imp__SetBkMode@8         004430b4     gdi32:GDI32.dll
 0002:000000b8       __imp__GetStockObject@4    004430b8     gdi32:GDI32.dll
 0002:000000bc       __imp__CreateFontIndirectW@4 004430bc     gdi32:GDI32.dll
 0002:000000c0       __imp__DeleteObject@4      004430c0     gdi32:GDI32.dll
 0002:000000c4       \177GDI32_NULL_THUNK_DATA  004430c4     gdi32:GDI32.dll
 0002:000000c8       __imp__FindVolumeClose@4   004430c8     kernel32:KERNEL32.dll
 0002:000000cc       __imp__FindNextVolumeW@12  004430cc     kernel32:KERNEL32.dll
 0002:000000d0       __imp__QueryDosDeviceW@12  004430d0     kernel32:KERNEL32.dll
 0002:000000d4       __imp__FindFirstVolumeW@8  004430d4     kernel32:KERNEL32.dll
 0002:000000d8       __imp__GetCurrentProcessId@0 004430d8     kernel32:KERNEL32.dll
 0002:000000dc       __imp__VirtualQuery@12     004430dc     kernel32:KERNEL32.dll
 0002:000000e0       __imp__ReleaseMutex@4      004430e0     kernel32:KERNEL32.dll
 0002:000000e4       __imp__CreateMutexA@12     004430e4     kernel32:KERNEL32.dll
 0002:000000e8       __imp__GetVersionExA@4     004430e8     kernel32:KERNEL32.dll
 0002:000000ec       __imp__SetFileTime@16      004430ec     kernel32:KERNEL32.dll
 0002:000000f0       __imp__GetFileTime@16      004430f0     kernel32:KERNEL32.dll
 0002:000000f4       __imp__SetFilePointer@16   004430f4     kernel32:KERNEL32.dll
 0002:000000f8       __imp__FlushFileBuffers@4  004430f8     kernel32:KERNEL32.dll
 0002:000000fc       __imp__GetFileSize@8       004430fc     kernel32:KERNEL32.dll
 0002:00000100       __imp__GetFileSizeEx@8     00443100     kernel32:KERNEL32.dll
 0002:00000104       __imp__GetCurrentProcess@0 00443104     kernel32:KERNEL32.dll
 0002:00000108       __imp__GetCurrentDirectoryA@8 00443108     kernel32:KERNEL32.dll
 0002:0000010c       __imp__LockResource@4      0044310c     kernel32:KERNEL32.dll
 0002:00000110       __imp__GetFileAttributesA@4 00443110     kernel32:KERNEL32.dll
 0002:00000114       __imp__GetCurrentThreadId@0 00443114     kernel32:KERNEL32.dll
 0002:00000118       __imp__UnhandledExceptionFilter@4 00443118     kernel32:KERNEL32.dll
 0002:0000011c       __imp__GetSystemInfo@4     0044311c     kernel32:KERNEL32.dll
 0002:00000120       __imp__GetFileInformationByHandle@8 00443120     kernel32:KERNEL32.dll
 0002:00000124       __imp__WaitForSingleObject@8 00443124     kernel32:KERNEL32.dll
 0002:00000128       __imp__GetCurrentThread@0  00443128     kernel32:KERNEL32.dll
 0002:0000012c       __imp__SetUnhandledExceptionFilter@4 0044312c     kernel32:KERNEL32.dll
 0002:00000130       __imp__SetErrorMode@4      00443130     kernel32:KERNEL32.dll
 0002:00000134       __imp__FindNextFileW@8     00443134     kernel32:KERNEL32.dll
 0002:00000138       __imp__CreateFileW@28      00443138     kernel32:KERNEL32.dll
 0002:0000013c       __imp__FindFirstFileW@8    0044313c     kernel32:KERNEL32.dll
 0002:00000140       __imp__FormatMessageW@28   00443140     kernel32:KERNEL32.dll
 0002:00000144       __imp__GetLocaleInfoW@16   00443144     kernel32:KERNEL32.dll
 0002:00000148       __imp__GetTimeZoneInformation@4 00443148     kernel32:KERNEL32.dll
 0002:0000014c       __imp__GetProcessHeap@0    0044314c     kernel32:KERNEL32.dll
 0002:00000150       __imp__SetEndOfFile@4      00443150     kernel32:KERNEL32.dll
 0002:00000154       __imp__IsValidLocale@8     00443154     kernel32:KERNEL32.dll
 0002:00000158       __imp__EnumSystemLocalesA@8 00443158     kernel32:KERNEL32.dll
 0002:0000015c       __imp__GetUserDefaultLCID@0 0044315c     kernel32:KERNEL32.dll
 0002:00000160       __imp__GetStringTypeA@20   00443160     kernel32:KERNEL32.dll
 0002:00000164       __imp__GetLocaleInfoA@16   00443164     kernel32:KERNEL32.dll
 0002:00000168       __imp__GetTickCount@0      00443168     kernel32:KERNEL32.dll
 0002:0000016c       __imp__LoadLibraryExA@12   0044316c     kernel32:KERNEL32.dll
 0002:00000170       __imp__GetEnvironmentStringsW@0 00443170     kernel32:KERNEL32.dll
 0002:00000174       __imp__GetVolumePathNameA@12 00443174     kernel32:KERNEL32.dll
 0002:00000178       __imp__GetEnvironmentStrings@0 00443178     kernel32:KERNEL32.dll
 0002:0000017c       __imp__FreeEnvironmentStringsA@4 0044317c     kernel32:KERNEL32.dll
 0002:00000180       __imp__GetConsoleMode@8    00443180     kernel32:KERNEL32.dll
 0002:00000184       __imp__GetConsoleCP@0      00443184     kernel32:KERNEL32.dll
 0002:00000188       __imp__InitializeCriticalSectionAndSpinCount@8 00443188     kernel32:KERNEL32.dll
 0002:0000018c       __imp__SetHandleCount@4    0044318c     kernel32:KERNEL32.dll
 0002:00000190       __imp__PeekNamedPipe@24    00443190     kernel32:KERNEL32.dll
 0002:00000194       __imp__GetFullPathNameA@16 00443194     kernel32:KERNEL32.dll
 0002:00000198       __imp__HeapSize@12         00443198     kernel32:KERNEL32.dll
 0002:0000019c       __imp__GetStdHandle@4      0044319c     kernel32:KERNEL32.dll
 0002:000001a0       __imp__HeapCreate@12       004431a0     kernel32:KERNEL32.dll
 0002:000001a4       __imp__HeapReAlloc@16      004431a4     kernel32:KERNEL32.dll
 0002:000001a8       __imp__VirtualFree@12      004431a8     kernel32:KERNEL32.dll
 0002:000001ac       __imp__TlsFree@4           004431ac     kernel32:KERNEL32.dll
 0002:000001b0       __imp__TlsSetValue@8       004431b0     kernel32:KERNEL32.dll
 0002:000001b4       __imp__TlsAlloc@0          004431b4     kernel32:KERNEL32.dll
 0002:000001b8       __imp__TlsGetValue@4       004431b8     kernel32:KERNEL32.dll
 0002:000001bc       __imp__IsValidCodePage@4   004431bc     kernel32:KERNEL32.dll
 0002:000001c0       __imp__GetOEMCP@0          004431c0     kernel32:KERNEL32.dll
 0002:000001c4       __imp__GetACP@0            004431c4     kernel32:KERNEL32.dll
 0002:000001c8       __imp__GetStringTypeW@16   004431c8     kernel32:KERNEL32.dll
 0002:000001cc       __imp__GetCPInfo@8         004431cc     kernel32:KERNEL32.dll
 0002:000001d0       __imp__LCMapStringW@24     004431d0     kernel32:KERNEL32.dll
 0002:000001d4       __imp__LCMapStringA@24     004431d4     kernel32:KERNEL32.dll
 0002:000001d8       __imp__GetStartupInfoA@4   004431d8     kernel32:KERNEL32.dll
 0002:000001dc       __imp__GetCommandLineA@0   004431dc     kernel32:KERNEL32.dll
 0002:000001e0       __imp__GetFileType@4       004431e0     kernel32:KERNEL32.dll
 0002:000001e4       __imp__SetStdHandle@8      004431e4     kernel32:KERNEL32.dll
 0002:000001e8       __imp__GetFileAttributesW@4 004431e8     kernel32:KERNEL32.dll
 0002:000001ec       __imp__IsDebuggerPresent@0 004431ec     kernel32:KERNEL32.dll
 0002:000001f0       __imp__TerminateProcess@8  004431f0     kernel32:KERNEL32.dll
 0002:000001f4       __imp__GetSystemTimeAsFileTime@4 004431f4     kernel32:KERNEL32.dll
 0002:000001f8       __imp__ExitProcess@4       004431f8     kernel32:KERNEL32.dll
 0002:000001fc       __imp__CreateThread@24     004431fc     kernel32:KERNEL32.dll
 0002:00000200       __imp__ResumeThread@4      00443200     kernel32:KERNEL32.dll
 0002:00000204       __imp__ExitThread@4        00443204     kernel32:KERNEL32.dll
 0002:00000208       __imp__FileTimeToLocalFileTime@8 00443208     kernel32:KERNEL32.dll
 0002:0000020c       __imp__FileTimeToSystemTime@8 0044320c     kernel32:KERNEL32.dll
 0002:00000210       __imp__RtlUnwind@16        00443210     kernel32:KERNEL32.dll
 0002:00000214       __imp__GetModuleHandleW@4  00443214     kernel32:KERNEL32.dll
 0002:00000218       __imp__VirtualAlloc@16     00443218     kernel32:KERNEL32.dll
 0002:0000021c       __imp__VirtualProtect@16   0044321c     kernel32:KERNEL32.dll
 0002:00000220       __imp__HeapFree@12         00443220     kernel32:KERNEL32.dll
 0002:00000224       __imp__HeapAlloc@12        00443224     kernel32:KERNEL32.dll
 0002:00000228       __imp__InterlockedExchange@8 00443228     kernel32:KERNEL32.dll
 0002:0000022c       __imp__InterlockedCompareExchange@12 0044322c     kernel32:KERNEL32.dll
 0002:00000230       __imp__InterlockedDecrement@4 00443230     kernel32:KERNEL32.dll
 0002:00000234       __imp__SetEnvironmentVariableA@8 00443234     kernel32:KERNEL32.dll
 0002:00000238       __imp__InterlockedIncrement@4 00443238     kernel32:KERNEL32.dll
 0002:0000023c       __imp__FindResourceA@12    0044323c     kernel32:KERNEL32.dll
 0002:00000240       __imp__LoadResource@8      00443240     kernel32:KERNEL32.dll
 0002:00000244       __imp__SizeofResource@8    00443244     kernel32:KERNEL32.dll
 0002:00000248       __imp__FreeLibrary@4       00443248     kernel32:KERNEL32.dll
 0002:0000024c       __imp__GetVolumeInformationA@32 0044324c     kernel32:KERNEL32.dll
 0002:00000250       __imp__GetShortPathNameA@12 00443250     kernel32:KERNEL32.dll
 0002:00000254       __imp__GetDriveTypeA@4     00443254     kernel32:KERNEL32.dll
 0002:00000258       __imp__CreateDirectoryA@8  00443258     kernel32:KERNEL32.dll
 0002:0000025c       __imp__SetFilePointerEx@20 0044325c     kernel32:KERNEL32.dll
 0002:00000260       __imp__SetLastError@4      00443260     kernel32:KERNEL32.dll
 0002:00000264       __imp__LoadLibraryA@4      00443264     kernel32:KERNEL32.dll
 0002:00000268       __imp__MoveFileA@8         00443268     kernel32:KERNEL32.dll
 0002:0000026c       __imp__GetTempPathA@8      0044326c     kernel32:KERNEL32.dll
 0002:00000270       __imp__GetSystemDirectoryA@8 00443270     kernel32:KERNEL32.dll
 0002:00000274       __imp__GetWindowsDirectoryA@8 00443274     kernel32:KERNEL32.dll
 0002:00000278       __imp__SetCurrentDirectoryA@4 00443278     kernel32:KERNEL32.dll
 0002:0000027c       __imp__CopyFileA@12        0044327c     kernel32:KERNEL32.dll
 0002:00000280       __imp__FindFirstFileA@8    00443280     kernel32:KERNEL32.dll
 0002:00000284       __imp__FindClose@4         00443284     kernel32:KERNEL32.dll
 0002:00000288       __imp__CreateFileA@28      00443288     kernel32:KERNEL32.dll
 0002:0000028c       __imp__Sleep@4             0044328c     kernel32:KERNEL32.dll
 0002:00000290       __imp__DeviceIoControl@32  00443290     kernel32:KERNEL32.dll
 0002:00000294       __imp__RemoveDirectoryA@4  00443294     kernel32:KERNEL32.dll
 0002:00000298       __imp__DeleteFileA@4       00443298     kernel32:KERNEL32.dll
 0002:0000029c       __imp__GetModuleFileNameA@12 0044329c     kernel32:KERNEL32.dll
 0002:000002a0       __imp__CreatePipe@16       004432a0     kernel32:KERNEL32.dll
 0002:000002a4       __imp__SetHandleInformation@12 004432a4     kernel32:KERNEL32.dll
 0002:000002a8       __imp__CreateProcessA@40   004432a8     kernel32:KERNEL32.dll
 0002:000002ac       __imp__WriteFile@20        004432ac     kernel32:KERNEL32.dll
 0002:000002b0       __imp__ReadFile@20         004432b0     kernel32:KERNEL32.dll
 0002:000002b4       __imp__CloseHandle@4       004432b4     kernel32:KERNEL32.dll
 0002:000002b8       __imp__FreeEnvironmentStringsW@4 004432b8     kernel32:KERNEL32.dll
 0002:000002bc       __imp__GetModuleFileNameW@12 004432bc     kernel32:KERNEL32.dll
 0002:000002c0       __imp__IsDBCSLeadByte@4    004432c0     kernel32:KERNEL32.dll
 0002:000002c4       __imp__FormatMessageA@28   004432c4     kernel32:KERNEL32.dll
 0002:000002c8       __imp__LocalAlloc@8        004432c8     kernel32:KERNEL32.dll
 0002:000002cc       __imp__LocalFree@4         004432cc     kernel32:KERNEL32.dll
 0002:000002d0       __imp__lstrcmpiA@8         004432d0     kernel32:KERNEL32.dll
 0002:000002d4       __imp__lstrlenA@4          004432d4     kernel32:KERNEL32.dll
 0002:000002d8       __imp__GetModuleHandleA@4  004432d8     kernel32:KERNEL32.dll
 0002:000002dc       __imp__GetProcAddress@8    004432dc     kernel32:KERNEL32.dll
 0002:000002e0       __imp__GetLastError@0      004432e0     kernel32:KERNEL32.dll
 0002:000002e4       __imp__DeleteCriticalSection@4 004432e4     kernel32:KERNEL32.dll
 0002:000002e8       __imp__InitializeCriticalSection@4 004432e8     kernel32:KERNEL32.dll
 0002:000002ec       __imp__LeaveCriticalSection@4 004432ec     kernel32:KERNEL32.dll
 0002:000002f0       __imp__EnterCriticalSection@4 004432f0     kernel32:KERNEL32.dll
 0002:000002f4       __imp__RaiseException@16   004432f4     kernel32:KERNEL32.dll
 0002:000002f8       __imp__lstrlenW@4          004432f8     kernel32:KERNEL32.dll
 0002:000002fc       __imp__WideCharToMultiByte@32 004432fc     kernel32:KERNEL32.dll
 0002:00000300       __imp__MultiByteToWideChar@24 00443300     kernel32:KERNEL32.dll
 0002:00000304       __imp__WriteConsoleA@20    00443304     kernel32:KERNEL32.dll
 0002:00000308       __imp__GetConsoleOutputCP@0 00443308     kernel32:KERNEL32.dll
 0002:0000030c       __imp__WriteConsoleW@20    0044330c     kernel32:KERNEL32.dll
 0002:00000310       __imp__CompareStringA@24   00443310     kernel32:KERNEL32.dll
 0002:00000314       __imp__CompareStringW@24   00443314     kernel32:KERNEL32.dll
 0002:00000318       __imp__QueryPerformanceCounter@4 00443318     kernel32:KERNEL32.dll
 0002:0000031c       \177KERNEL32_NULL_THUNK_DATA 0044331c     kernel32:KERNEL32.dll
 0002:00000320       __imp__RegisterTypeLib@12  00443320     oleaut32:OLEAUT32.dll
 0002:00000324       __imp__UnRegisterTypeLib@20 00443324     oleaut32:OLEAUT32.dll
 0002:00000328       __imp__LoadTypeLib@8       00443328     oleaut32:OLEAUT32.dll
 0002:0000032c       __imp__VarUI4FromStr@16    0044332c     oleaut32:OLEAUT32.dll
 0002:00000330       \177OLEAUT32_NULL_THUNK_DATA 00443330     oleaut32:OLEAUT32.dll
 0002:00000334       __imp__SetupDiOpenClassRegKey@8 00443334     setupapi:SETUPAPI.dll
 0002:00000338       __imp__SetupOpenInfFileA@16 00443338     setupapi:SETUPAPI.dll
 0002:0000033c       __imp__SetupInstallFromInfSectionA@44 0044333c     setupapi:SETUPAPI.dll
 0002:00000340       __imp__SetupCloseInfFile@4 00443340     setupapi:SETUPAPI.dll
 0002:00000344       \177SETUPAPI_NULL_THUNK_DATA 00443344     setupapi:SETUPAPI.dll
 0002:00000348       __imp__SHBrowseForFolderW@4 00443348     shell32:SHELL32.dll
 0002:0000034c       __imp__SHGetMalloc@4       0044334c     shell32:SHELL32.dll
 0002:00000350       __imp__ShellExecuteA@24    00443350     shell32:SHELL32.dll
 0002:00000354       __imp__IsUserAnAdmin@0     00443354     shell32:SHELL32.dll
 0002:00000358       __imp__SHGetSpecialFolderPathA@16 00443358     shell32:SHELL32.dll
 0002:0000035c       __imp__SHGetFolderPathA@20 0044335c     shell32:SHELL32.dll
 0002:00000360       __imp__SHChangeNotify@16   00443360     shell32:SHELL32.dll
 0002:00000364       __imp__SHGetSpecialFolderLocation@12 00443364     shell32:SHELL32.dll
 0002:00000368       __imp__SHGetPathFromIDListA@8 00443368     shell32:SHELL32.dll
 0002:0000036c       \177SHELL32_NULL_THUNK_DATA 0044336c     shell32:SHELL32.dll
 0002:00000370       __imp__SHStrDupW@8         00443370     shlwapi:SHLWAPI.dll
 0002:00000374       \177SHLWAPI_NULL_THUNK_DATA 00443374     shlwapi:SHLWAPI.dll
 0002:00000378       __imp__PostMessageA@16     00443378     user32:USER32.dll
 0002:0000037c       __imp__MessageBoxW@16      0044337c     user32:USER32.dll
 0002:00000380       __imp__wsprintfW           00443380     user32:USER32.dll
 0002:00000384       __imp__MessageBoxA@16      00443384     user32:USER32.dll
 0002:00000388       __imp__CharNextA@4         00443388     user32:USER32.dll
 0002:0000038c       __imp__SendDlgItemMessageW@20 0044338c     user32:USER32.dll
 0002:00000390       __imp__LoadCursorA@8       00443390     user32:USER32.dll
 0002:00000394       __imp__ExitWindowsEx@8     00443394     user32:USER32.dll
 0002:00000398       __imp__GetKeyState@4       00443398     user32:USER32.dll
 0002:0000039c       __imp__EnumChildWindows@12 0044339c     user32:USER32.dll
 0002:000003a0       __imp__GetDlgCtrlID@4      004433a0     user32:USER32.dll
 0002:000003a4       __imp__GetClassNameA@12    004433a4     user32:USER32.dll
 0002:000003a8       __imp__SetCursor@4         004433a8     user32:USER32.dll
 0002:000003ac       __imp__DefDlgProcA@16      004433ac     user32:USER32.dll
 0002:000003b0       __imp__UnregisterClassA@8  004433b0     user32:USER32.dll
 0002:000003b4       __imp__LoadIconA@8         004433b4     user32:USER32.dll
 0002:000003b8       __imp__RegisterClassA@4    004433b8     user32:USER32.dll
 0002:000003bc       __imp__LoadBitmapA@8       004433bc     user32:USER32.dll
 0002:000003c0       __imp__SystemParametersInfoW@16 004433c0     user32:USER32.dll
 0002:000003c4       __imp__GetSystemMenu@8     004433c4     user32:USER32.dll
 0002:000003c8       __imp__AppendMenuA@16      004433c8     user32:USER32.dll
 0002:000003cc       __imp__AppendMenuW@16      004433cc     user32:USER32.dll
 0002:000003d0       __imp__SetWindowLongA@12   004433d0     user32:USER32.dll
 0002:000003d4       __imp__GetWindowTextW@12   004433d4     user32:USER32.dll
 0002:000003d8       __imp__GetSystemMetrics@4  004433d8     user32:USER32.dll
 0002:000003dc       __imp__GetWindowInfo@8     004433dc     user32:USER32.dll
 0002:000003e0       __imp__GetWindowLongA@8    004433e0     user32:USER32.dll
 0002:000003e4       __imp__CallWindowProcA@20  004433e4     user32:USER32.dll
 0002:000003e8       __imp__TrackMouseEvent@4   004433e8     user32:USER32.dll
 0002:000003ec       __imp__GetDC@4             004433ec     user32:USER32.dll
 0002:000003f0       __imp__MessageBeep@4       004433f0     user32:USER32.dll
 0002:000003f4       __imp__GetClientRect@8     004433f4     user32:USER32.dll
 0002:000003f8       __imp__SetWindowPos@28     004433f8     user32:USER32.dll
 0002:000003fc       __imp__GetWindowTextA@12   004433fc     user32:USER32.dll
 0002:00000400       __imp__DestroyWindow@4     00443400     user32:USER32.dll
 0002:00000404       __imp__GetWindowRect@8     00443404     user32:USER32.dll
 0002:00000408       __imp__CreateDialogParamW@20 00443408     user32:USER32.dll
 0002:0000040c       __imp__MapDialogRect@8     0044340c     user32:USER32.dll
 0002:00000410       __imp__MoveWindow@24       00443410     user32:USER32.dll
 0002:00000414       __imp__BeginPaint@8        00443414     user32:USER32.dll
 0002:00000418       __imp__FillRect@12         00443418     user32:USER32.dll
 0002:0000041c       __imp__EndPaint@8          0044341c     user32:USER32.dll
 0002:00000420       __imp__ReleaseDC@8         00443420     user32:USER32.dll
 0002:00000424       __imp__GetWindowTextLengthA@4 00443424     user32:USER32.dll
 0002:00000428       __imp__SetDlgItemTextA@12  00443428     user32:USER32.dll
 0002:0000042c       __imp__SetWindowTextA@8    0044342c     user32:USER32.dll
 0002:00000430       __imp__ShowWindow@8        00443430     user32:USER32.dll
 0002:00000434       __imp__SetWindowTextW@8    00443434     user32:USER32.dll
 0002:00000438       __imp__SetFocus@4          00443438     user32:USER32.dll
 0002:0000043c       __imp__EndDialog@8         0044343c     user32:USER32.dll
 0002:00000440       __imp__DialogBoxParamW@20  00443440     user32:USER32.dll
 0002:00000444       __imp__EnableWindow@8      00443444     user32:USER32.dll
 0002:00000448       __imp__EnumWindows@8       00443448     user32:USER32.dll
 0002:0000044c       __imp__SendMessageA@16     0044344c     user32:USER32.dll
 0002:00000450       __imp__SendMessageW@16     00443450     user32:USER32.dll
 0002:00000454       __imp__SendDlgItemMessageA@20 00443454     user32:USER32.dll
 0002:00000458       __imp__GetParent@4         00443458     user32:USER32.dll
 0002:0000045c       __imp__GetDlgItem@8        0044345c     user32:USER32.dll
 0002:00000460       __imp__InvalidateRect@12   00443460     user32:USER32.dll
 0002:00000464       __imp__GetClassInfoA@12    00443464     user32:USER32.dll
 0002:00000468       \177USER32_NULL_THUNK_DATA 00443468     user32:USER32.dll
 0002:0000046c       __imp__CoInitialize@4      0044346c     ole32:ole32.dll
 0002:00000470       __imp__CoUninitialize@0    00443470     ole32:ole32.dll
 0002:00000474       __imp__CoCreateInstance@20 00443474     ole32:ole32.dll
 0002:00000478       __imp__PropVariantClear@4  00443478     ole32:ole32.dll
 0002:0000047c       __imp__OleInitialize@4     0044347c     ole32:ole32.dll
 0002:00000480       __imp__OleUninitialize@0   00443480     ole32:ole32.dll
 0002:00000484       __imp__CoTaskMemFree@4     00443484     ole32:ole32.dll
 0002:00000488       __imp__CoTaskMemRealloc@8  00443488     ole32:ole32.dll
 0002:0000048c       __imp__CoTaskMemAlloc@4    0044348c     ole32:ole32.dll
 0002:00000490       \177ole32_NULL_THUNK_DATA  00443490     ole32:ole32.dll
 0002:00000494       ___xc_a                    00443494     LIBCMT:crt0init.obj
 0002:000004b8       ___xc_z                    004434b8     LIBCMT:crt0init.obj
 0002:000004bc       ___xi_a                    004434bc     LIBCMT:crt0init.obj
 0002:000004dc       ___xi_z                    004434dc     LIBCMT:crt0init.obj
 0002:000004e0       ___xp_a                    004434e0     LIBCMT:crt0init.obj
 0002:000004ec       ___xp_z                    004434ec     LIBCMT:crt0init.obj
 0002:000004f0       ___xt_a                    004434f0     LIBCMT:crt0init.obj
 0002:000004f4       ___xt_z                    004434f4     LIBCMT:crt0init.obj
 0002:00000500       ??_C@_0P@GHFPNOJB@bad?5allocation?$AA@ 00443500     ComSetup.obj
 0002:00000510       ??_C@_07KJLOKDKB@TypeLib?$AA@ 00443510     ComSetup.obj
 0002:00000518       ??_C@_08KEKAJNJI@Software?$AA@ 00443518     ComSetup.obj
 0002:00000524       ??_C@_06FDHFNJBJ@SYSTEM?$AA@ 00443524     ComSetup.obj
 0002:0000052c       ??_C@_08LOPHEHKG@SECURITY?$AA@ 0044352c     ComSetup.obj
 0002:00000538       ??_C@_03DDIMFGBA@SAM?$AA@  00443538     ComSetup.obj
 0002:0000053c       ??_C@_04IHBFOLAC@Mime?$AA@ 0044353c     ComSetup.obj
 0002:00000544       ??_C@_08PPIOJEA@Hardware?$AA@ 00443544     ComSetup.obj
 0002:00000550       ??_C@_09JKPGEJCH@Interface?$AA@ 00443550     ComSetup.obj
 0002:0000055c       ??_C@_08PICKODJL@FileType?$AA@ 0044355c     ComSetup.obj
 0002:00000568       ??_C@_0BF@HDDNNDFH@Component?5Categories?$AA@ 00443568     ComSetup.obj
 0002:00000580       ??_C@_05GIBEAPNE@CLSID?$AA@ 00443580     ComSetup.obj
 0002:00000588       ??_C@_05PDIKPLII@AppID?$AA@ 00443588     ComSetup.obj
 0002:00000590       ??_C@_06JBKGCNBB@Delete?$AA@ 00443590     ComSetup.obj
 0002:00000598       ??_C@_08KAAPDIAN@NoRemove?$AA@ 00443598     ComSetup.obj
 0002:000005a4       ??_C@_0M@DBGDLGLL@ForceRemove?$AA@ 004435a4     ComSetup.obj
 0002:000005b0       ??_C@_03LAIAPFCB@Val?$AA@  004435b0     ComSetup.obj
 0002:000005b4       ??_C@_01HMGJMAIH@B?$AA@    004435b4     ComSetup.obj
 0002:000005b8       ??_C@_01CKDDGHAB@D?$AA@    004435b8     ComSetup.obj
 0002:000005bc       ??_C@_01PLPBNMEI@M?$AA@    004435bc     ComSetup.obj
 0002:000005c0       ??_C@_01CPLAODJH@S?$AA@    004435c0     ComSetup.obj
 0002:00000604       ?rgszNeverDelete@CRegParser@ATL@@1QBQBDB 00443604     ComSetup.obj
 0002:00000634       ??_C@_0BA@KECIECLD@RegDeleteKeyExA?$AA@ 00443634     ComSetup.obj
 0002:00000644       ??_C@_0N@DOHINHCI@Advapi32?4dll?$AA@ 00443644     ComSetup.obj
 0002:00000658       ?map@?1??HKeyFromString@CRegParser@ATL@@KAPAUHKEY__@@PAD@Z@4QBUkeymap@?1??123@KAPAU4@0@Z@B 00443658     ComSetup.obj
 0002:000006c8       ??_C@_04OHBKMIBJ@HKCR?$AA@ 004436c8     ComSetup.obj
 0002:000006d0       ??_C@_04KIFLFONO@HKCU?$AA@ 004436d0     ComSetup.obj
 0002:000006d8       ??_C@_04CBBMIBLK@HKLM?$AA@ 004436d8     ComSetup.obj
 0002:000006e0       ??_C@_03DLBIJLAB@HKU?$AA@  004436e0     ComSetup.obj
 0002:000006e4       ??_C@_04OFOCGAOH@HKPD?$AA@ 004436e4     ComSetup.obj
 0002:000006ec       ??_C@_04POMNGLEL@HKDD?$AA@ 004436ec     ComSetup.obj
 0002:000006f4       ??_C@_04LEMDOLAJ@HKCC?$AA@ 004436f4     ComSetup.obj
 0002:000006fc       ??_C@_0BC@JBJOLKMF@HKEY_CLASSES_ROOT?$AA@ 004436fc     ComSetup.obj
 0002:00000710       ??_C@_0BC@GMMMKLBI@HKEY_CURRENT_USER?$AA@ 00443710     ComSetup.obj
 0002:00000724       ??_C@_0BD@GIIFIKDM@HKEY_LOCAL_MACHINE?$AA@ 00443724     ComSetup.obj
 0002:00000738       ??_C@_0L@OEMMANAM@HKEY_USERS?$AA@ 00443738     ComSetup.obj
 0002:00000744       ??_C@_0BG@IDBEHNDO@HKEY_PERFORMANCE_DATA?$AA@ 00443744     ComSetup.obj
 0002:0000075c       ??_C@_0O@MJDLIIGK@HKEY_DYN_DATA?$AA@ 0044375c     ComSetup.obj
 0002:0000076c       ??_C@_0BE@NLNNHLLF@HKEY_CURRENT_CONFIG?$AA@ 0044376c     ComSetup.obj
 0002:00000784       ??_7_com_error@@6B@        00443784     ComSetup.obj
 0002:00000788       ??_C@_0BF@IPPGFENJ@Unknown?5error?50x?$CF0lX?$AA@ 00443788     ComSetup.obj
 0002:000007a0       ??_C@_0BE@NNIJINN@IDispatch?5error?5?$CD?$CFd?$AA@ 004437a0     ComSetup.obj
 0002:000007b8       ??_7CRegObject@ATL@@6B@    004437b8     ComSetup.obj
 0002:000007d0       ??_C@_1BE@LJOLIMEM@?$AA?$AN?$AA?6?$AA?7?$AA?$HN?$AA?$AN?$AA?6?$AA?$HN?$AA?$AN?$AA?6?$AA?$AA@ 004437d0     ComSetup.obj
 0002:000007e8       ??_C@_1EA@NHKLICFA@?$AAH?$AAK?$AAC?$AAU?$AA?$AN?$AA?6?$AA?$HL?$AA?7?$AAS?$AAo?$AAf?$AAt?$AAw?$AAa?$AAr?$AAe?$AA?$AN?$AA?6?$AA?7?$AA?$HL?$AA?$AN?$AA?6?$AA?7?$AA?7?$AAC?$AAl?$AAa?$AAs?$AAs?$AAe?$AAs?$AA?$AA@ 004437e8     ComSetup.obj
 0002:00000828       ??_C@_0L@FEEFGEIL@CipherShed?$AA@ 00443828     ComSetup.obj
 0002:00000834       ??_C@_1BC@KAILKFFG@?$AAR?$AAE?$AAG?$AAI?$AAS?$AAT?$AAR?$AAY?$AA?$AA@ 00443834     ComSetup.obj
 0002:00000848       ??_C@_1BM@IFKNBDBK@?$AAF?$AAO?$AAR?$AAM?$AAA?$AAT?$AA_?$AAM?$AAO?$AAD?$AAU?$AAL?$AAE?$AA?$AA@ 00443848     ComSetup.obj
 0002:00000864       ??_C@_1BI@FPIOFILF@?$AAM?$AAA?$AAI?$AAN?$AA_?$AAM?$AAO?$AAD?$AAU?$AAL?$AAE?$AA?$AA@ 00443864     ComSetup.obj
 0002:0000087c       ??_C@_1DC@LLKEOMDK@?$AA?$CF?$AAh?$AAs?$AAC?$AAi?$AAp?$AAh?$AAe?$AAr?$AAS?$AAh?$AAe?$AAd?$AA?5?$AAF?$AAo?$AAr?$AAm?$AAa?$AAt?$AA?4?$AAe?$AAx?$AAe?$AA?$AA@ 0044387c     ComSetup.obj
 0002:000008b0       ??_C@_1CE@EBKOGEKF@?$AA?$CF?$AAh?$AAs?$AAC?$AAi?$AAp?$AAh?$AAe?$AAr?$AAS?$AAh?$AAe?$AAd?$AA?4?$AAe?$AAx?$AAe?$AA?$AA@ 004438b0     ComSetup.obj
 0002:000008d4       ??_C@_01KICIPPFI@?2?$AA@   004438d4     Dir.obj
 0002:000008d8       ??_C@_02HHAEMJFE@?2?1?$AA@ 004438d8     Dir.obj
 0002:000008dc       ??_C@_0BC@KMEHMKJJ@truecrypt?9x64?4sys?$AA@ 004438dc     SelfExtract.obj
 0002:000008f0       ??_C@_0O@OJENBJKN@truecrypt?4sys?$AA@ 004438f0     SelfExtract.obj
 0002:00000900       ??_C@_0BG@NHCNJMON@CipherShed?5Format?4exe?$AA@ 00443900     SelfExtract.obj
 0002:00000918       ??_C@_0P@KEOPEMDF@CipherShed?4exe?$AA@ 00443918     SelfExtract.obj
 0002:00000928       ??_C@_0M@HNDLNFKG@License?4txt?$AA@ 00443928     SelfExtract.obj
 0002:00000934       ??_C@_0BK@LMECBCPP@CipherShed?5User?5Guide?4pdf?$AA@ 00443934     SelfExtract.obj
 0002:00000950       ??_C@_0BG@PCIEDLBB@ACipherShed?5Setup?4exe?$AA@ 00443950     SelfExtract.obj
 0002:00000968       ??_C@_0P@KPKCHNJD@Dtruecrypt?4sys?$AA@ 00443968     SelfExtract.obj
 0002:00000978       ??_C@_0BD@ILLOKAML@Atruecrypt?9x64?4sys?$AA@ 00443978     SelfExtract.obj
 0002:0000098c       ??_C@_0P@JMCFMDBI@Atruecrypt?4sys?$AA@ 0044398c     SelfExtract.obj
 0002:0000099c       ??_C@_0BH@JDBNPKKN@ACipherShed?5Format?4exe?$AA@ 0044399c     SelfExtract.obj
 0002:000009b4       ??_C@_0BA@BPJBGDOM@ACipherShed?4exe?$AA@ 004439b4     SelfExtract.obj
 0002:000009c4       ??_C@_0N@GJIBBNGF@ALicense?4txt?$AA@ 004439c4     SelfExtract.obj
 0002:000009d4       ??_C@_0BL@MFPLEOCK@ACipherShed?5User?5Guide?4pdf?$AA@ 004439d4     SelfExtract.obj
 0002:000009f0       ??_C@_0BA@LOGCKKME@T?1C?1I?1N?1S?1C?1R?1C?$AA@ 004439f0     SelfExtract.obj
 0002:00000a00       ??_C@_0CG@GGPNKNGJ@Failed?5sending?5data?5to?5the?5STDIN@ 00443a00     SelfExtract.obj
 0002:00000a28       ??_C@_0BC@LMFKNEDD@Cannot?5close?5pipe?$AA@ 00443a28     SelfExtract.obj
 0002:00000a3c       ??_C@_0BK@NGGPKPLC@Cannot?5close?5STDOUT?5write?$AA@ 00443a3c     SelfExtract.obj
 0002:00000a58       ??_C@_0BCL@DAKFJLFE@Error?3?5Cannot?5run?5gzip?4?6?6Before?5@ 00443a58     SelfExtract.obj
 0002:00000b84       ??_C@_0M@HPMDPAK@gzip?5?9?9best?$AA@ 00443b84     SelfExtract.obj
 0002:00000b90       ??_C@_0BK@CBLLHDHE@Cannot?5create?5STDIN?5pipe?4?$AA@ 00443b90     SelfExtract.obj
 0002:00000bac       ??_C@_0BL@CGCLLOGA@Cannot?5create?5STDOUT?5pipe?4?$AA@ 00443bac     SelfExtract.obj
 0002:00000bc8       ??_C@_0DC@MFPOOIGB@Self?9extracting?5package?5successf@ 00443bc8     SelfExtract.obj
 0002:00000bfc       ??_C@_0CH@KLAPHHKA@Cannot?5load?5the?5package?5to?5compu@ 00443bfc     SelfExtract.obj
 0002:00000c24       ??_C@_0BM@CAOLNJAF@Cannot?5write?5the?5end?5marker?$AA@ 00443c24     SelfExtract.obj
 0002:00000c40       ??_C@_0CM@OKBFEFMD@Cannot?5write?5compressed?5data?5to?5@ 00443c40     SelfExtract.obj
 0002:00000c6c       ??_C@_0DD@BPNJOCGM@Cannot?5write?5the?5total?5size?5of?5t@ 00443c6c     SelfExtract.obj
 0002:00000ca0       ??_C@_0BM@OPFGKMBF@Failed?5to?5compress?5the?5data?$AA@ 00443ca0     SelfExtract.obj
 0002:00000cbc       ??_C@_0CL@MCBJOHEJ@Cannot?5allocate?5memory?5for?5compr@ 00443cbc     SelfExtract.obj
 0002:00000ce8       ??_C@_0BH@BHAJCMKJ@Cannot?5load?5file?5?6?8?$CFs?8?$AA@ 00443ce8     SelfExtract.obj
 0002:00000d00       ??_C@_0DF@FMCDCAIK@Cannot?5write?5the?5total?5size?5of?5t@ 00443d00     SelfExtract.obj
 0002:00000d38       ??_C@_0BO@MFJOIAFD@Cannot?5write?5the?5start?5marker?$AA@ 00443d38     SelfExtract.obj
 0002:00000d58       ??_C@_08PPKICKPD@TCINSTRT?$AA@ 00443d58     SelfExtract.obj
 0002:00000d64       ??_C@_0BG@MKKJCCCC@File?5not?5found?3?6?6?8?$CFs?8?$AA@ 00443d64     SelfExtract.obj
 0002:00000d7c       ??_C@_0CN@MELKNJCC@Cannot?5allocate?5memory?5for?5uncom@ 00443d7c     SelfExtract.obj
 0002:00000dac       ??_C@_04HDOCAJNK@?$CFs?$CFs?$AA@ 00443dac     SelfExtract.obj
 0002:00000db4       ??_C@_0DC@EJFFIFBK@Cannot?5copy?5?8CipherShed?5Setup?4ex@ 00443db4     SelfExtract.obj
 0002:00000de8       ??_C@_0BL@KMNOMKN@CipherShed?5Setup?50?47?43?4exe?$AA@ 00443de8     SelfExtract.obj
 0002:00000e04       ??_C@_0BO@FDGMLBCO@CANT_VERIFY_PACKAGE_INTEGRITY?$AA@ 00443e04     SelfExtract.obj
 0002:00000e24       ??_C@_0BH@LJNMHMFF@DIST_PACKAGE_CORRUPTED?$AA@ 00443e24     SelfExtract.obj
 0002:00000e3c       ??_C@_0O@JJNKJOK@ERR_MEM_ALLOC?$AA@ 00443e3c     SelfExtract.obj
 0002:00000e4c       ??_C@_0BJ@OFFDHJBA@CANNOT_READ_FROM_PACKAGE?$AA@ 00443e4c     SelfExtract.obj
 0002:00000e68       ??_C@_0BE@BADKJOBO@CANNOT_WRITE_FILE_X?$AA@ 00443e68     SelfExtract.obj
 0002:00000e80       __real@4059000000000000    00443e80     SelfExtract.obj
 0002:00000e88       __real@4018000000000000    00443e88     SelfExtract.obj
 0002:00000e90       ??_C@_0BA@IBCNACGH@EXTRACTING_VERB?$AA@ 00443e90     SelfExtract.obj
 0002:00000ea0       ??_C@_0BD@KJOFIBFE@CANT_CREATE_FOLDER?$AA@ 00443ea0     SelfExtract.obj
 0002:00000eb8       ??_7bad_alloc@std@@6B@     00443eb8     Setup.obj
 0002:00000ec0       ??_C@_1O@FHLBCOCO@?$AA?$CF?$AAs?$AA?5?$AA?$CF?$AAh?$AAs?$AA?$AA@ 00443ec0     Setup.obj
 0002:00000ed0       ??_C@_0L@LFAEJJAB@ADDING_REG?$AA@ 00443ed0     Setup.obj
 0002:00000edc       ??_C@_0L@HHILBMI@INSTALLING?$AA@ 00443edc     Setup.obj
 0002:00000ee8       ??_C@_08GLIOLGPM@REMOVING?$AA@ 00443ee8     Setup.obj
 0002:00000ef4       ??_C@_0M@CFAAPOHD@ADDING_ICON?$AA@ 00443ef4     Setup.obj
 0002:00000f00       ??_C@_0BJ@DAPCIKHM@TrueCrypt?5User?5Guide?4pdf?$AA@ 00443f00     Setup.obj
 0002:00000f1c       ??_C@_0BE@NCPFOFMD@TrueCrypt?5Setup?4exe?$AA@ 00443f1c     Setup.obj
 0002:00000f30       ??_C@_0BF@PLOADIIL@TrueCrypt?5Format?4exe?$AA@ 00443f30     Setup.obj
 0002:00000f48       ??_C@_0O@DFMLFAG@TrueCrypt?4exe?$AA@ 00443f48     Setup.obj
 0002:00000f58       ??_C@_0P@LLMHDMAL@COM_REG_FAILED?$AA@ 00443f58     Setup.obj
 0002:00000f68       ??_C@_0BD@HFNFAFOP@REG_INSTALL_FAILED?$AA@ 00443f68     Setup.obj
 0002:00000f7c       ??_C@_0BB@GIJFLPKB@MigrationVersion?$AA@ 00443f7c     Setup.obj
 0002:00000f90       ??_C@_0O@PNHONFDO@MigrationPath?$AA@ 00443f90     Setup.obj
 0002:00000fa0       ??_C@_0BB@FKJFEMO@InstallationPath?$AA@ 00443fa0     Setup.obj
 0002:00000fb4       ??_C@_0BE@GEGOEFMH@Software?2CipherShed?$AA@ 00443fb4     Setup.obj
 0002:00000fc8       ??_C@_09PNIDBPNC@Publisher?$AA@ 00443fc8     Setup.obj
 0002:00000fd4       ??_C@_0BD@GIJEKPBA@CipherShed?5Project?$AA@ 00443fd4     Setup.obj
 0002:00000fe8       ??_C@_0M@MLHPPPJP@DisplayName?$AA@ 00443fe8     Setup.obj
 0002:00000ff4       ??_C@_0M@DDCGOGKB@DisplayIcon?$AA@ 00443ff4     Setup.obj
 0002:00001000       ??_C@_0BJ@IOCDPMJM@?$CC?$CFsCipherShed?5Setup?4exe?$CC?$AA@ 00444000     Setup.obj
 0002:0000101c       ??_C@_0L@OGHNHFGG@ModifyPath?$AA@ 0044401c     Setup.obj
 0002:00001028       ??_C@_0BM@DDJEAIFO@?$CC?$CFsCipherShed?5Setup?4exe?$CC?5?1c?$AA@ 00444028     Setup.obj
 0002:00001044       ??_C@_0BA@OJMJCMCH@UninstallString?$AA@ 00444044     Setup.obj
 0002:00001054       ??_C@_0BM@CPAMLNIJ@?$CC?$CFsCipherShed?5Setup?4exe?$CC?5?1u?$AA@ 00444054     Setup.obj
 0002:00001070       ??_C@_0N@CIJCJNDA@URLInfoAbout?$AA@ 00444070     Setup.obj
 0002:00001080       ??_C@_0BI@INHGIDBI@https?3?1?1ciphershed?4org?1?$AA@ 00444080     Setup.obj
 0002:00001098       ??_C@_0P@BNDLMAIF@DisplayVersion?$AA@ 00444098     Setup.obj
 0002:000010a8       ??_C@_05JPPCAGFG@0?47?43?$AA@ 004440a8     Setup.obj
 0002:000010b0       ??_C@_0DO@FLBIDANE@Software?2Microsoft?2Windows?2Curre@ 004440b0     Setup.obj
 0002:000010f0       ??_C@_0BA@OLBPPLP@TrueCryptVolume?$AA@ 004440f0     Setup.obj
 0002:00001100       ??_C@_0BF@MHIJGGNK@Software?2Classes?2?4tc?$AA@ 00444100     Setup.obj
 0002:00001118       ??_C@_0BM@JMPIFFGC@?$CC?$CFsCipherShed?4exe?$CC?5?1v?5?$CC?$CF?$CF1?$CC?$AA@ 00444118     Setup.obj
 0002:00001134       ??_C@_0DE@JBHHIJAN@Software?2Classes?2TrueCryptVolume@ 00444134     Setup.obj
 0002:00001168       ??_C@_0BD@CFGFJIC@?$CFsCipherShed?4exe?01?$AA@ 00444168     Setup.obj
 0002:0000117c       ??_C@_0CN@DNPKJBAH@Software?2Classes?2TrueCryptVolume@ 0044417c     Setup.obj
 0002:000011ac       ??_C@_0P@LGELIEHB@AppUserModelID?$AA@ 004441ac     Setup.obj
 0002:000011bc       ??_C@_03BMPLCLAP@?$CFws?$AA@ 004441bc     Setup.obj
 0002:000011c0       ??_C@_1DK@KHACNMIN@?$AAC?$AAi?$AAp?$AAh?$AAe?$AAr?$AAS?$AAh?$AAe?$AAd?$AAP?$AAr?$AAo?$AAj?$AAe?$AAc?$AAt?$AA?4?$AAC?$AAi?$AAp?$AAh?$AAe?$AAr?$AAS?$AAh?$AAe?$AAd?$AA?$AA@ 004441c0     Setup.obj
 0002:000011fc       ??_C@_0BC@NFHPLCKP@CipherShed?5Volume?$AA@ 004441fc     Setup.obj
 0002:00001210       ??_C@_0CB@JOIIBOEC@Software?2Classes?2TrueCryptVolume@ 00444210     Setup.obj
 0002:00001234       ??_C@_0O@LOPOCHJI@?5?1a?5favorites?$AA@ 00444234     Setup.obj
 0002:00001244       ??_C@_0M@JCEADJGE@?5?1a?5devices?$AA@ 00444244     Setup.obj
 0002:00001250       ??_C@_0CL@INAOHPON@?$CC?$CFsCipherShed?4exe?$CC?5?1q?5preference@ 00444250     Setup.obj
 0002:0000127c       ??_C@_0P@MOFIICPA@?2TrueCrypt?4exe?$AA@ 0044427c     Setup.obj
 0002:0000128c       ??_C@_09EMKKFGIH@TrueCrypt?$AA@ 0044428c     Setup.obj
 0002:00001296       ??_C@_00CNPNBAHC@?$AA@     00444296     Setup.obj
 0002:00001298       ??_C@_0L@LGADMAPO@?2TrueCrypt?$AA@ 00444298     Setup.obj
 0002:000012a4       ??_C@_0BG@NJOIKHOP@System?5Encryption?4xml?$AA@ 004442a4     Setup.obj
 0002:000012bc       ??_C@_0BC@FNANDAA@Configuration?4xml?$AA@ 004442bc     Setup.obj
 0002:000012d0       ??_C@_0M@COMBLGLD@History?4xml?$AA@ 004442d0     Setup.obj
 0002:000012dc       ??_C@_0BF@CEDLNBLM@Default?5Keyfiles?4xml?$AA@ 004442dc     Setup.obj
 0002:000012f4       ??_C@_0BF@EGBOIEGJ@Favorite?5Volumes?4xml?$AA@ 004442f4     Setup.obj
 0002:0000130c       ??_C@_0M@EMLNMOID@?2TrueCrypt?2?$AA@ 0044430c     Setup.obj
 0002:00001318       ??_C@_0BB@EKLCNMAG@REMOVING_APPDATA?$AA@ 00444318     Setup.obj
 0002:0000132c       ??_C@_0BD@NCHEPDGI@Software?2TrueCrypt?$AA@ 0044432c     Setup.obj
 0002:00001340       ??_C@_0CH@BHAFNGC@Software?2Classes?2TrueCryptVolume@ 00444340     Setup.obj
 0002:00001368       ??_C@_0CM@CJAMGNCN@Software?2Classes?2TrueCryptVolume@ 00444368     Setup.obj
 0002:00001394       ??_C@_0N@GACNCPHC@REMOVING_REG?$AA@ 00444394     Setup.obj
 0002:000013a4       ??_C@_0BB@OBMIEKIN@COM_DEREG_FAILED?$AA@ 004443a4     Setup.obj
 0002:000013b8       ??_C@_0BH@BJNFCLGM@DRIVER_UINSTALL_FAILED?$AA@ 004443b8     Setup.obj
 0002:000013d0       ??_C@_0BA@LFOBNNHD@REMOVING_DRIVER?$AA@ 004443d0     Setup.obj
 0002:000013e0       ??_C@_08CGLLMHMN@STOPPING?$AA@ 004443e0     Setup.obj
 0002:000013ec       ??_C@_0BA@HLDEBKOH@STOPPING_DRIVER?$AA@ 004443ec     Setup.obj
 0002:000013fc       ??_C@_09EFLFAGB@truecrypt?$AA@ 004443fc     Setup.obj
 0002:00001408       ??_C@_0P@KGAEHPDJ@CLOSE_TC_FIRST?$AA@ 00444408     Setup.obj
 0002:00001418       ??_C@_0BD@OMJBKKEL@DISMOUNT_ALL_FIRST?$AA@ 00444418     Setup.obj
 0002:0000142c       ??_C@_0CC@MKLHADEI@SETUP_FAILED_BOOT_DRIVE_ENCRYPTE@ 0044442c     Setup.obj
 0002:00001450       ??_C@_0CM@LPOONFIE@SETUP_FAILED_BOOT_DRIVE_ENCRYPTE@ 00444450     Setup.obj
 0002:0000147c       ??_C@_0DA@EDIMDHJI@SYS_ENCRYPTION_UPGRADE_UNSUPPORT@ 0044447c     Setup.obj
 0002:000014ac       ??_C@_0BM@PPLHKJJC@UPDATE_TC_IN_DECOY_OS_FIRST?$AA@ 004444ac     Setup.obj
 0002:000014c8       ??_C@_08ELEAABKI@NODRIVER?$AA@ 004444c8     Setup.obj
 0002:000014d4       ??_C@_0BL@LKLMNDDM@BOOT_LOADER_UPGRADE_FAILED?$AA@ 004444d4     Setup.obj
 0002:000014f0       ??_C@_0BH@FCKJHOEL@BOOT_LOADER_UPGRADE_OK?$AA@ 004444f0     Setup.obj
 0002:00001508       ??_C@_0CB@JHJCAANH@BOOT_LOADER_UPGRADE_OK_HIDDEN_OS@ 00444508     Setup.obj
 0002:0000152c       ??_C@_0BP@LJKCMEDG@INSTALLER_UPDATING_BOOT_LOADER?$AA@ 0044452c     Setup.obj
 0002:0000154c       ??_C@_0BN@DGJJNBJI@?2CipherShed?5User?8s?5Guide?4lnk?$AA@ 0044454c     Setup.obj
 0002:0000156c       ??_C@_0BK@EABHBBNJ@?2Uninstall?5CipherShed?4lnk?$AA@ 0044456c     Setup.obj
 0002:00001588       ??_C@_0BI@GABNFKIJ@?2CipherShed?5Website?4url?$AA@ 00444588     Setup.obj
 0002:000015a0       ??_C@_0BA@LNMKCON@?2CipherShed?4lnk?$AA@ 004445a0     Setup.obj
 0002:000015b0       ??_C@_0M@HNGGAEIF@?2CipherShed?$AA@ 004445b0     Setup.obj
 0002:000015bc       ??_C@_0BM@LNFOIEOO@?2TrueCrypt?5User?8s?5Guide?4lnk?$AA@ 004445bc     Setup.obj
 0002:000015d8       ??_C@_0BJ@PKBPEMBD@?2Uninstall?5TrueCrypt?4lnk?$AA@ 004445d8     Setup.obj
 0002:000015f4       ??_C@_0BH@CJOJHCCA@?2TrueCrypt?5Website?4url?$AA@ 004445f4     Setup.obj
 0002:0000160c       ??_C@_0P@DFHIDPDG@?2TrueCrypt?4lnk?$AA@ 0044460c     Setup.obj
 0002:0000161c       ??_C@_0BB@JJJJFLNM@UNINSTALL_FAILED?$AA@ 0044461c     Setup.obj
 0002:00001630       ??_C@_0P@DHOALJNC@INSTALL_FAILED?$AA@ 00444630     Setup.obj
 0002:00001640       ??_C@_0N@HGHJILFC@UNINSTALL_OK?$AA@ 00444640     Setup.obj
 0002:00001650       ??_C@_0L@NPHNJMLA@INSTALL_OK?$AA@ 00444650     Setup.obj
 0002:0000165c       ??_C@_0BA@GIHLNOHP@SETUP_UPDATE_OK?$AA@ 0044465c     Setup.obj
 0002:0000166c       ??_C@_0BD@EKOFOABK@FAILED_SYS_RESTORE?$AA@ 0044466c     Setup.obj
 0002:00001680       ??_C@_0BI@NHHPLGPL@CipherShed?5installation?$AA@ 00444680     Setup.obj
 0002:00001698       ??_C@_0BK@JOHDEADA@CipherShed?5uninstallation?$AA@ 00444698     Setup.obj
 0002:000016b4       ??_C@_0BF@DPJDLMKG@CREATING_SYS_RESTORE?$AA@ 004446b4     Setup.obj
 0002:000016cc       ??_C@_0BD@BOLGBJDG@SRSetRestorePointA?$AA@ 004446cc     Setup.obj
 0002:000016e0       __GUID_886d8eeb_8cf2_4446_8d02_cdba1dbdcf99 004446e0     Setup.obj
 0002:000016f0       ??_C@_02GBOHKKID@?1u?$AA@  004446f0     Setup.obj
 0002:000016f4       ??_C@_0BF@MGMPAIHN@CipherShed?5Setup?4exe?$AA@ 004446f4     Setup.obj
 0002:0000170c       ??_C@_0BL@MKLFJBBF@?$FLInternetShortcut?$FN?6URL?$DN?$CFs?6?$AA@ 0044470c     Setup.obj
 0002:00001728       ??_C@_01NOFIACDB@w?$AA@    00444728     Setup.obj
 0002:0000172c       ??_C@_0BM@NGMAPMJP@CipherShed?5User?5Guide?4?$CK?4pdf?$AA@ 0044472c     Setup.obj
 0002:00001748       ??_C@_0M@LJEGBCFM@Setup?5files?$AA@ 00444748     Setup.obj
 0002:00001754       ??_C@_0P@GPPOMBKF@Language?4?$CK?4xml?$AA@ 00444754     Setup.obj
 0002:00001764       ??_C@_0BE@ICFIOGFL@UNINSTALL_OF_FAILED?$AA@ 00444764     Setup.obj
 0002:00001778       ??_C@_0BC@MNFHJDAJ@INSTALL_OF_FAILED?$AA@ 00444778     Setup.obj
 0002:0000178c       ??_C@_0CM@CEEDGJNL@SYSTEM?2CurrentControlSet?2Service@ 0044478c     Setup.obj
 0002:000017b8       ??_C@_09JMMKOPDJ@ImagePath?$AA@ 004447b8     Setup.obj
 0002:000017c4       ??_C@_0BP@MGAEPBHO@System32?2drivers?2truecrypt?4sys?$AA@ 004447c4     Setup.obj
 0002:000017e4       ??_C@_08GHPFJMCG@Drivers?2?$AA@ 004447e4     Setup.obj
 0002:000017f0       ??_C@_0BB@FCJHEEIL@CipherShed?5Setup?$AA@ 004447f0     Setup.obj
 0002:00001804       ??_C@_0DP@MNNFDDNO@?3loop?6del?5?$CC?$CFs?$CFs?$CC?6if?5exist?5?$CC?$CFs?$CFs?$CC@ 00444804     Setup.obj
 0002:00001844       ??_C@_0BM@DOLMKHMK@?$CFs?2CipherShed?9Uninstall?4bat?$AA@ 00444844     Setup.obj
 0002:00001860       ??_C@_0BB@FKFJCDPE@TrueCryptService?$AA@ 00444860     Setup.obj
 0002:00001874       ??_C@_08MFKGCNCO@FINALIZE?$AA@ 00444874     Setup.obj
 0002:00001880       ??_C@_0BH@KAHGPAJO@CONFIRM_EXIT_UNIVERSAL?$AA@ 00444880     Setup.obj
 0002:00001898       ??_C@_0BI@FLNDDLDP@TC_INSTALLER_IS_RUNNING?$AA@ 00444898     Setup.obj
 0002:000018b0       ??_C@_0BH@FAKCOHIL@SYS_ENC_UPGRADE_FAILED?$AA@ 004448b0     Setup.obj
 0002:000018c8       ??_C@_08COBEBGNM@ROLLBACK?$AA@ 004448c8     Setup.obj
 0002:000018d4       ??_C@_0BC@KNJLNLNB@INSTALL_COMPLETED?$AA@ 004448d4     Setup.obj
 0002:000018e8       ??_C@_0BM@IAAIJFIC@System?5Favorite?5Volumes?4xml?$AA@ 004448e8     Setup.obj
 0002:00001904       ??_C@_0CG@EGPGHNFL@TrueCrypt?5System?5Favorite?5Volume@ 00444904     Setup.obj
 0002:0000192c       ??_C@_0BF@BECKOJBF@?2TrueCrypt?5Setup?4exe?$AA@ 0044492c     Setup.obj
 0002:00001944       ??_C@_09KHMMGKKB@?5?1a?5logon?$AA@ 00444944     Setup.obj
 0002:00001950       ??_C@_09OAMOHPIB@favorites?$AA@ 00444950     Setup.obj
 0002:0000195c       ??_C@_0BI@DLANKHNO@openExplorerWindow?$DN?$CC1?$CC?5?$AA@ 0044495c     Setup.obj
 0002:00001974       ??_C@_0BC@JBHLDJCD@mountOnLogOn?$DN?$CC1?$CC?5?$AA@ 00444974     Setup.obj
 0002:00001988       ??_C@_08JKOCNOKF@?$DMvolume?5?$AA@ 00444988     Setup.obj
 0002:00001994       ??_C@_0BN@JJNCGBDA@OpenExplorerWindowAfterMount?$AA@ 00444994     Setup.obj
 0002:000019b4       ??_C@_0BG@IDCDKCEI@MountFavoritesOnLogon?$AA@ 004449b4     Setup.obj
 0002:000019d0       ??_C@_0EL@DAJCBMFB@SYSTEM?2CurrentControlSet?2Control@ 004449d0     Setup.obj
 0002:00001a20       ??_C@_0EL@LBBGNDAK@SYSTEM?2CurrentControlSet?2Control@ 00444a20     Setup.obj
 0002:00001a6c       ??_C@_07LMLHFMEG@Service?$AA@ 00444a6c     Setup.obj
 0002:00001a74       ??_C@_0BP@JGNDMOPD@FAILED_TO_DISABLE_PAGING_FILES?$AA@ 00444a74     Setup.obj
 0002:00001a94       ??_C@_0N@ILKBADPD@?2CipherShed?2?$AA@ 00444a94     Setup.obj
 0002:00001aa4       ??_C@_06NOEMODMP@?5?$CIx86?$CJ?$AA@ 00444aa4     Setup.obj
 0002:00001aac       ??_C@_04PMOCAHAA@open?$AA@ 00444aac     Setup.obj
 0002:00001ab4       ??_C@_0BM@IFDMFKIM@UNINSTALL_OLD_VERSION_FIRST?$AA@ 00444ab4     Setup.obj
 0002:00001ad0       ??_C@_0N@FMOIKEAK@srclient?4dll?$AA@ 00444ad0     Setup.obj
 0002:00001ae0       ??_C@_0LF@MDELPLFJ@Error?3?5This?5installer?5file?5does?5@ 00444ae0     Setup.obj
 0002:00001b98       ??_C@_04GOLNGIJ@EXIT?$AA@  00444b98     Setup.obj
 0002:00001ba0       ??_C@_09DGJDINFF@UNINSTALL?$AA@ 00444ba0     Setup.obj
 0002:00001bac       ??_C@_0BB@OFECFCBP@REPAIR_REINSTALL?$AA@ 00444bac     Setup.obj
 0002:00001bc0       ??_C@_0BB@FLPPPJPG@SELECT_AN_ACTION?$AA@ 00444bc0     Setup.obj
 0002:00001bd4       ??_C@_0M@HBOJDPDG@SETUP_ADMIN?$AA@ 00444bd4     Setup.obj
 0002:00001be0       ??_C@_1CC@JAFFKJKA@?$AAC?$AAi?$AAp?$AAh?$AAe?$AAr?$AAS?$AAh?$AAe?$AAd?$AA?5?$AAS?$AAe?$AAt?$AAu?$AAp?$AA?$AA@ 00444be0     Setup.obj
 0002:00001c08       __real@bf00000000000000    00444c08     Wizard.obj
 0002:00001c10       __real@bef0000000000000    00444c10     Wizard.obj
 0002:00001c18       ??_C@_1CA@MBPOLHGL@?$AAT?$AAi?$AAm?$AAe?$AAs?$AA?5?$AAN?$AAe?$AAw?$AA?5?$AAR?$AAo?$AAm?$AAa?$AAn?$AA?$AA@ 00444c18     Wizard.obj
 0002:00001c38       ??_C@_1EG@KKLJGMFD@?$AAP?$AAl?$AAe?$AAa?$AAs?$AAe?$AA?5?$AAc?$AAo?$AAn?$AAs?$AAi?$AAd?$AAe?$AAr?$AA?5?$AAm?$AAa?$AAk?$AAi?$AAn?$AAg?$AA?5?$AAa?$AA?5?$AAd?$AAo?$AAn?$AAa?$AAt?$AAi?$AAo@ 00444c38     Wizard.obj
 0002:00001c80       ??_C@_0BI@CKIDBLFB@SETUP_FINISHED_INFO_DON?$AA@ 00444c80     Wizard.obj
 0002:00001c98       ??_C@_0BJ@KIEFKBPA@SETUP_FINISHED_TITLE_DON?$AA@ 00444c98     Wizard.obj
 0002:00001cb4       ??_C@_0CB@HFOJNJFM@SETUP_FINISHED_UPGRADE_TITLE_DON@ 00444cb4     Wizard.obj
 0002:00001cd8       ??_C@_0BO@CCIEODIN@EXTRACTION_FINISHED_TITLE_DON?$AA@ 00444cd8     Wizard.obj
 0002:00001cf8       ??_C@_0BE@FMNDIKAG@INSTALL_IN_PROGRESS?$AA@ 00444cf8     Wizard.obj
 0002:00001d0c       ??_C@_0BE@JGHDAHN@SETUP_PROGRESS_INFO?$AA@ 00444d0c     Wizard.obj
 0002:00001d20       ??_C@_0BF@FGINDNOJ@SETUP_PROGRESS_TITLE?$AA@ 00444d20     Wizard.obj
 0002:00001d38       ??_C@_07PJFGKPND@INSTALL?$AA@ 00444d38     Wizard.obj
 0002:00001d40       ??_C@_0BK@GJOJHDCA@SETUP_UPGRADE_DESTINATION?$AA@ 00444d40     Wizard.obj
 0002:00001d5c       ??_C@_0BD@BMMFNCA@SETUP_OPTIONS_INFO?$AA@ 00444d5c     Wizard.obj
 0002:00001d70       ??_C@_0BE@EDFPLLMN@SETUP_OPTIONS_TITLE?$AA@ 00444d70     Wizard.obj
 0002:00001d84       ??_C@_0BH@PEMNLIII@EXTRACTION_IN_PROGRESS?$AA@ 00444d84     Wizard.obj
 0002:00001d9c       ??_C@_0BJ@LJFMAAFG@EXTRACTION_PROGRESS_INFO?$AA@ 00444d9c     Wizard.obj
 0002:00001db8       ??_C@_07LBPFAJBE@EXTRACT?$AA@ 00444db8     Wizard.obj
 0002:00001dc0       ??_C@_0BF@HFEALDNI@AUTO_FOLDER_CREATION?$AA@ 00444dc0     Wizard.obj
 0002:00001dd8       ??_C@_0BI@OKGEFEFK@EXTRACTION_OPTIONS_INFO?$AA@ 00444dd8     Wizard.obj
 0002:00001df0       ??_C@_0BJ@PDGEILOG@EXTRACTION_OPTIONS_TITLE?$AA@ 00444df0     Wizard.obj
 0002:00001e0c       ??_C@_0M@GMDAANJE@CipherShed?2?$AA@ 00444e0c     Wizard.obj
 0002:00001e18       ??_C@_0BI@ECIBEEIH@SETUP_MODE_HELP_INSTALL?$AA@ 00444e18     Wizard.obj
 0002:00001e30       ??_C@_0BI@JGKCNIKM@SETUP_MODE_HELP_UPGRADE?$AA@ 00444e30     Wizard.obj
 0002:00001e48       ??_C@_0BI@KCCOCEA@SETUP_MODE_HELP_EXTRACT?$AA@ 00444e48     Wizard.obj
 0002:00001e60       ??_C@_0BA@PHBLGFGD@SETUP_MODE_INFO?$AA@ 00444e60     Wizard.obj
 0002:00001e70       ??_C@_0BB@KMHMHMNP@SETUP_MODE_TITLE?$AA@ 00444e70     Wizard.obj
 0002:00001e84       ??_C@_07CNHFDDPI@UPGRADE?$AA@ 00444e84     Wizard.obj
 0002:00001e8c       ??_C@_0BH@MFJOAEDC@CANNOT_DISPLAY_LICENSE?$AA@ 00444e8c     Wizard.obj
 0002:00001ea4       ??_C@_06JHILMIHF@CANCEL?$AA@ 00444ea4     Wizard.obj
 0002:00001eac       ??_C@_04PKHKLFPJ@PREV?$AA@ 00444eac     Wizard.obj
 0002:00001eb4       ??_C@_04MOKMKBJN@NEXT?$AA@ 00444eb4     Wizard.obj
 0002:00001ebc       ??_C@_1DI@FKGEFKMH@?$AAI?$AA?5?$AA?$CG?$AAa?$AAc?$AAc?$AAe?$AAp?$AAt?$AA?5?$AAt?$AAh?$AAe?$AA?5?$AAl?$AAi?$AAc?$AAe?$AAn?$AAs?$AAe?$AA?5?$AAt?$AAe?$AAr?$AAm?$AAs?$AA?$AA@ 00444ebc     Wizard.obj
 0002:00001ef8       ??_C@_1BIA@MJJKLEKE@?$AAI?$AAM?$AAP?$AAO?$AAR?$AAT?$AAA?$AAN?$AAT?$AA?3?$AA?5?$AAB?$AAy?$AA?5?$AAc?$AAh?$AAe?$AAc?$AAk?$AAi?$AAn?$AAg?$AA?5?$AAt?$AAh?$AAe?$AA?5?$AAc?$AAh?$AAe?$AAc?$AAk@ 00444ef8     Wizard.obj
 0002:00002078       ??_C@_1LA@INOIFBMC@?$AAY?$AAo?$AAu?$AA?5?$AAm?$AAu?$AAs?$AAt?$AA?5?$AAa?$AAc?$AAc?$AAe?$AAp?$AAt?$AA?5?$AAt?$AAh?$AAe?$AAs?$AAe?$AA?5?$AAl?$AAi?$AAc?$AAe?$AAn?$AAs?$AAe?$AA?5?$AAt?$AAe@ 00445078     Wizard.obj
 0002:00002128       ??_C@_1DM@EGEEIDAI@?$AAP?$AAl?$AAe?$AAa?$AAs?$AAe?$AA?5?$AAr?$AAe?$AAa?$AAd?$AA?5?$AAt?$AAh?$AAe?$AA?5?$AAl?$AAi?$AAc?$AAe?$AAn?$AAs?$AAe?$AA?5?$AAt?$AAe?$AAr?$AAm?$AAs?$AA?$AA@ 00445128     Wizard.obj
 0002:00002164       ??_C@_0BF@EOKBACHI@SETUP_WIZARD_PAGE_?$CFd?$AA@ 00445164     Wizard.obj
 0002:0000217c       ??_C@_0O@MGHONKG@IDD_INSTL_DLG?$AA@ 0044517c     Wizard.obj
 0002:0000218c       ??_C@_06KCCPDNM@donate?$AA@ 0044518c     Wizard.obj
 0002:00002194       ??_C@_07KNCOJMJF@?$CGref?$DN?$CFd?$AA@ 00445194     Wizard.obj
 0002:0000219c       ??_C@_0BA@DJBAGGGN@SELECT_DEST_DIR?$AA@ 0044519c     Wizard.obj
 0002:000021ac       ??_C@_0BJ@LLBBBPBJ@EXTRACTION_FINISHED_INFO?$AA@ 004451ac     Wizard.obj
 0002:000021c8       ??_C@_07CIAHAGHC@IDCLOSE?$AA@ 004451c8     Wizard.obj
 0002:000021d0       ??_C@_11LOCGONAA@?$AA?$AA@ 004451d0     Wizard.obj
 0002:000021d4       ??_C@_0BC@GODHAKFG@EXTRACTION_FAILED?$AA@ 004451d4     Wizard.obj
 0002:000021e8       ??_C@_0BK@BNLHLNNA@CIPHERSHED_MIGRATION_NOTE?$AA@ 004451e8     Wizard.obj
 0002:00002204       ??_C@_0BC@NKLIMG@TRAVELER_UAC_NOTE?$AA@ 00445204     Wizard.obj
 0002:00002218       ??_C@_0BK@HICKIHM@TRAVELER_LIMITATIONS_NOTE?$AA@ 00445218     Wizard.obj
 0002:00002238       ??_C@_1BBI@MKDPBCB@?$AAC?$AAi?$AAp?$AAh?$AAe?$AAr?$AAS?$AAh?$AAe?$AAd?$AA?5?$AAr?$AAe?$AAq?$AAu?$AAi?$AAr?$AAe?$AAs?$AA?5?$AAU?$AAp?$AAd?$AAa?$AAt?$AAe?$AA?5?$AAR?$AAo?$AAl?$AAl?$AAu@ 00445238     Wizard.obj
 0002:00002350       ??_C@_0DM@BHNBHIPG@SOFTWARE?2Microsoft?2Updates?2Windo@ 00445350     Wizard.obj
 0002:00002390       ??_C@_1DJC@HALCKFBP@?$AAW?$AAa?$AAr?$AAn?$AAi?$AAn?$AAg?$AA?3?$AA?5?$AAP?$AAl?$AAe?$AAa?$AAs?$AAe?$AA?5?$AAn?$AAo?$AAt?$AAe?$AA?5?$AAt?$AAh?$AAa?$AAt?$AA?5?$AAt?$AAh?$AAi?$AAs?$AA?5?$AAm@ 00445390     Wizard.obj
 0002:00002724       ??_C@_0BH@IINJFIMH@CipherShed?5Setup?50?47?43?$AA@ 00445724     Wizard.obj
 0002:0000273c       ??_C@_0BA@ICICKJJH@CONFIRM_RESTART?$AA@ 0044573c     Wizard.obj
 0002:0000274c       ??_C@_0BL@OMDAGJAA@UPGRADE_OK_REBOOT_REQUIRED?$AA@ 0044574c     Wizard.obj
 0002:00002768       ??_C@_0BC@FIMNAHGL@beginnerstutorial?$AA@ 00445768     Wizard.obj
 0002:0000277c       ??_C@_0BH@JALPBIFE@AFTER_INSTALL_TUTORIAL?$AA@ 0044577c     Wizard.obj
 0002:00002794       ??_C@_0N@MAFEFKDE@releasenotes?$AA@ 00445794     Wizard.obj
 0002:000027a4       ??_C@_0BM@PEPDOHPE@AFTER_UPGRADE_RELEASE_NOTES?$AA@ 004457a4     Wizard.obj
 0002:000027c0       ??_C@_04GFKCAHFK@?5?$DN?5?$CC?$AA@ 004457c0     Xml.obj
 0002:000027c8       ??_C@_03PFIILPDO@?5?$DN?$CC?$AA@ 004457c8     Xml.obj
 0002:000027cc       ??_C@_03EDAFAAFP@?$DN?5?$CC?$AA@ 004457cc     Xml.obj
 0002:000027d0       ??_C@_02ILLPBGAO@?$DN?$CC?$AA@ 004457d0     Xml.obj
 0002:000027d4       ??_C@_05JKJFEODM@?$CGamp?$DL?$AA@ 004457d4     Xml.obj
 0002:000027dc       ??_C@_04LOOHDCEI@?$CGgt?$DL?$AA@ 004457dc     Xml.obj
 0002:000027e4       ??_C@_04GJOGLFEJ@?$CGlt?$DL?$AA@ 004457e4     Xml.obj
 0002:00002810       ??_7facet@locale@std@@6B@  00445810     BootEncryption.obj
 0002:00002818       ??_7ios_base@std@@6B@      00445818     BootEncryption.obj
 0002:00002820       ??_7Container@ForEach@CipherShed@@6B@ 00445820     BootEncryption.obj
 0002:00002830       ??_7Exception@CipherShed@@6B@ 00445830     BootEncryption.obj
 0002:00002838       ??_7ParameterIncorrect@CipherShed@@6B@ 00445838     BootEncryption.obj
 0002:0000283c       ??_C@_0CF@LOIFFBPN@CipherShed?3?3Elevator?3?3CallDriver@ 0044583c     BootEncryption.obj
 0002:00002864       ??_C@_0CI@FHMEJLKG@CipherShed?3?3Elevator?3?3ReadWriteF@ 00445864     BootEncryption.obj
 0002:0000288c       ??_C@_0CP@BLPIKNLP@CipherShed?3?3Elevator?3?3RegisterFi@ 0044588c     BootEncryption.obj
 0002:000028bc       ??_C@_0DE@GBCKGDP@CipherShed?3?3Elevator?3?3SetDriverS@ 004458bc     BootEncryption.obj
 0002:000028f0       ??_C@_0BA@DGAECNJJ@TrueCryptConfig?$AA@ 004458f0     BootEncryption.obj
 0002:00002904       ??_7?$basic_ostream@DU?$char_traits@D@std@@@std@@6B@ 00445904     BootEncryption.obj
 0002:0000290c       ??_7?$basic_ostream@_WU?$char_traits@_W@std@@@std@@6B@ 0044590c     BootEncryption.obj
 0002:00002914       ??_7?$basic_istream@DU?$char_traits@D@std@@@std@@6B@ 00445914     BootEncryption.obj
 0002:0000291c       ??_7?$basic_istream@_WU?$char_traits@_W@std@@@std@@6B@ 0044591c     BootEncryption.obj
 0002:00002924       ??_7?$basic_iostream@DU?$char_traits@D@std@@@std@@6B@ 00445924     BootEncryption.obj
 0002:0000292c       ??_7?$basic_iostream@_WU?$char_traits@_W@std@@@std@@6B@ 0044592c     BootEncryption.obj
 0002:00002934       ??_7?$basic_ios@DU?$char_traits@D@std@@@std@@6B@ 00445934     BootEncryption.obj
 0002:0000293c       ??_7?$basic_ios@_WU?$char_traits@_W@std@@@std@@6B@ 0044593c     BootEncryption.obj
 0002:00002944       ??_7?$ctype@D@std@@6B@     00445944     BootEncryption.obj
 0002:00002974       ??_7?$ctype@_W@std@@6B@    00445974     BootEncryption.obj
 0002:000029b4       ??_7SystemException@CipherShed@@6B@ 004459b4     BootEncryption.obj
 0002:000029b8       ??_C@_05FHMJPCKA@Start?$AA@ 004459b8     BootEncryption.obj
 0002:000029c0       ??_C@_0DE@KBNMFIML@CipherShed?3?3BootEncryption?3?3GetV@ 004459c0     BootEncryption.obj
 0002:000029f8       ??_7?$basic_streambuf@DU?$char_traits@D@std@@@std@@6B@ 004459f8     BootEncryption.obj
 0002:00002a34       ??_7?$basic_streambuf@_WU?$char_traits@_W@std@@@std@@6B@ 00445a34     BootEncryption.obj
 0002:00002a70       ??_7?$basic_stringbuf@DU?$char_traits@D@std@@V?$allocator@D@2@@std@@6B@ 00445a70     BootEncryption.obj
 0002:00002aac       ??_7?$basic_stringbuf@_WU?$char_traits@_W@std@@V?$allocator@_W@2@@std@@6B@ 00445aac     BootEncryption.obj
 0002:00002ae8       ??_7?$num_put@DV?$ostreambuf_iterator@DU?$char_traits@D@std@@@std@@@std@@6B@ 00445ae8     BootEncryption.obj
 0002:00002b0c       ??_C@_05LAPONLG@false?$AA@ 00445b0c     BootEncryption.obj
 0002:00002b14       ??_C@_04LOAJBDKD@true?$AA@ 00445b14     BootEncryption.obj
 0002:00002b20       ??_7?$basic_stringstream@DU?$char_traits@D@std@@V?$allocator@D@2@@std@@6B@ 00445b20     BootEncryption.obj
 0002:00002b28       ??_7?$basic_stringstream@_WU?$char_traits@_W@std@@V?$allocator@_W@2@@std@@6B@ 00445b28     BootEncryption.obj
 0002:00002b30       ??_7?$numpunct@D@std@@6B@  00445b30     BootEncryption.obj
 0002:00002b4c       ??_7logic_error@std@@6B@   00445b4c     BootEncryption.obj
 0002:00002b58       ??_7runtime_error@std@@6B@ 00445b58     BootEncryption.obj
 0002:00002b64       ??_7ErrorException@CipherShed@@6B@ 00445b64     BootEncryption.obj
 0002:00002b6c       ??_7length_error@std@@6B@  00445b6c     BootEncryption.obj
 0002:00002b78       ??_7failure@ios_base@std@@6B@ 00445b78     BootEncryption.obj
 0002:00002b80       ??_C@_0BB@MOGOBHAF@list?$DMT?$DO?5too?5long?$AA@ 00445b80     BootEncryption.obj
 0002:00002b94       ??_C@_08EPJLHIJG@bad?5cast?$AA@ 00445b94     BootEncryption.obj
 0002:00002ba0       ??_C@_0BF@OOHOMBOF@ios_base?3?3eofbit?5set?$AA@ 00445ba0     BootEncryption.obj
 0002:00002bb8       ??_C@_0BG@FMKFHCIL@ios_base?3?3failbit?5set?$AA@ 00445bb8     BootEncryption.obj
 0002:00002bd0       ??_C@_0BF@PHHKMMFD@ios_base?3?3badbit?5set?$AA@ 00445bd0     BootEncryption.obj
 0002:00002be8       ??_C@_01PKGAHCOL@?$CJ?$AA@ 00445be8     BootEncryption.obj
 0002:00002bf0       ??_C@_0IM@CKBKFPJM@Parameter?5incorrect?4?6?6?6?$CIIf?5you?5r@ 00445bf0     BootEncryption.obj
 0002:00002c7c       ??_C@_04GBDIODIA@?2?2?4?2?$AA@ 00445c7c     BootEncryption.obj
 0002:00002c84       ??_C@_0CN@IFJIKPHJ@CipherShed?3?3BootEncryption?3?3GetT@ 00445c84     BootEncryption.obj
 0002:00002cb4       ??_C@_0BH@KENEBBHH@Original?5System?5Loader?$AA@ 00445cb4     BootEncryption.obj
 0002:00002ccc       ??_C@_0BL@PPCBILBO@Original?5System?5Loader?4bak?$AA@ 00445ccc     BootEncryption.obj
 0002:00002ce8       ??_C@_06IBDJIBGI@Filter?$AA@ 00445ce8     BootEncryption.obj
 0002:00002cf0       ??_C@_0BH@CAKDGKKJ@?2drivers?2truecrypt?4sys?$AA@ 00445cf0     BootEncryption.obj
 0002:00002d08       ??_C@_01KGKMHCOC@e?$AA@    00445d08     BootEncryption.obj
 0002:00002d0c       ??_C@_01DDCIFGEA@E?$AA@    00445d0c     BootEncryption.obj
 0002:00002d10       ??_C@_02EAOCLKAK@ld?$AA@   00445d10     BootEncryption.obj
 0002:00002d14       ??_C@_02BDDLJJBK@lu?$AA@   00445d14     BootEncryption.obj
 0002:00002d18       ??_C@_02HIKPPMOK@Ld?$AA@   00445d18     BootEncryption.obj
 0002:00002d1c       ??_C@_02CLHGNPPK@Lu?$AA@   00445d1c     BootEncryption.obj
 0002:00002d20       __real@38aa95a5b7f87a0f    00445d20     BootEncryption.obj
 0002:00002d28       __real@4202a05f20000000    00445d28     BootEncryption.obj
 0002:00002d30       __real@4733426172c74d82    00445d30     BootEncryption.obj
 0002:00002d38       __real@0000000000000000    00445d38     BootEncryption.obj
 0002:00002d40       __real@3fe0000000000000    00445d40     BootEncryption.obj
 0002:00002d48       ??_C@_02BBAHNLBA@?$CFp?$AA@ 00445d48     BootEncryption.obj
 0002:00002d4c       ??_8?$basic_iostream@_WU?$char_traits@_W@std@@@std@@7B?$basic_ostream@_WU?$char_traits@_W@std@@@1@@ 00445d4c     BootEncryption.obj
 0002:00002d4c       ??_8?$basic_iostream@DU?$char_traits@D@std@@@std@@7B?$basic_ostream@DU?$char_traits@D@std@@@1@@ 00445d4c     BootEncryption.obj
 0002:00002d54       ??_8?$basic_iostream@DU?$char_traits@D@std@@@std@@7B?$basic_istream@DU?$char_traits@D@std@@@1@@ 00445d54     BootEncryption.obj
 0002:00002d54       ??_8?$basic_iostream@_WU?$char_traits@_W@std@@@std@@7B?$basic_istream@_WU?$char_traits@_W@std@@@1@@ 00445d54     BootEncryption.obj
 0002:00002d5c       ??_8?$basic_stringstream@DU?$char_traits@D@std@@V?$allocator@D@2@@std@@7B?$basic_ostream@DU?$char_traits@D@std@@@1@@ 00445d5c     BootEncryption.obj
 0002:00002d5c       ??_8?$basic_stringstream@_WU?$char_traits@_W@std@@V?$allocator@_W@2@@std@@7B?$basic_ostream@_WU?$char_traits@_W@std@@@1@@ 00445d5c     BootEncryption.obj
 0002:00002d64       ??_8?$basic_stringstream@_WU?$char_traits@_W@std@@V?$allocator@_W@2@@std@@7B?$basic_istream@_WU?$char_traits@_W@std@@@1@@ 00445d64     BootEncryption.obj
 0002:00002d64       ??_8?$basic_stringstream@DU?$char_traits@D@std@@V?$allocator@D@2@@std@@7B?$basic_istream@DU?$char_traits@D@std@@@1@@ 00445d64     BootEncryption.obj
 0002:00002d70       ??_7?$ContainerForward@V?$list@UPartition@CipherShed@@V?$allocator@UPartition@CipherShed@@@std@@@std@@@ForEach@CipherShed@@6B@ 00445d70     BootEncryption.obj
 0002:00002d7c       ??_C@_01JLIPDDHJ@?3?$AA@   00445d7c     BootEncryption.obj
 0002:00002d80       ??_C@_17LGGGMOOB@?$AA?$CF?$AAh?$AAs?$AA?$AA@ 00445d80     BootEncryption.obj
 0002:00002d88       ??_C@_0BB@EPPOJBJL@?2Device?2Harddisk?$AA@ 00445d88     BootEncryption.obj
 0002:00002d9c       ??_C@_0L@DPPABKKK@?2Partition?$AA@ 00445d9c     BootEncryption.obj
 0002:00002da8       ??_C@_0M@OJHKIMBP@?2Partition0?$AA@ 00445da8     BootEncryption.obj
 0002:00002db4       ??_C@_0DA@NMHPMMAN@CipherShed?3?3BootEncryption?3?3Regi@ 00445db4     BootEncryption.obj
 0002:00002de4       ??_C@_03CGLHDMIP@?$CC?$AN?6?$AA@ 00445de4     BootEncryption.obj
 0002:00002de8       ??_C@_02JGFLNPEJ@?0?$CC?$AA@ 00445de8     BootEncryption.obj
 0002:00002dec       ??_C@_08OHAGLOJG@?$CC?00x0001?$AA@ 00445dec     BootEncryption.obj
 0002:00002df8       ??_C@_0CN@BKHLFBOK@Reg?$DNtruecrypt_reg?$AN?6?$AN?6?$FLtruecrypt_@ 00445df8     BootEncryption.obj
 0002:00002e28       ??_C@_0O@HCLLBHKI@?$FLtruecrypt?$FN?$AN?6?$AA@ 00445e28     BootEncryption.obj
 0002:00002e38       ??_C@_03ENJJMCOJ@Del?$AA@  00445e38     BootEncryption.obj
 0002:00002e3c       ??_C@_04JBLMLCOF@8002?$AA@ 00445e3c     BootEncryption.obj
 0002:00002e44       ??_C@_03LDFMNCOE@Add?$AA@  00445e44     BootEncryption.obj
 0002:00002e48       ??_C@_04FLCDBBKO@0008?$AA@ 00445e48     BootEncryption.obj
 0002:00002e50       ??_C@_0BM@GBCKDJAI@?2truecrypt_driver_setup?4inf?$AA@ 00445e50     BootEncryption.obj
 0002:00002e6c       ??_C@_0N@KPKBADH@UpperFilters?$AA@ 00445e6c     BootEncryption.obj
 0002:00002e7c       ??_C@_0CO@FIPMIJLN@SYSTEM?2CurrentControlSet?2Control@ 00445e7c     BootEncryption.obj
 0002:00002eac       ??_C@_0M@DBKHNNPD@DumpFilters?$AA@ 00445eac     BootEncryption.obj
 0002:00002eb8       ??_C@_0DG@DPKAKJNE@CipherShed?3?3BootEncryption?3?3Regi@ 00445eb8     BootEncryption.obj
 0002:00002ef0       ??_C@_0O@ICNEBHDC@PhysicalDrive?$AA@ 00445ef0     BootEncryption.obj
 0002:00002f00       ??_C@_0DM@GPLMBDCL@CipherShed?3?3BootEncryption?3?3GetS@ 00445f00     BootEncryption.obj
 0002:00002f3c       ??_C@_1O@MIGMNGND@?$AA?2?$AAn?$AAt?$AAl?$AAd?$AAr?$AA?$AA@ 00445f3c     BootEncryption.obj
 0002:00002f4c       ??_C@_1BC@EONGMCPP@?$AA?2?$AAb?$AAo?$AAo?$AAt?$AAm?$AAg?$AAr?$AA?$AA@ 00445f4c     BootEncryption.obj
 0002:00002f60       ??_C@_06JLGNLLFE@?2ntldr?$AA@ 00445f60     BootEncryption.obj
 0002:00002f68       ??_C@_08OINNAHG@?2bootmgr?$AA@ 00445f68     BootEncryption.obj
 0002:00002f74       ??_C@_0DK@JGBACLGO@CipherShed?3?3BootEncryption?3?3Crea@ 00445f74     BootEncryption.obj
 0002:00002fb0       ??_C@_0DK@BEMHCBCE@CipherShed?3?3BootEncryption?3?3Crea@ 00445fb0     BootEncryption.obj
 0002:00002fec       ??_C@_0DK@GLPGGLDI@CipherShed?3?3BootEncryption?3?3Crea@ 00445fec     BootEncryption.obj
 0002:00003028       ??_C@_0DK@HIHDHHHD@CipherShed?3?3BootEncryption?3?3Crea@ 00446028     BootEncryption.obj
 0002:00003064       ??_C@_03POBHGEJB@BIN?$AA@  00446064     BootEncryption.obj
 0002:00003068       ??_C@_0DJ@GPBHKCOJ@CipherShed?3?3BootEncryption?3?3Crea@ 00446068     BootEncryption.obj
 0002:000030a4       ??_C@_07DABDIDEC@Twofish?$AA@ 004460a4     BootEncryption.obj
 0002:000030ac       ??_C@_07CCCAKGBN@Serpent?$AA@ 004460ac     BootEncryption.obj
 0002:000030b4       ??_C@_03BKNEFOAH@AES?$AA@  004460b4     BootEncryption.obj
 0002:000030b8       ??_C@_0DJ@ODNDPJBL@CipherShed?3?3BootEncryption?3?3Crea@ 004460b8     BootEncryption.obj
 0002:000030f4       ??_C@_0BE@GPJOEGCF@ERROR_MBR_PROTECTED?$AA@ 004460f4     BootEncryption.obj
 0002:0000310c       ??_7out_of_range@std@@6B@  0044610c     Dictionary.obj
 0002:00003114       ??_C@_0BE@JONHPENG@map?1set?$DMT?$DO?5too?5long?$AA@ 00446114     Dictionary.obj
 0002:00003128       ??_C@_0BM@PAPJHAGI@invalid?5map?1set?$DMT?$DO?5iterator?$AA@ 00446128     Dictionary.obj
 0002:00003144       ??_C@_0M@IMAOAGMP@OUTOFMEMORY?$AA@ 00446144     Dlgcode.obj
 0002:00003150       __real@3feff7ced916872b    00446150     Dlgcode.obj
 0002:00003158       __real@407ca00000000000    00446158     Dlgcode.obj
 0002:00003160       __real@407a700000000000    00446160     Dlgcode.obj
 0002:00003168       __real@3ff0000000000000    00446168     Dlgcode.obj
 0002:00003170       ??_C@_08KAINEBEN@ABOUTBOX?$AA@ 00446170     Dlgcode.obj
 0002:0000317c       ??_C@_1BO@CJPKCNHF@?$AAL?$AAu?$AAc?$AAi?$AAd?$AAa?$AA?5?$AAC?$AAo?$AAn?$AAs?$AAo?$AAl?$AAe?$AA?$AA@ 0044617c     Dlgcode.obj
 0002:0000319c       ??_C@_0L@MOFKMHPH@font_fixed?$AA@ 0044619c     Dlgcode.obj
 0002:000031a8       ??_C@_0L@NMFINBBB@font_title?$AA@ 004461a8     Dlgcode.obj
 0002:000031b4       ??_C@_1M@KAKMLIHO@?$AAA?$AAr?$AAi?$AAa?$AAl?$AA?$AA@ 004461b4     Dlgcode.obj
 0002:000031c0       ??_C@_09KDCDAOMH@font_bold?$AA@ 004461c0     Dlgcode.obj
 0002:000031cc       ??_C@_06DILOELAE@NOFONT?$AA@ 004461cc     Dlgcode.obj
 0002:000031d4       ??_C@_1BI@GNONBDFP@?$AAC?$AAo?$AAu?$AAr?$AAi?$AAe?$AAr?$AA?5?$AAN?$AAe?$AAw?$AA?$AA@ 004461d4     Dlgcode.obj
 0002:000031f0       __real@c028000000000000    004461f0     Dlgcode.obj
 0002:000031f8       ??_C@_1O@FPBPJIKI@?$AAT?$AAa?$AAh?$AAo?$AAm?$AAa?$AA?$AA@ 004461f8     Dlgcode.obj
 0002:00003208       ??_C@_1BA@HANLFFFG@?$AAd?$AAe?$AAf?$AAa?$AAu?$AAl?$AAt?$AA?$AA@ 00446208     Dlgcode.obj
 0002:00003218       ??_C@_0M@IGCGEGAM@font_normal?$AA@ 00446218     Dlgcode.obj
 0002:00003224       ??_C@_09IDILIKHG@NO_OS_VER?$AA@ 00446224     Dlgcode.obj
 0002:00003230       ??_C@_0BN@EOEFIMME@CipherShed?5User?5Guide?4?$CFs?4pdf?$AA@ 00446230     Dlgcode.obj
 0002:00003250       ??_C@_02LFNMGJAP@en?$AA@   00446250     Dlgcode.obj
 0002:00003254       ??_C@_0BG@NAJKGDG@DRIVER_INSTALL_FAILED?$AA@ 00446254     Dlgcode.obj
 0002:0000326c       ??_C@_0BA@NDPFMBFD@STARTING_DRIVER?$AA@ 0044626c     Dlgcode.obj
 0002:0000327c       ??_C@_0BC@ECEMIBMM@INSTALLING_DRIVER?$AA@ 0044627c     Dlgcode.obj
 0002:00003290       ??_C@_06KJMEDNIB@Static?$AA@ 00446290     Dlgcode.obj
 0002:00003298       ??_C@_06LKBCGDFD@Button?$AA@ 00446298     Dlgcode.obj
 0002:000032a0       ??_C@_1BG@INDNNNCG@?$AAC?$AAi?$AAp?$AAh?$AAe?$AAr?$AAS?$AAh?$AAe?$AAd?$AA?$AA@ 004462a0     Dlgcode.obj
 0002:000032b8       ??_C@_0M@MKBGBFGO@CAPSLOCK_ON?$AA@ 004462b8     Dlgcode.obj
 0002:000032c4       ??_C@_04NEEFLLOK@?4bat?$AA@ 004462c4     Dlgcode.obj
 0002:000032cc       ??_C@_04CPCBDHLK@?4cmd?$AA@ 004462cc     Dlgcode.obj
 0002:000032d4       ??_C@_04PNGHFIJN@?4com?$AA@ 004462d4     Dlgcode.obj
 0002:000032dc       ??_C@_04JLMDILM@?4exe?$AA@ 004462dc     Dlgcode.obj
 0002:000032e4       ??_C@_0O@GDPBNEAJ@?2?2?4?2TrueCrypt?$AA@ 004462e4     Dlgcode.obj
 0002:000032f4       ??_C@_02DPKJAMEF@?$CFd?$AA@ 004462f4     Dlgcode.obj
 0002:000032f8       ??_C@_03ICHNJLJF@key?$AA@  004462f8     Dlgcode.obj
 0002:000032fc       ??_C@_06HEJKKHEK@config?$AA@ 004462fc     Dlgcode.obj
 0002:00003304       ??_C@_08PNLNEKOB@kernel32?$AA@ 00446304     Dlgcode.obj
 0002:00003310       ??_C@_0BO@LNOCKJOB@Wow64EnableWow64FsRedirection?$AA@ 00446310     Dlgcode.obj
 0002:00003330       ??_C@_0BE@POPFGFGJ@SeShutdownPrivilege?$AA@ 00446330     Dlgcode.obj
 0002:00003344       ??_C@_0BH@KELIABGB@DEVICE_NOT_READY_ERROR?$AA@ 00446344     Dlgcode.obj
 0002:0000335c       ??_C@_0BI@GBJLPDI@SYS_ASSIGN_DRIVE_LETTER?$AA@ 0044635c     Dlgcode.obj
 0002:00003374       ??_C@_0BH@DCKIMKAI@SYS_AUTOMOUNT_DISABLED?$AA@ 00446374     Dlgcode.obj
 0002:0000338c       ??_C@_0M@PNKDIFLK@NoAutoMount?$AA@ 0044638c     Dlgcode.obj
 0002:00003398       ??_C@_0CL@PBEPCFPL@SYSTEM?2CurrentControlSet?2Service@ 00446398     Dlgcode.obj
 0002:000033c4       ??_C@_03EJABLKAK@?$DP?3?2?$AA@ 004463c4     Dlgcode.obj
 0002:000033c8       ??_C@_0ED@FMLJHJOD@System?2CurrentControlSet?2Control@ 004463c8     Dlgcode.obj
 0002:0000340c       ??_C@_0M@BHFNFFHI@PagingFiles?$AA@ 0044640c     Dlgcode.obj
 0002:00003418       ??_C@_0BH@HKGDHIEL@Global?2TrueCrypt?5Setup?$AA@ 00446418     Dlgcode.obj
 0002:00003430       ??_C@_01HIHLOKLC@1?$AA@    00446430     Dlgcode.obj
 0002:00003434       ??_C@_0BN@CCKGMGAA@Post?9Install?5Task?5?9?5Tutorial?$AA@ 00446434     Dlgcode.obj
 0002:00003454       ??_C@_0CC@PPOKIEIE@Post?9Install?5Task?5?9?5Release?5Note@ 00446454     Dlgcode.obj
 0002:00003478       ??_C@_04OJAHODMC@Text?$AA@ 00446478     Dlgcode.obj
 0002:00003480       ??_C@_13LBAGMAIH@?$AA?6?$AA?$AA@ 00446480     Dlgcode.obj
 0002:00003484       ??_C@_09EPIDNIBP@SplashDlg?$AA@ 00446484     Dlgcode.obj
 0002:00003490       ??_C@_09ODDMBMG@CustomDlg?$AA@ 00446490     Dlgcode.obj
 0002:0000349c       ??_C@_01LFCBOECM@?4?$AA@   0044649c     Dlgcode.obj
 0002:000034a0       ??_C@_0BJ@FNCHKEAA@GetSystemWow64DirectoryA?$AA@ 004464a0     Dlgcode.obj
 0002:000034bc       ??_C@_0BA@OFMBGJKB@X?3?2pagefile?4sys?$AA@ 004464bc     Dlgcode.obj
 0002:000034cc       ??_C@_06EFIGOLMA@?2?2?4?2X?3?$AA@ 004464cc     Dlgcode.obj
 0002:000034d4       ??_C@_0P@NDJDHMAP@UAC_INIT_ERROR?$AA@ 004464d4     Dlgcode.obj
 0002:000034e4       ??_C@_0BE@NEFDJEPG@VOL_ALREADY_MOUNTED?$AA@ 004464e4     Dlgcode.obj
 0002:000034fc       ??_7?$ContainerForward@V?$list@KV?$allocator@K@std@@@std@@@ForEach@CipherShed@@6B@ 004464fc     Dlgcode.obj
 0002:00003508       ??_C@_03PFGLPIPP@?9sp?$AA@ 00446508     Dlgcode.obj
 0002:0000350c       ??_C@_04DFMLABPB@?9x64?$AA@ 0044650c     Dlgcode.obj
 0002:00003514       ??_C@_06FNMLEPMI@?9basic?$AA@ 00446514     Dlgcode.obj
 0002:0000351c       ??_C@_05NIKDGMHP@Basic?$AA@ 0044651c     Dlgcode.obj
 0002:00003524       ??_C@_08KHECKGMK@?9starter?$AA@ 00446524     Dlgcode.obj
 0002:00003530       ??_C@_09FDAPKNJ@?9ultimate?$AA@ 00446530     Dlgcode.obj
 0002:0000353c       ??_C@_08DIOBIMMC@Ultimate?$AA@ 0044653c     Dlgcode.obj
 0002:00003548       ??_C@_0M@BOLPHPEH@?9datacenter?$AA@ 00446548     Dlgcode.obj
 0002:00003554       ??_C@_0L@OOPFNAF@Datacenter?$AA@ 00446554     Dlgcode.obj
 0002:00003560       ??_C@_0M@CCIJFPDH@?9enterprise?$AA@ 00446560     Dlgcode.obj
 0002:0000356c       ??_C@_0L@DCNJHNHF@Enterprise?$AA@ 0044656c     Dlgcode.obj
 0002:00003578       ??_C@_09LKNHIPDK@?9business?$AA@ 00446578     Dlgcode.obj
 0002:00003584       ??_C@_08IHAGPJCB@Business?$AA@ 00446584     Dlgcode.obj
 0002:00003590       ??_C@_0N@KIDDKEAC@Professional?$AA@ 00446590     Dlgcode.obj
 0002:000035a0       ??_C@_09OBBBAFJO@?9standard?$AA@ 004465a0     Dlgcode.obj
 0002:000035ac       ??_C@_08NMMAHDIF@Standard?$AA@ 004465ac     Dlgcode.obj
 0002:000035b8       ??_C@_07ODEEFNBO@?9server?$AA@ 004465b8     Dlgcode.obj
 0002:000035c0       ??_C@_06HHKOBDNA@2008r2?$AA@ 004465c0     Dlgcode.obj
 0002:000035c8       ??_C@_01COCBENDE@7?$AA@    004465c8     Dlgcode.obj
 0002:000035cc       ??_C@_04CBODECMO@2008?$AA@ 004465cc     Dlgcode.obj
 0002:000035d4       ??_C@_05FBPADAKE@vista?$AA@ 004465d4     Dlgcode.obj
 0002:000035dc       ??_C@_04MCBHJLAF@2003?$AA@ 004465dc     Dlgcode.obj
 0002:000035e4       ??_C@_04NOKDIIJN@?9pro?$AA@ 004465e4     Dlgcode.obj
 0002:000035ec       ??_C@_05GHINFEPM@?9home?$AA@ 004465ec     Dlgcode.obj
 0002:000035f4       ??_C@_02HFGDGGPD@xp?$AA@   004465f4     Dlgcode.obj
 0002:000035f8       ??_C@_04OJDKMIMG@2000?$AA@ 004465f8     Dlgcode.obj
 0002:00003600       ??_C@_0M@MNPNDAHP@ProductName?$AA@ 00446600     Dlgcode.obj
 0002:0000360c       ??_C@_0CN@LCMFDIEF@SOFTWARE?2Microsoft?2Windows?5NT?2Cu@ 0044660c     Dlgcode.obj
 0002:0000363c       ??_C@_03JECLAOEA@win?$AA@  0044663c     Dlgcode.obj
 0002:00003640       ??_C@_0DI@DCPBDEOF@http?3?1?1ciphershed?4org?1applink?$DPve@ 00446640     Dlgcode.obj
 0002:00003678       ??_C@_04CIEGKLKE@?$CGos?$DN?$AA@ 00446678     Dlgcode.obj
 0002:00003680       ??_C@_0DDJ@INFJPGJH@Portions?5of?5this?5software?5are?5ba@ 00446680     Dlgcode.obj
 0002:000039bc       ??_C@_04GHJNJNPO@main?$AA@ 004469bc     Dlgcode.obj
 0002:000039c4       ??_C@_0CL@OLEPOIOI@Released?5by?5CipherShed?5on?5Februa@ 004469c4     Dlgcode.obj
 0002:000039f0       ??_C@_0O@HAOBOOIJ@CipherShed?5?$CFs?$AA@ 004469f0     Dlgcode.obj
 0002:00003a00       ??_C@_0P@POMHPHDI@ciphershed?4org?$AA@ 00446a00     Dlgcode.obj
 0002:00003a10       ??_C@_0O@JLGCPBGA@IDD_ABOUT_DLG?$AA@ 00446a10     Dlgcode.obj
 0002:00003a20       ??_C@_0BF@JIKAMFDK@EXCEPTION_REPORT_EXT?$AA@ 00446a20     Dlgcode.obj
 0002:00003a38       ??_C@_0BH@KPCDNAAO@EXCEPTION_REPORT_TITLE?$AA@ 00446a38     Dlgcode.obj
 0002:00003a50       ??_C@_0BB@PFGPMKFM@EXCEPTION_REPORT?$AA@ 00446a50     Dlgcode.obj
 0002:00003a68       ??_C@_0IK@LKDHDEMN@https?3?1?1ciphershed?4org?1applink?$DPv@ 00446a68     Dlgcode.obj
 0002:00003af4       ??_C@_05LABDNII@setup?$AA@ 00446af4     Dlgcode.obj
 0002:00003afc       ??_C@_03NDFEINMN@x86?$AA@  00446afc     Dlgcode.obj
 0002:00003b00       ??_C@_03OLPMMCEF@x64?$AA@  00446b00     Dlgcode.obj
 0002:00003b04       ??_C@_01JOAMLHOP@?9?$AA@   00446b04     Dlgcode.obj
 0002:00003b08       ??_C@_0BA@EIBJDAPB@?$CGlangpack?$DN?$CFs_?$CFs?$AA@ 00446b08     Dlgcode.obj
 0002:00003b18       ??_C@_03BPHHBGPB@?$DN0x?$AA@ 00446b18     Dlgcode.obj
 0002:00003b1c       ??_C@_01NEMOKFLO@?$DN?$AA@ 00446b1c     Dlgcode.obj
 0002:00003b20       ??_C@_03EGAGLKPK@?$CGst?$AA@ 00446b20     Dlgcode.obj
 0002:00003b24       ??_C@_0M@GHNAPHBH@SymFromAddr?$AA@ 00446b24     Dlgcode.obj
 0002:00003b30       ??_C@_0M@FJINHFIC@StackWalk64?$AA@ 00446b30     Dlgcode.obj
 0002:00003b3c       ??_C@_0BD@JCAKOMOK@SymGetModuleBase64?$AA@ 00446b3c     Dlgcode.obj
 0002:00003b50       ??_C@_0BJ@OOGADJNM@SymFunctionTableAccess64?$AA@ 00446b50     Dlgcode.obj
 0002:00003b6c       ??_C@_0O@MCMFENKA@SymInitialize?$AA@ 00446b6c     Dlgcode.obj
 0002:00003b7c       ??_C@_0O@LIDFOEPH@SymSetOptions?$AA@ 00446b7c     Dlgcode.obj
 0002:00003b8c       ??_C@_0O@KGBKFDLO@SymGetOptions?$AA@ 00446b8c     Dlgcode.obj
 0002:00003b9c       ??_C@_0M@OOEJBPPK@dbghelp?4dll?$AA@ 00446b9c     Dlgcode.obj
 0002:00003ba8       ??_C@_0BN@PKGEAFIB@EXCEPTION_REPORT_EXT_FILESEL?$AA@ 00446ba8     Dlgcode.obj
 0002:00003bc8       ??_C@_0O@HCBFIMAP@INIT_RICHEDIT?$AA@ 00446bc8     Dlgcode.obj
 0002:00003bd8       ??_C@_0N@BMEDOHMB@Riched20?4dll?$AA@ 00446bd8     Dlgcode.obj
 0002:00003be8       ??_C@_0O@PKFAAFKJ@INIT_REGISTER?$AA@ 00446be8     Dlgcode.obj
 0002:00003bf8       ??_C@_06FGFHJIJL@?$CD32770?$AA@ 00446bf8     Dlgcode.obj
 0002:00003c00       ??_C@_0BO@CHBDAIFD@LARGE_IDE_WARNING_2K_REGISTRY?$AA@ 00446c00     Dlgcode.obj
 0002:00003c20       ??_C@_0N@MGFEFGLL@EnableBigLba?$AA@ 00446c20     Dlgcode.obj
 0002:00003c30       ??_C@_0DD@HENCBNAN@SYSTEM?2CurrentControlSet?2Service@ 00446c30     Dlgcode.obj
 0002:00003c64       ??_C@_0BF@FAAJOFOJ@LARGE_IDE_WARNING_2K?$AA@ 00446c64     Dlgcode.obj
 0002:00003c7c       ??_C@_0BF@LMHPGAIF@LARGE_IDE_WARNING_XP?$AA@ 00446c7c     Dlgcode.obj
 0002:00003c94       ??_C@_0CI@KAEBDPBB@System?2CurrentControlSet?2Control@ 00446c94     Dlgcode.obj
 0002:00003cbc       ??_C@_0P@IEEIGCBO@UNSUPPORTED_OS?$AA@ 00446cbc     Dlgcode.obj
 0002:00003ccc       ??_C@_08BENDAOKD@Language?$AA@ 00446ccc     Dlgcode.obj
 0002:00003cd8       ??_C@_04PCJFHION@help?$AA@ 00446cd8     Dlgcode.obj
 0002:00003ce0       ??_C@_0BC@HCJJOEDJ@HELP_READER_ERROR?$AA@ 00446ce0     Dlgcode.obj
 0002:00003e3c       _mask_bits                 00446e3c     Inflate.obj
 0002:00003e68       ??_C@_0BG@CMHGGAOF@?$CIincomplete?5d?9tree?$CJ?5?5?$AA@ 00446e68     Inflate.obj
 0002:00003e80       ??_C@_0BG@DPKBCABB@?$CIincomplete?5l?9tree?$CJ?5?5?$AA@ 00446e80     Inflate.obj
 0002:00003e98       ??_C@_03FJEFHLHG@Xml?$AA@  00446e98     Language.obj
 0002:00003e9c       ??_C@_1BO@DAKOOJFM@?$AA?2?$AAL?$AAa?$AAn?$AAg?$AAu?$AAa?$AAg?$AAe?$AA?$CK?$AA?4?$AAx?$AAm?$AAl?$AA?$AA@ 00446e9c     Language.obj
 0002:00003ebc       ??_C@_1BE@ONAPIBAL@?$AA?$FL?$AA?$DP?$AA?$FN?$AA?$CF?$AAh?$AAs?$AA?$FL?$AA?$DP?$AA?$FN?$AA?$AA@ 00446ebc     Language.obj
 0002:00003ed0       ??_C@_0O@MBEIEFFD@?$CDdefine?5?$CFs?5?$CFd?$AA@ 00446ed0     Language.obj
 0002:00003ee0       ??_C@_06OENKJGA@Header?$AA@ 00446ee0     Language.obj
 0002:00003ee8       ??_C@_06CALLMKCG@IDHELP?$AA@ 00446ee8     Language.obj
 0002:00003ef0       ??_C@_08DDAIHKOO@IDCANCEL?$AA@ 00446ef0     Language.obj
 0002:00003efc       ??_C@_04BAADKBID@IDOK?$AA@ 00446efc     Language.obj
 0002:00003f04       ??_C@_0CO@OPBINFGK@CipherShed?3?5Error?5while?5decoding@ 00446f04     Language.obj
 0002:00003f34       ??_C@_0DC@NDOJKNIA@CipherShed?3?5Unknown?5?8?2?8?5escape?5s@ 00446f34     Language.obj
 0002:00003f68       ??_C@_05ENKANFLO@class?$AA@ 00446f68     Language.obj
 0002:00003f70       ??_C@_05DONAFDKA@font_?$AA@ 00446f70     Language.obj
 0002:00003f78       ??_C@_04IAGNFIBA@size?$AA@ 00446f78     Language.obj
 0002:00003f80       ??_C@_04POCOPAPC@face?$AA@ 00446f80     Language.obj
 0002:00003f88       ??_C@_04IOHABJIC@lang?$AA@ 00446f88     Language.obj
 0002:00003f90       ??_C@_04EFPADHIC@font?$AA@ 00446f90     Language.obj
 0002:00003f98       ??_C@_07CPCPJPKL@version?$AA@ 00446f98     Language.obj
 0002:00003fa0       ??_C@_06CLEJICHF@langid?$AA@ 00446fa0     Language.obj
 0002:00003fa8       ??_C@_08JGCCIMAA@language?$AA@ 00446fa8     Language.obj
 0002:00003fb8       ??_C@_1EAI@KOJNONI@?$AAT?$AAh?$AAe?$AA?5?$AAi?$AAn?$AAs?$AAt?$AAa?$AAl?$AAl?$AAe?$AAd?$AA?5?$AAl?$AAa?$AAn?$AAg?$AAu?$AAa?$AAg?$AAe?$AA?5?$AAp?$AAa?$AAc?$AAk?$AA?5?$AAi?$AAs?$AA?5?$AAi@ 00446fb8     Language.obj
 0002:000043c0       ??_C@_05KOLFGEDA@DEBUG?$AA@ 004473c0     Language.obj
 0002:000043c8       ??_C@_0N@LEFFHNKM@prog?9version?$AA@ 004473c8     Language.obj
 0002:000043d8       ??_C@_0N@MFNNBINO@localization?$AA@ 004473d8     Language.obj
 0002:000043e8       ??_C@_06ICGJLFIM@string?$AA@ 004473e8     Language.obj
 0002:000043f0       ??_C@_07MMBOFDEG@control?$AA@ 004473f0     Language.obj
 0002:000043f8       ??_C@_0M@DOLNAGBN@translators?$AA@ 004473f8     Language.obj
 0002:00004404       ??_C@_15KHFHDPFH@?$AA?9?$AA?9?$AA?$AA@ 00447404     Language.obj
 0002:0000440c       ??_C@_0BC@KEBBFOHL@LANG_PACK_VERSION?$AA@ 0044740c     Language.obj
 0002:00004420       ??_C@_1BA@CLLEDPIF@?$AAE?$AAn?$AAg?$AAl?$AAi?$AAs?$AAh?$AA?$AA@ 00447420     Language.obj
 0002:00004430       ??_C@_04MEMAJGDJ@name?$AA@ 00447430     Language.obj
 0002:00004438       ??_C@_0N@CHAAEAGP@IDD_LANGUAGE?$AA@ 00447438     Language.obj
 0002:00004448       ??_C@_0O@GFLMAIPO@localizations?$AA@ 00447448     Language.obj
 0002:00004458       ??_C@_0BM@OECEHKD@?$CGlangpackversion?$DN?$CFs?$CGlang?$DN?$CFs?$AA@ 00447458     Language.obj
 0002:00004474       ??_C@_0CC@HPOBEDNL@Software?2Microsoft?2Windows?2Curre@ 00447474     Registry.obj
 0002:00004498       ??_C@_0N@PGJGCAIL@tVersion?2Run?$AA@ 00447498     Registry.obj
 0002:000044a8       ??_C@_0BD@NLNANBEJ@ERR_HARDWARE_ERROR?$AA@ 004474a8     errors.obj
 0002:000044bc       ??_C@_0BC@GIPDODAO@ERR_ACCESS_DENIED?$AA@ 004474bc     errors.obj
 0002:000044d0       ??_C@_0BL@JMLKAJFL@PASSWORD_WRONG_CAPSLOCK_ON?$AA@ 004474d0     errors.obj
 0002:000044ec       ??_C@_15GANGMFKL@?$AA?$CF?$AAs?$AA?$AA@ 004474ec     errors.obj
 0002:000044f4       ??_C@_0P@MKGPOAFK@PASSWORD_WRONG?$AA@ 004474f4     errors.obj
 0002:00004504       ??_C@_0BK@LAEGKAMJ@PASSWORD_OR_KEYFILE_WRONG?$AA@ 00447504     errors.obj
 0002:00004520       ??_C@_0M@FDOCLIJD@ERR_UNKNOWN?$AA@ 00447520     errors.obj
 0002:0000452c       ??_C@_0BI@NIGJHOFH@ERR_PARAMETER_INCORRECT?$AA@ 0044752c     errors.obj
 0002:00004544       ??_C@_0CF@MBJPLKGL@ERR_SYS_HIDVOL_HEAD_REENC_MODE_W@ 00447544     errors.obj
 0002:0000456c       ??_C@_0CC@BGLNMIMN@ERR_NONSYS_INPLACE_ENC_INCOMPLET@ 0044756c     errors.obj
 0002:00004590       ??_C@_0BN@JLJPGHCL@ERR_ENCRYPTION_NOT_COMPLETED?$AA@ 00447590     errors.obj
 0002:000045b0       ??_C@_0BD@GJIBONDI@ERR_VOL_FORMAT_BAD?$AA@ 004475b0     errors.obj
 0002:000045c4       ??_C@_0BG@DKEEGIEL@ERR_SELF_TESTS_FAILED?$AA@ 004475c4     errors.obj
 0002:000045dc       ??_C@_0BF@LDKGLOCG@NEW_VERSION_REQUIRED?$AA@ 004475dc     errors.obj
 0002:000045f4       ??_C@_0P@LICKOHFP@DRIVER_VERSION?$AA@ 004475f4     errors.obj
 0002:00004604       ??_C@_0O@ILOHOCOF@ACCESS_DENIED?$AA@ 00447604     errors.obj
 0002:00004614       ??_C@_0P@ECPPAAM@NO_FREE_DRIVES?$AA@ 00447614     errors.obj
 0002:00004624       ??_C@_0BB@JCPIJGNN@VOL_MOUNT_FAILED?$AA@ 00447624     errors.obj
 0002:00004638       ??_C@_0BB@GLPAMHI@FILE_OPEN_FAILED?$AA@ 00447638     errors.obj
 0002:0000464c       ??_C@_0BJ@DGGCCNCK@ERR_CIPHER_INIT_WEAK_KEY?$AA@ 0044764c     errors.obj
 0002:00004668       ??_C@_0BI@BFLHAGLK@ERR_CIPHER_INIT_FAILURE?$AA@ 00447668     errors.obj
 0002:00004680       ??_C@_0M@KFLNHABP@VOL_SEEKING?$AA@ 00447680     errors.obj
 0002:0000468c       ??_C@_0P@BKLABIJI@WRONG_VOL_TYPE?$AA@ 0044768c     errors.obj
 0002:0000469c       ??_C@_0BK@FLKCANLN@COMPRESSION_NOT_SUPPORTED?$AA@ 0044769c     errors.obj
 0002:000046b8       ??_C@_0P@HPMGPOAF@VOL_SIZE_WRONG?$AA@ 004476b8     errors.obj
 0002:000046c8       ??_C@_0P@DNONBLBD@OPENFILES_LOCK?$AA@ 004476c8     errors.obj
 0002:000046d8       ??_C@_0BB@HBDCANKP@OPENFILES_DRIVER?$AA@ 004476d8     errors.obj
 0002:000046ec       ??_C@_09IILMPLJM@NOT_FOUND?$AA@ 004476ec     errors.obj
 0002:000046f8       ??_C@_0P@LKABJJMO@IsWow64Process?$AA@ 004476f8     userperms.obj
 0002:00004708       ??_C@_09IMBMLODE@EnableLUA?$AA@ 00447708     userperms.obj
 0002:00004714       ??_C@_0DK@IFNHFOHB@Software?2Microsoft?2Windows?2Curre@ 00447714     userperms.obj
 0002:00004754       ??_7?$ContainerForward@V?$basic_string@DU?$char_traits@D@std@@V?$allocator@D@2@@std@@@ForEach@CipherShed@@6B@ 00447754     csstringutil.obj
 0002:00004760       ??_C@_1BK@LABJKOM@?$AA?2?$AAD?$AAo?$AAs?$AAD?$AAe?$AAv?$AAi?$AAc?$AAe?$AAs?$AA?2?$AA?$AA@ 00447760     diskutil.obj
 0002:0000477c       _IID_IShellLinkA           0044777c     shell32:shguid.obj
 0002:0000478c       _IID_IPersistFile          0044778c     uuid:objidl_i.obj
 0002:0000479c       _PKEY_AppUserModel_ID      0044779c     uuid:guids.obj
 0002:000047b0       _CLSID_ShellLink           004477b0     uuid:shguids2.obj
 0002:000047c0       _GUID_DEVCLASS_DISKDRIVE   004477c0     uuid:cguid_i.obj
 0002:000047d0       _GUID_DEVCLASS_FLOPPYDISK  004477d0     uuid:cguid_i.obj
 0002:000047e0       _GUID_DEVCLASS_VOLUME      004477e0     uuid:cguid_i.obj
 0002:000047f0       ??_C@_0BA@JFNIOLAK@string?5too?5long?$AA@ 004477f0     libcpmt:string.obj
 0002:00004800       ??_C@_0BI@CFPLBAOH@invalid?5string?5position?$AA@ 00447800     libcpmt:string.obj
 0002:0000481c       ??_7_Locimp@locale@std@@6B@ 0044781c     libcpmt:locale0.obj
 0002:00004820       ??_C@_01NBENCBCI@?$CK?$AA@ 00447820     libcpmt:locale0.obj
 0002:00004824       ??_C@_01GFHCPBMG@C?$AA@    00447824     libcpmt:locale0.obj
 0002:00004828       ?_BADOFF@std@@3JB          00447828     libcpmt:ios.obj
 0002:00004830       ??_7type_info@@6B@         00447830     LIBCMT:typinfo.obj
 0002:00004854       ??_C@_0BI@BKLFFAPO@SetThreadStackGuarantee?$AA@ 00447854     LIBCMT:resetstk.obj
 0002:0000486c       ??_C@_1BK@MGMFAEKH@?$AAk?$AAe?$AAr?$AAn?$AAe?$AAl?$AA3?$AA2?$AA?4?$AAd?$AAl?$AAl?$AA?$AA@ 0044786c     LIBCMT:resetstk.obj
 0002:00004888       ??_C@_03LLEJOLGL@?4?1?2?$AA@ 00447888     LIBCMT:stati32.obj
 0002:0000488c       ??_C@_02EAOCEIGI@?$DP?$CK?$AA@ 0044788c     LIBCMT:stati32.obj
 0002:00004890       __FPinit                   00447890     LIBCMT:_fpinit_.obj
 0002:00004894       __FPmtinit                 00447894     LIBCMT:_fpinit_.obj
 0002:00004898       __FPmtterm                 00447898     LIBCMT:_fpinit_.obj
 0002:000048a0       ??_7exception@std@@6B@     004478a0     LIBCMT:stdexcpt.obj
 0002:000048a8       ??_C@_0BC@EOODALEL@Unknown?5exception?$AA@ 004478a8     LIBCMT:stdexcpt.obj
 0002:000048c0       ??_7bad_cast@std@@6B@      004478c0     LIBCMT:stdexcpt.obj
 0002:000048c8       ??_C@_0P@MIGLKIOC@CorExitProcess?$AA@ 004478c8     LIBCMT:crt0dat.obj
 0002:000048d8       ??_C@_1BI@BGOHAHKC@?$AAm?$AAs?$AAc?$AAo?$AAr?$AAe?$AAe?$AA?4?$AAd?$AAl?$AAl?$AA?$AA@ 004478d8     LIBCMT:crt0dat.obj
 0002:00004990       ??_C@_13NOLLCAOD@?$AA?$AA?$AA?$AA@ 00447990     LIBCMT:a_map.obj
 0002:00004998       ___newctype                00447998     LIBCMT:ctype.obj
 0002:00004c98       __wctype                   00447c98     LIBCMT:ctype.obj
 0002:00004ea0       ___newclmap                00447ea0     LIBCMT:ctype.obj
 0002:00005020       ___newcumap                00448020     LIBCMT:ctype.obj
 0002:000051a0       ??_C@_07LCBHPJJN@LC_TIME?$AA@ 004481a0     LIBCMT:setlocal.obj
 0002:000051a8       ??_C@_0L@DLHIECNL@LC_NUMERIC?$AA@ 004481a8     LIBCMT:setlocal.obj
 0002:000051b4       ??_C@_0M@MIENIKLA@LC_MONETARY?$AA@ 004481b4     LIBCMT:setlocal.obj
 0002:000051c0       ??_C@_08EADHIDAD@LC_CTYPE?$AA@ 004481c0     LIBCMT:setlocal.obj
 0002:000051cc       ??_C@_0L@KFJHEKIK@LC_COLLATE?$AA@ 004481cc     LIBCMT:setlocal.obj
 0002:000051d8       ??_C@_06NEFDFEKB@LC_ALL?$AA@ 004481d8     LIBCMT:setlocal.obj
 0002:000051e0       ___lc_category             004481e0     LIBCMT:setlocal.obj
 0002:000052a8       ??_C@_03EGDHDPFD@_?4?0?$AA@ 004482a8     LIBCMT:setlocal.obj
 0002:000052ac       ??_C@_01IDAFKMJL@_?$AA@    004482ac     LIBCMT:setlocal.obj
 0002:000052b0       ??_C@_01ICJEACDI@?$DL?$AA@ 004482b0     LIBCMT:setlocal.obj
 0002:000052b4       ??_C@_02BALPLPBG@?$DN?$DL?$AA@ 004482b4     LIBCMT:setlocal.obj
 0002:000052b8       __pDestructExceptionObject 004482b8     LIBCMT:frame.obj
 0002:000052c0       ??_7bad_exception@std@@6B@ 004482c0     LIBCMT:frame.obj
 0002:000052c8       ??_C@_0O@DPKOEFFH@bad?5exception?$AA@ 004482c8     LIBCMT:frame.obj
 0002:000052d8       ??_C@_0O@NLDKAIKN@EncodePointer?$AA@ 004482d8     LIBCMT:tidtable.obj
 0002:000052e8       ??_C@_1BK@DBDEIDLH@?$AAK?$AAE?$AAR?$AAN?$AAE?$AAL?$AA3?$AA2?$AA?4?$AAD?$AAL?$AAL?$AA?$AA@ 004482e8     LIBCMT:tidtable.obj
 0002:00005304       ??_C@_0O@KBPMFGHI@DecodePointer?$AA@ 00448304     LIBCMT:tidtable.obj
 0002:00005314       ??_C@_07PEJMOBNF@FlsFree?$AA@ 00448314     LIBCMT:tidtable.obj
 0002:0000531c       ??_C@_0M@JCPCPOEF@FlsSetValue?$AA@ 0044831c     LIBCMT:tidtable.obj
 0002:00005328       ??_C@_0M@GDNOONDI@FlsGetValue?$AA@ 00448328     LIBCMT:tidtable.obj
 0002:00005334       ??_C@_08KNHFBNJ@FlsAlloc?$AA@ 00448334     LIBCMT:tidtable.obj
 0002:00005340       ??_C@_0P@GGKDKEEG@runtime?5error?5?$AA@ 00448340     LIBCMT:crt0msg.obj
 0002:00005350       ??_C@_02PCIJFNDE@?$AN?6?$AA@ 00448350     LIBCMT:crt0msg.obj
 0002:00005354       ??_C@_0O@MJNIPGOH@TLOSS?5error?$AN?6?$AA@ 00448354     LIBCMT:crt0msg.obj
 0002:00005364       ??_C@_0N@BONNPDHF@SING?5error?$AN?6?$AA@ 00448364     LIBCMT:crt0msg.obj
 0002:00005374       ??_C@_0P@MBDAJNE@DOMAIN?5error?$AN?6?$AA@ 00448374     LIBCMT:crt0msg.obj
 0002:00005388       ??_C@_0JL@DFDOOABL@R6034?$AN?6An?5application?5has?5made?5a@ 00448388     LIBCMT:crt0msg.obj
 0002:00005428       ??_C@_0PH@EPAFIJ@R6033?$AN?6?9?5Attempt?5to?5use?5MSIL?5cod@ 00448428     LIBCMT:crt0msg.obj
 0002:00005520       ??_C@_0DD@BKEEABMM@R6032?$AN?6?9?5not?5enough?5space?5for?5lo@ 00448520     LIBCMT:crt0msg.obj
 0002:00005558       ??_C@_0GD@OFKILIED@R6031?$AN?6?9?5Attempt?5to?5initialize?5t@ 00448558     LIBCMT:crt0msg.obj
 0002:000055bc       ??_C@_0BP@LPMHJOKI@R6030?$AN?6?9?5CRT?5not?5initialized?$AN?6?$AA@ 004485bc     LIBCMT:crt0msg.obj
 0002:000055dc       ??_C@_0CF@KJDAIALP@R6028?$AN?6?9?5unable?5to?5initialize?5he@ 004485dc     LIBCMT:crt0msg.obj
 0002:00005604       ??_C@_0DF@GAKBPDFP@R6027?$AN?6?9?5not?5enough?5space?5for?5lo@ 00448604     LIBCMT:crt0msg.obj
 0002:0000563c       ??_C@_0DF@IBLNNAIG@R6026?$AN?6?9?5not?5enough?5space?5for?5st@ 0044863c     LIBCMT:crt0msg.obj
 0002:00005674       ??_C@_0CG@IOHKGFNJ@R6025?$AN?6?9?5pure?5virtual?5function?5c@ 00448674     LIBCMT:crt0msg.obj
 0002:0000569c       ??_C@_0DF@JIJJFJDC@R6024?$AN?6?9?5not?5enough?5space?5for?5_o@ 0044869c     LIBCMT:crt0msg.obj
 0002:000056d4       ??_C@_0CJ@EGEJHFME@R6019?$AN?6?9?5unable?5to?5open?5console?5@ 004486d4     LIBCMT:crt0msg.obj
 0002:00005700       ??_C@_0CB@GNHNIELH@R6018?$AN?6?9?5unexpected?5heap?5error?$AN?6@ 00448700     LIBCMT:crt0msg.obj
 0002:00005724       ??_C@_0CN@FOLDKNG@R6017?$AN?6?9?5unexpected?5multithread?5@ 00448724     LIBCMT:crt0msg.obj
 0002:00005754       ??_C@_0CM@FAHFJNHO@R6016?$AN?6?9?5not?5enough?5space?5for?5th@ 00448754     LIBCMT:crt0msg.obj
 0002:00005780       ??_C@_0JG@LBKMGKLD@?$AN?6This?5application?5has?5requested@ 00448780     LIBCMT:crt0msg.obj
 0002:00005818       ??_C@_0CM@FLCNIPKK@R6009?$AN?6?9?5not?5enough?5space?5for?5en@ 00448818     LIBCMT:crt0msg.obj
 0002:00005844       ??_C@_0CK@KMMJOAPP@R6008?$AN?6?9?5not?5enough?5space?5for?5ar@ 00448844     LIBCMT:crt0msg.obj
 0002:00005870       ??_C@_0CN@LEKKICBM@R6002?$AN?6?9?5floating?5point?5support?5@ 00448870     LIBCMT:crt0msg.obj
 0002:000058a0       ??_C@_0CF@GOGNBNAK@Microsoft?5Visual?5C?$CL?$CL?5Runtime?5Lib@ 004488a0     LIBCMT:crt0msg.obj
 0002:000058c8       ??_C@_02PHMGELLB@?6?6?$AA@ 004488c8     LIBCMT:crt0msg.obj
 0002:000058cc       ??_C@_03KHICJKCI@?4?4?4?$AA@ 004488cc     LIBCMT:crt0msg.obj
 0002:000058d0       ??_C@_0BH@DNAGHKFM@?$DMprogram?5name?5unknown?$DO?$AA@ 004488d0     LIBCMT:crt0msg.obj
 0002:000058e8       ??_C@_0BK@OFGJDLJJ@Runtime?5Error?$CB?6?6Program?3?5?$AA@ 004488e8     LIBCMT:crt0msg.obj
 0002:0000590c       ??_C@_1O@CEDCILHN@?$AA?$CI?$AAn?$AAu?$AAl?$AAl?$AA?$CJ?$AA?$AA@ 0044890c     LIBCMT:output.obj
 0002:0000591c       ??_C@_06OJHGLDPL@?$CInull?$CJ?$AA@ 0044891c     LIBCMT:output.obj
 0002:00005928       ___lookuptable             00448928     LIBCMT:output.obj
 0002:00005988       __XcptActTab               00448988     LIBCMT:winxfltr.obj
 0002:00005a00       ??_C@_05KLBDPFGC@e?$CL000?$AA@ 00448a00     LIBCMT:cvt.obj
 0002:00005a08       __real@4150017ec0000000    00448a08     LIBCMT:_testfdiv_.obj
 0002:00005a10       __real@4147ffff80000000    00448a10     LIBCMT:_testfdiv_.obj
 0002:00005a18       ??_C@_0BK@NHEOCAHP@IsProcessorFeaturePresent?$AA@ 00448a18     LIBCMT:_testfdiv_.obj
 0002:00005a34       ??_C@_08CPNIBGIE@KERNEL32?$AA@ 00448a34     LIBCMT:_testfdiv_.obj
 0002:00005ac8       ??_C@_03IIINPABG@tan?$AA@  00448ac8     LIBCMT:_libm_error_.obj
 0002:00005acc       ??_C@_03LALBNOCG@cos?$AA@  00448acc     LIBCMT:_libm_error_.obj
 0002:00005ad0       ??_C@_03BLEJJJBH@sin?$AA@  00448ad0     LIBCMT:_libm_error_.obj
 0002:00005ad4       ??_C@_04EHEDPDJG@modf?$AA@ 00448ad4     LIBCMT:_libm_error_.obj
 0002:00005adc       ??_C@_05PBJFFIGL@floor?$AA@ 00448adc     LIBCMT:_libm_error_.obj
 0002:00005ae4       ??_C@_04GFPJNGEK@ceil?$AA@ 00448ae4     LIBCMT:_libm_error_.obj
 0002:00005aec       ??_C@_04MLLJIGOK@atan?$AA@ 00448aec     LIBCMT:_libm_error_.obj
 0002:00005af4       ??_C@_05EOHGHCHD@exp10?$AA@ 00448af4     LIBCMT:_libm_error_.obj
 0002:00005afc       ??_C@_04PDIFKINK@acos?$AA@ 00448afc     LIBCMT:_libm_error_.obj
 0002:00005b04       ??_C@_04FIHNOPOL@asin?$AA@ 00448b04     LIBCMT:_libm_error_.obj
 0002:00005b0c       ??_C@_03MGHMBJCF@log?$AA@  00448b0c     LIBCMT:_libm_error_.obj
 0002:00005b10       ??_C@_05HGHHAHAP@log10?$AA@ 00448b10     LIBCMT:_libm_error_.obj
 0002:00005b18       ??_C@_03KHJOGHMM@exp?$AA@  00448b18     LIBCMT:_libm_error_.obj
 0002:00005b1c       ??_C@_03JGHBODFD@pow?$AA@  00448b1c     LIBCMT:_libm_error_.obj
 0002:00005b20       ??_C@_08JCCMCCIL@HH?3mm?3ss?$AA@ 00448b20     LIBCMT:strftime.obj
 0002:00005b2c       ??_C@_0BE@CKGJFCPC@dddd?0?5MMMM?5dd?0?5yyyy?$AA@ 00448b2c     LIBCMT:strftime.obj
 0002:00005b40       ??_C@_08BPBNCDIB@MM?1dd?1yy?$AA@ 00448b40     LIBCMT:strftime.obj
 0002:00005b4c       ??_C@_02CJNFDJBF@PM?$AA@   00448b4c     LIBCMT:strftime.obj
 0002:00005b50       ??_C@_02DEDBPAFC@AM?$AA@   00448b50     LIBCMT:strftime.obj
 0002:00005b54       ??_C@_08EDHMEBNP@December?$AA@ 00448b54     LIBCMT:strftime.obj
 0002:00005b60       ??_C@_08HCHEGEOA@November?$AA@ 00448b60     LIBCMT:strftime.obj
 0002:00005b6c       ??_C@_07JJNFCEND@October?$AA@ 00448b6c     LIBCMT:strftime.obj
 0002:00005b74       ??_C@_09BHHEALKD@September?$AA@ 00448b74     LIBCMT:strftime.obj
 0002:00005b80       ??_C@_06LBBHFDDG@August?$AA@ 00448b80     LIBCMT:strftime.obj
 0002:00005b88       ??_C@_04MIEPOIFP@July?$AA@ 00448b88     LIBCMT:strftime.obj
 0002:00005b90       ??_C@_04CNLMGBGM@June?$AA@ 00448b90     LIBCMT:strftime.obj
 0002:00005b98       ??_C@_05DMJDNLEJ@April?$AA@ 00448b98     LIBCMT:strftime.obj
 0002:00005ba0       ??_C@_05HPCKOFNC@March?$AA@ 00448ba0     LIBCMT:strftime.obj
 0002:00005ba8       ??_C@_08GNJGEPFN@February?$AA@ 00448ba8     LIBCMT:strftime.obj
 0002:00005bb4       ??_C@_07CGJPFGJA@January?$AA@ 00448bb4     LIBCMT:strftime.obj
 0002:00005bbc       ??_C@_03MKABNOCG@Dec?$AA@  00448bbc     LIBCMT:strftime.obj
 0002:00005bc0       ??_C@_03JPJOFNIA@Nov?$AA@  00448bc0     LIBCMT:strftime.obj
 0002:00005bc4       ??_C@_03BMAOKBAD@Oct?$AA@  00448bc4     LIBCMT:strftime.obj
 0002:00005bc8       ??_C@_03GGCAPAJC@Sep?$AA@  00448bc8     LIBCMT:strftime.obj
 0002:00005bcc       ??_C@_03IFJFEIGA@Aug?$AA@  00448bcc     LIBCMT:strftime.obj
 0002:00005bd0       ??_C@_03LBGABGKK@Jul?$AA@  00448bd0     LIBCMT:strftime.obj
 0002:00005bd4       ??_C@_03IDFGHECI@Jun?$AA@  00448bd4     LIBCMT:strftime.obj
 0002:00005bd8       ??_C@_03CNMDKL@May?$AA@    00448bd8     LIBCMT:strftime.obj
 0002:00005bdc       ??_C@_03LEOLGMJP@Apr?$AA@  00448bdc     LIBCMT:strftime.obj
 0002:00005be0       ??_C@_03ODNJBKGA@Mar?$AA@  00448be0     LIBCMT:strftime.obj
 0002:00005be4       ??_C@_03HJBDCHOM@Feb?$AA@  00448be4     LIBCMT:strftime.obj
 0002:00005be8       ??_C@_03JIHJHPIE@Jan?$AA@  00448be8     LIBCMT:strftime.obj
 0002:00005bec       ??_C@_08INBOOONO@Saturday?$AA@ 00448bec     LIBCMT:strftime.obj
 0002:00005bf8       ??_C@_06JECMNKMI@Friday?$AA@ 00448bf8     LIBCMT:strftime.obj
 0002:00005c00       ??_C@_08HACCIKIA@Thursday?$AA@ 00448c00     LIBCMT:strftime.obj
 0002:00005c0c       ??_C@_09DLIGFAKA@Wednesday?$AA@ 00448c0c     LIBCMT:strftime.obj
 0002:00005c18       ??_C@_07BAAGCFCM@Tuesday?$AA@ 00448c18     LIBCMT:strftime.obj
 0002:00005c20       ??_C@_06JLEDEDGH@Monday?$AA@ 00448c20     LIBCMT:strftime.obj
 0002:00005c28       ??_C@_06OOPIFAJ@Sunday?$AA@ 00448c28     LIBCMT:strftime.obj
 0002:00005c30       ??_C@_03FEFJNEK@Sat?$AA@   00448c30     LIBCMT:strftime.obj
 0002:00005c34       ??_C@_03IDIOELNC@Fri?$AA@  00448c34     LIBCMT:strftime.obj
 0002:00005c38       ??_C@_03IOFIKPDN@Thu?$AA@  00448c38     LIBCMT:strftime.obj
 0002:00005c3c       ??_C@_03MHOMLAJA@Wed?$AA@  00448c3c     LIBCMT:strftime.obj
 0002:00005c40       ??_C@_03NAGEINEP@Tue?$AA@  00448c40     LIBCMT:strftime.obj
 0002:00005c44       ??_C@_03PDAGKDH@Mon?$AA@   00448c44     LIBCMT:strftime.obj
 0002:00005c48       ??_C@_03KOEHGMDN@Sun?$AA@  00448c48     LIBCMT:strftime.obj
 0002:00005c4c       ??_C@_0O@FMJNFNKE@united?9states?$AA@ 00448c4c     LIBCMT:getqloc.obj
 0002:00005c5c       ??_C@_0P@NDHFFKCA@united?9kingdom?$AA@ 00448c5c     LIBCMT:getqloc.obj
 0002:00005c6c       ??_C@_0BC@HHDADLGF@trinidad?5?$CG?5tobago?$AA@ 00448c6c     LIBCMT:getqloc.obj
 0002:00005c80       ??_C@_0M@IOAEBDAC@south?9korea?$AA@ 00448c80     LIBCMT:getqloc.obj
 0002:00005c8c       ??_C@_0N@FIELFKIJ@south?9africa?$AA@ 00448c8c     LIBCMT:getqloc.obj
 0002:00005c9c       ??_C@_0M@OPNDHCMC@south?5korea?$AA@ 00448c9c     LIBCMT:getqloc.obj
 0002:00005ca8       ??_C@_0N@MDEOEPFI@south?5africa?$AA@ 00448ca8     LIBCMT:getqloc.obj
 0002:00005cb8       ??_C@_06FKAPCJLB@slovak?$AA@ 00448cb8     LIBCMT:getqloc.obj
 0002:00005cc0       ??_C@_0M@EFJANOAL@puerto?9rico?$AA@ 00448cc0     LIBCMT:getqloc.obj
 0002:00005ccc       ??_C@_08PGOJKDAI@pr?9china?$AA@ 00448ccc     LIBCMT:getqloc.obj
 0002:00005cd8       ??_C@_08JHDOMCMI@pr?5china?$AA@ 00448cd8     LIBCMT:getqloc.obj
 0002:00005ce4       ??_C@_02JHCHFBLL@nz?$AA@   00448ce4     LIBCMT:getqloc.obj
 0002:00005ce8       ??_C@_0M@LINHDHKP@new?9zealand?$AA@ 00448ce8     LIBCMT:getqloc.obj
 0002:00005cf4       ??_C@_09IIIPPBDB@hong?9kong?$AA@ 00448cf4     LIBCMT:getqloc.obj
 0002:00005d00       ??_C@_07HJLCKBG@holland?$AA@ 00448d00     LIBCMT:getqloc.obj
 0002:00005d08       ??_C@_0O@LEHGMHAG@great?5britain?$AA@ 00448d08     LIBCMT:getqloc.obj
 0002:00005d18       ??_C@_07FACOMELA@england?$AA@ 00448d18     LIBCMT:getqloc.obj
 0002:00005d20       ??_C@_05JIHCEICB@czech?$AA@ 00448d20     LIBCMT:getqloc.obj
 0002:00005d28       ??_C@_05BBJOBLGB@china?$AA@ 00448d28     LIBCMT:getqloc.obj
 0002:00005d30       ??_C@_07GPKPHICP@britain?$AA@ 00448d30     LIBCMT:getqloc.obj
 0002:00005d38       ??_C@_07MHIPBHMG@america?$AA@ 00448d38     LIBCMT:getqloc.obj
 0002:00005d40       ??_C@_03KIALPMKC@usa?$AA@  00448d40     LIBCMT:getqloc.obj
 0002:00005d44       ??_C@_02FGJGKGGD@us?$AA@   00448d44     LIBCMT:getqloc.obj
 0002:00005d48       ??_C@_02NEINDODK@uk?$AA@   00448d48     LIBCMT:getqloc.obj
 0002:00005d4c       ??_C@_05JMPCFJFJ@swiss?$AA@ 00448d4c     LIBCMT:getqloc.obj
 0002:00005d54       ??_C@_0BA@HLOCPIOD@swedish?9finland?$AA@ 00448d54     LIBCMT:getqloc.obj
 0002:00005d64       ??_C@_0BC@PKCNIABK@spanish?9venezuela?$AA@ 00448d64     LIBCMT:getqloc.obj
 0002:00005d78       ??_C@_0BA@GBHHMIJI@spanish?9uruguay?$AA@ 00448d78     LIBCMT:getqloc.obj
 0002:00005d88       ??_C@_0BE@BHDOHPMC@spanish?9puerto?5rico?$AA@ 00448d88     LIBCMT:getqloc.obj
 0002:00005d9c       ??_C@_0N@KMOIDGGN@spanish?9peru?$AA@ 00448d9c     LIBCMT:getqloc.obj
 0002:00005dac       ??_C@_0BB@HMHLPGPH@spanish?9paraguay?$AA@ 00448dac     LIBCMT:getqloc.obj
 0002:00005dc0       ??_C@_0P@MCPKNGFD@spanish?9panama?$AA@ 00448dc0     LIBCMT:getqloc.obj
 0002:00005dd0       ??_C@_0BC@IHOHGAIL@spanish?9nicaragua?$AA@ 00448dd0     LIBCMT:getqloc.obj
 0002:00005de4       ??_C@_0P@KLMJDNFJ@spanish?9modern?$AA@ 00448de4     LIBCMT:getqloc.obj
 0002:00005df4       ??_C@_0BA@BPAPGBCM@spanish?9mexican?$AA@ 00448df4     LIBCMT:getqloc.obj
 0002:00005e04       ??_C@_0BB@PDECHHHE@spanish?9honduras?$AA@ 00448e04     LIBCMT:getqloc.obj
 0002:00005e18       ??_C@_0BC@KLHKFGDB@spanish?9guatemala?$AA@ 00448e18     LIBCMT:getqloc.obj
 0002:00005e2c       ??_C@_0BE@MFOOKJAI@spanish?9el?5salvador?$AA@ 00448e2c     LIBCMT:getqloc.obj
 0002:00005e40       ??_C@_0BA@FCOKFPFC@spanish?9ecuador?$AA@ 00448e40     LIBCMT:getqloc.obj
 0002:00005e50       ??_C@_0BL@PLMGIMOO@spanish?9dominican?5republic?$AA@ 00448e50     LIBCMT:getqloc.obj
 0002:00005e6c       ??_C@_0BD@HLGDNMHB@spanish?9costa?5rica?$AA@ 00448e6c     LIBCMT:getqloc.obj
 0002:00005e80       ??_C@_0BB@PKCBKCPE@spanish?9colombia?$AA@ 00448e80     LIBCMT:getqloc.obj
 0002:00005e94       ??_C@_0O@MCBIJGNE@spanish?9chile?$AA@ 00448e94     LIBCMT:getqloc.obj
 0002:00005ea4       ??_C@_0BA@BEFEIGJJ@spanish?9bolivia?$AA@ 00448ea4     LIBCMT:getqloc.obj
 0002:00005eb4       ??_C@_0BC@EMECMPD@spanish?9argentina?$AA@ 00448eb4     LIBCMT:getqloc.obj
 0002:00005ec8       ??_C@_0BF@EALFLENP@portuguese?9brazilian?$AA@ 00448ec8     LIBCMT:getqloc.obj
 0002:00005ee0       ??_C@_0BC@HBLEBLNN@norwegian?9nynorsk?$AA@ 00448ee0     LIBCMT:getqloc.obj
 0002:00005ef4       ??_C@_0BB@HMACDDCK@norwegian?9bokmal?$AA@ 00448ef4     LIBCMT:getqloc.obj
 0002:00005f08       ??_C@_09BAFFPPHE@norwegian?$AA@ 00448f08     LIBCMT:getqloc.obj
 0002:00005f14       ??_C@_0O@EAJFJDFG@italian?9swiss?$AA@ 00448f14     LIBCMT:getqloc.obj
 0002:00005f24       ??_C@_0O@CNOMPGD@irish?9english?$AA@ 00448f24     LIBCMT:getqloc.obj
 0002:00005f34       ??_C@_0N@EDHBGCKG@german?9swiss?$AA@ 00448f34     LIBCMT:getqloc.obj
 0002:00005f44       ??_C@_0BC@JACMHNBP@german?9luxembourg?$AA@ 00448f44     LIBCMT:getqloc.obj
 0002:00005f58       ??_C@_0BE@HBGMGFEG@german?9lichtenstein?$AA@ 00448f58     LIBCMT:getqloc.obj
 0002:00005f6c       ??_C@_0BA@HKKBIBKL@german?9austrian?$AA@ 00448f6c     LIBCMT:getqloc.obj
 0002:00005f7c       ??_C@_0N@GCAEPEBK@french?9swiss?$AA@ 00448f7c     LIBCMT:getqloc.obj
 0002:00005f8c       ??_C@_0BC@DJFJJCK@french?9luxembourg?$AA@ 00448f8c     LIBCMT:getqloc.obj
 0002:00005fa0       ??_C@_0BA@NNCEDFIC@french?9canadian?$AA@ 00448fa0     LIBCMT:getqloc.obj
 0002:00005fb0       ??_C@_0P@CMPOCLM@french?9belgian?$AA@ 00448fb0     LIBCMT:getqloc.obj
 0002:00005fc0       ??_C@_0M@GHHDJOK@english?9usa?$AA@ 00448fc0     LIBCMT:getqloc.obj
 0002:00005fcc       ??_C@_0L@PLDJKEIL@english?9us?$AA@ 00448fcc     LIBCMT:getqloc.obj
 0002:00005fd8       ??_C@_0L@HJCCDMNC@english?9uk?$AA@ 00448fd8     LIBCMT:getqloc.obj
 0002:00005fe4       ??_C@_0BK@CKLIAGJB@english?9trinidad?5y?5tobago?$AA@ 00448fe4     LIBCMT:getqloc.obj
 0002:00006000       ??_C@_0BF@JMJMGNNF@english?9south?5africa?$AA@ 00449000     LIBCMT:getqloc.obj
 0002:00006018       ??_C@_0L@DKIIFDFD@english?9nz?$AA@ 00449018     LIBCMT:getqloc.obj
 0002:00006024       ??_C@_0BA@ONHGJCLH@english?9jamaica?$AA@ 00449024     LIBCMT:getqloc.obj
 0002:00006034       ??_C@_0M@HJBGHOPO@english?9ire?$AA@ 00449034     LIBCMT:getqloc.obj
 0002:00006040       ??_C@_0BC@LFEKMIFB@english?9caribbean?$AA@ 00449040     LIBCMT:getqloc.obj
 0002:00006054       ??_C@_0M@OLDPFKHI@english?9can?$AA@ 00449054     LIBCMT:getqloc.obj
 0002:00006060       ??_C@_0P@OMDEHBMP@english?9belize?$AA@ 00449060     LIBCMT:getqloc.obj
 0002:00006070       ??_C@_0M@KFHFPFED@english?9aus?$AA@ 00449070     LIBCMT:getqloc.obj
 0002:0000607c       ??_C@_0BB@MNMBKDFE@english?9american?$AA@ 0044907c     LIBCMT:getqloc.obj
 0002:00006090       ??_C@_0O@KIDLNNBA@dutch?9belgian?$AA@ 00449090     LIBCMT:getqloc.obj
 0002:000060a0       ??_C@_0BE@JBKABBMH@chinese?9traditional?$AA@ 004490a0     LIBCMT:getqloc.obj
 0002:000060b4       ??_C@_0BC@MJJMPKCG@chinese?9singapore?$AA@ 004490b4     LIBCMT:getqloc.obj
 0002:000060c8       ??_C@_0BD@FDKADDCP@chinese?9simplified?$AA@ 004490c8     LIBCMT:getqloc.obj
 0002:000060dc       ??_C@_0BB@DBEFDDME@chinese?9hongkong?$AA@ 004490dc     LIBCMT:getqloc.obj
 0002:000060f0       ??_C@_07DHNMFMCI@chinese?$AA@ 004490f0     LIBCMT:getqloc.obj
 0002:000060f8       ??_C@_03FNDDCHI@chi?$AA@   004490f8     LIBCMT:getqloc.obj
 0002:000060fc       ??_C@_03BMMIADDJ@chh?$AA@  004490fc     LIBCMT:getqloc.obj
 0002:00006100       ??_C@_08OAIPJDGI@canadian?$AA@ 00449100     LIBCMT:getqloc.obj
 0002:0000610c       ??_C@_07HBPMNPNJ@belgian?$AA@ 0044910c     LIBCMT:getqloc.obj
 0002:00006114       ??_C@_0L@OEKOPBEL@australian?$AA@ 00449114     LIBCMT:getqloc.obj
 0002:00006120       ??_C@_0BB@MEIMBEDG@american?9english?$AA@ 00449120     LIBCMT:getqloc.obj
 0002:00006134       ??_C@_0BB@DFMDPDGB@american?5english?$AA@ 00449134     LIBCMT:getqloc.obj
 0002:00006148       ??_C@_08IJLOKOLL@american?$AA@ 00449148     LIBCMT:getqloc.obj
 0002:00006158       ___rg_language             00449158     LIBCMT:getqloc.obj
 0002:00006360       ___rg_country              00449360     LIBCMT:getqloc.obj
 0002:00006418       ___rglangidNotDefault      00449418     LIBCMT:getqloc.obj
 0002:0000642c       ??_C@_01GBGANLPD@0?$AA@    0044942c     LIBCMT:getqloc.obj
 0002:00006430       ??_C@_03NFKLAGEF@OCP?$AA@  00449430     LIBCMT:getqloc.obj
 0002:00006434       ??_C@_03DFHEHBHG@ACP?$AA@  00449434     LIBCMT:getqloc.obj
 0002:00006438       ??_C@_0BC@NFIEMBLL@Norwegian?9Nynorsk?$AA@ 00449438     LIBCMT:getqloc.obj
 0002:0000644c       ??_C@_0BK@CFCOFLF@?5Complete?5Object?5Locator?8?$AA@ 0044944c     LIBCMT:undname.obj
 0002:00006468       ??_C@_0BN@MECKDCOJ@?5Class?5Hierarchy?5Descriptor?8?$AA@ 00449468     LIBCMT:undname.obj
 0002:00006488       ??_C@_0BD@LGICGFMM@?5Base?5Class?5Array?8?$AA@ 00449488     LIBCMT:undname.obj
 0002:0000649c       ??_C@_0BM@LDKODKLH@?5Base?5Class?5Descriptor?5at?5?$CI?$AA@ 0044949c     LIBCMT:undname.obj
 0002:000064b8       ??_C@_0BC@DAFEJGAK@?5Type?5Descriptor?8?$AA@ 004494b8     LIBCMT:undname.obj
 0002:000064cc       ??_C@_0BM@PMGGMLDN@?$GAlocal?5static?5thread?5guard?8?$AA@ 004494cc     LIBCMT:undname.obj
 0002:000064e8       ??_C@_0CL@FGIJHLCE@?$GAmanaged?5vector?5copy?5constructor@ 004494e8     LIBCMT:undname.obj
 0002:00006514       ??_C@_0CJ@GJELGAMM@?$GAvector?5vbase?5copy?5constructor?5i@ 00449514     LIBCMT:undname.obj
 0002:00006540       ??_C@_0CD@CGAJBKEJ@?$GAvector?5copy?5constructor?5iterato@ 00449540     LIBCMT:undname.obj
 0002:00006564       ??_C@_0CB@PDBIFEP@?$GAdynamic?5atexit?5destructor?5for?5?8@ 00449564     LIBCMT:undname.obj
 0002:00006588       ??_C@_0BL@CLIPGLGB@?$GAdynamic?5initializer?5for?5?8?$AA@ 00449588     LIBCMT:undname.obj
 0002:000065a4       ??_C@_0CM@FCBBDIGB@?$GAeh?5vector?5vbase?5copy?5constructo@ 004495a4     LIBCMT:undname.obj
 0002:000065d0       ??_C@_0CG@HLDDJMAG@?$GAeh?5vector?5copy?5constructor?5iter@ 004495d0     LIBCMT:undname.obj
 0002:000065f8       ??_C@_0CF@IMGKMJNO@?$GAmanaged?5vector?5destructor?5itera@ 004495f8     LIBCMT:undname.obj
 0002:00006620       ??_C@_0CG@CFDHKGGD@?$GAmanaged?5vector?5constructor?5iter@ 00449620     LIBCMT:undname.obj
 0002:00006648       ??_C@_0BN@CKNJLHMB@?$GAplacement?5delete?$FL?$FN?5closure?8?$AA@ 00449648     LIBCMT:undname.obj
 0002:00006668       ??_C@_0BL@CNOONJFP@?$GAplacement?5delete?5closure?8?$AA@ 00449668     LIBCMT:undname.obj
 0002:00006684       ??_C@_0P@HJKNJFNN@?$GAomni?5callsig?8?$AA@ 00449684     LIBCMT:undname.obj
 0002:00006694       ??_C@_09LBNFPBCA@?5delete?$FL?$FN?$AA@ 00449694     LIBCMT:undname.obj
 0002:000066a0       ??_C@_06FHBGPFGH@?5new?$FL?$FN?$AA@ 004496a0     LIBCMT:undname.obj
 0002:000066a8       ??_C@_0CE@IIHCMGGL@?$GAlocal?5vftable?5constructor?5closu@ 004496a8     LIBCMT:undname.obj
 0002:000066cc       ??_C@_0BA@KKLDJDLB@?$GAlocal?5vftable?8?$AA@ 004496cc     LIBCMT:undname.obj
 0002:000066dc       ??_C@_05KHLCHHI@?$GARTTI?$AA@ 004496dc     LIBCMT:undname.obj
 0002:000066e4       ??_C@_03KLGMFNMG@?$GAEH?$AA@ 004496e4     LIBCMT:undname.obj
 0002:000066e8       ??_C@_0BA@KBCDOMBN@?$GAudt?5returning?8?$AA@ 004496e8     LIBCMT:undname.obj
 0002:000066f8       ??_C@_0BL@LLKPOHJI@?$GAcopy?5constructor?5closure?8?$AA@ 004496f8     LIBCMT:undname.obj
 0002:00006714       ??_C@_0CH@OOJPLCPH@?$GAeh?5vector?5vbase?5constructor?5ite@ 00449714     LIBCMT:undname.obj
 0002:0000673c       ??_C@_0CA@GCEOPDGL@?$GAeh?5vector?5destructor?5iterator?8?$AA@ 0044973c     LIBCMT:undname.obj
 0002:0000675c       ??_C@_0CB@JONCMFFK@?$GAeh?5vector?5constructor?5iterator?8@ 0044975c     LIBCMT:undname.obj
 0002:00006780       ??_C@_0BL@NILFHHPC@?$GAvirtual?5displacement?5map?8?$AA@ 00449780     LIBCMT:undname.obj
 0002:0000679c       ??_C@_0CE@IKBNEHA@?$GAvector?5vbase?5constructor?5iterat@ 0044979c     LIBCMT:undname.obj
 0002:000067c0       ??_C@_0BN@LFPFMEDL@?$GAvector?5destructor?5iterator?8?$AA@ 004497c0     LIBCMT:undname.obj
 0002:000067e0       ??_C@_0BO@PFGOCPJJ@?$GAvector?5constructor?5iterator?8?$AA@ 004497e0     LIBCMT:undname.obj
 0002:00006800       ??_C@_0BN@IMDCHIKM@?$GAscalar?5deleting?5destructor?8?$AA@ 00449800     LIBCMT:undname.obj
 0002:00006820       ??_C@_0BO@OBMKPJIG@?$GAdefault?5constructor?5closure?8?$AA@ 00449820     LIBCMT:undname.obj
 0002:00006840       ??_C@_0BN@DEGPLNFK@?$GAvector?5deleting?5destructor?8?$AA@ 00449840     LIBCMT:undname.obj
 0002:00006860       ??_C@_0BD@JDLKDPAB@?$GAvbase?5destructor?8?$AA@ 00449860     LIBCMT:undname.obj
 0002:00006874       ??_C@_08OBABFOLI@?$GAstring?8?$AA@ 00449874     LIBCMT:undname.obj
 0002:00006880       ??_C@_0BF@KDPPACIK@?$GAlocal?5static?5guard?8?$AA@ 00449880     LIBCMT:undname.obj
 0002:00006898       ??_C@_08LLFFHHDJ@?$GAtypeof?8?$AA@ 00449898     LIBCMT:undname.obj
 0002:000068a4       ??_C@_07FEEIOKP@?$GAvcall?8?$AA@ 004498a4     LIBCMT:undname.obj
 0002:000068ac       ??_C@_09BLBHBJP@?$GAvbtable?8?$AA@ 004498ac     LIBCMT:undname.obj
 0002:000068b8       ??_C@_09IFPLHPGF@?$GAvftable?8?$AA@ 004498b8     LIBCMT:undname.obj
 0002:000068c4       ??_C@_02MHEGNOJ@?$FO?$DN?$AA@ 004498c4     LIBCMT:undname.obj
 0002:000068c8       ??_C@_02DHLNPPGH@?$HM?$DN?$AA@ 004498c8     LIBCMT:undname.obj
 0002:000068cc       ??_C@_02FGJGFEAB@?$CG?$DN?$AA@ 004498cc     LIBCMT:undname.obj
 0002:000068d0       ??_C@_03CDNPDDLA@?$DM?$DM?$DN?$AA@ 004498d0     LIBCMT:undname.obj
 0002:000068d4       ??_C@_03IKFCCPFF@?$DO?$DO?$DN?$AA@ 004498d4     LIBCMT:undname.obj
 0002:000068d8       ??_C@_02FENAOKFI@?$CF?$DN?$AA@ 004498d8     LIBCMT:undname.obj
 0002:000068dc       ??_C@_02FJEHGPIO@?1?$DN?$AA@ 004498dc     LIBCMT:undname.obj
 0002:000068e0       ??_C@_02FKMDLLOA@?9?$DN?$AA@ 004498e0     LIBCMT:undname.obj
 0002:000068e4       ??_C@_02FOEOMHFC@?$CL?$DN?$AA@ 004498e4     LIBCMT:undname.obj
 0002:000068e8       ??_C@_02FPIMKNGF@?$CK?$DN?$AA@ 004498e8     LIBCMT:undname.obj
 0002:000068ec       ??_C@_02NONPIBCD@?$HM?$HM?$AA@ 004498ec     LIBCMT:undname.obj
 0002:000068f0       ??_C@_02PPKAJPJL@?$CG?$CG?$AA@ 004498f0     LIBCMT:undname.obj
 0002:000068f4       ??_C@_01DNKMNLPK@?$HM?$AA@ 004498f4     LIBCMT:undname.obj
 0002:000068f8       ??_C@_01JKBOJNNK@?$FO?$AA@ 004498f8     LIBCMT:undname.obj
 0002:000068fc       ??_C@_01PJKLJHI@?$HO?$AA@  004498fc     LIBCMT:undname.obj
 0002:00006900       ??_C@_02HCKGKOFO@?$CI?$CJ?$AA@ 00449900     LIBCMT:undname.obj
 0002:00006904       ??_C@_01IHBHIGKO@?0?$AA@   00449904     LIBCMT:undname.obj
 0002:00006908       ??_C@_02EEKDKGMJ@?$DO?$DN?$AA@ 00449908     LIBCMT:undname.obj
 0002:0000690c       ??_C@_01PPODPGHN@?$DO?$AA@ 0044990c     LIBCMT:undname.obj
 0002:00006910       ??_C@_02EHCHHCKH@?$DM?$DN?$AA@ 00449910     LIBCMT:undname.obj
 0002:00006914       ??_C@_01MNNFJEPP@?$DM?$AA@ 00449914     LIBCMT:undname.obj
 0002:00006918       ??_C@_01FGNFDNOH@?$CF?$AA@ 00449918     LIBCMT:undname.obj
 0002:0000691c       ??_C@_01KMDKNFGN@?1?$AA@   0044991c     LIBCMT:undname.obj
 0002:00006920       ??_C@_03MNHNFDLC@?9?$DO?$CK?$AA@ 00449920     LIBCMT:undname.obj
 0002:00006924       ??_C@_01HNPIGOCE@?$CG?$AA@ 00449924     LIBCMT:undname.obj
 0002:00006928       ??_C@_01MIFGBAGJ@?$CL?$AA@ 00449928     LIBCMT:undname.obj
 0002:0000692c       ??_C@_02BAABKJLB@?9?9?$AA@ 0044992c     LIBCMT:undname.obj
 0002:00006930       ??_C@_02ECNGHCIF@?$CL?$CL?$AA@ 00449930     LIBCMT:undname.obj
 0002:00006934       ??_C@_02HBOOOICD@?9?$DO?$AA@ 00449934     LIBCMT:undname.obj
 0002:00006938       ??_C@_08LHJFAFGD@operator?$AA@ 00449938     LIBCMT:undname.obj
 0002:00006944       ??_C@_02GPECMEKF@?$FL?$FN?$AA@ 00449944     LIBCMT:undname.obj
 0002:00006948       ??_C@_02FDNJECIE@?$CB?$DN?$AA@ 00449948     LIBCMT:undname.obj
 0002:0000694c       ??_C@_02EGOFBIJA@?$DN?$DN?$AA@ 0044994c     LIBCMT:undname.obj
 0002:00006950       ??_C@_01DCLJPIOD@?$CB?$AA@ 00449950     LIBCMT:undname.obj
 0002:00006954       ??_C@_02FODMEDOG@?$DM?$DM?$AA@ 00449954     LIBCMT:undname.obj
 0002:00006958       ??_C@_02GPIOPFAK@?$DO?$DO?$AA@ 00449958     LIBCMT:undname.obj
 0002:0000695c       ??_C@_07FPCDHGMM@?5delete?$AA@ 0044995c     LIBCMT:undname.obj
 0002:00006964       ??_C@_04NIHEBCM@?5new?$AA@ 00449964     LIBCMT:undname.obj
 0002:0000696c       ??_C@_0M@GFIIJFMG@__unaligned?$AA@ 0044996c     LIBCMT:undname.obj
 0002:00006978       ??_C@_0L@PILCLIHE@__restrict?$AA@ 00449978     LIBCMT:undname.obj
 0002:00006984       ??_C@_07JOMMBBKO@__ptr64?$AA@ 00449984     LIBCMT:undname.obj
 0002:0000698c       ??_C@_09HIJEGCPM@__clrcall?$AA@ 0044998c     LIBCMT:undname.obj
 0002:00006998       ??_C@_0L@JMKHOMEK@__fastcall?$AA@ 00449998     LIBCMT:undname.obj
 0002:000069a4       ??_C@_0L@NPHFGOKO@__thiscall?$AA@ 004499a4     LIBCMT:undname.obj
 0002:000069b0       ??_C@_09IFJBGAPI@__stdcall?$AA@ 004499b0     LIBCMT:undname.obj
 0002:000069bc       ??_C@_08GHMPAG@__pascal?$AA@ 004499bc     LIBCMT:undname.obj
 0002:000069c8       ??_C@_07KOLFKCDI@__cdecl?$AA@ 004499c8     LIBCMT:undname.obj
 0002:000069d0       ??_C@_08EHJDFFNH@__based?$CI?$AA@ 004499d0     LIBCMT:undname.obj
 0002:00006b60       ??_C@_0BI@DFKBFLJE@GetProcessWindowStation?$AA@ 00449b60     LIBCMT:crtmbox.obj
 0002:00006b78       ??_C@_0BK@CIDNPOGP@GetUserObjectInformationA?$AA@ 00449b78     LIBCMT:crtmbox.obj
 0002:00006b94       ??_C@_0BD@HHGDFDBJ@GetLastActivePopup?$AA@ 00449b94     LIBCMT:crtmbox.obj
 0002:00006ba8       ??_C@_0BA@HNOPNCHB@GetActiveWindow?$AA@ 00449ba8     LIBCMT:crtmbox.obj
 0002:00006bb8       ??_C@_0M@CHKKJDAI@MessageBoxA?$AA@ 00449bb8     LIBCMT:crtmbox.obj
 0002:00006bc4       ??_C@_0L@NDEGIDAG@USER32?4DLL?$AA@ 00449bc4     LIBCMT:crtmbox.obj
 0002:00006bd0       ___lookuptable_s           00449bd0     LIBCMT:outputs.obj
 0002:00006c2c       ??_C@_02CLFPBFFP@TZ?$AA@   00449c2c     LIBCMT:tzset.obj
 0002:00006c30       ___dnames                  00449c30     LIBCMT:timeset.obj
 0002:00006c48       ___mnames                  00449c48     LIBCMT:timeset.obj
 0002:00006c70       ??_C@_0L@KDOEJCKC@_nextafter?$AA@ 00449c70     LIBCMT:_fpexcept_.obj
 0002:00006c7c       ??_C@_05JGDBENOH@_logb?$AA@ 00449c7c     LIBCMT:_fpexcept_.obj
 0002:00006c84       ??_C@_03ONILCKOB@_yn?$AA@  00449c84     LIBCMT:_fpexcept_.obj
 0002:00006c88       ??_C@_03NAKIGLHK@_y1?$AA@  00449c88     LIBCMT:_fpexcept_.obj
 0002:00006c8c       ??_C@_03MJLDFKDL@_y0?$AA@  00449c8c     LIBCMT:_fpexcept_.obj
 0002:00006c90       ??_C@_05GKKHEGJL@frexp?$AA@ 00449c90     LIBCMT:_fpexcept_.obj
 0002:00006c98       ??_C@_04KEPJIHGP@fmod?$AA@ 00449c98     LIBCMT:_fpexcept_.obj
 0002:00006ca0       ??_C@_06MEIMCGCF@_hypot?$AA@ 00449ca0     LIBCMT:_fpexcept_.obj
 0002:00006ca8       ??_C@_05KBKMEMPO@_cabs?$AA@ 00449ca8     LIBCMT:_fpexcept_.obj
 0002:00006cb0       ??_C@_05CEJMAHNP@ldexp?$AA@ 00449cb0     LIBCMT:_fpexcept_.obj
 0002:00006cb8       ??_C@_04ODHECPBC@fabs?$AA@ 00449cb8     LIBCMT:_fpexcept_.obj
 0002:00006cc0       ??_C@_04EIAKFFMI@sqrt?$AA@ 00449cc0     LIBCMT:_fpexcept_.obj
 0002:00006cc8       ??_C@_05KNGEOGJB@atan2?$AA@ 00449cc8     LIBCMT:_fpexcept_.obj
 0002:00006cd0       ??_C@_04FJHINJAO@tanh?$AA@ 00449cd0     LIBCMT:_fpexcept_.obj
 0002:00006cd8       ??_C@_04HPJJNFIM@cosh?$AA@ 00449cd8     LIBCMT:_fpexcept_.obj
 0002:00006ce0       ??_C@_04COOMCNPB@sinh?$AA@ 00449ce0     LIBCMT:_fpexcept_.obj
 0002:00006ce8       ??_C@_06IMKFLFPG@1?$CDQNAN?$AA@ 00449ce8     LIBCMT:_x10fout_.obj
 0002:00006cf0       ??_C@_05DNEBIAHO@1?$CDINF?$AA@ 00449cf0     LIBCMT:_x10fout_.obj
 0002:00006cf8       ??_C@_05PHHOCPM@1?$CDIND?$AA@ 00449cf8     LIBCMT:_x10fout_.obj
 0002:00006d00       ??_C@_06PGGFOGJG@1?$CDSNAN?$AA@ 00449d00     LIBCMT:_x10fout_.obj
 0002:00006d08       ??_C@_07GPDNMNG@CONOUT$?$AA@ 00449d08     LIBCMT:initcon.obj
 0002:00006d10       __load_config_used         00449d10     LIBCMT:loadcfg.obj
 0002:00006d58       ??_R4_com_error@@6B@       00449d58     ComSetup.obj
 0002:00006d6c       ??_R3_com_error@@8         00449d6c     ComSetup.obj
 0002:00006d7c       ??_R2_com_error@@8         00449d7c     ComSetup.obj
 0002:00006d84       ??_R1A@?0A@EA@_com_error@@8 00449d84     ComSetup.obj
 0002:00006da0       ??_R4CRegObject@ATL@@6B@   00449da0     ComSetup.obj
 0002:00006db4       ??_R3CRegObject@ATL@@8     00449db4     ComSetup.obj
 0002:00006dc4       ??_R2CRegObject@ATL@@8     00449dc4     ComSetup.obj
 0002:00006dd4       ??_R1A@?0A@EA@CRegObject@ATL@@8 00449dd4     ComSetup.obj
 0002:00006df0       ??_R1A@?0A@EA@IRegistrarBase@@8 00449df0     ComSetup.obj
 0002:00006e0c       ??_R3IRegistrarBase@@8     00449e0c     ComSetup.obj
 0002:00006e1c       ??_R2IRegistrarBase@@8     00449e1c     ComSetup.obj
 0002:00006e28       ??_R1A@?0A@EA@IUnknown@@8  00449e28     ComSetup.obj
 0002:00006e44       ??_R3IUnknown@@8           00449e44     ComSetup.obj
 0002:00006e54       ??_R2IUnknown@@8           00449e54     ComSetup.obj
 0002:00006e5c       ??_R4bad_alloc@std@@6B@    00449e5c     Setup.obj
 0002:00006e70       ??_R3bad_alloc@std@@8      00449e70     Setup.obj
 0002:00006e80       ??_R2bad_alloc@std@@8      00449e80     Setup.obj
 0002:00006e8c       ??_R1A@?0A@EA@bad_alloc@std@@8 00449e8c     Setup.obj
 0002:00006ea8       ??_R1A@?0A@EA@exception@std@@8 00449ea8     Setup.obj
 0002:00006ec4       ??_R3exception@std@@8      00449ec4     Setup.obj
 0002:00006ed4       ??_R2exception@std@@8      00449ed4     Setup.obj
 0002:00006edc       ??_R4facet@locale@std@@6B@ 00449edc     BootEncryption.obj
 0002:00006ef0       ??_R3facet@locale@std@@8   00449ef0     BootEncryption.obj
 0002:00006f00       ??_R2facet@locale@std@@8   00449f00     BootEncryption.obj
 0002:00006f08       ??_R1A@?0A@EA@facet@locale@std@@8 00449f08     BootEncryption.obj
 0002:00006f24       ??_R3ctype_base@std@@8     00449f24     BootEncryption.obj
 0002:00006f34       ??_R2ctype_base@std@@8     00449f34     BootEncryption.obj
 0002:00006f40       ??_R1A@?0A@EA@ctype_base@std@@8 00449f40     BootEncryption.obj
 0002:00006f5c       ??_R4ios_base@std@@6B@     00449f5c     BootEncryption.obj
 0002:00006f70       ??_R3ios_base@std@@8       00449f70     BootEncryption.obj
 0002:00006f80       ??_R2ios_base@std@@8       00449f80     BootEncryption.obj
 0002:00006f8c       ??_R1A@?0A@EA@ios_base@std@@8 00449f8c     BootEncryption.obj
 0002:00006fa8       ??_R13?0A@EA@?$_Iosb@H@std@@8 00449fa8     BootEncryption.obj
 0002:00006fc4       ??_R3?$_Iosb@H@std@@8      00449fc4     BootEncryption.obj
 0002:00006fd4       ??_R2?$_Iosb@H@std@@8      00449fd4     BootEncryption.obj
 0002:00006fdc       ??_R1A@?0A@EA@?$_Iosb@H@std@@8 00449fdc     BootEncryption.obj
 0002:00006ff8       ??_R4Container@ForEach@CipherShed@@6B@ 00449ff8     BootEncryption.obj
 0002:0000700c       ??_R3Container@ForEach@CipherShed@@8 0044a00c     BootEncryption.obj
 0002:0000701c       ??_R2Container@ForEach@CipherShed@@8 0044a01c     BootEncryption.obj
 0002:00007024       ??_R1A@?0A@EA@Container@ForEach@CipherShed@@8 0044a024     BootEncryption.obj
 0002:00007040       ??_R4Exception@CipherShed@@6B@ 0044a040     BootEncryption.obj
 0002:00007054       ??_R3Exception@CipherShed@@8 0044a054     BootEncryption.obj
 0002:00007064       ??_R2Exception@CipherShed@@8 0044a064     BootEncryption.obj
 0002:0000706c       ??_R1A@?0A@EA@Exception@CipherShed@@8 0044a06c     BootEncryption.obj
 0002:00007088       ??_R4ParameterIncorrect@CipherShed@@6B@ 0044a088     BootEncryption.obj
 0002:0000709c       ??_R3ParameterIncorrect@CipherShed@@8 0044a09c     BootEncryption.obj
 0002:000070ac       ??_R2ParameterIncorrect@CipherShed@@8 0044a0ac     BootEncryption.obj
 0002:000070b8       ??_R1A@?0A@EA@ParameterIncorrect@CipherShed@@8 0044a0b8     BootEncryption.obj
 0002:000070d4       ??_R4?$basic_ostream@DU?$char_traits@D@std@@@std@@6B@ 0044a0d4     BootEncryption.obj
 0002:000070e8       ??_R3?$basic_ostream@DU?$char_traits@D@std@@@std@@8 0044a0e8     BootEncryption.obj
 0002:000070f8       ??_R2?$basic_ostream@DU?$char_traits@D@std@@@std@@8 0044a0f8     BootEncryption.obj
 0002:0000710c       ??_R1A@?0A@EA@?$basic_ostream@DU?$char_traits@D@std@@@std@@8 0044a10c     BootEncryption.obj
 0002:00007128       ??_R1A@A@3FA@?$basic_ios@DU?$char_traits@D@std@@@std@@8 0044a128     BootEncryption.obj
 0002:00007144       ??_R3?$basic_ios@DU?$char_traits@D@std@@@std@@8 0044a144     BootEncryption.obj
 0002:00007154       ??_R2?$basic_ios@DU?$char_traits@D@std@@@std@@8 0044a154     BootEncryption.obj
 0002:00007164       ??_R1A@?0A@EA@?$basic_ios@DU?$char_traits@D@std@@@std@@8 0044a164     BootEncryption.obj
 0002:00007180       ??_R1A@A@3EA@ios_base@std@@8 0044a180     BootEncryption.obj
 0002:0000719c       ??_R13A@3EA@?$_Iosb@H@std@@8 0044a19c     BootEncryption.obj
 0002:000071b8       ??_R4?$basic_ostream@_WU?$char_traits@_W@std@@@std@@6B@ 0044a1b8     BootEncryption.obj
 0002:000071cc       ??_R3?$basic_ostream@_WU?$char_traits@_W@std@@@std@@8 0044a1cc     BootEncryption.obj
 0002:000071dc       ??_R2?$basic_ostream@_WU?$char_traits@_W@std@@@std@@8 0044a1dc     BootEncryption.obj
 0002:000071f0       ??_R1A@?0A@EA@?$basic_ostream@_WU?$char_traits@_W@std@@@std@@8 0044a1f0     BootEncryption.obj
 0002:0000720c       ??_R1A@A@3FA@?$basic_ios@_WU?$char_traits@_W@std@@@std@@8 0044a20c     BootEncryption.obj
 0002:00007228       ??_R3?$basic_ios@_WU?$char_traits@_W@std@@@std@@8 0044a228     BootEncryption.obj
 0002:00007238       ??_R2?$basic_ios@_WU?$char_traits@_W@std@@@std@@8 0044a238     BootEncryption.obj
 0002:00007248       ??_R1A@?0A@EA@?$basic_ios@_WU?$char_traits@_W@std@@@std@@8 0044a248     BootEncryption.obj
 0002:00007264       ??_R4?$basic_istream@DU?$char_traits@D@std@@@std@@6B@ 0044a264     BootEncryption.obj
 0002:00007278       ??_R3?$basic_istream@DU?$char_traits@D@std@@@std@@8 0044a278     BootEncryption.obj
 0002:00007288       ??_R2?$basic_istream@DU?$char_traits@D@std@@@std@@8 0044a288     BootEncryption.obj
 0002:0000729c       ??_R1A@?0A@EA@?$basic_istream@DU?$char_traits@D@std@@@std@@8 0044a29c     BootEncryption.obj
 0002:000072b8       ??_R4?$basic_istream@_WU?$char_traits@_W@std@@@std@@6B@ 0044a2b8     BootEncryption.obj
 0002:000072cc       ??_R3?$basic_istream@_WU?$char_traits@_W@std@@@std@@8 0044a2cc     BootEncryption.obj
 0002:000072dc       ??_R2?$basic_istream@_WU?$char_traits@_W@std@@@std@@8 0044a2dc     BootEncryption.obj
 0002:000072f0       ??_R1A@?0A@EA@?$basic_istream@_WU?$char_traits@_W@std@@@std@@8 0044a2f0     BootEncryption.obj
 0002:0000730c       ??_R4?$basic_iostream@DU?$char_traits@D@std@@@std@@6B@ 0044a30c     BootEncryption.obj
 0002:00007320       ??_R3?$basic_iostream@DU?$char_traits@D@std@@@std@@8 0044a320     BootEncryption.obj
 0002:00007330       ??_R2?$basic_iostream@DU?$char_traits@D@std@@@std@@8 0044a330     BootEncryption.obj
 0002:00007358       ??_R1A@?0A@EA@?$basic_iostream@DU?$char_traits@D@std@@@std@@8 0044a358     BootEncryption.obj
 0002:00007374       ??_R17?0A@EA@?$basic_ostream@DU?$char_traits@D@std@@@std@@8 0044a374     BootEncryption.obj
 0002:00007390       ??_R4?$basic_iostream@_WU?$char_traits@_W@std@@@std@@6B@ 0044a390     BootEncryption.obj
 0002:000073a4       ??_R3?$basic_iostream@_WU?$char_traits@_W@std@@@std@@8 0044a3a4     BootEncryption.obj
 0002:000073b4       ??_R2?$basic_iostream@_WU?$char_traits@_W@std@@@std@@8 0044a3b4     BootEncryption.obj
 0002:000073dc       ??_R1A@?0A@EA@?$basic_iostream@_WU?$char_traits@_W@std@@@std@@8 0044a3dc     BootEncryption.obj
 0002:000073f8       ??_R17?0A@EA@?$basic_ostream@_WU?$char_traits@_W@std@@@std@@8 0044a3f8     BootEncryption.obj
 0002:00007414       ??_R4?$basic_ios@DU?$char_traits@D@std@@@std@@6B@ 0044a414     BootEncryption.obj
 0002:00007428       ??_R4?$basic_ios@_WU?$char_traits@_W@std@@@std@@6B@ 0044a428     BootEncryption.obj
 0002:0000743c       ??_R4?$ctype@D@std@@6B@    0044a43c     BootEncryption.obj
 0002:00007450       ??_R3?$ctype@D@std@@8      0044a450     BootEncryption.obj
 0002:00007460       ??_R2?$ctype@D@std@@8      0044a460     BootEncryption.obj
 0002:00007470       ??_R1A@?0A@EA@?$ctype@D@std@@8 0044a470     BootEncryption.obj
 0002:0000748c       ??_R4?$ctype@_W@std@@6B@   0044a48c     BootEncryption.obj
 0002:000074a0       ??_R3?$ctype@_W@std@@8     0044a4a0     BootEncryption.obj
 0002:000074b0       ??_R2?$ctype@_W@std@@8     0044a4b0     BootEncryption.obj
 0002:000074c0       ??_R1A@?0A@EA@?$ctype@_W@std@@8 0044a4c0     BootEncryption.obj
 0002:000074dc       ??_R4SystemException@CipherShed@@6B@ 0044a4dc     BootEncryption.obj
 0002:000074f0       ??_R3SystemException@CipherShed@@8 0044a4f0     BootEncryption.obj
 0002:00007500       ??_R2SystemException@CipherShed@@8 0044a500     BootEncryption.obj
 0002:0000750c       ??_R1A@?0A@EA@SystemException@CipherShed@@8 0044a50c     BootEncryption.obj
 0002:00007528       ??_R4?$basic_streambuf@DU?$char_traits@D@std@@@std@@6B@ 0044a528     BootEncryption.obj
 0002:0000753c       ??_R3?$basic_streambuf@DU?$char_traits@D@std@@@std@@8 0044a53c     BootEncryption.obj
 0002:0000754c       ??_R2?$basic_streambuf@DU?$char_traits@D@std@@@std@@8 0044a54c     BootEncryption.obj
 0002:00007554       ??_R1A@?0A@EA@?$basic_streambuf@DU?$char_traits@D@std@@@std@@8 0044a554     BootEncryption.obj
 0002:00007570       ??_R4?$basic_streambuf@_WU?$char_traits@_W@std@@@std@@6B@ 0044a570     BootEncryption.obj
 0002:00007584       ??_R3?$basic_streambuf@_WU?$char_traits@_W@std@@@std@@8 0044a584     BootEncryption.obj
 0002:00007594       ??_R2?$basic_streambuf@_WU?$char_traits@_W@std@@@std@@8 0044a594     BootEncryption.obj
 0002:0000759c       ??_R1A@?0A@EA@?$basic_streambuf@_WU?$char_traits@_W@std@@@std@@8 0044a59c     BootEncryption.obj
 0002:000075b8       ??_R4?$basic_stringbuf@DU?$char_traits@D@std@@V?$allocator@D@2@@std@@6B@ 0044a5b8     BootEncryption.obj
 0002:000075cc       ??_R3?$basic_stringbuf@DU?$char_traits@D@std@@V?$allocator@D@2@@std@@8 0044a5cc     BootEncryption.obj
 0002:000075dc       ??_R2?$basic_stringbuf@DU?$char_traits@D@std@@V?$allocator@D@2@@std@@8 0044a5dc     BootEncryption.obj
 0002:000075e8       ??_R1A@?0A@EA@?$basic_stringbuf@DU?$char_traits@D@std@@V?$allocator@D@2@@std@@8 0044a5e8     BootEncryption.obj
 0002:00007604       ??_R4?$basic_stringbuf@_WU?$char_traits@_W@std@@V?$allocator@_W@2@@std@@6B@ 0044a604     BootEncryption.obj
 0002:00007618       ??_R3?$basic_stringbuf@_WU?$char_traits@_W@std@@V?$allocator@_W@2@@std@@8 0044a618     BootEncryption.obj
 0002:00007628       ??_R2?$basic_stringbuf@_WU?$char_traits@_W@std@@V?$allocator@_W@2@@std@@8 0044a628     BootEncryption.obj
 0002:00007634       ??_R1A@?0A@EA@?$basic_stringbuf@_WU?$char_traits@_W@std@@V?$allocator@_W@2@@std@@8 0044a634     BootEncryption.obj
 0002:00007650       ??_R4?$num_put@DV?$ostreambuf_iterator@DU?$char_traits@D@std@@@std@@@std@@6B@ 0044a650     BootEncryption.obj
 0002:00007664       ??_R3?$num_put@DV?$ostreambuf_iterator@DU?$char_traits@D@std@@@std@@@std@@8 0044a664     BootEncryption.obj
 0002:00007674       ??_R2?$num_put@DV?$ostreambuf_iterator@DU?$char_traits@D@std@@@std@@@std@@8 0044a674     BootEncryption.obj
 0002:00007680       ??_R1A@?0A@EA@?$num_put@DV?$ostreambuf_iterator@DU?$char_traits@D@std@@@std@@@std@@8 0044a680     BootEncryption.obj
 0002:0000769c       ??_R4?$basic_stringstream@DU?$char_traits@D@std@@V?$allocator@D@2@@std@@6B@ 0044a69c     BootEncryption.obj
 0002:000076b0       ??_R3?$basic_stringstream@DU?$char_traits@D@std@@V?$allocator@D@2@@std@@8 0044a6b0     BootEncryption.obj
 0002:000076c0       ??_R2?$basic_stringstream@DU?$char_traits@D@std@@V?$allocator@D@2@@std@@8 0044a6c0     BootEncryption.obj
 0002:000076ec       ??_R1A@?0A@EA@?$basic_stringstream@DU?$char_traits@D@std@@V?$allocator@D@2@@std@@8 0044a6ec     BootEncryption.obj
 0002:00007708       ??_R4?$basic_stringstream@_WU?$char_traits@_W@std@@V?$allocator@_W@2@@std@@6B@ 0044a708     BootEncryption.obj
 0002:0000771c       ??_R3?$basic_stringstream@_WU?$char_traits@_W@std@@V?$allocator@_W@2@@std@@8 0044a71c     BootEncryption.obj
 0002:0000772c       ??_R2?$basic_stringstream@_WU?$char_traits@_W@std@@V?$allocator@_W@2@@std@@8 0044a72c     BootEncryption.obj
 0002:00007758       ??_R1A@?0A@EA@?$basic_stringstream@_WU?$char_traits@_W@std@@V?$allocator@_W@2@@std@@8 0044a758     BootEncryption.obj
 0002:00007774       ??_R4?$numpunct@D@std@@6B@ 0044a774     BootEncryption.obj
 0002:00007788       ??_R3?$numpunct@D@std@@8   0044a788     BootEncryption.obj
 0002:00007798       ??_R2?$numpunct@D@std@@8   0044a798     BootEncryption.obj
 0002:000077a4       ??_R1A@?0A@EA@?$numpunct@D@std@@8 0044a7a4     BootEncryption.obj
 0002:000077c0       ??_R4logic_error@std@@6B@  0044a7c0     BootEncryption.obj
 0002:000077d4       ??_R3logic_error@std@@8    0044a7d4     BootEncryption.obj
 0002:000077e4       ??_R2logic_error@std@@8    0044a7e4     BootEncryption.obj
 0002:000077f0       ??_R1A@?0A@EA@logic_error@std@@8 0044a7f0     BootEncryption.obj
 0002:0000780c       ??_R4runtime_error@std@@6B@ 0044a80c     BootEncryption.obj
 0002:00007820       ??_R3runtime_error@std@@8  0044a820     BootEncryption.obj
 0002:00007830       ??_R2runtime_error@std@@8  0044a830     BootEncryption.obj
 0002:0000783c       ??_R1A@?0A@EA@runtime_error@std@@8 0044a83c     BootEncryption.obj
 0002:00007858       ??_R4ErrorException@CipherShed@@6B@ 0044a858     BootEncryption.obj
 0002:0000786c       ??_R3ErrorException@CipherShed@@8 0044a86c     BootEncryption.obj
 0002:0000787c       ??_R2ErrorException@CipherShed@@8 0044a87c     BootEncryption.obj
 0002:00007888       ??_R1A@?0A@EA@ErrorException@CipherShed@@8 0044a888     BootEncryption.obj
 0002:000078a4       ??_R4length_error@std@@6B@ 0044a8a4     BootEncryption.obj
 0002:000078b8       ??_R3length_error@std@@8   0044a8b8     BootEncryption.obj
 0002:000078c8       ??_R2length_error@std@@8   0044a8c8     BootEncryption.obj
 0002:000078d8       ??_R1A@?0A@EA@length_error@std@@8 0044a8d8     BootEncryption.obj
 0002:000078f4       ??_R4failure@ios_base@std@@6B@ 0044a8f4     BootEncryption.obj
 0002:00007908       ??_R3failure@ios_base@std@@8 0044a908     BootEncryption.obj
 0002:00007918       ??_R2failure@ios_base@std@@8 0044a918     BootEncryption.obj
 0002:00007928       ??_R1A@?0A@EA@failure@ios_base@std@@8 0044a928     BootEncryption.obj
 0002:00007944       ??_R4?$ContainerForward@V?$list@UPartition@CipherShed@@V?$allocator@UPartition@CipherShed@@@std@@@std@@@ForEach@CipherShed@@6B@ 0044a944     BootEncryption.obj
 0002:00007958       ??_R3?$ContainerForward@V?$list@UPartition@CipherShed@@V?$allocator@UPartition@CipherShed@@@std@@@std@@@ForEach@CipherShed@@8 0044a958     BootEncryption.obj
 0002:00007968       ??_R2?$ContainerForward@V?$list@UPartition@CipherShed@@V?$allocator@UPartition@CipherShed@@@std@@@std@@@ForEach@CipherShed@@8 0044a968     BootEncryption.obj
 0002:00007974       ??_R1A@?0A@EA@?$ContainerForward@V?$list@UPartition@CipherShed@@V?$allocator@UPartition@CipherShed@@@std@@@std@@@ForEach@CipherShed@@8 0044a974     BootEncryption.obj
 0002:00007990       ??_R4out_of_range@std@@6B@ 0044a990     Dictionary.obj
 0002:000079a4       ??_R3out_of_range@std@@8   0044a9a4     Dictionary.obj
 0002:000079b4       ??_R2out_of_range@std@@8   0044a9b4     Dictionary.obj
 0002:000079c4       ??_R1A@?0A@EA@out_of_range@std@@8 0044a9c4     Dictionary.obj
 0002:000079e0       ??_R4?$ContainerForward@V?$list@KV?$allocator@K@std@@@std@@@ForEach@CipherShed@@6B@ 0044a9e0     Dlgcode.obj
 0002:000079f4       ??_R3?$ContainerForward@V?$list@KV?$allocator@K@std@@@std@@@ForEach@CipherShed@@8 0044a9f4     Dlgcode.obj
 0002:00007a04       ??_R2?$ContainerForward@V?$list@KV?$allocator@K@std@@@std@@@ForEach@CipherShed@@8 0044aa04     Dlgcode.obj
 0002:00007a10       ??_R1A@?0A@EA@?$ContainerForward@V?$list@KV?$allocator@K@std@@@std@@@ForEach@CipherShed@@8 0044aa10     Dlgcode.obj
 0002:00007a2c       ??_R4?$ContainerForward@V?$basic_string@DU?$char_traits@D@std@@V?$allocator@D@2@@std@@@ForEach@CipherShed@@6B@ 0044aa2c     csstringutil.obj
 0002:00007a40       ??_R3?$ContainerForward@V?$basic_string@DU?$char_traits@D@std@@V?$allocator@D@2@@std@@@ForEach@CipherShed@@8 0044aa40     csstringutil.obj
 0002:00007a50       ??_R2?$ContainerForward@V?$basic_string@DU?$char_traits@D@std@@V?$allocator@D@2@@std@@@ForEach@CipherShed@@8 0044aa50     csstringutil.obj
 0002:00007a5c       ??_R1A@?0A@EA@?$ContainerForward@V?$basic_string@DU?$char_traits@D@std@@V?$allocator@D@2@@std@@@ForEach@CipherShed@@8 0044aa5c     csstringutil.obj
 0002:00007a78       ??_R4_Locimp@locale@std@@6B@ 0044aa78     libcpmt:locale0.obj
 0002:00007a8c       ??_R3_Locimp@locale@std@@8 0044aa8c     libcpmt:locale0.obj
 0002:00007a9c       ??_R2_Locimp@locale@std@@8 0044aa9c     libcpmt:locale0.obj
 0002:00007aa8       ??_R1A@?0A@EA@_Locimp@locale@std@@8 0044aaa8     libcpmt:locale0.obj
 0002:00007ac4       ??_R4type_info@@6B@        0044aac4     LIBCMT:typinfo.obj
 0002:00007ad8       ??_R3type_info@@8          0044aad8     LIBCMT:typinfo.obj
 0002:00007ae8       ??_R2type_info@@8          0044aae8     LIBCMT:typinfo.obj
 0002:00007af0       ??_R1A@?0A@EA@type_info@@8 0044aaf0     LIBCMT:typinfo.obj
 0002:00007b0c       ??_R4exception@std@@6B@    0044ab0c     LIBCMT:stdexcpt.obj
 0002:00007b20       ??_R4bad_cast@std@@6B@     0044ab20     LIBCMT:stdexcpt.obj
 0002:00007b34       ??_R3bad_cast@std@@8       0044ab34     LIBCMT:stdexcpt.obj
 0002:00007b44       ??_R2bad_cast@std@@8       0044ab44     LIBCMT:stdexcpt.obj
 0002:00007b50       ??_R1A@?0A@EA@bad_cast@std@@8 0044ab50     LIBCMT:stdexcpt.obj
 0002:00007b6c       ??_R4bad_exception@std@@6B@ 0044ab6c     LIBCMT:frame.obj
 0002:00007b80       ??_R3bad_exception@std@@8  0044ab80     LIBCMT:frame.obj
 0002:00007b90       ??_R2bad_exception@std@@8  0044ab90     LIBCMT:frame.obj
 0002:00007b9c       ??_R1A@?0A@EA@bad_exception@std@@8 0044ab9c     LIBCMT:frame.obj
 0002:00007bc0       ___safe_se_handler_table   0044abc0     <linker-defined>
 0002:00007d3c       ___rtc_iaa                 0044ad3c     LIBCMT:_initsect_.obj
 0002:00007d40       ___rtc_izz                 0044ad40     LIBCMT:_initsect_.obj
 0002:00007d44       ___rtc_taa                 0044ad44     LIBCMT:_initsect_.obj
 0002:00007d48       ___rtc_tzz                 0044ad48     LIBCMT:_initsect_.obj
 0002:00007d50       __TI1?AVCAtlException@ATL@@ 0044ad50     ComSetup.obj
 0002:00007d60       __CTA1?AVCAtlException@ATL@@ 0044ad60     ComSetup.obj
 0002:00007d68       __CT??_R0?AVCAtlException@ATL@@@84 0044ad68     ComSetup.obj
 0002:000082c0       __TI2?AVbad_alloc@std@@    0044b2c0     Setup.obj
 0002:000082d0       __CTA2?AVbad_alloc@std@@   0044b2d0     Setup.obj
 0002:000082dc       __CT??_R0?AVbad_alloc@std@@@8??0bad_alloc@std@@QAE@ABV01@@Z12 0044b2dc     Setup.obj
 0002:000082f8       __CT??_R0?AVexception@std@@@8??0exception@std@@QAE@ABV01@@Z12 0044b2f8     Setup.obj
 0002:00008590       __TI2?AUParameterIncorrect@CipherShed@@ 0044b590     BootEncryption.obj
 0002:000085a0       __CTA2?AUParameterIncorrect@CipherShed@@ 0044b5a0     BootEncryption.obj
 0002:000085ac       __CT??_R0?AUParameterIncorrect@CipherShed@@@8??0ParameterIncorrect@CipherShed@@QAE@ABU01@@Z8 0044b5ac     BootEncryption.obj
 0002:000085c8       __CT??_R0?AUException@CipherShed@@@8??0Exception@CipherShed@@QAE@ABU01@@Z4 0044b5c8     BootEncryption.obj
 0002:000085e4       __TI2?AUSystemException@CipherShed@@ 0044b5e4     BootEncryption.obj
 0002:000085f4       __CTA2?AUSystemException@CipherShed@@ 0044b5f4     BootEncryption.obj
 0002:00008600       __CT??_R0?AUSystemException@CipherShed@@@8??0SystemException@CipherShed@@QAE@ABU01@@Z8 0044b600     BootEncryption.obj
 0002:000089d8       __TI3?AVlength_error@std@@ 0044b9d8     BootEncryption.obj
 0002:000089e8       __CTA3?AVlength_error@std@@ 0044b9e8     BootEncryption.obj
 0002:000089f8       __CT??_R0?AVlength_error@std@@@8??0length_error@std@@QAE@ABV01@@Z40 0044b9f8     BootEncryption.obj
 0002:00008a14       __CT??_R0?AVlogic_error@std@@@8??0logic_error@std@@QAE@ABV01@@Z40 0044ba14     BootEncryption.obj
 0002:00008a30       __TI2?AVbad_cast@std@@     0044ba30     BootEncryption.obj
 0002:00008a40       __CTA2?AVbad_cast@std@@    0044ba40     BootEncryption.obj
 0002:00008a4c       __CT??_R0?AVbad_cast@std@@@8??0bad_cast@std@@QAE@ABV01@@Z12 0044ba4c     BootEncryption.obj
 0002:00008b0c       __TI3?AVfailure@ios_base@std@@ 0044bb0c     BootEncryption.obj
 0002:00008b58       __CTA3?AVfailure@ios_base@std@@ 0044bb58     BootEncryption.obj
 0002:00008b68       __CT??_R0?AVfailure@ios_base@std@@@8??0failure@ios_base@std@@QAE@ABV012@@Z40 0044bb68     BootEncryption.obj
 0002:00008b84       __CT??_R0?AVruntime_error@std@@@8??0runtime_error@std@@QAE@ABV01@@Z40 0044bb84     BootEncryption.obj
 0002:000096fc       __TI2?AUErrorException@CipherShed@@ 0044c6fc     BootEncryption.obj
 0002:0000970c       __CTA2?AUErrorException@CipherShed@@ 0044c70c     BootEncryption.obj
 0002:00009718       __CT??_R0?AUErrorException@CipherShed@@@8??0ErrorException@CipherShed@@QAE@ABU01@@Z36 0044c718     BootEncryption.obj
 0002:0000979c       __TI3?AVout_of_range@std@@ 0044c79c     Dictionary.obj
 0002:000097ac       __CTA3?AVout_of_range@std@@ 0044c7ac     Dictionary.obj
 0002:000097bc       __CT??_R0?AVout_of_range@std@@@8??0out_of_range@std@@QAE@ABV01@@Z40 0044c7bc     Dictionary.obj
 0002:0000a0dc       __TI2?AVbad_exception@std@@ 0044d0dc     LIBCMT:frame.obj
 0002:0000a0ec       __CTA2?AVbad_exception@std@@ 0044d0ec     LIBCMT:frame.obj
 0002:0000a0f8       __CT??_R0?AVbad_exception@std@@@8??0bad_exception@std@@QAE@ABV01@@Z12 0044d0f8     LIBCMT:frame.obj
 0002:0000a504       __IMPORT_DESCRIPTOR_COMCTL32 0044d504     comctl32:COMCTL32.dll
 0002:0000a518       __IMPORT_DESCRIPTOR_SETUPAPI 0044d518     setupapi:SETUPAPI.dll
 0002:0000a52c       __IMPORT_DESCRIPTOR_KERNEL32 0044d52c     kernel32:KERNEL32.dll
 0002:0000a540       __IMPORT_DESCRIPTOR_USER32 0044d540     user32:USER32.dll
 0002:0000a554       __IMPORT_DESCRIPTOR_GDI32  0044d554     gdi32:GDI32.dll
 0002:0000a568       __IMPORT_DESCRIPTOR_ADVAPI32 0044d568     advapi32:ADVAPI32.dll
 0002:0000a57c       __IMPORT_DESCRIPTOR_SHELL32 0044d57c     shell32:SHELL32.dll
 0002:0000a590       __IMPORT_DESCRIPTOR_ole32  0044d590     ole32:ole32.dll
 0002:0000a5a4       __IMPORT_DESCRIPTOR_OLEAUT32 0044d5a4     oleaut32:OLEAUT32.dll
 0002:0000a5b8       __IMPORT_DESCRIPTOR_SHLWAPI 0044d5b8     shlwapi:SHLWAPI.dll
 0002:0000a5cc       __NULL_IMPORT_DESCRIPTOR   0044d5cc     comctl32:COMCTL32.dll
 0003:00000004       ??_R0?AVCAtlException@ATL@@@8 0044f004     ComSetup.obj
 0003:00000024       ??_R0?AV_com_error@@@8     0044f024     ComSetup.obj
 0003:00000040       ??_R0?AVCRegObject@ATL@@@8 0044f040     ComSetup.obj
 0003:00000060       ??_R0?AUIRegistrarBase@@@8 0044f060     ComSetup.obj
 0003:00000080       ??_R0?AUIUnknown@@@8       0044f080     ComSetup.obj
 0003:000000d0       _hChildStdinWrite          0044f0d0     SelfExtract.obj
 0003:00000110       ?UnloadDriver@@3HA         0044f110     Setup.obj
 0003:00000114       _bSystemRestore            0044f114     Setup.obj
 0003:00000118       _bForAllUsers              0044f118     Setup.obj
 0003:0000011c       _bRegisterFileExt          0044f11c     Setup.obj
 0003:00000120       _bAddToStartMenu           0044f120     Setup.obj
 0003:00000124       _bDesktopIcon              0044f124     Setup.obj
 0003:00000128       ??_R0?AVbad_alloc@std@@@8  0044f128     Setup.obj
 0003:00000144       ??_R0?AVexception@std@@@8  0044f144     Setup.obj
 0003:00000160       ??_R0?AUException@CipherShed@@@8 0044f160     Setup.obj
 0003:000001c0       ?nCurPageNo@@3HA           0044f1c0     Wizard.obj
 0003:000001c4       ?bOpenContainingFolder@@3HA 0044f1c4     Wizard.obj
 0003:000001c8       ?DonText@@3V?$basic_string@_WU?$char_traits@_W@std@@V?$allocator@_W@2@@std@@A 0044f1c8     Wizard.obj
 0003:000001e8       ??_R0?AVfacet@locale@std@@@8 0044f1e8     BootEncryption.obj
 0003:00000208       ??_R0?AUctype_base@std@@@8 0044f208     BootEncryption.obj
 0003:00000228       ??_R0?AVios_base@std@@@8   0044f228     BootEncryption.obj
 0003:00000244       ??_R0?AV?$_Iosb@H@std@@@8  0044f244     BootEncryption.obj
 0003:00000260       ??_R0?AUContainer@ForEach@CipherShed@@@8 0044f260     BootEncryption.obj
 0003:0000028c       ??_R0?AUParameterIncorrect@CipherShed@@@8 0044f28c     BootEncryption.obj
 0003:000002b8       ??_R0?AV?$basic_ostream@DU?$char_traits@D@std@@@std@@@8 0044f2b8     BootEncryption.obj
 0003:000002f4       ??_R0?AV?$basic_ios@DU?$char_traits@D@std@@@std@@@8 0044f2f4     BootEncryption.obj
 0003:0000032c       ??_R0?AV?$basic_ostream@_WU?$char_traits@_W@std@@@std@@@8 0044f32c     BootEncryption.obj
 0003:00000368       ??_R0?AV?$basic_ios@_WU?$char_traits@_W@std@@@std@@@8 0044f368     BootEncryption.obj
 0003:000003a0       ??_R0?AV?$basic_istream@DU?$char_traits@D@std@@@std@@@8 0044f3a0     BootEncryption.obj
 0003:000003dc       ??_R0?AV?$basic_istream@_WU?$char_traits@_W@std@@@std@@@8 0044f3dc     BootEncryption.obj
 0003:00000418       ??_R0?AV?$basic_iostream@DU?$char_traits@D@std@@@std@@@8 0044f418     BootEncryption.obj
 0003:00000454       ??_R0?AV?$basic_iostream@_WU?$char_traits@_W@std@@@std@@@8 0044f454     BootEncryption.obj
 0003:00000494       ??_R0?AV?$ctype@D@std@@@8  0044f494     BootEncryption.obj
 0003:000004b0       ??_R0?AV?$ctype@_W@std@@@8 0044f4b0     BootEncryption.obj
 0003:000004d0       ??_R0?AUSystemException@CipherShed@@@8 0044f4d0     BootEncryption.obj
 0003:000004fc       ??_R0?AV?$basic_streambuf@DU?$char_traits@D@std@@@std@@@8 0044f4fc     BootEncryption.obj
 0003:00000538       ??_R0?AV?$basic_streambuf@_WU?$char_traits@_W@std@@@std@@@8 0044f538     BootEncryption.obj
 0003:00000578       ??_R0?AV?$basic_stringbuf@DU?$char_traits@D@std@@V?$allocator@D@2@@std@@@8 0044f578     BootEncryption.obj
 0003:000005c8       ??_R0?AV?$basic_stringbuf@_WU?$char_traits@_W@std@@V?$allocator@_W@2@@std@@@8 0044f5c8     BootEncryption.obj
 0003:00000618       ??_R0?AV?$num_put@DV?$ostreambuf_iterator@DU?$char_traits@D@std@@@std@@@std@@@8 0044f618     BootEncryption.obj
 0003:00000670       ??_R0?AV?$basic_stringstream@DU?$char_traits@D@std@@V?$allocator@D@2@@std@@@8 0044f670     BootEncryption.obj
 0003:000006c0       ??_R0?AV?$basic_stringstream@_WU?$char_traits@_W@std@@V?$allocator@_W@2@@std@@@8 0044f6c0     BootEncryption.obj
 0003:00000714       ??_R0?AV?$numpunct@D@std@@@8 0044f714     BootEncryption.obj
 0003:00000734       ??_R0?AVlogic_error@std@@@8 0044f734     BootEncryption.obj
 0003:00000754       ??_R0?AVruntime_error@std@@@8 0044f754     BootEncryption.obj
 0003:00000774       ??_R0?AUErrorException@CipherShed@@@8 0044f774     BootEncryption.obj
 0003:0000079c       ??_R0?AVlength_error@std@@@8 0044f79c     BootEncryption.obj
 0003:000007bc       ??_R0?AVfailure@ios_base@std@@@8 0044f7bc     BootEncryption.obj
 0003:000007e0       ??_R0?AVbad_cast@std@@@8   0044f7e0     BootEncryption.obj
 0003:00000800       ??_R0?AU?$ContainerForward@V?$list@UPartition@CipherShed@@V?$allocator@UPartition@CipherShed@@@std@@@std@@@ForEach@CipherShed@@@8 0044f800     BootEncryption.obj
 0003:00000888       _crc_32_tab                0044f888     Crc.obj
 0003:00000c8c       ??_R0?AVout_of_range@std@@@8 0044fc8c     Dictionary.obj
 0003:00000cec       _ScreenDPI                 0044fcec     Dlgcode.obj
 0003:00000cf0       ?DPIScaleFactorX@@3NA      0044fcf0     Dlgcode.obj
 0003:00000cf8       ?DPIScaleFactorY@@3NA      0044fcf8     Dlgcode.obj
 0003:00000d00       _DlgAspectRatio            0044fd00     Dlgcode.obj
 0003:00000d08       _bPreserveTimestamp        0044fd08     Dlgcode.obj
 0003:00000d0c       _hDriver                   0044fd0c     Dlgcode.obj
 0003:00000d10       ?ExtraBootPartitionDevicePath@@3V?$basic_string@DU?$char_traits@D@std@@V?$allocator@D@2@@std@@A 0044fd10     Dlgcode.obj
 0003:00000d30       ??_R0?AU?$ContainerForward@V?$list@KV?$allocator@K@std@@@std@@@ForEach@CipherShed@@@8 0044fd30     Dlgcode.obj
 0003:00000d98       ??_R0?AU?$ContainerForward@V?$basic_string@DU?$char_traits@D@std@@V?$allocator@D@2@@std@@@ForEach@CipherShed@@@8 0044fd98     csstringutil.obj
 0003:00000e28       ??_R0?AV_Locimp@locale@std@@@8 0044fe28     libcpmt:locale0.obj
 0003:00000e50       ?_Sync@ios_base@std@@0_NA  0044fe50     libcpmt:ios.obj
 0003:00000e60       ?_PJP_CPP_Copyright@@3PADA 0044fe60     libcpmt:iosptrs.obj
 0003:00000ec0       ??_R0?AVtype_info@@@8      0044fec0     LIBCMT:typinfo.obj
 0003:00000ed8       ___security_cookie         0044fed8     LIBCMT:gs_cookie.obj
 0003:00000edc       ___security_cookie_complement 0044fedc     LIBCMT:gs_cookie.obj
 0003:00000ee0       __fltused                  0044fee0     LIBCMT:_fpinit_.obj
 0003:00000ee4       __ldused                   0044fee4     LIBCMT:_fpinit_.obj
 0003:00000f04       __aexit_rtn                0044ff04     LIBCMT:crt0dat.obj
 0003:00000f10       ___lconv_static_decimal    0044ff10     LIBCMT:lconv.obj
 0003:00000f14       ___lconv_c                 0044ff14     LIBCMT:lconv.obj
 0003:00000f44       ___lconv                   0044ff44     LIBCMT:lconv.obj
 0003:00000f50       __iob                      0044ff50     LIBCMT:_file.obj
 0003:000011d0       ___app_type                004501d0     LIBCMT:wincrt0.obj
 0003:000011e0       __pctype                   004501e0     LIBCMT:ctype.obj
 0003:000011e4       __pwctype                  004501e4     LIBCMT:ctype.obj
 0003:00001358       ___abort_behavior          00450358     LIBCMT:abort.obj
 0003:00001364       ??_R0?AVbad_exception@std@@@8 00450364     LIBCMT:frame.obj
 0003:00001390       ___initialmbcinfo          00450390     LIBCMT:mbctype.obj
 0003:000015b0       __mbctype                  004505b0     LIBCMT:mbctype.obj
 0003:000016b8       __mbcasemap                004506b8     LIBCMT:mbctype.obj
 0003:000017b8       ___ptmbcinfo               004507b8     LIBCMT:mbctype.obj
 0003:000018b0       ___globallocalestatus      004508b0     LIBCMT:glstatus.obj
 0003:000018b8       ___clocalestr              004508b8     LIBCMT:nlsdata2.obj
 0003:000018c0       ___initiallocinfo          004508c0     LIBCMT:nlsdata2.obj
 0003:00001998       ___ptlocinfo               00450998     LIBCMT:nlsdata2.obj
 0003:0000199c       ___lc_clike                0045099c     LIBCMT:nlsdata2.obj
 0003:000019a0       ___initiallocalestructinfo 004509a0     LIBCMT:nlsdata2.obj
 0003:000019a8       ___flsindex                004509a8     LIBCMT:tidtable.obj
 0003:000019ac       ___getvalueindex           004509ac     LIBCMT:tidtable.obj
 0003:00001ad0       __amblksiz                 00450ad0     LIBCMT:heapinit.obj
 0003:00001b90       ___nullstring              00450b90     LIBCMT:output.obj
 0003:00001b94       ___wnullstring             00450b94     LIBCMT:output.obj
 0003:00001ba0       __First_FPE_Indx           00450ba0     LIBCMT:winxfltr.obj
 0003:00001ba4       __Num_FPE                  00450ba4     LIBCMT:winxfltr.obj
 0003:00001ba8       __XcptActTabSize           00450ba8     LIBCMT:winxfltr.obj
 0003:00001bac       __XcptActTabCount          00450bac     LIBCMT:winxfltr.obj
 0003:00001bb0       __cfltcvt_tab              00450bb0     LIBCMT:cmiscdat.obj
 0003:00001bd8       ___badioinfo               00450bd8     LIBCMT:ioinit.obj
 0003:00001c28       ___lc_time_c               00450c28     LIBCMT:strftime.obj
 0003:00001ce0       ___lc_time_curr            00450ce0     LIBCMT:strftime.obj
 0003:00001ce4       ___mb_cur_max              00450ce4     LIBCMT:nlsdata1.obj
 0003:00001ce8       ___decimal_point           00450ce8     LIBCMT:nlsdata1.obj
 0003:00001cec       ___decimal_point_length    00450cec     LIBCMT:nlsdata1.obj
 0003:00001cf0       __NLG_Destination          00450cf0     LIBCMT:exsup.obj
 0003:00001d00       __lookuptrailbytes         00450d00     LIBCMT:read.obj
 0003:00001e18       __timezone                 00450e18     LIBCMT:timeset.obj
 0003:00001e1c       __daylight                 00450e1c     LIBCMT:timeset.obj
 0003:00001e20       __dstbias                  00450e20     LIBCMT:timeset.obj
 0003:00001ea8       __tzname                   00450ea8     LIBCMT:timeset.obj
 0003:00001eb0       __lpdays                   00450eb0     LIBCMT:days.obj
 0003:00001ee4       __days                     00450ee4     LIBCMT:days.obj
 0003:00001f20       __matherr_flag             00450f20     LIBCMT:_matherr_.obj
 0003:00002010       __d_inf                    00451010     LIBCMT:_util_.obj
 0003:00002018       __d_ind                    00451018     LIBCMT:_util_.obj
 0003:00002020       __d_max                    00451020     LIBCMT:_util_.obj
 0003:00002028       __d_min                    00451028     LIBCMT:_util_.obj
 0003:00002030       __d_mzero                  00451030     LIBCMT:_util_.obj
 0003:00002088       __coninpfh                 00451088     LIBCMT:initcon.obj
 0003:0000208c       __confh                    0045108c     LIBCMT:initcon.obj
 0003:00002090       __pow10pos                 00451090     LIBCMT:_constpow_.obj
 0003:000021f0       __pow10neg                 004511f0     LIBCMT:_constpow_.obj
 0003:00002360       ?_AtlRegisterPerUser@ATL@@3_NA 00451360     ComSetup.obj
 0003:00002364       ?pfnRegDeleteKeyEx@?5??DeleteSubKey@CRegKey@ATL@@QAEJPBD@Z@4P6GJPAUHKEY__@@0KK@ZA 00451364     ComSetup.obj
 0003:00002368       ?bInitialized@?5??DeleteSubKey@CRegKey@ATL@@QAEJPBD@Z@4_NA 00451368     ComSetup.obj
 0003:0000236c       ?map@?1??VTFromRegType@CRegParser@ATL@@KAHPBDAAG@Z@4QBUtypemap@?1??123@KAH01@Z@B 0045136c     ComSetup.obj
 0003:0000238c       ??_B?1??VTFromRegType@CRegParser@ATL@@KAHPBDAAG@Z@51 0045138c     ComSetup.obj
 0003:0000259c       _PipeWriteBuf              0045159c     SelfExtract.obj
 0003:000025a0       _DecompressedData          004515a0     SelfExtract.obj
 0003:000025a8       ?UninstallationPath@@3PADA 004515a8     Setup.obj
 0003:000026b0       ?UninstallBatch@@3PADA     004516b0     Setup.obj
 0003:000027b8       _InstallationPath          004517b8     Setup.obj
 0003:000028c0       _SetupFilesDir             004518c0     Setup.obj
 0003:000029c4       ?InstalledVersion@@3JA     004519c4     Setup.obj
 0003:000029c8       ?bUninstall@@3HA           004519c8     Setup.obj
 0003:000029cc       _bRestartRequired          004519cc     Setup.obj
 0003:000029d0       ?bMakePackage@@3HA         004519d0     Setup.obj
 0003:000029d4       ?bDone@@3HA                004519d4     Setup.obj
 0003:000029d8       _Rollback                  004519d8     Setup.obj
 0003:000029dc       _bCipherShedMigration      004519dc     Setup.obj
 0003:000029e0       _bUpgrade                  004519e0     Setup.obj
 0003:000029e4       ?bDowngrade@@3HA           004519e4     Setup.obj
 0003:000029e8       _SystemEncryptionUpdate    004519e8     Setup.obj
 0003:000029ec       ?PortableMode@@3HA         004519ec     Setup.obj
 0003:000029f0       _bRepairMode               004519f0     Setup.obj
 0003:000029f4       ?bChangeMode@@3HA          004519f4     Setup.obj
 0003:000029f8       _bDevm                     004519f8     Setup.obj
 0003:000029fc       _bPossiblyFirstTimeInstall 004519fc     Setup.obj
 0003:00002a00       ?bUninstallInProgress@@3HA 00451a00     Setup.obj
 0003:00002a04       _bDisableSwapFiles         00451a04     Setup.obj
 0003:00002a08       _bDesktopIconStatusDetermined 00451a08     Setup.obj
 0003:00002a0c       _SystemRestoreDll          00451a0c     Setup.obj
 0003:00002a10       ?quiet@@3HA                00451a10     Setup.obj
 0003:00002a90       ?SelfFile@@3PADA           00451a90     Wizard.obj
 0003:00002b98       ?WizardDestExtractPath@@3PADA 00451b98     Wizard.obj
 0003:00002ca0       ?WizardDestInstallPath@@3PADA 00451ca0     Wizard.obj
 0003:00002da4       ?hCurPage@@3PAUHWND__@@A   00451da4     Wizard.obj
 0003:00002da8       ?hbmWizardBitmapRescaled@@3PAUHBITMAP__@@A 00451da8     Wizard.obj
 0003:00002dac       ?bExtractOnly@@3HA         00451dac     Wizard.obj
 0003:00002db0       ?bLicenseAccepted@@3HA     00451db0     Wizard.obj
 0003:00002db4       ?bExtractionSuccessful@@3HA 00451db4     Wizard.obj
 0003:00002db8       ?bStartInstall@@3HA        00451db8     Wizard.obj
 0003:00002dbc       ?bStartExtraction@@3HA     00451dbc     Wizard.obj
 0003:00002dc0       ?bInProgress@@3HA          00451dc0     Wizard.obj
 0003:00002dc4       _bPromptTutorial           00451dc4     Wizard.obj
 0003:00002dc8       _bPromptReleaseNotes       00451dc8     Wizard.obj
 0003:00002dcc       ?nPbar@@3HA                00451dcc     Wizard.obj
 0003:00002e58       ?_Psave@?$_Facetptr@V?$ctype@D@std@@@std@@2PBVfacet@locale@2@B 00451e58     BootEncryption.obj
 0003:00002e5c       ?_Psave@?$_Facetptr@V?$ctype@_W@std@@@std@@2PBVfacet@locale@2@B 00451e5c     BootEncryption.obj
 0003:00002e60       ?_Psave@?$_Facetptr@V?$num_put@DV?$ostreambuf_iterator@DU?$char_traits@D@std@@@std@@@std@@@std@@2PBVfacet@locale@2@B 00451e60     BootEncryption.obj
 0003:00002e64       ?_Psave@?$_Facetptr@V?$numpunct@D@std@@@std@@2PBVfacet@locale@2@B 00451e64     BootEncryption.obj
 0003:00002e68       ?id@?$num_put@DV?$ostreambuf_iterator@DU?$char_traits@D@std@@@std@@@std@@2V0locale@2@A 00451e68     BootEncryption.obj
 0003:00002e6c       ?id@?$numpunct@D@std@@2V0locale@2@A 00451e6c     BootEncryption.obj
 0003:00002eb8       ?hDlgClass@@3GA            00451eb8     Dlgcode.obj
 0003:00002ec0       _szHelpFile                00451ec0     Dlgcode.obj
 0003:00002fc4       _defaultKeyFilesParam      00451fc4     Dlgcode.obj
 0003:00002fcc       _WindowTitleBarFont        00451fcc     Dlgcode.obj
 0003:00002fd0       _SecurityTokenLibraryPath  00451fd0     Dlgcode.obj
 0003:000030d4       ?DriverVersion@@3JA        004520d4     Dlgcode.obj
 0003:000030d8       _LastDialogId              004520d8     Dlgcode.obj
 0003:000030dc       _LastMountedVolumeDirty    004520dc     Dlgcode.obj
 0003:000230f0       ?SystemFileSelectorCallerThreadId@@3KA 004720f0     Dlgcode.obj
 0003:000230f4       _ConfigBuffer              004720f4     Dlgcode.obj
 0003:000230f8       ?SysPartitionDevicePath@@3PADA 004720f8     Dlgcode.obj
 0003:000231fc       ?hSplashClass@@3GA         004721fc     Dlgcode.obj
 0003:00023200       ?SysDriveDevicePath@@3PADA 00472200     Dlgcode.obj
 0003:00023308       _szHelpFile2               00472308     Dlgcode.obj
 0003:0002340c       _hFixedDigitFont           0047240c     Dlgcode.obj
 0003:00023410       _hBoldFont                 00472410     Dlgcode.obj
 0003:00023414       _hTitleFont                00472414     Dlgcode.obj
 0003:00023418       _hFixedFont                00472418     Dlgcode.obj
 0003:0002341c       _hUserFont                 0047241c     Dlgcode.obj
 0003:00023420       _hUserUnderlineFont        00472420     Dlgcode.obj
 0003:00023424       _hUserBoldFont             00472424     Dlgcode.obj
 0003:00023428       ?hUserUnderlineBoldFont@@3PAUHFONT__@@A 00472428     Dlgcode.obj
 0003:0002342c       _MainDlg                   0047242c     Dlgcode.obj
 0003:00023430       _lpszTitle                 00472430     Dlgcode.obj
 0003:00023434       _bStartOnLogon             00472434     Dlgcode.obj
 0003:00023438       _bMountDevicesOnLogon      00472438     Dlgcode.obj
 0003:0002343c       _bMountFavoritesOnLogon    0047243c     Dlgcode.obj
 0003:00023440       _bHistory                  00472440     Dlgcode.obj
 0003:00023444       _HiddenSectorDetectionStatus 00472444     Dlgcode.obj
 0003:00023448       _nCurrentOS                00472448     Dlgcode.obj
 0003:0002344c       _CurrentOSMajor            0047244c     Dlgcode.obj
 0003:00023450       _CurrentOSMinor            00472450     Dlgcode.obj
 0003:00023454       _CurrentOSServicePack      00472454     Dlgcode.obj
 0003:00023458       _RemoteSession             00472458     Dlgcode.obj
 0003:0002345c       ?bPortableModeConfirmed@@3HA 0047245c     Dlgcode.obj
 0003:00023460       _bInPlaceEncNonSysPending  00472460     Dlgcode.obj
 0003:00023464       _KeyFilesEnable            00472464     Dlgcode.obj
 0003:00023468       _FirstKeyFile              00472468     Dlgcode.obj
 0003:0002346c       _IgnoreWmDeviceChange      0047246c     Dlgcode.obj
 0003:00023470       _DeviceChangeBroadcastDisabled 00472470     Dlgcode.obj
 0003:00023474       _MountVolumesAsSystemFavorite 00472474     Dlgcode.obj
 0003:00023478       _FavoriteMountOnArrivalInProgress 00472478     Dlgcode.obj
 0003:0002347c       _MultipleMountOperationInProgress 0047247c     Dlgcode.obj
 0003:00023480       ?hSysEncMutex@@3RAXA       00472480     Dlgcode.obj
 0003:00023484       ?hNonSysInplaceEncMutex@@3RAXA 00472484     Dlgcode.obj
 0003:00023488       ?hDriverSetupMutex@@3RAXA  00472488     Dlgcode.obj
 0003:0002348c       ?hAppSetupMutex@@3RAXA     0047248c     Dlgcode.obj
 0003:00023490       _hInst                     00472490     Dlgcode.obj
 0003:00023494       _SystemEncryptionStatus    00472494     Dlgcode.obj
 0003:00023498       _nWipeMode                 00472498     Dlgcode.obj
 0003:0002349c       _bSysPartitionSelected     0047249c     Dlgcode.obj
 0003:000234a0       _bSysDriveSelected         004724a0     Dlgcode.obj
 0003:000234a4       ?bCachedSysDevicePathsValid@@3DA 004724a4     Dlgcode.obj
 0003:000234a8       _bHyperLinkBeingTracked    004724a8     Dlgcode.obj
 0003:000234ac       ?WrongPwdRetryCounter@@3HA 004724ac     Dlgcode.obj
 0003:000234b0       ?SystemFileSelectorCallPending@@3HA 004724b0     Dlgcode.obj
 0003:00023914       _hCursor                   00472914     cursor.obj
 0003:00023918       _Silent                    00472918     errors.obj
 0003:0002391c       _UacElevated               0047291c     userperms.obj
 0003:00023994       ?_Clocptr@_Locimp@locale@std@@0PAV123@A 00472994     libcpmt:locale0.obj
 0003:00023998       ?_Id_cnt@id@locale@std@@0HA 00472998     libcpmt:locale0.obj
 0003:0002399c       ?id@?$ctype@D@std@@2V0locale@2@A 0047299c     libcpmt:locale0.obj
 0003:000239a0       ?id@?$codecvt@GDH@std@@2V0locale@2@A 004729a0     libcpmt:locale0.obj
 0003:000239a4       ?id@?$ctype@_W@std@@2V0locale@2@A 004729a4     libcpmt:locale0.obj
 0003:000239a8       ?id@?$codecvt@_WDH@std@@2V0locale@2@A 004729a8     libcpmt:locale0.obj
 0003:000239b0       ?id@?$ctype@G@std@@2V0locale@2@A 004729b0     libcpmt:locale0.obj
 0003:000239b8       ?_Fpz@std@@3_JA            004729b8     libcpmt:ios.obj
 0003:000239c0       ?_Index@ios_base@std@@0HA  004729c0     libcpmt:ios.obj
 0003:00023af0       ?_Ptr_cin@std@@3PAV?$basic_istream@DU?$char_traits@D@std@@@1@A 00472af0     libcpmt:iosptrs.obj
 0003:00023af4       ?_Ptr_cout@std@@3PAV?$basic_ostream@DU?$char_traits@D@std@@@1@A 00472af4     libcpmt:iosptrs.obj
 0003:00023af8       ?_Ptr_cerr@std@@3PAV?$basic_ostream@DU?$char_traits@D@std@@@1@A 00472af8     libcpmt:iosptrs.obj
 0003:00023afc       ?_Ptr_clog@std@@3PAV?$basic_ostream@DU?$char_traits@D@std@@@1@A 00472afc     libcpmt:iosptrs.obj
 0003:00023b00       ?_Ptr_wcin@std@@3PAV?$basic_istream@_WU?$char_traits@_W@std@@@1@A 00472b00     libcpmt:iosptrs.obj
 0003:00023b04       ?_Ptr_wcout@std@@3PAV?$basic_ostream@_WU?$char_traits@_W@std@@@1@A 00472b04     libcpmt:iosptrs.obj
 0003:00023b08       ?_Ptr_wcerr@std@@3PAV?$basic_ostream@_WU?$char_traits@_W@std@@@1@A 00472b08     libcpmt:iosptrs.obj
 0003:00023b0c       ?_Ptr_wclog@std@@3PAV?$basic_ostream@_WU?$char_traits@_W@std@@@1@A 00472b0c     libcpmt:iosptrs.obj
 0003:00023b3c       ___fastflag                00472b3c     LIBCMT:_fpinit_.obj
 0003:00023b40       __adjust_fdiv              00472b40     LIBCMT:_fpinit_.obj
 0003:00023b54       __umaskval                 00472b54     LIBCMT:crt0dat.obj
 0003:00023b58       ___argc                    00472b58     LIBCMT:crt0dat.obj
 0003:00023b5c       ___argv                    00472b5c     LIBCMT:crt0dat.obj
 0003:00023b60       ___wargv                   00472b60     LIBCMT:crt0dat.obj
 0003:00023b64       __environ                  00472b64     LIBCMT:crt0dat.obj
 0003:00023b68       ___initenv                 00472b68     LIBCMT:crt0dat.obj
 0003:00023b6c       __wenviron                 00472b6c     LIBCMT:crt0dat.obj
 0003:00023b70       ___winitenv                00472b70     LIBCMT:crt0dat.obj
 0003:00023b74       __pgmptr                   00472b74     LIBCMT:crt0dat.obj
 0003:00023b78       __wpgmptr                  00472b78     LIBCMT:crt0dat.obj
 0003:00023b7c       __exitflag                 00472b7c     LIBCMT:crt0dat.obj
 0003:00023b80       __C_Termination_Done       00472b80     LIBCMT:crt0dat.obj
 0003:00023b84       __C_Exit_Done              00472b84     LIBCMT:crt0dat.obj
 0003:00023b88       ___pInvalidArgHandler      00472b88     LIBCMT:invarg.obj
 0003:00023b8c       ___lconv_static_null       00472b8c     LIBCMT:lconv.obj
 0003:00023b90       __cflush                   00472b90     LIBCMT:_file.obj
 0003:00023b94       __aenvptr                  00472b94     LIBCMT:wincrt0.obj
 0003:00023b98       __wenvptr                  00472b98     LIBCMT:wincrt0.obj
 0003:00023b9c       ___error_mode              00472b9c     LIBCMT:wincrt0.obj
 0003:00023ba4       __maxwait                  00472ba4     LIBCMT:crtheap.obj
 0003:00023ba8       ___locale_changed          00472ba8     LIBCMT:setlocal.obj
 0003:00023bb8       ___mbulinfo                00472bb8     LIBCMT:mbctype.obj
 0003:00023bc4       ___mbcodepage              00472bc4     LIBCMT:mbctype.obj
 0003:00023bc8       ___ismbcodepage            00472bc8     LIBCMT:mbctype.obj
 0003:00023bcc       ___mblcid                  00472bcc     LIBCMT:mbctype.obj
 0003:00023bd0       ___lc_handle               00472bd0     LIBCMT:nlsdata2.obj
 0003:00023be8       ___lc_codepage             00472be8     LIBCMT:nlsdata2.obj
 0003:00023bec       ___lc_collate_cp           00472bec     LIBCMT:nlsdata2.obj
 0003:00023bf0       _gpFlsAlloc                00472bf0     LIBCMT:tidtable.obj
 0003:00023bf4       _gpFlsGetValue             00472bf4     LIBCMT:tidtable.obj
 0003:00023bf8       _gpFlsSetValue             00472bf8     LIBCMT:tidtable.obj
 0003:00023bfc       _gpFlsFree                 00472bfc     LIBCMT:tidtable.obj
 0003:00023d50       ___sbh_pHeaderDefer        00472d50     LIBCMT:sbheap.obj
 0003:00023d54       __crtheap                  00472d54     LIBCMT:heapinit.obj
 0003:0002406c       ?_pnhHeap@@3P6AHI@ZA       0047306c     LIBCMT:handler.obj
 0003:00024070       __newmode                  00473070     LIBCMT:_newmode.obj
 0003:0002439c       ?__pInconsistency@@3P6AXXZA 0047339c     LIBCMT:hooks.obj
 0003:000243a0       __stdbuf                   004733a0     LIBCMT:_sftbuf.obj
 0003:000243c8       ___pPurecall               004733c8     LIBCMT:inithelp.obj
 0003:000244fc       ?pArgList@UnDecorator@@0PAVReplicator@@A 004734fc     LIBCMT:undname.obj
 0003:00024500       ?pZNameList@UnDecorator@@0PAVReplicator@@A 00473500     LIBCMT:undname.obj
 0003:00024504       ?pTemplateArgList@UnDecorator@@0PAVReplicator@@A 00473504     LIBCMT:undname.obj
 0003:00024508       ?gName@UnDecorator@@0PBDB  00473508     LIBCMT:undname.obj
 0003:0002450c       ?name@UnDecorator@@0PBDB   0047350c     LIBCMT:undname.obj
 0003:00024510       ?outputString@UnDecorator@@0PADA 00473510     LIBCMT:undname.obj
 0003:00024514       ?maxStringLength@UnDecorator@@0HA 00473514     LIBCMT:undname.obj
 0003:00024518       ?disableFlags@UnDecorator@@0KA 00473518     LIBCMT:undname.obj
 0003:0002451c       ?m_pGetParameter@UnDecorator@@0P6APADJ@ZA 0047351c     LIBCMT:undname.obj
 0003:00024520       ?fExplicitTemplateParams@UnDecorator@@0_NA 00473520     LIBCMT:undname.obj
 0003:00024521       ?fGetTemplateArgumentList@UnDecorator@@0_NA 00473521     LIBCMT:undname.obj
 0003:000245f8       __outputformat             004735f8     LIBCMT:outputformat.obj
 0003:000245fc       __commode                  004735fc     LIBCMT:ncommode.obj
 0003:00024604       __fmode                    00473604     LIBCMT:txtmode.obj
 0003:0002460c       _LocalizationActive        0047360c     <common>
 0003:00024610       _LocalizationSerialNo      00473610     <common>
 0003:00024620       _UnknownString             00473620     <common>
 0003:00024e20       _G                         00473e20     <common>
 0003:00024e60       _redirSlide                00473e60     <common>
 0003:0002ce60       _Decompressed_Files        0047be60     <common>
 0003:0002cee0       _MagEndMarker              0047bee0     <common>
 0003:0002cf00       _DestExtractPath           0047bf00     <common>
 0003:0002d004       ___use_sse2_mathfcns       0047c004     <common>
 0003:0002d008       __pmatherr                 0047c008     <common>
 0003:0002d00c       __debugger_hook_dummy      0047c00c     <common>
 0003:0002d010       __nhandle                  0047c010     <common>
 0003:0002d020       ___pioinfo                 0047c020     <common>
 0003:0002d120       ___sse2_available          0047c120     <common>
 0003:0002d124       ___active_heap             0047c124     <common>
 0003:0002d128       ___sbh_cntHeaderList       0047c128     <common>
 0003:0002d12c       ___sbh_pHeaderList         0047c12c     <common>
 0003:0002d130       ___sbh_threshold           0047c130     <common>
 0003:0002d134       ___sbh_pHeaderScan         0047c134     <common>
 0003:0002d138       ___sbh_sizeHeaderList      0047c138     <common>
 0003:0002d13c       ___sbh_indGroupDefer       0047c13c     <common>
 0003:0002d140       __acmdln                   0047c140     <common>
 0003:0002d144       ___piob                    0047c144     <common>
 0003:0002d160       __bufin                    0047c160     <common>
 0003:0002e160       __nstream                  0047d160     <common>
 0003:0002e164       ___env_initialized         0047d164     <common>
 0003:0002e168       ___onexitend               0047d168     <common>
 0003:0002e16c       ___onexitbegin             0047d16c     <common>
 0003:0002e170       ___mbctype_initialized     0047d170     <common>
 0003:0002e174       ___dyn_tls_init_callback   0047d174     <common>

 entry point at        0001:00028543

 Static symbols

 0001:000014b8       __catch$?Add@CExpansionVector@ATL@@QAEHPBDPB_W@Z$0 004024b8 f i ComSetup.obj
 0001:00001511       __catch$?Add@CExpansionVector@ATL@@QAEHPBDPB_W@Z$2 00402511 f i ComSetup.obj
 0001:000017fe       __catch$?AddValue@CRegParser@ATL@@IAEJAAVCRegKey@2@PBDPAD@Z$2 004027fe f i ComSetup.obj
 0001:000019de       __catch$?AddValue@CRegParser@ATL@@IAEJAAVCRegKey@2@PBDPAD@Z$0 004029de f i ComSetup.obj
 0001:0000242f       __catch$?RegisterFromResource@CRegObject@ATL@@IAEJPB_WPBD1H@Z$3 0040342f f i ComSetup.obj
 0001:00002d70       _PkgError                  00403d70 f   SelfExtract.obj
 0001:00002d90       _PipeWriteThread           00403d90 f   SelfExtract.obj
 0001:00002e70       _CompressBuffer            00403e70 f   SelfExtract.obj
 0001:00003a30       _FreeAllFileBuffers        00404a30 f   SelfExtract.obj
 0001:00005734       __catch$_DoServiceUninstall$2 00406734 f   Setup.obj
 0001:00005760       __catch$_DoServiceUninstall$4 00406760 f   Setup.obj
 0001:0000578c       __catch$_DoServiceUninstall$6 0040678c f   Setup.obj
 0001:000057c2       __catch$_DoServiceUninstall$8 004067c2 f   Setup.obj
 0001:00005b9f       __catch$_DoDriverUnload$0  00406b9f f   Setup.obj
 0001:00005bb5       __catch$_DoDriverUnload$2  00406bb5 f   Setup.obj
 0001:00005bdd       __catch$_DoDriverUnload$4  00406bdd f   Setup.obj
 0001:00005c06       __catch$_DoDriverUnload$6  00406c06 f   Setup.obj
 0001:00005cbc       __catch$_DoDriverUnload$8  00406cbc f   Setup.obj
 0001:00005f78       __catch$_UpgradeBootLoader$0 00406f78 f   Setup.obj
 0001:00005fbc       __catch$_UpgradeBootLoader$1 00406fbc f   Setup.obj
 0001:000067d0       ?SetSystemRestorePoint@@YAXPAUHWND__@@H@Z 004077d0 f   Setup.obj
 0001:00007070       ?IsFileInUse@@YAHABV?$basic_string@DU?$char_traits@D@std@@V?$allocator@D@2@@std@@@Z 00408070 f   Setup.obj
 0001:0000724d       __catch$?_Copy@?$basic_string@DU?$char_traits@D@std@@V?$allocator@D@2@@std@@IAEXII@Z$0 0040824d f i Setup.obj
 0001:000072de       __catch$?_Copy@?$basic_string@DU?$char_traits@D@std@@V?$allocator@D@2@@std@@IAEXII@Z$1 004082de f i Setup.obj
 0001:000090c1       __catch$_DoInstall$0       0040a0c1 f   Setup.obj
 0001:000090ce       __catch$_DoInstall$2       0040a0ce f   Setup.obj
 0001:00009102       __catch$_DoInstall$3       0040a102 f   Setup.obj
 0001:00009359       __catch$_DoInstall$7       0040a359 f   Setup.obj
 0001:00009c20       ?InitWizardDestInstallPath@@YAXXZ 0040ac20 f   Wizard.obj
 0001:00009d00       ?GetDonVal@@YAHHH@Z        0040ad00 f   Wizard.obj
 0001:0000a1bf       __catch$?_Copy@?$basic_string@_WU?$char_traits@_W@std@@V?$allocator@_W@2@@std@@IAEXII@Z$0 0040b1bf f i Wizard.obj
 0001:0000a258       __catch$?_Copy@?$basic_string@_WU?$char_traits@_W@std@@V?$allocator@_W@2@@std@@IAEXII@Z$1 0040b258 f i Wizard.obj
 0001:0000c690       _BeginsWith                0040d690 f   Xml.obj
 0001:0000ccf0       ??1Finally558@?O@??SetDriverServiceStartType@BootEncryption@CipherShed@@QAEXK@Z@QAE@XZ 0040dcf0 f   BootEncryption.obj
 0001:0000ccf0       ??1Finally553@?8??SetDriverServiceStartType@BootEncryption@CipherShed@@QAEXK@Z@QAE@XZ 0040dcf0 f   BootEncryption.obj
 0001:0000cd30       ??1Finally1710@?O@??RegisterFilter@BootEncryption@CipherShed@@IAEX_NW4FilterType@23@PBU_GUID@@@Z@QAE@XZ 0040dd30 f   BootEncryption.obj
 0001:0000cd40       ??1Finally1746@?BP@??RegisterFilter@BootEncryption@CipherShed@@IAEX_NW4FilterType@23@PBU_GUID@@@Z@QAE@XZ 0040dd40 f   BootEncryption.obj
 0001:0000d89a       __catch$?CallDriver@BootEncryption@CipherShed@@QAEXKPAXK0K@Z$0 0040e89a f   BootEncryption.obj
 0001:0000ea0a       __catch$?_Init@?$numpunct@D@std@@IAEXABV_Locinfo@2@_N@Z$0 0040fa0a f i BootEncryption.obj
 0001:0000fbd0       ??1Finally1734@?BK@??RegisterFilter@BootEncryption@CipherShed@@IAEX_NW4FilterType@23@PBU_GUID@@@Z@QAE@XZ 00410bd0 f   BootEncryption.obj
 0001:00010350       ??0Finally1734@?BK@??RegisterFilter@BootEncryption@CipherShed@@IAEX_NW4FilterType@23@PBU_GUID@@@Z@QAE@V?$basic_string@DU?$char_traits@D@std@@V?$allocator@D@2@@std@@@Z 00411350 f   BootEncryption.obj
 0001:000113fe       __catch$??0File@CipherShed@@QAE@V?$basic_string@DU?$char_traits@D@std@@V?$allocator@D@2@@std@@_N1@Z$0 004123fe f   BootEncryption.obj
 0001:0001158f       __catch$??0Device@CipherShed@@QAE@V?$basic_string@DU?$char_traits@D@std@@V?$allocator@D@2@@std@@_N@Z$0 0041258f f   BootEncryption.obj
 0001:0001274f       __catch$?_Buynode@?$list@UPartition@CipherShed@@V?$allocator@UPartition@CipherShed@@@std@@@std@@IAEPAU_Node@?$_List_nod@UPartition@CipherShed@@V?$allocator@UPartition@CipherShed@@@std@@@2@PAU342@0ABUPartition@CipherShed@@@Z$0 0041374f f i BootEncryption.obj
 0001:000138a3       __catch$?_Osfx@?$basic_ostream@_WU?$char_traits@_W@std@@@std@@QAEXXZ$0 004148a3 f i BootEncryption.obj
 0001:000138a3       __catch$?_Osfx@?$basic_ostream@DU?$char_traits@D@std@@@std@@QAEXXZ$0 004148a3 f i BootEncryption.obj
 0001:00013994       __catch$??$_Insert@V?$_Const_iterator@$00@?$list@UPartition@CipherShed@@V?$allocator@UPartition@CipherShed@@@std@@@std@@@?$list@UPartition@CipherShed@@V?$allocator@UPartition@CipherShed@@@std@@@std@@QAEXV?$_Const_iterator@$00@01@00Uforward_iterator_tag@1@@Z$0 00414994 f i BootEncryption.obj
 0001:00013e31       __catch$??$?6U?$char_traits@D@std@@@std@@YAAAV?$basic_ostream@DU?$char_traits@D@std@@@0@AAV10@PBD@Z$0 00414e31 f i BootEncryption.obj
 0001:00014098       __catch$??$?6_WU?$char_traits@_W@std@@@std@@YAAAV?$basic_ostream@_WU?$char_traits@_W@std@@@0@AAV10@PBD@Z$0 00415098 f i BootEncryption.obj
 0001:00014432       __catch$??6?$basic_ostream@DU?$char_traits@D@std@@@std@@QAEAAV01@H@Z$0 00415432 f i BootEncryption.obj
 0001:0001451d       __catch$??0?$list@UPartition@CipherShed@@V?$allocator@UPartition@CipherShed@@@std@@@std@@QAE@ABV01@@Z$0 0041551d f i BootEncryption.obj
 0001:00014ded       __catch$?GetDrivePartitions@BootEncryption@CipherShed@@IAE?AV?$list@UPartition@CipherShed@@V?$allocator@UPartition@CipherShed@@@std@@@std@@H@Z$0 00415ded f   BootEncryption.obj
 0001:0001502a       __catch$?Write@File@CipherShed@@QAEXPAEK@Z$0 0041602a f   BootEncryption.obj
 0001:00016896       __catch$?CreateBootLoaderInMemory@BootEncryption@CipherShed@@IAEXPAEI_N1@Z$0 00417896 f   BootEncryption.obj
 0001:000168bf       __catch$?CreateBootLoaderInMemory@BootEncryption@CipherShed@@IAEXPAEI_N1@Z$1 004178bf f   BootEncryption.obj
 0001:00017060       _GetCrc32Large             00418060 f   Crc.obj
 0001:0001860d       __catch$?_Buynode@?$_Tree@V?$_Tmap_traits@V?$basic_string@DU?$char_traits@D@std@@V?$allocator@D@2@@std@@PAXU?$less@V?$basic_string@DU?$char_traits@D@std@@V?$allocator@D@2@@std@@@2@V?$allocator@U?$pair@$$CBV?$basic_string@DU?$char_traits@D@std@@V?$allocator@D@2@@std@@PAX@std@@@2@$0A@@std@@@std@@IAEPAU_Node@?$_Tree_nod@V?$_Tmap_traits@V?$basic_string@DU?$char_traits@D@std@@V?$allocator@D@2@@std@@PAXU?$less@V?$basic_string@DU?$char_traits@D@std@@V?$allocator@D@2@@std@@@2@V?$allocator@U?$pair@$$CBV?$basic_string@DU?$char_traits@D@std@@V?$allocator@D@2@@std@@PAX@std@@@2@$0A@@std@@@2@PAU342@00ABU?$pair@$$CBV?$basic_string@DU?$char_traits@D@std@@V?$allocator@D@2@@std@@PAX@2@D@Z$0 0041960d f i Dictionary.obj
 0001:00019490       ?HyperlinkProc@@YGJPAUHWND__@@IIJ@Z 0041a490 f   Dlgcode.obj
 0001:00019eb0       ?IsReturnAddress@@YAH_K@Z  0041aeb0 f   Dlgcode.obj
 0001:0001a490       _BrowseCallbackProc@16     0041b490 f   Dlgcode.obj
 0001:0001a680       ?LocalizeDialogEnum@@YGHPAUHWND__@@J@Z 0041b680 f   Dlgcode.obj
 0001:0001b220       ?ConfigRead@@YAHPAD0H@Z    0041c220 f   Dlgcode.obj
 0001:0001b37f       __catch$_IsHiddenOSRunning$0 0041c37f f   Dlgcode.obj
 0001:0001baaf       __catch$_DriverUnload$0    0041caaf f   Dlgcode.obj
 0001:0001d074       __catch$??$_Insert@V?$_Const_iterator@$00@?$list@KV?$allocator@K@std@@@std@@@?$list@KV?$allocator@K@std@@@std@@QAEXV?$_Const_iterator@$00@01@00Uforward_iterator_tag@1@@Z$0 0041e074 f i Dlgcode.obj
 0001:0001d1cd       __catch$??0?$list@KV?$allocator@K@std@@@std@@QAE@ABV01@@Z$0 0041e1cd f i Dlgcode.obj
 0001:0001d3f2       __catch$??6?$basic_ostream@DU?$char_traits@D@std@@@std@@QAEAAV01@K@Z$0 0041e3f2 f i Dlgcode.obj
 0001:0001d546       __catch$??6?$basic_ostream@DU?$char_traits@D@std@@@std@@QAEAAV01@_K@Z$0 0041e546 f i Dlgcode.obj
 0001:0001f200       _inflate_stored            00420200 f   Inflate.obj
 0001:0001f8a0       _inflate_fixed             004208a0 f   Inflate.obj
 0001:0001fb40       _inflate_dynamic           00420b40 f   Inflate.obj
 0001:000200a0       _inflate_block             004210a0 f   Inflate.obj
 0001:00020240       _MapFirstLanguageFile      00421240 f   Language.obj
 0001:00020290       _MapNextLanguageFile       00421290 f   Language.obj
 0001:00021890       _swprintf                  00422890 f   errors.obj
 0001:00022c29       _tidy_global               00423c29 f   libcpmt:locale0.obj
 0001:00023256       __CreateLocForCP           00424256 f   libcpmt:xmbtowc.obj
 0001:00023333       __ReleaseCPLocHash         00424333 f   libcpmt:xmbtowc.obj
 0001:00023373       __InitCPLocHash            00424373 f   libcpmt:xmbtowc.obj
 0001:00023eba       ?CatchGuardHandler@@YA?AW4_EXCEPTION_DISPOSITION@@PAUEHExceptionRecord@@PAUCatchGuardRN@@PAX2@Z 00424eba f   LIBCMT:_trnsctrl_.obj
 0001:00023fc4       ?TranslatorGuardHandler@@YA?AW4_EXCEPTION_DISPOSITION@@PAUEHExceptionRecord@@PAUTranslatorGuardRN@@PAX2@Z 00424fc4 f   LIBCMT:_trnsctrl_.obj
 0001:000248b6       __callthreadstart          004258b6 f   LIBCMT:thread.obj
 0001:000248f7       __threadstart@4            004258f7 f   LIBCMT:thread.obj
 0001:000256ca       _IsRootUNCName             004266ca f   LIBCMT:stat64.obj
 0001:000256ca       _IsRootUNCName             004266ca f   LIBCMT:stat64.obj
 0001:00025744       __fullpath_helper          00426744 f   LIBCMT:stat64.obj
 0001:00025744       __fullpath_helper          00426744 f   LIBCMT:stat64.obj
 0001:00026234       __initterm                 00427234 f   LIBCMT:crt0dat.obj
 0001:000262fa       _doexit                    004272fa f   LIBCMT:crt0dat.obj
 0001:000264be       __onexit_nolock            004274be f   LIBCMT:onexit.obj
 0001:0002749b       _flsall                    0042849b f   LIBCMT:fflush.obj
 0001:00027b45       _vscan_fn                  00428b45 f   LIBCMT:sscanf.obj
 0001:0002839c       _fast_error_exit           0042939c f   LIBCMT:wincrt0.obj
 0001:000283c5       ___tmainCRTStartup         004293c5 f   LIBCMT:wincrt0.obj
 0001:00028658       ?__crtLCMapStringA_stat@@YAHPAUlocaleinfo_struct@@KKPBDHPADHHH@Z 00429658 f   LIBCMT:a_map.obj
 0001:00029403       __copytlocinfo_nolock      0042a403 f   LIBCMT:setlocal.obj
 0001:00029429       __updatetlocinfoEx_nolock  0042a429 f   LIBCMT:setlocal.obj
 0001:000294dd       _sync_legacy_variables_lk  0042a4dd f   LIBCMT:setlocal.obj
 0001:000297c8       __setlocale_get_all        0042a7c8 f   LIBCMT:setlocal.obj
 0001:00029b76       __setlocale_set_cat        0042ab76 f   LIBCMT:setlocal.obj
 0001:00029e78       __setlocale_nolock         0042ae78 f   LIBCMT:setlocal.obj
 0001:0002a38d       _xtoa_s@20                 0042b38d f   LIBCMT:xtoas.obj
 0001:0002a494       @x64toa_s@24               0042b494 f   LIBCMT:xtoas.obj
 0001:0002a784       ?ExFilterRethrow@@YAHPAU_EXCEPTION_POINTERS@@@Z 0042b784 f   LIBCMT:frame.obj
 0001:0002a85a       ?IsInExceptionSpec@@YAEPAUEHExceptionRecord@@PBU_s_ESTypeList@@@Z 0042b85a f   LIBCMT:frame.obj
 0001:0002a8d5       ?CallUnexpected@@YAXPBU_s_ESTypeList@@@Z 0042b8d5 f   LIBCMT:frame.obj
 0001:0002a906       __catch$?CallUnexpected@@YAXPBU_s_ESTypeList@@@Z$0 0042b906 f   LIBCMT:frame.obj
 0001:0002a91e       ?CallCatchBlock@@YAPAXPAUEHExceptionRecord@@PAUEHRegistrationNode@@PAU_CONTEXT@@PBU_s_FuncInfo@@PAXHK@Z 0042b91e f   LIBCMT:frame.obj
 0001:0002accb       ?CatchIt@@YAXPAUEHExceptionRecord@@PAUEHRegistrationNode@@PAU_CONTEXT@@PAXPBU_s_FuncInfo@@PBU_s_HandlerType@@PBU_s_CatchableType@@PBU_s_TryBlockMapEntry@@H1E@Z 0042bccb f   LIBCMT:frame.obj
 0001:0002ad39       ?FindHandlerForForeignException@@YAXPAUEHExceptionRecord@@PAUEHRegistrationNode@@PAU_CONTEXT@@PAXPBU_s_FuncInfo@@HH1@Z 0042bd39 f   LIBCMT:frame.obj
 0001:0002ae2d       ?FindHandler@@YAXPAUEHExceptionRecord@@PAUEHRegistrationNode@@PAU_CONTEXT@@PAXPBU_s_FuncInfo@@EH1@Z 0042be2d f   LIBCMT:frame.obj
 0001:0002b587       ?CPtoLCID@@YAHH@Z          0042c587 f   LIBCMT:mbctype.obj
 0001:0002b5b6       ?setSBCS@@YAXPAUthreadmbcinfostruct@@@Z 0042c5b6 f   LIBCMT:mbctype.obj
 0001:0002b61a       ?setSBUpLow@@YAXPAUthreadmbcinfostruct@@@Z 0042c61a f   LIBCMT:mbctype.obj
 0001:0002b851       ?getSystemCP@@YAHH@Z       0042c851 f   LIBCMT:mbctype.obj
 0001:0002d25c       __unwind_handler4          0042e25c f   LIBCMT:exsup4.obj
 0001:0002d6d7       _write_string              0042e6d7 f   LIBCMT:output.obj
 0001:0002d6d7       _write_string              0042e6d7 f   LIBCMT:output.obj
 0001:0002e7ba       _fastzero_I                0042f7ba f   LIBCMT:p4_memset.obj
 0001:0002e8a0       _has_osfxsr_set            0042f8a0 f   LIBCMT:cpu_disp.obj
 0001:0002efe6       __tsopen_nolock            0042ffe6 f   LIBCMT:open.obj
 0001:0002fe23       _fastcopy_I                00430e23 f   LIBCMT:p4_memcpy.obj
 0001:00030c92       __shift                    00431c92 f   LIBCMT:cvt.obj
 0001:00030cd7       __cftoe2_l                 00431cd7 f   LIBCMT:cvt.obj
 0001:000312a9       __cftof2_l                 004322a9 f   LIBCMT:cvt.obj
 0001:000321e6       _siglookup                 004331e6 f   LIBCMT:winsig.obj
 0001:000337aa       ?strtoxl@@YAKPAUlocaleinfo_struct@@PBDPAPBDHH@Z 004347aa f   LIBCMT:strtol.obj
 0001:00033a04       ___check_float_string      00434a04 f   LIBCMT:input.obj
 0001:00033a5b       __hextodec                 00434a5b f   LIBCMT:input.obj
 0001:00033a7b       __inc                      00434a7b f   LIBCMT:input.obj
 0001:00033a91       __un_inc                   00434a91 f   LIBCMT:input.obj
 0001:00033aa4       __whiteout                 00434aa4 f   LIBCMT:input.obj
 0001:00034b2a       _write_char                00435b2a f   LIBCMT:woutputs.obj
 0001:00034b2a       _write_char                00435b2a f   LIBCMT:woutputs.obj
 0001:00034b59       _write_multi_char          00435b59 f   LIBCMT:woutputs.obj
 0001:00034b59       _write_multi_char          00435b59 f   LIBCMT:woutputs.obj
 0001:00034b80       _write_string              00435b80 f   LIBCMT:woutputs.obj
 0001:00034b80       _write_string              00435b80 f   LIBCMT:woutputs.obj
 0001:000358ff       _parse_cmdline             004368ff f   LIBCMT:stdargv.obj
 0001:00035f1e       ?__crtGetStringTypeA_stat@@YAHPAUlocaleinfo_struct@@KPBDHPAGHHH@Z 00436f1e f   LIBCMT:a_str.obj
 0001:00036238       __get_lc_time              00437238 f   LIBCMT:inittime.obj
 0001:00036e7c       _TranslateName             00437e7c f   LIBCMT:getqloc.obj
 0001:00036ede       _ProcessCodePage           00437ede f   LIBCMT:getqloc.obj
 0001:00036f82       _TestDefaultCountry        00437f82 f   LIBCMT:getqloc.obj
 0001:00036fa6       _LcidFromHexString         00437fa6 f   LIBCMT:getqloc.obj
 0001:00036fda       _GetPrimaryLen             00437fda f   LIBCMT:getqloc.obj
 0001:00036ff5       _CountryEnumProc@4         00437ff5 f   LIBCMT:getqloc.obj
 0001:0003708d       _TestDefaultLanguage       0043808d f   LIBCMT:getqloc.obj
 0001:00037101       _LangCountryEnumProc@4     00438101 f   LIBCMT:getqloc.obj
 0001:000372d3       _LanguageEnumProc@4        004382d3 f   LIBCMT:getqloc.obj
 0001:00037394       _GetLcidFromLangCountry    00438394 f   LIBCMT:getqloc.obj
 0001:000373fb       _GetLcidFromLanguage       004383fb f   LIBCMT:getqloc.obj
 0001:00038d97       ?x_ismbbtype_l@@YAHPAUlocaleinfo_struct@@IHH@Z 00439d97 f   LIBCMT:ismbbyte.obj
 0001:00038ff0       __unwind_handler           00439ff0 f   LIBCMT:exsup.obj
 0001:000394f1       _write_char                0043a4f1 f   LIBCMT:outputs.obj
 0001:000394f1       _write_char                0043a4f1 f   LIBCMT:outputs.obj
 0001:00039524       _write_multi_char          0043a524 f   LIBCMT:outputs.obj
 0001:00039524       _write_multi_char          0043a524 f   LIBCMT:outputs.obj
 0001:0003b035       __tzset_nolock             0043c035 f   LIBCMT:tzset.obj
 0001:0003b37b       _cvtdate                   0043c37b f   LIBCMT:tzset.obj
 0001:0003b572       __isindst_nolock           0043c572 f   LIBCMT:tzset.obj
 0001:0003c2a1       ?__crtGetLocaleInfoA_stat@@YAHPAUlocaleinfo_struct@@KKPADHH@Z 0043d2a1 f   LIBCMT:a_loc.obj
 0001:0003ee5d       __hw_cw                    0043fe5d f   LIBCMT:_ieee87_.obj
 0001:0003eeeb       ___hw_cw_sse2              0043feeb f   LIBCMT:_ieee87_.obj
 0001:0003f6be       ?strncnt@@YAHPBDH@Z        004406be f   LIBCMT:a_cmp.obj
 0001:0003f6dc       ?__crtCompareStringA_stat@@YAHPAUlocaleinfo_struct@@KKPBDH1HH@Z 004406dc f   LIBCMT:a_cmp.obj
 0001:0003fb88       _findenv                   00440b88 f   LIBCMT:setenv.obj
 0001:0003fbda       _copy_environ              00440bda f   LIBCMT:setenv.obj
 0001:0003ffb0       __unwindfunclet$?AddString@CParseBuffer@CRegParser@ATL@@QAEHPB_W@Z$0 00440fb0 f   ComSetup.obj
 0001:0003ffb8       __ehhandler$?AddString@CParseBuffer@CRegParser@ATL@@QAEHPB_W@Z 00440fb8 f   ComSetup.obj
 0001:0003ffe0       __unwindfunclet$?PreProcessBuffer@CRegParser@ATL@@QAEJPADPAPAD@Z$0 00440fe0 f   ComSetup.obj
 0001:0003ffe8       __ehhandler$?PreProcessBuffer@CRegParser@ATL@@QAEJPADPAPAD@Z 00440fe8 f   ComSetup.obj
 0001:00040010       __unwindfunclet$?Add@CExpansionVector@ATL@@QAEHPBDPB_W@Z$4 00441010 f   ComSetup.obj
 0001:00040018       __unwindfunclet$?Add@CExpansionVector@ATL@@QAEHPBDPB_W@Z$5 00441018 f   ComSetup.obj
 0001:00040020       __ehhandler$?Add@CExpansionVector@ATL@@QAEHPBDPB_W@Z 00441020 f   ComSetup.obj
 0001:00040040       __unwindfunclet$?AddValue@CRegParser@ATL@@IAEJAAVCRegKey@2@PBDPAD@Z$6 00441040 f   ComSetup.obj
 0001:00040048       __unwindfunclet$?AddValue@CRegParser@ATL@@IAEJAAVCRegKey@2@PBDPAD@Z$5 00441048 f   ComSetup.obj
 0001:00040050       __unwindfunclet$?AddValue@CRegParser@ATL@@IAEJAAVCRegKey@2@PBDPAD@Z$4 00441050 f   ComSetup.obj
 0001:00040058       __ehhandler$?AddValue@CRegParser@ATL@@IAEJAAVCRegKey@2@PBDPAD@Z 00441058 f   ComSetup.obj
 0001:00040080       __unwindfunclet$?RegisterSubkeys@CRegParser@ATL@@IAEJPADPAUHKEY__@@HH@Z$2 00441080 f   ComSetup.obj
 0001:0004008b       __unwindfunclet$?RegisterSubkeys@CRegParser@ATL@@IAEJPADPAUHKEY__@@HH@Z$4 0044108b f   ComSetup.obj
 0001:00040096       __ehhandler$?RegisterSubkeys@CRegParser@ATL@@IAEJPADPAUHKEY__@@HH@Z 00441096 f   ComSetup.obj
 0001:000400d0       __unwindfunclet$?RegisterFromResource@CRegObject@ATL@@IAEJPB_WPBD1H@Z$6 004410d0 f   ComSetup.obj
 0001:000400d8       __unwindfunclet$?RegisterFromResource@CRegObject@ATL@@IAEJPB_WPBD1H@Z$7 004410d8 f   ComSetup.obj
 0001:000400e0       __ehhandler$?RegisterFromResource@CRegObject@ATL@@IAEJPB_WPBD1H@Z 004410e0 f   ComSetup.obj
 0001:00040110       __unwindfunclet$?ResourceUnregister@CRegObject@ATL@@QAGJPB_WI0@Z$0 00441110 f   ComSetup.obj
 0001:00040110       __unwindfunclet$?AddReplacement@CRegObject@ATL@@UAGJPB_W0@Z$0 00441110 f   ComSetup.obj
 0001:00040110       __unwindfunclet$?ResourceRegister@CRegObject@ATL@@QAGJPB_WI0@Z$0 00441110 f   ComSetup.obj
 0001:00040118       __ehhandler$?ResourceUnregister@CRegObject@ATL@@QAGJPB_WI0@Z 00441118 f   ComSetup.obj
 0001:00040118       __ehhandler$?AddReplacement@CRegObject@ATL@@UAGJPB_W0@Z 00441118 f   ComSetup.obj
 0001:00040118       __ehhandler$?ResourceRegister@CRegObject@ATL@@QAGJPB_WI0@Z 00441118 f   ComSetup.obj
 0001:00040140       __unwindfunclet$_DoServiceUninstall$17 00441140 f   Setup.obj
 0001:00040148       __ehhandler$_DoServiceUninstall 00441148 f   Setup.obj
 0001:00040170       __unwindfunclet$_DoDriverUnload$10 00441170 f   Setup.obj
 0001:00040178       __ehhandler$_DoDriverUnload 00441178 f   Setup.obj
 0001:000401b0       __unwindfunclet$_UpgradeBootLoader$3 004411b0 f   Setup.obj
 0001:000401bb       __ehhandler$_UpgradeBootLoader 004411bb f   Setup.obj
 0001:000401f0       __ehhandler$?_Copy@?$basic_string@DU?$char_traits@D@std@@V?$allocator@D@2@@std@@IAEXII@Z 004411f0 f   Setup.obj
 0001:00040210       __unwindfunclet$_DoInstall$9 00441210 f   Setup.obj
 0001:00040218       __unwindfunclet$_DoInstall$10 00441218 f   Setup.obj
 0001:00040234       __unwindfunclet$_DoInstall$11 00441234 f   Setup.obj
 0001:0004024d       __unwindfunclet$_DoInstall$12 0044124d f   Setup.obj
 0001:00040269       __unwindfunclet$_DoInstall$13 00441269 f   Setup.obj
 0001:00040285       __unwindfunclet$_DoInstall$14 00441285 f   Setup.obj
 0001:0004029e       __unwindfunclet$_DoInstall$15 0044129e f   Setup.obj
 0001:000402ba       __unwindfunclet$_DoInstall$16 004412ba f   Setup.obj
 0001:000402d6       __unwindfunclet$_DoInstall$17 004412d6 f   Setup.obj
 0001:000402f4       __unwindfunclet$_DoInstall$18 004412f4 f   Setup.obj
 0001:00040315       __unwindfunclet$_DoInstall$19 00441315 f   Setup.obj
 0001:00040336       __unwindfunclet$_DoInstall$20 00441336 f   Setup.obj
 0001:00040357       __unwindfunclet$_DoInstall$22 00441357 f   Setup.obj
 0001:00040362       __unwindfunclet$_DoInstall$23 00441362 f   Setup.obj
 0001:0004036d       __ehhandler$_DoInstall     0044136d f   Setup.obj
 0001:000403a0       __ehhandler$?_Copy@?$basic_string@_WU?$char_traits@_W@std@@V?$allocator@_W@2@@std@@IAEXII@Z 004413a0 f   Wizard.obj
 0001:000403c0       __ehhandler$?CallDriver@BootEncryption@CipherShed@@QAEXKPAXK0K@Z 004413c0 f   BootEncryption.obj
 0001:000403e0       __unwindfunclet$??0?$basic_streambuf@_WU?$char_traits@_W@std@@@std@@IAE@XZ$0 004413e0 f   BootEncryption.obj
 0001:000403e0       __unwindfunclet$??0?$basic_streambuf@DU?$char_traits@D@std@@@std@@IAE@XZ$0 004413e0 f   BootEncryption.obj
 0001:000403eb       __ehhandler$??0?$basic_streambuf@DU?$char_traits@D@std@@@std@@IAE@XZ 004413eb f   BootEncryption.obj
 0001:000403eb       __ehhandler$??0?$basic_streambuf@_WU?$char_traits@_W@std@@@std@@IAE@XZ 004413eb f   BootEncryption.obj
 0001:00040410       __ehhandler$?_Init@?$numpunct@D@std@@IAEXABV_Locinfo@2@_N@Z 00441410 f   BootEncryption.obj
 0001:00040430       __unwindfunclet$??1?$basic_stringstream@DU?$char_traits@D@std@@V?$allocator@D@2@@std@@UAE@XZ$0 00441430 f   BootEncryption.obj
 0001:0004043b       __ehhandler$??1?$basic_stringstream@DU?$char_traits@D@std@@V?$allocator@D@2@@std@@UAE@XZ 0044143b f   BootEncryption.obj
 0001:00040460       __unwindfunclet$??1?$basic_stringstream@_WU?$char_traits@_W@std@@V?$allocator@_W@2@@std@@UAE@XZ$0 00441460 f   BootEncryption.obj
 0001:0004046b       __ehhandler$??1?$basic_stringstream@_WU?$char_traits@_W@std@@V?$allocator@_W@2@@std@@UAE@XZ 0044146b f   BootEncryption.obj
 0001:00040490       __unwindfunclet$??0?$numpunct@D@std@@QAE@ABV_Locinfo@1@I_N@Z$0 00441490 f   BootEncryption.obj
 0001:00040498       __ehhandler$??0?$numpunct@D@std@@QAE@ABV_Locinfo@1@I_N@Z 00441498 f   BootEncryption.obj
 0001:000404c0       __unwindfunclet$??0?$basic_stringbuf@DU?$char_traits@D@std@@V?$allocator@D@2@@std@@QAE@H@Z$0 004414c0 f   BootEncryption.obj
 0001:000404c8       __ehhandler$??0?$basic_stringbuf@DU?$char_traits@D@std@@V?$allocator@D@2@@std@@QAE@H@Z 004414c8 f   BootEncryption.obj
 0001:000404f0       __unwindfunclet$??0_Locinfo@std@@QAE@ABV?$basic_string@DU?$char_traits@D@std@@V?$allocator@D@2@@1@@Z$0 004414f0 f   BootEncryption.obj
 0001:000404f8       __unwindfunclet$??0_Locinfo@std@@QAE@ABV?$basic_string@DU?$char_traits@D@std@@V?$allocator@D@2@@1@@Z$1 004414f8 f   BootEncryption.obj
 0001:00040503       __unwindfunclet$??0_Locinfo@std@@QAE@ABV?$basic_string@DU?$char_traits@D@std@@V?$allocator@D@2@@1@@Z$2 00441503 f   BootEncryption.obj
 0001:0004050e       __unwindfunclet$??0_Locinfo@std@@QAE@ABV?$basic_string@DU?$char_traits@D@std@@V?$allocator@D@2@@1@@Z$3 0044150e f   BootEncryption.obj
 0001:00040519       __unwindfunclet$??0_Locinfo@std@@QAE@ABV?$basic_string@DU?$char_traits@D@std@@V?$allocator@D@2@@1@@Z$4 00441519 f   BootEncryption.obj
 0001:00040524       __ehhandler$??0_Locinfo@std@@QAE@ABV?$basic_string@DU?$char_traits@D@std@@V?$allocator@D@2@@1@@Z 00441524 f   BootEncryption.obj
 0001:00040540       __unwindfunclet$??1_Locinfo@std@@QAE@XZ$0 00441540 f   BootEncryption.obj
 0001:00040548       __unwindfunclet$??1_Locinfo@std@@QAE@XZ$1 00441548 f   BootEncryption.obj
 0001:00040553       __unwindfunclet$??1_Locinfo@std@@QAE@XZ$2 00441553 f   BootEncryption.obj
 0001:0004055e       __unwindfunclet$??1_Locinfo@std@@QAE@XZ$3 0044155e f   BootEncryption.obj
 0001:00040569       __unwindfunclet$??1_Locinfo@std@@QAE@XZ$4 00441569 f   BootEncryption.obj
 0001:00040574       __ehhandler$??1_Locinfo@std@@QAE@XZ 00441574 f   BootEncryption.obj
 0001:00040590       __unwindfunclet$??0?$_Tree@V?$_Tmap_traits@HPAXU?$less@H@std@@V?$allocator@U?$pair@$$CBHPAX@std@@@2@$0A@@std@@@std@@QAE@ABU?$less@H@1@ABV?$allocator@U?$pair@$$CBHPAX@std@@@1@@Z$0 00441590 f   BootEncryption.obj
 0001:00040590       __unwindfunclet$??0?$_Tree@V?$_Tmap_traits@V?$basic_string@DU?$char_traits@D@std@@V?$allocator@D@2@@std@@PAXU?$less@V?$basic_string@DU?$char_traits@D@std@@V?$allocator@D@2@@std@@@2@V?$allocator@U?$pair@$$CBV?$basic_string@DU?$char_traits@D@std@@V?$allocator@D@2@@std@@PAX@std@@@2@$0A@@std@@@std@@QAE@ABU?$less@V?$basic_string@DU?$char_traits@D@std@@V?$allocator@D@2@@std@@@1@ABV?$allocator@U?$pair@$$CBV?$basic_string@DU?$char_traits@D@std@@V?$allocator@D@2@@std@@PAX@std@@@1@@Z$0 00441590 f   BootEncryption.obj
 0001:00040590       __unwindfunclet$??0?$list@KV?$allocator@K@std@@@std@@QAE@XZ$0 00441590 f   BootEncryption.obj
 0001:00040590       __unwindfunclet$??0?$list@UPartition@CipherShed@@V?$allocator@UPartition@CipherShed@@@std@@@std@@QAE@XZ$0 00441590 f   BootEncryption.obj
 0001:00040598       __ehhandler$??0?$_Tree@V?$_Tmap_traits@HPAXU?$less@H@std@@V?$allocator@U?$pair@$$CBHPAX@std@@@2@$0A@@std@@@std@@QAE@ABU?$less@H@1@ABV?$allocator@U?$pair@$$CBHPAX@std@@@1@@Z 00441598 f   BootEncryption.obj
 0001:00040598       __ehhandler$??0?$_Tree@V?$_Tmap_traits@V?$basic_string@DU?$char_traits@D@std@@V?$allocator@D@2@@std@@PAXU?$less@V?$basic_string@DU?$char_traits@D@std@@V?$allocator@D@2@@std@@@2@V?$allocator@U?$pair@$$CBV?$basic_string@DU?$char_traits@D@std@@V?$allocator@D@2@@std@@PAX@std@@@2@$0A@@std@@@std@@QAE@ABU?$less@V?$basic_string@DU?$char_traits@D@std@@V?$allocator@D@2@@std@@@1@ABV?$allocator@U?$pair@$$CBV?$basic_string@DU?$char_traits@D@std@@V?$allocator@D@2@@std@@PAX@std@@@1@@Z 00441598 f   BootEncryption.obj
 0001:00040598       __ehhandler$??0?$list@KV?$allocator@K@std@@@std@@QAE@XZ 00441598 f   BootEncryption.obj
 0001:00040598       __ehhandler$??0?$list@UPartition@CipherShed@@V?$allocator@UPartition@CipherShed@@@std@@@std@@QAE@XZ 00441598 f   BootEncryption.obj
 0001:000405c0       __unwindfunclet$??$?HDU?$char_traits@D@std@@V?$allocator@D@1@@std@@YA?AV?$basic_string@DU?$char_traits@D@std@@V?$allocator@D@2@@0@ABV10@0@Z$0 004415c0 f   BootEncryption.obj
 0001:000405c0       __unwindfunclet$??$?HDU?$char_traits@D@std@@V?$allocator@D@1@@std@@YA?AV?$basic_string@DU?$char_traits@D@std@@V?$allocator@D@2@@0@ABV10@PBD@Z$0 004415c0 f   BootEncryption.obj
 0001:000405c0       __unwindfunclet$??$?HDU?$char_traits@D@std@@V?$allocator@D@1@@std@@YA?AV?$basic_string@DU?$char_traits@D@std@@V?$allocator@D@2@@0@ABV10@D@Z$0 004415c0 f   BootEncryption.obj
 0001:000405c0       __unwindfunclet$??$?HDU?$char_traits@D@std@@V?$allocator@D@1@@std@@YA?AV?$basic_string@DU?$char_traits@D@std@@V?$allocator@D@2@@0@PBDABV10@@Z$0 004415c0 f   BootEncryption.obj
 0001:000405c8       __ehhandler$??$?HDU?$char_traits@D@std@@V?$allocator@D@1@@std@@YA?AV?$basic_string@DU?$char_traits@D@std@@V?$allocator@D@2@@0@ABV10@0@Z 004415c8 f   BootEncryption.obj
 0001:000405c8       __ehhandler$??$?HDU?$char_traits@D@std@@V?$allocator@D@1@@std@@YA?AV?$basic_string@DU?$char_traits@D@std@@V?$allocator@D@2@@0@ABV10@D@Z 004415c8 f   BootEncryption.obj
 0001:000405c8       __ehhandler$??$?HDU?$char_traits@D@std@@V?$allocator@D@1@@std@@YA?AV?$basic_string@DU?$char_traits@D@std@@V?$allocator@D@2@@0@ABV10@PBD@Z 004415c8 f   BootEncryption.obj
 0001:000405c8       __ehhandler$??$?HDU?$char_traits@D@std@@V?$allocator@D@1@@std@@YA?AV?$basic_string@DU?$char_traits@D@std@@V?$allocator@D@2@@0@PBDABV10@@Z 004415c8 f   BootEncryption.obj
 0001:000405f0       __unwindfunclet$??0logic_error@std@@QAE@ABV?$basic_string@DU?$char_traits@D@std@@V?$allocator@D@2@@1@@Z$0 004415f0 f   BootEncryption.obj
 0001:000405f0       __unwindfunclet$??0runtime_error@std@@QAE@ABV?$basic_string@DU?$char_traits@D@std@@V?$allocator@D@2@@1@@Z$0 004415f0 f   BootEncryption.obj
 0001:000405f8       __ehhandler$??0runtime_error@std@@QAE@ABV?$basic_string@DU?$char_traits@D@std@@V?$allocator@D@2@@1@@Z 004415f8 f   BootEncryption.obj
 0001:000405f8       __ehhandler$??0logic_error@std@@QAE@ABV?$basic_string@DU?$char_traits@D@std@@V?$allocator@D@2@@1@@Z 004415f8 f   BootEncryption.obj
 0001:00040620       __unwindfunclet$?_Getcat@?$ctype@_W@std@@SAIPAPBVfacet@locale@2@PBV42@@Z$0 00441620 f   BootEncryption.obj
 0001:00040620       __unwindfunclet$?_Getcat@?$ctype@D@std@@SAIPAPBVfacet@locale@2@PBV42@@Z$0 00441620 f   BootEncryption.obj
 0001:00040620       __unwindfunclet$?_Getcat@?$num_put@DV?$ostreambuf_iterator@DU?$char_traits@D@std@@@std@@@std@@SAIPAPBVfacet@locale@2@PBV42@@Z$0 00441620 f   BootEncryption.obj
 0001:0004062e       __unwindfunclet$?_Getcat@?$ctype@_W@std@@SAIPAPBVfacet@locale@2@PBV42@@Z$1 0044162e f   BootEncryption.obj
 0001:0004062e       __unwindfunclet$?_Getcat@?$num_put@DV?$ostreambuf_iterator@DU?$char_traits@D@std@@@std@@@std@@SAIPAPBVfacet@locale@2@PBV42@@Z$1 0044162e f   BootEncryption.obj
 0001:0004062e       __unwindfunclet$?_Getcat@?$ctype@D@std@@SAIPAPBVfacet@locale@2@PBV42@@Z$1 0044162e f   BootEncryption.obj
 0001:00040650       __ehhandler$?_Getcat@?$num_put@DV?$ostreambuf_iterator@DU?$char_traits@D@std@@@std@@@std@@SAIPAPBVfacet@locale@2@PBV42@@Z 00441650 f   BootEncryption.obj
 0001:00040650       __ehhandler$?_Getcat@?$ctype@_W@std@@SAIPAPBVfacet@locale@2@PBV42@@Z 00441650 f   BootEncryption.obj
 0001:00040650       __ehhandler$?_Getcat@?$ctype@D@std@@SAIPAPBVfacet@locale@2@PBV42@@Z 00441650 f   BootEncryption.obj
 0001:00040680       __unwindfunclet$??0Partition@CipherShed@@QAE@ABU01@@Z$0 00441680 f   BootEncryption.obj
 0001:00040688       __unwindfunclet$??0Partition@CipherShed@@QAE@ABU01@@Z$1 00441688 f   BootEncryption.obj
 0001:00040693       __ehhandler$??0Partition@CipherShed@@QAE@ABU01@@Z 00441693 f   BootEncryption.obj
 0001:000406b0       __unwindfunclet$??0Finally1734@?BK@??RegisterFilter@BootEncryption@CipherShed@@IAEX_NW4FilterType@23@PBU_GUID@@@Z@QAE@V?$basic_string@DU?$char_traits@D@std@@V?$allocator@D@2@@std@@@Z$0 004416b0 f   BootEncryption.obj
 0001:000406b8       __ehhandler$??0Finally1734@?BK@??RegisterFilter@BootEncryption@CipherShed@@IAEX_NW4FilterType@23@PBU_GUID@@@Z@QAE@V?$basic_string@DU?$char_traits@D@std@@V?$allocator@D@2@@std@@@Z 004416b8 f   BootEncryption.obj
 0001:000406e0       __unwindfunclet$?str@?$basic_stringbuf@DU?$char_traits@D@std@@V?$allocator@D@2@@std@@QBE?AV?$basic_string@DU?$char_traits@D@std@@V?$allocator@D@2@@2@XZ$0 004416e0 f   BootEncryption.obj
 0001:000406e8       __unwindfunclet$?str@?$basic_stringbuf@DU?$char_traits@D@std@@V?$allocator@D@2@@std@@QBE?AV?$basic_string@DU?$char_traits@D@std@@V?$allocator@D@2@@2@XZ$2 004416e8 f   BootEncryption.obj
 0001:000406f0       __unwindfunclet$?str@?$basic_stringbuf@DU?$char_traits@D@std@@V?$allocator@D@2@@std@@QBE?AV?$basic_string@DU?$char_traits@D@std@@V?$allocator@D@2@@2@XZ$3 004416f0 f   BootEncryption.obj
 0001:000406f8       __ehhandler$?str@?$basic_stringbuf@DU?$char_traits@D@std@@V?$allocator@D@2@@std@@QBE?AV?$basic_string@DU?$char_traits@D@std@@V?$allocator@D@2@@2@XZ 004416f8 f   BootEncryption.obj
 0001:00040720       __unwindfunclet$?str@?$basic_stringbuf@_WU?$char_traits@_W@std@@V?$allocator@_W@2@@std@@QBE?AV?$basic_string@_WU?$char_traits@_W@std@@V?$allocator@_W@2@@2@XZ$0 00441720 f   BootEncryption.obj
 0001:00040728       __unwindfunclet$?str@?$basic_stringbuf@_WU?$char_traits@_W@std@@V?$allocator@_W@2@@std@@QBE?AV?$basic_string@_WU?$char_traits@_W@std@@V?$allocator@_W@2@@2@XZ$2 00441728 f   BootEncryption.obj
 0001:00040730       __unwindfunclet$?str@?$basic_stringbuf@_WU?$char_traits@_W@std@@V?$allocator@_W@2@@std@@QBE?AV?$basic_string@_WU?$char_traits@_W@std@@V?$allocator@_W@2@@2@XZ$3 00441730 f   BootEncryption.obj
 0001:00040738       __ehhandler$?str@?$basic_stringbuf@_WU?$char_traits@_W@std@@V?$allocator@_W@2@@std@@QBE?AV?$basic_string@_WU?$char_traits@_W@std@@V?$allocator@_W@2@@2@XZ 00441738 f   BootEncryption.obj
 0001:00040760       __unwindfunclet$??$?H_WU?$char_traits@_W@std@@V?$allocator@_W@1@@std@@YA?AV?$basic_string@_WU?$char_traits@_W@std@@V?$allocator@_W@2@@0@ABV10@PB_W@Z$0 00441760 f   BootEncryption.obj
 0001:00040768       __ehhandler$??$?H_WU?$char_traits@_W@std@@V?$allocator@_W@1@@std@@YA?AV?$basic_string@_WU?$char_traits@_W@std@@V?$allocator@_W@2@@0@ABV10@PB_W@Z 00441768 f   BootEncryption.obj
 0001:00040790       __unwindfunclet$??$_Construct@UPartition@CipherShed@@U12@@std@@YAXPAUPartition@CipherShed@@ABU12@@Z$0 00441790 f   BootEncryption.obj
 0001:000407a1       __ehhandler$??$_Construct@UPartition@CipherShed@@U12@@std@@YAXPAUPartition@CipherShed@@ABU12@@Z 004417a1 f   BootEncryption.obj
 0001:000407c0       __unwindfunclet$?_Getcat@?$numpunct@D@std@@SAIPAPBVfacet@locale@2@PBV42@@Z$0 004417c0 f   BootEncryption.obj
 0001:000407ce       __unwindfunclet$?_Getcat@?$numpunct@D@std@@SAIPAPBVfacet@locale@2@PBV42@@Z$1 004417ce f   BootEncryption.obj
 0001:000407f0       __unwindfunclet$?_Getcat@?$numpunct@D@std@@SAIPAPBVfacet@locale@2@PBV42@@Z$2 004417f0 f   BootEncryption.obj
 0001:0004080f       __ehhandler$?_Getcat@?$numpunct@D@std@@SAIPAPBVfacet@locale@2@PBV42@@Z 0044180f f   BootEncryption.obj
 0001:00040830       __unwindfunclet$?clear@ios_base@std@@QAEXH_N@Z$0 00441830 f   BootEncryption.obj
 0001:00040838       __unwindfunclet$?clear@ios_base@std@@QAEXH_N@Z$1 00441838 f   BootEncryption.obj
 0001:00040840       __unwindfunclet$?clear@ios_base@std@@QAEXH_N@Z$2 00441840 f   BootEncryption.obj
 0001:00040848       __ehhandler$?clear@ios_base@std@@QAEXH_N@Z 00441848 f   BootEncryption.obj
 0001:00040870       __unwindfunclet$??0runtime_error@std@@QAE@ABV01@@Z$0 00441870 f   BootEncryption.obj
 0001:00040870       __unwindfunclet$??0logic_error@std@@QAE@ABV01@@Z$0 00441870 f   BootEncryption.obj
 0001:00040878       __ehhandler$??0runtime_error@std@@QAE@ABV01@@Z 00441878 f   BootEncryption.obj
 0001:00040878       __ehhandler$??0logic_error@std@@QAE@ABV01@@Z 00441878 f   BootEncryption.obj
 0001:000408a0       __unwindfunclet$?Show@ParameterIncorrect@CipherShed@@UBEXPAUHWND__@@@Z$0 004418a0 f   BootEncryption.obj
 0001:000408a8       __unwindfunclet$?Show@ParameterIncorrect@CipherShed@@UBEXPAUHWND__@@@Z$1 004418a8 f   BootEncryption.obj
 0001:000408b0       __ehhandler$?Show@ParameterIncorrect@CipherShed@@UBEXPAUHWND__@@@Z 004418b0 f   BootEncryption.obj
 0001:000408e0       __unwindfunclet$??0File@CipherShed@@QAE@V?$basic_string@DU?$char_traits@D@std@@V?$allocator@D@2@@std@@_N1@Z$2 004418e0 f   BootEncryption.obj
 0001:000408e8       __unwindfunclet$??0File@CipherShed@@QAE@V?$basic_string@DU?$char_traits@D@std@@V?$allocator@D@2@@std@@_N1@Z$3 004418e8 f   BootEncryption.obj
 0001:000408f3       __ehhandler$??0File@CipherShed@@QAE@V?$basic_string@DU?$char_traits@D@std@@V?$allocator@D@2@@std@@_N1@Z 004418f3 f   BootEncryption.obj
 0001:00040910       __unwindfunclet$??0Device@CipherShed@@QAE@V?$basic_string@DU?$char_traits@D@std@@V?$allocator@D@2@@std@@_N@Z$2 00441910 f   BootEncryption.obj
 0001:00040918       __unwindfunclet$??0Device@CipherShed@@QAE@V?$basic_string@DU?$char_traits@D@std@@V?$allocator@D@2@@std@@_N@Z$3 00441918 f   BootEncryption.obj
 0001:00040920       __unwindfunclet$??0Device@CipherShed@@QAE@V?$basic_string@DU?$char_traits@D@std@@V?$allocator@D@2@@std@@_N@Z$4 00441920 f   BootEncryption.obj
 0001:00040928       __ehhandler$??0Device@CipherShed@@QAE@V?$basic_string@DU?$char_traits@D@std@@V?$allocator@D@2@@std@@_N@Z 00441928 f   BootEncryption.obj
 0001:00040950       __unwindfunclet$?GetSystemLoaderBackupPath@BootEncryption@CipherShed@@IAE?AV?$basic_string@DU?$char_traits@D@std@@V?$allocator@D@2@@std@@XZ$0 00441950 f   BootEncryption.obj
 0001:0004095b       __unwindfunclet$?GetSystemLoaderBackupPath@BootEncryption@CipherShed@@IAE?AV?$basic_string@DU?$char_traits@D@std@@V?$allocator@D@2@@std@@XZ$1 0044195b f   BootEncryption.obj
 0001:00040966       __unwindfunclet$?GetSystemLoaderBackupPath@BootEncryption@CipherShed@@IAE?AV?$basic_string@DU?$char_traits@D@std@@V?$allocator@D@2@@std@@XZ$2 00441966 f   BootEncryption.obj
 0001:00040971       __ehhandler$?GetSystemLoaderBackupPath@BootEncryption@CipherShed@@IAE?AV?$basic_string@DU?$char_traits@D@std@@V?$allocator@D@2@@std@@XZ 00441971 f   BootEncryption.obj
 0001:000409a0       __unwindfunclet$?RenameDeprecatedSystemLoaderBackup@BootEncryption@CipherShed@@QAEXXZ$0 004419a0 f   BootEncryption.obj
 0001:000409ab       __unwindfunclet$?RenameDeprecatedSystemLoaderBackup@BootEncryption@CipherShed@@QAEXXZ$1 004419ab f   BootEncryption.obj
 0001:000409b6       __unwindfunclet$?RenameDeprecatedSystemLoaderBackup@BootEncryption@CipherShed@@QAEXXZ$2 004419b6 f   BootEncryption.obj
 0001:000409c1       __unwindfunclet$?RenameDeprecatedSystemLoaderBackup@BootEncryption@CipherShed@@QAEXXZ$3 004419c1 f   BootEncryption.obj
 0001:000409cc       __ehhandler$?RenameDeprecatedSystemLoaderBackup@BootEncryption@CipherShed@@QAEXXZ 004419cc f   BootEncryption.obj
 0001:00040a00       __unwindfunclet$?widen@?$basic_ios@_WU?$char_traits@_W@std@@@std@@QBE_WD@Z$0 00441a00 f   BootEncryption.obj
 0001:00040a00       __unwindfunclet$?widen@?$basic_ios@DU?$char_traits@D@std@@@std@@QBEDD@Z$0 00441a00 f   BootEncryption.obj
 0001:00040a08       __ehhandler$?widen@?$basic_ios@DU?$char_traits@D@std@@@std@@QBEDD@Z 00441a08 f   BootEncryption.obj
 0001:00040a08       __ehhandler$?widen@?$basic_ios@_WU?$char_traits@_W@std@@@std@@QBE_WD@Z 00441a08 f   BootEncryption.obj
 0001:00040a30       __unwindfunclet$??$use_facet@V?$ctype@D@std@@@std@@YAABV?$ctype@D@0@ABVlocale@0@@Z$0 00441a30 f   BootEncryption.obj
 0001:00040a30       __unwindfunclet$??$use_facet@V?$num_put@DV?$ostreambuf_iterator@DU?$char_traits@D@std@@@std@@@std@@@std@@YAABV?$num_put@DV?$ostreambuf_iterator@DU?$char_traits@D@std@@@std@@@0@ABVlocale@0@@Z$0 00441a30 f   BootEncryption.obj
 0001:00040a30       __unwindfunclet$??$use_facet@V?$ctype@_W@std@@@std@@YAABV?$ctype@_W@0@ABVlocale@0@@Z$0 00441a30 f   BootEncryption.obj
 0001:00040a30       __unwindfunclet$??$use_facet@V?$numpunct@D@std@@@std@@YAABV?$numpunct@D@0@ABVlocale@0@@Z$0 00441a30 f   BootEncryption.obj
 0001:00040a38       __ehhandler$??$use_facet@V?$ctype@_W@std@@@std@@YAABV?$ctype@_W@0@ABVlocale@0@@Z 00441a38 f   BootEncryption.obj
 0001:00040a38       __ehhandler$??$use_facet@V?$ctype@D@std@@@std@@YAABV?$ctype@D@0@ABVlocale@0@@Z 00441a38 f   BootEncryption.obj
 0001:00040a38       __ehhandler$??$use_facet@V?$num_put@DV?$ostreambuf_iterator@DU?$char_traits@D@std@@@std@@@std@@@std@@YAABV?$num_put@DV?$ostreambuf_iterator@DU?$char_traits@D@std@@@std@@@0@ABVlocale@0@@Z 00441a38 f   BootEncryption.obj
 0001:00040a38       __ehhandler$??$use_facet@V?$numpunct@D@std@@@std@@YAABV?$numpunct@D@0@ABVlocale@0@@Z 00441a38 f   BootEncryption.obj
 0001:00040a60       __unwindfunclet$?SetDriverServiceStartType@BootEncryption@CipherShed@@QAEXK@Z$0 00441a60 f   BootEncryption.obj
 0001:00040a6b       __unwindfunclet$?SetDriverServiceStartType@BootEncryption@CipherShed@@QAEXK@Z$1 00441a6b f   BootEncryption.obj
 0001:00040a76       __unwindfunclet$?SetDriverServiceStartType@BootEncryption@CipherShed@@QAEXK@Z$2 00441a76 f   BootEncryption.obj
 0001:00040a81       __unwindfunclet$?SetDriverServiceStartType@BootEncryption@CipherShed@@QAEXK@Z$3 00441a81 f   BootEncryption.obj
 0001:00040a8c       __unwindfunclet$?SetDriverServiceStartType@BootEncryption@CipherShed@@QAEXK@Z$4 00441a8c f   BootEncryption.obj
 0001:00040a97       __ehhandler$?SetDriverServiceStartType@BootEncryption@CipherShed@@QAEXK@Z 00441a97 f   BootEncryption.obj
 0001:00040ad0       __unwindfunclet$?do_put@?$num_put@DV?$ostreambuf_iterator@DU?$char_traits@D@std@@@std@@@std@@MBE?AV?$ostreambuf_iterator@DU?$char_traits@D@std@@@2@V32@AAVios_base@2@D_N@Z$0 00441ad0 f   BootEncryption.obj
 0001:00040ad8       __unwindfunclet$?do_put@?$num_put@DV?$ostreambuf_iterator@DU?$char_traits@D@std@@@std@@@std@@MBE?AV?$ostreambuf_iterator@DU?$char_traits@D@std@@@2@V32@AAVios_base@2@D_N@Z$1 00441ad8 f   BootEncryption.obj
 0001:00040ae0       __unwindfunclet$?do_put@?$num_put@DV?$ostreambuf_iterator@DU?$char_traits@D@std@@@std@@@std@@MBE?AV?$ostreambuf_iterator@DU?$char_traits@D@std@@@2@V32@AAVios_base@2@D_N@Z$2 00441ae0 f   BootEncryption.obj
 0001:00040ae8       __unwindfunclet$?do_put@?$num_put@DV?$ostreambuf_iterator@DU?$char_traits@D@std@@@std@@@std@@MBE?AV?$ostreambuf_iterator@DU?$char_traits@D@std@@@2@V32@AAVios_base@2@D_N@Z$3 00441ae8 f   BootEncryption.obj
 0001:00040af0       __ehhandler$?do_put@?$num_put@DV?$ostreambuf_iterator@DU?$char_traits@D@std@@@std@@@std@@MBE?AV?$ostreambuf_iterator@DU?$char_traits@D@std@@@2@V32@AAVios_base@2@D_N@Z 00441af0 f   BootEncryption.obj
 0001:00040b20       __ehhandler$?_Buynode@?$list@UPartition@CipherShed@@V?$allocator@UPartition@CipherShed@@@std@@@std@@IAEPAU_Node@?$_List_nod@UPartition@CipherShed@@V?$allocator@UPartition@CipherShed@@@std@@@2@PAU342@0ABUPartition@CipherShed@@@Z 00441b20 f   BootEncryption.obj
 0001:00040b40       __unwindfunclet$?_Fput@?$num_put@DV?$ostreambuf_iterator@DU?$char_traits@D@std@@@std@@@std@@ABA?AV?$ostreambuf_iterator@DU?$char_traits@D@std@@@2@V32@AAVios_base@2@DPBDIIII@Z$0 00441b40 f   BootEncryption.obj
 0001:00040b48       __unwindfunclet$?_Fput@?$num_put@DV?$ostreambuf_iterator@DU?$char_traits@D@std@@@std@@@std@@ABA?AV?$ostreambuf_iterator@DU?$char_traits@D@std@@@2@V32@AAVios_base@2@DPBDIIII@Z$1 00441b48 f   BootEncryption.obj
 0001:00040b50       __unwindfunclet$?_Fput@?$num_put@DV?$ostreambuf_iterator@DU?$char_traits@D@std@@@std@@@std@@ABA?AV?$ostreambuf_iterator@DU?$char_traits@D@std@@@2@V32@AAVios_base@2@DPBDIIII@Z$2 00441b50 f   BootEncryption.obj
 0001:00040b58       __ehhandler$?_Fput@?$num_put@DV?$ostreambuf_iterator@DU?$char_traits@D@std@@@std@@@std@@ABA?AV?$ostreambuf_iterator@DU?$char_traits@D@std@@@2@V32@AAVios_base@2@DPBDIIII@Z 00441b58 f   BootEncryption.obj
 0001:00040b80       __unwindfunclet$?_Iput@?$num_put@DV?$ostreambuf_iterator@DU?$char_traits@D@std@@@std@@@std@@ABA?AV?$ostreambuf_iterator@DU?$char_traits@D@std@@@2@V32@AAVios_base@2@DPADI@Z$0 00441b80 f   BootEncryption.obj
 0001:00040b88       __unwindfunclet$?_Iput@?$num_put@DV?$ostreambuf_iterator@DU?$char_traits@D@std@@@std@@@std@@ABA?AV?$ostreambuf_iterator@DU?$char_traits@D@std@@@2@V32@AAVios_base@2@DPADI@Z$1 00441b88 f   BootEncryption.obj
 0001:00040b90       __ehhandler$?_Iput@?$num_put@DV?$ostreambuf_iterator@DU?$char_traits@D@std@@@std@@@std@@ABA?AV?$ostreambuf_iterator@DU?$char_traits@D@std@@@2@V32@AAVios_base@2@DPADI@Z 00441b90 f   BootEncryption.obj
 0001:00040bc0       __unwindfunclet$??0sentry@?$basic_ostream@_WU?$char_traits@_W@std@@@std@@QAE@AAV12@@Z$0 00441bc0 f   BootEncryption.obj
 0001:00040bc0       __unwindfunclet$??0sentry@?$basic_ostream@DU?$char_traits@D@std@@@std@@QAE@AAV12@@Z$0 00441bc0 f   BootEncryption.obj
 0001:00040bc8       __ehhandler$??0sentry@?$basic_ostream@_WU?$char_traits@_W@std@@@std@@QAE@AAV12@@Z 00441bc8 f   BootEncryption.obj
 0001:00040bc8       __ehhandler$??0sentry@?$basic_ostream@DU?$char_traits@D@std@@@std@@QAE@AAV12@@Z 00441bc8 f   BootEncryption.obj
 0001:00040bf0       __ehhandler$?_Osfx@?$basic_ostream@DU?$char_traits@D@std@@@std@@QAEXXZ 00441bf0 f   BootEncryption.obj
 0001:00040bf0       __ehhandler$?_Osfx@?$basic_ostream@_WU?$char_traits@_W@std@@@std@@QAEXXZ 00441bf0 f   BootEncryption.obj
 0001:00040c10       __ehhandler$??$_Insert@V?$_Const_iterator@$00@?$list@UPartition@CipherShed@@V?$allocator@UPartition@CipherShed@@@std@@@std@@@?$list@UPartition@CipherShed@@V?$allocator@UPartition@CipherShed@@@std@@@std@@QAEXV?$_Const_iterator@$00@01@00Uforward_iterator_tag@1@@Z 00441c10 f   BootEncryption.obj
 0001:00040c30       __unwindfunclet$??0?$basic_iostream@DU?$char_traits@D@std@@@std@@QAE@PAV?$basic_streambuf@DU?$char_traits@D@std@@@1@@Z$0 00441c30 f   BootEncryption.obj
 0001:00040c4c       __unwindfunclet$??0?$basic_iostream@DU?$char_traits@D@std@@@std@@QAE@PAV?$basic_streambuf@DU?$char_traits@D@std@@@1@@Z$1 00441c4c f   BootEncryption.obj
 0001:00040c57       __ehhandler$??0?$basic_iostream@DU?$char_traits@D@std@@@std@@QAE@PAV?$basic_streambuf@DU?$char_traits@D@std@@@1@@Z 00441c57 f   BootEncryption.obj
 0001:00040c80       __unwindfunclet$??0?$basic_iostream@_WU?$char_traits@_W@std@@@std@@QAE@PAV?$basic_streambuf@_WU?$char_traits@_W@std@@@1@@Z$0 00441c80 f   BootEncryption.obj
 0001:00040c9c       __unwindfunclet$??0?$basic_iostream@_WU?$char_traits@_W@std@@@std@@QAE@PAV?$basic_streambuf@_WU?$char_traits@_W@std@@@1@@Z$1 00441c9c f   BootEncryption.obj
 0001:00040ca7       __ehhandler$??0?$basic_iostream@_WU?$char_traits@_W@std@@@std@@QAE@PAV?$basic_streambuf@_WU?$char_traits@_W@std@@@1@@Z 00441ca7 f   BootEncryption.obj
 0001:00040cd0       __unwindfunclet$??1sentry@?$basic_ostream@_WU?$char_traits@_W@std@@@std@@QAE@XZ$0 00441cd0 f   BootEncryption.obj
 0001:00040cd0       __unwindfunclet$??1sentry@?$basic_ostream@DU?$char_traits@D@std@@@std@@QAE@XZ$0 00441cd0 f   BootEncryption.obj
 0001:00040cd8       __ehhandler$??1sentry@?$basic_ostream@_WU?$char_traits@_W@std@@@std@@QAE@XZ 00441cd8 f   BootEncryption.obj
 0001:00040cd8       __ehhandler$??1sentry@?$basic_ostream@DU?$char_traits@D@std@@@std@@QAE@XZ 00441cd8 f   BootEncryption.obj
 0001:00040d00       __unwindfunclet$??$?6U?$char_traits@D@std@@@std@@YAAAV?$basic_ostream@DU?$char_traits@D@std@@@0@AAV10@PBD@Z$2 00441d00 f   BootEncryption.obj
 0001:00040d08       __ehhandler$??$?6U?$char_traits@D@std@@@std@@YAAAV?$basic_ostream@DU?$char_traits@D@std@@@0@AAV10@PBD@Z 00441d08 f   BootEncryption.obj
 0001:00040d30       __unwindfunclet$??$?6_WU?$char_traits@_W@std@@@std@@YAAAV?$basic_ostream@_WU?$char_traits@_W@std@@@0@AAV10@PBD@Z$2 00441d30 f   BootEncryption.obj
 0001:00040d38       __unwindfunclet$??$?6_WU?$char_traits@_W@std@@@std@@YAAAV?$basic_ostream@_WU?$char_traits@_W@std@@@0@AAV10@PBD@Z$3 00441d38 f   BootEncryption.obj
 0001:00040d40       __unwindfunclet$??$?6_WU?$char_traits@_W@std@@@std@@YAAAV?$basic_ostream@_WU?$char_traits@_W@std@@@0@AAV10@PBD@Z$10 00441d40 f   BootEncryption.obj
 0001:00040d48       __ehhandler$??$?6_WU?$char_traits@_W@std@@@std@@YAAAV?$basic_ostream@_WU?$char_traits@_W@std@@@0@AAV10@PBD@Z 00441d48 f   BootEncryption.obj
 0001:00040d70       __unwindfunclet$??0SystemDriveConfiguration@CipherShed@@QAE@XZ$0 00441d70 f   BootEncryption.obj
 0001:00040d78       __unwindfunclet$??0SystemDriveConfiguration@CipherShed@@QAE@XZ$1 00441d78 f   BootEncryption.obj
 0001:00040d83       __unwindfunclet$??0SystemDriveConfiguration@CipherShed@@QAE@XZ$2 00441d83 f   BootEncryption.obj
 0001:00040d8e       __ehhandler$??0SystemDriveConfiguration@CipherShed@@QAE@XZ 00441d8e f   BootEncryption.obj
 0001:00040db0       __unwindfunclet$??6?$basic_ostream@DU?$char_traits@D@std@@@std@@QAEAAV01@H@Z$2 00441db0 f   BootEncryption.obj
 0001:00040db8       __unwindfunclet$??6?$basic_ostream@DU?$char_traits@D@std@@@std@@QAEAAV01@H@Z$3 00441db8 f   BootEncryption.obj
 0001:00040dc0       __ehhandler$??6?$basic_ostream@DU?$char_traits@D@std@@@std@@QAEAAV01@H@Z 00441dc0 f   BootEncryption.obj
 0001:00040de0       __unwindfunclet$??0?$list@UPartition@CipherShed@@V?$allocator@UPartition@CipherShed@@@std@@@std@@QAE@ABV01@@Z$2 00441de0 f   BootEncryption.obj
 0001:00040de8       __ehhandler$??0?$list@UPartition@CipherShed@@V?$allocator@UPartition@CipherShed@@@std@@@std@@QAE@ABV01@@Z 00441de8 f   BootEncryption.obj
 0001:00040e10       __unwindfunclet$??0?$basic_stringstream@DU?$char_traits@D@std@@V?$allocator@D@2@@std@@QAE@H@Z$0 00441e10 f   BootEncryption.obj
 0001:00040e2c       __unwindfunclet$??0?$basic_stringstream@DU?$char_traits@D@std@@V?$allocator@D@2@@std@@QAE@H@Z$1 00441e2c f   BootEncryption.obj
 0001:00040e37       __ehhandler$??0?$basic_stringstream@DU?$char_traits@D@std@@V?$allocator@D@2@@std@@QAE@H@Z 00441e37 f   BootEncryption.obj
 0001:00040e60       __unwindfunclet$??0?$ContainerForward@V?$list@UPartition@CipherShed@@V?$allocator@UPartition@CipherShed@@@std@@@std@@@ForEach@CipherShed@@QAE@ABV?$list@UPartition@CipherShed@@V?$allocator@UPartition@CipherShed@@@std@@@std@@@Z$0 00441e60 f   BootEncryption.obj
 0001:00040e60       __unwindfunclet$??0?$ContainerForward@V?$list@KV?$allocator@K@std@@@std@@@ForEach@CipherShed@@QAE@ABV?$list@KV?$allocator@K@std@@@std@@@Z$0 00441e60 f   BootEncryption.obj
 0001:00040e68       __ehhandler$??0?$ContainerForward@V?$list@KV?$allocator@K@std@@@std@@@ForEach@CipherShed@@QAE@ABV?$list@KV?$allocator@K@std@@@std@@@Z 00441e68 f   BootEncryption.obj
 0001:00040e68       __ehhandler$??0?$ContainerForward@V?$list@UPartition@CipherShed@@V?$allocator@UPartition@CipherShed@@@std@@@std@@@ForEach@CipherShed@@QAE@ABV?$list@UPartition@CipherShed@@V?$allocator@UPartition@CipherShed@@@std@@@std@@@Z 00441e68 f   BootEncryption.obj
 0001:00040e90       __unwindfunclet$?GetDrivePartitions@BootEncryption@CipherShed@@IAE?AV?$list@UPartition@CipherShed@@V?$allocator@UPartition@CipherShed@@@std@@@std@@H@Z$2 00441e90 f   BootEncryption.obj
 0001:00040ea9       __unwindfunclet$?GetDrivePartitions@BootEncryption@CipherShed@@IAE?AV?$list@UPartition@CipherShed@@V?$allocator@UPartition@CipherShed@@@std@@@std@@H@Z$13 00441ea9 f   BootEncryption.obj
 0001:00040ec2       __unwindfunclet$?GetDrivePartitions@BootEncryption@CipherShed@@IAE?AV?$list@UPartition@CipherShed@@V?$allocator@UPartition@CipherShed@@@std@@@std@@H@Z$14 00441ec2 f   BootEncryption.obj
 0001:00040ecd       __unwindfunclet$?GetDrivePartitions@BootEncryption@CipherShed@@IAE?AV?$list@UPartition@CipherShed@@V?$allocator@UPartition@CipherShed@@@std@@@std@@H@Z$16 00441ecd f   BootEncryption.obj
 0001:00040ed8       __unwindfunclet$?GetDrivePartitions@BootEncryption@CipherShed@@IAE?AV?$list@UPartition@CipherShed@@V?$allocator@UPartition@CipherShed@@@std@@@std@@H@Z$3 00441ed8 f   BootEncryption.obj
 0001:00040ee3       __unwindfunclet$?GetDrivePartitions@BootEncryption@CipherShed@@IAE?AV?$list@UPartition@CipherShed@@V?$allocator@UPartition@CipherShed@@@std@@@std@@H@Z$5 00441ee3 f   BootEncryption.obj
 0001:00040eee       __unwindfunclet$?GetDrivePartitions@BootEncryption@CipherShed@@IAE?AV?$list@UPartition@CipherShed@@V?$allocator@UPartition@CipherShed@@@std@@@std@@H@Z$6 00441eee f   BootEncryption.obj
 0001:00040ef9       __unwindfunclet$?GetDrivePartitions@BootEncryption@CipherShed@@IAE?AV?$list@UPartition@CipherShed@@V?$allocator@UPartition@CipherShed@@@std@@@std@@H@Z$17 00441ef9 f   BootEncryption.obj
 0001:00040f15       __unwindfunclet$?GetDrivePartitions@BootEncryption@CipherShed@@IAE?AV?$list@UPartition@CipherShed@@V?$allocator@UPartition@CipherShed@@@std@@@std@@H@Z$18 00441f15 f   BootEncryption.obj
 0001:00040f20       __unwindfunclet$?GetDrivePartitions@BootEncryption@CipherShed@@IAE?AV?$list@UPartition@CipherShed@@V?$allocator@UPartition@CipherShed@@@std@@@std@@H@Z$20 00441f20 f   BootEncryption.obj
 0001:00040f2b       __unwindfunclet$?GetDrivePartitions@BootEncryption@CipherShed@@IAE?AV?$list@UPartition@CipherShed@@V?$allocator@UPartition@CipherShed@@@std@@@std@@H@Z$7 00441f2b f   BootEncryption.obj
 0001:00040f36       __unwindfunclet$?GetDrivePartitions@BootEncryption@CipherShed@@IAE?AV?$list@UPartition@CipherShed@@V?$allocator@UPartition@CipherShed@@@std@@@std@@H@Z$8 00441f36 f   BootEncryption.obj
 0001:00040f41       __unwindfunclet$?GetDrivePartitions@BootEncryption@CipherShed@@IAE?AV?$list@UPartition@CipherShed@@V?$allocator@UPartition@CipherShed@@@std@@@std@@H@Z$11 00441f41 f   BootEncryption.obj
 0001:00040f4c       __ehhandler$?GetDrivePartitions@BootEncryption@CipherShed@@IAE?AV?$list@UPartition@CipherShed@@V?$allocator@UPartition@CipherShed@@@std@@@std@@H@Z 00441f4c f   BootEncryption.obj
 0001:00040f80       __unwindfunclet$??0SystemDriveConfiguration@CipherShed@@QAE@ABU01@@Z$0 00441f80 f   BootEncryption.obj
 0001:00040f88       __unwindfunclet$??0SystemDriveConfiguration@CipherShed@@QAE@ABU01@@Z$1 00441f88 f   BootEncryption.obj
 0001:00040f93       __unwindfunclet$??0SystemDriveConfiguration@CipherShed@@QAE@ABU01@@Z$2 00441f93 f   BootEncryption.obj
 0001:00040f9e       __unwindfunclet$??0SystemDriveConfiguration@CipherShed@@QAE@ABU01@@Z$3 00441f9e f   BootEncryption.obj
 0001:00040fac       __ehhandler$??0SystemDriveConfiguration@CipherShed@@QAE@ABU01@@Z 00441fac f   BootEncryption.obj
 0001:00040fd0       __unwindfunclet$?Write@File@CipherShed@@QAEXPAEK@Z$2 00441fd0 f   BootEncryption.obj
 0001:00040fd8       __ehhandler$?Write@File@CipherShed@@QAEXPAEK@Z 00441fd8 f   BootEncryption.obj
 0001:00041000       __unwindfunclet$?RegisterFilter@BootEncryption@CipherShed@@IAEX_NW4FilterType@12@PBU_GUID@@@Z$0 00442000 f   BootEncryption.obj
 0001:0004100b       __unwindfunclet$?RegisterFilter@BootEncryption@CipherShed@@IAEX_NW4FilterType@12@PBU_GUID@@@Z$1 0044200b f   BootEncryption.obj
 0001:00041016       __unwindfunclet$?RegisterFilter@BootEncryption@CipherShed@@IAEX_NW4FilterType@12@PBU_GUID@@@Z$2 00442016 f   BootEncryption.obj
 0001:00041021       __unwindfunclet$?RegisterFilter@BootEncryption@CipherShed@@IAEX_NW4FilterType@12@PBU_GUID@@@Z$3 00442021 f   BootEncryption.obj
 0001:0004102c       __unwindfunclet$?RegisterFilter@BootEncryption@CipherShed@@IAEX_NW4FilterType@12@PBU_GUID@@@Z$4 0044202c f   BootEncryption.obj
 0001:00041037       __unwindfunclet$?RegisterFilter@BootEncryption@CipherShed@@IAEX_NW4FilterType@12@PBU_GUID@@@Z$6 00442037 f   BootEncryption.obj
 0001:00041042       __unwindfunclet$?RegisterFilter@BootEncryption@CipherShed@@IAEX_NW4FilterType@12@PBU_GUID@@@Z$8 00442042 f   BootEncryption.obj
 0001:0004104d       __unwindfunclet$?RegisterFilter@BootEncryption@CipherShed@@IAEX_NW4FilterType@12@PBU_GUID@@@Z$9 0044204d f   BootEncryption.obj
 0001:00041058       __unwindfunclet$?RegisterFilter@BootEncryption@CipherShed@@IAEX_NW4FilterType@12@PBU_GUID@@@Z$10 00442058 f   BootEncryption.obj
 0001:00041063       __unwindfunclet$?RegisterFilter@BootEncryption@CipherShed@@IAEX_NW4FilterType@12@PBU_GUID@@@Z$11 00442063 f   BootEncryption.obj
 0001:0004106e       __unwindfunclet$?RegisterFilter@BootEncryption@CipherShed@@IAEX_NW4FilterType@12@PBU_GUID@@@Z$12 0044206e f   BootEncryption.obj
 0001:00041079       __unwindfunclet$?RegisterFilter@BootEncryption@CipherShed@@IAEX_NW4FilterType@12@PBU_GUID@@@Z$13 00442079 f   BootEncryption.obj
 0001:00041084       __unwindfunclet$?RegisterFilter@BootEncryption@CipherShed@@IAEX_NW4FilterType@12@PBU_GUID@@@Z$14 00442084 f   BootEncryption.obj
 0001:0004108f       __unwindfunclet$?RegisterFilter@BootEncryption@CipherShed@@IAEX_NW4FilterType@12@PBU_GUID@@@Z$15 0044208f f   BootEncryption.obj
 0001:0004109a       __unwindfunclet$?RegisterFilter@BootEncryption@CipherShed@@IAEX_NW4FilterType@12@PBU_GUID@@@Z$16 0044209a f   BootEncryption.obj
 0001:000410a5       __unwindfunclet$?RegisterFilter@BootEncryption@CipherShed@@IAEX_NW4FilterType@12@PBU_GUID@@@Z$17 004420a5 f   BootEncryption.obj
 0001:000410b0       __unwindfunclet$?RegisterFilter@BootEncryption@CipherShed@@IAEX_NW4FilterType@12@PBU_GUID@@@Z$18 004420b0 f   BootEncryption.obj
 0001:000410bb       __unwindfunclet$?RegisterFilter@BootEncryption@CipherShed@@IAEX_NW4FilterType@12@PBU_GUID@@@Z$19 004420bb f   BootEncryption.obj
 0001:000410c6       __ehhandler$?RegisterFilter@BootEncryption@CipherShed@@IAEX_NW4FilterType@12@PBU_GUID@@@Z 004420c6 f   BootEncryption.obj
 0001:00041100       __unwindfunclet$?GetSystemDriveConfiguration@BootEncryption@CipherShed@@QAE?AUSystemDriveConfiguration@2@XZ$0 00442100 f   BootEncryption.obj
 0001:00041122       __unwindfunclet$?GetSystemDriveConfiguration@BootEncryption@CipherShed@@QAE?AUSystemDriveConfiguration@2@XZ$1 00442122 f   BootEncryption.obj
 0001:0004112d       __unwindfunclet$?GetSystemDriveConfiguration@BootEncryption@CipherShed@@QAE?AUSystemDriveConfiguration@2@XZ$2 0044212d f   BootEncryption.obj
 0001:00041138       __unwindfunclet$?GetSystemDriveConfiguration@BootEncryption@CipherShed@@QAE?AUSystemDriveConfiguration@2@XZ$3 00442138 f   BootEncryption.obj
 0001:00041143       __unwindfunclet$?GetSystemDriveConfiguration@BootEncryption@CipherShed@@QAE?AUSystemDriveConfiguration@2@XZ$4 00442143 f   BootEncryption.obj
 0001:0004114e       __unwindfunclet$?GetSystemDriveConfiguration@BootEncryption@CipherShed@@QAE?AUSystemDriveConfiguration@2@XZ$5 0044214e f   BootEncryption.obj
 0001:00041170       __unwindfunclet$?GetSystemDriveConfiguration@BootEncryption@CipherShed@@QAE?AUSystemDriveConfiguration@2@XZ$7 00442170 f   BootEncryption.obj
 0001:00041192       __unwindfunclet$?GetSystemDriveConfiguration@BootEncryption@CipherShed@@QAE?AUSystemDriveConfiguration@2@XZ$9 00442192 f   BootEncryption.obj
 0001:000411b4       __unwindfunclet$?GetSystemDriveConfiguration@BootEncryption@CipherShed@@QAE?AUSystemDriveConfiguration@2@XZ$16 004421b4 f   BootEncryption.obj
 0001:000411db       __unwindfunclet$?GetSystemDriveConfiguration@BootEncryption@CipherShed@@QAE?AUSystemDriveConfiguration@2@XZ$17 004421db f   BootEncryption.obj
 0001:000411e6       __unwindfunclet$?GetSystemDriveConfiguration@BootEncryption@CipherShed@@QAE?AUSystemDriveConfiguration@2@XZ$19 004421e6 f   BootEncryption.obj
 0001:000411f1       __unwindfunclet$?GetSystemDriveConfiguration@BootEncryption@CipherShed@@QAE?AUSystemDriveConfiguration@2@XZ$11 004421f1 f   BootEncryption.obj
 0001:000411fc       __unwindfunclet$?GetSystemDriveConfiguration@BootEncryption@CipherShed@@QAE?AUSystemDriveConfiguration@2@XZ$12 004421fc f   BootEncryption.obj
 0001:00041207       __unwindfunclet$?GetSystemDriveConfiguration@BootEncryption@CipherShed@@QAE?AUSystemDriveConfiguration@2@XZ$20 00442207 f   BootEncryption.obj
 0001:0004122e       __unwindfunclet$?GetSystemDriveConfiguration@BootEncryption@CipherShed@@QAE?AUSystemDriveConfiguration@2@XZ$21 0044222e f   BootEncryption.obj
 0001:00041239       __unwindfunclet$?GetSystemDriveConfiguration@BootEncryption@CipherShed@@QAE?AUSystemDriveConfiguration@2@XZ$23 00442239 f   BootEncryption.obj
 0001:00041244       __unwindfunclet$?GetSystemDriveConfiguration@BootEncryption@CipherShed@@QAE?AUSystemDriveConfiguration@2@XZ$13 00442244 f   BootEncryption.obj
 0001:0004124f       __unwindfunclet$?GetSystemDriveConfiguration@BootEncryption@CipherShed@@QAE?AUSystemDriveConfiguration@2@XZ$14 0044224f f   BootEncryption.obj
 0001:0004125a       __unwindfunclet$?GetSystemDriveConfiguration@BootEncryption@CipherShed@@QAE?AUSystemDriveConfiguration@2@XZ$15 0044225a f   BootEncryption.obj
 0001:00041265       __ehhandler$?GetSystemDriveConfiguration@BootEncryption@CipherShed@@QAE?AUSystemDriveConfiguration@2@XZ 00442265 f   BootEncryption.obj
 0001:000412a0       __unwindfunclet$?CreateBootLoaderInMemory@BootEncryption@CipherShed@@IAEXPAEI_N1@Z$4 004422a0 f   BootEncryption.obj
 0001:000412ab       __unwindfunclet$?CreateBootLoaderInMemory@BootEncryption@CipherShed@@IAEXPAEI_N1@Z$6 004422ab f   BootEncryption.obj
 0001:000412b6       __ehhandler$?CreateBootLoaderInMemory@BootEncryption@CipherShed@@IAEXPAEI_N1@Z 004422b6 f   BootEncryption.obj
 0001:000412e0       __unwindfunclet$?InstallBootLoader@BootEncryption@CipherShed@@QAEX_N0@Z$0 004422e0 f   BootEncryption.obj
 0001:000412eb       __unwindfunclet$?InstallBootLoader@BootEncryption@CipherShed@@QAEX_N0@Z$2 004422eb f   BootEncryption.obj
 0001:000412f6       __ehhandler$?InstallBootLoader@BootEncryption@CipherShed@@QAEX_N0@Z 004422f6 f   BootEncryption.obj
 0001:00041330       __unwindfunclet$?_Insert@?$_Tree@V?$_Tmap_traits@V?$basic_string@DU?$char_traits@D@std@@V?$allocator@D@2@@std@@PAXU?$less@V?$basic_string@DU?$char_traits@D@std@@V?$allocator@D@2@@std@@@2@V?$allocator@U?$pair@$$CBV?$basic_string@DU?$char_traits@D@std@@V?$allocator@D@2@@std@@PAX@std@@@2@$0A@@std@@@std@@IAE?AViterator@12@_NPAU_Node@?$_Tree_nod@V?$_Tmap_traits@V?$basic_string@DU?$char_traits@D@std@@V?$allocator@D@2@@std@@PAXU?$less@V?$basic_string@DU?$char_traits@D@std@@V?$allocator@D@2@@std@@@2@V?$allocator@U?$pair@$$CBV?$basic_string@DU?$char_traits@D@std@@V?$allocator@D@2@@std@@PAX@std@@@2@$0A@@std@@@2@ABU?$pair@$$CBV?$basic_string@DU?$char_traits@D@std@@V?$allocator@D@2@@std@@PAX@2@@Z$0 00442330 f   Dictionary.obj
 0001:00041330       __unwindfunclet$?_Insert@?$_Tree@V?$_Tmap_traits@HPAXU?$less@H@std@@V?$allocator@U?$pair@$$CBHPAX@std@@@2@$0A@@std@@@std@@IAE?AViterator@12@_NPAU_Node@?$_Tree_nod@V?$_Tmap_traits@HPAXU?$less@H@std@@V?$allocator@U?$pair@$$CBHPAX@std@@@2@$0A@@std@@@2@ABU?$pair@$$CBHPAX@2@@Z$0 00442330 f   Dictionary.obj
 0001:00041338       __ehhandler$?_Insert@?$_Tree@V?$_Tmap_traits@HPAXU?$less@H@std@@V?$allocator@U?$pair@$$CBHPAX@std@@@2@$0A@@std@@@std@@IAE?AViterator@12@_NPAU_Node@?$_Tree_nod@V?$_Tmap_traits@HPAXU?$less@H@std@@V?$allocator@U?$pair@$$CBHPAX@std@@@2@$0A@@std@@@2@ABU?$pair@$$CBHPAX@2@@Z 00442338 f   Dictionary.obj
 0001:00041338       __ehhandler$?_Insert@?$_Tree@V?$_Tmap_traits@V?$basic_string@DU?$char_traits@D@std@@V?$allocator@D@2@@std@@PAXU?$less@V?$basic_string@DU?$char_traits@D@std@@V?$allocator@D@2@@std@@@2@V?$allocator@U?$pair@$$CBV?$basic_string@DU?$char_traits@D@std@@V?$allocator@D@2@@std@@PAX@std@@@2@$0A@@std@@@std@@IAE?AViterator@12@_NPAU_Node@?$_Tree_nod@V?$_Tmap_traits@V?$basic_string@DU?$char_traits@D@std@@V?$allocator@D@2@@std@@PAXU?$less@V?$basic_string@DU?$char_traits@D@std@@V?$allocator@D@2@@std@@@2@V?$allocator@U?$pair@$$CBV?$basic_string@DU?$char_traits@D@std@@V?$allocator@D@2@@std@@PAX@std@@@2@$0A@@std@@@2@ABU?$pair@$$CBV?$basic_string@DU?$char_traits@D@std@@V?$allocator@D@2@@std@@PAX@2@@Z 00442338 f   Dictionary.obj
 0001:00041360       __unwindfunclet$?erase@?$_Tree@V?$_Tmap_traits@V?$basic_string@DU?$char_traits@D@std@@V?$allocator@D@2@@std@@PAXU?$less@V?$basic_string@DU?$char_traits@D@std@@V?$allocator@D@2@@std@@@2@V?$allocator@U?$pair@$$CBV?$basic_string@DU?$char_traits@D@std@@V?$allocator@D@2@@std@@PAX@std@@@2@$0A@@std@@@std@@QAE?AViterator@12@Vconst_iterator@12@@Z$0 00442360 f   Dictionary.obj
 0001:00041360       __unwindfunclet$?erase@?$_Tree@V?$_Tmap_traits@HPAXU?$less@H@std@@V?$allocator@U?$pair@$$CBHPAX@std@@@2@$0A@@std@@@std@@QAE?AViterator@12@Vconst_iterator@12@@Z$0 00442360 f   Dictionary.obj
 0001:00041368       __ehhandler$?erase@?$_Tree@V?$_Tmap_traits@HPAXU?$less@H@std@@V?$allocator@U?$pair@$$CBHPAX@std@@@2@$0A@@std@@@std@@QAE?AViterator@12@Vconst_iterator@12@@Z 00442368 f   Dictionary.obj
 0001:00041368       __ehhandler$?erase@?$_Tree@V?$_Tmap_traits@V?$basic_string@DU?$char_traits@D@std@@V?$allocator@D@2@@std@@PAXU?$less@V?$basic_string@DU?$char_traits@D@std@@V?$allocator@D@2@@std@@@2@V?$allocator@U?$pair@$$CBV?$basic_string@DU?$char_traits@D@std@@V?$allocator@D@2@@std@@PAX@std@@@2@$0A@@std@@@std@@QAE?AViterator@12@Vconst_iterator@12@@Z 00442368 f   Dictionary.obj
 0001:00041390       __unwindfunclet$?_Buynode@?$_Tree@V?$_Tmap_traits@V?$basic_string@DU?$char_traits@D@std@@V?$allocator@D@2@@std@@PAXU?$less@V?$basic_string@DU?$char_traits@D@std@@V?$allocator@D@2@@std@@@2@V?$allocator@U?$pair@$$CBV?$basic_string@DU?$char_traits@D@std@@V?$allocator@D@2@@std@@PAX@std@@@2@$0A@@std@@@std@@IAEPAU_Node@?$_Tree_nod@V?$_Tmap_traits@V?$basic_string@DU?$char_traits@D@std@@V?$allocator@D@2@@std@@PAXU?$less@V?$basic_string@DU?$char_traits@D@std@@V?$allocator@D@2@@std@@@2@V?$allocator@U?$pair@$$CBV?$basic_string@DU?$char_traits@D@std@@V?$allocator@D@2@@std@@PAX@std@@@2@$0A@@std@@@2@PAU342@00ABU?$pair@$$CBV?$basic_string@DU?$char_traits@D@std@@V?$allocator@D@2@@std@@PAX@2@D@Z$2 00442390 f   Dictionary.obj
 0001:000413a1       __ehhandler$?_Buynode@?$_Tree@V?$_Tmap_traits@V?$basic_string@DU?$char_traits@D@std@@V?$allocator@D@2@@std@@PAXU?$less@V?$basic_string@DU?$char_traits@D@std@@V?$allocator@D@2@@std@@@2@V?$allocator@U?$pair@$$CBV?$basic_string@DU?$char_traits@D@std@@V?$allocator@D@2@@std@@PAX@std@@@2@$0A@@std@@@std@@IAEPAU_Node@?$_Tree_nod@V?$_Tmap_traits@V?$basic_string@DU?$char_traits@D@std@@V?$allocator@D@2@@std@@PAXU?$less@V?$basic_string@DU?$char_traits@D@std@@V?$allocator@D@2@@std@@@2@V?$allocator@U?$pair@$$CBV?$basic_string@DU?$char_traits@D@std@@V?$allocator@D@2@@std@@PAX@std@@@2@$0A@@std@@@2@PAU342@00ABU?$pair@$$CBV?$basic_string@DU?$char_traits@D@std@@V?$allocator@D@2@@std@@PAX@2@D@Z 004423a1 f   Dictionary.obj
 0001:000413c0       __unwindfunclet$??1?$_Tree@V?$_Tmap_traits@V?$basic_string@DU?$char_traits@D@std@@V?$allocator@D@2@@std@@PAXU?$less@V?$basic_string@DU?$char_traits@D@std@@V?$allocator@D@2@@std@@@2@V?$allocator@U?$pair@$$CBV?$basic_string@DU?$char_traits@D@std@@V?$allocator@D@2@@std@@PAX@std@@@2@$0A@@std@@@std@@QAE@XZ$0 004423c0 f   Dictionary.obj
 0001:000413c0       __unwindfunclet$??1?$_Tree@V?$_Tmap_traits@HPAXU?$less@H@std@@V?$allocator@U?$pair@$$CBHPAX@std@@@2@$0A@@std@@@std@@QAE@XZ$0 004423c0 f   Dictionary.obj
 0001:000413c8       __ehhandler$??1?$_Tree@V?$_Tmap_traits@V?$basic_string@DU?$char_traits@D@std@@V?$allocator@D@2@@std@@PAXU?$less@V?$basic_string@DU?$char_traits@D@std@@V?$allocator@D@2@@std@@@2@V?$allocator@U?$pair@$$CBV?$basic_string@DU?$char_traits@D@std@@V?$allocator@D@2@@std@@PAX@std@@@2@$0A@@std@@@std@@QAE@XZ 004423c8 f   Dictionary.obj
 0001:000413c8       __ehhandler$??1?$_Tree@V?$_Tmap_traits@HPAXU?$less@H@std@@V?$allocator@U?$pair@$$CBHPAX@std@@@2@$0A@@std@@@std@@QAE@XZ 004423c8 f   Dictionary.obj
 0001:000413f0       __unwindfunclet$??A?$map@V?$basic_string@DU?$char_traits@D@std@@V?$allocator@D@2@@std@@PAXU?$less@V?$basic_string@DU?$char_traits@D@std@@V?$allocator@D@2@@std@@@2@V?$allocator@U?$pair@$$CBV?$basic_string@DU?$char_traits@D@std@@V?$allocator@D@2@@std@@PAX@std@@@2@@std@@QAEAAPAXABV?$basic_string@DU?$char_traits@D@std@@V?$allocator@D@2@@1@@Z$0 004423f0 f   Dictionary.obj
 0001:000413f8       __ehhandler$??A?$map@V?$basic_string@DU?$char_traits@D@std@@V?$allocator@D@2@@std@@PAXU?$less@V?$basic_string@DU?$char_traits@D@std@@V?$allocator@D@2@@std@@@2@V?$allocator@U?$pair@$$CBV?$basic_string@DU?$char_traits@D@std@@V?$allocator@D@2@@std@@PAX@std@@@2@@std@@QAEAAPAXABV?$basic_string@DU?$char_traits@D@std@@V?$allocator@D@2@@1@@Z 004423f8 f   Dictionary.obj
 0001:00041420       __unwindfunclet$_IsHiddenOSRunning$2 00442420 f   Dlgcode.obj
 0001:0004142b       __ehhandler$_IsHiddenOSRunning 0044242b f   Dlgcode.obj
 0001:00041450       __unwindfunclet$_DriverUnload$6 00442450 f   Dlgcode.obj
 0001:0004145b       __ehhandler$_DriverUnload  0044245b f   Dlgcode.obj
 0001:00041480       __unwindfunclet$?_Incsize@?$list@UPartition@CipherShed@@V?$allocator@UPartition@CipherShed@@@std@@@std@@IAEXI@Z$0 00442480 f   Dlgcode.obj
 0001:00041480       __unwindfunclet$?_Incsize@?$list@KV?$allocator@K@std@@@std@@IAEXI@Z$0 00442480 f   Dlgcode.obj
 0001:00041488       __ehhandler$?_Incsize@?$list@KV?$allocator@K@std@@@std@@IAEXI@Z 00442488 f   Dlgcode.obj
 0001:00041488       __ehhandler$?_Incsize@?$list@UPartition@CipherShed@@V?$allocator@UPartition@CipherShed@@@std@@@std@@IAEXI@Z 00442488 f   Dlgcode.obj
 0001:000414b0       __unwindfunclet$?GetServiceConfigPath@@YA?AV?$basic_string@DU?$char_traits@D@std@@V?$allocator@D@2@@std@@PBD@Z$0 004424b0 f   Dlgcode.obj
 0001:000414bb       __unwindfunclet$?GetServiceConfigPath@@YA?AV?$basic_string@DU?$char_traits@D@std@@V?$allocator@D@2@@std@@PBD@Z$1 004424bb f   Dlgcode.obj
 0001:000414c6       __ehhandler$?GetServiceConfigPath@@YA?AV?$basic_string@DU?$char_traits@D@std@@V?$allocator@D@2@@std@@PBD@Z 004424c6 f   Dlgcode.obj
 0001:00041500       __ehhandler$??$_Insert@V?$_Const_iterator@$00@?$list@KV?$allocator@K@std@@@std@@@?$list@KV?$allocator@K@std@@@std@@QAEXV?$_Const_iterator@$00@01@00Uforward_iterator_tag@1@@Z 00442500 f   Dlgcode.obj
 0001:00041520       __unwindfunclet$??0?$list@KV?$allocator@K@std@@@std@@QAE@ABV01@@Z$2 00442520 f   Dlgcode.obj
 0001:00041528       __ehhandler$??0?$list@KV?$allocator@K@std@@@std@@QAE@ABV01@@Z 00442528 f   Dlgcode.obj
 0001:00041550       __unwindfunclet$??6?$basic_ostream@DU?$char_traits@D@std@@@std@@QAEAAV01@K@Z$2 00442550 f   Dlgcode.obj
 0001:00041558       __unwindfunclet$??6?$basic_ostream@DU?$char_traits@D@std@@@std@@QAEAAV01@K@Z$3 00442558 f   Dlgcode.obj
 0001:00041560       __ehhandler$??6?$basic_ostream@DU?$char_traits@D@std@@@std@@QAEAAV01@K@Z 00442560 f   Dlgcode.obj
 0001:00041580       __unwindfunclet$??6?$basic_ostream@DU?$char_traits@D@std@@@std@@QAEAAV01@_K@Z$2 00442580 f   Dlgcode.obj
 0001:00041588       __unwindfunclet$??6?$basic_ostream@DU?$char_traits@D@std@@@std@@QAEAAV01@_K@Z$3 00442588 f   Dlgcode.obj
 0001:00041590       __ehhandler$??6?$basic_ostream@DU?$char_traits@D@std@@@std@@QAEAAV01@_K@Z 00442590 f   Dlgcode.obj
 0001:000415b0       __unwindfunclet$?GetWindowsEdition@@YA?AV?$basic_string@DU?$char_traits@D@std@@V?$allocator@D@2@@std@@XZ$0 004425b0 f   Dlgcode.obj
 0001:000415d2       __unwindfunclet$?GetWindowsEdition@@YA?AV?$basic_string@DU?$char_traits@D@std@@V?$allocator@D@2@@std@@XZ$1 004425d2 f   Dlgcode.obj
 0001:000415dd       __unwindfunclet$?GetWindowsEdition@@YA?AV?$basic_string@DU?$char_traits@D@std@@V?$allocator@D@2@@std@@XZ$2 004425dd f   Dlgcode.obj
 0001:000415e8       __unwindfunclet$?GetWindowsEdition@@YA?AV?$basic_string@DU?$char_traits@D@std@@V?$allocator@D@2@@std@@XZ$3 004425e8 f   Dlgcode.obj
 0001:000415f3       __unwindfunclet$?GetWindowsEdition@@YA?AV?$basic_string@DU?$char_traits@D@std@@V?$allocator@D@2@@std@@XZ$4 004425f3 f   Dlgcode.obj
 0001:000415fe       __ehhandler$?GetWindowsEdition@@YA?AV?$basic_string@DU?$char_traits@D@std@@V?$allocator@D@2@@std@@XZ 004425fe f   Dlgcode.obj
 0001:00041630       __unwindfunclet$?ExceptionHandlerThread@@YAXPAX@Z$0 00442630 f   Dlgcode.obj
 0001:0004163b       __unwindfunclet$?ExceptionHandlerThread@@YAXPAX@Z$1 0044263b f   Dlgcode.obj
 0001:00041646       __unwindfunclet$?ExceptionHandlerThread@@YAXPAX@Z$2 00442646 f   Dlgcode.obj
 0001:00041651       __unwindfunclet$?ExceptionHandlerThread@@YAXPAX@Z$3 00442651 f   Dlgcode.obj
 0001:0004165c       __unwindfunclet$?ExceptionHandlerThread@@YAXPAX@Z$4 0044265c f   Dlgcode.obj
 0001:00041667       __unwindfunclet$?ExceptionHandlerThread@@YAXPAX@Z$6 00442667 f   Dlgcode.obj
 0001:00041672       __ehhandler$?ExceptionHandlerThread@@YAXPAX@Z 00442672 f   Dlgcode.obj
 0001:000416a0       __unwindfunclet$??0?$ContainerForward@V?$basic_string@DU?$char_traits@D@std@@V?$allocator@D@2@@std@@@ForEach@CipherShed@@QAE@ABV?$basic_string@DU?$char_traits@D@std@@V?$allocator@D@2@@std@@@Z$0 004426a0 f   csstringutil.obj
 0001:000416a8       __ehhandler$??0?$ContainerForward@V?$basic_string@DU?$char_traits@D@std@@V?$allocator@D@2@@std@@@ForEach@CipherShed@@QAE@ABV?$basic_string@DU?$char_traits@D@std@@V?$allocator@D@2@@std@@@Z 004426a8 f   csstringutil.obj
 0001:000416d0       __unwindfunclet$?ToUpperCase@@YA?AV?$basic_string@DU?$char_traits@D@std@@V?$allocator@D@2@@std@@ABV12@@Z$0 004426d0 f   csstringutil.obj
 0001:000416e9       __unwindfunclet$?ToUpperCase@@YA?AV?$basic_string@DU?$char_traits@D@std@@V?$allocator@D@2@@std@@ABV12@@Z$1 004426e9 f   csstringutil.obj
 0001:000416f1       __ehhandler$?ToUpperCase@@YA?AV?$basic_string@DU?$char_traits@D@std@@V?$allocator@D@2@@std@@ABV12@@Z 004426f1 f   csstringutil.obj
 0001:00041719       __unwindfunclet$?_Xlen@_String_base@std@@SAXXZ$0 00442719 f   libcpmt:string.obj
 0001:00041719       __unwindfunclet$?_Xran@_String_base@std@@SAXXZ$0 00442719 f   libcpmt:string.obj
 0001:00041721       __ehhandler$?_Xran@_String_base@std@@SAXXZ 00442721 f   libcpmt:string.obj
 0001:00041721       __ehhandler$?_Xlen@_String_base@std@@SAXXZ 00442721 f   libcpmt:string.obj
 0001:0004173c       __unwindfunclet$?_Locimp_dtor@_Locimp@locale@std@@CAXPAV123@@Z$0 0044273c f   libcpmt:locale0.obj
 0001:00041744       __ehhandler$?_Locimp_dtor@_Locimp@locale@std@@CAXPAV123@@Z 00442744 f   libcpmt:locale0.obj
 0001:0004175f       __unwindfunclet$??0_Locimp@locale@std@@AAE@_N@Z$0 0044275f f   libcpmt:locale0.obj
 0001:00041767       __ehhandler$??0_Locimp@locale@std@@AAE@_N@Z 00442767 f   libcpmt:locale0.obj
 0001:00041782       __unwindfunclet$??1_Locimp@locale@std@@MAE@XZ$0 00442782 f   libcpmt:locale0.obj
 0001:0004178a       __unwindfunclet$??1_Locimp@locale@std@@MAE@XZ$1 0044278a f   libcpmt:locale0.obj
 0001:00041795       __ehhandler$??1_Locimp@locale@std@@MAE@XZ 00442795 f   libcpmt:locale0.obj
 0001:000417b0       __unwindfunclet$?_Init@locale@std@@CAPAV_Locimp@12@XZ$0 004427b0 f   libcpmt:locale0.obj
 0001:000417b8       __unwindfunclet$?_Init@locale@std@@CAPAV_Locimp@12@XZ$1 004427b8 f   libcpmt:locale0.obj
 0001:000417c2       __ehhandler$?_Init@locale@std@@CAPAV_Locimp@12@XZ 004427c2 f   libcpmt:locale0.obj
 0001:000417dd       __ehhandler$?CallUnexpected@@YAXPBU_s_ESTypeList@@@Z 004427dd f   LIBCMT:frame.obj
 0001:00041800       ??__EDonText@@YAXXZ        00442800 f   Wizard.obj
 0001:00041820       ??__EStringKeyMap@@YAXXZ   00442820 f   Dictionary.obj
 0001:00041850       ??__EIntKeyMap@@YAXXZ      00442850 f   Dictionary.obj
 0001:00041880       ??__EExtraBootPartitionDevicePath@@YAXXZ 00442880 f   Dlgcode.obj
 0001:0004188c       ??__Einitlocks@std@@YAXXZ  0044288c f   libcpmt:xlock.obj
 0001:000418a2       ??__Eclassic_locale@std@@YAXXZ 004428a2 f   libcpmt:locale0.obj
 0001:000418ae       ??__Einitlocks@std@@YAXXZ  004428ae f   libcpmt:iosptrs.obj
 0001:000418c4       ??__Einit_atexit@@YAXXZ    004428c4 f   libcpmt:iosptrs.obj
 0001:000418d0       ??__FDonText@@YAXXZ        004428d0 f   Wizard.obj
 0001:00041910       ??__FIntKeyMap@@YAXXZ      00442910 f   Dictionary.obj
 0001:00041920       ??__FStringKeyMap@@YAXXZ   00442920 f   Dictionary.obj
 0001:00041930       ??__FExtraBootPartitionDevicePath@@YAXXZ 00442930 f   Dlgcode.obj
 0001:0004195e       ??__Finitlocks@std@@YAXXZ  0044295e f   libcpmt:xlock.obj
 0001:00041968       ??__Fclassic_locale@std@@YAXXZ 00442968 f   libcpmt:locale0.obj
 0001:00041972       ??__Finitlocks@std@@YAXXZ  00442972 f   libcpmt:iosptrs.obj
 0001:0004197c       ??__Finit_atexit@@YAXXZ    0044297c f   libcpmt:iosptrs.obj
 0001:00041986       ??__Fnomem@?5???2@YAPAXI@Z@YAXXZ 00442986 f   LIBCMT:new.obj
