; Listing generated by Microsoft (R) Optimizing Compiler Version 15.00.30729.01 

	TITLE	c:\home\public\Desktop\projects\ciphershed.build\src\Common\Dlgcode.c
	.686P
	.XMM
	include listing.inc
	.model	flat

INCLUDELIB LIBCMT
INCLUDELIB OLDNAMES

PUBLIC	??_C@_0BC@KMEHMKJJ@truecrypt?9x64?4sys?$AA@	; `string'
PUBLIC	??_C@_0O@OJENBJKN@truecrypt?4sys?$AA@		; `string'
PUBLIC	??_C@_0BG@NHCNJMON@CipherShed?5Format?4exe?$AA@	; `string'
PUBLIC	??_C@_0P@KEOPEMDF@CipherShed?4exe?$AA@		; `string'
PUBLIC	??_C@_0M@HNDLNFKG@License?4txt?$AA@		; `string'
PUBLIC	??_C@_0BK@LMECBCPP@CipherShed?5User?5Guide?4pdf?$AA@ ; `string'
PUBLIC	??_C@_0BG@PCIEDLBB@ACipherShed?5Setup?4exe?$AA@	; `string'
PUBLIC	??_C@_0P@KPKCHNJD@Dtruecrypt?4sys?$AA@		; `string'
PUBLIC	??_C@_0BD@ILLOKAML@Atruecrypt?9x64?4sys?$AA@	; `string'
PUBLIC	??_C@_0P@JMCFMDBI@Atruecrypt?4sys?$AA@		; `string'
PUBLIC	??_C@_0BH@JDBNPKKN@ACipherShed?5Format?4exe?$AA@ ; `string'
PUBLIC	??_C@_0BA@BPJBGDOM@ACipherShed?4exe?$AA@	; `string'
PUBLIC	??_C@_0N@GJIBBNGF@ALicense?4txt?$AA@		; `string'
PUBLIC	??_C@_0BL@MFPLEOCK@ACipherShed?5User?5Guide?4pdf?$AA@ ; `string'
PUBLIC	??_C@_0P@GHFPNOJB@bad?5allocation?$AA@		; `string'
PUBLIC	?hSplashClass@@3GA				; hSplashClass
PUBLIC	_szHelpFile2
PUBLIC	?SysDriveDevicePath@@3PADA			; SysDriveDevicePath
PUBLIC	_ConfigBuffer
PUBLIC	?SysPartitionDevicePath@@3PADA			; SysPartitionDevicePath
PUBLIC	?SystemFileSelectorCallerThreadId@@3KA		; SystemFileSelectorCallerThreadId
PUBLIC	_LastMountedVolumeDirty
PUBLIC	_LastDialogId
PUBLIC	?DriverVersion@@3JA				; DriverVersion
PUBLIC	_SecurityTokenLibraryPath
PUBLIC	_WindowTitleBarFont
PUBLIC	_defaultKeyFilesParam
PUBLIC	_szHelpFile
PUBLIC	?hDlgClass@@3GA					; hDlgClass
PUBLIC	?_Value@?$_Is_swap_move@U_Swap_move_tag@std@@@std@@2_NB ; std::_Is_swap_move<std::_Swap_move_tag>::_Value
PUBLIC	?value@?$integral_constant@_N$0A@@tr1@std@@2_NB	; std::tr1::integral_constant<bool,0>::value
PUBLIC	?value@?$integral_constant@_N$00@tr1@std@@2_NB	; std::tr1::integral_constant<bool,1>::value
PUBLIC	?collate@?$_Locbase@H@std@@2HB			; std::_Locbase<int>::collate
PUBLIC	?ctype@?$_Locbase@H@std@@2HB			; std::_Locbase<int>::ctype
PUBLIC	?monetary@?$_Locbase@H@std@@2HB			; std::_Locbase<int>::monetary
PUBLIC	?numeric@?$_Locbase@H@std@@2HB			; std::_Locbase<int>::numeric
PUBLIC	?time@?$_Locbase@H@std@@2HB			; std::_Locbase<int>::time
PUBLIC	?messages@?$_Locbase@H@std@@2HB			; std::_Locbase<int>::messages
PUBLIC	?all@?$_Locbase@H@std@@2HB			; std::_Locbase<int>::all
PUBLIC	?none@?$_Locbase@H@std@@2HB			; std::_Locbase<int>::none
PUBLIC	?table_size@?$ctype@D@std@@2IB			; std::ctype<char>::table_size
PUBLIC	?skipws@?$_Iosb@H@std@@2W4_Fmtflags@12@B	; std::_Iosb<int>::skipws
PUBLIC	?unitbuf@?$_Iosb@H@std@@2W4_Fmtflags@12@B	; std::_Iosb<int>::unitbuf
PUBLIC	?uppercase@?$_Iosb@H@std@@2W4_Fmtflags@12@B	; std::_Iosb<int>::uppercase
PUBLIC	?showbase@?$_Iosb@H@std@@2W4_Fmtflags@12@B	; std::_Iosb<int>::showbase
PUBLIC	?showpoint@?$_Iosb@H@std@@2W4_Fmtflags@12@B	; std::_Iosb<int>::showpoint
PUBLIC	?showpos@?$_Iosb@H@std@@2W4_Fmtflags@12@B	; std::_Iosb<int>::showpos
PUBLIC	?left@?$_Iosb@H@std@@2W4_Fmtflags@12@B		; std::_Iosb<int>::left
PUBLIC	?right@?$_Iosb@H@std@@2W4_Fmtflags@12@B		; std::_Iosb<int>::right
PUBLIC	?internal@?$_Iosb@H@std@@2W4_Fmtflags@12@B	; std::_Iosb<int>::internal
PUBLIC	?dec@?$_Iosb@H@std@@2W4_Fmtflags@12@B		; std::_Iosb<int>::dec
PUBLIC	?oct@?$_Iosb@H@std@@2W4_Fmtflags@12@B		; std::_Iosb<int>::oct
PUBLIC	?hex@?$_Iosb@H@std@@2W4_Fmtflags@12@B		; std::_Iosb<int>::hex
PUBLIC	?scientific@?$_Iosb@H@std@@2W4_Fmtflags@12@B	; std::_Iosb<int>::scientific
PUBLIC	?fixed@?$_Iosb@H@std@@2W4_Fmtflags@12@B		; std::_Iosb<int>::fixed
PUBLIC	?hexfloat@?$_Iosb@H@std@@2W4_Fmtflags@12@B	; std::_Iosb<int>::hexfloat
PUBLIC	?boolalpha@?$_Iosb@H@std@@2W4_Fmtflags@12@B	; std::_Iosb<int>::boolalpha
PUBLIC	?_Stdio@?$_Iosb@H@std@@2W4_Fmtflags@12@B	; std::_Iosb<int>::_Stdio
PUBLIC	?adjustfield@?$_Iosb@H@std@@2W4_Fmtflags@12@B	; std::_Iosb<int>::adjustfield
PUBLIC	?basefield@?$_Iosb@H@std@@2W4_Fmtflags@12@B	; std::_Iosb<int>::basefield
PUBLIC	?floatfield@?$_Iosb@H@std@@2W4_Fmtflags@12@B	; std::_Iosb<int>::floatfield
PUBLIC	?goodbit@?$_Iosb@H@std@@2W4_Iostate@12@B	; std::_Iosb<int>::goodbit
PUBLIC	?eofbit@?$_Iosb@H@std@@2W4_Iostate@12@B		; std::_Iosb<int>::eofbit
PUBLIC	?failbit@?$_Iosb@H@std@@2W4_Iostate@12@B	; std::_Iosb<int>::failbit
PUBLIC	?badbit@?$_Iosb@H@std@@2W4_Iostate@12@B		; std::_Iosb<int>::badbit
PUBLIC	?_Hardfail@?$_Iosb@H@std@@2W4_Iostate@12@B	; std::_Iosb<int>::_Hardfail
PUBLIC	?in@?$_Iosb@H@std@@2W4_Openmode@12@B		; std::_Iosb<int>::in
PUBLIC	?out@?$_Iosb@H@std@@2W4_Openmode@12@B		; std::_Iosb<int>::out
PUBLIC	?ate@?$_Iosb@H@std@@2W4_Openmode@12@B		; std::_Iosb<int>::ate
PUBLIC	?app@?$_Iosb@H@std@@2W4_Openmode@12@B		; std::_Iosb<int>::app
PUBLIC	?trunc@?$_Iosb@H@std@@2W4_Openmode@12@B		; std::_Iosb<int>::trunc
PUBLIC	?_Nocreate@?$_Iosb@H@std@@2W4_Openmode@12@B	; std::_Iosb<int>::_Nocreate
PUBLIC	?_Noreplace@?$_Iosb@H@std@@2W4_Openmode@12@B	; std::_Iosb<int>::_Noreplace
PUBLIC	?binary@?$_Iosb@H@std@@2W4_Openmode@12@B	; std::_Iosb<int>::binary
PUBLIC	?beg@?$_Iosb@H@std@@2W4_Seekdir@12@B		; std::_Iosb<int>::beg
PUBLIC	?cur@?$_Iosb@H@std@@2W4_Seekdir@12@B		; std::_Iosb<int>::cur
PUBLIC	?end@?$_Iosb@H@std@@2W4_Seekdir@12@B		; std::_Iosb<int>::end
PUBLIC	?RescueIsoImageSize@BootEncryption@CipherShed@@1IB ; CipherShed::BootEncryption::RescueIsoImageSize
PUBLIC	?MaxPasswordLength@SecurityToken@CipherShed@@2IB ; CipherShed::SecurityToken::MaxPasswordLength
PUBLIC	_hFixedDigitFont
PUBLIC	_hBoldFont
PUBLIC	_hTitleFont
PUBLIC	_hFixedFont
PUBLIC	_hUserFont
PUBLIC	_hUserUnderlineFont
PUBLIC	_hUserBoldFont
PUBLIC	?hUserUnderlineBoldFont@@3PAUHFONT__@@A		; hUserUnderlineBoldFont
PUBLIC	_ScreenDPI
PUBLIC	?DPIScaleFactorX@@3NA				; DPIScaleFactorX
PUBLIC	?DPIScaleFactorY@@3NA				; DPIScaleFactorY
PUBLIC	_DlgAspectRatio
PUBLIC	_MainDlg
PUBLIC	_lpszTitle
PUBLIC	_bPreserveTimestamp
PUBLIC	_bStartOnLogon
PUBLIC	_bMountDevicesOnLogon
PUBLIC	_bMountFavoritesOnLogon
PUBLIC	_bHistory
PUBLIC	_HiddenSectorDetectionStatus
PUBLIC	_nCurrentOS
PUBLIC	_CurrentOSMajor
PUBLIC	_CurrentOSMinor
PUBLIC	_CurrentOSServicePack
PUBLIC	_RemoteSession
PUBLIC	?bPortableModeConfirmed@@3HA			; bPortableModeConfirmed
PUBLIC	_bInPlaceEncNonSysPending
PUBLIC	_KeyFilesEnable
PUBLIC	_FirstKeyFile
PUBLIC	_IgnoreWmDeviceChange
PUBLIC	_DeviceChangeBroadcastDisabled
PUBLIC	_MountVolumesAsSystemFavorite
PUBLIC	_FavoriteMountOnArrivalInProgress
PUBLIC	_MultipleMountOperationInProgress
PUBLIC	_hDriver
PUBLIC	?hSysEncMutex@@3RAXA				; hSysEncMutex
PUBLIC	?hNonSysInplaceEncMutex@@3RAXA			; hNonSysInplaceEncMutex
PUBLIC	?hDriverSetupMutex@@3RAXA			; hDriverSetupMutex
PUBLIC	?hAppSetupMutex@@3RAXA				; hAppSetupMutex
PUBLIC	_hInst
PUBLIC	_SystemEncryptionStatus
PUBLIC	_nWipeMode
PUBLIC	_bSysPartitionSelected
PUBLIC	_bSysDriveSelected
PUBLIC	?bCachedSysDevicePathsValid@@3DA		; bCachedSysDevicePathsValid
PUBLIC	_bHyperLinkBeingTracked
PUBLIC	?WrongPwdRetryCounter@@3HA			; WrongPwdRetryCounter
PUBLIC	?SystemFileSelectorCallPending@@3HA		; SystemFileSelectorCallPending
_BSS	SEGMENT
?hSplashClass@@3GA DW 01H DUP (?)			; hSplashClass
	ALIGN	4

_szHelpFile2 DB	0104H DUP (?)
?SysDriveDevicePath@@3PADA DB 0104H DUP (?)		; SysDriveDevicePath
_ConfigBuffer DD 01H DUP (?)
?SysPartitionDevicePath@@3PADA DB 0104H DUP (?)		; SysPartitionDevicePath
?SystemFileSelectorCallerThreadId@@3KA DD 01H DUP (?)	; SystemFileSelectorCallerThreadId
_LastMountedVolumeDirty DD 01H DUP (?)
_LastDialogId DD 01H DUP (?)
?DriverVersion@@3JA DD 01H DUP (?)			; DriverVersion
_SecurityTokenLibraryPath DB 0104H DUP (?)
_WindowTitleBarFont DD 01H DUP (?)
	ALIGN	8

_defaultKeyFilesParam DQ 01H DUP (?)
_szHelpFile DB	0104H DUP (?)
?hDlgClass@@3GA DW 01H DUP (?)				; hDlgClass
	ALIGN	4

_hFixedDigitFont DD 01H DUP (?)
_hBoldFont DD	01H DUP (?)
_hTitleFont DD	01H DUP (?)
_hFixedFont DD	01H DUP (?)
_hUserFont DD	01H DUP (?)
_hUserUnderlineFont DD 01H DUP (?)
_hUserBoldFont DD 01H DUP (?)
?hUserUnderlineBoldFont@@3PAUHFONT__@@A DD 01H DUP (?)	; hUserUnderlineBoldFont
_MainDlg DD	01H DUP (?)
_lpszTitle DD	01H DUP (?)
_bStartOnLogon DD 01H DUP (?)
_bMountDevicesOnLogon DD 01H DUP (?)
_bMountFavoritesOnLogon DD 01H DUP (?)
_bHistory DD	01H DUP (?)
_HiddenSectorDetectionStatus DD 01H DUP (?)
_nCurrentOS DD	01H DUP (?)
_CurrentOSMajor DD 01H DUP (?)
_CurrentOSMinor DD 01H DUP (?)
_CurrentOSServicePack DD 01H DUP (?)
_RemoteSession DD 01H DUP (?)
?bPortableModeConfirmed@@3HA DD 01H DUP (?)		; bPortableModeConfirmed
_bInPlaceEncNonSysPending DD 01H DUP (?)
_KeyFilesEnable DD 01H DUP (?)
_FirstKeyFile DD 01H DUP (?)
_IgnoreWmDeviceChange DD 01H DUP (?)
_DeviceChangeBroadcastDisabled DD 01H DUP (?)
_MountVolumesAsSystemFavorite DD 01H DUP (?)
_FavoriteMountOnArrivalInProgress DD 01H DUP (?)
_MultipleMountOperationInProgress DD 01H DUP (?)
?hSysEncMutex@@3RAXA DD 01H DUP (?)			; hSysEncMutex
?hNonSysInplaceEncMutex@@3RAXA DD 01H DUP (?)		; hNonSysInplaceEncMutex
?hDriverSetupMutex@@3RAXA DD 01H DUP (?)		; hDriverSetupMutex
?hAppSetupMutex@@3RAXA DD 01H DUP (?)			; hAppSetupMutex
_hInst	DD	01H DUP (?)
_SystemEncryptionStatus DD 01H DUP (?)
_nWipeMode DD	01H DUP (?)
_bSysPartitionSelected DD 01H DUP (?)
_bSysDriveSelected DD 01H DUP (?)
?bCachedSysDevicePathsValid@@3DA DB 01H DUP (?)		; bCachedSysDevicePathsValid
	ALIGN	4

_bHyperLinkBeingTracked DD 01H DUP (?)
?WrongPwdRetryCounter@@3HA DD 01H DUP (?)		; WrongPwdRetryCounter
?SystemFileSelectorCallPending@@3HA DD 01H DUP (?)	; SystemFileSelectorCallPending
_StaticModelessWaitDlgHandle DD 01H DUP (?)
_BSS	ENDS
;	COMDAT ??_C@_0BC@KMEHMKJJ@truecrypt?9x64?4sys?$AA@
CONST	SEGMENT
??_C@_0BC@KMEHMKJJ@truecrypt?9x64?4sys?$AA@ DB 'truecrypt-x64.sys', 00H ; `string'
CONST	ENDS
;	COMDAT ??_C@_0O@OJENBJKN@truecrypt?4sys?$AA@
CONST	SEGMENT
??_C@_0O@OJENBJKN@truecrypt?4sys?$AA@ DB 'truecrypt.sys', 00H ; `string'
CONST	ENDS
;	COMDAT ??_C@_0BG@NHCNJMON@CipherShed?5Format?4exe?$AA@
CONST	SEGMENT
??_C@_0BG@NHCNJMON@CipherShed?5Format?4exe?$AA@ DB 'CipherShed Format.exe'
	DB	00H						; `string'
CONST	ENDS
;	COMDAT ??_C@_0P@KEOPEMDF@CipherShed?4exe?$AA@
CONST	SEGMENT
??_C@_0P@KEOPEMDF@CipherShed?4exe?$AA@ DB 'CipherShed.exe', 00H ; `string'
CONST	ENDS
;	COMDAT ??_C@_0M@HNDLNFKG@License?4txt?$AA@
CONST	SEGMENT
??_C@_0M@HNDLNFKG@License?4txt?$AA@ DB 'License.txt', 00H ; `string'
CONST	ENDS
;	COMDAT ??_C@_0BK@LMECBCPP@CipherShed?5User?5Guide?4pdf?$AA@
CONST	SEGMENT
??_C@_0BK@LMECBCPP@CipherShed?5User?5Guide?4pdf?$AA@ DB 'CipherShed User '
	DB	'Guide.pdf', 00H				; `string'
CONST	ENDS
;	COMDAT ??_C@_0BG@PCIEDLBB@ACipherShed?5Setup?4exe?$AA@
CONST	SEGMENT
??_C@_0BG@PCIEDLBB@ACipherShed?5Setup?4exe?$AA@ DB 'ACipherShed Setup.exe'
	DB	00H						; `string'
CONST	ENDS
;	COMDAT ??_C@_0P@KPKCHNJD@Dtruecrypt?4sys?$AA@
CONST	SEGMENT
??_C@_0P@KPKCHNJD@Dtruecrypt?4sys?$AA@ DB 'Dtruecrypt.sys', 00H ; `string'
CONST	ENDS
;	COMDAT ??_C@_0BD@ILLOKAML@Atruecrypt?9x64?4sys?$AA@
CONST	SEGMENT
??_C@_0BD@ILLOKAML@Atruecrypt?9x64?4sys?$AA@ DB 'Atruecrypt-x64.sys', 00H ; `string'
CONST	ENDS
;	COMDAT ??_C@_0P@JMCFMDBI@Atruecrypt?4sys?$AA@
CONST	SEGMENT
??_C@_0P@JMCFMDBI@Atruecrypt?4sys?$AA@ DB 'Atruecrypt.sys', 00H ; `string'
CONST	ENDS
;	COMDAT ??_C@_0BH@JDBNPKKN@ACipherShed?5Format?4exe?$AA@
CONST	SEGMENT
??_C@_0BH@JDBNPKKN@ACipherShed?5Format?4exe?$AA@ DB 'ACipherShed Format.e'
	DB	'xe', 00H					; `string'
CONST	ENDS
;	COMDAT ??_C@_0BA@BPJBGDOM@ACipherShed?4exe?$AA@
CONST	SEGMENT
??_C@_0BA@BPJBGDOM@ACipherShed?4exe?$AA@ DB 'ACipherShed.exe', 00H ; `string'
CONST	ENDS
;	COMDAT ??_C@_0N@GJIBBNGF@ALicense?4txt?$AA@
CONST	SEGMENT
??_C@_0N@GJIBBNGF@ALicense?4txt?$AA@ DB 'ALicense.txt', 00H ; `string'
CONST	ENDS
;	COMDAT ??_C@_0BL@MFPLEOCK@ACipherShed?5User?5Guide?4pdf?$AA@
CONST	SEGMENT
??_C@_0BL@MFPLEOCK@ACipherShed?5User?5Guide?4pdf?$AA@ DB 'ACipherShed Use'
	DB	'r Guide.pdf', 00H				; `string'
CONST	ENDS
;	COMDAT ?MaxPasswordLength@SecurityToken@CipherShed@@2IB
CONST	SEGMENT
?MaxPasswordLength@SecurityToken@CipherShed@@2IB DD 080H ; CipherShed::SecurityToken::MaxPasswordLength
CONST	ENDS
;	COMDAT ?RescueIsoImageSize@BootEncryption@CipherShed@@1IB
CONST	SEGMENT
?RescueIsoImageSize@BootEncryption@CipherShed@@1IB DD 01c0000H ; CipherShed::BootEncryption::RescueIsoImageSize
CONST	ENDS
;	COMDAT ?end@?$_Iosb@H@std@@2W4_Seekdir@12@B
CONST	SEGMENT
?end@?$_Iosb@H@std@@2W4_Seekdir@12@B DD 02H		; std::_Iosb<int>::end
CONST	ENDS
;	COMDAT ?cur@?$_Iosb@H@std@@2W4_Seekdir@12@B
CONST	SEGMENT
?cur@?$_Iosb@H@std@@2W4_Seekdir@12@B DD 01H		; std::_Iosb<int>::cur
CONST	ENDS
;	COMDAT ?beg@?$_Iosb@H@std@@2W4_Seekdir@12@B
CONST	SEGMENT
?beg@?$_Iosb@H@std@@2W4_Seekdir@12@B DD 00H		; std::_Iosb<int>::beg
CONST	ENDS
;	COMDAT ?binary@?$_Iosb@H@std@@2W4_Openmode@12@B
CONST	SEGMENT
?binary@?$_Iosb@H@std@@2W4_Openmode@12@B DD 020H	; std::_Iosb<int>::binary
CONST	ENDS
;	COMDAT ?_Noreplace@?$_Iosb@H@std@@2W4_Openmode@12@B
CONST	SEGMENT
?_Noreplace@?$_Iosb@H@std@@2W4_Openmode@12@B DD 080H	; std::_Iosb<int>::_Noreplace
CONST	ENDS
;	COMDAT ?_Nocreate@?$_Iosb@H@std@@2W4_Openmode@12@B
CONST	SEGMENT
?_Nocreate@?$_Iosb@H@std@@2W4_Openmode@12@B DD 040H	; std::_Iosb<int>::_Nocreate
CONST	ENDS
;	COMDAT ?trunc@?$_Iosb@H@std@@2W4_Openmode@12@B
CONST	SEGMENT
?trunc@?$_Iosb@H@std@@2W4_Openmode@12@B DD 010H		; std::_Iosb<int>::trunc
CONST	ENDS
;	COMDAT ?app@?$_Iosb@H@std@@2W4_Openmode@12@B
CONST	SEGMENT
?app@?$_Iosb@H@std@@2W4_Openmode@12@B DD 08H		; std::_Iosb<int>::app
CONST	ENDS
;	COMDAT ?ate@?$_Iosb@H@std@@2W4_Openmode@12@B
CONST	SEGMENT
?ate@?$_Iosb@H@std@@2W4_Openmode@12@B DD 04H		; std::_Iosb<int>::ate
CONST	ENDS
;	COMDAT ?out@?$_Iosb@H@std@@2W4_Openmode@12@B
CONST	SEGMENT
?out@?$_Iosb@H@std@@2W4_Openmode@12@B DD 02H		; std::_Iosb<int>::out
CONST	ENDS
;	COMDAT ?in@?$_Iosb@H@std@@2W4_Openmode@12@B
CONST	SEGMENT
?in@?$_Iosb@H@std@@2W4_Openmode@12@B DD 01H		; std::_Iosb<int>::in
CONST	ENDS
;	COMDAT ?_Hardfail@?$_Iosb@H@std@@2W4_Iostate@12@B
CONST	SEGMENT
?_Hardfail@?$_Iosb@H@std@@2W4_Iostate@12@B DD 010H	; std::_Iosb<int>::_Hardfail
CONST	ENDS
;	COMDAT ?badbit@?$_Iosb@H@std@@2W4_Iostate@12@B
CONST	SEGMENT
?badbit@?$_Iosb@H@std@@2W4_Iostate@12@B DD 04H		; std::_Iosb<int>::badbit
CONST	ENDS
;	COMDAT ?failbit@?$_Iosb@H@std@@2W4_Iostate@12@B
CONST	SEGMENT
?failbit@?$_Iosb@H@std@@2W4_Iostate@12@B DD 02H		; std::_Iosb<int>::failbit
CONST	ENDS
;	COMDAT ?eofbit@?$_Iosb@H@std@@2W4_Iostate@12@B
CONST	SEGMENT
?eofbit@?$_Iosb@H@std@@2W4_Iostate@12@B DD 01H		; std::_Iosb<int>::eofbit
CONST	ENDS
;	COMDAT ?goodbit@?$_Iosb@H@std@@2W4_Iostate@12@B
CONST	SEGMENT
?goodbit@?$_Iosb@H@std@@2W4_Iostate@12@B DD 00H		; std::_Iosb<int>::goodbit
CONST	ENDS
;	COMDAT ?floatfield@?$_Iosb@H@std@@2W4_Fmtflags@12@B
CONST	SEGMENT
?floatfield@?$_Iosb@H@std@@2W4_Fmtflags@12@B DD 03000H	; std::_Iosb<int>::floatfield
CONST	ENDS
;	COMDAT ?basefield@?$_Iosb@H@std@@2W4_Fmtflags@12@B
CONST	SEGMENT
?basefield@?$_Iosb@H@std@@2W4_Fmtflags@12@B DD 0e00H	; std::_Iosb<int>::basefield
CONST	ENDS
;	COMDAT ?adjustfield@?$_Iosb@H@std@@2W4_Fmtflags@12@B
CONST	SEGMENT
?adjustfield@?$_Iosb@H@std@@2W4_Fmtflags@12@B DD 01c0H	; std::_Iosb<int>::adjustfield
CONST	ENDS
;	COMDAT ?_Stdio@?$_Iosb@H@std@@2W4_Fmtflags@12@B
CONST	SEGMENT
?_Stdio@?$_Iosb@H@std@@2W4_Fmtflags@12@B DD 08000H	; std::_Iosb<int>::_Stdio
CONST	ENDS
;	COMDAT ?boolalpha@?$_Iosb@H@std@@2W4_Fmtflags@12@B
CONST	SEGMENT
?boolalpha@?$_Iosb@H@std@@2W4_Fmtflags@12@B DD 04000H	; std::_Iosb<int>::boolalpha
CONST	ENDS
;	COMDAT ?hexfloat@?$_Iosb@H@std@@2W4_Fmtflags@12@B
CONST	SEGMENT
?hexfloat@?$_Iosb@H@std@@2W4_Fmtflags@12@B DD 03000H	; std::_Iosb<int>::hexfloat
CONST	ENDS
;	COMDAT ?fixed@?$_Iosb@H@std@@2W4_Fmtflags@12@B
CONST	SEGMENT
?fixed@?$_Iosb@H@std@@2W4_Fmtflags@12@B DD 02000H	; std::_Iosb<int>::fixed
CONST	ENDS
;	COMDAT ?scientific@?$_Iosb@H@std@@2W4_Fmtflags@12@B
CONST	SEGMENT
?scientific@?$_Iosb@H@std@@2W4_Fmtflags@12@B DD 01000H	; std::_Iosb<int>::scientific
CONST	ENDS
;	COMDAT ?hex@?$_Iosb@H@std@@2W4_Fmtflags@12@B
CONST	SEGMENT
?hex@?$_Iosb@H@std@@2W4_Fmtflags@12@B DD 0800H		; std::_Iosb<int>::hex
CONST	ENDS
;	COMDAT ?oct@?$_Iosb@H@std@@2W4_Fmtflags@12@B
CONST	SEGMENT
?oct@?$_Iosb@H@std@@2W4_Fmtflags@12@B DD 0400H		; std::_Iosb<int>::oct
CONST	ENDS
;	COMDAT ?dec@?$_Iosb@H@std@@2W4_Fmtflags@12@B
CONST	SEGMENT
?dec@?$_Iosb@H@std@@2W4_Fmtflags@12@B DD 0200H		; std::_Iosb<int>::dec
CONST	ENDS
;	COMDAT ?internal@?$_Iosb@H@std@@2W4_Fmtflags@12@B
CONST	SEGMENT
?internal@?$_Iosb@H@std@@2W4_Fmtflags@12@B DD 0100H	; std::_Iosb<int>::internal
CONST	ENDS
;	COMDAT ?right@?$_Iosb@H@std@@2W4_Fmtflags@12@B
CONST	SEGMENT
?right@?$_Iosb@H@std@@2W4_Fmtflags@12@B DD 080H		; std::_Iosb<int>::right
CONST	ENDS
;	COMDAT ?left@?$_Iosb@H@std@@2W4_Fmtflags@12@B
CONST	SEGMENT
?left@?$_Iosb@H@std@@2W4_Fmtflags@12@B DD 040H		; std::_Iosb<int>::left
CONST	ENDS
;	COMDAT ?showpos@?$_Iosb@H@std@@2W4_Fmtflags@12@B
CONST	SEGMENT
?showpos@?$_Iosb@H@std@@2W4_Fmtflags@12@B DD 020H	; std::_Iosb<int>::showpos
CONST	ENDS
;	COMDAT ?showpoint@?$_Iosb@H@std@@2W4_Fmtflags@12@B
CONST	SEGMENT
?showpoint@?$_Iosb@H@std@@2W4_Fmtflags@12@B DD 010H	; std::_Iosb<int>::showpoint
CONST	ENDS
;	COMDAT ?showbase@?$_Iosb@H@std@@2W4_Fmtflags@12@B
CONST	SEGMENT
?showbase@?$_Iosb@H@std@@2W4_Fmtflags@12@B DD 08H	; std::_Iosb<int>::showbase
CONST	ENDS
;	COMDAT ?uppercase@?$_Iosb@H@std@@2W4_Fmtflags@12@B
CONST	SEGMENT
?uppercase@?$_Iosb@H@std@@2W4_Fmtflags@12@B DD 04H	; std::_Iosb<int>::uppercase
CONST	ENDS
;	COMDAT ?unitbuf@?$_Iosb@H@std@@2W4_Fmtflags@12@B
CONST	SEGMENT
?unitbuf@?$_Iosb@H@std@@2W4_Fmtflags@12@B DD 02H	; std::_Iosb<int>::unitbuf
CONST	ENDS
;	COMDAT ?skipws@?$_Iosb@H@std@@2W4_Fmtflags@12@B
CONST	SEGMENT
?skipws@?$_Iosb@H@std@@2W4_Fmtflags@12@B DD 01H		; std::_Iosb<int>::skipws
CONST	ENDS
;	COMDAT ?table_size@?$ctype@D@std@@2IB
CONST	SEGMENT
?table_size@?$ctype@D@std@@2IB DD 0100H			; std::ctype<char>::table_size
CONST	ENDS
;	COMDAT ?none@?$_Locbase@H@std@@2HB
CONST	SEGMENT
?none@?$_Locbase@H@std@@2HB DD 00H			; std::_Locbase<int>::none
CONST	ENDS
;	COMDAT ?all@?$_Locbase@H@std@@2HB
CONST	SEGMENT
?all@?$_Locbase@H@std@@2HB DD 03fH			; std::_Locbase<int>::all
CONST	ENDS
;	COMDAT ?messages@?$_Locbase@H@std@@2HB
CONST	SEGMENT
?messages@?$_Locbase@H@std@@2HB DD 020H			; std::_Locbase<int>::messages
CONST	ENDS
;	COMDAT ?time@?$_Locbase@H@std@@2HB
CONST	SEGMENT
?time@?$_Locbase@H@std@@2HB DD 010H			; std::_Locbase<int>::time
CONST	ENDS
;	COMDAT ?numeric@?$_Locbase@H@std@@2HB
CONST	SEGMENT
?numeric@?$_Locbase@H@std@@2HB DD 08H			; std::_Locbase<int>::numeric
CONST	ENDS
;	COMDAT ?monetary@?$_Locbase@H@std@@2HB
CONST	SEGMENT
?monetary@?$_Locbase@H@std@@2HB DD 04H			; std::_Locbase<int>::monetary
CONST	ENDS
;	COMDAT ?ctype@?$_Locbase@H@std@@2HB
CONST	SEGMENT
?ctype@?$_Locbase@H@std@@2HB DD 02H			; std::_Locbase<int>::ctype
CONST	ENDS
;	COMDAT ?collate@?$_Locbase@H@std@@2HB
CONST	SEGMENT
?collate@?$_Locbase@H@std@@2HB DD 01H			; std::_Locbase<int>::collate
CONST	ENDS
;	COMDAT ?value@?$integral_constant@_N$00@tr1@std@@2_NB
CONST	SEGMENT
?value@?$integral_constant@_N$00@tr1@std@@2_NB DB 01H	; std::tr1::integral_constant<bool,1>::value
CONST	ENDS
;	COMDAT ?value@?$integral_constant@_N$0A@@tr1@std@@2_NB
CONST	SEGMENT
?value@?$integral_constant@_N$0A@@tr1@std@@2_NB DB 00H	; std::tr1::integral_constant<bool,0>::value
CONST	ENDS
;	COMDAT ?_Value@?$_Is_swap_move@U_Swap_move_tag@std@@@std@@2_NB
CONST	SEGMENT
?_Value@?$_Is_swap_move@U_Swap_move_tag@std@@@std@@2_NB DB 01H ; std::_Is_swap_move<std::_Swap_move_tag>::_Value
CONST	ENDS
_DATA	SEGMENT
__bad_alloc_Message DD FLAT:??_C@_0P@GHFPNOJB@bad?5allocation?$AA@
_szFiles DD	FLAT:??_C@_0BL@MFPLEOCK@ACipherShed?5User?5Guide?4pdf?$AA@
	DD	FLAT:??_C@_0N@GJIBBNGF@ALicense?4txt?$AA@
	DD	FLAT:??_C@_0BA@BPJBGDOM@ACipherShed?4exe?$AA@
	DD	FLAT:??_C@_0BH@JDBNPKKN@ACipherShed?5Format?4exe?$AA@
	DD	FLAT:??_C@_0P@JMCFMDBI@Atruecrypt?4sys?$AA@
	DD	FLAT:??_C@_0BD@ILLOKAML@Atruecrypt?9x64?4sys?$AA@
	DD	FLAT:??_C@_0P@KPKCHNJD@Dtruecrypt?4sys?$AA@
	DD	FLAT:??_C@_0BG@PCIEDLBB@ACipherShed?5Setup?4exe?$AA@
_szCompressedFiles DD FLAT:??_C@_0BK@LMECBCPP@CipherShed?5User?5Guide?4pdf?$AA@
	DD	FLAT:??_C@_0M@HNDLNFKG@License?4txt?$AA@
	DD	FLAT:??_C@_0P@KEOPEMDF@CipherShed?4exe?$AA@
	DD	FLAT:??_C@_0BG@NHCNJMON@CipherShed?5Format?4exe?$AA@
	DD	FLAT:??_C@_0O@OJENBJKN@truecrypt?4sys?$AA@
	DD	FLAT:??_C@_0BC@KMEHMKJJ@truecrypt?9x64?4sys?$AA@
_ScreenDPI DD	060H
?DPIScaleFactorX@@3NA DQ 03ff0000000000000r	; 1	; DPIScaleFactorX
?DPIScaleFactorY@@3NA DQ 03ff0000000000000r	; 1	; DPIScaleFactorY
_DlgAspectRatio DQ 03ff0000000000000r		; 1
_bPreserveTimestamp DD 01H
_hDriver DD	0ffffffffH
_DATA	ENDS
;	COMDAT ??_C@_0P@GHFPNOJB@bad?5allocation?$AA@
CONST	SEGMENT
??_C@_0P@GHFPNOJB@bad?5allocation?$AA@ DB 'bad allocation', 00H ; `string'
CONST	ENDS
PUBLIC	?strchr@@YAPADPADH@Z				; strchr
EXTRN	_strchr:PROC
; Function compile flags: /Ogtpy
; File c:\program files (x86)\microsoft visual studio 9.0\vc\include\string.h
;	COMDAT ?strchr@@YAPADPADH@Z
_TEXT	SEGMENT
__Str$ = 8						; size = 4
__Ch$ = 12						; size = 4
?strchr@@YAPADPADH@Z PROC				; strchr, COMDAT

; 184  : 	{ return (char*)strchr((const char*)_Str, _Ch); }

  00000	e9 00 00 00 00	 jmp	 _strchr
?strchr@@YAPADPADH@Z ENDP				; strchr
_TEXT	ENDS
PUBLIC	?strrchr@@YAPADPADH@Z				; strrchr
EXTRN	_strrchr:PROC
; Function compile flags: /Ogtpy
;	COMDAT ?strrchr@@YAPADPADH@Z
_TEXT	SEGMENT
__Str$ = 8						; size = 4
__Ch$ = 12						; size = 4
?strrchr@@YAPADPADH@Z PROC				; strrchr, COMDAT

; 188  : 	{ return (char*)strrchr((const char*)_Str, _Ch); }

  00000	e9 00 00 00 00	 jmp	 _strrchr
?strrchr@@YAPADPADH@Z ENDP				; strrchr
_TEXT	ENDS
PUBLIC	?strstr@@YAPADPADPBD@Z				; strstr
EXTRN	_strstr:PROC
; Function compile flags: /Ogtpy
;	COMDAT ?strstr@@YAPADPADPBD@Z
_TEXT	SEGMENT
__Str$ = 8						; size = 4
__SubStr$ = 12						; size = 4
?strstr@@YAPADPADPBD@Z PROC				; strstr, COMDAT

; 190  : 	{ return (char*)strstr((const char*)_Str, _SubStr); }

  00000	e9 00 00 00 00	 jmp	 _strstr
?strstr@@YAPADPADPBD@Z ENDP				; strstr
_TEXT	ENDS
PUBLIC	?wcsrchr@@YAPA_WPA_W_W@Z			; wcsrchr
EXTRN	_wcsrchr:PROC
; Function compile flags: /Ogtpy
;	COMDAT ?wcsrchr@@YAPA_WPA_W_W@Z
_TEXT	SEGMENT
__Str$ = 8						; size = 4
__Ch$ = 12						; size = 2
?wcsrchr@@YAPA_WPA_W_W@Z PROC				; wcsrchr, COMDAT

; 335  :         {return ((wchar_t *)wcsrchr((const wchar_t *)_Str, _Ch)); }

  00000	e9 00 00 00 00	 jmp	 _wcsrchr
?wcsrchr@@YAPA_WPA_W_W@Z ENDP				; wcsrchr
_TEXT	ENDS
PUBLIC	_RtlSecureZeroMemory
; Function compile flags: /Ogtpy
; File c:\program files\microsoft sdks\windows\v7.1\include\winnt.h
;	COMDAT _RtlSecureZeroMemory
_TEXT	SEGMENT
_ptr$ = 8						; size = 4
_cnt$ = 12						; size = 4
_RtlSecureZeroMemory PROC				; COMDAT

; 13070:     volatile char *vptr = (volatile char *)ptr;
; 13071: 
; 13072: #if defined(_M_AMD64)
; 13073: 
; 13074:         __stosb((PBYTE )((DWORD64)vptr), 0, cnt);
; 13075: 
; 13076: #else
; 13077: 
; 13078:     while (cnt) {

  00000	8b 54 24 08	 mov	 edx, DWORD PTR _cnt$[esp-4]
  00004	8b 44 24 04	 mov	 eax, DWORD PTR _ptr$[esp-4]
  00008	8b c8		 mov	 ecx, eax
  0000a	85 d2		 test	 edx, edx
  0000c	74 0b		 je	 SHORT $LN1@RtlSecureZ
  0000e	8b ff		 npad	 2
$LL2@RtlSecureZ:

; 13079:         *vptr = 0;

  00010	c6 01 00	 mov	 BYTE PTR [ecx], 0

; 13080:         vptr++;

  00013	41		 inc	 ecx

; 13081:         cnt--;

  00014	83 ea 01	 sub	 edx, 1
  00017	75 f7		 jne	 SHORT $LL2@RtlSecureZ
$LN1@RtlSecureZ:

; 13082:     }
; 13083: 
; 13084: #endif
; 13085: 
; 13086:     return ptr;
; 13087: }

  00019	c3		 ret	 0
_RtlSecureZeroMemory ENDP
_TEXT	ENDS
PUBLIC	?swprintf@@YAHPA_WPB_WZZ			; swprintf
EXTRN	__vswprintf:PROC
; Function compile flags: /Ogtpy
; File c:\program files (x86)\microsoft visual studio 9.0\vc\include\swprintf.inl
;	COMDAT ?swprintf@@YAHPA_WPB_WZZ
_TEXT	SEGMENT
__String$ = 8						; size = 4
__Format$ = 12						; size = 4
?swprintf@@YAHPA_WPB_WZZ PROC				; swprintf, COMDAT

; 87   :     va_list _Arglist;
; 88   :     _crt_va_start(_Arglist, _Format);
; 89   :     int _Ret = _vswprintf(_String, _Format, _Arglist);

  00000	8b 4c 24 08	 mov	 ecx, DWORD PTR __Format$[esp-4]
  00004	8b 54 24 04	 mov	 edx, DWORD PTR __String$[esp-4]
  00008	8d 44 24 0c	 lea	 eax, DWORD PTR __Format$[esp]
  0000c	50		 push	 eax
  0000d	51		 push	 ecx
  0000e	52		 push	 edx
  0000f	e8 00 00 00 00	 call	 __vswprintf
  00014	83 c4 0c	 add	 esp, 12			; 0000000cH

; 90   :     _crt_va_end(_Arglist);
; 91   :     return _Ret;
; 92   : }

  00017	c3		 ret	 0
?swprintf@@YAHPA_WPB_WZZ ENDP				; swprintf
_TEXT	ENDS
PUBLIC	??_7bad_alloc@std@@6B@				; std::bad_alloc::`vftable'
PUBLIC	??0bad_alloc@std@@QAE@PBD@Z			; std::bad_alloc::bad_alloc
PUBLIC	??_R4bad_alloc@std@@6B@				; std::bad_alloc::`RTTI Complete Object Locator'
PUBLIC	??_R0?AVbad_alloc@std@@@8			; std::bad_alloc `RTTI Type Descriptor'
PUBLIC	??_R3bad_alloc@std@@8				; std::bad_alloc::`RTTI Class Hierarchy Descriptor'
PUBLIC	??_R2bad_alloc@std@@8				; std::bad_alloc::`RTTI Base Class Array'
PUBLIC	??_R1A@?0A@EA@bad_alloc@std@@8			; std::bad_alloc::`RTTI Base Class Descriptor at (0,-1,0,64)'
PUBLIC	??_R1A@?0A@EA@exception@std@@8			; std::exception::`RTTI Base Class Descriptor at (0,-1,0,64)'
PUBLIC	??_R0?AVexception@std@@@8			; std::exception `RTTI Type Descriptor'
PUBLIC	??_R3exception@std@@8				; std::exception::`RTTI Class Hierarchy Descriptor'
PUBLIC	??_R2exception@std@@8				; std::exception::`RTTI Base Class Array'
EXTRN	??0exception@std@@QAE@ABQBD@Z:PROC		; std::exception::exception
EXTRN	??_7type_info@@6B@:QWORD			; type_info::`vftable'
EXTRN	??_Ebad_alloc@std@@UAEPAXI@Z:PROC		; std::bad_alloc::`vector deleting destructor'
EXTRN	?what@exception@std@@UBEPBDXZ:PROC		; std::exception::what
;	COMDAT ??_R2exception@std@@8
; File c:\program files (x86)\microsoft visual studio 9.0\vc\include\exception
rdata$r	SEGMENT
??_R2exception@std@@8 DD FLAT:??_R1A@?0A@EA@exception@std@@8 ; std::exception::`RTTI Base Class Array'
rdata$r	ENDS
;	COMDAT ??_R3exception@std@@8
rdata$r	SEGMENT
??_R3exception@std@@8 DD 00H				; std::exception::`RTTI Class Hierarchy Descriptor'
	DD	00H
	DD	01H
	DD	FLAT:??_R2exception@std@@8
rdata$r	ENDS
;	COMDAT ??_R0?AVexception@std@@@8
_DATA	SEGMENT
??_R0?AVexception@std@@@8 DD FLAT:??_7type_info@@6B@	; std::exception `RTTI Type Descriptor'
	DD	00H
	DB	'.?AVexception@std@@', 00H
_DATA	ENDS
;	COMDAT ??_R1A@?0A@EA@exception@std@@8
rdata$r	SEGMENT
??_R1A@?0A@EA@exception@std@@8 DD FLAT:??_R0?AVexception@std@@@8 ; std::exception::`RTTI Base Class Descriptor at (0,-1,0,64)'
	DD	00H
	DD	00H
	DD	0ffffffffH
	DD	00H
	DD	040H
	DD	FLAT:??_R3exception@std@@8
rdata$r	ENDS
;	COMDAT ??_R1A@?0A@EA@bad_alloc@std@@8
rdata$r	SEGMENT
??_R1A@?0A@EA@bad_alloc@std@@8 DD FLAT:??_R0?AVbad_alloc@std@@@8 ; std::bad_alloc::`RTTI Base Class Descriptor at (0,-1,0,64)'
	DD	01H
	DD	00H
	DD	0ffffffffH
	DD	00H
	DD	040H
	DD	FLAT:??_R3bad_alloc@std@@8
rdata$r	ENDS
;	COMDAT ??_R2bad_alloc@std@@8
rdata$r	SEGMENT
??_R2bad_alloc@std@@8 DD FLAT:??_R1A@?0A@EA@bad_alloc@std@@8 ; std::bad_alloc::`RTTI Base Class Array'
	DD	FLAT:??_R1A@?0A@EA@exception@std@@8
rdata$r	ENDS
;	COMDAT ??_R3bad_alloc@std@@8
rdata$r	SEGMENT
??_R3bad_alloc@std@@8 DD 00H				; std::bad_alloc::`RTTI Class Hierarchy Descriptor'
	DD	00H
	DD	02H
	DD	FLAT:??_R2bad_alloc@std@@8
rdata$r	ENDS
;	COMDAT ??_R0?AVbad_alloc@std@@@8
_DATA	SEGMENT
??_R0?AVbad_alloc@std@@@8 DD FLAT:??_7type_info@@6B@	; std::bad_alloc `RTTI Type Descriptor'
	DD	00H
	DB	'.?AVbad_alloc@std@@', 00H
_DATA	ENDS
;	COMDAT ??_R4bad_alloc@std@@6B@
rdata$r	SEGMENT
??_R4bad_alloc@std@@6B@ DD 00H				; std::bad_alloc::`RTTI Complete Object Locator'
	DD	00H
	DD	00H
	DD	FLAT:??_R0?AVbad_alloc@std@@@8
	DD	FLAT:??_R3bad_alloc@std@@8
rdata$r	ENDS
;	COMDAT ??_7bad_alloc@std@@6B@
CONST	SEGMENT
??_7bad_alloc@std@@6B@ DD FLAT:??_R4bad_alloc@std@@6B@	; std::bad_alloc::`vftable'
	DD	FLAT:??_Ebad_alloc@std@@UAEPAXI@Z
	DD	FLAT:?what@exception@std@@UBEPBDXZ
; Function compile flags: /Ogtpy
CONST	ENDS
;	COMDAT ??0bad_alloc@std@@QAE@PBD@Z
_TEXT	SEGMENT
__Message$ = 8						; size = 4
??0bad_alloc@std@@QAE@PBD@Z PROC			; std::bad_alloc::bad_alloc, COMDAT
; _this$ = ecx

; 371  : 		{	// construct from message string

  00000	56		 push	 esi
  00001	8d 44 24 08	 lea	 eax, DWORD PTR __Message$[esp]
  00005	50		 push	 eax
  00006	8b f1		 mov	 esi, ecx
  00008	e8 00 00 00 00	 call	 ??0exception@std@@QAE@ABQBD@Z ; std::exception::exception
  0000d	c7 06 00 00 00
	00		 mov	 DWORD PTR [esi], OFFSET ??_7bad_alloc@std@@6B@

; 372  : 		}

  00013	8b c6		 mov	 eax, esi
  00015	5e		 pop	 esi
  00016	c2 04 00	 ret	 4
??0bad_alloc@std@@QAE@PBD@Z ENDP			; std::bad_alloc::bad_alloc
_TEXT	ENDS
PUBLIC	??1bad_alloc@std@@UAE@XZ			; std::bad_alloc::~bad_alloc
EXTRN	??1exception@std@@UAE@XZ:PROC			; std::exception::~exception
; Function compile flags: /Ogtpy
;	COMDAT ??1bad_alloc@std@@UAE@XZ
_TEXT	SEGMENT
??1bad_alloc@std@@UAE@XZ PROC				; std::bad_alloc::~bad_alloc, COMDAT
; _this$ = ecx

; 380  : 		{	// destroy the object

  00000	c7 01 00 00 00
	00		 mov	 DWORD PTR [ecx], OFFSET ??_7bad_alloc@std@@6B@

; 381  : 		}

  00006	e9 00 00 00 00	 jmp	 ??1exception@std@@UAE@XZ ; std::exception::~exception
??1bad_alloc@std@@UAE@XZ ENDP				; std::bad_alloc::~bad_alloc
_TEXT	ENDS
EXTRN	??3@YAXPAX@Z:PROC				; operator delete
; Function compile flags: /Ogtpy
;	COMDAT ??_Gbad_alloc@std@@UAEPAXI@Z
_TEXT	SEGMENT
___flags$ = 8						; size = 4
??_Gbad_alloc@std@@UAEPAXI@Z PROC			; std::bad_alloc::`scalar deleting destructor', COMDAT
; _this$ = ecx
  00000	56		 push	 esi
  00001	8b f1		 mov	 esi, ecx
  00003	c7 06 00 00 00
	00		 mov	 DWORD PTR [esi], OFFSET ??_7bad_alloc@std@@6B@
  00009	e8 00 00 00 00	 call	 ??1exception@std@@UAE@XZ ; std::exception::~exception
  0000e	f6 44 24 08 01	 test	 BYTE PTR ___flags$[esp], 1
  00013	74 09		 je	 SHORT $LN6@scalar
  00015	56		 push	 esi
  00016	e8 00 00 00 00	 call	 ??3@YAXPAX@Z		; operator delete
  0001b	83 c4 04	 add	 esp, 4
$LN6@scalar:
  0001e	8b c6		 mov	 eax, esi
  00020	5e		 pop	 esi
  00021	c2 04 00	 ret	 4
??_Gbad_alloc@std@@UAEPAXI@Z ENDP			; std::bad_alloc::`scalar deleting destructor'
_TEXT	ENDS
PUBLIC	??2@YAPAXIPAX@Z					; operator new
; Function compile flags: /Ogtpy
; File c:\program files (x86)\microsoft visual studio 9.0\vc\include\new
;	COMDAT ??2@YAPAXIPAX@Z
_TEXT	SEGMENT
___formal$ = 8						; size = 4
__Where$ = 12						; size = 4
??2@YAPAXIPAX@Z PROC					; operator new, COMDAT

; 59   : 	return (_Where);

  00000	8b 44 24 08	 mov	 eax, DWORD PTR __Where$[esp-4]

; 60   : 	}

  00004	c3		 ret	 0
??2@YAPAXIPAX@Z ENDP					; operator new
_TEXT	ENDS
PUBLIC	??3@YAXPAX0@Z					; operator delete
; Function compile flags: /Ogtpy
;	COMDAT ??3@YAXPAX0@Z
_TEXT	SEGMENT
___formal$ = 8						; size = 4
___formal$ = 12						; size = 4
??3@YAXPAX0@Z PROC					; operator delete, COMDAT

; 64   : 	}

  00000	c3		 ret	 0
??3@YAXPAX0@Z ENDP					; operator delete
_TEXT	ENDS
PUBLIC	_wmemcpy_s
EXTRN	_memcpy_s:PROC
; Function compile flags: /Ogtpy
; File c:\program files (x86)\microsoft visual studio 9.0\vc\include\wchar.h
;	COMDAT _wmemcpy_s
_TEXT	SEGMENT
__S1$ = 8						; size = 4
__N1$ = 12						; size = 4
__S2$ = 16						; size = 4
__N$ = 20						; size = 4
_wmemcpy_s PROC						; COMDAT

; 1232 : #pragma warning( push )
; 1233 : #pragma warning( disable : 6386 )
; 1234 :             return memcpy_s(_S1, _N1*sizeof(wchar_t), _S2, _N*sizeof(wchar_t));

  00000	8b 44 24 10	 mov	 eax, DWORD PTR __N$[esp-4]
  00004	8d 0c 00	 lea	 ecx, DWORD PTR [eax+eax]
  00007	89 4c 24 10	 mov	 DWORD PTR __N$[esp-4], ecx
  0000b	8b 44 24 08	 mov	 eax, DWORD PTR __N1$[esp-4]
  0000f	8d 0c 00	 lea	 ecx, DWORD PTR [eax+eax]
  00012	89 4c 24 08	 mov	 DWORD PTR __N1$[esp-4], ecx
  00016	e9 00 00 00 00	 jmp	 _memcpy_s
_wmemcpy_s ENDP
_TEXT	ENDS
PUBLIC	_wmemmove_s
EXTRN	_memmove_s:PROC
; Function compile flags: /Ogtpy
;	COMDAT _wmemmove_s
_TEXT	SEGMENT
__S1$ = 8						; size = 4
__N1$ = 12						; size = 4
__S2$ = 16						; size = 4
__N$ = 20						; size = 4
_wmemmove_s PROC					; COMDAT

; 1252 : #pragma warning( push )
; 1253 : #pragma warning( disable : 6386 )
; 1254 :             return memmove_s(_S1, _N1*sizeof(wchar_t), _S2, _N*sizeof(wchar_t));

  00000	8b 44 24 10	 mov	 eax, DWORD PTR __N$[esp-4]
  00004	8d 0c 00	 lea	 ecx, DWORD PTR [eax+eax]
  00007	89 4c 24 10	 mov	 DWORD PTR __N$[esp-4], ecx
  0000b	8b 44 24 08	 mov	 eax, DWORD PTR __N1$[esp-4]
  0000f	8d 0c 00	 lea	 ecx, DWORD PTR [eax+eax]
  00012	89 4c 24 08	 mov	 DWORD PTR __N1$[esp-4], ecx
  00016	e9 00 00 00 00	 jmp	 _memmove_s
_wmemmove_s ENDP
_TEXT	ENDS
PUBLIC	?assign@?$char_traits@_W@std@@SAXAA_WAB_W@Z	; std::char_traits<wchar_t>::assign
; Function compile flags: /Ogtpy
; File c:\program files (x86)\microsoft visual studio 9.0\vc\include\iosfwd
;	COMDAT ?assign@?$char_traits@_W@std@@SAXAA_WAB_W@Z
_TEXT	SEGMENT
__Left$ = 8						; size = 4
__Right$ = 12						; size = 4
?assign@?$char_traits@_W@std@@SAXAA_WAB_W@Z PROC	; std::char_traits<wchar_t>::assign, COMDAT

; 310  : 		_Left = _Right;

  00000	8b 44 24 08	 mov	 eax, DWORD PTR __Right$[esp-4]
  00004	66 8b 08	 mov	 cx, WORD PTR [eax]
  00007	8b 54 24 04	 mov	 edx, DWORD PTR __Left$[esp-4]
  0000b	66 89 0a	 mov	 WORD PTR [edx], cx

; 311  : 		}

  0000e	c3		 ret	 0
?assign@?$char_traits@_W@std@@SAXAA_WAB_W@Z ENDP	; std::char_traits<wchar_t>::assign
_TEXT	ENDS
PUBLIC	?length@?$char_traits@_W@std@@SAIPB_W@Z		; std::char_traits<wchar_t>::length
; Function compile flags: /Ogtpy
;	COMDAT ?length@?$char_traits@_W@std@@SAIPB_W@Z
_TEXT	SEGMENT
__First$ = 8						; size = 4
?length@?$char_traits@_W@std@@SAIPB_W@Z PROC		; std::char_traits<wchar_t>::length, COMDAT

; 333  : //		_DEBUG_POINTER(_First);
; 334  : 		return (::wcslen(_First));

  00000	8b 44 24 04	 mov	 eax, DWORD PTR __First$[esp-4]
  00004	8d 50 02	 lea	 edx, DWORD PTR [eax+2]
$LL3@length:
  00007	66 8b 08	 mov	 cx, WORD PTR [eax]
  0000a	83 c0 02	 add	 eax, 2
  0000d	66 85 c9	 test	 cx, cx
  00010	75 f5		 jne	 SHORT $LL3@length
  00012	2b c2		 sub	 eax, edx
  00014	d1 f8		 sar	 eax, 1

; 335  : 		}

  00016	c3		 ret	 0
?length@?$char_traits@_W@std@@SAIPB_W@Z ENDP		; std::char_traits<wchar_t>::length
_TEXT	ENDS
PUBLIC	?_Copy_s@?$char_traits@_W@std@@SAPA_WPA_WIPB_WI@Z ; std::char_traits<wchar_t>::_Copy_s
; Function compile flags: /Ogtpy
;	COMDAT ?_Copy_s@?$char_traits@_W@std@@SAPA_WPA_WIPB_WI@Z
_TEXT	SEGMENT
__First1$ = 8						; size = 4
__Size_in_words$ = 12					; size = 4
__First2$ = 16						; size = 4
__Count$ = 20						; size = 4
?_Copy_s@?$char_traits@_W@std@@SAPA_WPA_WIPB_WI@Z PROC	; std::char_traits<wchar_t>::_Copy_s, COMDAT

; 348  : //		_DEBUG_POINTER(_First1);
; 349  : //		_DEBUG_POINTER(_First2);
; 350  : 		_CRT_SECURE_WMEMCPY(_First1, _Size_in_words, _First2, _Count);

  00000	8b 44 24 10	 mov	 eax, DWORD PTR __Count$[esp-4]
  00004	8b 54 24 0c	 mov	 edx, DWORD PTR __First2$[esp-4]
  00008	56		 push	 esi
  00009	8b 74 24 08	 mov	 esi, DWORD PTR __First1$[esp]
  0000d	8d 0c 00	 lea	 ecx, DWORD PTR [eax+eax]
  00010	8b 44 24 0c	 mov	 eax, DWORD PTR __Size_in_words$[esp]
  00014	51		 push	 ecx
  00015	52		 push	 edx
  00016	8d 0c 00	 lea	 ecx, DWORD PTR [eax+eax]
  00019	51		 push	 ecx
  0001a	56		 push	 esi
  0001b	e8 00 00 00 00	 call	 _memcpy_s
  00020	83 c4 10	 add	 esp, 16			; 00000010H

; 351  : 		return _First1;

  00023	8b c6		 mov	 eax, esi
  00025	5e		 pop	 esi

; 352  : 		}

  00026	c3		 ret	 0
?_Copy_s@?$char_traits@_W@std@@SAPA_WPA_WIPB_WI@Z ENDP	; std::char_traits<wchar_t>::_Copy_s
_TEXT	ENDS
PUBLIC	?_Move_s@?$char_traits@_W@std@@SAPA_WPA_WIPB_WI@Z ; std::char_traits<wchar_t>::_Move_s
; Function compile flags: /Ogtpy
;	COMDAT ?_Move_s@?$char_traits@_W@std@@SAPA_WPA_WIPB_WI@Z
_TEXT	SEGMENT
__First1$ = 8						; size = 4
__Size_in_words$ = 12					; size = 4
__First2$ = 16						; size = 4
__Count$ = 20						; size = 4
?_Move_s@?$char_traits@_W@std@@SAPA_WPA_WIPB_WI@Z PROC	; std::char_traits<wchar_t>::_Move_s, COMDAT

; 372  : //		_DEBUG_POINTER(_First1);
; 373  : //		_DEBUG_POINTER(_First2);
; 374  : 		_CRT_SECURE_WMEMMOVE(_First1, _Size_in_words, _First2, _Count);

  00000	8b 44 24 10	 mov	 eax, DWORD PTR __Count$[esp-4]
  00004	8b 54 24 0c	 mov	 edx, DWORD PTR __First2$[esp-4]
  00008	56		 push	 esi
  00009	8b 74 24 08	 mov	 esi, DWORD PTR __First1$[esp]
  0000d	8d 0c 00	 lea	 ecx, DWORD PTR [eax+eax]
  00010	8b 44 24 0c	 mov	 eax, DWORD PTR __Size_in_words$[esp]
  00014	51		 push	 ecx
  00015	52		 push	 edx
  00016	8d 0c 00	 lea	 ecx, DWORD PTR [eax+eax]
  00019	51		 push	 ecx
  0001a	56		 push	 esi
  0001b	e8 00 00 00 00	 call	 _memmove_s
  00020	83 c4 10	 add	 esp, 16			; 00000010H

; 375  : 		return (_Elem *)_First1;

  00023	8b c6		 mov	 eax, esi
  00025	5e		 pop	 esi

; 376  : 		}

  00026	c3		 ret	 0
?_Move_s@?$char_traits@_W@std@@SAPA_WPA_WIPB_WI@Z ENDP	; std::char_traits<wchar_t>::_Move_s
_TEXT	ENDS
PUBLIC	?to_int_type@?$char_traits@_W@std@@SAGAB_W@Z	; std::char_traits<wchar_t>::to_int_type
; Function compile flags: /Ogtpy
;	COMDAT ?to_int_type@?$char_traits@_W@std@@SAGAB_W@Z
_TEXT	SEGMENT
__Ch$ = 8						; size = 4
?to_int_type@?$char_traits@_W@std@@SAGAB_W@Z PROC	; std::char_traits<wchar_t>::to_int_type, COMDAT

; 391  : 		return (_Ch);

  00000	8b 44 24 04	 mov	 eax, DWORD PTR __Ch$[esp-4]
  00004	66 8b 00	 mov	 ax, WORD PTR [eax]

; 392  : 		}

  00007	c3		 ret	 0
?to_int_type@?$char_traits@_W@std@@SAGAB_W@Z ENDP	; std::char_traits<wchar_t>::to_int_type
_TEXT	ENDS
PUBLIC	?eq_int_type@?$char_traits@_W@std@@SA_NABG0@Z	; std::char_traits<wchar_t>::eq_int_type
; Function compile flags: /Ogtpy
;	COMDAT ?eq_int_type@?$char_traits@_W@std@@SA_NABG0@Z
_TEXT	SEGMENT
__Left$ = 8						; size = 4
__Right$ = 12						; size = 4
?eq_int_type@?$char_traits@_W@std@@SA_NABG0@Z PROC	; std::char_traits<wchar_t>::eq_int_type, COMDAT

; 397  : 		return (_Left == _Right);

  00000	8b 44 24 04	 mov	 eax, DWORD PTR __Left$[esp-4]
  00004	66 8b 08	 mov	 cx, WORD PTR [eax]
  00007	8b 54 24 08	 mov	 edx, DWORD PTR __Right$[esp-4]
  0000b	33 c0		 xor	 eax, eax
  0000d	66 3b 0a	 cmp	 cx, WORD PTR [edx]
  00010	0f 94 c0	 sete	 al

; 398  : 		}

  00013	c3		 ret	 0
?eq_int_type@?$char_traits@_W@std@@SA_NABG0@Z ENDP	; std::char_traits<wchar_t>::eq_int_type
_TEXT	ENDS
PUBLIC	?eof@?$char_traits@_W@std@@SAGXZ		; std::char_traits<wchar_t>::eof
; Function compile flags: /Ogtpy
;	COMDAT ?eof@?$char_traits@_W@std@@SAGXZ
_TEXT	SEGMENT
?eof@?$char_traits@_W@std@@SAGXZ PROC			; std::char_traits<wchar_t>::eof, COMDAT

; 402  : 		return (WEOF);

  00000	b8 ff ff 00 00	 mov	 eax, 65535		; 0000ffffH

; 403  : 		}

  00005	c3		 ret	 0
?eof@?$char_traits@_W@std@@SAGXZ ENDP			; std::char_traits<wchar_t>::eof
_TEXT	ENDS
PUBLIC	?assign@?$char_traits@D@std@@SAXAADABD@Z	; std::char_traits<char>::assign
; Function compile flags: /Ogtpy
;	COMDAT ?assign@?$char_traits@D@std@@SAXAADABD@Z
_TEXT	SEGMENT
__Left$ = 8						; size = 4
__Right$ = 12						; size = 4
?assign@?$char_traits@D@std@@SAXAADABD@Z PROC		; std::char_traits<char>::assign, COMDAT

; 425  : 		_Left = _Right;

  00000	8b 44 24 08	 mov	 eax, DWORD PTR __Right$[esp-4]
  00004	8a 08		 mov	 cl, BYTE PTR [eax]
  00006	8b 54 24 04	 mov	 edx, DWORD PTR __Left$[esp-4]
  0000a	88 0a		 mov	 BYTE PTR [edx], cl

; 426  : 		}

  0000c	c3		 ret	 0
?assign@?$char_traits@D@std@@SAXAADABD@Z ENDP		; std::char_traits<char>::assign
_TEXT	ENDS
PUBLIC	?eq@?$char_traits@D@std@@SA_NABD0@Z		; std::char_traits<char>::eq
; Function compile flags: /Ogtpy
;	COMDAT ?eq@?$char_traits@D@std@@SA_NABD0@Z
_TEXT	SEGMENT
__Left$ = 8						; size = 4
__Right$ = 12						; size = 4
?eq@?$char_traits@D@std@@SA_NABD0@Z PROC		; std::char_traits<char>::eq, COMDAT

; 430  : 		return (_Left == _Right);

  00000	8b 44 24 04	 mov	 eax, DWORD PTR __Left$[esp-4]
  00004	8a 08		 mov	 cl, BYTE PTR [eax]
  00006	8b 54 24 08	 mov	 edx, DWORD PTR __Right$[esp-4]
  0000a	33 c0		 xor	 eax, eax
  0000c	3a 0a		 cmp	 cl, BYTE PTR [edx]
  0000e	0f 94 c0	 sete	 al

; 431  : 		}

  00011	c3		 ret	 0
?eq@?$char_traits@D@std@@SA_NABD0@Z ENDP		; std::char_traits<char>::eq
_TEXT	ENDS
PUBLIC	?compare@?$char_traits@D@std@@SAHPBD0I@Z	; std::char_traits<char>::compare
; Function compile flags: /Ogtpy
;	COMDAT ?compare@?$char_traits@D@std@@SAHPBD0I@Z
_TEXT	SEGMENT
__First1$ = 8						; size = 4
__First2$ = 12						; size = 4
__Count$ = 16						; size = 4
?compare@?$char_traits@D@std@@SAHPBD0I@Z PROC		; std::char_traits<char>::compare, COMDAT

; 441  : //		_DEBUG_POINTER(_First1);
; 442  : //		_DEBUG_POINTER(_First2);
; 443  : 		return (::memcmp(_First1, _First2, _Count));

  00000	8b 4c 24 08	 mov	 ecx, DWORD PTR __First2$[esp-4]
  00004	8b 54 24 04	 mov	 edx, DWORD PTR __First1$[esp-4]
  00008	56		 push	 esi
  00009	8b 74 24 10	 mov	 esi, DWORD PTR __Count$[esp]
  0000d	57		 push	 edi
  0000e	83 fe 04	 cmp	 esi, 4
  00011	72 14		 jb	 SHORT $LN11@compare
$LL4@compare:
  00013	8b 02		 mov	 eax, DWORD PTR [edx]
  00015	3b 01		 cmp	 eax, DWORD PTR [ecx]
  00017	75 12		 jne	 SHORT $LN5@compare
  00019	83 ee 04	 sub	 esi, 4
  0001c	83 c1 04	 add	 ecx, 4
  0001f	83 c2 04	 add	 edx, 4
  00022	83 fe 04	 cmp	 esi, 4
  00025	73 ec		 jae	 SHORT $LL4@compare
$LN11@compare:
  00027	85 f6		 test	 esi, esi
  00029	74 44		 je	 SHORT $LN6@compare
$LN5@compare:
  0002b	0f b6 02	 movzx	 eax, BYTE PTR [edx]
  0002e	0f b6 39	 movzx	 edi, BYTE PTR [ecx]
  00031	2b c7		 sub	 eax, edi
  00033	75 31		 jne	 SHORT $LN7@compare
  00035	83 fe 01	 cmp	 esi, 1
  00038	76 35		 jbe	 SHORT $LN6@compare
  0003a	0f b6 42 01	 movzx	 eax, BYTE PTR [edx+1]
  0003e	0f b6 79 01	 movzx	 edi, BYTE PTR [ecx+1]
  00042	2b c7		 sub	 eax, edi
  00044	75 20		 jne	 SHORT $LN7@compare
  00046	83 fe 02	 cmp	 esi, 2
  00049	76 24		 jbe	 SHORT $LN6@compare
  0004b	0f b6 42 02	 movzx	 eax, BYTE PTR [edx+2]
  0004f	0f b6 79 02	 movzx	 edi, BYTE PTR [ecx+2]
  00053	2b c7		 sub	 eax, edi
  00055	75 0f		 jne	 SHORT $LN7@compare
  00057	83 fe 03	 cmp	 esi, 3
  0005a	76 13		 jbe	 SHORT $LN6@compare
  0005c	0f b6 42 03	 movzx	 eax, BYTE PTR [edx+3]
  00060	0f b6 49 03	 movzx	 ecx, BYTE PTR [ecx+3]
  00064	2b c1		 sub	 eax, ecx
$LN7@compare:
  00066	c1 f8 1f	 sar	 eax, 31			; 0000001fH
  00069	5f		 pop	 edi
  0006a	83 c8 01	 or	 eax, 1
  0006d	5e		 pop	 esi

; 444  : 		}

  0006e	c3		 ret	 0
$LN6@compare:
  0006f	5f		 pop	 edi

; 441  : //		_DEBUG_POINTER(_First1);
; 442  : //		_DEBUG_POINTER(_First2);
; 443  : 		return (::memcmp(_First1, _First2, _Count));

  00070	33 c0		 xor	 eax, eax
  00072	5e		 pop	 esi

; 444  : 		}

  00073	c3		 ret	 0
?compare@?$char_traits@D@std@@SAHPBD0I@Z ENDP		; std::char_traits<char>::compare
_TEXT	ENDS
PUBLIC	?length@?$char_traits@D@std@@SAIPBD@Z		; std::char_traits<char>::length
; Function compile flags: /Ogtpy
;	COMDAT ?length@?$char_traits@D@std@@SAIPBD@Z
_TEXT	SEGMENT
__First$ = 8						; size = 4
?length@?$char_traits@D@std@@SAIPBD@Z PROC		; std::char_traits<char>::length, COMDAT

; 448  : //		_DEBUG_POINTER(_First);
; 449  : 		return (::strlen(_First));

  00000	8b 44 24 04	 mov	 eax, DWORD PTR __First$[esp-4]
  00004	8d 50 01	 lea	 edx, DWORD PTR [eax+1]
$LL3@length@2:
  00007	8a 08		 mov	 cl, BYTE PTR [eax]
  00009	40		 inc	 eax
  0000a	84 c9		 test	 cl, cl
  0000c	75 f9		 jne	 SHORT $LL3@length@2
  0000e	2b c2		 sub	 eax, edx

; 450  : 		}

  00010	c3		 ret	 0
?length@?$char_traits@D@std@@SAIPBD@Z ENDP		; std::char_traits<char>::length
_TEXT	ENDS
PUBLIC	?_Copy_s@?$char_traits@D@std@@SAPADPADIPBDI@Z	; std::char_traits<char>::_Copy_s
; Function compile flags: /Ogtpy
;	COMDAT ?_Copy_s@?$char_traits@D@std@@SAPADPADIPBDI@Z
_TEXT	SEGMENT
__First1$ = 8						; size = 4
__Size_in_bytes$ = 12					; size = 4
__First2$ = 16						; size = 4
__Count$ = 20						; size = 4
?_Copy_s@?$char_traits@D@std@@SAPADPADIPBDI@Z PROC	; std::char_traits<char>::_Copy_s, COMDAT

; 463  : //		_DEBUG_POINTER(_First1);
; 464  : //		_DEBUG_POINTER(_First2);
; 465  : 		_CRT_SECURE_MEMCPY(_First1, _Size_in_bytes, _First2, _Count);

  00000	8b 44 24 10	 mov	 eax, DWORD PTR __Count$[esp-4]
  00004	8b 4c 24 0c	 mov	 ecx, DWORD PTR __First2$[esp-4]
  00008	8b 54 24 08	 mov	 edx, DWORD PTR __Size_in_bytes$[esp-4]
  0000c	56		 push	 esi
  0000d	8b 74 24 08	 mov	 esi, DWORD PTR __First1$[esp]
  00011	50		 push	 eax
  00012	51		 push	 ecx
  00013	52		 push	 edx
  00014	56		 push	 esi
  00015	e8 00 00 00 00	 call	 _memcpy_s
  0001a	83 c4 10	 add	 esp, 16			; 00000010H

; 466  : 		return _First1;

  0001d	8b c6		 mov	 eax, esi
  0001f	5e		 pop	 esi

; 467  : 		}

  00020	c3		 ret	 0
?_Copy_s@?$char_traits@D@std@@SAPADPADIPBDI@Z ENDP	; std::char_traits<char>::_Copy_s
_TEXT	ENDS
PUBLIC	?find@?$char_traits@D@std@@SAPBDPBDIABD@Z	; std::char_traits<char>::find
EXTRN	_memchr:PROC
; Function compile flags: /Ogtpy
;	COMDAT ?find@?$char_traits@D@std@@SAPBDPBDIABD@Z
_TEXT	SEGMENT
__First$ = 8						; size = 4
__Count$ = 12						; size = 4
__Ch$ = 16						; size = 4
?find@?$char_traits@D@std@@SAPBDPBDIABD@Z PROC		; std::char_traits<char>::find, COMDAT

; 472  : //		_DEBUG_POINTER(_First);
; 473  : 		return ((const _Elem *)::memchr(_First, _Ch, _Count));

  00000	8b 4c 24 0c	 mov	 ecx, DWORD PTR __Ch$[esp-4]
  00004	8b 44 24 08	 mov	 eax, DWORD PTR __Count$[esp-4]
  00008	0f be 11	 movsx	 edx, BYTE PTR [ecx]
  0000b	50		 push	 eax
  0000c	8b 44 24 08	 mov	 eax, DWORD PTR __First$[esp]
  00010	52		 push	 edx
  00011	50		 push	 eax
  00012	e8 00 00 00 00	 call	 _memchr
  00017	83 c4 0c	 add	 esp, 12			; 0000000cH

; 474  : 		}

  0001a	c3		 ret	 0
?find@?$char_traits@D@std@@SAPBDPBDIABD@Z ENDP		; std::char_traits<char>::find
_TEXT	ENDS
PUBLIC	?_Move_s@?$char_traits@D@std@@SAPADPADIPBDI@Z	; std::char_traits<char>::_Move_s
; Function compile flags: /Ogtpy
;	COMDAT ?_Move_s@?$char_traits@D@std@@SAPADPADIPBDI@Z
_TEXT	SEGMENT
__First1$ = 8						; size = 4
__Size_in_bytes$ = 12					; size = 4
__First2$ = 16						; size = 4
__Count$ = 20						; size = 4
?_Move_s@?$char_traits@D@std@@SAPADPADIPBDI@Z PROC	; std::char_traits<char>::_Move_s, COMDAT

; 487  : //		_DEBUG_POINTER(_First1);
; 488  : //		_DEBUG_POINTER(_First2);
; 489  : 		_CRT_SECURE_MEMMOVE(_First1, _Size_in_bytes, _First2, _Count);

  00000	8b 44 24 10	 mov	 eax, DWORD PTR __Count$[esp-4]
  00004	8b 4c 24 0c	 mov	 ecx, DWORD PTR __First2$[esp-4]
  00008	8b 54 24 08	 mov	 edx, DWORD PTR __Size_in_bytes$[esp-4]
  0000c	56		 push	 esi
  0000d	8b 74 24 08	 mov	 esi, DWORD PTR __First1$[esp]
  00011	50		 push	 eax
  00012	51		 push	 ecx
  00013	52		 push	 edx
  00014	56		 push	 esi
  00015	e8 00 00 00 00	 call	 _memmove_s
  0001a	83 c4 10	 add	 esp, 16			; 00000010H

; 490  : 		return _First1;

  0001d	8b c6		 mov	 eax, esi
  0001f	5e		 pop	 esi

; 491  : 		}

  00020	c3		 ret	 0
?_Move_s@?$char_traits@D@std@@SAPADPADIPBDI@Z ENDP	; std::char_traits<char>::_Move_s
_TEXT	ENDS
PUBLIC	?assign@?$char_traits@D@std@@SAPADPADID@Z	; std::char_traits<char>::assign
EXTRN	_memset:PROC
; Function compile flags: /Ogtpy
;	COMDAT ?assign@?$char_traits@D@std@@SAPADPADID@Z
_TEXT	SEGMENT
__First$ = 8						; size = 4
__Count$ = 12						; size = 4
__Ch$ = 16						; size = 1
?assign@?$char_traits@D@std@@SAPADPADID@Z PROC		; std::char_traits<char>::assign, COMDAT

; 495  : //		_DEBUG_POINTER(_First);
; 496  : 		return ((_Elem *)::memset(_First, _Ch, _Count));

  00000	8b 44 24 08	 mov	 eax, DWORD PTR __Count$[esp-4]
  00004	0f be 4c 24 0c	 movsx	 ecx, BYTE PTR __Ch$[esp-4]
  00009	8b 54 24 04	 mov	 edx, DWORD PTR __First$[esp-4]
  0000d	50		 push	 eax
  0000e	51		 push	 ecx
  0000f	52		 push	 edx
  00010	e8 00 00 00 00	 call	 _memset
  00015	83 c4 0c	 add	 esp, 12			; 0000000cH

; 497  : 		}

  00018	c3		 ret	 0
?assign@?$char_traits@D@std@@SAPADPADID@Z ENDP		; std::char_traits<char>::assign
_TEXT	ENDS
PUBLIC	?to_int_type@?$char_traits@D@std@@SAHABD@Z	; std::char_traits<char>::to_int_type
; Function compile flags: /Ogtpy
;	COMDAT ?to_int_type@?$char_traits@D@std@@SAHABD@Z
_TEXT	SEGMENT
__Ch$ = 8						; size = 4
?to_int_type@?$char_traits@D@std@@SAHABD@Z PROC		; std::char_traits<char>::to_int_type, COMDAT

; 506  : 		return ((unsigned char)_Ch);

  00000	8b 44 24 04	 mov	 eax, DWORD PTR __Ch$[esp-4]
  00004	0f b6 00	 movzx	 eax, BYTE PTR [eax]

; 507  : 		}

  00007	c3		 ret	 0
?to_int_type@?$char_traits@D@std@@SAHABD@Z ENDP		; std::char_traits<char>::to_int_type
_TEXT	ENDS
PUBLIC	?eq_int_type@?$char_traits@D@std@@SA_NABH0@Z	; std::char_traits<char>::eq_int_type
; Function compile flags: /Ogtpy
;	COMDAT ?eq_int_type@?$char_traits@D@std@@SA_NABH0@Z
_TEXT	SEGMENT
__Left$ = 8						; size = 4
__Right$ = 12						; size = 4
?eq_int_type@?$char_traits@D@std@@SA_NABH0@Z PROC	; std::char_traits<char>::eq_int_type, COMDAT

; 512  : 		return (_Left == _Right);

  00000	8b 44 24 04	 mov	 eax, DWORD PTR __Left$[esp-4]
  00004	8b 08		 mov	 ecx, DWORD PTR [eax]
  00006	8b 54 24 08	 mov	 edx, DWORD PTR __Right$[esp-4]
  0000a	33 c0		 xor	 eax, eax
  0000c	3b 0a		 cmp	 ecx, DWORD PTR [edx]
  0000e	0f 94 c0	 sete	 al

; 513  : 		}

  00011	c3		 ret	 0
?eq_int_type@?$char_traits@D@std@@SA_NABH0@Z ENDP	; std::char_traits<char>::eq_int_type
_TEXT	ENDS
PUBLIC	?eof@?$char_traits@D@std@@SAHXZ			; std::char_traits<char>::eof
; Function compile flags: /Ogtpy
;	COMDAT ?eof@?$char_traits@D@std@@SAHXZ
_TEXT	SEGMENT
?eof@?$char_traits@D@std@@SAHXZ PROC			; std::char_traits<char>::eof, COMDAT

; 517  : 		return (EOF);

  00000	83 c8 ff	 or	 eax, -1

; 518  : 		}

  00003	c3		 ret	 0
?eof@?$char_traits@D@std@@SAHXZ ENDP			; std::char_traits<char>::eof
_TEXT	ENDS
PUBLIC	??0_Aux_cont@std@@QAE@QBV_Container_base_aux@1@@Z ; std::_Aux_cont::_Aux_cont
; Function compile flags: /Ogtpy
; File c:\program files (x86)\microsoft visual studio 9.0\vc\include\xutility
;	COMDAT ??0_Aux_cont@std@@QAE@QBV_Container_base_aux@1@@Z
_TEXT	SEGMENT
__Pcont$ = 8						; size = 4
??0_Aux_cont@std@@QAE@QBV_Container_base_aux@1@@Z PROC	; std::_Aux_cont::_Aux_cont, COMDAT
; _this$ = ecx

; 364  : 	explicit _Aux_cont(const _Container_base_aux * const _Pcont)

  00000	8b c1		 mov	 eax, ecx
  00002	8b 4c 24 04	 mov	 ecx, DWORD PTR __Pcont$[esp-4]
  00006	89 08		 mov	 DWORD PTR [eax], ecx
  00008	c2 04 00	 ret	 4
??0_Aux_cont@std@@QAE@QBV_Container_base_aux@1@@Z ENDP	; std::_Aux_cont::_Aux_cont
_TEXT	ENDS
PUBLIC	?_Getcont@_Aux_cont@std@@QBEPBV_Container_base_aux@2@XZ ; std::_Aux_cont::_Getcont
; Function compile flags: /Ogtpy
;	COMDAT ?_Getcont@_Aux_cont@std@@QBEPBV_Container_base_aux@2@XZ
_TEXT	SEGMENT
?_Getcont@_Aux_cont@std@@QBEPBV_Container_base_aux@2@XZ PROC ; std::_Aux_cont::_Getcont, COMDAT
; _this$ = ecx

; 369  : 		return _Mycontainer;

  00000	8b 01		 mov	 eax, DWORD PTR [ecx]

; 370  : 		}

  00002	c3		 ret	 0
?_Getcont@_Aux_cont@std@@QBEPBV_Container_base_aux@2@XZ ENDP ; std::_Aux_cont::_Getcont
_TEXT	ENDS
PUBLIC	??0_Container_base_aux@std@@QAE@XZ		; std::_Container_base_aux::_Container_base_aux
; Function compile flags: /Ogtpy
;	COMDAT ??0_Container_base_aux@std@@QAE@XZ
_TEXT	SEGMENT
??0_Container_base_aux@std@@QAE@XZ PROC			; std::_Container_base_aux::_Container_base_aux, COMDAT
; _this$ = ecx

; 379  : 	_Container_base_aux()

  00000	8b c1		 mov	 eax, ecx

; 380  : 		{
; 381  : 		// Do nothing: _Container_base_aux_alloc_real() will construct the aux object.
; 382  : 		}

  00002	c3		 ret	 0
??0_Container_base_aux@std@@QAE@XZ ENDP			; std::_Container_base_aux::_Container_base_aux
_TEXT	ENDS
PUBLIC	??1_Container_base_aux@std@@QAE@XZ		; std::_Container_base_aux::~_Container_base_aux
; Function compile flags: /Ogtpy
;	COMDAT ??1_Container_base_aux@std@@QAE@XZ
_TEXT	SEGMENT
??1_Container_base_aux@std@@QAE@XZ PROC			; std::_Container_base_aux::~_Container_base_aux, COMDAT
; _this$ = ecx

; 403  : 		// Do nothing: ~_Container_base_aux_alloc_real() previously destroyed the aux object.
; 404  : 		}

  00000	c3		 ret	 0
??1_Container_base_aux@std@@QAE@XZ ENDP			; std::_Container_base_aux::~_Container_base_aux
_TEXT	ENDS
PUBLIC	??0_Iterator_base_aux@std@@QAE@XZ		; std::_Iterator_base_aux::_Iterator_base_aux
; Function compile flags: /Ogtpy
;	COMDAT ??0_Iterator_base_aux@std@@QAE@XZ
_TEXT	SEGMENT
??0_Iterator_base_aux@std@@QAE@XZ PROC			; std::_Iterator_base_aux::_Iterator_base_aux, COMDAT
; _this$ = ecx

; 448  : 	_Iterator_base_aux()

  00000	8b c1		 mov	 eax, ecx
  00002	c7 00 00 00 00
	00		 mov	 DWORD PTR [eax], 0
  00008	c3		 ret	 0
??0_Iterator_base_aux@std@@QAE@XZ ENDP			; std::_Iterator_base_aux::_Iterator_base_aux
_TEXT	ENDS
PUBLIC	?_Set_container@_Iterator_base_aux@std@@QAEXQBV_Container_base_aux@2@@Z ; std::_Iterator_base_aux::_Set_container
; Function compile flags: /Ogtpy
;	COMDAT ?_Set_container@_Iterator_base_aux@std@@QAEXQBV_Container_base_aux@2@@Z
_TEXT	SEGMENT
__Pcont$ = 8						; size = 4
?_Set_container@_Iterator_base_aux@std@@QAEXQBV_Container_base_aux@2@@Z PROC ; std::_Iterator_base_aux::_Set_container, COMDAT
; _this$ = ecx

; 453  : 		_Myaux = _Pcont->_Myownedaux;

  00000	8b 44 24 04	 mov	 eax, DWORD PTR __Pcont$[esp-4]
  00004	8b 10		 mov	 edx, DWORD PTR [eax]
  00006	89 11		 mov	 DWORD PTR [ecx], edx

; 454  : 		}

  00008	c2 04 00	 ret	 4
?_Set_container@_Iterator_base_aux@std@@QAEXQBV_Container_base_aux@2@@Z ENDP ; std::_Iterator_base_aux::_Set_container
_TEXT	ENDS
PUBLIC	?_Getmycont@_Iterator_base_aux@std@@QBEPBV_Container_base_aux@2@XZ ; std::_Iterator_base_aux::_Getmycont
; Function compile flags: /Ogtpy
;	COMDAT ?_Getmycont@_Iterator_base_aux@std@@QBEPBV_Container_base_aux@2@XZ
_TEXT	SEGMENT
?_Getmycont@_Iterator_base_aux@std@@QBEPBV_Container_base_aux@2@XZ PROC ; std::_Iterator_base_aux::_Getmycont, COMDAT
; _this$ = ecx

; 458  : 		return _Myaux ? _Myaux->_Getcont() : 0;

  00000	8b 01		 mov	 eax, DWORD PTR [ecx]
  00002	85 c0		 test	 eax, eax
  00004	74 03		 je	 SHORT $LN3@Getmycont
  00006	8b 00		 mov	 eax, DWORD PTR [eax]

; 459  : 		}

  00008	c3		 ret	 0
$LN3@Getmycont:

; 458  : 		return _Myaux ? _Myaux->_Getcont() : 0;

  00009	33 c0		 xor	 eax, eax

; 459  : 		}

  0000b	c3		 ret	 0
?_Getmycont@_Iterator_base_aux@std@@QBEPBV_Container_base_aux@2@XZ ENDP ; std::_Iterator_base_aux::_Getmycont
_TEXT	ENDS
PUBLIC	?_Same_container@_Iterator_base_aux@std@@QBE_NABV12@@Z ; std::_Iterator_base_aux::_Same_container
; Function compile flags: /Ogtpy
;	COMDAT ?_Same_container@_Iterator_base_aux@std@@QBE_NABV12@@Z
_TEXT	SEGMENT
__Other$ = 8						; size = 4
?_Same_container@_Iterator_base_aux@std@@QBE_NABV12@@Z PROC ; std::_Iterator_base_aux::_Same_container, COMDAT
; _this$ = ecx

; 463  : 		return _Myaux == _Other._Myaux;

  00000	8b 01		 mov	 eax, DWORD PTR [ecx]
  00002	8b 54 24 04	 mov	 edx, DWORD PTR __Other$[esp-4]
  00006	33 c9		 xor	 ecx, ecx
  00008	3b 02		 cmp	 eax, DWORD PTR [edx]
  0000a	0f 94 c1	 sete	 cl
  0000d	8a c1		 mov	 al, cl

; 464  : 		}

  0000f	c2 04 00	 ret	 4
?_Same_container@_Iterator_base_aux@std@@QBE_NABV12@@Z ENDP ; std::_Iterator_base_aux::_Same_container
_TEXT	ENDS
PUBLIC	?_Has_container@_Iterator_base_aux@std@@QBE_NXZ	; std::_Iterator_base_aux::_Has_container
; Function compile flags: /Ogtpy
;	COMDAT ?_Has_container@_Iterator_base_aux@std@@QBE_NXZ
_TEXT	SEGMENT
?_Has_container@_Iterator_base_aux@std@@QBE_NXZ PROC	; std::_Iterator_base_aux::_Has_container, COMDAT
; _this$ = ecx

; 468  : 		return _Myaux != 0;

  00000	33 c0		 xor	 eax, eax
  00002	39 01		 cmp	 DWORD PTR [ecx], eax
  00004	0f 95 c0	 setne	 al

; 469  : 		}

  00007	c3		 ret	 0
?_Has_container@_Iterator_base_aux@std@@QBE_NXZ ENDP	; std::_Iterator_base_aux::_Has_container
_TEXT	ENDS
PUBLIC	?_Getctype@_Locinfo@std@@QBE?AU_Ctypevec@@XZ	; std::_Locinfo::_Getctype
EXTRN	__Getctype:PROC
; Function compile flags: /Ogtpy
; File c:\program files (x86)\microsoft visual studio 9.0\vc\include\xlocinfo
;	COMDAT ?_Getctype@_Locinfo@std@@QBE?AU_Ctypevec@@XZ
_TEXT	SEGMENT
$T151120 = -16						; size = 16
___$ReturnUdt$ = 8					; size = 4
?_Getctype@_Locinfo@std@@QBE?AU_Ctypevec@@XZ PROC	; std::_Locinfo::_Getctype, COMDAT
; _this$ = ecx

; 123  : 		{	// return ctype stuff

  00000	83 ec 10	 sub	 esp, 16			; 00000010H

; 124  : 		return (::_Getctype());

  00003	8d 04 24	 lea	 eax, DWORD PTR $T151120[esp+16]
  00006	50		 push	 eax
  00007	e8 00 00 00 00	 call	 __Getctype
  0000c	8b 4c 24 18	 mov	 ecx, DWORD PTR ___$ReturnUdt$[esp+16]
  00010	8b 10		 mov	 edx, DWORD PTR [eax]
  00012	89 11		 mov	 DWORD PTR [ecx], edx
  00014	8b 50 04	 mov	 edx, DWORD PTR [eax+4]
  00017	89 51 04	 mov	 DWORD PTR [ecx+4], edx
  0001a	8b 50 08	 mov	 edx, DWORD PTR [eax+8]
  0001d	8b 40 0c	 mov	 eax, DWORD PTR [eax+12]
  00020	89 51 08	 mov	 DWORD PTR [ecx+8], edx
  00023	89 41 0c	 mov	 DWORD PTR [ecx+12], eax
  00026	8b c1		 mov	 eax, ecx

; 125  : 		}

  00028	83 c4 14	 add	 esp, 20			; 00000014H
  0002b	c2 04 00	 ret	 4
?_Getctype@_Locinfo@std@@QBE?AU_Ctypevec@@XZ ENDP	; std::_Locinfo::_Getctype
_TEXT	ENDS
PUBLIC	?_Getcvt@_Locinfo@std@@QBE?AU_Cvtvec@@XZ	; std::_Locinfo::_Getcvt
EXTRN	__Getcvt:PROC
; Function compile flags: /Ogtpy
;	COMDAT ?_Getcvt@_Locinfo@std@@QBE?AU_Cvtvec@@XZ
_TEXT	SEGMENT
___$ReturnUdt$ = 8					; size = 4
?_Getcvt@_Locinfo@std@@QBE?AU_Cvtvec@@XZ PROC		; std::_Locinfo::_Getcvt, COMDAT
; _this$ = ecx

; 129  : 		return (::_Getcvt());

  00000	e8 00 00 00 00	 call	 __Getcvt
  00005	8b c8		 mov	 ecx, eax
  00007	8b 44 24 04	 mov	 eax, DWORD PTR ___$ReturnUdt$[esp-4]
  0000b	89 08		 mov	 DWORD PTR [eax], ecx
  0000d	89 50 04	 mov	 DWORD PTR [eax+4], edx

; 130  : 		}

  00010	c2 04 00	 ret	 4
?_Getcvt@_Locinfo@std@@QBE?AU_Cvtvec@@XZ ENDP		; std::_Locinfo::_Getcvt
_TEXT	ENDS
PUBLIC	??0id@locale@std@@QAE@I@Z			; std::locale::id::id
; Function compile flags: /Ogtpy
; File c:\program files (x86)\microsoft visual studio 9.0\vc\include\xlocale
;	COMDAT ??0id@locale@std@@QAE@I@Z
_TEXT	SEGMENT
__Val$ = 8						; size = 4
??0id@locale@std@@QAE@I@Z PROC				; std::locale::id::id, COMDAT
; _this$ = ecx

; 73   : 			{	// construct with specified stamp value

  00000	8b c1		 mov	 eax, ecx
  00002	8b 4c 24 04	 mov	 ecx, DWORD PTR __Val$[esp-4]
  00006	89 08		 mov	 DWORD PTR [eax], ecx

; 74   : 			}

  00008	c2 04 00	 ret	 4
??0id@locale@std@@QAE@I@Z ENDP				; std::locale::id::id
_TEXT	ENDS
PUBLIC	??Bid@locale@std@@QAEIXZ			; std::locale::id::operator unsigned int
EXTRN	??1_Lockit@std@@QAE@XZ:PROC			; std::_Lockit::~_Lockit
EXTRN	?_Id_cnt@id@locale@std@@0HA:DWORD		; std::locale::id::_Id_cnt
EXTRN	??0_Lockit@std@@QAE@H@Z:PROC			; std::_Lockit::_Lockit
; Function compile flags: /Ogtpy
;	COMDAT ??Bid@locale@std@@QAEIXZ
_TEXT	SEGMENT
__Lock$125299 = -4					; size = 4
??Bid@locale@std@@QAEIXZ PROC				; std::locale::id::operator unsigned int, COMDAT
; _this$ = ecx

; 77   : 			{	// get stamp, with lazy allocation

  00000	51		 push	 ecx
  00001	56		 push	 esi
  00002	8b f1		 mov	 esi, ecx

; 78   : 			if (_Id == 0)

  00004	83 3e 00	 cmp	 DWORD PTR [esi], 0
  00007	75 26		 jne	 SHORT $LN6@operator

; 79   : 				{	// still zero, allocate stamp
; 80   : 				_BEGIN_LOCK(_LOCK_LOCALE)

  00009	6a 00		 push	 0
  0000b	8d 4c 24 08	 lea	 ecx, DWORD PTR __Lock$125299[esp+12]
  0000f	e8 00 00 00 00	 call	 ??0_Lockit@std@@QAE@H@Z	; std::_Lockit::_Lockit

; 81   : 					if (_Id == 0)

  00014	83 3e 00	 cmp	 DWORD PTR [esi], 0
  00017	75 0d		 jne	 SHORT $LN1@operator

; 82   : 						_Id = ++_Id_cnt;

  00019	a1 00 00 00 00	 mov	 eax, DWORD PTR ?_Id_cnt@id@locale@std@@0HA ; std::locale::id::_Id_cnt
  0001e	40		 inc	 eax
  0001f	a3 00 00 00 00	 mov	 DWORD PTR ?_Id_cnt@id@locale@std@@0HA, eax ; std::locale::id::_Id_cnt
  00024	89 06		 mov	 DWORD PTR [esi], eax
$LN1@operator:

; 83   : 				_END_LOCK()

  00026	8d 4c 24 04	 lea	 ecx, DWORD PTR __Lock$125299[esp+8]
  0002a	e8 00 00 00 00	 call	 ??1_Lockit@std@@QAE@XZ	; std::_Lockit::~_Lockit
$LN6@operator:

; 84   : 				}
; 85   : 			return (_Id);

  0002f	8b 06		 mov	 eax, DWORD PTR [esi]
  00031	5e		 pop	 esi

; 86   : 			}

  00032	59		 pop	 ecx
  00033	c3		 ret	 0
??Bid@locale@std@@QAEIXZ ENDP				; std::locale::id::operator unsigned int
_TEXT	ENDS
PUBLIC	?_Incref@facet@locale@std@@QAEXXZ		; std::locale::facet::_Incref
; Function compile flags: /Ogtpy
;	COMDAT ?_Incref@facet@locale@std@@QAEXXZ
_TEXT	SEGMENT
__Lock$125305 = -4					; size = 4
?_Incref@facet@locale@std@@QAEXXZ PROC			; std::locale::facet::_Incref, COMDAT
; _this$ = ecx

; 117  : 			{	// safely increment the reference count

  00000	51		 push	 ecx
  00001	56		 push	 esi
  00002	8b f1		 mov	 esi, ecx

; 118  : 			_BEGIN_LOCK(_LOCK_LOCALE)

  00004	6a 00		 push	 0
  00006	8d 4c 24 08	 lea	 ecx, DWORD PTR __Lock$125305[esp+12]
  0000a	e8 00 00 00 00	 call	 ??0_Lockit@std@@QAE@H@Z	; std::_Lockit::_Lockit

; 119  : 				if (_Refs < (size_t)(-1))

  0000f	8b 46 04	 mov	 eax, DWORD PTR [esi+4]
  00012	83 f8 ff	 cmp	 eax, -1
  00015	73 04		 jae	 SHORT $LN1@Incref

; 120  : 					++_Refs;

  00017	40		 inc	 eax
  00018	89 46 04	 mov	 DWORD PTR [esi+4], eax
$LN1@Incref:

; 121  : 			_END_LOCK()

  0001b	8d 4c 24 04	 lea	 ecx, DWORD PTR __Lock$125305[esp+8]
  0001f	e8 00 00 00 00	 call	 ??1_Lockit@std@@QAE@XZ	; std::_Lockit::~_Lockit
  00024	5e		 pop	 esi

; 122  : 			}

  00025	59		 pop	 ecx
  00026	c3		 ret	 0
?_Incref@facet@locale@std@@QAEXXZ ENDP			; std::locale::facet::_Incref
_TEXT	ENDS
PUBLIC	?_Decref@facet@locale@std@@QAEPAV123@XZ		; std::locale::facet::_Decref
; Function compile flags: /Ogtpy
;	COMDAT ?_Decref@facet@locale@std@@QAEPAV123@XZ
_TEXT	SEGMENT
__Lock$125310 = -4					; size = 4
?_Decref@facet@locale@std@@QAEPAV123@XZ PROC		; std::locale::facet::_Decref, COMDAT
; _this$ = ecx

; 125  : 			{	// safely decrement the reference count, return this when dead

  00000	51		 push	 ecx
  00001	56		 push	 esi
  00002	57		 push	 edi
  00003	8b f9		 mov	 edi, ecx

; 126  : 			_BEGIN_LOCK(_LOCK_LOCALE)

  00005	6a 00		 push	 0
  00007	8d 4c 24 0c	 lea	 ecx, DWORD PTR __Lock$125310[esp+16]
  0000b	e8 00 00 00 00	 call	 ??0_Lockit@std@@QAE@H@Z	; std::_Lockit::_Lockit

; 127  : 				if (0 < _Refs && _Refs < (size_t)(-1))

  00010	8b 47 04	 mov	 eax, DWORD PTR [edi+4]
  00013	85 c0		 test	 eax, eax
  00015	76 09		 jbe	 SHORT $LN1@Decref
  00017	83 f8 ff	 cmp	 eax, -1
  0001a	73 04		 jae	 SHORT $LN1@Decref

; 128  : 					--_Refs;

  0001c	48		 dec	 eax
  0001d	89 47 04	 mov	 DWORD PTR [edi+4], eax
$LN1@Decref:

; 129  : 				return (_Refs == 0 ? this : 0);

  00020	8b 77 04	 mov	 esi, DWORD PTR [edi+4]
  00023	f7 de		 neg	 esi
  00025	1b f6		 sbb	 esi, esi
  00027	f7 d6		 not	 esi
  00029	8d 4c 24 08	 lea	 ecx, DWORD PTR __Lock$125310[esp+12]
  0002d	23 f7		 and	 esi, edi
  0002f	e8 00 00 00 00	 call	 ??1_Lockit@std@@QAE@XZ	; std::_Lockit::~_Lockit
  00034	5f		 pop	 edi
  00035	8b c6		 mov	 eax, esi
  00037	5e		 pop	 esi

; 130  : 			_END_LOCK()
; 131  : 			}

  00038	59		 pop	 ecx
  00039	c3		 ret	 0
?_Decref@facet@locale@std@@QAEPAV123@XZ ENDP		; std::locale::facet::_Decref
_TEXT	ENDS
PUBLIC	?_Register@facet@locale@std@@QAEXXZ		; std::locale::facet::_Register
EXTRN	?facet_Register@facet@locale@std@@CAXPAV123@@Z:PROC ; std::locale::facet::facet_Register
; Function compile flags: /Ogtpy
;	COMDAT ?_Register@facet@locale@std@@QAEXXZ
_TEXT	SEGMENT
?_Register@facet@locale@std@@QAEXXZ PROC		; std::locale::facet::_Register, COMDAT
; _this$ = ecx

; 135  : #if defined(_M_CEE)
; 136  : 			facet_Register_m(this);
; 137  : #else
; 138  : 			facet_Register(this);

  00000	51		 push	 ecx
  00001	e8 00 00 00 00	 call	 ?facet_Register@facet@locale@std@@CAXPAV123@@Z ; std::locale::facet::facet_Register
  00006	59		 pop	 ecx

; 139  : #endif
; 140  : 			}

  00007	c3		 ret	 0
?_Register@facet@locale@std@@QAEXXZ ENDP		; std::locale::facet::_Register
_TEXT	ENDS
PUBLIC	??_7facet@locale@std@@6B@			; std::locale::facet::`vftable'
PUBLIC	??1facet@locale@std@@UAE@XZ			; std::locale::facet::~facet
PUBLIC	??_R4facet@locale@std@@6B@			; std::locale::facet::`RTTI Complete Object Locator'
PUBLIC	??_R0?AVfacet@locale@std@@@8			; std::locale::facet `RTTI Type Descriptor'
PUBLIC	??_R3facet@locale@std@@8			; std::locale::facet::`RTTI Class Hierarchy Descriptor'
PUBLIC	??_R2facet@locale@std@@8			; std::locale::facet::`RTTI Base Class Array'
PUBLIC	??_R1A@?0A@EA@facet@locale@std@@8		; std::locale::facet::`RTTI Base Class Descriptor at (0,-1,0,64)'
EXTRN	??_Efacet@locale@std@@UAEPAXI@Z:PROC		; std::locale::facet::`vector deleting destructor'
;	COMDAT ??_R1A@?0A@EA@facet@locale@std@@8
rdata$r	SEGMENT
??_R1A@?0A@EA@facet@locale@std@@8 DD FLAT:??_R0?AVfacet@locale@std@@@8 ; std::locale::facet::`RTTI Base Class Descriptor at (0,-1,0,64)'
	DD	00H
	DD	00H
	DD	0ffffffffH
	DD	00H
	DD	040H
	DD	FLAT:??_R3facet@locale@std@@8
rdata$r	ENDS
;	COMDAT ??_R2facet@locale@std@@8
rdata$r	SEGMENT
??_R2facet@locale@std@@8 DD FLAT:??_R1A@?0A@EA@facet@locale@std@@8 ; std::locale::facet::`RTTI Base Class Array'
rdata$r	ENDS
;	COMDAT ??_R3facet@locale@std@@8
rdata$r	SEGMENT
??_R3facet@locale@std@@8 DD 00H				; std::locale::facet::`RTTI Class Hierarchy Descriptor'
	DD	00H
	DD	01H
	DD	FLAT:??_R2facet@locale@std@@8
rdata$r	ENDS
;	COMDAT ??_R0?AVfacet@locale@std@@@8
_DATA	SEGMENT
??_R0?AVfacet@locale@std@@@8 DD FLAT:??_7type_info@@6B@	; std::locale::facet `RTTI Type Descriptor'
	DD	00H
	DB	'.?AVfacet@locale@std@@', 00H
_DATA	ENDS
;	COMDAT ??_R4facet@locale@std@@6B@
rdata$r	SEGMENT
??_R4facet@locale@std@@6B@ DD 00H			; std::locale::facet::`RTTI Complete Object Locator'
	DD	00H
	DD	00H
	DD	FLAT:??_R0?AVfacet@locale@std@@@8
	DD	FLAT:??_R3facet@locale@std@@8
rdata$r	ENDS
;	COMDAT ??_7facet@locale@std@@6B@
CONST	SEGMENT
??_7facet@locale@std@@6B@ DD FLAT:??_R4facet@locale@std@@6B@ ; std::locale::facet::`vftable'
	DD	FLAT:??_Efacet@locale@std@@UAEPAXI@Z
; Function compile flags: /Ogtpy
CONST	ENDS
;	COMDAT ??1facet@locale@std@@UAE@XZ
_TEXT	SEGMENT
??1facet@locale@std@@UAE@XZ PROC			; std::locale::facet::~facet, COMDAT
; _this$ = ecx

; 170  : 			{	// destroy the object

  00000	c7 01 00 00 00
	00		 mov	 DWORD PTR [ecx], OFFSET ??_7facet@locale@std@@6B@

; 171  : 			}

  00006	c3		 ret	 0
??1facet@locale@std@@UAE@XZ ENDP			; std::locale::facet::~facet
_TEXT	ENDS
PUBLIC	??0facet@locale@std@@IAE@I@Z			; std::locale::facet::facet
; Function compile flags: /Ogtpy
;	COMDAT ??0facet@locale@std@@IAE@I@Z
_TEXT	SEGMENT
__Initrefs$ = 8						; size = 4
??0facet@locale@std@@IAE@I@Z PROC			; std::locale::facet::facet, COMDAT
; _this$ = ecx

; 176  : 			{	// construct with initial reference count

  00000	8b c1		 mov	 eax, ecx
  00002	8b 4c 24 04	 mov	 ecx, DWORD PTR __Initrefs$[esp-4]
  00006	c7 00 00 00 00
	00		 mov	 DWORD PTR [eax], OFFSET ??_7facet@locale@std@@6B@
  0000c	89 48 04	 mov	 DWORD PTR [eax+4], ecx

; 177  : 			}

  0000f	c2 04 00	 ret	 4
??0facet@locale@std@@IAE@I@Z ENDP			; std::locale::facet::facet
_TEXT	ENDS
PUBLIC	??0locale@std@@QAE@XZ				; std::locale::locale
EXTRN	?_Getgloballocale@locale@std@@CAPAV_Locimp@12@XZ:PROC ; std::locale::_Getgloballocale
EXTRN	?_Init@locale@std@@CAPAV_Locimp@12@XZ:PROC	; std::locale::_Init
; Function compile flags: /Ogtpy
;	COMDAT ??0locale@std@@QAE@XZ
_TEXT	SEGMENT
__Lock$151147 = -4					; size = 4
??0locale@std@@QAE@XZ PROC				; std::locale::locale, COMDAT
; _this$ = ecx

; 324  : 		{	// construct from current locale

  00000	51		 push	 ecx
  00001	56		 push	 esi
  00002	57		 push	 edi
  00003	8b f9		 mov	 edi, ecx
  00005	e8 00 00 00 00	 call	 ?_Init@locale@std@@CAPAV_Locimp@12@XZ ; std::locale::_Init
  0000a	89 07		 mov	 DWORD PTR [edi], eax

; 325  : 		_Getgloballocale()->_Incref();

  0000c	e8 00 00 00 00	 call	 ?_Getgloballocale@locale@std@@CAPAV_Locimp@12@XZ ; std::locale::_Getgloballocale
  00011	6a 00		 push	 0
  00013	8d 4c 24 0c	 lea	 ecx, DWORD PTR __Lock$151147[esp+16]
  00017	8b f0		 mov	 esi, eax
  00019	e8 00 00 00 00	 call	 ??0_Lockit@std@@QAE@H@Z	; std::_Lockit::_Lockit
  0001e	8b 46 04	 mov	 eax, DWORD PTR [esi+4]
  00021	83 f8 ff	 cmp	 eax, -1
  00024	73 04		 jae	 SHORT $LN3@locale
  00026	40		 inc	 eax
  00027	89 46 04	 mov	 DWORD PTR [esi+4], eax
$LN3@locale:
  0002a	8d 4c 24 08	 lea	 ecx, DWORD PTR __Lock$151147[esp+12]
  0002e	e8 00 00 00 00	 call	 ??1_Lockit@std@@QAE@XZ	; std::_Lockit::~_Lockit

; 326  : 		}

  00033	8b c7		 mov	 eax, edi
  00035	5f		 pop	 edi
  00036	5e		 pop	 esi
  00037	59		 pop	 ecx
  00038	c3		 ret	 0
??0locale@std@@QAE@XZ ENDP				; std::locale::locale
_TEXT	ENDS
PUBLIC	??0locale@std@@QAE@ABV01@@Z			; std::locale::locale
; Function compile flags: /Ogtpy
;	COMDAT ??0locale@std@@QAE@ABV01@@Z
_TEXT	SEGMENT
__Lock$151155 = 8					; size = 4
__Right$ = 8						; size = 4
??0locale@std@@QAE@ABV01@@Z PROC			; std::locale::locale, COMDAT
; _this$ = ecx

; 334  : 		{	// construct by copying

  00000	8b 44 24 04	 mov	 eax, DWORD PTR __Right$[esp-4]
  00004	56		 push	 esi
  00005	8b 30		 mov	 esi, DWORD PTR [eax]
  00007	57		 push	 edi
  00008	8b f9		 mov	 edi, ecx

; 335  : 		_Ptr->_Incref();

  0000a	6a 00		 push	 0
  0000c	8d 4c 24 10	 lea	 ecx, DWORD PTR __Lock$151155[esp+8]
  00010	89 37		 mov	 DWORD PTR [edi], esi
  00012	e8 00 00 00 00	 call	 ??0_Lockit@std@@QAE@H@Z	; std::_Lockit::_Lockit
  00017	8b 46 04	 mov	 eax, DWORD PTR [esi+4]
  0001a	83 f8 ff	 cmp	 eax, -1
  0001d	73 04		 jae	 SHORT $LN3@locale@2
  0001f	40		 inc	 eax
  00020	89 46 04	 mov	 DWORD PTR [esi+4], eax
$LN3@locale@2:
  00023	8d 4c 24 0c	 lea	 ecx, DWORD PTR __Lock$151155[esp+4]
  00027	e8 00 00 00 00	 call	 ??1_Lockit@std@@QAE@XZ	; std::_Lockit::~_Lockit

; 336  : 		}

  0002c	8b c7		 mov	 eax, edi
  0002e	5f		 pop	 edi
  0002f	5e		 pop	 esi
  00030	c2 04 00	 ret	 4
??0locale@std@@QAE@ABV01@@Z ENDP			; std::locale::locale
_TEXT	ENDS
PUBLIC	??1locale@std@@QAE@XZ				; std::locale::~locale
; Function compile flags: /Ogtpy
;	COMDAT ??1locale@std@@QAE@XZ
_TEXT	SEGMENT
__Lock$151168 = -4					; size = 4
??1locale@std@@QAE@XZ PROC				; std::locale::~locale, COMDAT
; _this$ = ecx

; 390  : 		{	// destroy the object

  00000	51		 push	 ecx
  00001	57		 push	 edi

; 391  : 		if (_Ptr != 0)

  00002	8b 39		 mov	 edi, DWORD PTR [ecx]
  00004	85 ff		 test	 edi, edi
  00006	74 3f		 je	 SHORT $LN4@locale@3

; 392  : 			_DELETE_CRT(_Ptr->_Decref());

  00008	6a 00		 push	 0
  0000a	8d 4c 24 08	 lea	 ecx, DWORD PTR __Lock$151168[esp+12]
  0000e	e8 00 00 00 00	 call	 ??0_Lockit@std@@QAE@H@Z	; std::_Lockit::_Lockit
  00013	8b 47 04	 mov	 eax, DWORD PTR [edi+4]
  00016	85 c0		 test	 eax, eax
  00018	76 09		 jbe	 SHORT $LN6@locale@3
  0001a	83 f8 ff	 cmp	 eax, -1
  0001d	73 04		 jae	 SHORT $LN6@locale@3
  0001f	48		 dec	 eax
  00020	89 47 04	 mov	 DWORD PTR [edi+4], eax
$LN6@locale@3:
  00023	56		 push	 esi
  00024	8b 77 04	 mov	 esi, DWORD PTR [edi+4]
  00027	f7 de		 neg	 esi
  00029	1b f6		 sbb	 esi, esi
  0002b	f7 d6		 not	 esi
  0002d	8d 4c 24 08	 lea	 ecx, DWORD PTR __Lock$151168[esp+12]
  00031	23 f7		 and	 esi, edi
  00033	e8 00 00 00 00	 call	 ??1_Lockit@std@@QAE@XZ	; std::_Lockit::~_Lockit
  00038	85 f6		 test	 esi, esi
  0003a	74 0a		 je	 SHORT $LN9@locale@3
  0003c	8b 06		 mov	 eax, DWORD PTR [esi]
  0003e	8b 10		 mov	 edx, DWORD PTR [eax]
  00040	6a 01		 push	 1
  00042	8b ce		 mov	 ecx, esi
  00044	ff d2		 call	 edx
$LN9@locale@3:
  00046	5e		 pop	 esi
$LN4@locale@3:
  00047	5f		 pop	 edi

; 393  : 		}

  00048	59		 pop	 ecx
  00049	c3		 ret	 0
??1locale@std@@QAE@XZ ENDP				; std::locale::~locale
_TEXT	ENDS
PUBLIC	?_Getfacet@locale@std@@QBEPBVfacet@12@I@Z	; std::locale::_Getfacet
; Function compile flags: /Ogtpy
;	COMDAT ?_Getfacet@locale@std@@QBEPBVfacet@12@I@Z
_TEXT	SEGMENT
__Id$ = 8						; size = 4
?_Getfacet@locale@std@@QBEPBVfacet@12@I@Z PROC		; std::locale::_Getfacet, COMDAT
; _this$ = ecx

; 413  : 		const facet *_Facptr = _Id < _Ptr->_Facetcount
; 414  : 			? _Ptr->_Facetvec[_Id] : 0;	// null if id off end

  00000	8b 09		 mov	 ecx, DWORD PTR [ecx]
  00002	56		 push	 esi
  00003	8b 74 24 08	 mov	 esi, DWORD PTR __Id$[esp]
  00007	3b 71 0c	 cmp	 esi, DWORD PTR [ecx+12]
  0000a	73 24		 jae	 SHORT $LN6@Getfacet
  0000c	8b 41 08	 mov	 eax, DWORD PTR [ecx+8]
  0000f	8b 04 b0	 mov	 eax, DWORD PTR [eax+esi*4]

; 415  : 		if (_Facptr != 0 || !_Ptr->_Xparent)

  00012	85 c0		 test	 eax, eax
  00014	75 20		 jne	 SHORT $LN1@Getfacet
$LN10@Getfacet:
  00016	80 79 14 00	 cmp	 BYTE PTR [ecx+20], 0
  0001a	74 1a		 je	 SHORT $LN1@Getfacet

; 416  : 			return (_Facptr);	// found facet or not transparent, return pointer
; 417  : 		else
; 418  : 			{	// look in current locale
; 419  : 			locale::_Locimp *_Ptr = _Getgloballocale();

  0001c	e8 00 00 00 00	 call	 ?_Getgloballocale@locale@std@@CAPAV_Locimp@12@XZ ; std::locale::_Getgloballocale

; 420  : 			return (_Id < _Ptr->_Facetcount
; 421  : 				? _Ptr->_Facetvec[_Id]	// get from current locale
; 422  : 				: 0);	// no entry in current locale

  00021	3b 70 0c	 cmp	 esi, DWORD PTR [eax+12]
  00024	73 0e		 jae	 SHORT $LN8@Getfacet
  00026	8b 48 08	 mov	 ecx, DWORD PTR [eax+8]
  00029	8b 04 b1	 mov	 eax, DWORD PTR [ecx+esi*4]
  0002c	5e		 pop	 esi

; 423  : 			}
; 424  : 		}

  0002d	c2 04 00	 ret	 4
$LN6@Getfacet:

; 413  : 		const facet *_Facptr = _Id < _Ptr->_Facetcount
; 414  : 			? _Ptr->_Facetvec[_Id] : 0;	// null if id off end

  00030	33 c0		 xor	 eax, eax

; 415  : 		if (_Facptr != 0 || !_Ptr->_Xparent)

  00032	eb e2		 jmp	 SHORT $LN10@Getfacet
$LN8@Getfacet:

; 420  : 			return (_Id < _Ptr->_Facetcount
; 421  : 				? _Ptr->_Facetvec[_Id]	// get from current locale
; 422  : 				: 0);	// no entry in current locale

  00034	33 c0		 xor	 eax, eax
$LN1@Getfacet:
  00036	5e		 pop	 esi

; 423  : 			}
; 424  : 		}

  00037	c2 04 00	 ret	 4
?_Getfacet@locale@std@@QBEPBVfacet@12@I@Z ENDP		; std::locale::_Getfacet
; Function compile flags: /Ogtpy
_TEXT	ENDS
;	COMDAT ??_Gfacet@locale@std@@UAEPAXI@Z
_TEXT	SEGMENT
___flags$ = 8						; size = 4
??_Gfacet@locale@std@@UAEPAXI@Z PROC			; std::locale::facet::`scalar deleting destructor', COMDAT
; _this$ = ecx
  00000	f6 44 24 04 01	 test	 BYTE PTR ___flags$[esp-4], 1
  00005	56		 push	 esi
  00006	8b f1		 mov	 esi, ecx
  00008	c7 06 00 00 00
	00		 mov	 DWORD PTR [esi], OFFSET ??_7facet@locale@std@@6B@
  0000e	74 09		 je	 SHORT $LN6@scalar@2
  00010	56		 push	 esi
  00011	e8 00 00 00 00	 call	 ??3@YAXPAX@Z		; operator delete
  00016	83 c4 04	 add	 esp, 4
$LN6@scalar@2:
  00019	8b c6		 mov	 eax, esi
  0001b	5e		 pop	 esi
  0001c	c2 04 00	 ret	 4
??_Gfacet@locale@std@@UAEPAXI@Z ENDP			; std::locale::facet::`scalar deleting destructor'
_TEXT	ENDS
PUBLIC	??_7ctype_base@std@@6B@				; std::ctype_base::`vftable'
PUBLIC	??0ctype_base@std@@QAE@I@Z			; std::ctype_base::ctype_base
PUBLIC	??_R4ctype_base@std@@6B@			; std::ctype_base::`RTTI Complete Object Locator'
PUBLIC	??_R0?AUctype_base@std@@@8			; std::ctype_base `RTTI Type Descriptor'
PUBLIC	??_R3ctype_base@std@@8				; std::ctype_base::`RTTI Class Hierarchy Descriptor'
PUBLIC	??_R2ctype_base@std@@8				; std::ctype_base::`RTTI Base Class Array'
PUBLIC	??_R1A@?0A@EA@ctype_base@std@@8			; std::ctype_base::`RTTI Base Class Descriptor at (0,-1,0,64)'
EXTRN	??_Ectype_base@std@@UAEPAXI@Z:PROC		; std::ctype_base::`vector deleting destructor'
;	COMDAT ??_R1A@?0A@EA@ctype_base@std@@8
rdata$r	SEGMENT
??_R1A@?0A@EA@ctype_base@std@@8 DD FLAT:??_R0?AUctype_base@std@@@8 ; std::ctype_base::`RTTI Base Class Descriptor at (0,-1,0,64)'
	DD	01H
	DD	00H
	DD	0ffffffffH
	DD	00H
	DD	040H
	DD	FLAT:??_R3ctype_base@std@@8
rdata$r	ENDS
;	COMDAT ??_R2ctype_base@std@@8
rdata$r	SEGMENT
??_R2ctype_base@std@@8 DD FLAT:??_R1A@?0A@EA@ctype_base@std@@8 ; std::ctype_base::`RTTI Base Class Array'
	DD	FLAT:??_R1A@?0A@EA@facet@locale@std@@8
rdata$r	ENDS
;	COMDAT ??_R3ctype_base@std@@8
rdata$r	SEGMENT
??_R3ctype_base@std@@8 DD 00H				; std::ctype_base::`RTTI Class Hierarchy Descriptor'
	DD	00H
	DD	02H
	DD	FLAT:??_R2ctype_base@std@@8
rdata$r	ENDS
;	COMDAT ??_R0?AUctype_base@std@@@8
_DATA	SEGMENT
??_R0?AUctype_base@std@@@8 DD FLAT:??_7type_info@@6B@	; std::ctype_base `RTTI Type Descriptor'
	DD	00H
	DB	'.?AUctype_base@std@@', 00H
_DATA	ENDS
;	COMDAT ??_R4ctype_base@std@@6B@
rdata$r	SEGMENT
??_R4ctype_base@std@@6B@ DD 00H				; std::ctype_base::`RTTI Complete Object Locator'
	DD	00H
	DD	00H
	DD	FLAT:??_R0?AUctype_base@std@@@8
	DD	FLAT:??_R3ctype_base@std@@8
rdata$r	ENDS
;	COMDAT ??_7ctype_base@std@@6B@
CONST	SEGMENT
??_7ctype_base@std@@6B@ DD FLAT:??_R4ctype_base@std@@6B@ ; std::ctype_base::`vftable'
	DD	FLAT:??_Ectype_base@std@@UAEPAXI@Z
; Function compile flags: /Ogtpy
CONST	ENDS
;	COMDAT ??0ctype_base@std@@QAE@I@Z
_TEXT	SEGMENT
__Refs$ = 8						; size = 4
??0ctype_base@std@@QAE@I@Z PROC				; std::ctype_base::ctype_base, COMDAT
; _this$ = ecx

; 1358 : 		{	// default constructor

  00000	8b c1		 mov	 eax, ecx
  00002	8b 4c 24 04	 mov	 ecx, DWORD PTR __Refs$[esp-4]
  00006	89 48 04	 mov	 DWORD PTR [eax+4], ecx
  00009	c7 00 00 00 00
	00		 mov	 DWORD PTR [eax], OFFSET ??_7ctype_base@std@@6B@

; 1359 : 		}

  0000f	c2 04 00	 ret	 4
??0ctype_base@std@@QAE@I@Z ENDP				; std::ctype_base::ctype_base
_TEXT	ENDS
PUBLIC	??1ctype_base@std@@UAE@XZ			; std::ctype_base::~ctype_base
; Function compile flags: /Ogtpy
;	COMDAT ??1ctype_base@std@@UAE@XZ
_TEXT	SEGMENT
??1ctype_base@std@@UAE@XZ PROC				; std::ctype_base::~ctype_base, COMDAT
; _this$ = ecx

; 1363 : 		}

  00000	c7 01 00 00 00
	00		 mov	 DWORD PTR [ecx], OFFSET ??_7facet@locale@std@@6B@
  00006	c3		 ret	 0
??1ctype_base@std@@UAE@XZ ENDP				; std::ctype_base::~ctype_base
; Function compile flags: /Ogtpy
_TEXT	ENDS
;	COMDAT ??_Gctype_base@std@@UAEPAXI@Z
_TEXT	SEGMENT
___flags$ = 8						; size = 4
??_Gctype_base@std@@UAEPAXI@Z PROC			; std::ctype_base::`scalar deleting destructor', COMDAT
; _this$ = ecx
  00000	f6 44 24 04 01	 test	 BYTE PTR ___flags$[esp-4], 1
  00005	56		 push	 esi
  00006	8b f1		 mov	 esi, ecx
  00008	c7 06 00 00 00
	00		 mov	 DWORD PTR [esi], OFFSET ??_7facet@locale@std@@6B@
  0000e	74 09		 je	 SHORT $LN8@scalar@3
  00010	56		 push	 esi
  00011	e8 00 00 00 00	 call	 ??3@YAXPAX@Z		; operator delete
  00016	83 c4 04	 add	 esp, 4
$LN8@scalar@3:
  00019	8b c6		 mov	 eax, esi
  0001b	5e		 pop	 esi
  0001c	c2 04 00	 ret	 4
??_Gctype_base@std@@UAEPAXI@Z ENDP			; std::ctype_base::`scalar deleting destructor'
_TEXT	ENDS
PUBLIC	?widen@?$ctype@D@std@@QBEDD@Z			; std::ctype<char>::widen
; Function compile flags: /Ogtpy
;	COMDAT ?widen@?$ctype@D@std@@QBEDD@Z
_TEXT	SEGMENT
__Byte$ = 8						; size = 1
?widen@?$ctype@D@std@@QBEDD@Z PROC			; std::ctype<char>::widen, COMDAT
; _this$ = ecx

; 1716 : 		return (do_widen(_Byte));

  00000	8b 01		 mov	 eax, DWORD PTR [ecx]
  00002	8b 40 18	 mov	 eax, DWORD PTR [eax+24]
  00005	ff e0		 jmp	 eax
?widen@?$ctype@D@std@@QBEDD@Z ENDP			; std::ctype<char>::widen
_TEXT	ENDS
PUBLIC	?_Init@?$ctype@D@std@@IAEXABV_Locinfo@2@@Z	; std::ctype<char>::_Init
; Function compile flags: /Ogtpy
;	COMDAT ?_Init@?$ctype@D@std@@IAEXABV_Locinfo@2@@Z
_TEXT	SEGMENT
$T151222 = -16						; size = 16
__Lobj$ = 8						; size = 4
?_Init@?$ctype@D@std@@IAEXABV_Locinfo@2@@Z PROC		; std::ctype<char>::_Init, COMDAT
; _this$ = ecx

; 1807 : 		{	// initialize from _Lobj

  00000	83 ec 10	 sub	 esp, 16			; 00000010H
  00003	56		 push	 esi

; 1808 : 		_Ctype = _Lobj._Getctype();

  00004	8d 44 24 04	 lea	 eax, DWORD PTR $T151222[esp+20]
  00008	50		 push	 eax
  00009	8b f1		 mov	 esi, ecx
  0000b	e8 00 00 00 00	 call	 __Getctype
  00010	8b 08		 mov	 ecx, DWORD PTR [eax]
  00012	89 4e 08	 mov	 DWORD PTR [esi+8], ecx
  00015	8b 50 04	 mov	 edx, DWORD PTR [eax+4]
  00018	89 56 0c	 mov	 DWORD PTR [esi+12], edx
  0001b	8b 48 08	 mov	 ecx, DWORD PTR [eax+8]
  0001e	89 4e 10	 mov	 DWORD PTR [esi+16], ecx
  00021	8b 50 0c	 mov	 edx, DWORD PTR [eax+12]
  00024	83 c4 04	 add	 esp, 4
  00027	89 56 14	 mov	 DWORD PTR [esi+20], edx
  0002a	5e		 pop	 esi

; 1809 : 		}

  0002b	83 c4 10	 add	 esp, 16			; 00000010H
  0002e	c2 04 00	 ret	 4
?_Init@?$ctype@D@std@@IAEXABV_Locinfo@2@@Z ENDP		; std::ctype<char>::_Init
_TEXT	ENDS
PUBLIC	?widen@?$ctype@_W@std@@QBE_WD@Z			; std::ctype<wchar_t>::widen
; Function compile flags: /Ogtpy
;	COMDAT ?widen@?$ctype@_W@std@@QBE_WD@Z
_TEXT	SEGMENT
__Byte$ = 8						; size = 1
?widen@?$ctype@_W@std@@QBE_WD@Z PROC			; std::ctype<wchar_t>::widen, COMDAT
; _this$ = ecx

; 1965 : 		return (do_widen(_Byte));

  00000	8b 01		 mov	 eax, DWORD PTR [ecx]
  00002	8b 40 28	 mov	 eax, DWORD PTR [eax+40]
  00005	ff e0		 jmp	 eax
?widen@?$ctype@_W@std@@QBE_WD@Z ENDP			; std::ctype<wchar_t>::widen
_TEXT	ENDS
PUBLIC	?_Init@?$ctype@_W@std@@IAEXABV_Locinfo@2@@Z	; std::ctype<wchar_t>::_Init
; Function compile flags: /Ogtpy
;	COMDAT ?_Init@?$ctype@_W@std@@IAEXABV_Locinfo@2@@Z
_TEXT	SEGMENT
$T151236 = -16						; size = 16
__Lobj$ = 8						; size = 4
?_Init@?$ctype@_W@std@@IAEXABV_Locinfo@2@@Z PROC	; std::ctype<wchar_t>::_Init, COMDAT
; _this$ = ecx

; 2047 : 		{	// initialize from _Lobj

  00000	83 ec 10	 sub	 esp, 16			; 00000010H
  00003	56		 push	 esi

; 2048 : 		_Ctype = _Lobj._Getctype();

  00004	8d 44 24 04	 lea	 eax, DWORD PTR $T151236[esp+20]
  00008	50		 push	 eax
  00009	8b f1		 mov	 esi, ecx
  0000b	e8 00 00 00 00	 call	 __Getctype
  00010	8b 08		 mov	 ecx, DWORD PTR [eax]
  00012	89 4e 08	 mov	 DWORD PTR [esi+8], ecx
  00015	8b 50 04	 mov	 edx, DWORD PTR [eax+4]
  00018	89 56 0c	 mov	 DWORD PTR [esi+12], edx
  0001b	8b 48 08	 mov	 ecx, DWORD PTR [eax+8]
  0001e	89 4e 10	 mov	 DWORD PTR [esi+16], ecx
  00021	8b 50 0c	 mov	 edx, DWORD PTR [eax+12]
  00024	83 c4 04	 add	 esp, 4
  00027	89 56 14	 mov	 DWORD PTR [esi+20], edx

; 2049 : 		_Cvt = _Lobj._Getcvt();

  0002a	e8 00 00 00 00	 call	 __Getcvt
  0002f	89 46 18	 mov	 DWORD PTR [esi+24], eax
  00032	89 56 1c	 mov	 DWORD PTR [esi+28], edx
  00035	5e		 pop	 esi

; 2050 : 		}

  00036	83 c4 10	 add	 esp, 16			; 00000010H
  00039	c2 04 00	 ret	 4
?_Init@?$ctype@_W@std@@IAEXABV_Locinfo@2@@Z ENDP	; std::ctype<wchar_t>::_Init
_TEXT	ENDS
PUBLIC	?rdstate@ios_base@std@@QBEHXZ			; std::ios_base::rdstate
; Function compile flags: /Ogtpy
; File c:\program files (x86)\microsoft visual studio 9.0\vc\include\xiosbase
;	COMDAT ?rdstate@ios_base@std@@QBEHXZ
_TEXT	SEGMENT
?rdstate@ios_base@std@@QBEHXZ PROC			; std::ios_base::rdstate, COMDAT
; _this$ = ecx

; 311  : 		return (_Mystate);

  00000	8b 41 08	 mov	 eax, DWORD PTR [ecx+8]

; 312  : 		}

  00003	c3		 ret	 0
?rdstate@ios_base@std@@QBEHXZ ENDP			; std::ios_base::rdstate
_TEXT	ENDS
PUBLIC	?good@ios_base@std@@QBE_NXZ			; std::ios_base::good
; Function compile flags: /Ogtpy
;	COMDAT ?good@ios_base@std@@QBE_NXZ
_TEXT	SEGMENT
?good@ios_base@std@@QBE_NXZ PROC			; std::ios_base::good, COMDAT
; _this$ = ecx

; 334  : 		return (rdstate() == goodbit);

  00000	33 c0		 xor	 eax, eax
  00002	39 41 08	 cmp	 DWORD PTR [ecx+8], eax
  00005	0f 94 c0	 sete	 al

; 335  : 		}

  00008	c3		 ret	 0
?good@ios_base@std@@QBE_NXZ ENDP			; std::ios_base::good
_TEXT	ENDS
PUBLIC	?fail@ios_base@std@@QBE_NXZ			; std::ios_base::fail
; Function compile flags: /Ogtpy
;	COMDAT ?fail@ios_base@std@@QBE_NXZ
_TEXT	SEGMENT
?fail@ios_base@std@@QBE_NXZ PROC			; std::ios_base::fail, COMDAT
; _this$ = ecx

; 344  : 		return (((int)rdstate()
; 345  : 			& ((int)badbit | (int)failbit)) != 0);

  00000	f6 41 08 06	 test	 BYTE PTR [ecx+8], 6
  00004	b8 00 00 00 00	 mov	 eax, 0
  00009	0f 95 c0	 setne	 al

; 346  : 		}

  0000c	c3		 ret	 0
?fail@ios_base@std@@QBE_NXZ ENDP			; std::ios_base::fail
_TEXT	ENDS
PUBLIC	?flags@ios_base@std@@QBEHXZ			; std::ios_base::flags
; Function compile flags: /Ogtpy
;	COMDAT ?flags@ios_base@std@@QBEHXZ
_TEXT	SEGMENT
?flags@ios_base@std@@QBEHXZ PROC			; std::ios_base::flags, COMDAT
; _this$ = ecx

; 374  : 		return (_Fmtfl);

  00000	8b 41 10	 mov	 eax, DWORD PTR [ecx+16]

; 375  : 		}

  00003	c3		 ret	 0
?flags@ios_base@std@@QBEHXZ ENDP			; std::ios_base::flags
_TEXT	ENDS
PUBLIC	?setf@ios_base@std@@QAEHHH@Z			; std::ios_base::setf
; Function compile flags: /Ogtpy
;	COMDAT ?setf@ios_base@std@@QAEHHH@Z
_TEXT	SEGMENT
__Newfmtflags$ = 8					; size = 4
__Mask$ = 12						; size = 4
?setf@ios_base@std@@QAEHHH@Z PROC			; std::ios_base::setf, COMDAT
; _this$ = ecx

; 394  : 		ios_base::fmtflags _Oldfmtflags = _Fmtfl;
; 395  : 		_Fmtfl = (fmtflags)(((int)_Fmtfl & (int)~_Mask)
; 396  : 			| ((int)_Newfmtflags & (int)_Mask & (int)_Fmtmask));

  00000	8b 54 24 08	 mov	 edx, DWORD PTR __Mask$[esp-4]
  00004	8b 41 10	 mov	 eax, DWORD PTR [ecx+16]
  00007	56		 push	 esi
  00008	57		 push	 edi
  00009	8b 7c 24 0c	 mov	 edi, DWORD PTR __Newfmtflags$[esp+4]
  0000d	8b f2		 mov	 esi, edx
  0000f	f7 d6		 not	 esi
  00011	23 fa		 and	 edi, edx
  00013	23 f0		 and	 esi, eax
  00015	81 e7 ff ff 00
	00		 and	 edi, 65535		; 0000ffffH
  0001b	0b f7		 or	 esi, edi
  0001d	5f		 pop	 edi
  0001e	89 71 10	 mov	 DWORD PTR [ecx+16], esi
  00021	5e		 pop	 esi

; 397  : 		return (_Oldfmtflags);
; 398  : 		}

  00022	c2 08 00	 ret	 8
?setf@ios_base@std@@QAEHHH@Z ENDP			; std::ios_base::setf
_TEXT	ENDS
PUBLIC	?width@ios_base@std@@QBEHXZ			; std::ios_base::width
; Function compile flags: /Ogtpy
;	COMDAT ?width@ios_base@std@@QBEHXZ
_TEXT	SEGMENT
?width@ios_base@std@@QBEHXZ PROC			; std::ios_base::width, COMDAT
; _this$ = ecx

; 419  : 		return (_Wide);

  00000	8b 41 18	 mov	 eax, DWORD PTR [ecx+24]

; 420  : 		}

  00003	c3		 ret	 0
?width@ios_base@std@@QBEHXZ ENDP			; std::ios_base::width
_TEXT	ENDS
PUBLIC	?width@ios_base@std@@QAEHH@Z			; std::ios_base::width
; Function compile flags: /Ogtpy
;	COMDAT ?width@ios_base@std@@QAEHH@Z
_TEXT	SEGMENT
__Newwidth$ = 8						; size = 4
?width@ios_base@std@@QAEHH@Z PROC			; std::ios_base::width, COMDAT
; _this$ = ecx

; 424  : 		streamsize _Oldwidth = _Wide;
; 425  : 		_Wide = _Newwidth;

  00000	8b 54 24 04	 mov	 edx, DWORD PTR __Newwidth$[esp-4]
  00004	8b 41 18	 mov	 eax, DWORD PTR [ecx+24]
  00007	89 51 18	 mov	 DWORD PTR [ecx+24], edx

; 426  : 		return (_Oldwidth);
; 427  : 		}

  0000a	c2 04 00	 ret	 4
?width@ios_base@std@@QAEHH@Z ENDP			; std::ios_base::width
_TEXT	ENDS
PUBLIC	?getloc@ios_base@std@@QBE?AVlocale@2@XZ		; std::ios_base::getloc
; Function compile flags: /Ogtpy
;	COMDAT ?getloc@ios_base@std@@QBE?AVlocale@2@XZ
_TEXT	SEGMENT
$T151267 = -4						; size = 4
__Lock$151280 = 8					; size = 4
___$ReturnUdt$ = 8					; size = 4
?getloc@ios_base@std@@QBE?AVlocale@2@XZ PROC		; std::ios_base::getloc, COMDAT
; _this$ = ecx

; 430  : 		{	// get locale

  00000	51		 push	 ecx

; 431  : 		return (*_Ploc);

  00001	8b 41 24	 mov	 eax, DWORD PTR [ecx+36]
  00004	56		 push	 esi
  00005	8b 30		 mov	 esi, DWORD PTR [eax]
  00007	57		 push	 edi
  00008	8b 7c 24 10	 mov	 edi, DWORD PTR ___$ReturnUdt$[esp+8]
  0000c	6a 00		 push	 0
  0000e	8d 4c 24 14	 lea	 ecx, DWORD PTR __Lock$151280[esp+12]
  00012	c7 44 24 0c 00
	00 00 00	 mov	 DWORD PTR $T151267[esp+16], 0
  0001a	89 37		 mov	 DWORD PTR [edi], esi
  0001c	e8 00 00 00 00	 call	 ??0_Lockit@std@@QAE@H@Z	; std::_Lockit::_Lockit
  00021	8b 46 04	 mov	 eax, DWORD PTR [esi+4]
  00024	83 f8 ff	 cmp	 eax, -1
  00027	73 04		 jae	 SHORT $LN7@getloc
  00029	40		 inc	 eax
  0002a	89 46 04	 mov	 DWORD PTR [esi+4], eax
$LN7@getloc:
  0002d	8d 4c 24 10	 lea	 ecx, DWORD PTR __Lock$151280[esp+8]
  00031	e8 00 00 00 00	 call	 ??1_Lockit@std@@QAE@XZ	; std::_Lockit::~_Lockit
  00036	8b c7		 mov	 eax, edi
  00038	5f		 pop	 edi
  00039	5e		 pop	 esi

; 432  : 		}

  0003a	59		 pop	 ecx
  0003b	c2 04 00	 ret	 4
?getloc@ios_base@std@@QBE?AVlocale@2@XZ ENDP		; std::ios_base::getloc
_TEXT	ENDS
PUBLIC	??_7ios_base@std@@6B@				; std::ios_base::`vftable'
PUBLIC	??1ios_base@std@@UAE@XZ				; std::ios_base::~ios_base
PUBLIC	??_R4ios_base@std@@6B@				; std::ios_base::`RTTI Complete Object Locator'
PUBLIC	??_R0?AVios_base@std@@@8			; std::ios_base `RTTI Type Descriptor'
PUBLIC	??_R3ios_base@std@@8				; std::ios_base::`RTTI Class Hierarchy Descriptor'
PUBLIC	??_R2ios_base@std@@8				; std::ios_base::`RTTI Base Class Array'
PUBLIC	??_R1A@?0A@EA@ios_base@std@@8			; std::ios_base::`RTTI Base Class Descriptor at (0,-1,0,64)'
PUBLIC	??_R13?0A@EA@?$_Iosb@H@std@@8			; std::_Iosb<int>::`RTTI Base Class Descriptor at (4,-1,0,64)'
PUBLIC	??_R0?AV?$_Iosb@H@std@@@8			; std::_Iosb<int> `RTTI Type Descriptor'
PUBLIC	??_R3?$_Iosb@H@std@@8				; std::_Iosb<int>::`RTTI Class Hierarchy Descriptor'
PUBLIC	??_R2?$_Iosb@H@std@@8				; std::_Iosb<int>::`RTTI Base Class Array'
PUBLIC	??_R1A@?0A@EA@?$_Iosb@H@std@@8			; std::_Iosb<int>::`RTTI Base Class Descriptor at (0,-1,0,64)'
EXTRN	?_Ios_base_dtor@ios_base@std@@CAXPAV12@@Z:PROC	; std::ios_base::_Ios_base_dtor
EXTRN	??_Eios_base@std@@UAEPAXI@Z:PROC		; std::ios_base::`vector deleting destructor'
;	COMDAT ??_R1A@?0A@EA@?$_Iosb@H@std@@8
rdata$r	SEGMENT
??_R1A@?0A@EA@?$_Iosb@H@std@@8 DD FLAT:??_R0?AV?$_Iosb@H@std@@@8 ; std::_Iosb<int>::`RTTI Base Class Descriptor at (0,-1,0,64)'
	DD	00H
	DD	00H
	DD	0ffffffffH
	DD	00H
	DD	040H
	DD	FLAT:??_R3?$_Iosb@H@std@@8
rdata$r	ENDS
;	COMDAT ??_R2?$_Iosb@H@std@@8
rdata$r	SEGMENT
??_R2?$_Iosb@H@std@@8 DD FLAT:??_R1A@?0A@EA@?$_Iosb@H@std@@8 ; std::_Iosb<int>::`RTTI Base Class Array'
rdata$r	ENDS
;	COMDAT ??_R3?$_Iosb@H@std@@8
rdata$r	SEGMENT
??_R3?$_Iosb@H@std@@8 DD 00H				; std::_Iosb<int>::`RTTI Class Hierarchy Descriptor'
	DD	00H
	DD	01H
	DD	FLAT:??_R2?$_Iosb@H@std@@8
rdata$r	ENDS
;	COMDAT ??_R0?AV?$_Iosb@H@std@@@8
_DATA	SEGMENT
??_R0?AV?$_Iosb@H@std@@@8 DD FLAT:??_7type_info@@6B@	; std::_Iosb<int> `RTTI Type Descriptor'
	DD	00H
	DB	'.?AV?$_Iosb@H@std@@', 00H
_DATA	ENDS
;	COMDAT ??_R13?0A@EA@?$_Iosb@H@std@@8
rdata$r	SEGMENT
??_R13?0A@EA@?$_Iosb@H@std@@8 DD FLAT:??_R0?AV?$_Iosb@H@std@@@8 ; std::_Iosb<int>::`RTTI Base Class Descriptor at (4,-1,0,64)'
	DD	00H
	DD	04H
	DD	0ffffffffH
	DD	00H
	DD	040H
	DD	FLAT:??_R3?$_Iosb@H@std@@8
rdata$r	ENDS
;	COMDAT ??_R1A@?0A@EA@ios_base@std@@8
rdata$r	SEGMENT
??_R1A@?0A@EA@ios_base@std@@8 DD FLAT:??_R0?AVios_base@std@@@8 ; std::ios_base::`RTTI Base Class Descriptor at (0,-1,0,64)'
	DD	01H
	DD	00H
	DD	0ffffffffH
	DD	00H
	DD	040H
	DD	FLAT:??_R3ios_base@std@@8
rdata$r	ENDS
;	COMDAT ??_R2ios_base@std@@8
rdata$r	SEGMENT
??_R2ios_base@std@@8 DD FLAT:??_R1A@?0A@EA@ios_base@std@@8 ; std::ios_base::`RTTI Base Class Array'
	DD	FLAT:??_R13?0A@EA@?$_Iosb@H@std@@8
rdata$r	ENDS
;	COMDAT ??_R3ios_base@std@@8
rdata$r	SEGMENT
??_R3ios_base@std@@8 DD 00H				; std::ios_base::`RTTI Class Hierarchy Descriptor'
	DD	00H
	DD	02H
	DD	FLAT:??_R2ios_base@std@@8
rdata$r	ENDS
;	COMDAT ??_R0?AVios_base@std@@@8
_DATA	SEGMENT
??_R0?AVios_base@std@@@8 DD FLAT:??_7type_info@@6B@	; std::ios_base `RTTI Type Descriptor'
	DD	00H
	DB	'.?AVios_base@std@@', 00H
_DATA	ENDS
;	COMDAT ??_R4ios_base@std@@6B@
rdata$r	SEGMENT
??_R4ios_base@std@@6B@ DD 00H				; std::ios_base::`RTTI Complete Object Locator'
	DD	00H
	DD	00H
	DD	FLAT:??_R0?AVios_base@std@@@8
	DD	FLAT:??_R3ios_base@std@@8
rdata$r	ENDS
;	COMDAT ??_7ios_base@std@@6B@
CONST	SEGMENT
??_7ios_base@std@@6B@ DD FLAT:??_R4ios_base@std@@6B@	; std::ios_base::`vftable'
	DD	FLAT:??_Eios_base@std@@UAEPAXI@Z
; Function compile flags: /Ogtpy
CONST	ENDS
;	COMDAT ??1ios_base@std@@UAE@XZ
_TEXT	SEGMENT
??1ios_base@std@@UAE@XZ PROC				; std::ios_base::~ios_base, COMDAT
; _this$ = ecx

; 494  :         _Ios_base_dtor(this);

  00000	51		 push	 ecx
  00001	c7 01 00 00 00
	00		 mov	 DWORD PTR [ecx], OFFSET ??_7ios_base@std@@6B@
  00007	e8 00 00 00 00	 call	 ?_Ios_base_dtor@ios_base@std@@CAXPAV12@@Z ; std::ios_base::_Ios_base_dtor
  0000c	59		 pop	 ecx

; 495  :         }

  0000d	c3		 ret	 0
??1ios_base@std@@UAE@XZ ENDP				; std::ios_base::~ios_base
_TEXT	ENDS
PUBLIC	??0ios_base@std@@IAE@XZ				; std::ios_base::ios_base
; Function compile flags: /Ogtpy
;	COMDAT ??0ios_base@std@@IAE@XZ
_TEXT	SEGMENT
??0ios_base@std@@IAE@XZ PROC				; std::ios_base::ios_base, COMDAT
; _this$ = ecx

; 510  : 	__CLR_OR_THIS_CALL ios_base()

  00000	8b c1		 mov	 eax, ecx
  00002	c7 00 00 00 00
	00		 mov	 DWORD PTR [eax], OFFSET ??_7ios_base@std@@6B@

; 511  : 		{	// default constructor
; 512  : 		}

  00008	c3		 ret	 0
??0ios_base@std@@IAE@XZ ENDP				; std::ios_base::ios_base
; Function compile flags: /Ogtpy
_TEXT	ENDS
;	COMDAT ??_Gios_base@std@@UAEPAXI@Z
_TEXT	SEGMENT
___flags$ = 8						; size = 4
??_Gios_base@std@@UAEPAXI@Z PROC			; std::ios_base::`scalar deleting destructor', COMDAT
; _this$ = ecx
  00000	56		 push	 esi
  00001	8b f1		 mov	 esi, ecx
  00003	56		 push	 esi
  00004	c7 06 00 00 00
	00		 mov	 DWORD PTR [esi], OFFSET ??_7ios_base@std@@6B@
  0000a	e8 00 00 00 00	 call	 ?_Ios_base_dtor@ios_base@std@@CAXPAV12@@Z ; std::ios_base::_Ios_base_dtor
  0000f	83 c4 04	 add	 esp, 4
  00012	f6 44 24 08 01	 test	 BYTE PTR ___flags$[esp], 1
  00017	74 09		 je	 SHORT $LN6@scalar@4
  00019	56		 push	 esi
  0001a	e8 00 00 00 00	 call	 ??3@YAXPAX@Z		; operator delete
  0001f	83 c4 04	 add	 esp, 4
$LN6@scalar@4:
  00022	8b c6		 mov	 eax, esi
  00024	5e		 pop	 esi
  00025	c2 04 00	 ret	 4
??_Gios_base@std@@UAEPAXI@Z ENDP			; std::ios_base::`scalar deleting destructor'
_TEXT	ENDS
PUBLIC	?dec@std@@YAAAVios_base@1@AAV21@@Z		; std::dec
; Function compile flags: /Ogtpy
; File c:\program files (x86)\microsoft visual studio 9.0\vc\include\ios
;	COMDAT ?dec@std@@YAAAVios_base@1@AAV21@@Z
_TEXT	SEGMENT
__Iosbase$ = 8						; size = 4
?dec@std@@YAAAVios_base@1@AAV21@@Z PROC			; std::dec, COMDAT

; 179  : 	_Iosbase.setf(ios_base::dec, ios_base::basefield);

  00000	8b 44 24 04	 mov	 eax, DWORD PTR __Iosbase$[esp-4]
  00004	8b 48 10	 mov	 ecx, DWORD PTR [eax+16]
  00007	81 e1 ff f3 ff
	ff		 and	 ecx, -3073		; fffff3ffH
  0000d	81 c9 00 02 00
	00		 or	 ecx, 512		; 00000200H
  00013	89 48 10	 mov	 DWORD PTR [eax+16], ecx

; 180  : 	return (_Iosbase);
; 181  : 	}

  00016	c3		 ret	 0
?dec@std@@YAAAVios_base@1@AAV21@@Z ENDP			; std::dec
_TEXT	ENDS
PUBLIC	?hex@std@@YAAAVios_base@1@AAV21@@Z		; std::hex
; Function compile flags: /Ogtpy
;	COMDAT ?hex@std@@YAAAVios_base@1@AAV21@@Z
_TEXT	SEGMENT
__Iosbase$ = 8						; size = 4
?hex@std@@YAAAVios_base@1@AAV21@@Z PROC			; std::hex, COMDAT

; 191  : 	_Iosbase.setf(ios_base::hex, ios_base::basefield);

  00000	8b 44 24 04	 mov	 eax, DWORD PTR __Iosbase$[esp-4]
  00004	8b 48 10	 mov	 ecx, DWORD PTR [eax+16]
  00007	81 e1 ff f9 ff
	ff		 and	 ecx, -1537		; fffff9ffH
  0000d	81 c9 00 08 00
	00		 or	 ecx, 2048		; 00000800H
  00013	89 48 10	 mov	 DWORD PTR [eax+16], ecx

; 192  : 	return (_Iosbase);
; 193  : 	}

  00016	c3		 ret	 0
?hex@std@@YAAAVios_base@1@AAV21@@Z ENDP			; std::hex
_TEXT	ENDS
PUBLIC	??_7Container@ForEach@CipherShed@@6B@		; CipherShed::ForEach::Container::`vftable'
PUBLIC	??0Container@ForEach@CipherShed@@QAE@XZ		; CipherShed::ForEach::Container::Container
PUBLIC	??_R4Container@ForEach@CipherShed@@6B@		; CipherShed::ForEach::Container::`RTTI Complete Object Locator'
PUBLIC	??_R0?AUContainer@ForEach@CipherShed@@@8	; CipherShed::ForEach::Container `RTTI Type Descriptor'
PUBLIC	??_R3Container@ForEach@CipherShed@@8		; CipherShed::ForEach::Container::`RTTI Class Hierarchy Descriptor'
PUBLIC	??_R2Container@ForEach@CipherShed@@8		; CipherShed::ForEach::Container::`RTTI Base Class Array'
PUBLIC	??_R1A@?0A@EA@Container@ForEach@CipherShed@@8	; CipherShed::ForEach::Container::`RTTI Base Class Descriptor at (0,-1,0,64)'
EXTRN	??_EContainer@ForEach@CipherShed@@UAEPAXI@Z:PROC ; CipherShed::ForEach::Container::`vector deleting destructor'
EXTRN	__purecall:PROC
;	COMDAT ??_R1A@?0A@EA@Container@ForEach@CipherShed@@8
; File c:\home\public\desktop\projects\ciphershed.build\src\platform\foreach.h
rdata$r	SEGMENT
??_R1A@?0A@EA@Container@ForEach@CipherShed@@8 DD FLAT:??_R0?AUContainer@ForEach@CipherShed@@@8 ; CipherShed::ForEach::Container::`RTTI Base Class Descriptor at (0,-1,0,64)'
	DD	00H
	DD	00H
	DD	0ffffffffH
	DD	00H
	DD	040H
	DD	FLAT:??_R3Container@ForEach@CipherShed@@8
rdata$r	ENDS
;	COMDAT ??_R2Container@ForEach@CipherShed@@8
rdata$r	SEGMENT
??_R2Container@ForEach@CipherShed@@8 DD FLAT:??_R1A@?0A@EA@Container@ForEach@CipherShed@@8 ; CipherShed::ForEach::Container::`RTTI Base Class Array'
rdata$r	ENDS
;	COMDAT ??_R3Container@ForEach@CipherShed@@8
rdata$r	SEGMENT
??_R3Container@ForEach@CipherShed@@8 DD 00H		; CipherShed::ForEach::Container::`RTTI Class Hierarchy Descriptor'
	DD	00H
	DD	01H
	DD	FLAT:??_R2Container@ForEach@CipherShed@@8
rdata$r	ENDS
;	COMDAT ??_R0?AUContainer@ForEach@CipherShed@@@8
_DATA	SEGMENT
??_R0?AUContainer@ForEach@CipherShed@@@8 DD FLAT:??_7type_info@@6B@ ; CipherShed::ForEach::Container `RTTI Type Descriptor'
	DD	00H
	DB	'.?AUContainer@ForEach@CipherShed@@', 00H
_DATA	ENDS
;	COMDAT ??_R4Container@ForEach@CipherShed@@6B@
rdata$r	SEGMENT
??_R4Container@ForEach@CipherShed@@6B@ DD 00H		; CipherShed::ForEach::Container::`RTTI Complete Object Locator'
	DD	00H
	DD	00H
	DD	FLAT:??_R0?AUContainer@ForEach@CipherShed@@@8
	DD	FLAT:??_R3Container@ForEach@CipherShed@@8
rdata$r	ENDS
;	COMDAT ??_7Container@ForEach@CipherShed@@6B@
CONST	SEGMENT
??_7Container@ForEach@CipherShed@@6B@ DD FLAT:??_R4Container@ForEach@CipherShed@@6B@ ; CipherShed::ForEach::Container::`vftable'
	DD	FLAT:??_EContainer@ForEach@CipherShed@@UAEPAXI@Z
	DD	FLAT:__purecall
	DD	FLAT:__purecall
; Function compile flags: /Ogtpy
CONST	ENDS
;	COMDAT ??0Container@ForEach@CipherShed@@QAE@XZ
_TEXT	SEGMENT
??0Container@ForEach@CipherShed@@QAE@XZ PROC		; CipherShed::ForEach::Container::Container, COMDAT
; _this$ = ecx

; 19   : 			Container () : InnerContinue (true), InnerEndCondition (false) { }

  00000	8b c1		 mov	 eax, ecx
  00002	c7 00 00 00 00
	00		 mov	 DWORD PTR [eax], OFFSET ??_7Container@ForEach@CipherShed@@6B@
  00008	c6 40 04 01	 mov	 BYTE PTR [eax+4], 1
  0000c	c6 40 05 00	 mov	 BYTE PTR [eax+5], 0
  00010	c3		 ret	 0
??0Container@ForEach@CipherShed@@QAE@XZ ENDP		; CipherShed::ForEach::Container::Container
_TEXT	ENDS
PUBLIC	??1Container@ForEach@CipherShed@@UAE@XZ		; CipherShed::ForEach::Container::~Container
; Function compile flags: /Ogtpy
;	COMDAT ??1Container@ForEach@CipherShed@@UAE@XZ
_TEXT	SEGMENT
??1Container@ForEach@CipherShed@@UAE@XZ PROC		; CipherShed::ForEach::Container::~Container, COMDAT
; _this$ = ecx

; 20   : 			virtual ~Container () { }

  00000	c7 01 00 00 00
	00		 mov	 DWORD PTR [ecx], OFFSET ??_7Container@ForEach@CipherShed@@6B@
  00006	c3		 ret	 0
??1Container@ForEach@CipherShed@@UAE@XZ ENDP		; CipherShed::ForEach::Container::~Container
_TEXT	ENDS
PUBLIC	?Continue@Container@ForEach@CipherShed@@QBEXXZ	; CipherShed::ForEach::Container::Continue
; Function compile flags: /Ogtpy
;	COMDAT ?Continue@Container@ForEach@CipherShed@@QBEXXZ
_TEXT	SEGMENT
?Continue@Container@ForEach@CipherShed@@QBEXXZ PROC	; CipherShed::ForEach::Container::Continue, COMDAT
; _this$ = ecx

; 22   : 			void Continue () const { InnerContinue = true; }

  00000	c6 41 04 01	 mov	 BYTE PTR [ecx+4], 1
  00004	c3		 ret	 0
?Continue@Container@ForEach@CipherShed@@QBEXXZ ENDP	; CipherShed::ForEach::Container::Continue
_TEXT	ENDS
PUBLIC	?InnerIsNotEnd@Container@ForEach@CipherShed@@QBE_NXZ ; CipherShed::ForEach::Container::InnerIsNotEnd
; Function compile flags: /Ogtpy
;	COMDAT ?InnerIsNotEnd@Container@ForEach@CipherShed@@QBE_NXZ
_TEXT	SEGMENT
?InnerIsNotEnd@Container@ForEach@CipherShed@@QBE_NXZ PROC ; CipherShed::ForEach::Container::InnerIsNotEnd, COMDAT
; _this$ = ecx

; 23   : 			bool InnerIsNotEnd () const { return InnerEndCondition = !InnerEndCondition; }

  00000	80 79 05 00	 cmp	 BYTE PTR [ecx+5], 0
  00004	0f 94 c0	 sete	 al
  00007	88 41 05	 mov	 BYTE PTR [ecx+5], al
  0000a	c3		 ret	 0
?InnerIsNotEnd@Container@ForEach@CipherShed@@QBE_NXZ ENDP ; CipherShed::ForEach::Container::InnerIsNotEnd
; Function compile flags: /Ogtpy
_TEXT	ENDS
;	COMDAT ??_GContainer@ForEach@CipherShed@@UAEPAXI@Z
_TEXT	SEGMENT
___flags$ = 8						; size = 4
??_GContainer@ForEach@CipherShed@@UAEPAXI@Z PROC	; CipherShed::ForEach::Container::`scalar deleting destructor', COMDAT
; _this$ = ecx
  00000	f6 44 24 04 01	 test	 BYTE PTR ___flags$[esp-4], 1
  00005	56		 push	 esi
  00006	8b f1		 mov	 esi, ecx
  00008	c7 06 00 00 00
	00		 mov	 DWORD PTR [esi], OFFSET ??_7Container@ForEach@CipherShed@@6B@
  0000e	74 09		 je	 SHORT $LN6@scalar@5
  00010	56		 push	 esi
  00011	e8 00 00 00 00	 call	 ??3@YAXPAX@Z		; operator delete
  00016	83 c4 04	 add	 esp, 4
$LN6@scalar@5:
  00019	8b c6		 mov	 eax, esi
  0001b	5e		 pop	 esi
  0001c	c2 04 00	 ret	 4
??_GContainer@ForEach@CipherShed@@UAEPAXI@Z ENDP	; CipherShed::ForEach::Container::`scalar deleting destructor'
_TEXT	ENDS
PUBLIC	??_C@_06DIBEOEIP@?2?2?4?2?$CFs?$AA@		; `string'
PUBLIC	??_C@_0N@ILHOJEMA@truecrypt?$CFlu?$AA@		; `string'
PUBLIC	_FakeDosNameForDevice
EXTRN	__imp__DefineDosDeviceA@12:PROC
EXTRN	_sprintf:PROC
EXTRN	__imp__GetCurrentProcessId@0:PROC
;	COMDAT ??_C@_06DIBEOEIP@?2?2?4?2?$CFs?$AA@
; File c:\home\public\desktop\projects\ciphershed.build\src\common\dlgcode.c
CONST	SEGMENT
??_C@_06DIBEOEIP@?2?2?4?2?$CFs?$AA@ DB '\\.\%s', 00H	; `string'
CONST	ENDS
;	COMDAT ??_C@_0N@ILHOJEMA@truecrypt?$CFlu?$AA@
CONST	SEGMENT
??_C@_0N@ILHOJEMA@truecrypt?$CFlu?$AA@ DB 'truecrypt%lu', 00H ; `string'
; Function compile flags: /Ogtpy
CONST	ENDS
;	COMDAT _FakeDosNameForDevice
_TEXT	SEGMENT
_lpszDiskFile$ = 8					; size = 4
_lpszDosDevice$ = 12					; size = 4
_lpszCFDevice$ = 16					; size = 4
_bNameOnly$ = 20					; size = 4
_FakeDosNameForDevice PROC				; COMDAT

; 318  : {

  00000	56		 push	 esi

; 319  : 	BOOL bDosLinkCreated = TRUE;
; 320  :     //todo: get buffer size as function parameter
; 321  : 	sprintf (lpszDosDevice, "truecrypt%lu", GetCurrentProcessId ());

  00001	ff 15 00 00 00
	00		 call	 DWORD PTR __imp__GetCurrentProcessId@0
  00007	8b 74 24 0c	 mov	 esi, DWORD PTR _lpszDosDevice$[esp]
  0000b	50		 push	 eax
  0000c	68 00 00 00 00	 push	 OFFSET ??_C@_0N@ILHOJEMA@truecrypt?$CFlu?$AA@
  00011	56		 push	 esi
  00012	e8 00 00 00 00	 call	 _sprintf
  00017	83 c4 0c	 add	 esp, 12			; 0000000cH

; 322  : 
; 323  : 	if (bNameOnly == FALSE)

  0001a	83 7c 24 14 00	 cmp	 DWORD PTR _bNameOnly$[esp], 0
  0001f	75 19		 jne	 SHORT $LN2@FakeDosNam

; 324  : 		bDosLinkCreated = DefineDosDevice (DDD_RAW_TARGET_PATH, lpszDosDevice, lpszDiskFile);

  00021	8b 44 24 08	 mov	 eax, DWORD PTR _lpszDiskFile$[esp]
  00025	50		 push	 eax
  00026	56		 push	 esi
  00027	6a 01		 push	 1
  00029	ff 15 00 00 00
	00		 call	 DWORD PTR __imp__DefineDosDeviceA@12

; 325  : 
; 326  : 	if (bDosLinkCreated == FALSE)

  0002f	85 c0		 test	 eax, eax
  00031	75 07		 jne	 SHORT $LN2@FakeDosNam

; 327  : 		return ERR_OS_ERROR;

  00033	b8 01 00 00 00	 mov	 eax, 1
  00038	5e		 pop	 esi

; 332  : }

  00039	c3		 ret	 0
$LN2@FakeDosNam:

; 328  : 	else
; 329  : 		sprintf (lpszCFDevice, "\\\\.\\%s", lpszDosDevice); //todo: get buffer size as function parameter

  0003a	8b 4c 24 10	 mov	 ecx, DWORD PTR _lpszCFDevice$[esp]
  0003e	56		 push	 esi
  0003f	68 00 00 00 00	 push	 OFFSET ??_C@_06DIBEOEIP@?2?2?4?2?$CFs?$AA@
  00044	51		 push	 ecx
  00045	e8 00 00 00 00	 call	 _sprintf
  0004a	83 c4 0c	 add	 esp, 12			; 0000000cH

; 330  : 
; 331  : 	return 0;

  0004d	33 c0		 xor	 eax, eax
  0004f	5e		 pop	 esi

; 332  : }

  00050	c3		 ret	 0
_FakeDosNameForDevice ENDP
_TEXT	ENDS
PUBLIC	_RemoveFakeDosName
; Function compile flags: /Ogtpy
;	COMDAT _RemoveFakeDosName
_TEXT	SEGMENT
_lpszDiskFile$ = 8					; size = 4
_lpszDosDevice$ = 12					; size = 4
_RemoveFakeDosName PROC					; COMDAT

; 336  : 	BOOL bDosLinkRemoved = DefineDosDevice (DDD_RAW_TARGET_PATH | DDD_EXACT_MATCH_ON_REMOVE |
; 337  : 			DDD_REMOVE_DEFINITION, lpszDosDevice, lpszDiskFile);

  00000	8b 44 24 04	 mov	 eax, DWORD PTR _lpszDiskFile$[esp-4]
  00004	8b 4c 24 08	 mov	 ecx, DWORD PTR _lpszDosDevice$[esp-4]
  00008	50		 push	 eax
  00009	51		 push	 ecx
  0000a	6a 07		 push	 7
  0000c	ff 15 00 00 00
	00		 call	 DWORD PTR __imp__DefineDosDeviceA@12

; 338  : 	if (bDosLinkRemoved == FALSE)

  00012	f7 d8		 neg	 eax
  00014	1b c0		 sbb	 eax, eax
  00016	40		 inc	 eax

; 339  : 	{
; 340  : 		return ERR_OS_ERROR;
; 341  : 	}
; 342  : 
; 343  : 	return 0;
; 344  : }

  00017	c3		 ret	 0
_RemoveFakeDosName ENDP
_TEXT	ENDS
PUBLIC	_AbortProcess
EXTRN	_exit:PROC
EXTRN	__imp__MessageBoxW@16:PROC
EXTRN	_GetString:PROC
EXTRN	__imp__MessageBeep@4:PROC
; Function compile flags: /Ogtpy
;	COMDAT _AbortProcess
_TEXT	SEGMENT
_stringId$ = 8						; size = 4
_AbortProcess PROC					; COMDAT

; 349  : 	// Note that this function also causes localcleanup() to be called (see atexit())
; 350  : 	MessageBeep (MB_ICONEXCLAMATION);

  00000	6a 30		 push	 48			; 00000030H
  00002	ff 15 00 00 00
	00		 call	 DWORD PTR __imp__MessageBeep@4

; 351  : 	MessageBoxW (NULL, GetString (stringId), lpszTitle, ICON_HAND);

  00008	a1 00 00 00 00	 mov	 eax, DWORD PTR _lpszTitle
  0000d	8b 4c 24 04	 mov	 ecx, DWORD PTR _stringId$[esp-4]
  00011	6a 10		 push	 16			; 00000010H
  00013	50		 push	 eax
  00014	51		 push	 ecx
  00015	e8 00 00 00 00	 call	 _GetString
  0001a	83 c4 04	 add	 esp, 4
  0001d	50		 push	 eax
  0001e	6a 00		 push	 0
  00020	ff 15 00 00 00
	00		 call	 DWORD PTR __imp__MessageBoxW@16

; 352  : 	exit (1);

  00026	6a 01		 push	 1
  00028	e8 00 00 00 00	 call	 _exit
$LN3@AbortProce:
  0002d	cc		 int	 3
_AbortProcess ENDP
_TEXT	ENDS
PUBLIC	_AbortProcessSilent
; Function compile flags: /Ogtpy
;	COMDAT _AbortProcessSilent
_TEXT	SEGMENT
_AbortProcessSilent PROC				; COMDAT

; 357  : 	// Note that this function also causes localcleanup() to be called (see atexit())
; 358  : 	exit (1);

  00000	6a 01		 push	 1
  00002	e8 00 00 00 00	 call	 _exit
$LN3@AbortProce@2:
  00007	cc		 int	 3
_AbortProcessSilent ENDP
_TEXT	ENDS
PUBLIC	??_C@_0M@IMAOAGMP@OUTOFMEMORY?$AA@		; `string'
PUBLIC	_err_malloc
EXTRN	_malloc:PROC
;	COMDAT ??_C@_0M@IMAOAGMP@OUTOFMEMORY?$AA@
CONST	SEGMENT
??_C@_0M@IMAOAGMP@OUTOFMEMORY?$AA@ DB 'OUTOFMEMORY', 00H ; `string'
; Function compile flags: /Ogtpy
CONST	ENDS
;	COMDAT _err_malloc
_TEXT	SEGMENT
_size$ = 8						; size = 4
_err_malloc PROC					; COMDAT

; 367  : 	void *z = (void *) TCalloc (size);

  00000	8b 44 24 04	 mov	 eax, DWORD PTR _size$[esp-4]
  00004	50		 push	 eax
  00005	e8 00 00 00 00	 call	 _malloc
  0000a	83 c4 04	 add	 esp, 4

; 368  : 	if (z)

  0000d	85 c0		 test	 eax, eax

; 369  : 		return z;

  0000f	75 0a		 jne	 SHORT $LN2@err_malloc

; 370  : 	AbortProcess ("OUTOFMEMORY");

  00011	68 00 00 00 00	 push	 OFFSET ??_C@_0M@IMAOAGMP@OUTOFMEMORY?$AA@
  00016	e8 00 00 00 00	 call	 _AbortProcess
$LN2@err_malloc:

; 371  : 	return 0;
; 372  : }

  0001b	c3		 ret	 0
$LN4@err_malloc:
_err_malloc ENDP
_TEXT	ENDS
PUBLIC	_err_strdup
EXTRN	_memmove:PROC
; Function compile flags: /Ogtpy
;	COMDAT _err_strdup
_TEXT	SEGMENT
_lpszText$ = 8						; size = 4
_err_strdup PROC					; COMDAT

; 378  : {

  00000	53		 push	 ebx

; 379  : 	int j = (strlen (lpszText) + 1) * sizeof (char);

  00001	8b 5c 24 08	 mov	 ebx, DWORD PTR _lpszText$[esp]
  00005	56		 push	 esi
  00006	8b c3		 mov	 eax, ebx
  00008	57		 push	 edi
  00009	8d 50 01	 lea	 edx, DWORD PTR [eax+1]
  0000c	8d 64 24 00	 npad	 4
$LL7@err_strdup:
  00010	8a 08		 mov	 cl, BYTE PTR [eax]
  00012	40		 inc	 eax
  00013	84 c9		 test	 cl, cl
  00015	75 f9		 jne	 SHORT $LL7@err_strdup
  00017	2b c2		 sub	 eax, edx
  00019	8d 78 01	 lea	 edi, DWORD PTR [eax+1]

; 380  : 	char *z = (char *) err_malloc (j);

  0001c	57		 push	 edi
  0001d	e8 00 00 00 00	 call	 _malloc
  00022	8b f0		 mov	 esi, eax
  00024	83 c4 04	 add	 esp, 4
  00027	85 f6		 test	 esi, esi
  00029	74 11		 je	 SHORT $LN3@err_strdup

; 381  : 	memmove (z, lpszText, j);

  0002b	57		 push	 edi
  0002c	53		 push	 ebx
  0002d	56		 push	 esi
  0002e	e8 00 00 00 00	 call	 _memmove
  00033	83 c4 0c	 add	 esp, 12			; 0000000cH
  00036	5f		 pop	 edi

; 382  : 	return z;

  00037	8b c6		 mov	 eax, esi
  00039	5e		 pop	 esi
  0003a	5b		 pop	 ebx

; 383  : }

  0003b	c3		 ret	 0
$LN3@err_strdup:
  0003c	68 00 00 00 00	 push	 OFFSET ??_C@_0M@IMAOAGMP@OUTOFMEMORY?$AA@
  00041	e8 00 00 00 00	 call	 _AbortProcess
$LN8@err_strdup:
  00046	cc		 int	 3
_err_strdup ENDP
_TEXT	ENDS
PUBLIC	__real@0000000000000000
PUBLIC	__real@3feff7ced916872b
PUBLIC	_CompensateDPIFont
EXTRN	_ceil:PROC
EXTRN	__fltused:DWORD
EXTRN	__ftol2_sse:PROC
EXTRN	_floor:PROC
;	COMDAT __real@0000000000000000
CONST	SEGMENT
__real@0000000000000000 DQ 00000000000000000r	; 0
CONST	ENDS
;	COMDAT __real@3feff7ced916872b
CONST	SEGMENT
__real@3feff7ced916872b DQ 03feff7ced916872br	; 0.999
; Function compile flags: /Ogtpy
CONST	ENDS
;	COMDAT _CompensateDPIFont
_TEXT	SEGMENT
_val$ = 8						; size = 4
_CompensateDPIFont PROC					; COMDAT

; 393  : 	if (ScreenDPI == USER_DEFAULT_SCREEN_DPI)

  00000	83 3d 00 00 00
	00 60		 cmp	 DWORD PTR _ScreenDPI, 96 ; 00000060H
  00007	75 05		 jne	 SHORT $LN4@Compensate

; 394  : 		return val;

  00009	8b 44 24 04	 mov	 eax, DWORD PTR _val$[esp-4]

; 403  : 	}
; 404  : }

  0000d	c3		 ret	 0
$LN4@Compensate:

; 395  : 	else
; 396  : 	{
; 397  : 		double tmpVal = (double) val * DPIScaleFactorY * DlgAspectRatio * 0.999;

  0000e	db 44 24 04	 fild	 DWORD PTR _val$[esp-4]

; 398  : 
; 399  : 		if (tmpVal > 0)
; 400  : 			return (int) floor(tmpVal);

  00012	83 ec 08	 sub	 esp, 8
  00015	dc 0d 00 00 00
	00		 fmul	 QWORD PTR ?DPIScaleFactorY@@3NA ; DPIScaleFactorY
  0001b	dc 0d 00 00 00
	00		 fmul	 QWORD PTR _DlgAspectRatio
  00021	dc 0d 00 00 00
	00		 fmul	 QWORD PTR __real@3feff7ced916872b
  00027	d9 ee		 fldz
  00029	d8 d9		 fcomp	 ST(1)
  0002b	df e0		 fnstsw	 ax
  0002d	dd 1c 24	 fstp	 QWORD PTR [esp]
  00030	f6 c4 05	 test	 ah, 5
  00033	7a 0d		 jp	 SHORT $LN2@Compensate
  00035	e8 00 00 00 00	 call	 _floor
  0003a	83 c4 08	 add	 esp, 8
  0003d	e9 00 00 00 00	 jmp	 __ftol2_sse
$LN2@Compensate:

; 401  : 		else
; 402  : 			return (int) ceil(tmpVal);

  00042	e8 00 00 00 00	 call	 _ceil
  00047	83 c4 08	 add	 esp, 8
  0004a	e9 00 00 00 00	 jmp	 __ftol2_sse
_CompensateDPIFont ENDP
_TEXT	ENDS
PUBLIC	_CompensateXDPI
; Function compile flags: /Ogtpy
;	COMDAT _CompensateXDPI
_TEXT	SEGMENT
_val$ = 8						; size = 4
_CompensateXDPI PROC					; COMDAT

; 411  : 	if (ScreenDPI == USER_DEFAULT_SCREEN_DPI)

  00000	83 3d 00 00 00
	00 60		 cmp	 DWORD PTR _ScreenDPI, 96 ; 00000060H
  00007	75 05		 jne	 SHORT $LN4@Compensate@2

; 412  : 		return val;

  00009	8b 44 24 04	 mov	 eax, DWORD PTR _val$[esp-4]

; 421  : 	}
; 422  : }

  0000d	c3		 ret	 0
$LN4@Compensate@2:

; 413  : 	else
; 414  : 	{
; 415  : 		double tmpVal = (double) val * DPIScaleFactorX;

  0000e	db 44 24 04	 fild	 DWORD PTR _val$[esp-4]

; 416  : 
; 417  : 		if (tmpVal > 0)
; 418  : 			return (int) floor(tmpVal);

  00012	83 ec 08	 sub	 esp, 8
  00015	dc 0d 00 00 00
	00		 fmul	 QWORD PTR ?DPIScaleFactorX@@3NA ; DPIScaleFactorX
  0001b	d9 ee		 fldz
  0001d	d8 d9		 fcomp	 ST(1)
  0001f	df e0		 fnstsw	 ax
  00021	dd 1c 24	 fstp	 QWORD PTR [esp]
  00024	f6 c4 05	 test	 ah, 5
  00027	7a 0d		 jp	 SHORT $LN2@Compensate@2
  00029	e8 00 00 00 00	 call	 _floor
  0002e	83 c4 08	 add	 esp, 8
  00031	e9 00 00 00 00	 jmp	 __ftol2_sse
$LN2@Compensate@2:

; 419  : 		else
; 420  : 			return (int) ceil(tmpVal);

  00036	e8 00 00 00 00	 call	 _ceil
  0003b	83 c4 08	 add	 esp, 8
  0003e	e9 00 00 00 00	 jmp	 __ftol2_sse
_CompensateXDPI ENDP
_TEXT	ENDS
PUBLIC	_CompensateYDPI
; Function compile flags: /Ogtpy
;	COMDAT _CompensateYDPI
_TEXT	SEGMENT
_val$ = 8						; size = 4
_CompensateYDPI PROC					; COMDAT

; 429  : 	if (ScreenDPI == USER_DEFAULT_SCREEN_DPI)

  00000	83 3d 00 00 00
	00 60		 cmp	 DWORD PTR _ScreenDPI, 96 ; 00000060H
  00007	75 05		 jne	 SHORT $LN4@Compensate@3

; 430  : 		return val;

  00009	8b 44 24 04	 mov	 eax, DWORD PTR _val$[esp-4]

; 439  : 	}
; 440  : }

  0000d	c3		 ret	 0
$LN4@Compensate@3:

; 431  : 	else
; 432  : 	{
; 433  : 		double tmpVal = (double) val * DPIScaleFactorY;

  0000e	db 44 24 04	 fild	 DWORD PTR _val$[esp-4]

; 434  : 
; 435  : 		if (tmpVal > 0)
; 436  : 			return (int) floor(tmpVal);

  00012	83 ec 08	 sub	 esp, 8
  00015	dc 0d 00 00 00
	00		 fmul	 QWORD PTR ?DPIScaleFactorY@@3NA ; DPIScaleFactorY
  0001b	d9 ee		 fldz
  0001d	d8 d9		 fcomp	 ST(1)
  0001f	df e0		 fnstsw	 ax
  00021	dd 1c 24	 fstp	 QWORD PTR [esp]
  00024	f6 c4 05	 test	 ah, 5
  00027	7a 0d		 jp	 SHORT $LN2@Compensate@3
  00029	e8 00 00 00 00	 call	 _floor
  0002e	83 c4 08	 add	 esp, 8
  00031	e9 00 00 00 00	 jmp	 __ftol2_sse
$LN2@Compensate@3:

; 437  : 		else
; 438  : 			return (int) ceil(tmpVal);

  00036	e8 00 00 00 00	 call	 _ceil
  0003b	83 c4 08	 add	 esp, 8
  0003e	e9 00 00 00 00	 jmp	 __ftol2_sse
_CompensateYDPI ENDP
_TEXT	ENDS
PUBLIC	_GetTextGfxWidth
EXTRN	__imp__ReleaseDC@8:PROC
EXTRN	__imp__GetTextMetricsA@8:PROC
EXTRN	__imp__GetTextExtentPoint32W@16:PROC
EXTRN	__imp__SelectObject@8:PROC
EXTRN	__imp__GetDC@4:PROC
; Function compile flags: /Ogtpy
;	COMDAT _GetTextGfxWidth
_TEXT	SEGMENT
_sizes$ = -64						; size = 8
_textMetrics$ = -56					; size = 56
_hwndDlgItem$ = 8					; size = 4
_text$ = 12						; size = 4
_hFont$ = 16						; size = 4
_GetTextGfxWidth PROC					; COMDAT

; 444  : {

  00000	83 ec 40	 sub	 esp, 64			; 00000040H
  00003	53		 push	 ebx
  00004	56		 push	 esi
  00005	57		 push	 edi

; 445  : 	SIZE sizes;
; 446  : 	TEXTMETRIC textMetrics;
; 447  : 	HDC hdc = GetDC (hwndDlgItem); 

  00006	8b 7c 24 50	 mov	 edi, DWORD PTR _hwndDlgItem$[esp+72]
  0000a	57		 push	 edi
  0000b	ff 15 00 00 00
	00		 call	 DWORD PTR __imp__GetDC@4
  00011	8b f0		 mov	 esi, eax

; 448  : 
; 449  : 	SelectObject(hdc, (HGDIOBJ) hFont);

  00013	8b 44 24 58	 mov	 eax, DWORD PTR _hFont$[esp+72]
  00017	50		 push	 eax
  00018	56		 push	 esi
  00019	ff 15 00 00 00
	00		 call	 DWORD PTR __imp__SelectObject@8

; 450  : 
; 451  : 	GetTextExtentPoint32W (hdc, text, wcslen (text), &sizes);

  0001f	8b 54 24 54	 mov	 edx, DWORD PTR _text$[esp+72]
  00023	8b c2		 mov	 eax, edx
  00025	8d 58 02	 lea	 ebx, DWORD PTR [eax+2]
  00028	eb 06 8d 9b 00
	00 00 00	 npad	 8
$LL3@GetTextGfx:
  00030	66 8b 08	 mov	 cx, WORD PTR [eax]
  00033	83 c0 02	 add	 eax, 2
  00036	66 85 c9	 test	 cx, cx
  00039	75 f5		 jne	 SHORT $LL3@GetTextGfx
  0003b	2b c3		 sub	 eax, ebx
  0003d	8d 4c 24 0c	 lea	 ecx, DWORD PTR _sizes$[esp+76]
  00041	51		 push	 ecx
  00042	d1 f8		 sar	 eax, 1
  00044	50		 push	 eax
  00045	52		 push	 edx
  00046	56		 push	 esi
  00047	ff 15 00 00 00
	00		 call	 DWORD PTR __imp__GetTextExtentPoint32W@16

; 452  : 
; 453  : 	GetTextMetrics(hdc, &textMetrics);	// Necessary for non-TrueType raster fonts (tmOverhang)

  0004d	8d 54 24 14	 lea	 edx, DWORD PTR _textMetrics$[esp+76]
  00051	52		 push	 edx
  00052	56		 push	 esi
  00053	ff 15 00 00 00
	00		 call	 DWORD PTR __imp__GetTextMetricsA@8

; 454  : 
; 455  : 	ReleaseDC (hwndDlgItem, hdc); 

  00059	56		 push	 esi
  0005a	57		 push	 edi
  0005b	ff 15 00 00 00
	00		 call	 DWORD PTR __imp__ReleaseDC@8

; 456  : 
; 457  : 	return ((int) sizes.cx - (int) textMetrics.tmOverhang);

  00061	8b 44 24 0c	 mov	 eax, DWORD PTR _sizes$[esp+76]
  00065	2b 44 24 34	 sub	 eax, DWORD PTR _textMetrics$[esp+108]
  00069	5f		 pop	 edi
  0006a	5e		 pop	 esi
  0006b	5b		 pop	 ebx

; 458  : }

  0006c	83 c4 40	 add	 esp, 64			; 00000040H
  0006f	c3		 ret	 0
_GetTextGfxWidth ENDP
_TEXT	ENDS
PUBLIC	_GetTextGfxHeight
; Function compile flags: /Ogtpy
;	COMDAT _GetTextGfxHeight
_TEXT	SEGMENT
_sizes$ = -8						; size = 8
_hwndDlgItem$ = 8					; size = 4
_text$ = 12						; size = 4
_hFont$ = 16						; size = 4
_GetTextGfxHeight PROC					; COMDAT

; 462  : {

  00000	83 ec 08	 sub	 esp, 8
  00003	53		 push	 ebx
  00004	56		 push	 esi
  00005	57		 push	 edi

; 463  : 	SIZE sizes;
; 464  : 	HDC hdc = GetDC (hwndDlgItem); 

  00006	8b 7c 24 18	 mov	 edi, DWORD PTR _hwndDlgItem$[esp+16]
  0000a	57		 push	 edi
  0000b	ff 15 00 00 00
	00		 call	 DWORD PTR __imp__GetDC@4
  00011	8b f0		 mov	 esi, eax

; 465  : 
; 466  : 	SelectObject(hdc, (HGDIOBJ) hFont);

  00013	8b 44 24 20	 mov	 eax, DWORD PTR _hFont$[esp+16]
  00017	50		 push	 eax
  00018	56		 push	 esi
  00019	ff 15 00 00 00
	00		 call	 DWORD PTR __imp__SelectObject@8

; 467  : 
; 468  : 	GetTextExtentPoint32W (hdc, text, wcslen (text), &sizes);

  0001f	8b 54 24 1c	 mov	 edx, DWORD PTR _text$[esp+16]
  00023	8b c2		 mov	 eax, edx
  00025	8d 58 02	 lea	 ebx, DWORD PTR [eax+2]
  00028	eb 06 8d 9b 00
	00 00 00	 npad	 8
$LL3@GetTextGfx@2:
  00030	66 8b 08	 mov	 cx, WORD PTR [eax]
  00033	83 c0 02	 add	 eax, 2
  00036	66 85 c9	 test	 cx, cx
  00039	75 f5		 jne	 SHORT $LL3@GetTextGfx@2
  0003b	2b c3		 sub	 eax, ebx
  0003d	8d 4c 24 0c	 lea	 ecx, DWORD PTR _sizes$[esp+20]
  00041	51		 push	 ecx
  00042	d1 f8		 sar	 eax, 1
  00044	50		 push	 eax
  00045	52		 push	 edx
  00046	56		 push	 esi
  00047	ff 15 00 00 00
	00		 call	 DWORD PTR __imp__GetTextExtentPoint32W@16

; 469  : 
; 470  : 	ReleaseDC (hwndDlgItem, hdc); 

  0004d	56		 push	 esi
  0004e	57		 push	 edi
  0004f	ff 15 00 00 00
	00		 call	 DWORD PTR __imp__ReleaseDC@8

; 471  : 
; 472  : 	return ((int) sizes.cy);

  00055	8b 44 24 10	 mov	 eax, DWORD PTR _sizes$[esp+24]
  00059	5f		 pop	 edi
  0005a	5e		 pop	 esi
  0005b	5b		 pop	 ebx

; 473  : }

  0005c	83 c4 08	 add	 esp, 8
  0005f	c3		 ret	 0
_GetTextGfxHeight ENDP
_TEXT	ENDS
EXTRN	_HandCursor:PROC
EXTRN	__imp__TrackMouseEvent@4:PROC
EXTRN	_NormalCursor:PROC
EXTRN	__imp__CallWindowProcA@20:PROC
EXTRN	__imp__GetWindowLongA@8:PROC
; Function compile flags: /Ogtpy
;	COMDAT ?HyperlinkProc@@YGJPAUHWND__@@IIJ@Z
_TEXT	SEGMENT
_trackMouseEvent$138090 = -16				; size = 16
_hwnd$ = 8						; size = 4
_message$ = 12						; size = 4
_wParam$ = 16						; size = 4
_lParam$ = 20						; size = 4
?HyperlinkProc@@YGJPAUHWND__@@IIJ@Z PROC		; HyperlinkProc, COMDAT

; 501  : {

  00000	83 ec 10	 sub	 esp, 16			; 00000010H
  00003	56		 push	 esi

; 502  : 	WNDPROC wp = (WNDPROC) GetWindowLongPtr (hwnd, GWLP_USERDATA);

  00004	8b 74 24 18	 mov	 esi, DWORD PTR _hwnd$[esp+16]
  00008	6a eb		 push	 -21			; ffffffebH
  0000a	56		 push	 esi
  0000b	ff 15 00 00 00
	00		 call	 DWORD PTR __imp__GetWindowLongA@8

; 503  : 
; 504  : 	switch (message)

  00011	8b 4c 24 1c	 mov	 ecx, DWORD PTR _message$[esp+16]
  00015	83 f9 20	 cmp	 ecx, 32			; 00000020H
  00018	74 3a		 je	 SHORT $LN3@HyperlinkP
  0001a	81 f9 a3 02 00
	00		 cmp	 ecx, 675		; 000002a3H
  00020	74 1a		 je	 SHORT $LN1@HyperlinkP

; 524  : 		return 0;
; 525  : 	}
; 526  : 
; 527  : 	return CallWindowProc (wp, hwnd, message, wParam, lParam);

  00022	8b 54 24 24	 mov	 edx, DWORD PTR _lParam$[esp+16]
  00026	52		 push	 edx
  00027	8b 54 24 24	 mov	 edx, DWORD PTR _wParam$[esp+20]
  0002b	52		 push	 edx
  0002c	51		 push	 ecx
  0002d	56		 push	 esi
  0002e	50		 push	 eax
  0002f	ff 15 00 00 00
	00		 call	 DWORD PTR __imp__CallWindowProcA@20
  00035	5e		 pop	 esi

; 528  : }

  00036	83 c4 10	 add	 esp, 16			; 00000010H
  00039	c2 10 00	 ret	 16			; 00000010H
$LN1@HyperlinkP:

; 520  : 
; 521  : 	case WM_MOUSELEAVE:
; 522  : 		bHyperLinkBeingTracked = FALSE;

  0003c	c7 05 00 00 00
	00 00 00 00 00	 mov	 DWORD PTR _bHyperLinkBeingTracked, 0

; 523  : 		NormalCursor();

  00046	e8 00 00 00 00	 call	 _NormalCursor
  0004b	33 c0		 xor	 eax, eax
  0004d	5e		 pop	 esi

; 528  : }

  0004e	83 c4 10	 add	 esp, 16			; 00000010H
  00051	c2 10 00	 ret	 16			; 00000010H
$LN3@HyperlinkP:

; 505  : 	{
; 506  : 	case WM_SETCURSOR:
; 507  : 		if (!bHyperLinkBeingTracked)

  00054	83 3d 00 00 00
	00 00		 cmp	 DWORD PTR _bHyperLinkBeingTracked, 0
  0005b	75 29		 jne	 SHORT $LN2@HyperlinkP

; 508  : 		{
; 509  : 			TRACKMOUSEEVENT	trackMouseEvent;
; 510  : 
; 511  : 			trackMouseEvent.cbSize = sizeof(trackMouseEvent);
; 512  : 			trackMouseEvent.dwFlags = TME_LEAVE;
; 513  : 			trackMouseEvent.hwndTrack = hwnd;
; 514  : 
; 515  : 			bHyperLinkBeingTracked = TrackMouseEvent(&trackMouseEvent);

  0005d	8d 44 24 04	 lea	 eax, DWORD PTR _trackMouseEvent$138090[esp+20]
  00061	50		 push	 eax
  00062	c7 44 24 08 10
	00 00 00	 mov	 DWORD PTR _trackMouseEvent$138090[esp+24], 16 ; 00000010H
  0006a	c7 44 24 0c 02
	00 00 00	 mov	 DWORD PTR _trackMouseEvent$138090[esp+28], 2
  00072	89 74 24 10	 mov	 DWORD PTR _trackMouseEvent$138090[esp+32], esi
  00076	ff 15 00 00 00
	00		 call	 DWORD PTR __imp__TrackMouseEvent@4
  0007c	a3 00 00 00 00	 mov	 DWORD PTR _bHyperLinkBeingTracked, eax

; 516  : 
; 517  : 			HandCursor();

  00081	e8 00 00 00 00	 call	 _HandCursor
$LN2@HyperlinkP:

; 518  : 		}
; 519  : 		return 0;

  00086	33 c0		 xor	 eax, eax
  00088	5e		 pop	 esi

; 528  : }

  00089	83 c4 10	 add	 esp, 16			; 00000010H
  0008c	c2 10 00	 ret	 16			; 00000010H
?HyperlinkProc@@YGJPAUHWND__@@IIJ@Z ENDP		; HyperlinkProc
_TEXT	ENDS
PUBLIC	__$ArrayPad$
PUBLIC	_AccommodateTextField
EXTRN	__imp__InvalidateRect@12:PROC
EXTRN	__imp__SetWindowPos@28:PROC
EXTRN	__imp__MoveWindow@24:PROC
EXTRN	__imp__GetWindowInfo@8:PROC
EXTRN	__imp__GetSystemMetrics@4:PROC
EXTRN	__imp__GetWindowRect@8:PROC
EXTRN	__imp__GetClientRect@8:PROC
EXTRN	__imp__GetWindowTextW@12:PROC
EXTRN	__imp__GetDlgItem@8:PROC
EXTRN	___security_cookie:DWORD
EXTRN	@__security_check_cookie@4:PROC
EXTRN	__chkstk:PROC
; Function compile flags: /Ogtpy
;	COMDAT _AccommodateTextField
_TEXT	SEGMENT
_height$ = -4296					; size = 4
_alignPosDiff$ = -4296					; size = 4
_vertSubOffset$ = -4292					; size = 4
_width$ = -4292						; size = 4
_horizSubOffset$ = -4288				; size = 4
_origHeight$ = -4284					; size = 4
_rec$ = -4280						; size = 16
_wrec$ = -4264						; size = 16
_trec$ = -4248						; size = 16
_windowInfo$ = -4232					; size = 60
_text$ = -4172						; size = 4168
__$ArrayPad$ = -4					; size = 4
_hwndDlg$ = 8						; size = 4
_ctrlId$ = 12						; size = 4
_bFirstUpdate$ = 16					; size = 4
_hFont$ = 20						; size = 4
_AccommodateTextField PROC				; COMDAT

; 559  : {

  00000	b8 c8 10 00 00	 mov	 eax, 4296		; 000010c8H
  00005	e8 00 00 00 00	 call	 __chkstk
  0000a	a1 00 00 00 00	 mov	 eax, DWORD PTR ___security_cookie
  0000f	33 c4		 xor	 eax, esp
  00011	89 84 24 c4 10
	00 00		 mov	 DWORD PTR __$ArrayPad$[esp+4296], eax

; 560  : 	RECT rec, wrec, trec;
; 561  : 	HWND hwndCtrl = GetDlgItem (hwndDlg, ctrlId);

  00018	8b 84 24 d0 10
	00 00		 mov	 eax, DWORD PTR _ctrlId$[esp+4292]
  0001f	53		 push	 ebx
  00020	8b 9c 24 d0 10
	00 00		 mov	 ebx, DWORD PTR _hwndDlg$[esp+4296]
  00027	55		 push	 ebp
  00028	8b ac 24 e0 10
	00 00		 mov	 ebp, DWORD PTR _hFont$[esp+4300]
  0002f	56		 push	 esi
  00030	57		 push	 edi
  00031	50		 push	 eax
  00032	53		 push	 ebx
  00033	ff 15 00 00 00
	00		 call	 DWORD PTR __imp__GetDlgItem@8

; 562  : 	int width, origWidth, height, origHeight;
; 563  : 	int horizSubOffset, vertSubOffset, vertOffset, alignPosDiff = 0;
; 564  : 	wchar_t text [MAX_URL_LENGTH];
; 565  : 	WINDOWINFO windowInfo;
; 566  : 	BOOL bBorderlessWindow = !(GetWindowLongPtr (hwndDlg, GWL_STYLE) & (WS_BORDER | WS_DLGFRAME));

  00039	6a f0		 push	 -16			; fffffff0H
  0003b	53		 push	 ebx
  0003c	8b f8		 mov	 edi, eax
  0003e	ff 15 00 00 00
	00		 call	 DWORD PTR __imp__GetWindowLongA@8
  00044	8b f0		 mov	 esi, eax
  00046	81 e6 00 00 c0
	00		 and	 esi, 12582912		; 00c00000H

; 567  : 
; 568  : 	// Resize the field according to its length and font size and move if centered or right-aligned
; 569  : 
; 570  : 	GetWindowTextW (hwndCtrl, text, sizeof (text) / sizeof (wchar_t));

  0004c	68 24 08 00 00	 push	 2084			; 00000824H
  00051	8d 8c 24 90 00
	00 00		 lea	 ecx, DWORD PTR _text$[esp+4316]
  00058	f7 de		 neg	 esi
  0005a	51		 push	 ecx
  0005b	1b f6		 sbb	 esi, esi
  0005d	57		 push	 edi
  0005e	46		 inc	 esi
  0005f	ff 15 00 00 00
	00		 call	 DWORD PTR __imp__GetWindowTextW@12

; 571  : 
; 572  : 	width = GetTextGfxWidth (hwndCtrl, text, hFont);

  00065	55		 push	 ebp
  00066	8d 94 24 90 00
	00 00		 lea	 edx, DWORD PTR _text$[esp+4316]
  0006d	52		 push	 edx
  0006e	57		 push	 edi
  0006f	e8 00 00 00 00	 call	 _GetTextGfxWidth
  00074	89 44 24 20	 mov	 DWORD PTR _width$[esp+4324], eax

; 573  : 	height = GetTextGfxHeight (hwndCtrl, text, hFont);

  00078	55		 push	 ebp
  00079	8d 84 24 9c 00
	00 00		 lea	 eax, DWORD PTR _text$[esp+4328]
  00080	50		 push	 eax
  00081	57		 push	 edi
  00082	e8 00 00 00 00	 call	 _GetTextGfxHeight
  00087	83 c4 18	 add	 esp, 24			; 00000018H

; 574  : 
; 575  : 	GetClientRect (hwndCtrl, &rec);		

  0008a	8d 4c 24 20	 lea	 ecx, DWORD PTR _rec$[esp+4312]
  0008e	51		 push	 ecx
  0008f	57		 push	 edi
  00090	89 44 24 18	 mov	 DWORD PTR _height$[esp+4320], eax
  00094	ff 15 00 00 00
	00		 call	 DWORD PTR __imp__GetClientRect@8

; 576  : 	origWidth = rec.right;
; 577  : 	origHeight = rec.bottom;
; 578  : 
; 579  : 	if (width >= 0
; 580  : 		&& (!bFirstUpdate || origWidth > width))	// The original width of the field is the maximum allowed size 

  0009a	8b 54 24 14	 mov	 edx, DWORD PTR _width$[esp+4312]
  0009e	8b 44 24 28	 mov	 eax, DWORD PTR _rec$[esp+4320]
  000a2	8b 4c 24 2c	 mov	 ecx, DWORD PTR _rec$[esp+4324]
  000a6	8b e8		 mov	 ebp, eax
  000a8	89 4c 24 1c	 mov	 DWORD PTR _origHeight$[esp+4312], ecx
  000ac	85 d2		 test	 edx, edx
  000ae	0f 8c 1b 01 00
	00		 jl	 $LN7@Accommodat
  000b4	83 bc 24 e4 10
	00 00 00	 cmp	 DWORD PTR _bFirstUpdate$[esp+4308], 0
  000bc	74 08		 je	 SHORT $LN6@Accommodat
  000be	3b c2		 cmp	 eax, edx
  000c0	0f 8e 09 01 00
	00		 jle	 $LN7@Accommodat
$LN6@Accommodat:

; 581  : 	{
; 582  : 		horizSubOffset = origWidth - width;
; 583  : 		vertSubOffset = origHeight - height;

  000c6	2b 4c 24 10	 sub	 ecx, DWORD PTR _height$[esp+4312]
  000ca	2b c2		 sub	 eax, edx

; 584  : 
; 585  : 		// Window coords
; 586  : 		GetWindowRect(hwndDlg, &wrec);

  000cc	8d 54 24 30	 lea	 edx, DWORD PTR _wrec$[esp+4312]
  000d0	52		 push	 edx
  000d1	53		 push	 ebx
  000d2	89 44 24 20	 mov	 DWORD PTR _horizSubOffset$[esp+4320], eax
  000d6	89 4c 24 1c	 mov	 DWORD PTR _vertSubOffset$[esp+4320], ecx
  000da	ff 15 00 00 00
	00		 call	 DWORD PTR __imp__GetWindowRect@8

; 587  : 		GetClientRect(hwndDlg, &trec);

  000e0	8d 44 24 40	 lea	 eax, DWORD PTR _trec$[esp+4312]
  000e4	50		 push	 eax
  000e5	53		 push	 ebx
  000e6	ff 15 00 00 00
	00		 call	 DWORD PTR __imp__GetClientRect@8

; 588  : 
; 589  : 		// Vertical "title bar" offset
; 590  : 		vertOffset = wrec.bottom - wrec.top - trec.bottom - (bBorderlessWindow ? 0 : GetSystemMetrics(SM_CYFIXEDFRAME));

  000ec	85 f6		 test	 esi, esi
  000ee	74 04		 je	 SHORT $LN10@Accommodat
  000f0	33 c0		 xor	 eax, eax
  000f2	eb 08		 jmp	 SHORT $LN11@Accommodat
$LN10@Accommodat:
  000f4	6a 08		 push	 8
  000f6	ff 15 00 00 00
	00		 call	 DWORD PTR __imp__GetSystemMetrics@4
$LN11@Accommodat:
  000fc	8b 5c 24 3c	 mov	 ebx, DWORD PTR _wrec$[esp+4324]
  00100	2b d8		 sub	 ebx, eax
  00102	2b 5c 24 4c	 sub	 ebx, DWORD PTR _trec$[esp+4324]

; 591  : 
; 592  : 		// Text field coords
; 593  : 		GetWindowRect(hwndCtrl, &rec);

  00106	8d 4c 24 20	 lea	 ecx, DWORD PTR _rec$[esp+4312]
  0010a	2b 5c 24 34	 sub	 ebx, DWORD PTR _wrec$[esp+4316]
  0010e	51		 push	 ecx
  0010f	57		 push	 edi
  00110	ff 15 00 00 00
	00		 call	 DWORD PTR __imp__GetWindowRect@8

; 594  : 
; 595  : 		// Alignment offset
; 596  : 		windowInfo.cbSize = sizeof(windowInfo);
; 597  : 		GetWindowInfo (hwndCtrl, &windowInfo);

  00116	8d 54 24 50	 lea	 edx, DWORD PTR _windowInfo$[esp+4312]
  0011a	52		 push	 edx
  0011b	57		 push	 edi
  0011c	c7 44 24 58 3c
	00 00 00	 mov	 DWORD PTR _windowInfo$[esp+4320], 60 ; 0000003cH
  00124	ff 15 00 00 00
	00		 call	 DWORD PTR __imp__GetWindowInfo@8

; 598  : 
; 599  : 		if (windowInfo.dwStyle & SS_CENTER)

  0012a	8a 44 24 74	 mov	 al, BYTE PTR _windowInfo$[esp+4348]
  0012e	a8 01		 test	 al, 1
  00130	74 0b		 je	 SHORT $LN5@Accommodat

; 600  : 			alignPosDiff = horizSubOffset / 2;

  00132	8b 44 24 18	 mov	 eax, DWORD PTR _horizSubOffset$[esp+4312]
  00136	99		 cdq
  00137	2b c2		 sub	 eax, edx
  00139	d1 f8		 sar	 eax, 1
  0013b	eb 08		 jmp	 SHORT $LN15@Accommodat
$LN5@Accommodat:

; 601  : 		else if (windowInfo.dwStyle & SS_RIGHT)

  0013d	a8 02		 test	 al, 2
  0013f	74 53		 je	 SHORT $LN14@Accommodat

; 602  : 			alignPosDiff = horizSubOffset;

  00141	8b 44 24 18	 mov	 eax, DWORD PTR _horizSubOffset$[esp+4312]
$LN15@Accommodat:
  00145	89 44 24 10	 mov	 DWORD PTR _alignPosDiff$[esp+4312], eax

; 603  : 		
; 604  : 		// Resize/move
; 605  : 		if (alignPosDiff > 0)

  00149	85 c0		 test	 eax, eax
  0014b	7e 47		 jle	 SHORT $LN14@Accommodat

; 606  : 		{
; 607  : 			// Resize and move the text field
; 608  : 			MoveWindow (hwndCtrl,
; 609  : 				rec.left - wrec.left - (bBorderlessWindow ? 0 : GetSystemMetrics(SM_CXFIXEDFRAME)) + alignPosDiff,
; 610  : 				rec.top - wrec.top - vertOffset,
; 611  : 				origWidth - horizSubOffset,
; 612  : 				origHeight - vertSubOffset,
; 613  : 				TRUE);

  0014d	85 f6		 test	 esi, esi
  0014f	74 04		 je	 SHORT $LN12@Accommodat
  00151	33 d2		 xor	 edx, edx
  00153	eb 0e		 jmp	 SHORT $LN13@Accommodat
$LN12@Accommodat:
  00155	6a 07		 push	 7
  00157	ff 15 00 00 00
	00		 call	 DWORD PTR __imp__GetSystemMetrics@4
  0015d	8b d0		 mov	 edx, eax
  0015f	8b 44 24 10	 mov	 eax, DWORD PTR _alignPosDiff$[esp+4312]
$LN13@Accommodat:
  00163	8b 4c 24 1c	 mov	 ecx, DWORD PTR _origHeight$[esp+4312]
  00167	2b 4c 24 14	 sub	 ecx, DWORD PTR _vertSubOffset$[esp+4312]
  0016b	2b 6c 24 18	 sub	 ebp, DWORD PTR _horizSubOffset$[esp+4312]
  0016f	6a 01		 push	 1
  00171	51		 push	 ecx
  00172	8b 4c 24 2c	 mov	 ecx, DWORD PTR _rec$[esp+4324]
  00176	2b 4c 24 3c	 sub	 ecx, DWORD PTR _wrec$[esp+4324]
  0017a	55		 push	 ebp
  0017b	2b cb		 sub	 ecx, ebx
  0017d	51		 push	 ecx
  0017e	8b 4c 24 30	 mov	 ecx, DWORD PTR _rec$[esp+4328]
  00182	2b ca		 sub	 ecx, edx
  00184	2b 4c 24 40	 sub	 ecx, DWORD PTR _wrec$[esp+4328]
  00188	03 c8		 add	 ecx, eax
  0018a	51		 push	 ecx
  0018b	57		 push	 edi
  0018c	ff 15 00 00 00
	00		 call	 DWORD PTR __imp__MoveWindow@24

; 614  : 		}
; 615  : 		else

  00192	eb 1d		 jmp	 SHORT $LN1@Accommodat
$LN14@Accommodat:

; 616  : 		{
; 617  : 			// Resize the text field
; 618  : 			SetWindowPos (hwndCtrl, 0, 0, 0,
; 619  : 				origWidth - horizSubOffset,
; 620  : 				origHeight - vertSubOffset,
; 621  : 				SWP_NOMOVE | SWP_NOZORDER);

  00194	8b 44 24 1c	 mov	 eax, DWORD PTR _origHeight$[esp+4312]
  00198	2b 44 24 14	 sub	 eax, DWORD PTR _vertSubOffset$[esp+4312]
  0019c	2b 6c 24 18	 sub	 ebp, DWORD PTR _horizSubOffset$[esp+4312]
  001a0	6a 06		 push	 6
  001a2	50		 push	 eax
  001a3	55		 push	 ebp
  001a4	6a 00		 push	 0
  001a6	6a 00		 push	 0
  001a8	6a 00		 push	 0
  001aa	57		 push	 edi
  001ab	ff 15 00 00 00
	00		 call	 DWORD PTR __imp__SetWindowPos@28
$LN1@Accommodat:

; 622  : 		}
; 623  : 
; 624  : 		SetWindowPos (hwndCtrl, HWND_BOTTOM, 0, 0, 0, 0, SWP_NOMOVE | SWP_NOSIZE);

  001b1	6a 03		 push	 3
  001b3	6a 00		 push	 0
  001b5	6a 00		 push	 0
  001b7	6a 00		 push	 0
  001b9	6a 00		 push	 0
  001bb	6a 01		 push	 1
  001bd	57		 push	 edi
  001be	ff 15 00 00 00
	00		 call	 DWORD PTR __imp__SetWindowPos@28

; 625  : 
; 626  : 		InvalidateRect (hwndCtrl, NULL, TRUE);

  001c4	6a 01		 push	 1
  001c6	6a 00		 push	 0
  001c8	57		 push	 edi
  001c9	ff 15 00 00 00
	00		 call	 DWORD PTR __imp__InvalidateRect@12
$LN7@Accommodat:

; 627  : 	}
; 628  : }

  001cf	8b 8c 24 d4 10
	00 00		 mov	 ecx, DWORD PTR __$ArrayPad$[esp+4312]
  001d6	5f		 pop	 edi
  001d7	5e		 pop	 esi
  001d8	5d		 pop	 ebp
  001d9	5b		 pop	 ebx
  001da	33 cc		 xor	 ecx, esp
  001dc	e8 00 00 00 00	 call	 @__security_check_cookie@4
  001e1	81 c4 c8 10 00
	00		 add	 esp, 4296		; 000010c8H
  001e7	c3		 ret	 0
_AccommodateTextField ENDP
; Function compile flags: /Ogtpy
_TEXT	ENDS
;	COMDAT ?BootPwdFieldProc@@YGJPAUHWND__@@IIJ@Z
_TEXT	SEGMENT
_hwnd$ = 8						; size = 4
_message$ = 12						; size = 4
_wParam$ = 16						; size = 4
_lParam$ = 20						; size = 4
?BootPwdFieldProc@@YGJPAUHWND__@@IIJ@Z PROC		; BootPwdFieldProc, COMDAT

; 633  : {

  00000	56		 push	 esi

; 634  : 	WNDPROC wp = (WNDPROC) GetWindowLongPtr (hwnd, GWLP_USERDATA);

  00001	8b 74 24 08	 mov	 esi, DWORD PTR _hwnd$[esp]
  00005	6a eb		 push	 -21			; ffffffebH
  00007	56		 push	 esi
  00008	ff 15 00 00 00
	00		 call	 DWORD PTR __imp__GetWindowLongA@8

; 635  : 
; 636  : 	switch (message)

  0000e	8b 4c 24 0c	 mov	 ecx, DWORD PTR _message$[esp]
  00012	81 f9 02 03 00
	00		 cmp	 ecx, 770		; 00000302H
  00018	74 17		 je	 SHORT $LN1@BootPwdFie

; 640  : 	}
; 641  : 
; 642  : 	return CallWindowProc (wp, hwnd, message, wParam, lParam);

  0001a	8b 54 24 14	 mov	 edx, DWORD PTR _lParam$[esp]
  0001e	52		 push	 edx
  0001f	8b 54 24 14	 mov	 edx, DWORD PTR _wParam$[esp+4]
  00023	52		 push	 edx
  00024	51		 push	 ecx
  00025	56		 push	 esi
  00026	50		 push	 eax
  00027	ff 15 00 00 00
	00		 call	 DWORD PTR __imp__CallWindowProcA@20
  0002d	5e		 pop	 esi

; 643  : }

  0002e	c2 10 00	 ret	 16			; 00000010H
$LN1@BootPwdFie:

; 637  : 	{
; 638  : 	case WM_PASTE:
; 639  : 		return 1;

  00031	b8 01 00 00 00	 mov	 eax, 1
  00036	5e		 pop	 esi

; 643  : }

  00037	c2 10 00	 ret	 16			; 00000010H
?BootPwdFieldProc@@YGJPAUHWND__@@IIJ@Z ENDP		; BootPwdFieldProc
_TEXT	ENDS
PUBLIC	_ToBootPwdField
EXTRN	__imp__SetWindowLongA@12:PROC
; Function compile flags: /Ogtpy
;	COMDAT _ToBootPwdField
_TEXT	SEGMENT
_hwndDlg$ = 8						; size = 4
_ctrlId$ = 12						; size = 4
_ToBootPwdField PROC					; COMDAT

; 651  : 	HWND hwndCtrl = GetDlgItem (hwndDlg, ctrlId);

  00000	8b 44 24 08	 mov	 eax, DWORD PTR _ctrlId$[esp-4]
  00004	8b 4c 24 04	 mov	 ecx, DWORD PTR _hwndDlg$[esp-4]
  00008	56		 push	 esi
  00009	57		 push	 edi
  0000a	50		 push	 eax
  0000b	51		 push	 ecx
  0000c	ff 15 00 00 00
	00		 call	 DWORD PTR __imp__GetDlgItem@8
  00012	8b f0		 mov	 esi, eax

; 652  : 
; 653  : 	SetWindowLongPtr (hwndCtrl, GWLP_USERDATA, (LONG_PTR) GetWindowLongPtr (hwndCtrl, GWLP_WNDPROC));

  00014	6a fc		 push	 -4			; fffffffcH
  00016	56		 push	 esi
  00017	ff 15 00 00 00
	00		 call	 DWORD PTR __imp__GetWindowLongA@8
  0001d	8b 3d 00 00 00
	00		 mov	 edi, DWORD PTR __imp__SetWindowLongA@12
  00023	50		 push	 eax
  00024	6a eb		 push	 -21			; ffffffebH
  00026	56		 push	 esi
  00027	ff d7		 call	 edi

; 654  : 	SetWindowLongPtr (hwndCtrl, GWLP_WNDPROC, (LONG_PTR) BootPwdFieldProc);

  00029	68 00 00 00 00	 push	 OFFSET ?BootPwdFieldProc@@YGJPAUHWND__@@IIJ@Z ; BootPwdFieldProc
  0002e	6a fc		 push	 -4			; fffffffcH
  00030	56		 push	 esi
  00031	ff d7		 call	 edi
  00033	5f		 pop	 edi
  00034	5e		 pop	 esi

; 655  : }

  00035	c3		 ret	 0
_ToBootPwdField ENDP
_TEXT	ENDS
PUBLIC	__real@407ca00000000000
PUBLIC	__real@407a700000000000
PUBLIC	__real@3ff0000000000000
PUBLIC	?AuxiliaryDlgProc@@YGHPAUHWND__@@IIJ@Z		; AuxiliaryDlgProc
EXTRN	__imp__EndDialog@8:PROC
EXTRN	__imp__GetDeviceCaps@8:PROC
;	COMDAT __real@407ca00000000000
CONST	SEGMENT
__real@407ca00000000000 DQ 0407ca00000000000r	; 458
CONST	ENDS
;	COMDAT __real@407a700000000000
CONST	SEGMENT
__real@407a700000000000 DQ 0407a700000000000r	; 423
CONST	ENDS
;	COMDAT __real@3ff0000000000000
CONST	SEGMENT
__real@3ff0000000000000 DQ 03ff0000000000000r	; 1
; Function compile flags: /Ogtpy
CONST	ENDS
;	COMDAT ?AuxiliaryDlgProc@@YGHPAUHWND__@@IIJ@Z
_TEXT	SEGMENT
_trec$138168 = -16					; size = 16
_hwndDlg$ = 8						; size = 4
_msg$ = 12						; size = 4
_wParam$ = 16						; size = 4
_lParam$ = 20						; size = 4
?AuxiliaryDlgProc@@YGHPAUHWND__@@IIJ@Z PROC		; AuxiliaryDlgProc, COMDAT

; 665  : 	switch (msg)

  00000	8b 44 24 08	 mov	 eax, DWORD PTR _msg$[esp-4]
  00004	83 ec 10	 sub	 esp, 16			; 00000010H
  00007	83 f8 10	 cmp	 eax, 16			; 00000010H
  0000a	0f 84 bc 00 00
	00		 je	 $LN1@AuxiliaryD
  00010	3d 10 01 00 00	 cmp	 eax, 272		; 00000110H
  00015	74 08		 je	 SHORT $LN4@AuxiliaryD

; 708  : 	}
; 709  : 
; 710  : 	return 0;

  00017	33 c0		 xor	 eax, eax

; 711  : }

  00019	83 c4 10	 add	 esp, 16			; 00000010H
  0001c	c2 10 00	 ret	 16			; 00000010H
$LN4@AuxiliaryD:
  0001f	56		 push	 esi

; 666  : 	{
; 667  : 	case WM_INITDIALOG:
; 668  : 		{
; 669  : 			HDC hDC = GetDC (hwndDlg);

  00020	8b 74 24 18	 mov	 esi, DWORD PTR _hwndDlg$[esp+16]
  00024	57		 push	 edi
  00025	56		 push	 esi
  00026	ff 15 00 00 00
	00		 call	 DWORD PTR __imp__GetDC@4
  0002c	8b f8		 mov	 edi, eax

; 670  : 
; 671  : 			ScreenDPI = GetDeviceCaps (hDC, LOGPIXELSY);

  0002e	6a 5a		 push	 90			; 0000005aH
  00030	57		 push	 edi
  00031	ff 15 00 00 00
	00		 call	 DWORD PTR __imp__GetDeviceCaps@8

; 672  : 			ReleaseDC (hwndDlg, hDC); 

  00037	57		 push	 edi
  00038	56		 push	 esi
  00039	a3 00 00 00 00	 mov	 DWORD PTR _ScreenDPI, eax
  0003e	ff 15 00 00 00
	00		 call	 DWORD PTR __imp__ReleaseDC@8

; 673  : 
; 674  : 			DPIScaleFactorX = 1;

  00044	d9 e8		 fld1
  00046	dd 15 00 00 00
	00		 fst	 QWORD PTR ?DPIScaleFactorX@@3NA ; DPIScaleFactorX

; 675  : 			DPIScaleFactorY = 1;
; 676  : 			DlgAspectRatio = 1;
; 677  : 
; 678  : 			if (ScreenDPI != USER_DEFAULT_SCREEN_DPI)

  0004c	33 ff		 xor	 edi, edi
  0004e	83 3d 00 00 00
	00 60		 cmp	 DWORD PTR _ScreenDPI, 96 ; 00000060H
  00055	dd 15 00 00 00
	00		 fst	 QWORD PTR ?DPIScaleFactorY@@3NA ; DPIScaleFactorY
  0005b	dd 1d 00 00 00
	00		 fstp	 QWORD PTR _DlgAspectRatio
  00061	74 54		 je	 SHORT $LN2@AuxiliaryD

; 679  : 			{
; 680  : 				// Windows skews the GUI aspect ratio if the user has a non-default DPI. Hence, working with 
; 681  : 				// actual screen DPI is redundant and leads to incorrect results. What really matters here is
; 682  : 				// how Windows actually renders our GUI. This is determined by comparing the expected and current
; 683  : 				// sizes of a hidden calibration text field.
; 684  : 
; 685  : 				RECT trec;
; 686  : 
; 687  : 				trec.right = 0;
; 688  : 				trec.bottom = 0;
; 689  : 
; 690  : 				GetClientRect (GetDlgItem (hwndDlg, IDC_ASPECT_RATIO_CALIBRATION_BOX), &trec);

  00063	8d 44 24 08	 lea	 eax, DWORD PTR _trec$138168[esp+24]
  00067	50		 push	 eax
  00068	68 ec 13 00 00	 push	 5100			; 000013ecH
  0006d	56		 push	 esi
  0006e	89 7c 24 1c	 mov	 DWORD PTR _trec$138168[esp+44], edi
  00072	89 7c 24 20	 mov	 DWORD PTR _trec$138168[esp+48], edi
  00076	ff 15 00 00 00
	00		 call	 DWORD PTR __imp__GetDlgItem@8
  0007c	50		 push	 eax
  0007d	ff 15 00 00 00
	00		 call	 DWORD PTR __imp__GetClientRect@8

; 691  : 
; 692  : 				if (trec.right != 0 && trec.bottom != 0)

  00083	39 7c 24 10	 cmp	 DWORD PTR _trec$138168[esp+32], edi
  00087	74 2e		 je	 SHORT $LN2@AuxiliaryD
  00089	39 7c 24 14	 cmp	 DWORD PTR _trec$138168[esp+36], edi
  0008d	74 28		 je	 SHORT $LN2@AuxiliaryD

; 693  : 				{
; 694  : 					// The size of the 282x282 IDC_ASPECT_RATIO_CALIBRATION_BOX rendered at the default DPI (96) is 423x458
; 695  : 					DPIScaleFactorX = (double) trec.right / 423;

  0008f	db 44 24 10	 fild	 DWORD PTR _trec$138168[esp+32]
  00093	dc 35 00 00 00
	00		 fdiv	 QWORD PTR __real@407a700000000000
  00099	dd 15 00 00 00
	00		 fst	 QWORD PTR ?DPIScaleFactorX@@3NA ; DPIScaleFactorX

; 696  : 					DPIScaleFactorY = (double) trec.bottom / 458;

  0009f	db 44 24 14	 fild	 DWORD PTR _trec$138168[esp+36]
  000a3	dc 35 00 00 00
	00		 fdiv	 QWORD PTR __real@407ca00000000000
  000a9	dd 15 00 00 00
	00		 fst	 QWORD PTR ?DPIScaleFactorY@@3NA ; DPIScaleFactorY

; 697  : 					DlgAspectRatio = DPIScaleFactorX / DPIScaleFactorY;

  000af	de f9		 fdivp	 ST(1), ST(0)
  000b1	dd 1d 00 00 00
	00		 fstp	 QWORD PTR _DlgAspectRatio
$LN2@AuxiliaryD:

; 698  : 				}
; 699  : 			}
; 700  : 
; 701  : 			EndDialog (hwndDlg, 0);

  000b7	57		 push	 edi
  000b8	56		 push	 esi
  000b9	ff 15 00 00 00
	00		 call	 DWORD PTR __imp__EndDialog@8
  000bf	5f		 pop	 edi
  000c0	5e		 pop	 esi

; 707  : 		return 1;

  000c1	b8 01 00 00 00	 mov	 eax, 1

; 711  : }

  000c6	83 c4 10	 add	 esp, 16			; 00000010H
  000c9	c2 10 00	 ret	 16			; 00000010H
$LN1@AuxiliaryD:

; 702  : 			return 1;
; 703  : 		}
; 704  : 
; 705  : 	case WM_CLOSE:
; 706  : 		EndDialog (hwndDlg, 0);

  000cc	8b 4c 24 14	 mov	 ecx, DWORD PTR _hwndDlg$[esp+12]
  000d0	6a 00		 push	 0
  000d2	51		 push	 ecx
  000d3	ff 15 00 00 00
	00		 call	 DWORD PTR __imp__EndDialog@8

; 707  : 		return 1;

  000d9	b8 01 00 00 00	 mov	 eax, 1

; 711  : }

  000de	83 c4 10	 add	 esp, 16			; 00000010H
  000e1	c2 10 00	 ret	 16			; 00000010H
?AuxiliaryDlgProc@@YGHPAUHWND__@@IIJ@Z ENDP		; AuxiliaryDlgProc
_TEXT	ENDS
PUBLIC	_CloseStaticModelessWaitDlg
EXTRN	__imp__DestroyWindow@4:PROC
; Function compile flags: /Ogtpy
;	COMDAT _CloseStaticModelessWaitDlg
_TEXT	SEGMENT
_CloseStaticModelessWaitDlg PROC			; COMDAT

; 877  : 	if (StaticModelessWaitDlgHandle == NULL)

  00000	a1 00 00 00 00	 mov	 eax, DWORD PTR _StaticModelessWaitDlgHandle
  00005	85 c0		 test	 eax, eax
  00007	74 07		 je	 SHORT $LN2@CloseStati

; 878  : 		return;	// Not shown
; 879  : 
; 880  : 	DestroyWindow (StaticModelessWaitDlgHandle);

  00009	50		 push	 eax
  0000a	ff 15 00 00 00
	00		 call	 DWORD PTR __imp__DestroyWindow@4
$LN2@CloseStati:

; 881  : }

  00010	c3		 ret	 0
_CloseStaticModelessWaitDlg ENDP
_TEXT	ENDS
PUBLIC	_IsButtonChecked
EXTRN	__imp__SendMessageA@16:PROC
; Function compile flags: /Ogtpy
;	COMDAT _IsButtonChecked
_TEXT	SEGMENT
_hButton$ = 8						; size = 4
_IsButtonChecked PROC					; COMDAT

; 886  : 	if (SendMessage (hButton, BM_GETCHECK, 0, 0) == BST_CHECKED)

  00000	8b 44 24 04	 mov	 eax, DWORD PTR _hButton$[esp-4]
  00004	6a 00		 push	 0
  00006	6a 00		 push	 0
  00008	68 f0 00 00 00	 push	 240			; 000000f0H
  0000d	50		 push	 eax
  0000e	ff 15 00 00 00
	00		 call	 DWORD PTR __imp__SendMessageA@16
  00014	48		 dec	 eax
  00015	f7 d8		 neg	 eax
  00017	1b c0		 sbb	 eax, eax
  00019	40		 inc	 eax

; 887  : 		return TRUE;
; 888  : 	else
; 889  : 		return FALSE;
; 890  : }

  0001a	c3		 ret	 0
_IsButtonChecked ENDP
_TEXT	ENDS
PUBLIC	_CheckButton
; Function compile flags: /Ogtpy
;	COMDAT _CheckButton
_TEXT	SEGMENT
_hButton$ = 8						; size = 4
_CheckButton PROC					; COMDAT

; 895  : 	SendMessage (hButton, BM_SETCHECK, BST_CHECKED, 0);

  00000	8b 44 24 04	 mov	 eax, DWORD PTR _hButton$[esp-4]
  00004	6a 00		 push	 0
  00006	6a 01		 push	 1
  00008	68 f1 00 00 00	 push	 241			; 000000f1H
  0000d	50		 push	 eax
  0000e	ff 15 00 00 00
	00		 call	 DWORD PTR __imp__SendMessageA@16

; 896  : }

  00014	c3		 ret	 0
_CheckButton ENDP
_TEXT	ENDS
PUBLIC	??_C@_08KAINEBEN@ABOUTBOX?$AA@			; `string'
PUBLIC	??_C@_1BO@CJPKCNHF@?$AAL?$AAu?$AAc?$AAi?$AAd?$AAa?$AA?5?$AAC?$AAo?$AAn?$AAs?$AAo?$AAl?$AAe?$AA?$AA@ ; `string'
PUBLIC	??_C@_0L@MOFKMHPH@font_fixed?$AA@		; `string'
PUBLIC	??_C@_1CA@MBPOLHGL@?$AAT?$AAi?$AAm?$AAe?$AAs?$AA?5?$AAN?$AAe?$AAw?$AA?5?$AAR?$AAo?$AAm?$AAa?$AAn?$AA?$AA@ ; `string'
PUBLIC	??_C@_0L@NMFINBBB@font_title?$AA@		; `string'
PUBLIC	??_C@_1M@KAKMLIHO@?$AAA?$AAr?$AAi?$AAa?$AAl?$AA?$AA@ ; `string'
PUBLIC	??_C@_09KDCDAOMH@font_bold?$AA@			; `string'
PUBLIC	??_C@_06DILOELAE@NOFONT?$AA@			; `string'
PUBLIC	??_C@_1BI@GNONBDFP@?$AAC?$AAo?$AAu?$AAr?$AAi?$AAe?$AAr?$AA?5?$AAN?$AAe?$AAw?$AA?$AA@ ; `string'
PUBLIC	__real@c028000000000000
PUBLIC	??_C@_1O@FPBPJIKI@?$AAT?$AAa?$AAh?$AAo?$AAm?$AAa?$AA?$AA@ ; `string'
PUBLIC	??_C@_1BA@HANLFFFG@?$AAd?$AAe?$AAf?$AAa?$AAu?$AAl?$AAt?$AA?$AA@ ; `string'
PUBLIC	??_C@_0M@IGCGEGAM@font_normal?$AA@		; `string'
PUBLIC	_hwndDlg$GSCopy$
PUBLIC	__$ArrayPad$
PUBLIC	_InitDialog
EXTRN	__imp__AppendMenuW@16:PROC
EXTRN	__imp__AppendMenuA@16:PROC
EXTRN	__imp__GetSystemMenu@8:PROC
EXTRN	_handleWin32Error:PROC
EXTRN	_wcsncpy:PROC
EXTRN	_IsOSAtLeast:PROC
EXTRN	__imp__CreateFontIndirectW@4:PROC
EXTRN	__imp__SystemParametersInfoW@16:PROC
EXTRN	_GetFont:PROC
;	COMDAT ?aboutMenuAppended@?1??InitDialog@@9@4HA
_BSS	SEGMENT
?aboutMenuAppended@?1??InitDialog@@9@4HA DD 01H DUP (?)	; `InitDialog'::`2'::aboutMenuAppended
_BSS	ENDS
;	COMDAT ??_C@_08KAINEBEN@ABOUTBOX?$AA@
CONST	SEGMENT
??_C@_08KAINEBEN@ABOUTBOX?$AA@ DB 'ABOUTBOX', 00H	; `string'
CONST	ENDS
;	COMDAT ??_C@_1BO@CJPKCNHF@?$AAL?$AAu?$AAc?$AAi?$AAd?$AAa?$AA?5?$AAC?$AAo?$AAn?$AAs?$AAo?$AAl?$AAe?$AA?$AA@
CONST	SEGMENT
??_C@_1BO@CJPKCNHF@?$AAL?$AAu?$AAc?$AAi?$AAd?$AAa?$AA?5?$AAC?$AAo?$AAn?$AAs?$AAo?$AAl?$AAe?$AA?$AA@ DB 'L'
	DB	00H, 'u', 00H, 'c', 00H, 'i', 00H, 'd', 00H, 'a', 00H, ' ', 00H
	DB	'C', 00H, 'o', 00H, 'n', 00H, 's', 00H, 'o', 00H, 'l', 00H, 'e'
	DB	00H, 00H, 00H				; `string'
CONST	ENDS
;	COMDAT ??_C@_0L@MOFKMHPH@font_fixed?$AA@
CONST	SEGMENT
??_C@_0L@MOFKMHPH@font_fixed?$AA@ DB 'font_fixed', 00H	; `string'
CONST	ENDS
;	COMDAT ??_C@_1CA@MBPOLHGL@?$AAT?$AAi?$AAm?$AAe?$AAs?$AA?5?$AAN?$AAe?$AAw?$AA?5?$AAR?$AAo?$AAm?$AAa?$AAn?$AA?$AA@
CONST	SEGMENT
??_C@_1CA@MBPOLHGL@?$AAT?$AAi?$AAm?$AAe?$AAs?$AA?5?$AAN?$AAe?$AAw?$AA?5?$AAR?$AAo?$AAm?$AAa?$AAn?$AA?$AA@ DB 'T'
	DB	00H, 'i', 00H, 'm', 00H, 'e', 00H, 's', 00H, ' ', 00H, 'N', 00H
	DB	'e', 00H, 'w', 00H, ' ', 00H, 'R', 00H, 'o', 00H, 'm', 00H, 'a'
	DB	00H, 'n', 00H, 00H, 00H			; `string'
CONST	ENDS
;	COMDAT ??_C@_0L@NMFINBBB@font_title?$AA@
CONST	SEGMENT
??_C@_0L@NMFINBBB@font_title?$AA@ DB 'font_title', 00H	; `string'
CONST	ENDS
;	COMDAT ??_C@_1M@KAKMLIHO@?$AAA?$AAr?$AAi?$AAa?$AAl?$AA?$AA@
CONST	SEGMENT
??_C@_1M@KAKMLIHO@?$AAA?$AAr?$AAi?$AAa?$AAl?$AA?$AA@ DB 'A', 00H, 'r', 00H
	DB	'i', 00H, 'a', 00H, 'l', 00H, 00H, 00H	; `string'
CONST	ENDS
;	COMDAT ??_C@_09KDCDAOMH@font_bold?$AA@
CONST	SEGMENT
??_C@_09KDCDAOMH@font_bold?$AA@ DB 'font_bold', 00H	; `string'
CONST	ENDS
;	COMDAT ??_C@_06DILOELAE@NOFONT?$AA@
CONST	SEGMENT
??_C@_06DILOELAE@NOFONT?$AA@ DB 'NOFONT', 00H		; `string'
CONST	ENDS
;	COMDAT ??_C@_1BI@GNONBDFP@?$AAC?$AAo?$AAu?$AAr?$AAi?$AAe?$AAr?$AA?5?$AAN?$AAe?$AAw?$AA?$AA@
CONST	SEGMENT
??_C@_1BI@GNONBDFP@?$AAC?$AAo?$AAu?$AAr?$AAi?$AAe?$AAr?$AA?5?$AAN?$AAe?$AAw?$AA?$AA@ DB 'C'
	DB	00H, 'o', 00H, 'u', 00H, 'r', 00H, 'i', 00H, 'e', 00H, 'r', 00H
	DB	' ', 00H, 'N', 00H, 'e', 00H, 'w', 00H, 00H, 00H ; `string'
CONST	ENDS
;	COMDAT __real@c028000000000000
CONST	SEGMENT
__real@c028000000000000 DQ 0c028000000000000r	; -12
CONST	ENDS
;	COMDAT ??_C@_1O@FPBPJIKI@?$AAT?$AAa?$AAh?$AAo?$AAm?$AAa?$AA?$AA@
CONST	SEGMENT
??_C@_1O@FPBPJIKI@?$AAT?$AAa?$AAh?$AAo?$AAm?$AAa?$AA?$AA@ DB 'T', 00H, 'a'
	DB	00H, 'h', 00H, 'o', 00H, 'm', 00H, 'a', 00H, 00H, 00H ; `string'
CONST	ENDS
;	COMDAT ??_C@_1BA@HANLFFFG@?$AAd?$AAe?$AAf?$AAa?$AAu?$AAl?$AAt?$AA?$AA@
CONST	SEGMENT
??_C@_1BA@HANLFFFG@?$AAd?$AAe?$AAf?$AAa?$AAu?$AAl?$AAt?$AA?$AA@ DB 'd', 00H
	DB	'e', 00H, 'f', 00H, 'a', 00H, 'u', 00H, 'l', 00H, 't', 00H, 00H
	DB	00H						; `string'
CONST	ENDS
;	COMDAT ??_C@_0M@IGCGEGAM@font_normal?$AA@
CONST	SEGMENT
??_C@_0M@IGCGEGAM@font_normal?$AA@ DB 'font_normal', 00H ; `string'
; Function compile flags: /Ogtpy
CONST	ENDS
;	COMDAT _InitDialog
_TEXT	SEGMENT
_hwndDlg$GSCopy$ = -600					; size = 4
_lf$ = -596						; size = 92
_metric$ = -504						; size = 500
__$ArrayPad$ = -4					; size = 4
_hwndDlg$ = 8						; size = 4
_InitDialog PROC					; COMDAT

; 904  : {

  00000	81 ec 58 02 00
	00		 sub	 esp, 600		; 00000258H
  00006	a1 00 00 00 00	 mov	 eax, DWORD PTR ___security_cookie
  0000b	33 c4		 xor	 eax, esp
  0000d	89 84 24 54 02
	00 00		 mov	 DWORD PTR __$ArrayPad$[esp+600], eax
  00014	8b 84 24 5c 02
	00 00		 mov	 eax, DWORD PTR _hwndDlg$[esp+596]
  0001b	53		 push	 ebx
  0001c	56		 push	 esi
  0001d	57		 push	 edi

; 905  : 	NONCLIENTMETRICSW metric;
; 906  : 	static BOOL aboutMenuAppended = FALSE;
; 907  : 
; 908  : 	int nHeight;
; 909  : 	LOGFONTW lf;
; 910  : 	HMENU hMenu;
; 911  : 	Font *font;
; 912  : 
; 913  : 	/* Fonts */
; 914  : 
; 915  : 	memset (&lf, 0, sizeof(lf));

  0001e	6a 5c		 push	 92			; 0000005cH
  00020	33 db		 xor	 ebx, ebx
  00022	8d 4c 24 14	 lea	 ecx, DWORD PTR _lf$[esp+616]
  00026	53		 push	 ebx
  00027	51		 push	 ecx

; 1005 : 
; 1006 : 	nHeight = CompensateDPIFont (!font ? -12 : -font->Size);

  00028	89 44 24 18	 mov	 DWORD PTR _hwndDlg$GSCopy$[esp+624], eax
  0002c	e8 00 00 00 00	 call	 _memset
  00031	68 00 00 00 00	 push	 OFFSET ??_C@_0M@IGCGEGAM@font_normal?$AA@
  00036	e8 00 00 00 00	 call	 _GetFont
  0003b	83 c4 10	 add	 esp, 16			; 00000010H
  0003e	53		 push	 ebx
  0003f	8d 54 24 70	 lea	 edx, DWORD PTR _metric$[esp+616]
  00043	52		 push	 edx
  00044	68 f4 01 00 00	 push	 500			; 000001f4H
  00049	6a 29		 push	 41			; 00000029H
  0004b	8b f0		 mov	 esi, eax
  0004d	c7 44 24 7c f4
	01 00 00	 mov	 DWORD PTR _metric$[esp+628], 500 ; 000001f4H
  00055	ff 15 00 00 00
	00		 call	 DWORD PTR __imp__SystemParametersInfoW@16
  0005b	8b 3d 00 00 00
	00		 mov	 edi, DWORD PTR __imp__CreateFontIndirectW@4
  00061	8d 84 24 84 00
	00 00		 lea	 eax, DWORD PTR _metric$[esp+636]
  00068	50		 push	 eax
  00069	ff d7		 call	 edi
  0006b	a3 00 00 00 00	 mov	 DWORD PTR _WindowTitleBarFont, eax
  00070	3b f3		 cmp	 esi, ebx
  00072	75 05		 jne	 SHORT $LN11@InitDialog

; 916  : 
; 917  : 	// Normal
; 918  : 	font = GetFont ("font_normal");
; 919  : 
; 920  : 	metric.cbSize = sizeof (metric);
; 921  : 	SystemParametersInfoW (SPI_GETNONCLIENTMETRICS, sizeof(metric), &metric, 0);
; 922  : 
; 923  : 	WindowTitleBarFont = CreateFontIndirectW (&metric.lfCaptionFont);
; 924  : 
; 925  : 	metric.lfMessageFont.lfHeight = CompensateDPIFont (!font ? -11 : -font->Size);

  00074	8d 43 f5	 lea	 eax, DWORD PTR [ebx-11]
  00077	eb 05		 jmp	 SHORT $LN12@InitDialog
$LN11@InitDialog:
  00079	8b 46 04	 mov	 eax, DWORD PTR [esi+4]
  0007c	f7 d8		 neg	 eax
$LN12@InitDialog:
  0007e	50		 push	 eax
  0007f	e8 00 00 00 00	 call	 _CompensateDPIFont
  00084	83 c4 04	 add	 esp, 4
  00087	89 84 24 04 02
	00 00		 mov	 DWORD PTR _metric$[esp+1020], eax

; 926  : 	metric.lfMessageFont.lfWidth = 0;

  0008e	89 9c 24 08 02
	00 00		 mov	 DWORD PTR _metric$[esp+1024], ebx

; 927  : 
; 928  : 	if (font && wcscmp (font->FaceName, L"default") != 0)

  00095	3b f3		 cmp	 esi, ebx
  00097	74 45		 je	 SHORT $LN8@InitDialog
  00099	8b 36		 mov	 esi, DWORD PTR [esi]
  0009b	b9 00 00 00 00	 mov	 ecx, OFFSET ??_C@_1BA@HANLFFFG@?$AAd?$AAe?$AAf?$AAa?$AAu?$AAl?$AAt?$AA?$AA@
  000a0	8b c6		 mov	 eax, esi
$LL33@InitDialog:
  000a2	66 8b 10	 mov	 dx, WORD PTR [eax]
  000a5	66 3b 11	 cmp	 dx, WORD PTR [ecx]
  000a8	75 1e		 jne	 SHORT $LN34@InitDialog
  000aa	66 3b d3	 cmp	 dx, bx
  000ad	74 15		 je	 SHORT $LN35@InitDialog
  000af	66 8b 50 02	 mov	 dx, WORD PTR [eax+2]
  000b3	66 3b 51 02	 cmp	 dx, WORD PTR [ecx+2]
  000b7	75 0f		 jne	 SHORT $LN34@InitDialog
  000b9	83 c0 04	 add	 eax, 4
  000bc	83 c1 04	 add	 ecx, 4
  000bf	66 3b d3	 cmp	 dx, bx
  000c2	75 de		 jne	 SHORT $LL33@InitDialog
$LN35@InitDialog:
  000c4	33 c0		 xor	 eax, eax
  000c6	eb 05		 jmp	 SHORT $LN36@InitDialog
$LN34@InitDialog:
  000c8	1b c0		 sbb	 eax, eax
  000ca	83 d8 ff	 sbb	 eax, -1
$LN36@InitDialog:
  000cd	3b c3		 cmp	 eax, ebx
  000cf	74 0d		 je	 SHORT $LN8@InitDialog

; 929  : 	{
; 930  : 		wcsncpy ((WCHAR *)metric.lfMessageFont.lfFaceName, font->FaceName, sizeof (metric.lfMessageFont.lfFaceName)/2);

  000d1	6a 20		 push	 32			; 00000020H
  000d3	56		 push	 esi
  000d4	8d 8c 24 28 02
	00 00		 lea	 ecx, DWORD PTR _metric$[esp+1056]
  000db	51		 push	 ecx
  000dc	eb 1d		 jmp	 SHORT $LN41@InitDialog
$LN8@InitDialog:

; 931  : 	}
; 932  : 	else if (IsOSAtLeast (WIN_VISTA))

  000de	6a 0b		 push	 11			; 0000000bH
  000e0	e8 00 00 00 00	 call	 _IsOSAtLeast
  000e5	83 c4 04	 add	 esp, 4
  000e8	85 c0		 test	 eax, eax
  000ea	74 17		 je	 SHORT $LN6@InitDialog

; 933  : 	{
; 934  : 		// Vista's new default font (size and spacing) breaks compatibility with Windows 2k/XP applications.
; 935  : 		// Force use of Tahoma (as Microsoft does in many dialogs) until a native Vista look is implemented.
; 936  : 		wcsncpy ((WCHAR *)metric.lfMessageFont.lfFaceName, L"Tahoma", sizeof (metric.lfMessageFont.lfFaceName)/2);

  000ec	6a 20		 push	 32			; 00000020H
  000ee	68 00 00 00 00	 push	 OFFSET ??_C@_1O@FPBPJIKI@?$AAT?$AAa?$AAh?$AAo?$AAm?$AAa?$AA?$AA@
  000f3	8d 94 24 28 02
	00 00		 lea	 edx, DWORD PTR _metric$[esp+1056]
  000fa	52		 push	 edx
$LN41@InitDialog:
  000fb	e8 00 00 00 00	 call	 _wcsncpy
  00100	83 c4 0c	 add	 esp, 12			; 0000000cH
$LN6@InitDialog:

; 937  : 	}
; 938  : 
; 939  : 	hUserFont = CreateFontIndirectW (&metric.lfMessageFont);

  00103	8d 84 24 04 02
	00 00		 lea	 eax, DWORD PTR _metric$[esp+1020]
  0010a	50		 push	 eax
  0010b	ff d7		 call	 edi

; 940  : 
; 941  : 	metric.lfMessageFont.lfUnderline = TRUE;
; 942  : 	hUserUnderlineFont = CreateFontIndirectW (&metric.lfMessageFont);

  0010d	8d 8c 24 04 02
	00 00		 lea	 ecx, DWORD PTR _metric$[esp+1020]
  00114	51		 push	 ecx
  00115	a3 00 00 00 00	 mov	 DWORD PTR _hUserFont, eax
  0011a	c6 84 24 1d 02
	00 00 01	 mov	 BYTE PTR _metric$[esp+1045], 1
  00122	ff d7		 call	 edi

; 943  : 
; 944  : 	metric.lfMessageFont.lfUnderline = FALSE;
; 945  : 	metric.lfMessageFont.lfWeight = FW_BOLD;
; 946  : 	hUserBoldFont = CreateFontIndirectW (&metric.lfMessageFont);

  00124	8d 94 24 04 02
	00 00		 lea	 edx, DWORD PTR _metric$[esp+1020]
  0012b	be bc 02 00 00	 mov	 esi, 700		; 000002bcH
  00130	52		 push	 edx
  00131	a3 00 00 00 00	 mov	 DWORD PTR _hUserUnderlineFont, eax
  00136	88 9c 24 1d 02
	00 00		 mov	 BYTE PTR _metric$[esp+1045], bl
  0013d	89 b4 24 18 02
	00 00		 mov	 DWORD PTR _metric$[esp+1040], esi
  00144	ff d7		 call	 edi
  00146	a3 00 00 00 00	 mov	 DWORD PTR _hUserBoldFont, eax

; 947  : 
; 948  : 	metric.lfMessageFont.lfUnderline = TRUE;
; 949  : 	metric.lfMessageFont.lfWeight = FW_BOLD;
; 950  : 	hUserUnderlineBoldFont = CreateFontIndirectW (&metric.lfMessageFont);

  0014b	8d 84 24 04 02
	00 00		 lea	 eax, DWORD PTR _metric$[esp+1020]
  00152	50		 push	 eax
  00153	c6 84 24 1d 02
	00 00 01	 mov	 BYTE PTR _metric$[esp+1045], 1
  0015b	89 b4 24 18 02
	00 00		 mov	 DWORD PTR _metric$[esp+1040], esi
  00162	ff d7		 call	 edi

; 951  : 
; 952  : 	// Fixed-size (hexadecimal digits)
; 953  : 	nHeight = CompensateDPIFont (-12);

  00164	83 3d 00 00 00
	00 60		 cmp	 DWORD PTR _ScreenDPI, 96 ; 00000060H
  0016b	a3 00 00 00 00	 mov	 DWORD PTR ?hUserUnderlineBoldFont@@3PAUHFONT__@@A, eax ; hUserUnderlineBoldFont
  00170	75 07		 jne	 SHORT $LN29@InitDialog
  00172	b8 f4 ff ff ff	 mov	 eax, -12		; fffffff4H
  00177	eb 3d		 jmp	 SHORT $LN26@InitDialog
$LN29@InitDialog:
  00179	dd 05 00 00 00
	00		 fld	 QWORD PTR ?DPIScaleFactorY@@3NA ; DPIScaleFactorY
  0017f	83 ec 08	 sub	 esp, 8
  00182	dc 0d 00 00 00
	00		 fmul	 QWORD PTR __real@c028000000000000
  00188	dc 0d 00 00 00
	00		 fmul	 QWORD PTR _DlgAspectRatio
  0018e	dc 0d 00 00 00
	00		 fmul	 QWORD PTR __real@3feff7ced916872b
  00194	d9 ee		 fldz
  00196	d8 d9		 fcomp	 ST(1)
  00198	df e0		 fnstsw	 ax
  0019a	dd 1c 24	 fstp	 QWORD PTR [esp]
  0019d	f6 c4 05	 test	 ah, 5
  001a0	7a 07		 jp	 SHORT $LN27@InitDialog
  001a2	e8 00 00 00 00	 call	 _floor
  001a7	eb 05		 jmp	 SHORT $LN42@InitDialog
$LN27@InitDialog:
  001a9	e8 00 00 00 00	 call	 _ceil
$LN42@InitDialog:
  001ae	83 c4 08	 add	 esp, 8
  001b1	e8 00 00 00 00	 call	 __ftol2_sse
$LN26@InitDialog:

; 954  : 	lf.lfHeight = nHeight;

  001b6	89 44 24 10	 mov	 DWORD PTR _lf$[esp+612], eax

; 955  : 	lf.lfWidth = 0;

  001ba	89 5c 24 14	 mov	 DWORD PTR _lf$[esp+616], ebx

; 956  : 	lf.lfEscapement = 0;

  001be	89 5c 24 18	 mov	 DWORD PTR _lf$[esp+620], ebx

; 957  : 	lf.lfOrientation = 0;

  001c2	89 5c 24 1c	 mov	 DWORD PTR _lf$[esp+624], ebx

; 958  : 	lf.lfWeight = FW_NORMAL;

  001c6	c7 44 24 20 90
	01 00 00	 mov	 DWORD PTR _lf$[esp+628], 400 ; 00000190H

; 959  : 	lf.lfItalic = FALSE;

  001ce	88 5c 24 24	 mov	 BYTE PTR _lf$[esp+632], bl

; 960  : 	lf.lfUnderline = FALSE;

  001d2	88 5c 24 25	 mov	 BYTE PTR _lf$[esp+633], bl

; 961  : 	lf.lfStrikeOut = FALSE;

  001d6	88 5c 24 26	 mov	 BYTE PTR _lf$[esp+634], bl

; 962  : 	lf.lfCharSet = DEFAULT_CHARSET;

  001da	c6 44 24 27 01	 mov	 BYTE PTR _lf$[esp+635], 1

; 963  : 	lf.lfOutPrecision = OUT_DEFAULT_PRECIS;

  001df	88 5c 24 28	 mov	 BYTE PTR _lf$[esp+636], bl

; 964  : 	lf.lfClipPrecision = CLIP_DEFAULT_PRECIS;

  001e3	88 5c 24 29	 mov	 BYTE PTR _lf$[esp+637], bl

; 965  : 	lf.lfQuality = PROOF_QUALITY;

  001e7	c6 44 24 2a 02	 mov	 BYTE PTR _lf$[esp+638], 2

; 966  : 	lf.lfPitchAndFamily = FF_DONTCARE;

  001ec	88 5c 24 2b	 mov	 BYTE PTR _lf$[esp+639], bl

; 967  : 	wcscpy (lf.lfFaceName, L"Courier New");

  001f0	33 c0		 xor	 eax, eax
  001f2	eb 0c 8d a4 24
	00 00 00 00 eb
	03 8d 49 00	 npad	 14
$LL13@InitDialog:
  00200	0f b7 88 00 00
	00 00		 movzx	 ecx, WORD PTR ??_C@_1BI@GNONBDFP@?$AAC?$AAo?$AAu?$AAr?$AAi?$AAe?$AAr?$AA?5?$AAN?$AAe?$AAw?$AA?$AA@[eax]
  00207	66 89 4c 04 2c	 mov	 WORD PTR _lf$[esp+eax+640], cx
  0020c	83 c0 02	 add	 eax, 2
  0020f	66 3b cb	 cmp	 cx, bx
  00212	75 ec		 jne	 SHORT $LL13@InitDialog

; 968  : 	hFixedDigitFont = CreateFontIndirectW (&lf);

  00214	8d 4c 24 10	 lea	 ecx, DWORD PTR _lf$[esp+612]
  00218	51		 push	 ecx
  00219	ff d7		 call	 edi
  0021b	a3 00 00 00 00	 mov	 DWORD PTR _hFixedDigitFont, eax

; 969  : 	if (hFixedDigitFont == NULL)

  00220	3b c3		 cmp	 eax, ebx
  00222	75 17		 jne	 SHORT $LN5@InitDialog

; 970  : 	{
; 971  : 		handleWin32Error (hwndDlg);

  00224	8b 54 24 0c	 mov	 edx, DWORD PTR _hwndDlg$GSCopy$[esp+612]
  00228	52		 push	 edx
  00229	e8 00 00 00 00	 call	 _handleWin32Error
  0022e	83 c4 04	 add	 esp, 4

; 972  : 		AbortProcess ("NOFONT");

  00231	68 00 00 00 00	 push	 OFFSET ??_C@_06DILOELAE@NOFONT?$AA@
  00236	e8 00 00 00 00	 call	 _AbortProcess
$LN5@InitDialog:

; 973  : 	}
; 974  : 
; 975  : 	// Bold
; 976  : 	font = GetFont ("font_bold");

  0023b	68 00 00 00 00	 push	 OFFSET ??_C@_09KDCDAOMH@font_bold?$AA@
  00240	e8 00 00 00 00	 call	 _GetFont
  00245	8b f0		 mov	 esi, eax
  00247	83 c4 04	 add	 esp, 4

; 977  : 
; 978  : 	nHeight = CompensateDPIFont (!font ? -13 : -font->Size);

  0024a	3b f3		 cmp	 esi, ebx
  0024c	75 07		 jne	 SHORT $LN14@InitDialog
  0024e	b8 f3 ff ff ff	 mov	 eax, -13		; fffffff3H
  00253	eb 05		 jmp	 SHORT $LN15@InitDialog
$LN14@InitDialog:
  00255	8b 46 04	 mov	 eax, DWORD PTR [esi+4]
  00258	f7 d8		 neg	 eax
$LN15@InitDialog:
  0025a	50		 push	 eax
  0025b	e8 00 00 00 00	 call	 _CompensateDPIFont
  00260	83 c4 04	 add	 esp, 4

; 979  : 	lf.lfHeight = nHeight;

  00263	89 44 24 10	 mov	 DWORD PTR _lf$[esp+612], eax

; 980  : 	lf.lfWeight = FW_BLACK;

  00267	c7 44 24 20 84
	03 00 00	 mov	 DWORD PTR _lf$[esp+628], 900 ; 00000384H

; 981  : 	wcsncpy (lf.lfFaceName, !font ? L"Arial" : font->FaceName, sizeof (lf.lfFaceName)/2);

  0026f	3b f3		 cmp	 esi, ebx
  00271	75 07		 jne	 SHORT $LN16@InitDialog
  00273	be 00 00 00 00	 mov	 esi, OFFSET ??_C@_1M@KAKMLIHO@?$AAA?$AAr?$AAi?$AAa?$AAl?$AA?$AA@
  00278	eb 02		 jmp	 SHORT $LN17@InitDialog
$LN16@InitDialog:
  0027a	8b 36		 mov	 esi, DWORD PTR [esi]
$LN17@InitDialog:
  0027c	6a 20		 push	 32			; 00000020H
  0027e	8d 44 24 30	 lea	 eax, DWORD PTR _lf$[esp+644]
  00282	56		 push	 esi
  00283	50		 push	 eax
  00284	e8 00 00 00 00	 call	 _wcsncpy
  00289	83 c4 0c	 add	 esp, 12			; 0000000cH

; 982  : 	hBoldFont = CreateFontIndirectW (&lf);

  0028c	8d 4c 24 10	 lea	 ecx, DWORD PTR _lf$[esp+612]
  00290	51		 push	 ecx
  00291	ff d7		 call	 edi
  00293	a3 00 00 00 00	 mov	 DWORD PTR _hBoldFont, eax

; 983  : 	if (hBoldFont == NULL)

  00298	3b c3		 cmp	 eax, ebx
  0029a	75 17		 jne	 SHORT $LN4@InitDialog

; 984  : 	{
; 985  : 		handleWin32Error (hwndDlg);

  0029c	8b 54 24 0c	 mov	 edx, DWORD PTR _hwndDlg$GSCopy$[esp+612]
  002a0	52		 push	 edx
  002a1	e8 00 00 00 00	 call	 _handleWin32Error
  002a6	83 c4 04	 add	 esp, 4

; 986  : 		AbortProcess ("NOFONT");

  002a9	68 00 00 00 00	 push	 OFFSET ??_C@_06DILOELAE@NOFONT?$AA@
  002ae	e8 00 00 00 00	 call	 _AbortProcess
$LN4@InitDialog:

; 987  : 	}
; 988  : 
; 989  : 	// Title
; 990  : 	font = GetFont ("font_title");

  002b3	68 00 00 00 00	 push	 OFFSET ??_C@_0L@NMFINBBB@font_title?$AA@
  002b8	e8 00 00 00 00	 call	 _GetFont
  002bd	8b f0		 mov	 esi, eax
  002bf	83 c4 04	 add	 esp, 4

; 991  : 
; 992  : 	nHeight = CompensateDPIFont (!font ? -21 : -font->Size);

  002c2	3b f3		 cmp	 esi, ebx
  002c4	75 07		 jne	 SHORT $LN18@InitDialog
  002c6	b8 eb ff ff ff	 mov	 eax, -21		; ffffffebH
  002cb	eb 05		 jmp	 SHORT $LN19@InitDialog
$LN18@InitDialog:
  002cd	8b 46 04	 mov	 eax, DWORD PTR [esi+4]
  002d0	f7 d8		 neg	 eax
$LN19@InitDialog:
  002d2	50		 push	 eax
  002d3	e8 00 00 00 00	 call	 _CompensateDPIFont
  002d8	83 c4 04	 add	 esp, 4

; 993  : 	lf.lfHeight = nHeight;

  002db	89 44 24 10	 mov	 DWORD PTR _lf$[esp+612], eax

; 994  : 	lf.lfWeight = FW_REGULAR;

  002df	c7 44 24 20 90
	01 00 00	 mov	 DWORD PTR _lf$[esp+628], 400 ; 00000190H

; 995  : 	wcsncpy (lf.lfFaceName, !font ? L"Times New Roman" : font->FaceName, sizeof (lf.lfFaceName)/2);

  002e7	3b f3		 cmp	 esi, ebx
  002e9	75 07		 jne	 SHORT $LN20@InitDialog
  002eb	be 00 00 00 00	 mov	 esi, OFFSET ??_C@_1CA@MBPOLHGL@?$AAT?$AAi?$AAm?$AAe?$AAs?$AA?5?$AAN?$AAe?$AAw?$AA?5?$AAR?$AAo?$AAm?$AAa?$AAn?$AA?$AA@
  002f0	eb 02		 jmp	 SHORT $LN21@InitDialog
$LN20@InitDialog:
  002f2	8b 36		 mov	 esi, DWORD PTR [esi]
$LN21@InitDialog:
  002f4	6a 20		 push	 32			; 00000020H
  002f6	8d 44 24 30	 lea	 eax, DWORD PTR _lf$[esp+644]
  002fa	56		 push	 esi
  002fb	50		 push	 eax
  002fc	e8 00 00 00 00	 call	 _wcsncpy
  00301	83 c4 0c	 add	 esp, 12			; 0000000cH

; 996  : 	hTitleFont = CreateFontIndirectW (&lf);

  00304	8d 4c 24 10	 lea	 ecx, DWORD PTR _lf$[esp+612]
  00308	51		 push	 ecx
  00309	ff d7		 call	 edi
  0030b	a3 00 00 00 00	 mov	 DWORD PTR _hTitleFont, eax

; 997  : 	if (hTitleFont == NULL)

  00310	3b c3		 cmp	 eax, ebx
  00312	75 17		 jne	 SHORT $LN3@InitDialog

; 998  : 	{
; 999  : 		handleWin32Error (hwndDlg);

  00314	8b 54 24 0c	 mov	 edx, DWORD PTR _hwndDlg$GSCopy$[esp+612]
  00318	52		 push	 edx
  00319	e8 00 00 00 00	 call	 _handleWin32Error
  0031e	83 c4 04	 add	 esp, 4

; 1000 : 		AbortProcess ("NOFONT");

  00321	68 00 00 00 00	 push	 OFFSET ??_C@_06DILOELAE@NOFONT?$AA@
  00326	e8 00 00 00 00	 call	 _AbortProcess
$LN3@InitDialog:

; 1001 : 	}
; 1002 : 
; 1003 : 	// Fixed-size
; 1004 : 	font = GetFont ("font_fixed");

  0032b	68 00 00 00 00	 push	 OFFSET ??_C@_0L@MOFKMHPH@font_fixed?$AA@
  00330	e8 00 00 00 00	 call	 _GetFont
  00335	8b f0		 mov	 esi, eax
  00337	83 c4 04	 add	 esp, 4

; 1005 : 
; 1006 : 	nHeight = CompensateDPIFont (!font ? -12 : -font->Size);

  0033a	3b f3		 cmp	 esi, ebx
  0033c	75 07		 jne	 SHORT $LN22@InitDialog
  0033e	b8 f4 ff ff ff	 mov	 eax, -12		; fffffff4H
  00343	eb 05		 jmp	 SHORT $LN23@InitDialog
$LN22@InitDialog:
  00345	8b 46 04	 mov	 eax, DWORD PTR [esi+4]
  00348	f7 d8		 neg	 eax
$LN23@InitDialog:
  0034a	50		 push	 eax
  0034b	e8 00 00 00 00	 call	 _CompensateDPIFont
  00350	83 c4 04	 add	 esp, 4

; 1007 : 	lf.lfHeight = nHeight;

  00353	89 44 24 10	 mov	 DWORD PTR _lf$[esp+612], eax

; 1008 : 	lf.lfWidth = 0;

  00357	89 5c 24 14	 mov	 DWORD PTR _lf$[esp+616], ebx

; 1009 : 	lf.lfEscapement = 0;

  0035b	89 5c 24 18	 mov	 DWORD PTR _lf$[esp+620], ebx

; 1010 : 	lf.lfOrientation = 0;

  0035f	89 5c 24 1c	 mov	 DWORD PTR _lf$[esp+624], ebx

; 1011 : 	lf.lfWeight = FW_NORMAL;

  00363	c7 44 24 20 90
	01 00 00	 mov	 DWORD PTR _lf$[esp+628], 400 ; 00000190H

; 1012 : 	lf.lfItalic = FALSE;

  0036b	88 5c 24 24	 mov	 BYTE PTR _lf$[esp+632], bl

; 1013 : 	lf.lfUnderline = FALSE;

  0036f	88 5c 24 25	 mov	 BYTE PTR _lf$[esp+633], bl

; 1014 : 	lf.lfStrikeOut = FALSE;

  00373	88 5c 24 26	 mov	 BYTE PTR _lf$[esp+634], bl

; 1015 : 	lf.lfCharSet = DEFAULT_CHARSET;

  00377	c6 44 24 27 01	 mov	 BYTE PTR _lf$[esp+635], 1

; 1016 : 	lf.lfOutPrecision = OUT_DEFAULT_PRECIS;

  0037c	88 5c 24 28	 mov	 BYTE PTR _lf$[esp+636], bl

; 1017 : 	lf.lfClipPrecision = CLIP_DEFAULT_PRECIS;

  00380	88 5c 24 29	 mov	 BYTE PTR _lf$[esp+637], bl

; 1018 : 	lf.lfQuality = PROOF_QUALITY;

  00384	c6 44 24 2a 02	 mov	 BYTE PTR _lf$[esp+638], 2

; 1019 : 	lf.lfPitchAndFamily = FF_DONTCARE;

  00389	88 5c 24 2b	 mov	 BYTE PTR _lf$[esp+639], bl

; 1020 : 	wcsncpy (lf.lfFaceName, !font ? L"Lucida Console" : font->FaceName, sizeof (lf.lfFaceName)/2);

  0038d	3b f3		 cmp	 esi, ebx
  0038f	75 07		 jne	 SHORT $LN24@InitDialog
  00391	be 00 00 00 00	 mov	 esi, OFFSET ??_C@_1BO@CJPKCNHF@?$AAL?$AAu?$AAc?$AAi?$AAd?$AAa?$AA?5?$AAC?$AAo?$AAn?$AAs?$AAo?$AAl?$AAe?$AA?$AA@
  00396	eb 02		 jmp	 SHORT $LN25@InitDialog
$LN24@InitDialog:
  00398	8b 36		 mov	 esi, DWORD PTR [esi]
$LN25@InitDialog:
  0039a	6a 20		 push	 32			; 00000020H
  0039c	8d 44 24 30	 lea	 eax, DWORD PTR _lf$[esp+644]
  003a0	56		 push	 esi
  003a1	50		 push	 eax
  003a2	e8 00 00 00 00	 call	 _wcsncpy
  003a7	83 c4 0c	 add	 esp, 12			; 0000000cH

; 1021 : 	hFixedFont = CreateFontIndirectW (&lf);

  003aa	8d 4c 24 10	 lea	 ecx, DWORD PTR _lf$[esp+612]
  003ae	51		 push	 ecx
  003af	ff d7		 call	 edi
  003b1	a3 00 00 00 00	 mov	 DWORD PTR _hFixedFont, eax

; 1022 : 	if (hFixedFont == NULL)

  003b6	3b c3		 cmp	 eax, ebx
  003b8	75 17		 jne	 SHORT $LN2@InitDialog

; 1023 : 	{
; 1024 : 		handleWin32Error (hwndDlg);

  003ba	8b 54 24 0c	 mov	 edx, DWORD PTR _hwndDlg$GSCopy$[esp+612]
  003be	52		 push	 edx
  003bf	e8 00 00 00 00	 call	 _handleWin32Error
  003c4	83 c4 04	 add	 esp, 4

; 1025 : 		AbortProcess ("NOFONT");

  003c7	68 00 00 00 00	 push	 OFFSET ??_C@_06DILOELAE@NOFONT?$AA@
  003cc	e8 00 00 00 00	 call	 _AbortProcess
$LN2@InitDialog:

; 1026 : 	}
; 1027 : 
; 1028 : 	if (!aboutMenuAppended)

  003d1	39 1d 00 00 00
	00		 cmp	 DWORD PTR ?aboutMenuAppended@?1??InitDialog@@9@4HA, ebx
  003d7	75 41		 jne	 SHORT $LN1@InitDialog

; 1029 : 	{
; 1030 : 		hMenu = GetSystemMenu (hwndDlg, FALSE);

  003d9	8b 44 24 0c	 mov	 eax, DWORD PTR _hwndDlg$GSCopy$[esp+612]
  003dd	53		 push	 ebx
  003de	50		 push	 eax
  003df	ff 15 00 00 00
	00		 call	 DWORD PTR __imp__GetSystemMenu@8

; 1031 : 		AppendMenu (hMenu, MF_SEPARATOR, 0, NULL);

  003e5	53		 push	 ebx
  003e6	53		 push	 ebx
  003e7	8b f0		 mov	 esi, eax
  003e9	68 00 08 00 00	 push	 2048			; 00000800H
  003ee	56		 push	 esi
  003ef	ff 15 00 00 00
	00		 call	 DWORD PTR __imp__AppendMenuA@16

; 1032 : 		AppendMenuW (hMenu, MF_ENABLED | MF_STRING, IDC_ABOUT, GetString ("ABOUTBOX"));

  003f5	68 00 00 00 00	 push	 OFFSET ??_C@_08KAINEBEN@ABOUTBOX?$AA@
  003fa	e8 00 00 00 00	 call	 _GetString
  003ff	83 c4 04	 add	 esp, 4
  00402	50		 push	 eax
  00403	68 ff 7f 00 00	 push	 32767			; 00007fffH
  00408	53		 push	 ebx
  00409	56		 push	 esi
  0040a	ff 15 00 00 00
	00		 call	 DWORD PTR __imp__AppendMenuW@16

; 1033 : 
; 1034 : 		aboutMenuAppended = TRUE;

  00410	c7 05 00 00 00
	00 01 00 00 00	 mov	 DWORD PTR ?aboutMenuAppended@?1??InitDialog@@9@4HA, 1
$LN1@InitDialog:

; 1035 : 	}
; 1036 : }

  0041a	8b 8c 24 60 02
	00 00		 mov	 ecx, DWORD PTR __$ArrayPad$[esp+612]
  00421	5f		 pop	 edi
  00422	5e		 pop	 esi
  00423	5b		 pop	 ebx
  00424	33 cc		 xor	 ecx, esp
  00426	e8 00 00 00 00	 call	 @__security_check_cookie@4
  0042b	81 c4 58 02 00
	00		 add	 esp, 600		; 00000258H
  00431	c3		 ret	 0
$LN40@InitDialog:
_InitDialog ENDP
_TEXT	ENDS
PUBLIC	_ProcessPaintMessages
EXTRN	__imp__DispatchMessageA@4:PROC
EXTRN	__imp__PeekMessageA@20:PROC
; Function compile flags: /Ogtpy
;	COMDAT _ProcessPaintMessages
_TEXT	SEGMENT
_paintMsg$ = -28					; size = 28
_hwnd$ = 8						; size = 4
_maxMessagesToProcess$ = 12				; size = 4
_ProcessPaintMessages PROC				; COMDAT

; 1041 : {

  00000	83 ec 1c	 sub	 esp, 28			; 0000001cH
  00003	55		 push	 ebp

; 1042 : 	MSG paintMsg;
; 1043 : 	int msgCounter = maxMessagesToProcess;	

  00004	8b 6c 24 28	 mov	 ebp, DWORD PTR _maxMessagesToProcess$[esp+28]
  00008	56		 push	 esi

; 1044 : 
; 1045 : 	while (PeekMessage (&paintMsg, hwnd, 0, 0, PM_REMOVE | PM_QS_PAINT) != 0 && msgCounter-- > 0)

  00009	8b 74 24 28	 mov	 esi, DWORD PTR _hwnd$[esp+32]
  0000d	57		 push	 edi
  0000e	8b 3d 00 00 00
	00		 mov	 edi, DWORD PTR __imp__PeekMessageA@20
  00014	68 01 00 20 00	 push	 2097153			; 00200001H
  00019	6a 00		 push	 0
  0001b	6a 00		 push	 0
  0001d	56		 push	 esi
  0001e	8d 44 24 1c	 lea	 eax, DWORD PTR _paintMsg$[esp+56]
  00022	50		 push	 eax
  00023	ff d7		 call	 edi
  00025	85 c0		 test	 eax, eax
  00027	74 2b		 je	 SHORT $LN1@ProcessPai
  00029	53		 push	 ebx
  0002a	8b 1d 00 00 00
	00		 mov	 ebx, DWORD PTR __imp__DispatchMessageA@4
$LL2@ProcessPai:
  00030	8b cd		 mov	 ecx, ebp
  00032	4d		 dec	 ebp
  00033	85 c9		 test	 ecx, ecx
  00035	7e 1c		 jle	 SHORT $LN7@ProcessPai

; 1046 : 	{
; 1047 : 		DispatchMessage (&paintMsg);

  00037	8d 54 24 10	 lea	 edx, DWORD PTR _paintMsg$[esp+44]
  0003b	52		 push	 edx
  0003c	ff d3		 call	 ebx
  0003e	68 01 00 20 00	 push	 2097153			; 00200001H
  00043	6a 00		 push	 0
  00045	6a 00		 push	 0
  00047	56		 push	 esi
  00048	8d 44 24 20	 lea	 eax, DWORD PTR _paintMsg$[esp+60]
  0004c	50		 push	 eax
  0004d	ff d7		 call	 edi
  0004f	85 c0		 test	 eax, eax
  00051	75 dd		 jne	 SHORT $LL2@ProcessPai
$LN7@ProcessPai:
  00053	5b		 pop	 ebx
$LN1@ProcessPai:
  00054	5f		 pop	 edi
  00055	5e		 pop	 esi
  00056	5d		 pop	 ebp

; 1048 : 	}
; 1049 : }

  00057	83 c4 1c	 add	 esp, 28			; 0000001cH
  0005a	c3		 ret	 0
_ProcessPaintMessages ENDP
_TEXT	ENDS
PUBLIC	_CreateMemBitmap
EXTRN	__imp__DeleteObject@4:PROC
EXTRN	__imp__SetMapMode@8:PROC
EXTRN	__imp__CreateCompatibleDC@4:PROC
EXTRN	__imp__LoadBitmapA@8:PROC
; Function compile flags: /Ogtpy
;	COMDAT _CreateMemBitmap
_TEXT	SEGMENT
_hInstance$ = 8						; size = 4
_hwnd$ = 12						; size = 4
_resource$ = 16						; size = 4
_CreateMemBitmap PROC					; COMDAT

; 1054 : 	HBITMAP picture = LoadBitmap (hInstance, resource);

  00000	8b 44 24 0c	 mov	 eax, DWORD PTR _resource$[esp-4]
  00004	8b 4c 24 04	 mov	 ecx, DWORD PTR _hInstance$[esp-4]
  00008	53		 push	 ebx
  00009	55		 push	 ebp
  0000a	56		 push	 esi
  0000b	57		 push	 edi
  0000c	50		 push	 eax
  0000d	51		 push	 ecx
  0000e	ff 15 00 00 00
	00		 call	 DWORD PTR __imp__LoadBitmapA@8

; 1055 : 	HDC viewDC = GetDC (hwnd), dcMem;

  00014	8b 6c 24 18	 mov	 ebp, DWORD PTR _hwnd$[esp+12]
  00018	55		 push	 ebp
  00019	8b f8		 mov	 edi, eax
  0001b	ff 15 00 00 00
	00		 call	 DWORD PTR __imp__GetDC@4
  00021	8b d8		 mov	 ebx, eax

; 1056 : 
; 1057 : 	dcMem = CreateCompatibleDC (viewDC);

  00023	53		 push	 ebx
  00024	ff 15 00 00 00
	00		 call	 DWORD PTR __imp__CreateCompatibleDC@4
  0002a	8b f0		 mov	 esi, eax

; 1058 : 
; 1059 : 	SetMapMode (dcMem, MM_TEXT);

  0002c	6a 01		 push	 1
  0002e	56		 push	 esi
  0002f	ff 15 00 00 00
	00		 call	 DWORD PTR __imp__SetMapMode@8

; 1060 : 
; 1061 : 	SelectObject (dcMem, picture);

  00035	57		 push	 edi
  00036	56		 push	 esi
  00037	ff 15 00 00 00
	00		 call	 DWORD PTR __imp__SelectObject@8

; 1062 : 
; 1063 : 	DeleteObject (picture);

  0003d	57		 push	 edi
  0003e	ff 15 00 00 00
	00		 call	 DWORD PTR __imp__DeleteObject@4

; 1064 : 
; 1065 : 	ReleaseDC (hwnd, viewDC);

  00044	53		 push	 ebx
  00045	55		 push	 ebp
  00046	ff 15 00 00 00
	00		 call	 DWORD PTR __imp__ReleaseDC@8
  0004c	5f		 pop	 edi

; 1066 : 
; 1067 : 	return dcMem;

  0004d	8b c6		 mov	 eax, esi
  0004f	5e		 pop	 esi
  00050	5d		 pop	 ebp
  00051	5b		 pop	 ebx

; 1068 : }

  00052	c3		 ret	 0
_CreateMemBitmap ENDP
_TEXT	ENDS
PUBLIC	_RenderBitmap
EXTRN	__imp__BitBlt@36:PROC
EXTRN	__imp__DeleteDC@4:PROC
EXTRN	__imp__StretchBlt@44:PROC
EXTRN	__imp__SetStretchBltMode@8:PROC
EXTRN	__imp__CreateCompatibleBitmap@12:PROC
EXTRN	__imp__GetObjectA@12:PROC
EXTRN	__imp__GetCurrentObject@8:PROC
; Function compile flags: /Ogtpy
;	COMDAT _RenderBitmap
_TEXT	SEGMENT
_hbmpRescaled$ = -44					; size = 4
_rec$138330 = -40					; size = 16
_bitmap$ = -24						; size = 24
_resource$ = 8						; size = 4
_hwndDest$ = 12						; size = 4
_x$ = 16						; size = 4
_y$ = 20						; size = 4
_nWidth$ = 24						; size = 4
_nHeight$ = 28						; size = 4
_bDirectRender$ = 32					; size = 4
_bKeepAspectRatio$ = 36					; size = 4
_RenderBitmap PROC					; COMDAT

; 1084 : 	LRESULT lResult = 0;
; 1085 : 
; 1086 : 	HDC hdcSrc = CreateMemBitmap (hInst, hwndDest, resource);

  00000	8b 44 24 04	 mov	 eax, DWORD PTR _resource$[esp-4]
  00004	8b 4c 24 08	 mov	 ecx, DWORD PTR _hwndDest$[esp-4]
  00008	8b 15 00 00 00
	00		 mov	 edx, DWORD PTR _hInst
  0000e	83 ec 2c	 sub	 esp, 44			; 0000002cH
  00011	53		 push	 ebx
  00012	55		 push	 ebp
  00013	56		 push	 esi
  00014	57		 push	 edi
  00015	50		 push	 eax
  00016	51		 push	 ecx
  00017	52		 push	 edx
  00018	e8 00 00 00 00	 call	 _CreateMemBitmap
  0001d	83 c4 0c	 add	 esp, 12			; 0000000cH
  00020	8b f8		 mov	 edi, eax

; 1087 : 
; 1088 : 	HGDIOBJ picture = GetCurrentObject (hdcSrc, OBJ_BITMAP);

  00022	6a 07		 push	 7
  00024	57		 push	 edi
  00025	ff 15 00 00 00
	00		 call	 DWORD PTR __imp__GetCurrentObject@8

; 1089 : 
; 1090 : 	HBITMAP hbmpRescaled;
; 1091 : 	BITMAP bitmap;
; 1092 : 
; 1093 : 	HDC hdcRescaled;
; 1094 : 
; 1095 : 	if (!bDirectRender && nWidth == 0 && nHeight == 0)

  0002b	83 7c 24 58 00	 cmp	 DWORD PTR _bDirectRender$[esp+56], 0
  00030	8b 6c 24 50	 mov	 ebp, DWORD PTR _nWidth$[esp+56]
  00034	8b 5c 24 54	 mov	 ebx, DWORD PTR _nHeight$[esp+56]
  00038	8b f0		 mov	 esi, eax
  0003a	75 73		 jne	 SHORT $LN4@RenderBitm
  0003c	85 ed		 test	 ebp, ebp
  0003e	75 6f		 jne	 SHORT $LN4@RenderBitm
  00040	85 db		 test	 ebx, ebx
  00042	75 6b		 jne	 SHORT $LN4@RenderBitm

; 1096 : 	{
; 1097 : 		RECT rec;
; 1098 : 
; 1099 : 		GetClientRect (hwndDest, &rec);

  00044	8b 4c 24 44	 mov	 ecx, DWORD PTR _hwndDest$[esp+56]
  00048	8d 44 24 14	 lea	 eax, DWORD PTR _rec$138330[esp+60]
  0004c	50		 push	 eax
  0004d	51		 push	 ecx
  0004e	ff 15 00 00 00
	00		 call	 DWORD PTR __imp__GetClientRect@8

; 1100 : 
; 1101 : 		if (bKeepAspectRatio)

  00054	39 5c 24 5c	 cmp	 DWORD PTR _bKeepAspectRatio$[esp+56], ebx
  00058	74 3a		 je	 SHORT $LN7@RenderBitm

; 1102 : 		{
; 1103 : 			if (DlgAspectRatio > 1)

  0005a	d9 e8		 fld1
  0005c	dc 1d 00 00 00
	00		 fcomp	 QWORD PTR _DlgAspectRatio
  00062	df e0		 fnstsw	 ax
  00064	f6 c4 05	 test	 ah, 5
  00067	7a 13		 jp	 SHORT $LN6@RenderBitm

; 1104 : 			{
; 1105 : 				// Do not fix this, it's correct. We use the Y scale factor intentionally for both
; 1106 : 				// directions to maintain aspect ratio (see above for more info).
; 1107 : 				nWidth = CompensateYDPI (rec.right);

  00069	8b 54 24 1c	 mov	 edx, DWORD PTR _rec$138330[esp+68]
  0006d	52		 push	 edx
  0006e	e8 00 00 00 00	 call	 _CompensateYDPI
  00073	8b e8		 mov	 ebp, eax

; 1108 : 				nHeight = CompensateYDPI (rec.bottom);

  00075	8b 44 24 24	 mov	 eax, DWORD PTR _rec$138330[esp+76]
  00079	50		 push	 eax

; 1109 : 			}
; 1110 : 			else

  0007a	eb 29		 jmp	 SHORT $LN13@RenderBitm
$LN6@RenderBitm:

; 1111 : 			{
; 1112 : 				// Do not fix this, it's correct. We use the X scale factor intentionally for both
; 1113 : 				// directions to maintain aspect ratio (see above for more info).
; 1114 : 				nWidth = CompensateXDPI (rec.right);

  0007c	8b 4c 24 1c	 mov	 ecx, DWORD PTR _rec$138330[esp+68]
  00080	51		 push	 ecx
  00081	e8 00 00 00 00	 call	 _CompensateXDPI

; 1115 : 				nHeight = CompensateXDPI (rec.bottom);

  00086	8b 54 24 24	 mov	 edx, DWORD PTR _rec$138330[esp+76]
  0008a	52		 push	 edx
  0008b	8b e8		 mov	 ebp, eax
  0008d	e8 00 00 00 00	 call	 _CompensateXDPI

; 1116 : 			}
; 1117 : 		}
; 1118 : 		else

  00092	eb 16		 jmp	 SHORT $LN14@RenderBitm
$LN7@RenderBitm:

; 1119 : 		{
; 1120 : 			nWidth = CompensateXDPI (rec.right);

  00094	8b 44 24 1c	 mov	 eax, DWORD PTR _rec$138330[esp+68]
  00098	50		 push	 eax
  00099	e8 00 00 00 00	 call	 _CompensateXDPI

; 1121 : 			nHeight = CompensateYDPI (rec.bottom);

  0009e	8b 4c 24 24	 mov	 ecx, DWORD PTR _rec$138330[esp+76]
  000a2	8b e8		 mov	 ebp, eax
  000a4	51		 push	 ecx
$LN13@RenderBitm:
  000a5	e8 00 00 00 00	 call	 _CompensateYDPI
$LN14@RenderBitm:
  000aa	83 c4 08	 add	 esp, 8
  000ad	8b d8		 mov	 ebx, eax
$LN4@RenderBitm:

; 1122 : 		}
; 1123 : 	}
; 1124 : 
; 1125 : 	GetObject (picture, sizeof (BITMAP), &bitmap);

  000af	8d 54 24 24	 lea	 edx, DWORD PTR _bitmap$[esp+60]
  000b3	52		 push	 edx
  000b4	6a 18		 push	 24			; 00000018H
  000b6	56		 push	 esi
  000b7	ff 15 00 00 00
	00		 call	 DWORD PTR __imp__GetObjectA@12

; 1126 : 
; 1127 :     hdcRescaled = CreateCompatibleDC (hdcSrc); 

  000bd	57		 push	 edi
  000be	ff 15 00 00 00
	00		 call	 DWORD PTR __imp__CreateCompatibleDC@4

; 1128 :  
; 1129 :     hbmpRescaled = CreateCompatibleBitmap (hdcSrc, nWidth, nHeight); 

  000c4	53		 push	 ebx
  000c5	55		 push	 ebp
  000c6	57		 push	 edi
  000c7	8b f0		 mov	 esi, eax
  000c9	ff 15 00 00 00
	00		 call	 DWORD PTR __imp__CreateCompatibleBitmap@12

; 1130 :  
; 1131 :     SelectObject (hdcRescaled, hbmpRescaled);

  000cf	50		 push	 eax
  000d0	56		 push	 esi
  000d1	89 44 24 18	 mov	 DWORD PTR _hbmpRescaled$[esp+68], eax
  000d5	ff 15 00 00 00
	00		 call	 DWORD PTR __imp__SelectObject@8

; 1132 : 
; 1133 : 	/* Anti-aliasing mode (HALFTONE is the only anti-aliasing algorithm natively supported by Windows 2000.
; 1134 : 	   TODO: GDI+ offers higher quality -- InterpolationModeHighQualityBicubic) */
; 1135 : 	SetStretchBltMode (hdcRescaled, HALFTONE);

  000db	6a 04		 push	 4
  000dd	56		 push	 esi
  000de	ff 15 00 00 00
	00		 call	 DWORD PTR __imp__SetStretchBltMode@8

; 1136 : 
; 1137 : 	StretchBlt (hdcRescaled,
; 1138 : 		0,
; 1139 : 		0,
; 1140 : 		nWidth,
; 1141 : 		nHeight,
; 1142 : 		hdcSrc,
; 1143 : 		0,
; 1144 : 		0,
; 1145 : 		bitmap.bmWidth, 
; 1146 : 		bitmap.bmHeight,
; 1147 : 		SRCCOPY);

  000e4	8b 44 24 2c	 mov	 eax, DWORD PTR _bitmap$[esp+68]
  000e8	8b 4c 24 28	 mov	 ecx, DWORD PTR _bitmap$[esp+64]
  000ec	68 20 00 cc 00	 push	 13369376		; 00cc0020H
  000f1	50		 push	 eax
  000f2	51		 push	 ecx
  000f3	6a 00		 push	 0
  000f5	6a 00		 push	 0
  000f7	57		 push	 edi
  000f8	53		 push	 ebx
  000f9	55		 push	 ebp
  000fa	6a 00		 push	 0
  000fc	6a 00		 push	 0
  000fe	56		 push	 esi
  000ff	ff 15 00 00 00
	00		 call	 DWORD PTR __imp__StretchBlt@44

; 1148 : 
; 1149 : 	DeleteDC (hdcSrc);

  00105	57		 push	 edi
  00106	ff 15 00 00 00
	00		 call	 DWORD PTR __imp__DeleteDC@4

; 1150 : 
; 1151 : 	if (bDirectRender)

  0010c	83 7c 24 58 00	 cmp	 DWORD PTR _bDirectRender$[esp+56], 0

; 1152 : 	{
; 1153 : 		HDC hdcDest = GetDC (hwndDest);

  00111	8b 54 24 44	 mov	 edx, DWORD PTR _hwndDest$[esp+56]
  00115	74 42		 je	 SHORT $LN3@RenderBitm
  00117	52		 push	 edx
  00118	ff 15 00 00 00
	00		 call	 DWORD PTR __imp__GetDC@4

; 1154 : 
; 1155 : 		BitBlt (hdcDest, x, y, nWidth, nHeight, hdcRescaled, 0, 0, SRCCOPY);

  0011e	8b 4c 24 48	 mov	 ecx, DWORD PTR _x$[esp+56]
  00122	68 20 00 cc 00	 push	 13369376		; 00cc0020H
  00127	6a 00		 push	 0
  00129	6a 00		 push	 0
  0012b	56		 push	 esi
  0012c	53		 push	 ebx
  0012d	8b f8		 mov	 edi, eax
  0012f	8b 44 24 60	 mov	 eax, DWORD PTR _y$[esp+76]
  00133	55		 push	 ebp
  00134	50		 push	 eax
  00135	51		 push	 ecx
  00136	57		 push	 edi
  00137	ff 15 00 00 00
	00		 call	 DWORD PTR __imp__BitBlt@36

; 1156 : 		DeleteDC (hdcDest);

  0013d	57		 push	 edi
  0013e	ff 15 00 00 00
	00		 call	 DWORD PTR __imp__DeleteDC@4

; 1157 : 	}
; 1158 : 	else

  00144	8b 7c 24 10	 mov	 edi, DWORD PTR _hbmpRescaled$[esp+60]

; 1165 : 
; 1166 : 	DeleteDC (hdcRescaled);

  00148	56		 push	 esi
  00149	ff 15 00 00 00
	00		 call	 DWORD PTR __imp__DeleteDC@4

; 1167 : 
; 1168 : 	return hbmpRescaled;

  0014f	8b c7		 mov	 eax, edi
  00151	5f		 pop	 edi
  00152	5e		 pop	 esi
  00153	5d		 pop	 ebp
  00154	5b		 pop	 ebx

; 1169 : }

  00155	83 c4 2c	 add	 esp, 44			; 0000002cH
  00158	c3		 ret	 0
$LN3@RenderBitm:

; 1159 : 	{
; 1160 : 		lResult = SendMessage (hwndDest, (UINT) STM_SETIMAGE, (WPARAM) IMAGE_BITMAP, (LPARAM) (HANDLE) hbmpRescaled);

  00159	8b 7c 24 10	 mov	 edi, DWORD PTR _hbmpRescaled$[esp+60]
  0015d	57		 push	 edi
  0015e	6a 00		 push	 0
  00160	68 72 01 00 00	 push	 370			; 00000172H
  00165	52		 push	 edx
  00166	ff 15 00 00 00
	00		 call	 DWORD PTR __imp__SendMessageA@16

; 1161 : 	}
; 1162 : 
; 1163 : 	if ((HGDIOBJ) lResult != NULL && (HGDIOBJ) lResult != (HGDIOBJ) hbmpRescaled)

  0016c	85 c0		 test	 eax, eax
  0016e	74 0b		 je	 SHORT $LN1@RenderBitm
  00170	3b c7		 cmp	 eax, edi
  00172	74 07		 je	 SHORT $LN1@RenderBitm

; 1164 : 		DeleteObject ((HGDIOBJ) lResult);

  00174	50		 push	 eax
  00175	ff 15 00 00 00
	00		 call	 DWORD PTR __imp__DeleteObject@4
$LN1@RenderBitm:

; 1165 : 
; 1166 : 	DeleteDC (hdcRescaled);

  0017b	56		 push	 esi
  0017c	ff 15 00 00 00
	00		 call	 DWORD PTR __imp__DeleteDC@4

; 1167 : 
; 1168 : 	return hbmpRescaled;

  00182	8b c7		 mov	 eax, edi
  00184	5f		 pop	 edi
  00185	5e		 pop	 esi
  00186	5d		 pop	 ebp
  00187	5b		 pop	 ebx

; 1169 : }

  00188	83 c4 2c	 add	 esp, 44			; 0000002cH
  0018b	c3		 ret	 0
_RenderBitmap ENDP
_TEXT	ENDS
PUBLIC	_hwnd$GSCopy$
PUBLIC	__$ArrayPad$
PUBLIC	_RedTick@16
EXTRN	__imp__EndPaint@8:PROC
EXTRN	__imp__LineTo@12:PROC
EXTRN	__imp__MoveToEx@16:PROC
EXTRN	__imp__GetDialogBaseUnits@0:PROC
EXTRN	__imp__CreatePen@12:PROC
EXTRN	__imp__DefWindowProcA@16:PROC
EXTRN	__imp__BeginPaint@8:PROC
EXTRN	__imp__GetUpdateRect@12:PROC
; Function compile flags: /Ogtpy
;	COMDAT _RedTick@16
_TEXT	SEGMENT
_bEndPaint$138366 = -100				; size = 4
_Rect$138367 = -96					; size = 16
_hObj$138378 = -80					; size = 4
_bx$138379 = -76					; size = 2
_hwnd$GSCopy$ = -72					; size = 4
_tmp$138363 = -68					; size = 64
__$ArrayPad$ = -4					; size = 4
_hwnd$ = 8						; size = 4
_uMsg$ = 12						; size = 4
_wParam$ = 16						; size = 4
_lParam$ = 20						; size = 4
_RedTick@16 PROC					; COMDAT

; 1174 : {

  00000	83 ec 64	 sub	 esp, 100		; 00000064H
  00003	a1 00 00 00 00	 mov	 eax, DWORD PTR ___security_cookie
  00008	33 c4		 xor	 eax, esp
  0000a	89 44 24 60	 mov	 DWORD PTR __$ArrayPad$[esp+100], eax

; 1175 : 	if (uMsg == WM_CREATE)

  0000e	8b 44 24 6c	 mov	 eax, DWORD PTR _uMsg$[esp+96]
  00012	57		 push	 edi
  00013	8b 7c 24 6c	 mov	 edi, DWORD PTR _hwnd$[esp+100]

; 1209 : 		{
; 1210 : 			HGDIOBJ hObj = SelectObject (hDC, hPen);

  00017	89 7c 24 20	 mov	 DWORD PTR _hwnd$GSCopy$[esp+104], edi
  0001b	83 f8 01	 cmp	 eax, 1
  0001e	0f 84 9a 01 00
	00		 je	 $LN7@RedTick

; 1176 : 	{
; 1177 : 	}
; 1178 : 	else if (uMsg == WM_DESTROY)

  00024	83 f8 02	 cmp	 eax, 2
  00027	0f 84 91 01 00
	00		 je	 $LN7@RedTick

; 1179 : 	{
; 1180 : 	}
; 1181 : 	else if (uMsg == WM_TIMER)

  0002d	3d 13 01 00 00	 cmp	 eax, 275		; 00000113H
  00032	0f 84 86 01 00
	00		 je	 $LN7@RedTick

; 1182 : 	{
; 1183 : 	}
; 1184 : 	else if (uMsg == WM_PAINT)

  00038	83 f8 0f	 cmp	 eax, 15			; 0000000fH
  0003b	0f 85 7d 01 00
	00		 jne	 $LN7@RedTick
  00041	56		 push	 esi

; 1185 : 	{
; 1186 : 		PAINTSTRUCT tmp;
; 1187 : 		HPEN hPen;
; 1188 : 		HDC hDC;
; 1189 : 		BOOL bEndPaint;
; 1190 : 		RECT Rect;
; 1191 : 
; 1192 : 		if (GetUpdateRect (hwnd, NULL, FALSE))

  00042	6a 00		 push	 0
  00044	6a 00		 push	 0
  00046	57		 push	 edi
  00047	ff 15 00 00 00
	00		 call	 DWORD PTR __imp__GetUpdateRect@12
  0004d	85 c0		 test	 eax, eax
  0004f	74 40		 je	 SHORT $LN6@RedTick

; 1193 : 		{
; 1194 : 			hDC = BeginPaint (hwnd, &tmp);

  00051	8d 44 24 28	 lea	 eax, DWORD PTR _tmp$138363[esp+108]
  00055	50		 push	 eax
  00056	57		 push	 edi
  00057	ff 15 00 00 00
	00		 call	 DWORD PTR __imp__BeginPaint@8
  0005d	8b f0		 mov	 esi, eax

; 1195 : 			bEndPaint = TRUE;

  0005f	c7 44 24 08 01
	00 00 00	 mov	 DWORD PTR _bEndPaint$138366[esp+108], 1

; 1196 : 			if (hDC == NULL)

  00067	85 f6		 test	 esi, esi
  00069	75 37		 jne	 SHORT $LN4@RedTick

; 1197 : 				return DefWindowProc (hwnd, uMsg, wParam, lParam);

  0006b	8b 4c 24 7c	 mov	 ecx, DWORD PTR _lParam$[esp+104]
  0006f	8b 54 24 78	 mov	 edx, DWORD PTR _wParam$[esp+104]
  00073	51		 push	 ecx
  00074	52		 push	 edx
  00075	6a 0f		 push	 15			; 0000000fH
  00077	57		 push	 edi
  00078	ff 15 00 00 00
	00		 call	 DWORD PTR __imp__DefWindowProcA@16
  0007e	5e		 pop	 esi
  0007f	5f		 pop	 edi

; 1233 : }

  00080	8b 4c 24 60	 mov	 ecx, DWORD PTR __$ArrayPad$[esp+100]
  00084	33 cc		 xor	 ecx, esp
  00086	e8 00 00 00 00	 call	 @__security_check_cookie@4
  0008b	83 c4 64	 add	 esp, 100		; 00000064H
  0008e	c2 10 00	 ret	 16			; 00000010H
$LN6@RedTick:

; 1198 : 		}
; 1199 : 		else
; 1200 : 		{
; 1201 : 			hDC = GetDC (hwnd);

  00091	57		 push	 edi
  00092	ff 15 00 00 00
	00		 call	 DWORD PTR __imp__GetDC@4
  00098	8b f0		 mov	 esi, eax

; 1202 : 			bEndPaint = FALSE;

  0009a	c7 44 24 08 00
	00 00 00	 mov	 DWORD PTR _bEndPaint$138366[esp+108], 0
$LN4@RedTick:
  000a2	53		 push	 ebx

; 1203 : 		}
; 1204 : 
; 1205 : 		GetClientRect (hwnd, &Rect);

  000a3	8d 44 24 10	 lea	 eax, DWORD PTR _Rect$138367[esp+112]
  000a7	50		 push	 eax
  000a8	57		 push	 edi
  000a9	ff 15 00 00 00
	00		 call	 DWORD PTR __imp__GetClientRect@8

; 1206 : 
; 1207 : 		hPen = CreatePen (PS_SOLID, 2, RGB (0, 255, 0));

  000af	68 00 ff 00 00	 push	 65280			; 0000ff00H
  000b4	6a 02		 push	 2
  000b6	6a 00		 push	 0
  000b8	ff 15 00 00 00
	00		 call	 DWORD PTR __imp__CreatePen@12
  000be	8b d8		 mov	 ebx, eax

; 1208 : 		if (hPen != NULL)

  000c0	85 db		 test	 ebx, ebx
  000c2	0f 84 aa 00 00
	00		 je	 $LN3@RedTick
  000c8	55		 push	 ebp

; 1209 : 		{
; 1210 : 			HGDIOBJ hObj = SelectObject (hDC, hPen);

  000c9	8b 2d 00 00 00
	00		 mov	 ebp, DWORD PTR __imp__SelectObject@8
  000cf	53		 push	 ebx
  000d0	56		 push	 esi
  000d1	ff d5		 call	 ebp

; 1211 : 			WORD bx = LOWORD (GetDialogBaseUnits ());

  000d3	8b 3d 00 00 00
	00		 mov	 edi, DWORD PTR __imp__GetDialogBaseUnits@0
  000d9	89 44 24 24	 mov	 DWORD PTR _hObj$138378[esp+116], eax
  000dd	ff d7		 call	 edi
  000df	0f b7 c8	 movzx	 ecx, ax
  000e2	89 4c 24 28	 mov	 DWORD PTR _bx$138379[esp+116], ecx

; 1212 : 			WORD by = HIWORD (GetDialogBaseUnits ());

  000e6	ff d7		 call	 edi

; 1213 : 
; 1214 : 			MoveToEx (hDC, (Rect.right - Rect.left) / 2, Rect.bottom, NULL);

  000e8	8b 54 24 20	 mov	 edx, DWORD PTR _Rect$138367[esp+128]
  000ec	8b f8		 mov	 edi, eax
  000ee	8b 44 24 1c	 mov	 eax, DWORD PTR _Rect$138367[esp+124]
  000f2	2b 44 24 14	 sub	 eax, DWORD PTR _Rect$138367[esp+116]
  000f6	6a 00		 push	 0
  000f8	52		 push	 edx
  000f9	99		 cdq
  000fa	2b c2		 sub	 eax, edx
  000fc	d1 f8		 sar	 eax, 1
  000fe	50		 push	 eax
  000ff	56		 push	 esi
  00100	c1 ef 10	 shr	 edi, 16			; 00000010H
  00103	ff 15 00 00 00
	00		 call	 DWORD PTR __imp__MoveToEx@16

; 1215 : 			LineTo (hDC, Rect.right, Rect.top);

  00109	8b 44 24 18	 mov	 eax, DWORD PTR _Rect$138367[esp+120]
  0010d	8b 4c 24 1c	 mov	 ecx, DWORD PTR _Rect$138367[esp+124]
  00111	50		 push	 eax
  00112	51		 push	 ecx
  00113	56		 push	 esi
  00114	ff 15 00 00 00
	00		 call	 DWORD PTR __imp__LineTo@12

; 1216 : 			MoveToEx (hDC, (Rect.right - Rect.left) / 2, Rect.bottom, NULL);

  0011a	8b 44 24 1c	 mov	 eax, DWORD PTR _Rect$138367[esp+124]
  0011e	2b 44 24 14	 sub	 eax, DWORD PTR _Rect$138367[esp+116]
  00122	8b 54 24 20	 mov	 edx, DWORD PTR _Rect$138367[esp+128]
  00126	6a 00		 push	 0
  00128	52		 push	 edx
  00129	99		 cdq
  0012a	2b c2		 sub	 eax, edx
  0012c	d1 f8		 sar	 eax, 1
  0012e	50		 push	 eax
  0012f	56		 push	 esi
  00130	ff 15 00 00 00
	00		 call	 DWORD PTR __imp__MoveToEx@16

; 1217 : 
; 1218 : 			LineTo (hDC, (3 * bx) / 4, (2 * by) / 8);

  00136	0f b7 c7	 movzx	 eax, di
  00139	03 c0		 add	 eax, eax
  0013b	99		 cdq
  0013c	83 e2 07	 and	 edx, 7
  0013f	03 c2		 add	 eax, edx
  00141	c1 f8 03	 sar	 eax, 3
  00144	50		 push	 eax
  00145	0f b7 44 24 2c	 movzx	 eax, WORD PTR _bx$138379[esp+120]
  0014a	8d 04 40	 lea	 eax, DWORD PTR [eax+eax*2]
  0014d	99		 cdq
  0014e	83 e2 03	 and	 edx, 3
  00151	03 c2		 add	 eax, edx
  00153	c1 f8 02	 sar	 eax, 2
  00156	50		 push	 eax
  00157	56		 push	 esi
  00158	ff 15 00 00 00
	00		 call	 DWORD PTR __imp__LineTo@12

; 1219 : 
; 1220 : 			SelectObject (hDC, hObj);

  0015e	8b 44 24 24	 mov	 eax, DWORD PTR _hObj$138378[esp+116]
  00162	50		 push	 eax
  00163	56		 push	 esi
  00164	ff d5		 call	 ebp

; 1221 : 			DeleteObject (hPen);

  00166	53		 push	 ebx
  00167	ff 15 00 00 00
	00		 call	 DWORD PTR __imp__DeleteObject@4
  0016d	8b 7c 24 2c	 mov	 edi, DWORD PTR _hwnd$GSCopy$[esp+116]
  00171	5d		 pop	 ebp
$LN3@RedTick:

; 1222 : 		}
; 1223 : 
; 1224 : 		if (bEndPaint)

  00172	83 7c 24 0c 00	 cmp	 DWORD PTR _bEndPaint$138366[esp+112], 0
  00177	5b		 pop	 ebx
  00178	74 24		 je	 SHORT $LN2@RedTick

; 1225 : 			EndPaint (hwnd, &tmp);

  0017a	8d 4c 24 28	 lea	 ecx, DWORD PTR _tmp$138363[esp+108]
  0017e	51		 push	 ecx
  0017f	57		 push	 edi
  00180	ff 15 00 00 00
	00		 call	 DWORD PTR __imp__EndPaint@8
  00186	5e		 pop	 esi

; 1228 : 
; 1229 : 		return TRUE;

  00187	b8 01 00 00 00	 mov	 eax, 1
  0018c	5f		 pop	 edi

; 1233 : }

  0018d	8b 4c 24 60	 mov	 ecx, DWORD PTR __$ArrayPad$[esp+100]
  00191	33 cc		 xor	 ecx, esp
  00193	e8 00 00 00 00	 call	 @__security_check_cookie@4
  00198	83 c4 64	 add	 esp, 100		; 00000064H
  0019b	c2 10 00	 ret	 16			; 00000010H
$LN2@RedTick:

; 1226 : 		else
; 1227 : 			ReleaseDC (hwnd, hDC);

  0019e	56		 push	 esi
  0019f	57		 push	 edi
  001a0	ff 15 00 00 00
	00		 call	 DWORD PTR __imp__ReleaseDC@8
  001a6	5e		 pop	 esi

; 1228 : 
; 1229 : 		return TRUE;

  001a7	b8 01 00 00 00	 mov	 eax, 1
  001ac	5f		 pop	 edi

; 1233 : }

  001ad	8b 4c 24 60	 mov	 ecx, DWORD PTR __$ArrayPad$[esp+100]
  001b1	33 cc		 xor	 ecx, esp
  001b3	e8 00 00 00 00	 call	 @__security_check_cookie@4
  001b8	83 c4 64	 add	 esp, 100		; 00000064H
  001bb	c2 10 00	 ret	 16			; 00000010H
$LN7@RedTick:

; 1230 : 	}
; 1231 : 
; 1232 : 	return DefWindowProc (hwnd, uMsg, wParam, lParam);

  001be	8b 54 24 78	 mov	 edx, DWORD PTR _lParam$[esp+100]
  001c2	8b 4c 24 74	 mov	 ecx, DWORD PTR _wParam$[esp+100]
  001c6	52		 push	 edx
  001c7	51		 push	 ecx
  001c8	50		 push	 eax
  001c9	57		 push	 edi
  001ca	ff 15 00 00 00
	00		 call	 DWORD PTR __imp__DefWindowProcA@16

; 1233 : }

  001d0	8b 4c 24 64	 mov	 ecx, DWORD PTR __$ArrayPad$[esp+104]
  001d4	5f		 pop	 edi
  001d5	33 cc		 xor	 ecx, esp
  001d7	e8 00 00 00 00	 call	 @__security_check_cookie@4
  001dc	83 c4 64	 add	 esp, 100		; 00000064H
  001df	c2 10 00	 ret	 16			; 00000010H
_RedTick@16 ENDP
_TEXT	ENDS
PUBLIC	??_C@_07EFPKBNGC@REDTICK?$AA@			; `string'
PUBLIC	_RegisterRedTick
EXTRN	__imp__RegisterClassA@4:PROC
EXTRN	__imp__GetStockObject@4:PROC
EXTRN	__imp__LoadIconA@8:PROC
;	COMDAT ??_C@_07EFPKBNGC@REDTICK?$AA@
CONST	SEGMENT
??_C@_07EFPKBNGC@REDTICK?$AA@ DB 'REDTICK', 00H		; `string'
; Function compile flags: /Ogtpy
CONST	ENDS
;	COMDAT _RegisterRedTick
_TEXT	SEGMENT
_wc$ = -40						; size = 40
_hInstance$ = 8						; size = 4
_RegisterRedTick PROC					; COMDAT

; 1237 : {

  00000	83 ec 28	 sub	 esp, 40			; 00000028H

; 1238 :   WNDCLASS wc;
; 1239 :   ULONG rc;
; 1240 : 
; 1241 :   memset(&wc, 0 , sizeof wc);

  00003	33 c0		 xor	 eax, eax
  00005	89 44 24 08	 mov	 DWORD PTR _wc$[esp+48], eax
  00009	89 04 24	 mov	 DWORD PTR _wc$[esp+40], eax
  0000c	89 44 24 0c	 mov	 DWORD PTR _wc$[esp+52], eax
  00010	89 44 24 10	 mov	 DWORD PTR _wc$[esp+56], eax
  00014	89 44 24 04	 mov	 DWORD PTR _wc$[esp+44], eax
  00018	89 44 24 14	 mov	 DWORD PTR _wc$[esp+60], eax
  0001c	89 44 24 18	 mov	 DWORD PTR _wc$[esp+64], eax
  00020	89 44 24 1c	 mov	 DWORD PTR _wc$[esp+68], eax
  00024	89 44 24 20	 mov	 DWORD PTR _wc$[esp+72], eax
  00028	89 44 24 24	 mov	 DWORD PTR _wc$[esp+76], eax

; 1242 : 
; 1243 :   wc.style = CS_HREDRAW | CS_VREDRAW;
; 1244 :   wc.cbClsExtra = 0;

  0002c	89 44 24 08	 mov	 DWORD PTR _wc$[esp+48], eax

; 1245 :   wc.cbWndExtra = 4;
; 1246 :   wc.hInstance = hInstance;

  00030	8b 44 24 2c	 mov	 eax, DWORD PTR _hInstance$[esp+36]

; 1247 :   wc.hIcon = LoadIcon (NULL, IDI_APPLICATION);

  00034	68 00 7f 00 00	 push	 32512			; 00007f00H
  00039	6a 00		 push	 0
  0003b	c7 44 24 08 03
	00 00 00	 mov	 DWORD PTR _wc$[esp+48], 3
  00043	c7 44 24 14 04
	00 00 00	 mov	 DWORD PTR _wc$[esp+60], 4
  0004b	89 44 24 18	 mov	 DWORD PTR _wc$[esp+64], eax
  0004f	ff 15 00 00 00
	00		 call	 DWORD PTR __imp__LoadIconA@8

; 1248 :   wc.hCursor = NULL;
; 1249 :   wc.hbrBackground = (HBRUSH) GetStockObject (LTGRAY_BRUSH);

  00055	6a 01		 push	 1
  00057	89 44 24 18	 mov	 DWORD PTR _wc$[esp+64], eax
  0005b	c7 44 24 1c 00
	00 00 00	 mov	 DWORD PTR _wc$[esp+68], 0
  00063	ff 15 00 00 00
	00		 call	 DWORD PTR __imp__GetStockObject@4

; 1250 :   wc.lpszClassName = "REDTICK";
; 1251 :   wc.lpfnWndProc = &RedTick; 
; 1252 :   
; 1253 :   rc = (ULONG) RegisterClass (&wc);

  00069	8d 0c 24	 lea	 ecx, DWORD PTR _wc$[esp+40]
  0006c	51		 push	 ecx
  0006d	89 44 24 20	 mov	 DWORD PTR _wc$[esp+72], eax
  00071	c7 44 24 28 00
	00 00 00	 mov	 DWORD PTR _wc$[esp+80], OFFSET ??_C@_07EFPKBNGC@REDTICK?$AA@
  00079	c7 44 24 08 00
	00 00 00	 mov	 DWORD PTR _wc$[esp+48], OFFSET _RedTick@16
  00081	ff 15 00 00 00
	00		 call	 DWORD PTR __imp__RegisterClassA@4

; 1254 : 
; 1255 :   return rc == 0 ? FALSE : TRUE;

  00087	33 d2		 xor	 edx, edx
  00089	66 85 c0	 test	 ax, ax
  0008c	0f 95 c2	 setne	 dl
  0008f	8b c2		 mov	 eax, edx

; 1256 : }

  00091	83 c4 28	 add	 esp, 40			; 00000028H
  00094	c3		 ret	 0
_RegisterRedTick ENDP
_TEXT	ENDS
PUBLIC	_UnregisterRedTick
EXTRN	__imp__UnregisterClassA@8:PROC
; Function compile flags: /Ogtpy
;	COMDAT _UnregisterRedTick
_TEXT	SEGMENT
_hInstance$ = 8						; size = 4
_UnregisterRedTick PROC					; COMDAT

; 1261 :   return UnregisterClass ("REDTICK", hInstance);

  00000	8b 44 24 04	 mov	 eax, DWORD PTR _hInstance$[esp-4]
  00004	50		 push	 eax
  00005	68 00 00 00 00	 push	 OFFSET ??_C@_07EFPKBNGC@REDTICK?$AA@
  0000a	ff 15 00 00 00
	00		 call	 DWORD PTR __imp__UnregisterClassA@8

; 1262 : }

  00010	c3		 ret	 0
_UnregisterRedTick ENDP
_TEXT	ENDS
PUBLIC	_SplashDlgProc@16
EXTRN	__imp__DefDlgProcA@16:PROC
; Function compile flags: /Ogtpy
;	COMDAT _SplashDlgProc@16
_TEXT	SEGMENT
_hwnd$ = 8						; size = 4
_uMsg$ = 12						; size = 4
_wParam$ = 16						; size = 4
_lParam$ = 20						; size = 4
_SplashDlgProc@16 PROC					; COMDAT

; 1267 : 	return DefDlgProc (hwnd, uMsg, wParam, lParam);

  00000	ff 25 00 00 00
	00		 jmp	 DWORD PTR __imp__DefDlgProcA@16
_SplashDlgProc@16 ENDP
_TEXT	ENDS
PUBLIC	_AddComboPair
; Function compile flags: /Ogtpy
;	COMDAT _AddComboPair
_TEXT	SEGMENT
_hComboBox$ = 8						; size = 4
_lpszItem$ = 12						; size = 4
_value$ = 16						; size = 4
_AddComboPair PROC					; COMDAT

; 1275 : 	LPARAM nIndex;
; 1276 : 
; 1277 : 	nIndex = SendMessage (hComboBox, CB_ADDSTRING, 0, (LPARAM) lpszItem);

  00000	8b 44 24 08	 mov	 eax, DWORD PTR _lpszItem$[esp-4]
  00004	56		 push	 esi
  00005	8b 74 24 08	 mov	 esi, DWORD PTR _hComboBox$[esp]
  00009	57		 push	 edi
  0000a	8b 3d 00 00 00
	00		 mov	 edi, DWORD PTR __imp__SendMessageA@16
  00010	50		 push	 eax
  00011	6a 00		 push	 0
  00013	68 43 01 00 00	 push	 323			; 00000143H
  00018	56		 push	 esi
  00019	ff d7		 call	 edi

; 1278 : 	nIndex = SendMessage (hComboBox, CB_SETITEMDATA, nIndex, (LPARAM) value);

  0001b	8b 4c 24 14	 mov	 ecx, DWORD PTR _value$[esp+4]
  0001f	51		 push	 ecx
  00020	50		 push	 eax
  00021	68 51 01 00 00	 push	 337			; 00000151H
  00026	56		 push	 esi
  00027	ff d7		 call	 edi
  00029	5f		 pop	 edi
  0002a	5e		 pop	 esi

; 1279 : }

  0002b	c3		 ret	 0
_AddComboPair ENDP
_TEXT	ENDS
PUBLIC	_AddComboPairW
EXTRN	__imp__SendMessageW@16:PROC
; Function compile flags: /Ogtpy
;	COMDAT _AddComboPairW
_TEXT	SEGMENT
_hComboBox$ = 8						; size = 4
_lpszItem$ = 12						; size = 4
_value$ = 16						; size = 4
_AddComboPairW PROC					; COMDAT

; 1284 : 	LPARAM nIndex;
; 1285 : 
; 1286 : 	nIndex = SendMessageW (hComboBox, CB_ADDSTRING, 0, (LPARAM) lpszItem);

  00000	8b 44 24 08	 mov	 eax, DWORD PTR _lpszItem$[esp-4]
  00004	56		 push	 esi
  00005	8b 74 24 08	 mov	 esi, DWORD PTR _hComboBox$[esp]
  00009	50		 push	 eax
  0000a	6a 00		 push	 0
  0000c	68 43 01 00 00	 push	 323			; 00000143H
  00011	56		 push	 esi
  00012	ff 15 00 00 00
	00		 call	 DWORD PTR __imp__SendMessageW@16

; 1287 : 	nIndex = SendMessage (hComboBox, CB_SETITEMDATA, nIndex, (LPARAM) value);

  00018	8b 4c 24 10	 mov	 ecx, DWORD PTR _value$[esp]
  0001c	51		 push	 ecx
  0001d	50		 push	 eax
  0001e	68 51 01 00 00	 push	 337			; 00000151H
  00023	56		 push	 esi
  00024	ff 15 00 00 00
	00		 call	 DWORD PTR __imp__SendMessageA@16
  0002a	5e		 pop	 esi

; 1288 : }

  0002b	c3		 ret	 0
_AddComboPairW ENDP
_TEXT	ENDS
PUBLIC	_SelectAlgo
; Function compile flags: /Ogtpy
;	COMDAT _SelectAlgo
_TEXT	SEGMENT
_nCount$ = -4						; size = 4
_hComboBox$ = 8						; size = 4
_algo_id$ = 12						; size = 4
_SelectAlgo PROC					; COMDAT

; 1292 : {

  00000	51		 push	 ecx
  00001	53		 push	 ebx

; 1293 : 	LPARAM nCount = SendMessage (hComboBox, CB_GETCOUNT, 0, 0);

  00002	8b 1d 00 00 00
	00		 mov	 ebx, DWORD PTR __imp__SendMessageA@16
  00008	55		 push	 ebp
  00009	56		 push	 esi
  0000a	57		 push	 edi
  0000b	8b 7c 24 18	 mov	 edi, DWORD PTR _hComboBox$[esp+16]
  0000f	6a 00		 push	 0
  00011	6a 00		 push	 0
  00013	68 46 01 00 00	 push	 326			; 00000146H
  00018	57		 push	 edi
  00019	ff d3		 call	 ebx

; 1294 : 	LPARAM x, i;
; 1295 : 
; 1296 : 	for (i = 0; i < nCount; i++)

  0001b	8b 6c 24 1c	 mov	 ebp, DWORD PTR _algo_id$[esp+16]
  0001f	33 f6		 xor	 esi, esi
  00021	89 44 24 10	 mov	 DWORD PTR _nCount$[esp+20], eax
  00025	85 c0		 test	 eax, eax
  00027	7e 1e		 jle	 SHORT $LN2@SelectAlgo
  00029	8d a4 24 00 00
	00 00		 npad	 7
$LL4@SelectAlgo:

; 1297 : 	{
; 1298 : 		x = SendMessage (hComboBox, CB_GETITEMDATA, i, 0);

  00030	6a 00		 push	 0
  00032	56		 push	 esi
  00033	68 50 01 00 00	 push	 336			; 00000150H
  00038	57		 push	 edi
  00039	ff d3		 call	 ebx

; 1299 : 		if (x == (LPARAM) *algo_id)

  0003b	3b 45 00	 cmp	 eax, DWORD PTR [ebp]
  0003e	74 28		 je	 SHORT $LN8@SelectAlgo
  00040	46		 inc	 esi
  00041	3b 74 24 10	 cmp	 esi, DWORD PTR _nCount$[esp+20]
  00045	7c e9		 jl	 SHORT $LL4@SelectAlgo
$LN2@SelectAlgo:

; 1302 : 			return;
; 1303 : 		}
; 1304 : 	}
; 1305 : 
; 1306 : 	/* Something went wrong ; couldn't find the requested algo id so we drop
; 1307 : 	   back to a default */
; 1308 : 
; 1309 : 	*algo_id = SendMessage (hComboBox, CB_GETITEMDATA, 0, 0);

  00047	6a 00		 push	 0
  00049	6a 00		 push	 0
  0004b	68 50 01 00 00	 push	 336			; 00000150H
  00050	57		 push	 edi
  00051	ff d3		 call	 ebx

; 1310 : 
; 1311 : 	SendMessage (hComboBox, CB_SETCURSEL, 0, 0);

  00053	6a 00		 push	 0
  00055	6a 00		 push	 0
  00057	68 4e 01 00 00	 push	 334			; 0000014eH
  0005c	57		 push	 edi
  0005d	89 45 00	 mov	 DWORD PTR [ebp], eax
  00060	ff d3		 call	 ebx
  00062	5f		 pop	 edi
  00063	5e		 pop	 esi
  00064	5d		 pop	 ebp
  00065	5b		 pop	 ebx

; 1312 : 
; 1313 : }

  00066	59		 pop	 ecx
  00067	c3		 ret	 0
$LN8@SelectAlgo:

; 1300 : 		{
; 1301 : 			SendMessage (hComboBox, CB_SETCURSEL, i, 0);

  00068	6a 00		 push	 0
  0006a	56		 push	 esi

; 1310 : 
; 1311 : 	SendMessage (hComboBox, CB_SETCURSEL, 0, 0);

  0006b	68 4e 01 00 00	 push	 334			; 0000014eH
  00070	57		 push	 edi
  00071	ff d3		 call	 ebx
  00073	5f		 pop	 edi
  00074	5e		 pop	 esi
  00075	5d		 pop	 ebp
  00076	5b		 pop	 ebx

; 1312 : 
; 1313 : }

  00077	59		 pop	 ecx
  00078	c3		 ret	 0
_SelectAlgo ENDP
_TEXT	ENDS
PUBLIC	??_C@_0BF@OGMMPIGE@WIPE_MODE_35_GUTMANN?$AA@	; `string'
PUBLIC	??_C@_0BF@JKLBNOMP@WIPE_MODE_7_DOD_5220?$AA@	; `string'
PUBLIC	??_C@_0BF@CKGIKNEN@WIPE_MODE_3_DOD_5220?$AA@	; `string'
PUBLIC	??_C@_0BB@NCGBCPHN@WIPE_MODE_1_RAND?$AA@	; `string'
PUBLIC	??_C@_0P@GHLKBIBG@WIPE_MODE_NONE?$AA@		; `string'
PUBLIC	??_C@_0CA@KEHLKHJA@NOT_APPLICABLE_OR_NOT_AVAILABLE?$AA@ ; `string'
PUBLIC	_PopulateWipeModeCombo
;	COMDAT ??_C@_0BF@OGMMPIGE@WIPE_MODE_35_GUTMANN?$AA@
CONST	SEGMENT
??_C@_0BF@OGMMPIGE@WIPE_MODE_35_GUTMANN?$AA@ DB 'WIPE_MODE_35_GUTMANN', 00H ; `string'
CONST	ENDS
;	COMDAT ??_C@_0BF@JKLBNOMP@WIPE_MODE_7_DOD_5220?$AA@
CONST	SEGMENT
??_C@_0BF@JKLBNOMP@WIPE_MODE_7_DOD_5220?$AA@ DB 'WIPE_MODE_7_DOD_5220', 00H ; `string'
CONST	ENDS
;	COMDAT ??_C@_0BF@CKGIKNEN@WIPE_MODE_3_DOD_5220?$AA@
CONST	SEGMENT
??_C@_0BF@CKGIKNEN@WIPE_MODE_3_DOD_5220?$AA@ DB 'WIPE_MODE_3_DOD_5220', 00H ; `string'
CONST	ENDS
;	COMDAT ??_C@_0BB@NCGBCPHN@WIPE_MODE_1_RAND?$AA@
CONST	SEGMENT
??_C@_0BB@NCGBCPHN@WIPE_MODE_1_RAND?$AA@ DB 'WIPE_MODE_1_RAND', 00H ; `string'
CONST	ENDS
;	COMDAT ??_C@_0P@GHLKBIBG@WIPE_MODE_NONE?$AA@
CONST	SEGMENT
??_C@_0P@GHLKBIBG@WIPE_MODE_NONE?$AA@ DB 'WIPE_MODE_NONE', 00H ; `string'
CONST	ENDS
;	COMDAT ??_C@_0CA@KEHLKHJA@NOT_APPLICABLE_OR_NOT_AVAILABLE?$AA@
CONST	SEGMENT
??_C@_0CA@KEHLKHJA@NOT_APPLICABLE_OR_NOT_AVAILABLE?$AA@ DB 'NOT_APPLICABL'
	DB	'E_OR_NOT_AVAILABLE', 00H			; `string'
; Function compile flags: /Ogtpy
CONST	ENDS
;	COMDAT _PopulateWipeModeCombo
_TEXT	SEGMENT
_hComboBox$ = 8						; size = 4
_bNA$ = 12						; size = 4
_bInPlaceEncryption$ = 16				; size = 4
_PopulateWipeModeCombo PROC				; COMDAT

; 1317 : 	if (bNA)

  00000	83 7c 24 08 00	 cmp	 DWORD PTR _bNA$[esp-4], 0
  00005	56		 push	 esi
  00006	74 31		 je	 SHORT $LN4@PopulateWi

; 1318 : 	{
; 1319 : 		AddComboPairW (hComboBox, GetString ("NOT_APPLICABLE_OR_NOT_AVAILABLE"), TC_WIPE_NONE);

  00008	68 00 00 00 00	 push	 OFFSET ??_C@_0CA@KEHLKHJA@NOT_APPLICABLE_OR_NOT_AVAILABLE?$AA@
  0000d	e8 00 00 00 00	 call	 _GetString
  00012	8b 74 24 0c	 mov	 esi, DWORD PTR _hComboBox$[esp+4]
  00016	83 c4 04	 add	 esp, 4
  00019	50		 push	 eax
  0001a	6a 00		 push	 0
  0001c	68 43 01 00 00	 push	 323			; 00000143H
  00021	56		 push	 esi
  00022	ff 15 00 00 00
	00		 call	 DWORD PTR __imp__SendMessageW@16
  00028	6a 00		 push	 0
  0002a	50		 push	 eax
  0002b	68 51 01 00 00	 push	 337			; 00000151H
  00030	56		 push	 esi
  00031	ff 15 00 00 00
	00		 call	 DWORD PTR __imp__SendMessageA@16
  00037	5e		 pop	 esi

; 1331 : 	}
; 1332 : }

  00038	c3		 ret	 0
$LN4@PopulateWi:

; 1320 : 	}
; 1321 : 	else
; 1322 : 	{
; 1323 : 		if (bInPlaceEncryption)

  00039	83 7c 24 10 00	 cmp	 DWORD PTR _bInPlaceEncryption$[esp], 0
  0003e	53		 push	 ebx
  0003f	57		 push	 edi
  00040	74 26		 je	 SHORT $LN2@PopulateWi

; 1324 : 			AddComboPairW (hComboBox, GetString ("WIPE_MODE_NONE"), TC_WIPE_NONE);

  00042	68 00 00 00 00	 push	 OFFSET ??_C@_0P@GHLKBIBG@WIPE_MODE_NONE?$AA@
  00047	e8 00 00 00 00	 call	 _GetString
  0004c	8b 74 24 14	 mov	 esi, DWORD PTR _hComboBox$[esp+12]
  00050	8b 3d 00 00 00
	00		 mov	 edi, DWORD PTR __imp__SendMessageW@16
  00056	83 c4 04	 add	 esp, 4
  00059	50		 push	 eax
  0005a	6a 00		 push	 0
  0005c	68 43 01 00 00	 push	 323			; 00000143H
  00061	56		 push	 esi
  00062	ff d7		 call	 edi
  00064	6a 00		 push	 0

; 1325 : 		else

  00066	eb 24		 jmp	 SHORT $LN19@PopulateWi
$LN2@PopulateWi:

; 1326 : 			AddComboPairW (hComboBox, GetString ("WIPE_MODE_1_RAND"), TC_WIPE_1_RAND);

  00068	68 00 00 00 00	 push	 OFFSET ??_C@_0BB@NCGBCPHN@WIPE_MODE_1_RAND?$AA@
  0006d	e8 00 00 00 00	 call	 _GetString
  00072	8b 74 24 14	 mov	 esi, DWORD PTR _hComboBox$[esp+12]
  00076	8b 3d 00 00 00
	00		 mov	 edi, DWORD PTR __imp__SendMessageW@16
  0007c	83 c4 04	 add	 esp, 4
  0007f	50		 push	 eax
  00080	6a 00		 push	 0
  00082	68 43 01 00 00	 push	 323			; 00000143H
  00087	56		 push	 esi
  00088	ff d7		 call	 edi
  0008a	6a 64		 push	 100			; 00000064H
$LN19@PopulateWi:
  0008c	8b 1d 00 00 00
	00		 mov	 ebx, DWORD PTR __imp__SendMessageA@16
  00092	50		 push	 eax
  00093	68 51 01 00 00	 push	 337			; 00000151H
  00098	56		 push	 esi
  00099	ff d3		 call	 ebx

; 1327 : 
; 1328 : 		AddComboPairW (hComboBox, GetString ("WIPE_MODE_3_DOD_5220"), TC_WIPE_3_DOD_5220);

  0009b	68 00 00 00 00	 push	 OFFSET ??_C@_0BF@CKGIKNEN@WIPE_MODE_3_DOD_5220?$AA@
  000a0	e8 00 00 00 00	 call	 _GetString
  000a5	83 c4 04	 add	 esp, 4
  000a8	50		 push	 eax
  000a9	6a 00		 push	 0
  000ab	68 43 01 00 00	 push	 323			; 00000143H
  000b0	56		 push	 esi
  000b1	ff d7		 call	 edi
  000b3	68 2c 01 00 00	 push	 300			; 0000012cH
  000b8	50		 push	 eax
  000b9	68 51 01 00 00	 push	 337			; 00000151H
  000be	56		 push	 esi
  000bf	ff d3		 call	 ebx

; 1329 : 		AddComboPairW (hComboBox, GetString ("WIPE_MODE_7_DOD_5220"), TC_WIPE_7_DOD_5220);

  000c1	68 00 00 00 00	 push	 OFFSET ??_C@_0BF@JKLBNOMP@WIPE_MODE_7_DOD_5220?$AA@
  000c6	e8 00 00 00 00	 call	 _GetString
  000cb	83 c4 04	 add	 esp, 4
  000ce	50		 push	 eax
  000cf	6a 00		 push	 0
  000d1	68 43 01 00 00	 push	 323			; 00000143H
  000d6	56		 push	 esi
  000d7	ff d7		 call	 edi
  000d9	68 bc 02 00 00	 push	 700			; 000002bcH
  000de	50		 push	 eax
  000df	68 51 01 00 00	 push	 337			; 00000151H
  000e4	56		 push	 esi
  000e5	ff d3		 call	 ebx

; 1330 : 		AddComboPairW (hComboBox, GetString ("WIPE_MODE_35_GUTMANN"), TC_WIPE_35_GUTMANN);

  000e7	68 00 00 00 00	 push	 OFFSET ??_C@_0BF@OGMMPIGE@WIPE_MODE_35_GUTMANN?$AA@
  000ec	e8 00 00 00 00	 call	 _GetString
  000f1	83 c4 04	 add	 esp, 4
  000f4	50		 push	 eax
  000f5	6a 00		 push	 0
  000f7	68 43 01 00 00	 push	 323			; 00000143H
  000fc	56		 push	 esi
  000fd	ff d7		 call	 edi
  000ff	68 ac 0d 00 00	 push	 3500			; 00000dacH
  00104	50		 push	 eax
  00105	68 51 01 00 00	 push	 337			; 00000151H
  0010a	56		 push	 esi
  0010b	ff d3		 call	 ebx
  0010d	5f		 pop	 edi
  0010e	5b		 pop	 ebx
  0010f	5e		 pop	 esi

; 1331 : 	}
; 1332 : }

  00110	c3		 ret	 0
_PopulateWipeModeCombo ENDP
_TEXT	ENDS
PUBLIC	_GetWipeModeName
; Function compile flags: /Ogtpy
;	COMDAT _GetWipeModeName
_TEXT	SEGMENT
_modeId$ = 8						; size = 4
_GetWipeModeName PROC					; COMDAT

; 1336 : 	switch (modeId)

  00000	8b 44 24 04	 mov	 eax, DWORD PTR _modeId$[esp-4]
  00004	3d 2c 01 00 00	 cmp	 eax, 300		; 0000012cH
  00009	7f 32		 jg	 SHORT $LN11@GetWipeMod
  0000b	74 23		 je	 SHORT $LN4@GetWipeMod
  0000d	85 c0		 test	 eax, eax
  0000f	74 12		 je	 SHORT $LN6@GetWipeMod
  00011	83 f8 64	 cmp	 eax, 100		; 00000064H
  00014	75 35		 jne	 SHORT $LN1@GetWipeMod

; 1340 : 
; 1341 : 	case TC_WIPE_1_RAND:
; 1342 : 		return GetString ("WIPE_MODE_1_RAND");

  00016	c7 44 24 04 00
	00 00 00	 mov	 DWORD PTR _modeId$[esp-4], OFFSET ??_C@_0BB@NCGBCPHN@WIPE_MODE_1_RAND?$AA@
  0001e	e9 00 00 00 00	 jmp	 _GetString
$LN6@GetWipeMod:

; 1337 : 	{
; 1338 : 	case TC_WIPE_NONE:
; 1339 : 		return GetString ("WIPE_MODE_NONE");

  00023	c7 44 24 04 00
	00 00 00	 mov	 DWORD PTR _modeId$[esp-4], OFFSET ??_C@_0P@GHLKBIBG@WIPE_MODE_NONE?$AA@
  0002b	e9 00 00 00 00	 jmp	 _GetString
$LN4@GetWipeMod:

; 1343 : 
; 1344 : 	case TC_WIPE_3_DOD_5220:
; 1345 : 		return GetString ("WIPE_MODE_3_DOD_5220");

  00030	c7 44 24 04 00
	00 00 00	 mov	 DWORD PTR _modeId$[esp-4], OFFSET ??_C@_0BF@CKGIKNEN@WIPE_MODE_3_DOD_5220?$AA@
  00038	e9 00 00 00 00	 jmp	 _GetString
$LN11@GetWipeMod:

; 1336 : 	switch (modeId)

  0003d	3d bc 02 00 00	 cmp	 eax, 700		; 000002bcH
  00042	74 21		 je	 SHORT $LN3@GetWipeMod
  00044	3d ac 0d 00 00	 cmp	 eax, 3500		; 00000dacH
  00049	74 0d		 je	 SHORT $LN2@GetWipeMod
$LN1@GetWipeMod:

; 1352 : 
; 1353 : 	default:
; 1354 : 		return GetString ("NOT_APPLICABLE_OR_NOT_AVAILABLE");

  0004b	c7 44 24 04 00
	00 00 00	 mov	 DWORD PTR _modeId$[esp-4], OFFSET ??_C@_0CA@KEHLKHJA@NOT_APPLICABLE_OR_NOT_AVAILABLE?$AA@
  00053	e9 00 00 00 00	 jmp	 _GetString
$LN2@GetWipeMod:

; 1349 : 
; 1350 : 	case TC_WIPE_35_GUTMANN:
; 1351 : 		return GetString ("WIPE_MODE_35_GUTMANN");

  00058	c7 44 24 04 00
	00 00 00	 mov	 DWORD PTR _modeId$[esp-4], OFFSET ??_C@_0BF@OGMMPIGE@WIPE_MODE_35_GUTMANN?$AA@
  00060	e9 00 00 00 00	 jmp	 _GetString
$LN3@GetWipeMod:

; 1346 : 
; 1347 : 	case TC_WIPE_7_DOD_5220:
; 1348 : 		return GetString ("WIPE_MODE_7_DOD_5220");

  00065	c7 44 24 04 00
	00 00 00	 mov	 DWORD PTR _modeId$[esp-4], OFFSET ??_C@_0BF@JKLBNOMP@WIPE_MODE_7_DOD_5220?$AA@
  0006d	e9 00 00 00 00	 jmp	 _GetString
_GetWipeModeName ENDP
_TEXT	ENDS
PUBLIC	??_C@_0BC@CGMNKFDG@DEVICE_LOWER_CASE?$AA@	; `string'
PUBLIC	??_C@_0BC@EBLCOINE@DEVICE_UPPER_CASE?$AA@	; `string'
PUBLIC	??_C@_0BC@OHAOKKGN@VOLUME_LOWER_CASE?$AA@	; `string'
PUBLIC	??_C@_0BC@IAHBOHIP@VOLUME_UPPER_CASE?$AA@	; `string'
PUBLIC	??_C@_0P@KFCBFOIJ@HarddiskVolume?$AA@		; `string'
PUBLIC	??_C@_0BF@DEJBIFMK@PARTITION_LOWER_CASE?$AA@	; `string'
PUBLIC	??_C@_0BF@FDOOMICI@PARTITION_UPPER_CASE?$AA@	; `string'
PUBLIC	??_C@_0L@MAFJOMBB@Partition0?$AA@		; `string'
PUBLIC	??_C@_09MFFJIMND@Partition?$AA@			; `string'
PUBLIC	_GetPathType
;	COMDAT ??_C@_0BC@CGMNKFDG@DEVICE_LOWER_CASE?$AA@
CONST	SEGMENT
??_C@_0BC@CGMNKFDG@DEVICE_LOWER_CASE?$AA@ DB 'DEVICE_LOWER_CASE', 00H ; `string'
CONST	ENDS
;	COMDAT ??_C@_0BC@EBLCOINE@DEVICE_UPPER_CASE?$AA@
CONST	SEGMENT
??_C@_0BC@EBLCOINE@DEVICE_UPPER_CASE?$AA@ DB 'DEVICE_UPPER_CASE', 00H ; `string'
CONST	ENDS
;	COMDAT ??_C@_0BC@OHAOKKGN@VOLUME_LOWER_CASE?$AA@
CONST	SEGMENT
??_C@_0BC@OHAOKKGN@VOLUME_LOWER_CASE?$AA@ DB 'VOLUME_LOWER_CASE', 00H ; `string'
CONST	ENDS
;	COMDAT ??_C@_0BC@IAHBOHIP@VOLUME_UPPER_CASE?$AA@
CONST	SEGMENT
??_C@_0BC@IAHBOHIP@VOLUME_UPPER_CASE?$AA@ DB 'VOLUME_UPPER_CASE', 00H ; `string'
CONST	ENDS
;	COMDAT ??_C@_0P@KFCBFOIJ@HarddiskVolume?$AA@
CONST	SEGMENT
??_C@_0P@KFCBFOIJ@HarddiskVolume?$AA@ DB 'HarddiskVolume', 00H ; `string'
CONST	ENDS
;	COMDAT ??_C@_0BF@DEJBIFMK@PARTITION_LOWER_CASE?$AA@
CONST	SEGMENT
??_C@_0BF@DEJBIFMK@PARTITION_LOWER_CASE?$AA@ DB 'PARTITION_LOWER_CASE', 00H ; `string'
CONST	ENDS
;	COMDAT ??_C@_0BF@FDOOMICI@PARTITION_UPPER_CASE?$AA@
CONST	SEGMENT
??_C@_0BF@FDOOMICI@PARTITION_UPPER_CASE?$AA@ DB 'PARTITION_UPPER_CASE', 00H ; `string'
CONST	ENDS
;	COMDAT ??_C@_0L@MAFJOMBB@Partition0?$AA@
CONST	SEGMENT
??_C@_0L@MAFJOMBB@Partition0?$AA@ DB 'Partition0', 00H	; `string'
CONST	ENDS
;	COMDAT ??_C@_09MFFJIMND@Partition?$AA@
CONST	SEGMENT
??_C@_09MFFJIMND@Partition?$AA@ DB 'Partition', 00H	; `string'
; Function compile flags: /Ogtpy
CONST	ENDS
;	COMDAT _GetPathType
_TEXT	SEGMENT
_path$ = 8						; size = 4
_bUpperCase$ = 12					; size = 4
_bIsPartition$ = 16					; size = 4
_GetPathType PROC					; COMDAT

; 1359 : {

  00000	56		 push	 esi

; 1360 : 	if (strstr (path, "Partition")
; 1361 : 		&& strstr (path, "Partition0") == NULL)

  00001	8b 74 24 08	 mov	 esi, DWORD PTR _path$[esp]
  00005	68 00 00 00 00	 push	 OFFSET ??_C@_09MFFJIMND@Partition?$AA@
  0000a	56		 push	 esi
  0000b	e8 00 00 00 00	 call	 _strstr
  00010	83 c4 08	 add	 esp, 8
  00013	85 c0		 test	 eax, eax
  00015	74 38		 je	 SHORT $LN3@GetPathTyp
  00017	68 00 00 00 00	 push	 OFFSET ??_C@_0L@MAFJOMBB@Partition0?$AA@
  0001c	56		 push	 esi
  0001d	e8 00 00 00 00	 call	 _strstr
  00022	83 c4 08	 add	 esp, 8
  00025	85 c0		 test	 eax, eax
  00027	75 26		 jne	 SHORT $LN3@GetPathTyp

; 1362 : 	{
; 1363 : 		*bIsPartition = TRUE;
; 1364 : 		return GetString (bUpperCase ? "PARTITION_UPPER_CASE" : "PARTITION_LOWER_CASE");

  00029	83 7c 24 0c 00	 cmp	 DWORD PTR _bUpperCase$[esp], 0
  0002e	8b 44 24 10	 mov	 eax, DWORD PTR _bIsPartition$[esp]
  00032	c7 00 01 00 00
	00		 mov	 DWORD PTR [eax], 1
  00038	b8 00 00 00 00	 mov	 eax, OFFSET ??_C@_0BF@FDOOMICI@PARTITION_UPPER_CASE?$AA@
  0003d	75 63		 jne	 SHORT $LN11@GetPathTyp
  0003f	b8 00 00 00 00	 mov	 eax, OFFSET ??_C@_0BF@DEJBIFMK@PARTITION_LOWER_CASE?$AA@

; 1370 : 	}
; 1371 : 
; 1372 : 	*bIsPartition = FALSE;
; 1373 : 	return GetString (bUpperCase ? "DEVICE_UPPER_CASE" : "DEVICE_LOWER_CASE");

  00044	50		 push	 eax
  00045	e8 00 00 00 00	 call	 _GetString
  0004a	83 c4 04	 add	 esp, 4
  0004d	5e		 pop	 esi

; 1374 : }

  0004e	c3		 ret	 0
$LN3@GetPathTyp:

; 1365 : 	}
; 1366 : 	else if (strstr (path, "HarddiskVolume"))

  0004f	68 00 00 00 00	 push	 OFFSET ??_C@_0P@KFCBFOIJ@HarddiskVolume?$AA@
  00054	56		 push	 esi
  00055	e8 00 00 00 00	 call	 _strstr
  0005a	83 c4 08	 add	 esp, 8
  0005d	85 c0		 test	 eax, eax
  0005f	74 26		 je	 SHORT $LN1@GetPathTyp

; 1367 : 	{
; 1368 : 		*bIsPartition = TRUE;
; 1369 : 		return GetString (bUpperCase ? "VOLUME_UPPER_CASE" : "VOLUME_LOWER_CASE");

  00061	83 7c 24 0c 00	 cmp	 DWORD PTR _bUpperCase$[esp], 0
  00066	8b 4c 24 10	 mov	 ecx, DWORD PTR _bIsPartition$[esp]
  0006a	c7 01 01 00 00
	00		 mov	 DWORD PTR [ecx], 1
  00070	b8 00 00 00 00	 mov	 eax, OFFSET ??_C@_0BC@IAHBOHIP@VOLUME_UPPER_CASE?$AA@
  00075	75 2b		 jne	 SHORT $LN11@GetPathTyp
  00077	b8 00 00 00 00	 mov	 eax, OFFSET ??_C@_0BC@OHAOKKGN@VOLUME_LOWER_CASE?$AA@

; 1370 : 	}
; 1371 : 
; 1372 : 	*bIsPartition = FALSE;
; 1373 : 	return GetString (bUpperCase ? "DEVICE_UPPER_CASE" : "DEVICE_LOWER_CASE");

  0007c	50		 push	 eax
  0007d	e8 00 00 00 00	 call	 _GetString
  00082	83 c4 04	 add	 esp, 4
  00085	5e		 pop	 esi

; 1374 : }

  00086	c3		 ret	 0
$LN1@GetPathTyp:

; 1370 : 	}
; 1371 : 
; 1372 : 	*bIsPartition = FALSE;
; 1373 : 	return GetString (bUpperCase ? "DEVICE_UPPER_CASE" : "DEVICE_LOWER_CASE");

  00087	83 7c 24 0c 00	 cmp	 DWORD PTR _bUpperCase$[esp], 0
  0008c	8b 54 24 10	 mov	 edx, DWORD PTR _bIsPartition$[esp]
  00090	c7 02 00 00 00
	00		 mov	 DWORD PTR [edx], 0
  00096	b8 00 00 00 00	 mov	 eax, OFFSET ??_C@_0BC@EBLCOINE@DEVICE_UPPER_CASE?$AA@
  0009b	75 05		 jne	 SHORT $LN11@GetPathTyp
  0009d	b8 00 00 00 00	 mov	 eax, OFFSET ??_C@_0BC@CGMNKFDG@DEVICE_LOWER_CASE?$AA@
$LN11@GetPathTyp:
  000a2	50		 push	 eax
  000a3	e8 00 00 00 00	 call	 _GetString
  000a8	83 c4 04	 add	 esp, 4
  000ab	5e		 pop	 esi

; 1374 : }

  000ac	c3		 ret	 0
_GetPathType ENDP
_TEXT	ENDS
PUBLIC	_CustomDlgProc@16
EXTRN	__imp__SetCursor@4:PROC
EXTRN	_hCursor:DWORD
; Function compile flags: /Ogtpy
;	COMDAT _CustomDlgProc@16
_TEXT	SEGMENT
_hwnd$ = 8						; size = 4
_uMsg$ = 12						; size = 4
_wParam$ = 16						; size = 4
_lParam$ = 20						; size = 4
_CustomDlgProc@16 PROC					; COMDAT

; 1378 : 	if (uMsg == WM_SETCURSOR && hCursor != NULL)

  00000	8b 4c 24 08	 mov	 ecx, DWORD PTR _uMsg$[esp-4]
  00004	83 f9 20	 cmp	 ecx, 32			; 00000020H
  00007	75 18		 jne	 SHORT $LN1@CustomDlgP
  00009	a1 00 00 00 00	 mov	 eax, DWORD PTR _hCursor
  0000e	85 c0		 test	 eax, eax
  00010	74 0f		 je	 SHORT $LN1@CustomDlgP

; 1379 : 	{
; 1380 : 		SetCursor (hCursor);

  00012	50		 push	 eax
  00013	ff 15 00 00 00
	00		 call	 DWORD PTR __imp__SetCursor@4

; 1381 : 		return TRUE;

  00019	b8 01 00 00 00	 mov	 eax, 1

; 1385 : }

  0001e	c2 10 00	 ret	 16			; 00000010H
$LN1@CustomDlgP:

; 1382 : 	}
; 1383 : 
; 1384 : 	return DefDlgProc (hwnd, uMsg, wParam, lParam);

  00021	89 4c 24 08	 mov	 DWORD PTR _uMsg$[esp-4], ecx
  00025	ff 25 00 00 00
	00		 jmp	 DWORD PTR __imp__DefDlgProcA@16
_CustomDlgProc@16 ENDP
_TEXT	ENDS
EXTRN	__imp__VirtualQuery@12:PROC
;	COMDAT ?codeEnd@?1??IsReturnAddress@@YAH_K@Z@4IA
_BSS	SEGMENT
?codeEnd@?1??IsReturnAddress@@YAH_K@Z@4IA DD 01H DUP (?) ; `IsReturnAddress'::`2'::codeEnd
; Function compile flags: /Ogtpy
_BSS	ENDS
;	COMDAT ?IsReturnAddress@@YAH_K@Z
_TEXT	SEGMENT
_mi$138495 = -28					; size = 28
_address$ = 8						; size = 8
?IsReturnAddress@@YAH_K@Z PROC				; IsReturnAddress, COMDAT

; 1389 : {

  00000	83 ec 1c	 sub	 esp, 28			; 0000001cH

; 1390 : 	static size_t codeEnd = 0;
; 1391 : 	byte *sp = (byte *) address;
; 1392 : 
; 1393 : 	if (codeEnd == 0)

  00003	83 3d 00 00 00
	00 00		 cmp	 DWORD PTR ?codeEnd@?1??IsReturnAddress@@YAH_K@Z@4IA, 0
  0000a	75 26		 jne	 SHORT $LN3@IsReturnAd

; 1394 : 	{
; 1395 : 		MEMORY_BASIC_INFORMATION mi;
; 1396 : 		if (VirtualQuery ((LPCVOID) 0x401000, &mi, sizeof (mi)) >= sizeof (mi))

  0000c	6a 1c		 push	 28			; 0000001cH
  0000e	8d 44 24 04	 lea	 eax, DWORD PTR _mi$138495[esp+32]
  00012	50		 push	 eax
  00013	68 00 10 40 00	 push	 4198400			; 00401000H
  00018	ff 15 00 00 00
	00		 call	 DWORD PTR __imp__VirtualQuery@12
  0001e	83 f8 1c	 cmp	 eax, 28			; 0000001cH
  00021	72 0f		 jb	 SHORT $LN3@IsReturnAd

; 1397 : 			codeEnd = (size_t) mi.BaseAddress + mi.RegionSize;

  00023	8b 4c 24 0c	 mov	 ecx, DWORD PTR _mi$138495[esp+40]
  00027	8b 14 24	 mov	 edx, DWORD PTR _mi$138495[esp+28]
  0002a	03 ca		 add	 ecx, edx
  0002c	89 0d 00 00 00
	00		 mov	 DWORD PTR ?codeEnd@?1??IsReturnAddress@@YAH_K@Z@4IA, ecx
$LN3@IsReturnAd:

; 1398 : 	}
; 1399 : 
; 1400 : 	if (address < 0x401000 + 8 || address > codeEnd)

  00032	8b 54 24 24	 mov	 edx, DWORD PTR _address$[esp+28]
  00036	8b 44 24 20	 mov	 eax, DWORD PTR _address$[esp+24]
  0003a	85 d2		 test	 edx, edx
  0003c	77 07		 ja	 SHORT $LN11@IsReturnAd
  0003e	3d 08 10 40 00	 cmp	 eax, 4198408		; 00401008H
  00043	72 3b		 jb	 SHORT $LN1@IsReturnAd
$LN11@IsReturnAd:
  00045	33 c9		 xor	 ecx, ecx
  00047	3b d1		 cmp	 edx, ecx
  00049	77 35		 ja	 SHORT $LN1@IsReturnAd
  0004b	72 08		 jb	 SHORT $LN12@IsReturnAd
  0004d	3b 05 00 00 00
	00		 cmp	 eax, DWORD PTR ?codeEnd@?1??IsReturnAddress@@YAH_K@Z@4IA
  00053	77 2b		 ja	 SHORT $LN1@IsReturnAd
$LN12@IsReturnAd:

; 1402 : 
; 1403 : 	return sp[-5] == 0xe8									// call ADDR
; 1404 : 		|| (sp[-6] == 0xff && sp[-5] == 0x15)				// call [ADDR]
; 1405 : 		|| (sp[-2] == 0xff && (sp[-1] & 0xf0) == 0xd0);		// call REG

  00055	8a 48 fb	 mov	 cl, BYTE PTR [eax-5]
  00058	80 f9 e8	 cmp	 cl, 232			; 000000e8H
  0005b	74 1a		 je	 SHORT $LN8@IsReturnAd
  0005d	b2 ff		 mov	 dl, 255			; 000000ffH
  0005f	38 50 fa	 cmp	 BYTE PTR [eax-6], dl
  00062	75 05		 jne	 SHORT $LN7@IsReturnAd
  00064	80 f9 15	 cmp	 cl, 21			; 00000015H
  00067	74 0e		 je	 SHORT $LN8@IsReturnAd
$LN7@IsReturnAd:
  00069	38 50 fe	 cmp	 BYTE PTR [eax-2], dl
  0006c	75 12		 jne	 SHORT $LN1@IsReturnAd
  0006e	8a 40 ff	 mov	 al, BYTE PTR [eax-1]
  00071	24 f0		 and	 al, 240			; 000000f0H
  00073	3c d0		 cmp	 al, 208			; 000000d0H
  00075	75 09		 jne	 SHORT $LN1@IsReturnAd
$LN8@IsReturnAd:
  00077	b8 01 00 00 00	 mov	 eax, 1

; 1406 : }

  0007c	83 c4 1c	 add	 esp, 28			; 0000001cH
  0007f	c3		 ret	 0
$LN1@IsReturnAd:

; 1401 : 		return FALSE;

  00080	33 c0		 xor	 eax, eax

; 1406 : }

  00082	83 c4 1c	 add	 esp, 28			; 0000001cH
  00085	c3		 ret	 0
?IsReturnAddress@@YAH_K@Z ENDP				; IsReturnAddress
_TEXT	ENDS
PUBLIC	?InvalidParameterHandler@@YAXPB_W00II@Z		; InvalidParameterHandler
; Function compile flags: /Ogtpy
;	COMDAT ?InvalidParameterHandler@@YAXPB_W00II@Z
_TEXT	SEGMENT
_expression$ = 8					; size = 4
_function$ = 12						; size = 4
_file$ = 16						; size = 4
_line$ = 20						; size = 4
_reserved$ = 24						; size = 4
?InvalidParameterHandler@@YAXPB_W00II@Z PROC		; InvalidParameterHandler, COMDAT

; 1642 : 	TC_THROW_FATAL_EXCEPTION;

  00000	c6 05 00 00 00
	00 00		 mov	 BYTE PTR ds:0, 0

; 1643 : }

  00007	c3		 ret	 0
?InvalidParameterHandler@@YAXPB_W00II@Z ENDP		; InvalidParameterHandler
_TEXT	ENDS
PUBLIC	_InstanceHasSysEncMutex
; Function compile flags: /Ogtpy
;	COMDAT _InstanceHasSysEncMutex
_TEXT	SEGMENT
_InstanceHasSysEncMutex PROC				; COMDAT

; 1662 : 	return (hSysEncMutex != NULL);

  00000	a1 00 00 00 00	 mov	 eax, DWORD PTR ?hSysEncMutex@@3RAXA ; hSysEncMutex
  00005	f7 d8		 neg	 eax
  00007	1b c0		 sbb	 eax, eax
  00009	f7 d8		 neg	 eax

; 1663 : }

  0000b	c3		 ret	 0
_InstanceHasSysEncMutex ENDP
_TEXT	ENDS
PUBLIC	_InstanceHasNonSysInplaceEncMutex
; Function compile flags: /Ogtpy
;	COMDAT _InstanceHasNonSysInplaceEncMutex
_TEXT	SEGMENT
_InstanceHasNonSysInplaceEncMutex PROC			; COMDAT

; 1682 : 	return (hNonSysInplaceEncMutex != NULL);

  00000	a1 00 00 00 00	 mov	 eax, DWORD PTR ?hNonSysInplaceEncMutex@@3RAXA ; hNonSysInplaceEncMutex
  00005	f7 d8		 neg	 eax
  00007	1b c0		 sbb	 eax, eax
  00009	f7 d8		 neg	 eax

; 1683 : }

  0000b	c3		 ret	 0
_InstanceHasNonSysInplaceEncMutex ENDP
_TEXT	ENDS
PUBLIC	_TCCreateMutex
EXTRN	__imp__CloseHandle@4:PROC
EXTRN	__imp__ReleaseMutex@4:PROC
EXTRN	__imp__GetLastError@0:PROC
EXTRN	__imp__CreateMutexA@12:PROC
; Function compile flags: /Ogtpy
;	COMDAT _TCCreateMutex
_TEXT	SEGMENT
_hMutex$ = 8						; size = 4
_name$ = 12						; size = 4
_TCCreateMutex PROC					; COMDAT

; 1735 : {

  00000	56		 push	 esi

; 1736 : 	if (*hMutex != NULL)

  00001	8b 74 24 08	 mov	 esi, DWORD PTR _hMutex$[esp]
  00005	8b 06		 mov	 eax, DWORD PTR [esi]
  00007	85 c0		 test	 eax, eax

; 1737 : 		return TRUE;	// This instance already has the mutex

  00009	75 3f		 jne	 SHORT $LN1@TCCreateMu

; 1738 : 
; 1739 : 	*hMutex = CreateMutex (NULL, TRUE, name);

  0000b	8b 4c 24 0c	 mov	 ecx, DWORD PTR _name$[esp]
  0000f	51		 push	 ecx
  00010	6a 01		 push	 1
  00012	50		 push	 eax
  00013	ff 15 00 00 00
	00		 call	 DWORD PTR __imp__CreateMutexA@12
  00019	89 06		 mov	 DWORD PTR [esi], eax

; 1740 : 	if (*hMutex == NULL)

  0001b	8b 16		 mov	 edx, DWORD PTR [esi]
  0001d	85 d2		 test	 edx, edx

; 1741 : 	{
; 1742 : 		// In multi-user configurations, the OS returns "Access is denied" here when a user attempts
; 1743 : 		// to acquire the mutex if another user already has. However, on Vista, "Access is denied" is
; 1744 : 		// returned also if the mutex is owned by a process with admin rights while we have none.
; 1745 : 
; 1746 : 		return FALSE;

  0001f	74 25		 je	 SHORT $LN6@TCCreateMu

; 1747 : 	}
; 1748 : 
; 1749 : 	if (GetLastError () == ERROR_ALREADY_EXISTS)

  00021	ff 15 00 00 00
	00		 call	 DWORD PTR __imp__GetLastError@0
  00027	3d b7 00 00 00	 cmp	 eax, 183		; 000000b7H
  0002c	75 1c		 jne	 SHORT $LN1@TCCreateMu

; 1750 : 	{
; 1751 : 		ReleaseMutex (*hMutex);

  0002e	8b 06		 mov	 eax, DWORD PTR [esi]
  00030	50		 push	 eax
  00031	ff 15 00 00 00
	00		 call	 DWORD PTR __imp__ReleaseMutex@4

; 1752 : 		CloseHandle (*hMutex);

  00037	8b 0e		 mov	 ecx, DWORD PTR [esi]
  00039	51		 push	 ecx
  0003a	ff 15 00 00 00
	00		 call	 DWORD PTR __imp__CloseHandle@4

; 1753 : 
; 1754 : 		*hMutex = NULL;

  00040	c7 06 00 00 00
	00		 mov	 DWORD PTR [esi], 0
$LN6@TCCreateMu:

; 1755 : 		return FALSE;

  00046	33 c0		 xor	 eax, eax
  00048	5e		 pop	 esi

; 1759 : }

  00049	c3		 ret	 0
$LN1@TCCreateMu:

; 1756 : 	}
; 1757 : 
; 1758 : 	return TRUE;

  0004a	b8 01 00 00 00	 mov	 eax, 1
  0004f	5e		 pop	 esi

; 1759 : }

  00050	c3		 ret	 0
_TCCreateMutex ENDP
_TEXT	ENDS
PUBLIC	_TCCloseMutex
; Function compile flags: /Ogtpy
;	COMDAT _TCCloseMutex
_TEXT	SEGMENT
_hMutex$ = 8						; size = 4
_TCCloseMutex PROC					; COMDAT

; 1763 : {

  00000	56		 push	 esi

; 1764 : 	if (*hMutex != NULL)

  00001	8b 74 24 08	 mov	 esi, DWORD PTR _hMutex$[esp]
  00005	8b 06		 mov	 eax, DWORD PTR [esi]
  00007	85 c0		 test	 eax, eax
  00009	74 20		 je	 SHORT $LN1@TCCloseMut

; 1765 : 	{
; 1766 : 		if (ReleaseMutex (*hMutex)
; 1767 : 			&& CloseHandle (*hMutex))

  0000b	8b 0e		 mov	 ecx, DWORD PTR [esi]
  0000d	51		 push	 ecx
  0000e	ff 15 00 00 00
	00		 call	 DWORD PTR __imp__ReleaseMutex@4
  00014	85 c0		 test	 eax, eax
  00016	74 13		 je	 SHORT $LN1@TCCloseMut
  00018	8b 16		 mov	 edx, DWORD PTR [esi]
  0001a	52		 push	 edx
  0001b	ff 15 00 00 00
	00		 call	 DWORD PTR __imp__CloseHandle@4
  00021	85 c0		 test	 eax, eax
  00023	74 06		 je	 SHORT $LN1@TCCloseMut

; 1768 : 			*hMutex = NULL;

  00025	c7 06 00 00 00
	00		 mov	 DWORD PTR [esi], 0
$LN1@TCCloseMut:
  0002b	5e		 pop	 esi

; 1769 : 	}
; 1770 : }

  0002c	c3		 ret	 0
_TCCloseMutex ENDP
_TEXT	ENDS
PUBLIC	_MutexExistsOnSystem
EXTRN	__imp__OpenMutexA@12:PROC
; Function compile flags: /Ogtpy
;	COMDAT _MutexExistsOnSystem
_TEXT	SEGMENT
_name$ = 8						; size = 4
_MutexExistsOnSystem PROC				; COMDAT

; 1776 : 	if (name[0] == 0)

  00000	8b 44 24 04	 mov	 eax, DWORD PTR _name$[esp-4]
  00004	80 38 00	 cmp	 BYTE PTR [eax], 0
  00007	75 03		 jne	 SHORT $LN4@MutexExist

; 1777 : 		return FALSE;

  00009	33 c0		 xor	 eax, eax

; 1795 : }

  0000b	c3		 ret	 0
$LN4@MutexExist:

; 1778 : 
; 1779 : 	HANDLE hMutex = OpenMutex (MUTEX_ALL_ACCESS, FALSE, name);

  0000c	50		 push	 eax
  0000d	6a 00		 push	 0
  0000f	68 01 00 1f 00	 push	 2031617			; 001f0001H
  00014	ff 15 00 00 00
	00		 call	 DWORD PTR __imp__OpenMutexA@12

; 1780 : 
; 1781 : 	if (hMutex == NULL)

  0001a	85 c0		 test	 eax, eax
  0001c	75 20		 jne	 SHORT $LN3@MutexExist
  0001e	56		 push	 esi

; 1782 : 	{
; 1783 : 		if (GetLastError () == ERROR_FILE_NOT_FOUND)

  0001f	8b 35 00 00 00
	00		 mov	 esi, DWORD PTR __imp__GetLastError@0
  00025	ff d6		 call	 esi
  00027	83 f8 02	 cmp	 eax, 2
  0002a	75 04		 jne	 SHORT $LN2@MutexExist

; 1784 : 			return FALSE;

  0002c	33 c0		 xor	 eax, eax
  0002e	5e		 pop	 esi

; 1795 : }

  0002f	c3		 ret	 0
$LN2@MutexExist:

; 1785 : 
; 1786 : 		if (GetLastError () == ERROR_ACCESS_DENIED) // On Vista, this is returned if the owner of the mutex is elevated while we are not

  00030	ff d6		 call	 esi
  00032	33 c9		 xor	 ecx, ecx
  00034	83 f8 05	 cmp	 eax, 5
  00037	0f 94 c1	 sete	 cl
  0003a	5e		 pop	 esi
  0003b	8b c1		 mov	 eax, ecx

; 1795 : }

  0003d	c3		 ret	 0
$LN3@MutexExist:

; 1787 : 			return TRUE;		
; 1788 : 
; 1789 : 		// The call failed and it is not certain whether the mutex exists or not
; 1790 : 		return FALSE;
; 1791 : 	}
; 1792 : 
; 1793 : 	CloseHandle (hMutex);

  0003e	50		 push	 eax
  0003f	ff 15 00 00 00
	00		 call	 DWORD PTR __imp__CloseHandle@4

; 1794 : 	return TRUE;

  00045	b8 01 00 00 00	 mov	 eax, 1

; 1795 : }

  0004a	c3		 ret	 0
_MutexExistsOnSystem ENDP
_TEXT	ENDS
PUBLIC	??_C@_0CM@CEEDGJNL@SYSTEM?2CurrentControlSet?2Service@ ; `string'
PUBLIC	??_C@_0BA@DGAECNJJ@TrueCryptConfig?$AA@		; `string'
PUBLIC	_ReadDriverConfigurationFlags
EXTRN	_ReadLocalMachineRegistryDword:PROC
;	COMDAT ??_C@_0CM@CEEDGJNL@SYSTEM?2CurrentControlSet?2Service@
CONST	SEGMENT
??_C@_0CM@CEEDGJNL@SYSTEM?2CurrentControlSet?2Service@ DB 'SYSTEM\Current'
	DB	'ControlSet\Services\truecrypt', 00H		; `string'
CONST	ENDS
;	COMDAT ??_C@_0BA@DGAECNJJ@TrueCryptConfig?$AA@
CONST	SEGMENT
??_C@_0BA@DGAECNJJ@TrueCryptConfig?$AA@ DB 'TrueCryptConfig', 00H ; `string'
; Function compile flags: /Ogtpy
CONST	ENDS
;	COMDAT _ReadDriverConfigurationFlags
_TEXT	SEGMENT
_configMap$ = -4					; size = 4
_ReadDriverConfigurationFlags PROC			; COMDAT

; 1799 : {

  00000	51		 push	 ecx

; 1800 : 	DWORD configMap;
; 1801 : 
; 1802 : 	if (!ReadLocalMachineRegistryDword ("SYSTEM\\CurrentControlSet\\Services\\truecrypt", TC_DRIVER_CONFIG_REG_VALUE_NAME, &configMap))

  00001	8d 04 24	 lea	 eax, DWORD PTR _configMap$[esp+4]
  00004	50		 push	 eax
  00005	68 00 00 00 00	 push	 OFFSET ??_C@_0BA@DGAECNJJ@TrueCryptConfig?$AA@
  0000a	68 00 00 00 00	 push	 OFFSET ??_C@_0CM@CEEDGJNL@SYSTEM?2CurrentControlSet?2Service@
  0000f	e8 00 00 00 00	 call	 _ReadLocalMachineRegistryDword
  00014	83 c4 0c	 add	 esp, 12			; 0000000cH
  00017	85 c0		 test	 eax, eax
  00019	75 02		 jne	 SHORT $LN4@ReadDriver

; 1806 : }

  0001b	59		 pop	 ecx
  0001c	c3		 ret	 0
$LN4@ReadDriver:

; 1803 : 		configMap = 0;
; 1804 : 
; 1805 : 	return configMap;

  0001d	8b 04 24	 mov	 eax, DWORD PTR _configMap$[esp+4]

; 1806 : }

  00020	59		 pop	 ecx
  00021	c3		 ret	 0
_ReadDriverConfigurationFlags ENDP
_TEXT	ENDS
PUBLIC	??_C@_0CA@NOOFMILL@TrueCryptEncryptionFreeCpuCount?$AA@ ; `string'
PUBLIC	_ReadEncryptionThreadPoolFreeCpuCountLimit
;	COMDAT ??_C@_0CA@NOOFMILL@TrueCryptEncryptionFreeCpuCount?$AA@
CONST	SEGMENT
??_C@_0CA@NOOFMILL@TrueCryptEncryptionFreeCpuCount?$AA@ DB 'TrueCryptEncr'
	DB	'yptionFreeCpuCount', 00H			; `string'
; Function compile flags: /Ogtpy
CONST	ENDS
;	COMDAT _ReadEncryptionThreadPoolFreeCpuCountLimit
_TEXT	SEGMENT
_count$ = -4						; size = 4
_ReadEncryptionThreadPoolFreeCpuCountLimit PROC		; COMDAT

; 1810 : {

  00000	51		 push	 ecx

; 1811 : 	DWORD count;
; 1812 : 
; 1813 : 	if (!ReadLocalMachineRegistryDword ("SYSTEM\\CurrentControlSet\\Services\\truecrypt", TC_ENCRYPTION_FREE_CPU_COUNT_REG_VALUE_NAME, &count))

  00001	8d 04 24	 lea	 eax, DWORD PTR _count$[esp+4]
  00004	50		 push	 eax
  00005	68 00 00 00 00	 push	 OFFSET ??_C@_0CA@NOOFMILL@TrueCryptEncryptionFreeCpuCount?$AA@
  0000a	68 00 00 00 00	 push	 OFFSET ??_C@_0CM@CEEDGJNL@SYSTEM?2CurrentControlSet?2Service@
  0000f	e8 00 00 00 00	 call	 _ReadLocalMachineRegistryDword
  00014	83 c4 0c	 add	 esp, 12			; 0000000cH
  00017	85 c0		 test	 eax, eax
  00019	75 02		 jne	 SHORT $LN4@ReadEncryp

; 1817 : }

  0001b	59		 pop	 ecx
  0001c	c3		 ret	 0
$LN4@ReadEncryp:

; 1814 : 		count = 0;
; 1815 : 
; 1816 : 	return count;

  0001d	8b 04 24	 mov	 eax, DWORD PTR _count$[esp+4]

; 1817 : }

  00020	59		 pop	 ecx
  00021	c3		 ret	 0
_ReadEncryptionThreadPoolFreeCpuCountLimit ENDP
_TEXT	ENDS
PUBLIC	??_C@_09IDILIKHG@NO_OS_VER?$AA@			; `string'
PUBLIC	__$ArrayPad$
PUBLIC	_InitOSVersionInfo
EXTRN	_IsServerOS:PROC
EXTRN	__imp__GetVersionExA@4:PROC
;	COMDAT ??_C@_09IDILIKHG@NO_OS_VER?$AA@
CONST	SEGMENT
??_C@_09IDILIKHG@NO_OS_VER?$AA@ DB 'NO_OS_VER', 00H	; `string'
; Function compile flags: /Ogtpy
CONST	ENDS
;	COMDAT _InitOSVersionInfo
_TEXT	SEGMENT
_osEx$139738 = -308					; size = 156
_osEx$139730 = -308					; size = 156
_os$ = -152						; size = 148
__$ArrayPad$ = -4					; size = 4
_InitOSVersionInfo PROC					; COMDAT

; 1984 : {

  00000	81 ec 34 01 00
	00		 sub	 esp, 308		; 00000134H
  00006	a1 00 00 00 00	 mov	 eax, DWORD PTR ___security_cookie
  0000b	33 c4		 xor	 eax, esp
  0000d	89 84 24 30 01
	00 00		 mov	 DWORD PTR __$ArrayPad$[esp+308], eax
  00014	56		 push	 esi

; 1985 : 	OSVERSIONINFO os;
; 1986 : 	os.dwOSVersionInfoSize = sizeof (OSVERSIONINFO);
; 1987 : 
; 1988 : 	if (GetVersionEx (&os) == FALSE)

  00015	8b 35 00 00 00
	00		 mov	 esi, DWORD PTR __imp__GetVersionExA@4
  0001b	8d 84 24 a0 00
	00 00		 lea	 eax, DWORD PTR _os$[esp+312]
  00022	50		 push	 eax
  00023	c7 84 24 a4 00
	00 00 94 00 00
	00		 mov	 DWORD PTR _os$[esp+316], 148 ; 00000094H
  0002e	ff d6		 call	 esi
  00030	85 c0		 test	 eax, eax
  00032	75 0a		 jne	 SHORT $LN33@InitOSVers

; 1989 : 		AbortProcess ("NO_OS_VER");

  00034	68 00 00 00 00	 push	 OFFSET ??_C@_09IDILIKHG@NO_OS_VER?$AA@
  00039	e8 00 00 00 00	 call	 _AbortProcess
$LN33@InitOSVers:

; 1990 : 
; 1991 : 	CurrentOSMajor = os.dwMajorVersion;
; 1992 : 	CurrentOSMinor = os.dwMinorVersion;
; 1993 : 
; 1994 : 	if (os.dwPlatformId == VER_PLATFORM_WIN32_NT && CurrentOSMajor == 5 && CurrentOSMinor == 0)

  0003e	8b 94 24 b0 00
	00 00		 mov	 edx, DWORD PTR _os$[esp+328]
  00045	8b 8c 24 a4 00
	00 00		 mov	 ecx, DWORD PTR _os$[esp+316]
  0004c	8b 84 24 a8 00
	00 00		 mov	 eax, DWORD PTR _os$[esp+320]
  00053	89 0d 00 00 00
	00		 mov	 DWORD PTR _CurrentOSMajor, ecx
  00059	a3 00 00 00 00	 mov	 DWORD PTR _CurrentOSMinor, eax
  0005e	83 fa 02	 cmp	 edx, 2
  00061	0f 85 09 02 00
	00		 jne	 $LN10@InitOSVers
  00067	83 f9 05	 cmp	 ecx, 5
  0006a	0f 85 b0 00 00
	00		 jne	 $LN38@InitOSVers
  00070	85 c0		 test	 eax, eax
  00072	75 20		 jne	 SHORT $LN39@InitOSVers

; 1995 : 		nCurrentOS = WIN_2000;

  00074	c7 05 00 00 00
	00 07 00 00 00	 mov	 DWORD PTR _nCurrentOS, 7
  0007e	5e		 pop	 esi

; 2044 : }

  0007f	8b 8c 24 30 01
	00 00		 mov	 ecx, DWORD PTR __$ArrayPad$[esp+308]
  00086	33 cc		 xor	 ecx, esp
  00088	e8 00 00 00 00	 call	 @__security_check_cookie@4
  0008d	81 c4 34 01 00
	00		 add	 esp, 308		; 00000134H
  00093	c3		 ret	 0
$LN39@InitOSVers:

; 1996 : 	else if (os.dwPlatformId == VER_PLATFORM_WIN32_NT && CurrentOSMajor == 5 && CurrentOSMinor == 1)

  00094	83 f8 01	 cmp	 eax, 1
  00097	75 20		 jne	 SHORT $LN40@InitOSVers

; 1997 : 		nCurrentOS = WIN_XP;

  00099	c7 05 00 00 00
	00 08 00 00 00	 mov	 DWORD PTR _nCurrentOS, 8
  000a3	5e		 pop	 esi

; 2044 : }

  000a4	8b 8c 24 30 01
	00 00		 mov	 ecx, DWORD PTR __$ArrayPad$[esp+308]
  000ab	33 cc		 xor	 ecx, esp
  000ad	e8 00 00 00 00	 call	 @__security_check_cookie@4
  000b2	81 c4 34 01 00
	00		 add	 esp, 308		; 00000134H
  000b8	c3		 ret	 0
$LN40@InitOSVers:

; 1998 : 	else if (os.dwPlatformId == VER_PLATFORM_WIN32_NT && CurrentOSMajor == 5 && CurrentOSMinor == 2)

  000b9	83 f8 02	 cmp	 eax, 2
  000bc	0f 85 34 02 00
	00		 jne	 $LN2@InitOSVers

; 1999 : 	{
; 2000 : 		OSVERSIONINFOEX osEx;
; 2001 : 
; 2002 : 		osEx.dwOSVersionInfoSize = sizeof (OSVERSIONINFOEX);
; 2003 : 		GetVersionEx ((LPOSVERSIONINFOA) &osEx);

  000c2	8d 4c 24 04	 lea	 ecx, DWORD PTR _osEx$139730[esp+312]
  000c6	51		 push	 ecx
  000c7	c7 44 24 08 9c
	00 00 00	 mov	 DWORD PTR _osEx$139730[esp+316], 156 ; 0000009cH
  000cf	ff d6		 call	 esi

; 2004 : 
; 2005 : 		if (osEx.wProductType == VER_NT_SERVER || osEx.wProductType == VER_NT_DOMAIN_CONTROLLER)

  000d1	8a 84 24 9e 00
	00 00		 mov	 al, BYTE PTR _osEx$139730[esp+466]
  000d8	3c 03		 cmp	 al, 3
  000da	74 24		 je	 SHORT $LN26@InitOSVers
  000dc	3c 02		 cmp	 al, 2
  000de	74 20		 je	 SHORT $LN26@InitOSVers

; 2007 : 		else
; 2008 : 			nCurrentOS = WIN_XP64;

  000e0	c7 05 00 00 00
	00 09 00 00 00	 mov	 DWORD PTR _nCurrentOS, 9
  000ea	5e		 pop	 esi

; 2044 : }

  000eb	8b 8c 24 30 01
	00 00		 mov	 ecx, DWORD PTR __$ArrayPad$[esp+308]
  000f2	33 cc		 xor	 ecx, esp
  000f4	e8 00 00 00 00	 call	 @__security_check_cookie@4
  000f9	81 c4 34 01 00
	00		 add	 esp, 308		; 00000134H
  000ff	c3		 ret	 0
$LN26@InitOSVers:

; 2006 : 			nCurrentOS = WIN_SERVER_2003;

  00100	c7 05 00 00 00
	00 0a 00 00 00	 mov	 DWORD PTR _nCurrentOS, 10 ; 0000000aH
  0010a	5e		 pop	 esi

; 2044 : }

  0010b	8b 8c 24 30 01
	00 00		 mov	 ecx, DWORD PTR __$ArrayPad$[esp+308]
  00112	33 cc		 xor	 ecx, esp
  00114	e8 00 00 00 00	 call	 @__security_check_cookie@4
  00119	81 c4 34 01 00
	00		 add	 esp, 308		; 00000134H
  0011f	c3		 ret	 0
$LN38@InitOSVers:

; 2009 : 	}
; 2010 : 
; 2011 : 	else if (os.dwPlatformId == VER_PLATFORM_WIN32_NT && CurrentOSMajor == 6 && CurrentOSMinor == 0)

  00120	83 f9 06	 cmp	 ecx, 6
  00123	0f 85 1e 01 00
	00		 jne	 $LN45@InitOSVers
  00129	85 c0		 test	 eax, eax
  0012b	75 5e		 jne	 SHORT $LN46@InitOSVers

; 2012 : 	{
; 2013 : 		OSVERSIONINFOEX osEx;
; 2014 : 
; 2015 : 		osEx.dwOSVersionInfoSize = sizeof (OSVERSIONINFOEX);
; 2016 : 		GetVersionEx ((LPOSVERSIONINFOA) &osEx);

  0012d	8d 54 24 04	 lea	 edx, DWORD PTR _osEx$139738[esp+312]
  00131	52		 push	 edx
  00132	c7 44 24 08 9c
	00 00 00	 mov	 DWORD PTR _osEx$139738[esp+316], 156 ; 0000009cH
  0013a	ff d6		 call	 esi

; 2017 : 
; 2018 : 		if (osEx.wProductType == VER_NT_SERVER || osEx.wProductType == VER_NT_DOMAIN_CONTROLLER)

  0013c	8a 84 24 9e 00
	00 00		 mov	 al, BYTE PTR _osEx$139738[esp+466]
  00143	3c 03		 cmp	 al, 3
  00145	74 24		 je	 SHORT $LN21@InitOSVers
  00147	3c 02		 cmp	 al, 2
  00149	74 20		 je	 SHORT $LN21@InitOSVers

; 2020 : 		else
; 2021 : 			nCurrentOS = WIN_VISTA;

  0014b	c7 05 00 00 00
	00 0b 00 00 00	 mov	 DWORD PTR _nCurrentOS, 11 ; 0000000bH
  00155	5e		 pop	 esi

; 2044 : }

  00156	8b 8c 24 30 01
	00 00		 mov	 ecx, DWORD PTR __$ArrayPad$[esp+308]
  0015d	33 cc		 xor	 ecx, esp
  0015f	e8 00 00 00 00	 call	 @__security_check_cookie@4
  00164	81 c4 34 01 00
	00		 add	 esp, 308		; 00000134H
  0016a	c3		 ret	 0
$LN21@InitOSVers:

; 2019 : 			nCurrentOS = WIN_SERVER_2008;

  0016b	c7 05 00 00 00
	00 0c 00 00 00	 mov	 DWORD PTR _nCurrentOS, 12 ; 0000000cH
  00175	5e		 pop	 esi

; 2044 : }

  00176	8b 8c 24 30 01
	00 00		 mov	 ecx, DWORD PTR __$ArrayPad$[esp+308]
  0017d	33 cc		 xor	 ecx, esp
  0017f	e8 00 00 00 00	 call	 @__security_check_cookie@4
  00184	81 c4 34 01 00
	00		 add	 esp, 308		; 00000134H
  0018a	c3		 ret	 0
$LN46@InitOSVers:

; 2022 : 	}
; 2023 : 	else if (os.dwPlatformId == VER_PLATFORM_WIN32_NT && CurrentOSMajor == 6 && CurrentOSMinor == 1)

  0018b	83 f8 01	 cmp	 eax, 1
  0018e	75 29		 jne	 SHORT $LN47@InitOSVers

; 2024 : 		nCurrentOS = (IsServerOS() ? WIN_SERVER_2008_R2 : WIN_7);

  00190	e8 00 00 00 00	 call	 _IsServerOS
  00195	f7 d8		 neg	 eax
  00197	1b c0		 sbb	 eax, eax
  00199	f7 d8		 neg	 eax
  0019b	83 c0 0d	 add	 eax, 13			; 0000000dH
  0019e	a3 00 00 00 00	 mov	 DWORD PTR _nCurrentOS, eax
  001a3	5e		 pop	 esi

; 2044 : }

  001a4	8b 8c 24 30 01
	00 00		 mov	 ecx, DWORD PTR __$ArrayPad$[esp+308]
  001ab	33 cc		 xor	 ecx, esp
  001ad	e8 00 00 00 00	 call	 @__security_check_cookie@4
  001b2	81 c4 34 01 00
	00		 add	 esp, 308		; 00000134H
  001b8	c3		 ret	 0
$LN47@InitOSVers:

; 2025 : 	else if (os.dwPlatformId == VER_PLATFORM_WIN32_NT && CurrentOSMajor == 6 && CurrentOSMinor == 2)

  001b9	83 f8 02	 cmp	 eax, 2
  001bc	75 29		 jne	 SHORT $LN48@InitOSVers

; 2026 : 		nCurrentOS = (IsServerOS() ? WIN_SERVER_2012 : WIN_8);

  001be	e8 00 00 00 00	 call	 _IsServerOS
  001c3	f7 d8		 neg	 eax
  001c5	1b c0		 sbb	 eax, eax
  001c7	f7 d8		 neg	 eax
  001c9	83 c0 0f	 add	 eax, 15			; 0000000fH
  001cc	a3 00 00 00 00	 mov	 DWORD PTR _nCurrentOS, eax
  001d1	5e		 pop	 esi

; 2044 : }

  001d2	8b 8c 24 30 01
	00 00		 mov	 ecx, DWORD PTR __$ArrayPad$[esp+308]
  001d9	33 cc		 xor	 ecx, esp
  001db	e8 00 00 00 00	 call	 @__security_check_cookie@4
  001e0	81 c4 34 01 00
	00		 add	 esp, 308		; 00000134H
  001e6	c3		 ret	 0
$LN48@InitOSVers:

; 2027 : 	else if (os.dwPlatformId == VER_PLATFORM_WIN32_NT && CurrentOSMajor == 6 && CurrentOSMinor == 3)

  001e7	83 f8 03	 cmp	 eax, 3
  001ea	75 29		 jne	 SHORT $LN49@InitOSVers

; 2028 : 		nCurrentOS = (IsServerOS() ? WIN_SERVER_2012_R2 : WIN_8_1);

  001ec	e8 00 00 00 00	 call	 _IsServerOS
  001f1	f7 d8		 neg	 eax
  001f3	1b c0		 sbb	 eax, eax
  001f5	f7 d8		 neg	 eax
  001f7	83 c0 11	 add	 eax, 17			; 00000011H
  001fa	a3 00 00 00 00	 mov	 DWORD PTR _nCurrentOS, eax
  001ff	5e		 pop	 esi

; 2044 : }

  00200	8b 8c 24 30 01
	00 00		 mov	 ecx, DWORD PTR __$ArrayPad$[esp+308]
  00207	33 cc		 xor	 ecx, esp
  00209	e8 00 00 00 00	 call	 @__security_check_cookie@4
  0020e	81 c4 34 01 00
	00		 add	 esp, 308		; 00000134H
  00214	c3		 ret	 0
$LN49@InitOSVers:

; 2029 : 	else if (os.dwPlatformId == VER_PLATFORM_WIN32_NT && CurrentOSMajor == 6 && CurrentOSMinor == 4)

  00215	83 f8 04	 cmp	 eax, 4
  00218	0f 85 d8 00 00
	00		 jne	 $LN2@InitOSVers

; 2030 : 		nCurrentOS = (IsServerOS() ? WIN_SERVER_2016 : WIN_10);

  0021e	e8 00 00 00 00	 call	 _IsServerOS
  00223	f7 d8		 neg	 eax
  00225	1b c0		 sbb	 eax, eax
  00227	f7 d8		 neg	 eax
  00229	83 c0 13	 add	 eax, 19			; 00000013H
  0022c	a3 00 00 00 00	 mov	 DWORD PTR _nCurrentOS, eax
  00231	5e		 pop	 esi

; 2044 : }

  00232	8b 8c 24 30 01
	00 00		 mov	 ecx, DWORD PTR __$ArrayPad$[esp+308]
  00239	33 cc		 xor	 ecx, esp
  0023b	e8 00 00 00 00	 call	 @__security_check_cookie@4
  00240	81 c4 34 01 00
	00		 add	 esp, 308		; 00000134H
  00246	c3		 ret	 0
$LN45@InitOSVers:

; 2031 : 
; 2032 : 	else if (os.dwPlatformId == VER_PLATFORM_WIN32_NT && CurrentOSMajor == 4)

  00247	83 f9 04	 cmp	 ecx, 4
  0024a	0f 85 a6 00 00
	00		 jne	 $LN2@InitOSVers

; 2033 : 		nCurrentOS = WIN_NT4;

  00250	c7 05 00 00 00
	00 06 00 00 00	 mov	 DWORD PTR _nCurrentOS, 6
  0025a	5e		 pop	 esi

; 2044 : }

  0025b	8b 8c 24 30 01
	00 00		 mov	 ecx, DWORD PTR __$ArrayPad$[esp+308]
  00262	33 cc		 xor	 ecx, esp
  00264	e8 00 00 00 00	 call	 @__security_check_cookie@4
  00269	81 c4 34 01 00
	00		 add	 esp, 308		; 00000134H
  0026f	c3		 ret	 0
$LN10@InitOSVers:

; 2034 : 	else if (os.dwPlatformId == VER_PLATFORM_WIN32_WINDOWS && os.dwMajorVersion == 4 && os.dwMinorVersion == 0)

  00270	83 fa 01	 cmp	 edx, 1
  00273	75 73		 jne	 SHORT $LN4@InitOSVers
  00275	83 f9 04	 cmp	 ecx, 4
  00278	75 7c		 jne	 SHORT $LN2@InitOSVers
  0027a	85 c0		 test	 eax, eax
  0027c	75 20		 jne	 SHORT $LN52@InitOSVers

; 2035 : 		nCurrentOS = WIN_95;

  0027e	c7 05 00 00 00
	00 02 00 00 00	 mov	 DWORD PTR _nCurrentOS, 2
  00288	5e		 pop	 esi

; 2044 : }

  00289	8b 8c 24 30 01
	00 00		 mov	 ecx, DWORD PTR __$ArrayPad$[esp+308]
  00290	33 cc		 xor	 ecx, esp
  00292	e8 00 00 00 00	 call	 @__security_check_cookie@4
  00297	81 c4 34 01 00
	00		 add	 esp, 308		; 00000134H
  0029d	c3		 ret	 0
$LN52@InitOSVers:

; 2036 : 	else if (os.dwPlatformId == VER_PLATFORM_WIN32_WINDOWS && os.dwMajorVersion == 4 && os.dwMinorVersion == 10)

  0029e	83 f8 0a	 cmp	 eax, 10			; 0000000aH
  002a1	75 20		 jne	 SHORT $LN53@InitOSVers

; 2037 : 		nCurrentOS = WIN_98;

  002a3	c7 05 00 00 00
	00 03 00 00 00	 mov	 DWORD PTR _nCurrentOS, 3
  002ad	5e		 pop	 esi

; 2044 : }

  002ae	8b 8c 24 30 01
	00 00		 mov	 ecx, DWORD PTR __$ArrayPad$[esp+308]
  002b5	33 cc		 xor	 ecx, esp
  002b7	e8 00 00 00 00	 call	 @__security_check_cookie@4
  002bc	81 c4 34 01 00
	00		 add	 esp, 308		; 00000134H
  002c2	c3		 ret	 0
$LN53@InitOSVers:

; 2038 : 	else if (os.dwPlatformId == VER_PLATFORM_WIN32_WINDOWS && os.dwMajorVersion == 4 && os.dwMinorVersion == 90)

  002c3	83 f8 5a	 cmp	 eax, 90			; 0000005aH
  002c6	75 2e		 jne	 SHORT $LN2@InitOSVers

; 2039 : 		nCurrentOS = WIN_ME;

  002c8	c7 05 00 00 00
	00 04 00 00 00	 mov	 DWORD PTR _nCurrentOS, 4
  002d2	5e		 pop	 esi

; 2044 : }

  002d3	8b 8c 24 30 01
	00 00		 mov	 ecx, DWORD PTR __$ArrayPad$[esp+308]
  002da	33 cc		 xor	 ecx, esp
  002dc	e8 00 00 00 00	 call	 @__security_check_cookie@4
  002e1	81 c4 34 01 00
	00		 add	 esp, 308		; 00000134H
  002e7	c3		 ret	 0
$LN4@InitOSVers:

; 2040 : 	else if (os.dwPlatformId == VER_PLATFORM_WIN32s)
; 2041 : 		nCurrentOS = WIN_31;

  002e8	c7 05 00 00 00
	00 01 00 00 00	 mov	 DWORD PTR _nCurrentOS, 1
  002f2	85 d2		 test	 edx, edx
  002f4	74 0a		 je	 SHORT $LN1@InitOSVers
$LN2@InitOSVers:

; 2042 : 	else
; 2043 : 		nCurrentOS = WIN_UNKNOWN;

  002f6	c7 05 00 00 00
	00 00 00 00 00	 mov	 DWORD PTR _nCurrentOS, 0
$LN1@InitOSVers:

; 2044 : }

  00300	8b 8c 24 34 01
	00 00		 mov	 ecx, DWORD PTR __$ArrayPad$[esp+312]
  00307	5e		 pop	 esi
  00308	33 cc		 xor	 ecx, esp
  0030a	e8 00 00 00 00	 call	 @__security_check_cookie@4
  0030f	81 c4 34 01 00
	00		 add	 esp, 308		; 00000134H
  00315	c3		 ret	 0
$LN54@InitOSVers:
_InitOSVersionInfo ENDP
_TEXT	ENDS
PUBLIC	??_C@_0BN@EOEFIMME@CipherShed?5User?5Guide?4?$CFs?4pdf?$AA@ ; `string'
PUBLIC	??_C@_02LFNMGJAP@en?$AA@			; `string'
PUBLIC	__$ArrayPad$
PUBLIC	_InitHelpFileName
EXTRN	_sprintf_s:PROC
EXTRN	_GetPreferredLangId:PROC
EXTRN	__imp__GetModuleFileNameA@12:PROC
;	COMDAT ??_C@_0BN@EOEFIMME@CipherShed?5User?5Guide?4?$CFs?4pdf?$AA@
; File c:\program files (x86)\microsoft visual studio 9.0\vc\include\string.h
CONST	SEGMENT
??_C@_0BN@EOEFIMME@CipherShed?5User?5Guide?4?$CFs?4pdf?$AA@ DB 'CipherShe'
	DB	'd User Guide.%s.pdf', 00H			; `string'
CONST	ENDS
;	COMDAT ??_C@_02LFNMGJAP@en?$AA@
CONST	SEGMENT
??_C@_02LFNMGJAP@en?$AA@ DB 'en', 00H			; `string'
; Function compile flags: /Ogtpy
; File c:\home\public\desktop\projects\ciphershed.build\src\common\dlgcode.c
CONST	ENDS
;	COMDAT _InitHelpFileName
_TEXT	SEGMENT
_szTemp$139841 = -264					; size = 260
__$ArrayPad$ = -4					; size = 4
_InitHelpFileName PROC					; COMDAT

; 2278 : {

  00000	81 ec 08 01 00
	00		 sub	 esp, 264		; 00000108H
  00006	a1 00 00 00 00	 mov	 eax, DWORD PTR ___security_cookie
  0000b	33 c4		 xor	 eax, esp
  0000d	89 84 24 04 01
	00 00		 mov	 DWORD PTR __$ArrayPad$[esp+264], eax
  00014	53		 push	 ebx

; 2279 : 	char *lpszTmp;
; 2280 : 
; 2281 : 	GetModuleFileName (NULL, szHelpFile, sizeof (szHelpFile));

  00015	8b 1d 00 00 00
	00		 mov	 ebx, DWORD PTR __imp__GetModuleFileNameA@12
  0001b	57		 push	 edi
  0001c	68 04 01 00 00	 push	 260			; 00000104H
  00021	68 00 00 00 00	 push	 OFFSET _szHelpFile
  00026	6a 00		 push	 0
  00028	ff d3		 call	 ebx

; 2282 : 	lpszTmp = strrchr (szHelpFile, '\\');

  0002a	6a 5c		 push	 92			; 0000005cH
  0002c	68 00 00 00 00	 push	 OFFSET _szHelpFile
  00031	e8 00 00 00 00	 call	 _strrchr
  00036	8b f8		 mov	 edi, eax
  00038	83 c4 08	 add	 esp, 8

; 2283 : 	if (lpszTmp)

  0003b	85 ff		 test	 edi, edi
  0003d	0f 84 bb 00 00
	00		 je	 $LN1@InitHelpFi
  00043	56		 push	 esi

; 2284 : 	{
; 2285 : 		char szTemp[TC_MAX_PATH];
; 2286 : 
; 2287 : 		// Primary file name
; 2288 : 		if (strcmp (GetPreferredLangId(), "en") == 0
; 2289 : 			|| GetPreferredLangId() == NULL)

  00044	be 00 00 00 00	 mov	 esi, OFFSET ??_C@_02LFNMGJAP@en?$AA@
  00049	e8 00 00 00 00	 call	 _GetPreferredLangId
  0004e	8b ff		 npad	 2
$LL14@InitHelpFi:
  00050	8a 08		 mov	 cl, BYTE PTR [eax]
  00052	3a 0e		 cmp	 cl, BYTE PTR [esi]
  00054	75 1a		 jne	 SHORT $LN15@InitHelpFi
  00056	84 c9		 test	 cl, cl
  00058	74 12		 je	 SHORT $LN16@InitHelpFi
  0005a	8a 48 01	 mov	 cl, BYTE PTR [eax+1]
  0005d	3a 4e 01	 cmp	 cl, BYTE PTR [esi+1]
  00060	75 0e		 jne	 SHORT $LN15@InitHelpFi
  00062	83 c0 02	 add	 eax, 2
  00065	83 c6 02	 add	 esi, 2
  00068	84 c9		 test	 cl, cl
  0006a	75 e4		 jne	 SHORT $LL14@InitHelpFi
$LN16@InitHelpFi:
  0006c	33 c0		 xor	 eax, eax
  0006e	eb 05		 jmp	 SHORT $LN17@InitHelpFi
$LN15@InitHelpFi:
  00070	1b c0		 sbb	 eax, eax
  00072	83 d8 ff	 sbb	 eax, -1
$LN17@InitHelpFi:
  00075	85 c0		 test	 eax, eax
  00077	74 43		 je	 SHORT $LN3@InitHelpFi
