; Listing generated by Microsoft (R) Optimizing Compiler Version 15.00.30729.01 

	TITLE	c:\home\public\Desktop\projects\ciphershed.build\src\Setup\Wizard.c
	.686P
	.XMM
	include listing.inc
	.model	flat

INCLUDELIB LIBCMT
INCLUDELIB OLDNAMES

PUBLIC	??_C@_0P@GHFPNOJB@bad?5allocation?$AA@		; `string'
PUBLIC	??_C@_0BC@KMEHMKJJ@truecrypt?9x64?4sys?$AA@	; `string'
PUBLIC	??_C@_0O@OJENBJKN@truecrypt?4sys?$AA@		; `string'
PUBLIC	??_C@_0BG@NHCNJMON@CipherShed?5Format?4exe?$AA@	; `string'
PUBLIC	??_C@_0P@KEOPEMDF@CipherShed?4exe?$AA@		; `string'
PUBLIC	??_C@_0M@HNDLNFKG@License?4txt?$AA@		; `string'
PUBLIC	??_C@_0BK@LMECBCPP@CipherShed?5User?5Guide?4pdf?$AA@ ; `string'
PUBLIC	??_C@_0BG@PCIEDLBB@ACipherShed?5Setup?4exe?$AA@	; `string'
PUBLIC	??_C@_0P@KPKCHNJD@Dtruecrypt?4sys?$AA@		; `string'
PUBLIC	??_C@_0BD@ILLOKAML@Atruecrypt?9x64?4sys?$AA@	; `string'
PUBLIC	??_C@_0P@JMCFMDBI@Atruecrypt?4sys?$AA@		; `string'
PUBLIC	??_C@_0BH@JDBNPKKN@ACipherShed?5Format?4exe?$AA@ ; `string'
PUBLIC	??_C@_0BA@BPJBGDOM@ACipherShed?4exe?$AA@	; `string'
PUBLIC	??_C@_0N@GJIBBNGF@ALicense?4txt?$AA@		; `string'
PUBLIC	??_C@_0BL@MFPLEOCK@ACipherShed?5User?5Guide?4pdf?$AA@ ; `string'
PUBLIC	?WizardDestInstallPath@@3PADA			; WizardDestInstallPath
PUBLIC	?WizardDestExtractPath@@3PADA			; WizardDestExtractPath
PUBLIC	?SelfFile@@3PADA				; SelfFile
PUBLIC	?_Value@?$_Is_swap_move@U_Swap_move_tag@std@@@std@@2_NB ; std::_Is_swap_move<std::_Swap_move_tag>::_Value
PUBLIC	?collate@?$_Locbase@H@std@@2HB			; std::_Locbase<int>::collate
PUBLIC	?ctype@?$_Locbase@H@std@@2HB			; std::_Locbase<int>::ctype
PUBLIC	?monetary@?$_Locbase@H@std@@2HB			; std::_Locbase<int>::monetary
PUBLIC	?numeric@?$_Locbase@H@std@@2HB			; std::_Locbase<int>::numeric
PUBLIC	?time@?$_Locbase@H@std@@2HB			; std::_Locbase<int>::time
PUBLIC	?messages@?$_Locbase@H@std@@2HB			; std::_Locbase<int>::messages
PUBLIC	?all@?$_Locbase@H@std@@2HB			; std::_Locbase<int>::all
PUBLIC	?none@?$_Locbase@H@std@@2HB			; std::_Locbase<int>::none
PUBLIC	?table_size@?$ctype@D@std@@2IB			; std::ctype<char>::table_size
PUBLIC	?skipws@?$_Iosb@H@std@@2W4_Fmtflags@12@B	; std::_Iosb<int>::skipws
PUBLIC	?unitbuf@?$_Iosb@H@std@@2W4_Fmtflags@12@B	; std::_Iosb<int>::unitbuf
PUBLIC	?uppercase@?$_Iosb@H@std@@2W4_Fmtflags@12@B	; std::_Iosb<int>::uppercase
PUBLIC	?showbase@?$_Iosb@H@std@@2W4_Fmtflags@12@B	; std::_Iosb<int>::showbase
PUBLIC	?showpoint@?$_Iosb@H@std@@2W4_Fmtflags@12@B	; std::_Iosb<int>::showpoint
PUBLIC	?showpos@?$_Iosb@H@std@@2W4_Fmtflags@12@B	; std::_Iosb<int>::showpos
PUBLIC	?left@?$_Iosb@H@std@@2W4_Fmtflags@12@B		; std::_Iosb<int>::left
PUBLIC	?right@?$_Iosb@H@std@@2W4_Fmtflags@12@B		; std::_Iosb<int>::right
PUBLIC	?internal@?$_Iosb@H@std@@2W4_Fmtflags@12@B	; std::_Iosb<int>::internal
PUBLIC	?dec@?$_Iosb@H@std@@2W4_Fmtflags@12@B		; std::_Iosb<int>::dec
PUBLIC	?oct@?$_Iosb@H@std@@2W4_Fmtflags@12@B		; std::_Iosb<int>::oct
PUBLIC	?hex@?$_Iosb@H@std@@2W4_Fmtflags@12@B		; std::_Iosb<int>::hex
PUBLIC	?scientific@?$_Iosb@H@std@@2W4_Fmtflags@12@B	; std::_Iosb<int>::scientific
PUBLIC	?fixed@?$_Iosb@H@std@@2W4_Fmtflags@12@B		; std::_Iosb<int>::fixed
PUBLIC	?hexfloat@?$_Iosb@H@std@@2W4_Fmtflags@12@B	; std::_Iosb<int>::hexfloat
PUBLIC	?boolalpha@?$_Iosb@H@std@@2W4_Fmtflags@12@B	; std::_Iosb<int>::boolalpha
PUBLIC	?_Stdio@?$_Iosb@H@std@@2W4_Fmtflags@12@B	; std::_Iosb<int>::_Stdio
PUBLIC	?adjustfield@?$_Iosb@H@std@@2W4_Fmtflags@12@B	; std::_Iosb<int>::adjustfield
PUBLIC	?basefield@?$_Iosb@H@std@@2W4_Fmtflags@12@B	; std::_Iosb<int>::basefield
PUBLIC	?floatfield@?$_Iosb@H@std@@2W4_Fmtflags@12@B	; std::_Iosb<int>::floatfield
PUBLIC	?goodbit@?$_Iosb@H@std@@2W4_Iostate@12@B	; std::_Iosb<int>::goodbit
PUBLIC	?eofbit@?$_Iosb@H@std@@2W4_Iostate@12@B		; std::_Iosb<int>::eofbit
PUBLIC	?failbit@?$_Iosb@H@std@@2W4_Iostate@12@B	; std::_Iosb<int>::failbit
PUBLIC	?badbit@?$_Iosb@H@std@@2W4_Iostate@12@B		; std::_Iosb<int>::badbit
PUBLIC	?_Hardfail@?$_Iosb@H@std@@2W4_Iostate@12@B	; std::_Iosb<int>::_Hardfail
PUBLIC	?in@?$_Iosb@H@std@@2W4_Openmode@12@B		; std::_Iosb<int>::in
PUBLIC	?out@?$_Iosb@H@std@@2W4_Openmode@12@B		; std::_Iosb<int>::out
PUBLIC	?ate@?$_Iosb@H@std@@2W4_Openmode@12@B		; std::_Iosb<int>::ate
PUBLIC	?app@?$_Iosb@H@std@@2W4_Openmode@12@B		; std::_Iosb<int>::app
PUBLIC	?trunc@?$_Iosb@H@std@@2W4_Openmode@12@B		; std::_Iosb<int>::trunc
PUBLIC	?_Nocreate@?$_Iosb@H@std@@2W4_Openmode@12@B	; std::_Iosb<int>::_Nocreate
PUBLIC	?_Noreplace@?$_Iosb@H@std@@2W4_Openmode@12@B	; std::_Iosb<int>::_Noreplace
PUBLIC	?binary@?$_Iosb@H@std@@2W4_Openmode@12@B	; std::_Iosb<int>::binary
PUBLIC	?beg@?$_Iosb@H@std@@2W4_Seekdir@12@B		; std::_Iosb<int>::beg
PUBLIC	?cur@?$_Iosb@H@std@@2W4_Seekdir@12@B		; std::_Iosb<int>::cur
PUBLIC	?end@?$_Iosb@H@std@@2W4_Seekdir@12@B		; std::_Iosb<int>::end
PUBLIC	?hCurPage@@3PAUHWND__@@A			; hCurPage
PUBLIC	?nCurPageNo@@3HA				; nCurPageNo
PUBLIC	?hbmWizardBitmapRescaled@@3PAUHBITMAP__@@A	; hbmWizardBitmapRescaled
PUBLIC	?bExtractOnly@@3HA				; bExtractOnly
PUBLIC	?bLicenseAccepted@@3HA				; bLicenseAccepted
PUBLIC	?bOpenContainingFolder@@3HA			; bOpenContainingFolder
PUBLIC	?bExtractionSuccessful@@3HA			; bExtractionSuccessful
PUBLIC	?bStartInstall@@3HA				; bStartInstall
PUBLIC	?bStartExtraction@@3HA				; bStartExtraction
PUBLIC	?bInProgress@@3HA				; bInProgress
PUBLIC	_bPromptTutorial
PUBLIC	_bPromptReleaseNotes
PUBLIC	?nPbar@@3HA					; nPbar
_BSS	SEGMENT
?WizardDestInstallPath@@3PADA DB 0104H DUP (?)		; WizardDestInstallPath
?WizardDestExtractPath@@3PADA DB 0104H DUP (?)		; WizardDestExtractPath
?SelfFile@@3PADA DB 0104H DUP (?)			; SelfFile
?hCurPage@@3PAUHWND__@@A DD 01H DUP (?)			; hCurPage
?hbmWizardBitmapRescaled@@3PAUHBITMAP__@@A DD 01H DUP (?) ; hbmWizardBitmapRescaled
?bExtractOnly@@3HA DD 01H DUP (?)			; bExtractOnly
?bLicenseAccepted@@3HA DD 01H DUP (?)			; bLicenseAccepted
?bExtractionSuccessful@@3HA DD 01H DUP (?)		; bExtractionSuccessful
?bStartInstall@@3HA DD 01H DUP (?)			; bStartInstall
?bStartExtraction@@3HA DD 01H DUP (?)			; bStartExtraction
?bInProgress@@3HA DD 01H DUP (?)			; bInProgress
_bPromptTutorial DD 01H DUP (?)
_bPromptReleaseNotes DD 01H DUP (?)
?nPbar@@3HA DD	01H DUP (?)				; nPbar
_BSS	ENDS
;	COMDAT ?end@?$_Iosb@H@std@@2W4_Seekdir@12@B
CONST	SEGMENT
?end@?$_Iosb@H@std@@2W4_Seekdir@12@B DD 02H		; std::_Iosb<int>::end
CONST	ENDS
;	COMDAT ?cur@?$_Iosb@H@std@@2W4_Seekdir@12@B
CONST	SEGMENT
?cur@?$_Iosb@H@std@@2W4_Seekdir@12@B DD 01H		; std::_Iosb<int>::cur
CONST	ENDS
;	COMDAT ?beg@?$_Iosb@H@std@@2W4_Seekdir@12@B
CONST	SEGMENT
?beg@?$_Iosb@H@std@@2W4_Seekdir@12@B DD 00H		; std::_Iosb<int>::beg
CONST	ENDS
;	COMDAT ?binary@?$_Iosb@H@std@@2W4_Openmode@12@B
CONST	SEGMENT
?binary@?$_Iosb@H@std@@2W4_Openmode@12@B DD 020H	; std::_Iosb<int>::binary
CONST	ENDS
;	COMDAT ?_Noreplace@?$_Iosb@H@std@@2W4_Openmode@12@B
CONST	SEGMENT
?_Noreplace@?$_Iosb@H@std@@2W4_Openmode@12@B DD 080H	; std::_Iosb<int>::_Noreplace
CONST	ENDS
;	COMDAT ?_Nocreate@?$_Iosb@H@std@@2W4_Openmode@12@B
CONST	SEGMENT
?_Nocreate@?$_Iosb@H@std@@2W4_Openmode@12@B DD 040H	; std::_Iosb<int>::_Nocreate
CONST	ENDS
;	COMDAT ?trunc@?$_Iosb@H@std@@2W4_Openmode@12@B
CONST	SEGMENT
?trunc@?$_Iosb@H@std@@2W4_Openmode@12@B DD 010H		; std::_Iosb<int>::trunc
CONST	ENDS
;	COMDAT ?app@?$_Iosb@H@std@@2W4_Openmode@12@B
CONST	SEGMENT
?app@?$_Iosb@H@std@@2W4_Openmode@12@B DD 08H		; std::_Iosb<int>::app
CONST	ENDS
;	COMDAT ?ate@?$_Iosb@H@std@@2W4_Openmode@12@B
CONST	SEGMENT
?ate@?$_Iosb@H@std@@2W4_Openmode@12@B DD 04H		; std::_Iosb<int>::ate
CONST	ENDS
;	COMDAT ?out@?$_Iosb@H@std@@2W4_Openmode@12@B
CONST	SEGMENT
?out@?$_Iosb@H@std@@2W4_Openmode@12@B DD 02H		; std::_Iosb<int>::out
CONST	ENDS
;	COMDAT ?in@?$_Iosb@H@std@@2W4_Openmode@12@B
CONST	SEGMENT
?in@?$_Iosb@H@std@@2W4_Openmode@12@B DD 01H		; std::_Iosb<int>::in
CONST	ENDS
;	COMDAT ?_Hardfail@?$_Iosb@H@std@@2W4_Iostate@12@B
CONST	SEGMENT
?_Hardfail@?$_Iosb@H@std@@2W4_Iostate@12@B DD 010H	; std::_Iosb<int>::_Hardfail
CONST	ENDS
;	COMDAT ?badbit@?$_Iosb@H@std@@2W4_Iostate@12@B
CONST	SEGMENT
?badbit@?$_Iosb@H@std@@2W4_Iostate@12@B DD 04H		; std::_Iosb<int>::badbit
CONST	ENDS
;	COMDAT ?failbit@?$_Iosb@H@std@@2W4_Iostate@12@B
CONST	SEGMENT
?failbit@?$_Iosb@H@std@@2W4_Iostate@12@B DD 02H		; std::_Iosb<int>::failbit
CONST	ENDS
;	COMDAT ?eofbit@?$_Iosb@H@std@@2W4_Iostate@12@B
CONST	SEGMENT
?eofbit@?$_Iosb@H@std@@2W4_Iostate@12@B DD 01H		; std::_Iosb<int>::eofbit
CONST	ENDS
;	COMDAT ?goodbit@?$_Iosb@H@std@@2W4_Iostate@12@B
CONST	SEGMENT
?goodbit@?$_Iosb@H@std@@2W4_Iostate@12@B DD 00H		; std::_Iosb<int>::goodbit
CONST	ENDS
;	COMDAT ?floatfield@?$_Iosb@H@std@@2W4_Fmtflags@12@B
CONST	SEGMENT
?floatfield@?$_Iosb@H@std@@2W4_Fmtflags@12@B DD 03000H	; std::_Iosb<int>::floatfield
CONST	ENDS
;	COMDAT ?basefield@?$_Iosb@H@std@@2W4_Fmtflags@12@B
CONST	SEGMENT
?basefield@?$_Iosb@H@std@@2W4_Fmtflags@12@B DD 0e00H	; std::_Iosb<int>::basefield
CONST	ENDS
;	COMDAT ?adjustfield@?$_Iosb@H@std@@2W4_Fmtflags@12@B
CONST	SEGMENT
?adjustfield@?$_Iosb@H@std@@2W4_Fmtflags@12@B DD 01c0H	; std::_Iosb<int>::adjustfield
CONST	ENDS
;	COMDAT ?_Stdio@?$_Iosb@H@std@@2W4_Fmtflags@12@B
CONST	SEGMENT
?_Stdio@?$_Iosb@H@std@@2W4_Fmtflags@12@B DD 08000H	; std::_Iosb<int>::_Stdio
CONST	ENDS
;	COMDAT ?boolalpha@?$_Iosb@H@std@@2W4_Fmtflags@12@B
CONST	SEGMENT
?boolalpha@?$_Iosb@H@std@@2W4_Fmtflags@12@B DD 04000H	; std::_Iosb<int>::boolalpha
CONST	ENDS
;	COMDAT ?hexfloat@?$_Iosb@H@std@@2W4_Fmtflags@12@B
CONST	SEGMENT
?hexfloat@?$_Iosb@H@std@@2W4_Fmtflags@12@B DD 03000H	; std::_Iosb<int>::hexfloat
CONST	ENDS
;	COMDAT ?fixed@?$_Iosb@H@std@@2W4_Fmtflags@12@B
CONST	SEGMENT
?fixed@?$_Iosb@H@std@@2W4_Fmtflags@12@B DD 02000H	; std::_Iosb<int>::fixed
CONST	ENDS
;	COMDAT ?scientific@?$_Iosb@H@std@@2W4_Fmtflags@12@B
CONST	SEGMENT
?scientific@?$_Iosb@H@std@@2W4_Fmtflags@12@B DD 01000H	; std::_Iosb<int>::scientific
CONST	ENDS
;	COMDAT ?hex@?$_Iosb@H@std@@2W4_Fmtflags@12@B
CONST	SEGMENT
?hex@?$_Iosb@H@std@@2W4_Fmtflags@12@B DD 0800H		; std::_Iosb<int>::hex
CONST	ENDS
;	COMDAT ?oct@?$_Iosb@H@std@@2W4_Fmtflags@12@B
CONST	SEGMENT
?oct@?$_Iosb@H@std@@2W4_Fmtflags@12@B DD 0400H		; std::_Iosb<int>::oct
CONST	ENDS
;	COMDAT ?dec@?$_Iosb@H@std@@2W4_Fmtflags@12@B
CONST	SEGMENT
?dec@?$_Iosb@H@std@@2W4_Fmtflags@12@B DD 0200H		; std::_Iosb<int>::dec
CONST	ENDS
;	COMDAT ?internal@?$_Iosb@H@std@@2W4_Fmtflags@12@B
CONST	SEGMENT
?internal@?$_Iosb@H@std@@2W4_Fmtflags@12@B DD 0100H	; std::_Iosb<int>::internal
CONST	ENDS
;	COMDAT ?right@?$_Iosb@H@std@@2W4_Fmtflags@12@B
CONST	SEGMENT
?right@?$_Iosb@H@std@@2W4_Fmtflags@12@B DD 080H		; std::_Iosb<int>::right
CONST	ENDS
;	COMDAT ?left@?$_Iosb@H@std@@2W4_Fmtflags@12@B
CONST	SEGMENT
?left@?$_Iosb@H@std@@2W4_Fmtflags@12@B DD 040H		; std::_Iosb<int>::left
CONST	ENDS
;	COMDAT ?showpos@?$_Iosb@H@std@@2W4_Fmtflags@12@B
CONST	SEGMENT
?showpos@?$_Iosb@H@std@@2W4_Fmtflags@12@B DD 020H	; std::_Iosb<int>::showpos
CONST	ENDS
;	COMDAT ?showpoint@?$_Iosb@H@std@@2W4_Fmtflags@12@B
CONST	SEGMENT
?showpoint@?$_Iosb@H@std@@2W4_Fmtflags@12@B DD 010H	; std::_Iosb<int>::showpoint
CONST	ENDS
;	COMDAT ?showbase@?$_Iosb@H@std@@2W4_Fmtflags@12@B
CONST	SEGMENT
?showbase@?$_Iosb@H@std@@2W4_Fmtflags@12@B DD 08H	; std::_Iosb<int>::showbase
CONST	ENDS
;	COMDAT ?uppercase@?$_Iosb@H@std@@2W4_Fmtflags@12@B
CONST	SEGMENT
?uppercase@?$_Iosb@H@std@@2W4_Fmtflags@12@B DD 04H	; std::_Iosb<int>::uppercase
CONST	ENDS
;	COMDAT ?unitbuf@?$_Iosb@H@std@@2W4_Fmtflags@12@B
CONST	SEGMENT
?unitbuf@?$_Iosb@H@std@@2W4_Fmtflags@12@B DD 02H	; std::_Iosb<int>::unitbuf
CONST	ENDS
;	COMDAT ?skipws@?$_Iosb@H@std@@2W4_Fmtflags@12@B
CONST	SEGMENT
?skipws@?$_Iosb@H@std@@2W4_Fmtflags@12@B DD 01H		; std::_Iosb<int>::skipws
CONST	ENDS
;	COMDAT ?table_size@?$ctype@D@std@@2IB
CONST	SEGMENT
?table_size@?$ctype@D@std@@2IB DD 0100H			; std::ctype<char>::table_size
CONST	ENDS
;	COMDAT ?none@?$_Locbase@H@std@@2HB
CONST	SEGMENT
?none@?$_Locbase@H@std@@2HB DD 00H			; std::_Locbase<int>::none
CONST	ENDS
;	COMDAT ?all@?$_Locbase@H@std@@2HB
CONST	SEGMENT
?all@?$_Locbase@H@std@@2HB DD 03fH			; std::_Locbase<int>::all
CONST	ENDS
;	COMDAT ?messages@?$_Locbase@H@std@@2HB
CONST	SEGMENT
?messages@?$_Locbase@H@std@@2HB DD 020H			; std::_Locbase<int>::messages
CONST	ENDS
;	COMDAT ?time@?$_Locbase@H@std@@2HB
CONST	SEGMENT
?time@?$_Locbase@H@std@@2HB DD 010H			; std::_Locbase<int>::time
CONST	ENDS
;	COMDAT ?numeric@?$_Locbase@H@std@@2HB
CONST	SEGMENT
?numeric@?$_Locbase@H@std@@2HB DD 08H			; std::_Locbase<int>::numeric
CONST	ENDS
;	COMDAT ?monetary@?$_Locbase@H@std@@2HB
CONST	SEGMENT
?monetary@?$_Locbase@H@std@@2HB DD 04H			; std::_Locbase<int>::monetary
CONST	ENDS
;	COMDAT ?ctype@?$_Locbase@H@std@@2HB
CONST	SEGMENT
?ctype@?$_Locbase@H@std@@2HB DD 02H			; std::_Locbase<int>::ctype
CONST	ENDS
;	COMDAT ?collate@?$_Locbase@H@std@@2HB
CONST	SEGMENT
?collate@?$_Locbase@H@std@@2HB DD 01H			; std::_Locbase<int>::collate
CONST	ENDS
;	COMDAT ?_Value@?$_Is_swap_move@U_Swap_move_tag@std@@@std@@2_NB
CONST	SEGMENT
?_Value@?$_Is_swap_move@U_Swap_move_tag@std@@@std@@2_NB DB 01H ; std::_Is_swap_move<std::_Swap_move_tag>::_Value
CONST	ENDS
;	COMDAT ??_C@_0P@GHFPNOJB@bad?5allocation?$AA@
CONST	SEGMENT
??_C@_0P@GHFPNOJB@bad?5allocation?$AA@ DB 'bad allocation', 00H ; `string'
CONST	ENDS
;	COMDAT ??_C@_0BC@KMEHMKJJ@truecrypt?9x64?4sys?$AA@
CONST	SEGMENT
??_C@_0BC@KMEHMKJJ@truecrypt?9x64?4sys?$AA@ DB 'truecrypt-x64.sys', 00H ; `string'
CONST	ENDS
;	COMDAT ??_C@_0O@OJENBJKN@truecrypt?4sys?$AA@
CONST	SEGMENT
??_C@_0O@OJENBJKN@truecrypt?4sys?$AA@ DB 'truecrypt.sys', 00H ; `string'
CONST	ENDS
;	COMDAT ??_C@_0BG@NHCNJMON@CipherShed?5Format?4exe?$AA@
CONST	SEGMENT
??_C@_0BG@NHCNJMON@CipherShed?5Format?4exe?$AA@ DB 'CipherShed Format.exe'
	DB	00H						; `string'
CONST	ENDS
;	COMDAT ??_C@_0P@KEOPEMDF@CipherShed?4exe?$AA@
CONST	SEGMENT
??_C@_0P@KEOPEMDF@CipherShed?4exe?$AA@ DB 'CipherShed.exe', 00H ; `string'
CONST	ENDS
;	COMDAT ??_C@_0M@HNDLNFKG@License?4txt?$AA@
CONST	SEGMENT
??_C@_0M@HNDLNFKG@License?4txt?$AA@ DB 'License.txt', 00H ; `string'
CONST	ENDS
;	COMDAT ??_C@_0BK@LMECBCPP@CipherShed?5User?5Guide?4pdf?$AA@
CONST	SEGMENT
??_C@_0BK@LMECBCPP@CipherShed?5User?5Guide?4pdf?$AA@ DB 'CipherShed User '
	DB	'Guide.pdf', 00H				; `string'
CONST	ENDS
_DATA	SEGMENT
_szFiles DD	FLAT:??_C@_0BL@MFPLEOCK@ACipherShed?5User?5Guide?4pdf?$AA@
	DD	FLAT:??_C@_0N@GJIBBNGF@ALicense?4txt?$AA@
	DD	FLAT:??_C@_0BA@BPJBGDOM@ACipherShed?4exe?$AA@
	DD	FLAT:??_C@_0BH@JDBNPKKN@ACipherShed?5Format?4exe?$AA@
	DD	FLAT:??_C@_0P@JMCFMDBI@Atruecrypt?4sys?$AA@
	DD	FLAT:??_C@_0BD@ILLOKAML@Atruecrypt?9x64?4sys?$AA@
	DD	FLAT:??_C@_0P@KPKCHNJD@Dtruecrypt?4sys?$AA@
	DD	FLAT:??_C@_0BG@PCIEDLBB@ACipherShed?5Setup?4exe?$AA@
_szCompressedFiles DD FLAT:??_C@_0BK@LMECBCPP@CipherShed?5User?5Guide?4pdf?$AA@
	DD	FLAT:??_C@_0M@HNDLNFKG@License?4txt?$AA@
	DD	FLAT:??_C@_0P@KEOPEMDF@CipherShed?4exe?$AA@
	DD	FLAT:??_C@_0BG@NHCNJMON@CipherShed?5Format?4exe?$AA@
	DD	FLAT:??_C@_0O@OJENBJKN@truecrypt?4sys?$AA@
	DD	FLAT:??_C@_0BC@KMEHMKJJ@truecrypt?9x64?4sys?$AA@
__bad_alloc_Message DD FLAT:??_C@_0P@GHFPNOJB@bad?5allocation?$AA@
?nCurPageNo@@3HA DD 0ffffffffH				; nCurPageNo
?bOpenContainingFolder@@3HA DD 01H			; bOpenContainingFolder
_DATA	ENDS
;	COMDAT ??_C@_0BG@PCIEDLBB@ACipherShed?5Setup?4exe?$AA@
CONST	SEGMENT
??_C@_0BG@PCIEDLBB@ACipherShed?5Setup?4exe?$AA@ DB 'ACipherShed Setup.exe'
	DB	00H						; `string'
CONST	ENDS
;	COMDAT ??_C@_0P@KPKCHNJD@Dtruecrypt?4sys?$AA@
CONST	SEGMENT
??_C@_0P@KPKCHNJD@Dtruecrypt?4sys?$AA@ DB 'Dtruecrypt.sys', 00H ; `string'
CONST	ENDS
;	COMDAT ??_C@_0BD@ILLOKAML@Atruecrypt?9x64?4sys?$AA@
CONST	SEGMENT
??_C@_0BD@ILLOKAML@Atruecrypt?9x64?4sys?$AA@ DB 'Atruecrypt-x64.sys', 00H ; `string'
CONST	ENDS
;	COMDAT ??_C@_0P@JMCFMDBI@Atruecrypt?4sys?$AA@
CONST	SEGMENT
??_C@_0P@JMCFMDBI@Atruecrypt?4sys?$AA@ DB 'Atruecrypt.sys', 00H ; `string'
CONST	ENDS
;	COMDAT ??_C@_0BH@JDBNPKKN@ACipherShed?5Format?4exe?$AA@
CONST	SEGMENT
??_C@_0BH@JDBNPKKN@ACipherShed?5Format?4exe?$AA@ DB 'ACipherShed Format.e'
	DB	'xe', 00H					; `string'
CONST	ENDS
;	COMDAT ??_C@_0BA@BPJBGDOM@ACipherShed?4exe?$AA@
CONST	SEGMENT
??_C@_0BA@BPJBGDOM@ACipherShed?4exe?$AA@ DB 'ACipherShed.exe', 00H ; `string'
CONST	ENDS
;	COMDAT ??_C@_0N@GJIBBNGF@ALicense?4txt?$AA@
CONST	SEGMENT
??_C@_0N@GJIBBNGF@ALicense?4txt?$AA@ DB 'ALicense.txt', 00H ; `string'
CONST	ENDS
;	COMDAT ??_C@_0BL@MFPLEOCK@ACipherShed?5User?5Guide?4pdf?$AA@
CONST	SEGMENT
??_C@_0BL@MFPLEOCK@ACipherShed?5User?5Guide?4pdf?$AA@ DB 'ACipherShed Use'
	DB	'r Guide.pdf', 00H				; `string'
CONST	ENDS
EXTRN	__time64:PROC
; Function compile flags: /Ogtpy
; File c:\program files (x86)\microsoft visual studio 9.0\vc\include\time.inl
;	COMDAT _time
_TEXT	SEGMENT
_time	PROC						; COMDAT
; __Time$ = eax

; 135  :     return _time64(_Time);

  00000	50		 push	 eax
  00001	e8 00 00 00 00	 call	 __time64
  00006	83 c4 04	 add	 esp, 4

; 136  : }

  00009	c3		 ret	 0
_time	ENDP
_TEXT	ENDS
PUBLIC	??_7bad_alloc@std@@6B@				; std::bad_alloc::`vftable'
PUBLIC	??0bad_alloc@std@@QAE@PBD@Z			; std::bad_alloc::bad_alloc
PUBLIC	??_R4bad_alloc@std@@6B@				; std::bad_alloc::`RTTI Complete Object Locator'
PUBLIC	??_R0?AVbad_alloc@std@@@8			; std::bad_alloc `RTTI Type Descriptor'
PUBLIC	??_R3bad_alloc@std@@8				; std::bad_alloc::`RTTI Class Hierarchy Descriptor'
PUBLIC	??_R2bad_alloc@std@@8				; std::bad_alloc::`RTTI Base Class Array'
PUBLIC	??_R1A@?0A@EA@bad_alloc@std@@8			; std::bad_alloc::`RTTI Base Class Descriptor at (0,-1,0,64)'
PUBLIC	??_R1A@?0A@EA@exception@std@@8			; std::exception::`RTTI Base Class Descriptor at (0,-1,0,64)'
PUBLIC	??_R0?AVexception@std@@@8			; std::exception `RTTI Type Descriptor'
PUBLIC	??_R3exception@std@@8				; std::exception::`RTTI Class Hierarchy Descriptor'
PUBLIC	??_R2exception@std@@8				; std::exception::`RTTI Base Class Array'
EXTRN	??0exception@std@@QAE@ABQBD@Z:PROC		; std::exception::exception
EXTRN	??_7type_info@@6B@:QWORD			; type_info::`vftable'
EXTRN	??_Ebad_alloc@std@@UAEPAXI@Z:PROC		; std::bad_alloc::`vector deleting destructor'
EXTRN	?what@exception@std@@UBEPBDXZ:PROC		; std::exception::what
;	COMDAT ??_R2exception@std@@8
; File c:\program files (x86)\microsoft visual studio 9.0\vc\include\exception
rdata$r	SEGMENT
??_R2exception@std@@8 DD FLAT:??_R1A@?0A@EA@exception@std@@8 ; std::exception::`RTTI Base Class Array'
rdata$r	ENDS
;	COMDAT ??_R3exception@std@@8
rdata$r	SEGMENT
??_R3exception@std@@8 DD 00H				; std::exception::`RTTI Class Hierarchy Descriptor'
	DD	00H
	DD	01H
	DD	FLAT:??_R2exception@std@@8
rdata$r	ENDS
;	COMDAT ??_R0?AVexception@std@@@8
_DATA	SEGMENT
??_R0?AVexception@std@@@8 DD FLAT:??_7type_info@@6B@	; std::exception `RTTI Type Descriptor'
	DD	00H
	DB	'.?AVexception@std@@', 00H
_DATA	ENDS
;	COMDAT ??_R1A@?0A@EA@exception@std@@8
rdata$r	SEGMENT
??_R1A@?0A@EA@exception@std@@8 DD FLAT:??_R0?AVexception@std@@@8 ; std::exception::`RTTI Base Class Descriptor at (0,-1,0,64)'
	DD	00H
	DD	00H
	DD	0ffffffffH
	DD	00H
	DD	040H
	DD	FLAT:??_R3exception@std@@8
rdata$r	ENDS
;	COMDAT ??_R1A@?0A@EA@bad_alloc@std@@8
rdata$r	SEGMENT
??_R1A@?0A@EA@bad_alloc@std@@8 DD FLAT:??_R0?AVbad_alloc@std@@@8 ; std::bad_alloc::`RTTI Base Class Descriptor at (0,-1,0,64)'
	DD	01H
	DD	00H
	DD	0ffffffffH
	DD	00H
	DD	040H
	DD	FLAT:??_R3bad_alloc@std@@8
rdata$r	ENDS
;	COMDAT ??_R2bad_alloc@std@@8
rdata$r	SEGMENT
??_R2bad_alloc@std@@8 DD FLAT:??_R1A@?0A@EA@bad_alloc@std@@8 ; std::bad_alloc::`RTTI Base Class Array'
	DD	FLAT:??_R1A@?0A@EA@exception@std@@8
rdata$r	ENDS
;	COMDAT ??_R3bad_alloc@std@@8
rdata$r	SEGMENT
??_R3bad_alloc@std@@8 DD 00H				; std::bad_alloc::`RTTI Class Hierarchy Descriptor'
	DD	00H
	DD	02H
	DD	FLAT:??_R2bad_alloc@std@@8
rdata$r	ENDS
;	COMDAT ??_R0?AVbad_alloc@std@@@8
_DATA	SEGMENT
??_R0?AVbad_alloc@std@@@8 DD FLAT:??_7type_info@@6B@	; std::bad_alloc `RTTI Type Descriptor'
	DD	00H
	DB	'.?AVbad_alloc@std@@', 00H
_DATA	ENDS
;	COMDAT ??_R4bad_alloc@std@@6B@
rdata$r	SEGMENT
??_R4bad_alloc@std@@6B@ DD 00H				; std::bad_alloc::`RTTI Complete Object Locator'
	DD	00H
	DD	00H
	DD	FLAT:??_R0?AVbad_alloc@std@@@8
	DD	FLAT:??_R3bad_alloc@std@@8
rdata$r	ENDS
;	COMDAT ??_7bad_alloc@std@@6B@
CONST	SEGMENT
??_7bad_alloc@std@@6B@ DD FLAT:??_R4bad_alloc@std@@6B@	; std::bad_alloc::`vftable'
	DD	FLAT:??_Ebad_alloc@std@@UAEPAXI@Z
	DD	FLAT:?what@exception@std@@UBEPBDXZ
; Function compile flags: /Ogtpy
CONST	ENDS
;	COMDAT ??0bad_alloc@std@@QAE@PBD@Z
_TEXT	SEGMENT
__Message$ = 8						; size = 4
??0bad_alloc@std@@QAE@PBD@Z PROC			; std::bad_alloc::bad_alloc, COMDAT
; _this$ = ecx

; 371  : 		{	// construct from message string

  00000	56		 push	 esi
  00001	8d 44 24 08	 lea	 eax, DWORD PTR __Message$[esp]
  00005	50		 push	 eax
  00006	8b f1		 mov	 esi, ecx
  00008	e8 00 00 00 00	 call	 ??0exception@std@@QAE@ABQBD@Z ; std::exception::exception
  0000d	c7 06 00 00 00
	00		 mov	 DWORD PTR [esi], OFFSET ??_7bad_alloc@std@@6B@

; 372  : 		}

  00013	8b c6		 mov	 eax, esi
  00015	5e		 pop	 esi
  00016	c2 04 00	 ret	 4
??0bad_alloc@std@@QAE@PBD@Z ENDP			; std::bad_alloc::bad_alloc
_TEXT	ENDS
PUBLIC	??1bad_alloc@std@@UAE@XZ			; std::bad_alloc::~bad_alloc
EXTRN	??1exception@std@@UAE@XZ:PROC			; std::exception::~exception
; Function compile flags: /Ogtpy
;	COMDAT ??1bad_alloc@std@@UAE@XZ
_TEXT	SEGMENT
??1bad_alloc@std@@UAE@XZ PROC				; std::bad_alloc::~bad_alloc, COMDAT
; _this$ = ecx

; 380  : 		{	// destroy the object

  00000	c7 01 00 00 00
	00		 mov	 DWORD PTR [ecx], OFFSET ??_7bad_alloc@std@@6B@

; 381  : 		}

  00006	e9 00 00 00 00	 jmp	 ??1exception@std@@UAE@XZ ; std::exception::~exception
??1bad_alloc@std@@UAE@XZ ENDP				; std::bad_alloc::~bad_alloc
_TEXT	ENDS
EXTRN	??3@YAXPAX@Z:PROC				; operator delete
; Function compile flags: /Ogtpy
;	COMDAT ??_Gbad_alloc@std@@UAEPAXI@Z
_TEXT	SEGMENT
___flags$ = 8						; size = 4
??_Gbad_alloc@std@@UAEPAXI@Z PROC			; std::bad_alloc::`scalar deleting destructor', COMDAT
; _this$ = ecx
  00000	56		 push	 esi
  00001	8b f1		 mov	 esi, ecx
  00003	c7 06 00 00 00
	00		 mov	 DWORD PTR [esi], OFFSET ??_7bad_alloc@std@@6B@
  00009	e8 00 00 00 00	 call	 ??1exception@std@@UAE@XZ ; std::exception::~exception
  0000e	f6 44 24 08 01	 test	 BYTE PTR ___flags$[esp], 1
  00013	74 09		 je	 SHORT $LN6@scalar
  00015	56		 push	 esi
  00016	e8 00 00 00 00	 call	 ??3@YAXPAX@Z		; operator delete
  0001b	83 c4 04	 add	 esp, 4
$LN6@scalar:
  0001e	8b c6		 mov	 eax, esi
  00020	5e		 pop	 esi
  00021	c2 04 00	 ret	 4
??_Gbad_alloc@std@@UAEPAXI@Z ENDP			; std::bad_alloc::`scalar deleting destructor'
_TEXT	ENDS
PUBLIC	_wmemcpy_s
EXTRN	_memcpy_s:PROC
; Function compile flags: /Ogtpy
; File c:\program files (x86)\microsoft visual studio 9.0\vc\include\wchar.h
;	COMDAT _wmemcpy_s
_TEXT	SEGMENT
__S1$ = 8						; size = 4
__N1$ = 12						; size = 4
__S2$ = 16						; size = 4
__N$ = 20						; size = 4
_wmemcpy_s PROC						; COMDAT

; 1232 : #pragma warning( push )
; 1233 : #pragma warning( disable : 6386 )
; 1234 :             return memcpy_s(_S1, _N1*sizeof(wchar_t), _S2, _N*sizeof(wchar_t));

  00000	8b 44 24 10	 mov	 eax, DWORD PTR __N$[esp-4]
  00004	8d 0c 00	 lea	 ecx, DWORD PTR [eax+eax]
  00007	89 4c 24 10	 mov	 DWORD PTR __N$[esp-4], ecx
  0000b	8b 44 24 08	 mov	 eax, DWORD PTR __N1$[esp-4]
  0000f	8d 0c 00	 lea	 ecx, DWORD PTR [eax+eax]
  00012	89 4c 24 08	 mov	 DWORD PTR __N1$[esp-4], ecx
  00016	e9 00 00 00 00	 jmp	 _memcpy_s
_wmemcpy_s ENDP
_TEXT	ENDS
PUBLIC	_wmemmove_s
EXTRN	_memmove_s:PROC
; Function compile flags: /Ogtpy
;	COMDAT _wmemmove_s
_TEXT	SEGMENT
__S1$ = 8						; size = 4
__N1$ = 12						; size = 4
__S2$ = 16						; size = 4
__N$ = 20						; size = 4
_wmemmove_s PROC					; COMDAT

; 1252 : #pragma warning( push )
; 1253 : #pragma warning( disable : 6386 )
; 1254 :             return memmove_s(_S1, _N1*sizeof(wchar_t), _S2, _N*sizeof(wchar_t));

  00000	8b 44 24 10	 mov	 eax, DWORD PTR __N$[esp-4]
  00004	8d 0c 00	 lea	 ecx, DWORD PTR [eax+eax]
  00007	89 4c 24 10	 mov	 DWORD PTR __N$[esp-4], ecx
  0000b	8b 44 24 08	 mov	 eax, DWORD PTR __N1$[esp-4]
  0000f	8d 0c 00	 lea	 ecx, DWORD PTR [eax+eax]
  00012	89 4c 24 08	 mov	 DWORD PTR __N1$[esp-4], ecx
  00016	e9 00 00 00 00	 jmp	 _memmove_s
_wmemmove_s ENDP
_TEXT	ENDS
PUBLIC	?assign@?$char_traits@_W@std@@SAXAA_WAB_W@Z	; std::char_traits<wchar_t>::assign
; Function compile flags: /Ogtpy
; File c:\program files (x86)\microsoft visual studio 9.0\vc\include\iosfwd
;	COMDAT ?assign@?$char_traits@_W@std@@SAXAA_WAB_W@Z
_TEXT	SEGMENT
__Left$ = 8						; size = 4
__Right$ = 12						; size = 4
?assign@?$char_traits@_W@std@@SAXAA_WAB_W@Z PROC	; std::char_traits<wchar_t>::assign, COMDAT

; 310  : 		_Left = _Right;

  00000	8b 44 24 08	 mov	 eax, DWORD PTR __Right$[esp-4]
  00004	66 8b 08	 mov	 cx, WORD PTR [eax]
  00007	8b 54 24 04	 mov	 edx, DWORD PTR __Left$[esp-4]
  0000b	66 89 0a	 mov	 WORD PTR [edx], cx

; 311  : 		}

  0000e	c3		 ret	 0
?assign@?$char_traits@_W@std@@SAXAA_WAB_W@Z ENDP	; std::char_traits<wchar_t>::assign
_TEXT	ENDS
PUBLIC	?length@?$char_traits@_W@std@@SAIPB_W@Z		; std::char_traits<wchar_t>::length
; Function compile flags: /Ogtpy
;	COMDAT ?length@?$char_traits@_W@std@@SAIPB_W@Z
_TEXT	SEGMENT
__First$ = 8						; size = 4
?length@?$char_traits@_W@std@@SAIPB_W@Z PROC		; std::char_traits<wchar_t>::length, COMDAT

; 333  : //		_DEBUG_POINTER(_First);
; 334  : 		return (::wcslen(_First));

  00000	8b 44 24 04	 mov	 eax, DWORD PTR __First$[esp-4]
  00004	8d 50 02	 lea	 edx, DWORD PTR [eax+2]
$LL3@length:
  00007	66 8b 08	 mov	 cx, WORD PTR [eax]
  0000a	83 c0 02	 add	 eax, 2
  0000d	66 85 c9	 test	 cx, cx
  00010	75 f5		 jne	 SHORT $LL3@length
  00012	2b c2		 sub	 eax, edx
  00014	d1 f8		 sar	 eax, 1

; 335  : 		}

  00016	c3		 ret	 0
?length@?$char_traits@_W@std@@SAIPB_W@Z ENDP		; std::char_traits<wchar_t>::length
_TEXT	ENDS
PUBLIC	?_Copy_s@?$char_traits@_W@std@@SAPA_WPA_WIPB_WI@Z ; std::char_traits<wchar_t>::_Copy_s
; Function compile flags: /Ogtpy
;	COMDAT ?_Copy_s@?$char_traits@_W@std@@SAPA_WPA_WIPB_WI@Z
_TEXT	SEGMENT
__First1$ = 8						; size = 4
__Size_in_words$ = 12					; size = 4
__First2$ = 16						; size = 4
__Count$ = 20						; size = 4
?_Copy_s@?$char_traits@_W@std@@SAPA_WPA_WIPB_WI@Z PROC	; std::char_traits<wchar_t>::_Copy_s, COMDAT

; 348  : //		_DEBUG_POINTER(_First1);
; 349  : //		_DEBUG_POINTER(_First2);
; 350  : 		_CRT_SECURE_WMEMCPY(_First1, _Size_in_words, _First2, _Count);

  00000	8b 44 24 10	 mov	 eax, DWORD PTR __Count$[esp-4]
  00004	8b 54 24 0c	 mov	 edx, DWORD PTR __First2$[esp-4]
  00008	56		 push	 esi
  00009	8b 74 24 08	 mov	 esi, DWORD PTR __First1$[esp]
  0000d	8d 0c 00	 lea	 ecx, DWORD PTR [eax+eax]
  00010	8b 44 24 0c	 mov	 eax, DWORD PTR __Size_in_words$[esp]
  00014	51		 push	 ecx
  00015	52		 push	 edx
  00016	8d 0c 00	 lea	 ecx, DWORD PTR [eax+eax]
  00019	51		 push	 ecx
  0001a	56		 push	 esi
  0001b	e8 00 00 00 00	 call	 _memcpy_s
  00020	83 c4 10	 add	 esp, 16			; 00000010H

; 351  : 		return _First1;

  00023	8b c6		 mov	 eax, esi
  00025	5e		 pop	 esi

; 352  : 		}

  00026	c3		 ret	 0
?_Copy_s@?$char_traits@_W@std@@SAPA_WPA_WIPB_WI@Z ENDP	; std::char_traits<wchar_t>::_Copy_s
_TEXT	ENDS
PUBLIC	?_Move_s@?$char_traits@_W@std@@SAPA_WPA_WIPB_WI@Z ; std::char_traits<wchar_t>::_Move_s
; Function compile flags: /Ogtpy
;	COMDAT ?_Move_s@?$char_traits@_W@std@@SAPA_WPA_WIPB_WI@Z
_TEXT	SEGMENT
__First1$ = 8						; size = 4
__Size_in_words$ = 12					; size = 4
__First2$ = 16						; size = 4
__Count$ = 20						; size = 4
?_Move_s@?$char_traits@_W@std@@SAPA_WPA_WIPB_WI@Z PROC	; std::char_traits<wchar_t>::_Move_s, COMDAT

; 372  : //		_DEBUG_POINTER(_First1);
; 373  : //		_DEBUG_POINTER(_First2);
; 374  : 		_CRT_SECURE_WMEMMOVE(_First1, _Size_in_words, _First2, _Count);

  00000	8b 44 24 10	 mov	 eax, DWORD PTR __Count$[esp-4]
  00004	8b 54 24 0c	 mov	 edx, DWORD PTR __First2$[esp-4]
  00008	56		 push	 esi
  00009	8b 74 24 08	 mov	 esi, DWORD PTR __First1$[esp]
  0000d	8d 0c 00	 lea	 ecx, DWORD PTR [eax+eax]
  00010	8b 44 24 0c	 mov	 eax, DWORD PTR __Size_in_words$[esp]
  00014	51		 push	 ecx
  00015	52		 push	 edx
  00016	8d 0c 00	 lea	 ecx, DWORD PTR [eax+eax]
  00019	51		 push	 ecx
  0001a	56		 push	 esi
  0001b	e8 00 00 00 00	 call	 _memmove_s
  00020	83 c4 10	 add	 esp, 16			; 00000010H

; 375  : 		return (_Elem *)_First1;

  00023	8b c6		 mov	 eax, esi
  00025	5e		 pop	 esi

; 376  : 		}

  00026	c3		 ret	 0
?_Move_s@?$char_traits@_W@std@@SAPA_WPA_WIPB_WI@Z ENDP	; std::char_traits<wchar_t>::_Move_s
_TEXT	ENDS
PUBLIC	?assign@?$char_traits@D@std@@SAXAADABD@Z	; std::char_traits<char>::assign
; Function compile flags: /Ogtpy
;	COMDAT ?assign@?$char_traits@D@std@@SAXAADABD@Z
_TEXT	SEGMENT
__Left$ = 8						; size = 4
__Right$ = 12						; size = 4
?assign@?$char_traits@D@std@@SAXAADABD@Z PROC		; std::char_traits<char>::assign, COMDAT

; 425  : 		_Left = _Right;

  00000	8b 44 24 08	 mov	 eax, DWORD PTR __Right$[esp-4]
  00004	8a 08		 mov	 cl, BYTE PTR [eax]
  00006	8b 54 24 04	 mov	 edx, DWORD PTR __Left$[esp-4]
  0000a	88 0a		 mov	 BYTE PTR [edx], cl

; 426  : 		}

  0000c	c3		 ret	 0
?assign@?$char_traits@D@std@@SAXAADABD@Z ENDP		; std::char_traits<char>::assign
_TEXT	ENDS
PUBLIC	?length@?$char_traits@D@std@@SAIPBD@Z		; std::char_traits<char>::length
; Function compile flags: /Ogtpy
;	COMDAT ?length@?$char_traits@D@std@@SAIPBD@Z
_TEXT	SEGMENT
__First$ = 8						; size = 4
?length@?$char_traits@D@std@@SAIPBD@Z PROC		; std::char_traits<char>::length, COMDAT

; 448  : //		_DEBUG_POINTER(_First);
; 449  : 		return (::strlen(_First));

  00000	8b 44 24 04	 mov	 eax, DWORD PTR __First$[esp-4]
  00004	8d 50 01	 lea	 edx, DWORD PTR [eax+1]
$LL3@length@2:
  00007	8a 08		 mov	 cl, BYTE PTR [eax]
  00009	40		 inc	 eax
  0000a	84 c9		 test	 cl, cl
  0000c	75 f9		 jne	 SHORT $LL3@length@2
  0000e	2b c2		 sub	 eax, edx

; 450  : 		}

  00010	c3		 ret	 0
?length@?$char_traits@D@std@@SAIPBD@Z ENDP		; std::char_traits<char>::length
_TEXT	ENDS
PUBLIC	?_Copy_s@?$char_traits@D@std@@SAPADPADIPBDI@Z	; std::char_traits<char>::_Copy_s
; Function compile flags: /Ogtpy
;	COMDAT ?_Copy_s@?$char_traits@D@std@@SAPADPADIPBDI@Z
_TEXT	SEGMENT
__First1$ = 8						; size = 4
__Size_in_bytes$ = 12					; size = 4
__First2$ = 16						; size = 4
__Count$ = 20						; size = 4
?_Copy_s@?$char_traits@D@std@@SAPADPADIPBDI@Z PROC	; std::char_traits<char>::_Copy_s, COMDAT

; 463  : //		_DEBUG_POINTER(_First1);
; 464  : //		_DEBUG_POINTER(_First2);
; 465  : 		_CRT_SECURE_MEMCPY(_First1, _Size_in_bytes, _First2, _Count);

  00000	8b 44 24 10	 mov	 eax, DWORD PTR __Count$[esp-4]
  00004	8b 4c 24 0c	 mov	 ecx, DWORD PTR __First2$[esp-4]
  00008	8b 54 24 08	 mov	 edx, DWORD PTR __Size_in_bytes$[esp-4]
  0000c	56		 push	 esi
  0000d	8b 74 24 08	 mov	 esi, DWORD PTR __First1$[esp]
  00011	50		 push	 eax
  00012	51		 push	 ecx
  00013	52		 push	 edx
  00014	56		 push	 esi
  00015	e8 00 00 00 00	 call	 _memcpy_s
  0001a	83 c4 10	 add	 esp, 16			; 00000010H

; 466  : 		return _First1;

  0001d	8b c6		 mov	 eax, esi
  0001f	5e		 pop	 esi

; 467  : 		}

  00020	c3		 ret	 0
?_Copy_s@?$char_traits@D@std@@SAPADPADIPBDI@Z ENDP	; std::char_traits<char>::_Copy_s
_TEXT	ENDS
PUBLIC	?_Move_s@?$char_traits@D@std@@SAPADPADIPBDI@Z	; std::char_traits<char>::_Move_s
; Function compile flags: /Ogtpy
;	COMDAT ?_Move_s@?$char_traits@D@std@@SAPADPADIPBDI@Z
_TEXT	SEGMENT
__First1$ = 8						; size = 4
__Size_in_bytes$ = 12					; size = 4
__First2$ = 16						; size = 4
__Count$ = 20						; size = 4
?_Move_s@?$char_traits@D@std@@SAPADPADIPBDI@Z PROC	; std::char_traits<char>::_Move_s, COMDAT

; 487  : //		_DEBUG_POINTER(_First1);
; 488  : //		_DEBUG_POINTER(_First2);
; 489  : 		_CRT_SECURE_MEMMOVE(_First1, _Size_in_bytes, _First2, _Count);

  00000	8b 44 24 10	 mov	 eax, DWORD PTR __Count$[esp-4]
  00004	8b 4c 24 0c	 mov	 ecx, DWORD PTR __First2$[esp-4]
  00008	8b 54 24 08	 mov	 edx, DWORD PTR __Size_in_bytes$[esp-4]
  0000c	56		 push	 esi
  0000d	8b 74 24 08	 mov	 esi, DWORD PTR __First1$[esp]
  00011	50		 push	 eax
  00012	51		 push	 ecx
  00013	52		 push	 edx
  00014	56		 push	 esi
  00015	e8 00 00 00 00	 call	 _memmove_s
  0001a	83 c4 10	 add	 esp, 16			; 00000010H

; 490  : 		return _First1;

  0001d	8b c6		 mov	 eax, esi
  0001f	5e		 pop	 esi

; 491  : 		}

  00020	c3		 ret	 0
?_Move_s@?$char_traits@D@std@@SAPADPADIPBDI@Z ENDP	; std::char_traits<char>::_Move_s
_TEXT	ENDS
PUBLIC	_localcleanupwiz
EXTRN	__imp__CryptReleaseContext@8:PROC
EXTRN	__imp__DeleteObject@4:PROC
_BSS	SEGMENT
_hDonTextFont DD 01H DUP (?)
_OsPrngAvailable DD 01H DUP (?)
_hCryptProv DD	01H DUP (?)
; Function compile flags: /Ogtpy
; File c:\home\public\desktop\projects\ciphershed.build\src\setup\wizard.c
_BSS	ENDS
;	COMDAT _localcleanupwiz
_TEXT	SEGMENT
_localcleanupwiz PROC					; COMDAT

; 70   : 	/* Delete buffered bitmaps (if any) */
; 71   : 	if (hbmWizardBitmapRescaled != NULL)

  00000	a1 00 00 00 00	 mov	 eax, DWORD PTR ?hbmWizardBitmapRescaled@@3PAUHBITMAP__@@A ; hbmWizardBitmapRescaled
  00005	56		 push	 esi
  00006	33 f6		 xor	 esi, esi
  00008	57		 push	 edi
  00009	8b 3d 00 00 00
	00		 mov	 edi, DWORD PTR __imp__DeleteObject@4
  0000f	3b c6		 cmp	 eax, esi
  00011	74 09		 je	 SHORT $LN3@localclean

; 72   : 	{
; 73   : 		DeleteObject ((HGDIOBJ) hbmWizardBitmapRescaled);

  00013	50		 push	 eax
  00014	ff d7		 call	 edi

; 74   : 		hbmWizardBitmapRescaled = NULL;

  00016	89 35 00 00 00
	00		 mov	 DWORD PTR ?hbmWizardBitmapRescaled@@3PAUHBITMAP__@@A, esi ; hbmWizardBitmapRescaled
$LN3@localclean:

; 75   : 	}
; 76   : 
; 77   : 	if (hCryptProv != 0)

  0001c	a1 00 00 00 00	 mov	 eax, DWORD PTR _hCryptProv
  00021	3b c6		 cmp	 eax, esi
  00023	74 14		 je	 SHORT $LN2@localclean

; 78   : 	{
; 79   : 		OsPrngAvailable = FALSE;
; 80   : 		CryptReleaseContext (hCryptProv, 0);

  00025	56		 push	 esi
  00026	50		 push	 eax
  00027	89 35 00 00 00
	00		 mov	 DWORD PTR _OsPrngAvailable, esi
  0002d	ff 15 00 00 00
	00		 call	 DWORD PTR __imp__CryptReleaseContext@8

; 81   : 		hCryptProv = 0;

  00033	89 35 00 00 00
	00		 mov	 DWORD PTR _hCryptProv, esi
$LN2@localclean:

; 82   : 	}
; 83   : 
; 84   : 	if (hDonTextFont != NULL)

  00039	a1 00 00 00 00	 mov	 eax, DWORD PTR _hDonTextFont
  0003e	3b c6		 cmp	 eax, esi
  00040	74 09		 je	 SHORT $LN1@localclean

; 85   : 	{
; 86   : 		DeleteObject (hDonTextFont);

  00042	50		 push	 eax
  00043	ff d7		 call	 edi

; 87   : 		hDonTextFont = NULL;

  00045	89 35 00 00 00
	00		 mov	 DWORD PTR _hDonTextFont, esi
$LN1@localclean:
  0004b	5f		 pop	 edi
  0004c	5e		 pop	 esi

; 88   : 	}
; 89   : }

  0004d	c3		 ret	 0
_localcleanupwiz ENDP
_TEXT	ENDS
PUBLIC	??_C@_0N@ILKBADPD@?2CipherShed?2?$AA@		; `string'
PUBLIC	??_C@_0M@EMLNMOID@?2TrueCrypt?2?$AA@		; `string'
PUBLIC	??_C@_01KICIPPFI@?2?$AA@			; `string'
EXTRN	_strncmp:PROC
EXTRN	_bCipherShedMigration:DWORD
EXTRN	_strcpy_s:PROC
EXTRN	_InstallationPath:BYTE
;	COMDAT ??_C@_0N@ILKBADPD@?2CipherShed?2?$AA@
CONST	SEGMENT
??_C@_0N@ILKBADPD@?2CipherShed?2?$AA@ DB '\CipherShed\', 00H ; `string'
CONST	ENDS
;	COMDAT ??_C@_0M@EMLNMOID@?2TrueCrypt?2?$AA@
CONST	SEGMENT
??_C@_0M@EMLNMOID@?2TrueCrypt?2?$AA@ DB '\TrueCrypt\', 00H ; `string'
CONST	ENDS
;	COMDAT ??_C@_01KICIPPFI@?2?$AA@
CONST	SEGMENT
??_C@_01KICIPPFI@?2?$AA@ DB '\', 00H			; `string'
; Function compile flags: /Ogtpy
CONST	ENDS
;	COMDAT ?InitWizardDestInstallPath@@YAXXZ
_TEXT	SEGMENT
?InitWizardDestInstallPath@@YAXXZ PROC			; InitWizardDestInstallPath, COMDAT

; 93   : 	if (strlen (WizardDestInstallPath) < 2)

  00000	b8 00 00 00 00	 mov	 eax, OFFSET ?WizardDestInstallPath@@3PADA ; WizardDestInstallPath
  00005	8d 50 01	 lea	 edx, DWORD PTR [eax+1]
$LL7@InitWizard:
  00008	8a 08		 mov	 cl, BYTE PTR [eax]
  0000a	40		 inc	 eax
  0000b	84 c9		 test	 cl, cl
  0000d	75 f9		 jne	 SHORT $LL7@InitWizard
  0000f	2b c2		 sub	 eax, edx
  00011	83 f8 02	 cmp	 eax, 2
  00014	0f 83 b6 00 00
	00		 jae	 $LN1@InitWizard

; 94   : 	{
; 95   : 		strcpy_s (WizardDestInstallPath, sizeof(WizardDestInstallPath), InstallationPath);

  0001a	68 00 00 00 00	 push	 OFFSET _InstallationPath
  0001f	68 04 01 00 00	 push	 260			; 00000104H
  00024	68 00 00 00 00	 push	 OFFSET ?WizardDestInstallPath@@3PADA ; WizardDestInstallPath
  00029	e8 00 00 00 00	 call	 _strcpy_s

; 96   : 		if (WizardDestInstallPath [strlen (WizardDestInstallPath) - 1] != '\\')

  0002e	b8 00 00 00 00	 mov	 eax, OFFSET ?WizardDestInstallPath@@3PADA ; WizardDestInstallPath
  00033	83 c4 0c	 add	 esp, 12			; 0000000cH
  00036	8d 50 01	 lea	 edx, DWORD PTR [eax+1]
  00039	8d a4 24 00 00
	00 00		 npad	 7
$LL8@InitWizard:
  00040	8a 08		 mov	 cl, BYTE PTR [eax]
  00042	40		 inc	 eax
  00043	84 c9		 test	 cl, cl
  00045	75 f9		 jne	 SHORT $LL8@InitWizard
  00047	2b c2		 sub	 eax, edx
  00049	80 b8 ff ff ff
	ff 5c		 cmp	 BYTE PTR ?WizardDestInstallPath@@3PADA[eax-1], 92 ; 0000005cH
  00050	57		 push	 edi
  00051	74 1e		 je	 SHORT $LN3@InitWizard

; 97   : 		{
; 98   : 			strcat (WizardDestInstallPath, "\\");

  00053	bf 00 00 00 00	 mov	 edi, OFFSET ?WizardDestInstallPath@@3PADA ; WizardDestInstallPath
  00058	4f		 dec	 edi
  00059	8d a4 24 00 00
	00 00		 npad	 7
$LL9@InitWizard:
  00060	8a 47 01	 mov	 al, BYTE PTR [edi+1]
  00063	47		 inc	 edi
  00064	84 c0		 test	 al, al
  00066	75 f8		 jne	 SHORT $LL9@InitWizard
  00068	66 a1 00 00 00
	00		 mov	 ax, WORD PTR ??_C@_01KICIPPFI@?2?$AA@
  0006e	66 89 07	 mov	 WORD PTR [edi], ax
$LN3@InitWizard:

; 99   : 		}
; 100  : 
; 101  : 		/* Change CipherShed migration path. */
; 102  : 		if (bCipherShedMigration)

  00071	83 3d 00 00 00
	00 00		 cmp	 DWORD PTR _bCipherShedMigration, 0
  00078	74 55		 je	 SHORT $LN11@InitWizard

; 103  : 		{
; 104  : 			size_t str_len = strlen (WizardDestInstallPath);

  0007a	b8 00 00 00 00	 mov	 eax, OFFSET ?WizardDestInstallPath@@3PADA ; WizardDestInstallPath
  0007f	8d 50 01	 lea	 edx, DWORD PTR [eax+1]
$LL10@InitWizard:
  00082	8a 08		 mov	 cl, BYTE PTR [eax]
  00084	40		 inc	 eax
  00085	84 c9		 test	 cl, cl
  00087	75 f9		 jne	 SHORT $LL10@InitWizard
  00089	2b c2		 sub	 eax, edx
  0008b	56		 push	 esi
  0008c	8b f0		 mov	 esi, eax

; 105  : 			size_t suffix_len = sizeof ("\\TrueCrypt\\") - 1;
; 106  : 			if (str_len > suffix_len &&
; 107  : 				str_len + 1 < sizeof(WizardDestInstallPath) &&
; 108  : 				strncmp (WizardDestInstallPath + str_len - suffix_len, "\\TrueCrypt\\", suffix_len) == 0)

  0008e	83 fe 0b	 cmp	 esi, 11			; 0000000bH
  00091	76 3b		 jbe	 SHORT $LN12@InitWizard
  00093	8d 4e 01	 lea	 ecx, DWORD PTR [esi+1]
  00096	81 f9 04 01 00
	00		 cmp	 ecx, 260		; 00000104H
  0009c	73 30		 jae	 SHORT $LN12@InitWizard
  0009e	6a 0b		 push	 11			; 0000000bH
  000a0	8d be f5 ff ff
	ff		 lea	 edi, DWORD PTR ?WizardDestInstallPath@@3PADA[esi-11]
  000a6	68 00 00 00 00	 push	 OFFSET ??_C@_0M@EMLNMOID@?2TrueCrypt?2?$AA@
  000ab	57		 push	 edi
  000ac	e8 00 00 00 00	 call	 _strncmp
  000b1	83 c4 0c	 add	 esp, 12			; 0000000cH
  000b4	85 c0		 test	 eax, eax
  000b6	75 16		 jne	 SHORT $LN12@InitWizard

; 109  : 			{
; 110  : 				strcpy_s (WizardDestInstallPath + str_len - suffix_len, sizeof(WizardDestInstallPath)-(str_len - suffix_len), "\\CipherShed\\");

  000b8	ba 0f 01 00 00	 mov	 edx, 271		; 0000010fH
  000bd	68 00 00 00 00	 push	 OFFSET ??_C@_0N@ILKBADPD@?2CipherShed?2?$AA@
  000c2	2b d6		 sub	 edx, esi
  000c4	52		 push	 edx
  000c5	57		 push	 edi
  000c6	e8 00 00 00 00	 call	 _strcpy_s
  000cb	83 c4 0c	 add	 esp, 12			; 0000000cH
$LN12@InitWizard:
  000ce	5e		 pop	 esi
$LN11@InitWizard:
  000cf	5f		 pop	 edi
$LN1@InitWizard:

; 111  : 			}
; 112  : 		}
; 113  : 	}
; 114  : }

  000d0	c3		 ret	 0
?InitWizardDestInstallPath@@YAXXZ ENDP			; InitWizardDestInstallPath
_TEXT	ENDS
PUBLIC	__real@bf00000000000000
PUBLIC	__real@bef0000000000000
EXTRN	__imp__CryptGenRandom@12:PROC
EXTRN	_rand:PROC
EXTRN	_srand:PROC
EXTRN	__imp__CryptAcquireContextA@20:PROC
EXTRN	__fltused:DWORD
EXTRN	__ftol2_sse:PROC
;	COMDAT ?buffer@?1??GetDonVal@@YAHHH@Z@4PAEA
; File c:\program files (x86)\microsoft visual studio 9.0\vc\include\time.inl
_BSS	SEGMENT
?buffer@?1??GetDonVal@@YAHHH@Z@4PAEA DB 02H DUP (?)	; `GetDonVal'::`2'::buffer
_BSS	ENDS
;	COMDAT ?prngInitialized@?1??GetDonVal@@YAHHH@Z@4HA
_BSS	SEGMENT
?prngInitialized@?1??GetDonVal@@YAHHH@Z@4HA DD 01H DUP (?) ; `GetDonVal'::`2'::prngInitialized
_BSS	ENDS
;	COMDAT __real@bf00000000000000
CONST	SEGMENT
__real@bf00000000000000 DQ 0bf00000000000000r	; -3.05176e-005
CONST	ENDS
;	COMDAT __real@bef0000000000000
CONST	SEGMENT
__real@bef0000000000000 DQ 0bef0000000000000r	; -1.52588e-005
; Function compile flags: /Ogtpy
; File c:\home\public\desktop\projects\ciphershed.build\src\setup\wizard.c
CONST	ENDS
;	COMDAT ?GetDonVal@@YAHHH@Z
_TEXT	SEGMENT
tv156 = -4						; size = 4
tv149 = -4						; size = 4
tv144 = -4						; size = 4
tv138 = -4						; size = 4
?GetDonVal@@YAHHH@Z PROC				; GetDonVal, COMDAT
; _minVal$ = ecx
; _maxVal$ = eax

; 187  : {

  00000	51		 push	 ecx

; 188  : 	static BOOL prngInitialized = FALSE;
; 189  : 	static unsigned __int8 buffer [2];
; 190  : 
; 191  : 	if (!prngInitialized)

  00001	83 3d 00 00 00
	00 00		 cmp	 DWORD PTR ?prngInitialized@?1??GetDonVal@@YAHHH@Z@4HA, 0
  00008	56		 push	 esi
  00009	57		 push	 edi
  0000a	8b f0		 mov	 esi, eax
  0000c	8b f9		 mov	 edi, ecx
  0000e	75 5f		 jne	 SHORT $LN5@GetDonVal
  00010	53		 push	 ebx

; 192  : 	{
; 193  : 		if (!CryptAcquireContext (&hCryptProv, NULL, NULL, PROV_RSA_FULL, 0)
; 194  : 			&& !CryptAcquireContext (&hCryptProv, NULL, NULL, PROV_RSA_FULL, CRYPT_NEWKEYSET))

  00011	8b 1d 00 00 00
	00		 mov	 ebx, DWORD PTR __imp__CryptAcquireContextA@20
  00017	6a 00		 push	 0
  00019	6a 01		 push	 1
  0001b	6a 00		 push	 0
  0001d	6a 00		 push	 0
  0001f	68 00 00 00 00	 push	 OFFSET _hCryptProv
  00024	ff d3		 call	 ebx
  00026	85 c0		 test	 eax, eax
  00028	75 1b		 jne	 SHORT $LN4@GetDonVal
  0002a	6a 08		 push	 8
  0002c	6a 01		 push	 1
  0002e	50		 push	 eax
  0002f	50		 push	 eax
  00030	68 00 00 00 00	 push	 OFFSET _hCryptProv
  00035	ff d3		 call	 ebx

; 195  : 			OsPrngAvailable = FALSE;

  00037	c7 05 00 00 00
	00 00 00 00 00	 mov	 DWORD PTR _OsPrngAvailable, 0
  00041	85 c0		 test	 eax, eax
  00043	74 0a		 je	 SHORT $LN3@GetDonVal
$LN4@GetDonVal:

; 196  : 		else
; 197  : 			OsPrngAvailable = TRUE;

  00045	c7 05 00 00 00
	00 01 00 00 00	 mov	 DWORD PTR _OsPrngAvailable, 1
$LN3@GetDonVal:

; 198  : 
; 199  : 		srand ((unsigned int) time (NULL));

  0004f	6a 00		 push	 0
  00051	e8 00 00 00 00	 call	 __time64
  00056	50		 push	 eax
  00057	e8 00 00 00 00	 call	 _srand
  0005c	83 c4 08	 add	 esp, 8

; 200  : 		rand(); // Generate and discard the inital value, as it always appears to be somewhat non-random.

  0005f	e8 00 00 00 00	 call	 _rand

; 201  : 
; 202  : 		prngInitialized = TRUE;

  00064	c7 05 00 00 00
	00 01 00 00 00	 mov	 DWORD PTR ?prngInitialized@?1??GetDonVal@@YAHHH@Z@4HA, 1
  0006e	5b		 pop	 ebx
$LN5@GetDonVal:

; 203  : 	}
; 204  : 
; 205  : 	if (OsPrngAvailable && CryptGenRandom (hCryptProv, sizeof (buffer), buffer) != 0) 

  0006f	83 3d 00 00 00
	00 00		 cmp	 DWORD PTR _OsPrngAvailable, 0
  00076	74 46		 je	 SHORT $LN2@GetDonVal
  00078	a1 00 00 00 00	 mov	 eax, DWORD PTR _hCryptProv
  0007d	68 00 00 00 00	 push	 OFFSET ?buffer@?1??GetDonVal@@YAHHH@Z@4PAEA
  00082	6a 02		 push	 2
  00084	50		 push	 eax
  00085	ff 15 00 00 00
	00		 call	 DWORD PTR __imp__CryptGenRandom@12
  0008b	85 c0		 test	 eax, eax
  0008d	74 2f		 je	 SHORT $LN2@GetDonVal

; 206  : 	{
; 207  : 		return  ((int) ((double) *((uint16 *) buffer) / (0xFFFF+1) * (maxVal + 1 - minVal)) + minVal);

  0008f	0f b7 0d 00 00
	00 00		 movzx	 ecx, WORD PTR ?buffer@?1??GetDonVal@@YAHHH@Z@4PAEA
  00096	2b f7		 sub	 esi, edi
  00098	46		 inc	 esi
  00099	89 74 24 08	 mov	 DWORD PTR tv156[esp+12], esi
  0009d	db 44 24 08	 fild	 DWORD PTR tv156[esp+12]
  000a1	89 4c 24 08	 mov	 DWORD PTR tv149[esp+12], ecx
  000a5	db 44 24 08	 fild	 DWORD PTR tv149[esp+12]
  000a9	dc 0d 00 00 00
	00		 fmul	 QWORD PTR __real@bef0000000000000

; 208  : 	}
; 209  : 	else
; 210  : 		return  ((int) ((double) rand() / (RAND_MAX+1) * (maxVal + 1 - minVal)) + minVal);

  000af	de c9		 fmulp	 ST(1), ST(0)
  000b1	e8 00 00 00 00	 call	 __ftol2_sse
  000b6	2b f8		 sub	 edi, eax
  000b8	8b c7		 mov	 eax, edi
  000ba	5f		 pop	 edi
  000bb	5e		 pop	 esi

; 211  : }

  000bc	59		 pop	 ecx
  000bd	c3		 ret	 0
$LN2@GetDonVal:

; 208  : 	}
; 209  : 	else
; 210  : 		return  ((int) ((double) rand() / (RAND_MAX+1) * (maxVal + 1 - minVal)) + minVal);

  000be	e8 00 00 00 00	 call	 _rand
  000c3	89 44 24 08	 mov	 DWORD PTR tv144[esp+12], eax
  000c7	db 44 24 08	 fild	 DWORD PTR tv144[esp+12]
  000cb	2b f7		 sub	 esi, edi
  000cd	46		 inc	 esi
  000ce	89 74 24 08	 mov	 DWORD PTR tv138[esp+12], esi
  000d2	dc 0d 00 00 00
	00		 fmul	 QWORD PTR __real@bf00000000000000
  000d8	db 44 24 08	 fild	 DWORD PTR tv138[esp+12]
  000dc	de c9		 fmulp	 ST(1), ST(0)
  000de	e8 00 00 00 00	 call	 __ftol2_sse
  000e3	2b f8		 sub	 edi, eax
  000e5	8b c7		 mov	 eax, edi
  000e7	5f		 pop	 edi
  000e8	5e		 pop	 esi

; 211  : }

  000e9	59		 pop	 ecx
  000ea	c3		 ret	 0
?GetDonVal@@YAHHH@Z ENDP				; GetDonVal
_TEXT	ENDS
PUBLIC	_InitProgressBar
EXTRN	__imp__InvalidateRect@12:PROC
EXTRN	__imp__SendMessageA@16:PROC
EXTRN	__imp__GetDlgItem@8:PROC
; Function compile flags: /Ogtpy
;	COMDAT _InitProgressBar
_TEXT	SEGMENT
_InitProgressBar PROC					; COMDAT

; 786  : 	HWND hProgressBar = GetDlgItem (hCurPage, nPbar);

  00000	a1 00 00 00 00	 mov	 eax, DWORD PTR ?nPbar@@3HA ; nPbar
  00005	8b 0d 00 00 00
	00		 mov	 ecx, DWORD PTR ?hCurPage@@3PAUHWND__@@A ; hCurPage
  0000b	56		 push	 esi
  0000c	57		 push	 edi
  0000d	50		 push	 eax
  0000e	51		 push	 ecx
  0000f	ff 15 00 00 00
	00		 call	 DWORD PTR __imp__GetDlgItem@8

; 787  : 	SendMessage (hProgressBar, PBM_SETRANGE32, 0, 100);

  00015	8b 3d 00 00 00
	00		 mov	 edi, DWORD PTR __imp__SendMessageA@16
  0001b	6a 64		 push	 100			; 00000064H
  0001d	6a 00		 push	 0
  0001f	8b f0		 mov	 esi, eax
  00021	68 06 04 00 00	 push	 1030			; 00000406H
  00026	56		 push	 esi
  00027	ff d7		 call	 edi

; 788  : 	SendMessage (hProgressBar, PBM_SETSTEP, 1, 0);

  00029	6a 00		 push	 0
  0002b	6a 01		 push	 1
  0002d	68 04 04 00 00	 push	 1028			; 00000404H
  00032	56		 push	 esi
  00033	ff d7		 call	 edi

; 789  : 	InvalidateRect (hProgressBar, NULL, TRUE);

  00035	6a 01		 push	 1
  00037	6a 00		 push	 0
  00039	56		 push	 esi
  0003a	ff 15 00 00 00
	00		 call	 DWORD PTR __imp__InvalidateRect@12
  00040	5f		 pop	 edi
  00041	5e		 pop	 esi

; 790  : }

  00042	c3		 ret	 0
_InitProgressBar ENDP
_TEXT	ENDS
PUBLIC	_RefreshUIGFX
EXTRN	__imp__ShowWindow@8:PROC
EXTRN	_MainDlg:DWORD
; Function compile flags: /Ogtpy
;	COMDAT _RefreshUIGFX
_TEXT	SEGMENT
_RefreshUIGFX PROC					; COMDAT

; 809  : 	InvalidateRect (GetDlgItem (MainDlg, IDC_SETUP_WIZARD_BKG), NULL, TRUE);

  00000	a1 00 00 00 00	 mov	 eax, DWORD PTR _MainDlg
  00005	56		 push	 esi
  00006	8b 35 00 00 00
	00		 mov	 esi, DWORD PTR __imp__GetDlgItem@8
  0000c	57		 push	 edi
  0000d	6a 01		 push	 1
  0000f	6a 00		 push	 0
  00011	68 fa 03 00 00	 push	 1018			; 000003faH
  00016	50		 push	 eax
  00017	ff d6		 call	 esi
  00019	8b 3d 00 00 00
	00		 mov	 edi, DWORD PTR __imp__InvalidateRect@12
  0001f	50		 push	 eax
  00020	ff d7		 call	 edi

; 810  : 	InvalidateRect (GetDlgItem (MainDlg, IDC_BOX_TITLE), NULL, TRUE);

  00022	8b 0d 00 00 00
	00		 mov	 ecx, DWORD PTR _MainDlg
  00028	6a 01		 push	 1
  0002a	6a 00		 push	 0
  0002c	68 e9 03 00 00	 push	 1001			; 000003e9H
  00031	51		 push	 ecx
  00032	ff d6		 call	 esi
  00034	50		 push	 eax
  00035	ff d7		 call	 edi

; 811  : 	InvalidateRect (GetDlgItem (MainDlg, IDC_BOX_INFO), NULL, TRUE);

  00037	8b 15 00 00 00
	00		 mov	 edx, DWORD PTR _MainDlg
  0003d	6a 01		 push	 1
  0003f	6a 00		 push	 0
  00041	68 eb 03 00 00	 push	 1003			; 000003ebH
  00046	52		 push	 edx
  00047	ff d6		 call	 esi
  00049	50		 push	 eax
  0004a	ff d7		 call	 edi

; 812  : 	InvalidateRect (GetDlgItem (MainDlg, IDC_BITMAP_SETUP_WIZARD), NULL, TRUE);

  0004c	a1 00 00 00 00	 mov	 eax, DWORD PTR _MainDlg
  00051	6a 01		 push	 1
  00053	6a 00		 push	 0
  00055	68 06 04 00 00	 push	 1030			; 00000406H
  0005a	50		 push	 eax
  0005b	ff d6		 call	 esi
  0005d	50		 push	 eax
  0005e	ff d7		 call	 edi

; 813  : 	InvalidateRect (GetDlgItem (MainDlg, IDC_HR), NULL, TRUE);

  00060	8b 0d 00 00 00
	00		 mov	 ecx, DWORD PTR _MainDlg
  00066	6a 01		 push	 1
  00068	6a 00		 push	 0
  0006a	68 fc 03 00 00	 push	 1020			; 000003fcH
  0006f	51		 push	 ecx
  00070	ff d6		 call	 esi
  00072	50		 push	 eax
  00073	ff d7		 call	 edi

; 814  : 	// Prevent these items from disappearing at higher DPIs
; 815  : 	ShowWindow(GetDlgItem(MainDlg, IDC_HR), SW_HIDE);

  00075	8b 15 00 00 00
	00		 mov	 edx, DWORD PTR _MainDlg
  0007b	6a 00		 push	 0
  0007d	68 fc 03 00 00	 push	 1020			; 000003fcH
  00082	52		 push	 edx
  00083	ff d6		 call	 esi
  00085	8b 3d 00 00 00
	00		 mov	 edi, DWORD PTR __imp__ShowWindow@8
  0008b	50		 push	 eax
  0008c	ff d7		 call	 edi

; 816  : 	ShowWindow(GetDlgItem(MainDlg, IDC_HR), SW_SHOW);

  0008e	a1 00 00 00 00	 mov	 eax, DWORD PTR _MainDlg
  00093	6a 05		 push	 5
  00095	68 fc 03 00 00	 push	 1020			; 000003fcH
  0009a	50		 push	 eax
  0009b	ff d6		 call	 esi
  0009d	50		 push	 eax
  0009e	ff d7		 call	 edi

; 817  : 	ShowWindow(GetDlgItem(MainDlg, IDC_HR_BOTTOM), SW_HIDE);

  000a0	8b 0d 00 00 00
	00		 mov	 ecx, DWORD PTR _MainDlg
  000a6	6a 00		 push	 0
  000a8	68 ff 03 00 00	 push	 1023			; 000003ffH
  000ad	51		 push	 ecx
  000ae	ff d6		 call	 esi
  000b0	50		 push	 eax
  000b1	ff d7		 call	 edi

; 818  : 	ShowWindow(GetDlgItem(MainDlg, IDC_HR_BOTTOM), SW_SHOW);

  000b3	8b 15 00 00 00
	00		 mov	 edx, DWORD PTR _MainDlg
  000b9	6a 05		 push	 5
  000bb	68 ff 03 00 00	 push	 1023			; 000003ffH
  000c0	52		 push	 edx
  000c1	ff d6		 call	 esi
  000c3	50		 push	 eax
  000c4	ff d7		 call	 edi

; 819  : 	ShowWindow(GetDlgItem(MainDlg, IDC_BOX_INFO), SW_HIDE);

  000c6	a1 00 00 00 00	 mov	 eax, DWORD PTR _MainDlg
  000cb	6a 00		 push	 0
  000cd	68 eb 03 00 00	 push	 1003			; 000003ebH
  000d2	50		 push	 eax
  000d3	ff d6		 call	 esi
  000d5	50		 push	 eax
  000d6	ff d7		 call	 edi

; 820  : 	ShowWindow(GetDlgItem(MainDlg, IDC_BOX_INFO), SW_SHOW);

  000d8	6a 05		 push	 5
  000da	8b 0d 00 00 00
	00		 mov	 ecx, DWORD PTR _MainDlg
  000e0	68 eb 03 00 00	 push	 1003			; 000003ebH
  000e5	51		 push	 ecx
  000e6	ff d6		 call	 esi
  000e8	50		 push	 eax
  000e9	ff d7		 call	 edi

; 821  : 	ShowWindow(GetDlgItem(MainDlg, IDC_BOX_TITLE), SW_HIDE);

  000eb	8b 15 00 00 00
	00		 mov	 edx, DWORD PTR _MainDlg
  000f1	6a 00		 push	 0
  000f3	68 e9 03 00 00	 push	 1001			; 000003e9H
  000f8	52		 push	 edx
  000f9	ff d6		 call	 esi
  000fb	50		 push	 eax
  000fc	ff d7		 call	 edi

; 822  : 	ShowWindow(GetDlgItem(MainDlg, IDC_BOX_TITLE), SW_SHOW);

  000fe	a1 00 00 00 00	 mov	 eax, DWORD PTR _MainDlg
  00103	6a 05		 push	 5
  00105	68 e9 03 00 00	 push	 1001			; 000003e9H
  0010a	50		 push	 eax
  0010b	ff d6		 call	 esi
  0010d	50		 push	 eax
  0010e	ff d7		 call	 edi
  00110	5f		 pop	 edi
  00111	5e		 pop	 esi

; 823  : }

  00112	c3		 ret	 0
_RefreshUIGFX ENDP
_TEXT	ENDS
PUBLIC	?size@?$basic_string@DU?$char_traits@D@std@@V?$allocator@D@2@@std@@QBEIXZ ; std::basic_string<char,std::char_traits<char>,std::allocator<char> >::size
; Function compile flags: /Ogtpy
; File c:\program files (x86)\microsoft visual studio 9.0\vc\include\xstring
;	COMDAT ?size@?$basic_string@DU?$char_traits@D@std@@V?$allocator@D@2@@std@@QBEIXZ
_TEXT	SEGMENT
?size@?$basic_string@DU?$char_traits@D@std@@V?$allocator@D@2@@std@@QBEIXZ PROC ; std::basic_string<char,std::char_traits<char>,std::allocator<char> >::size, COMDAT
; _this$ = ecx

; 1666 : 		return (_Mysize);

  00000	8b 41 14	 mov	 eax, DWORD PTR [ecx+20]

; 1667 : 		}

  00003	c3		 ret	 0
?size@?$basic_string@DU?$char_traits@D@std@@V?$allocator@D@2@@std@@QBEIXZ ENDP ; std::basic_string<char,std::char_traits<char>,std::allocator<char> >::size
_TEXT	ENDS
PUBLIC	?length@?$basic_string@_WU?$char_traits@_W@std@@V?$allocator@_W@2@@std@@QBEIXZ ; std::basic_string<wchar_t,std::char_traits<wchar_t>,std::allocator<wchar_t> >::length
; Function compile flags: /Ogtpy
;	COMDAT ?length@?$basic_string@_WU?$char_traits@_W@std@@V?$allocator@_W@2@@std@@QBEIXZ
_TEXT	SEGMENT
?length@?$basic_string@_WU?$char_traits@_W@std@@V?$allocator@_W@2@@std@@QBEIXZ PROC ; std::basic_string<wchar_t,std::char_traits<wchar_t>,std::allocator<wchar_t> >::length, COMDAT
; _this$ = ecx

; 1661 : 		return (_Mysize);

  00000	8b 41 14	 mov	 eax, DWORD PTR [ecx+20]

; 1662 : 		}

  00003	c3		 ret	 0
?length@?$basic_string@_WU?$char_traits@_W@std@@V?$allocator@_W@2@@std@@QBEIXZ ENDP ; std::basic_string<wchar_t,std::char_traits<wchar_t>,std::allocator<wchar_t> >::length
_TEXT	ENDS
PUBLIC	?_Myptr@?$basic_string@DU?$char_traits@D@std@@V?$allocator@D@2@@std@@IBEPBDXZ ; std::basic_string<char,std::char_traits<char>,std::allocator<char> >::_Myptr
; Function compile flags: /Ogtpy
;	COMDAT ?_Myptr@?$basic_string@DU?$char_traits@D@std@@V?$allocator@D@2@@std@@IBEPBDXZ
_TEXT	SEGMENT
?_Myptr@?$basic_string@DU?$char_traits@D@std@@V?$allocator@D@2@@std@@IBEPBDXZ PROC ; std::basic_string<char,std::char_traits<char>,std::allocator<char> >::_Myptr, COMDAT
; _this$ = ecx

; 2175 : 		return (_BUF_SIZE <= _Myres ? _Bx._Ptr : _Bx._Buf);

  00000	83 79 18 10	 cmp	 DWORD PTR [ecx+24], 16	; 00000010H
  00004	72 04		 jb	 SHORT $LN3@Myptr
  00006	8b 41 04	 mov	 eax, DWORD PTR [ecx+4]

; 2176 : 		}

  00009	c3		 ret	 0
$LN3@Myptr:

; 2175 : 		return (_BUF_SIZE <= _Myres ? _Bx._Ptr : _Bx._Buf);

  0000a	8d 41 04	 lea	 eax, DWORD PTR [ecx+4]

; 2176 : 		}

  0000d	c3		 ret	 0
?_Myptr@?$basic_string@DU?$char_traits@D@std@@V?$allocator@D@2@@std@@IBEPBDXZ ENDP ; std::basic_string<char,std::char_traits<char>,std::allocator<char> >::_Myptr
_TEXT	ENDS
PUBLIC	??0?$allocator@D@std@@QAE@XZ			; std::allocator<char>::allocator<char>
; Function compile flags: /Ogtpy
; File c:\program files (x86)\microsoft visual studio 9.0\vc\include\xmemory
;	COMDAT ??0?$allocator@D@std@@QAE@XZ
_TEXT	SEGMENT
??0?$allocator@D@std@@QAE@XZ PROC			; std::allocator<char>::allocator<char>, COMDAT
; _this$ = ecx

; 119  : 	allocator() _THROW0()

  00000	8b c1		 mov	 eax, ecx

; 120  : 		{	// construct default allocator (do nothing)
; 121  : 		}

  00002	c3		 ret	 0
??0?$allocator@D@std@@QAE@XZ ENDP			; std::allocator<char>::allocator<char>
_TEXT	ENDS
PUBLIC	?_Myptr@?$basic_string@_WU?$char_traits@_W@std@@V?$allocator@_W@2@@std@@IBEPB_WXZ ; std::basic_string<wchar_t,std::char_traits<wchar_t>,std::allocator<wchar_t> >::_Myptr
; Function compile flags: /Ogtpy
; File c:\program files (x86)\microsoft visual studio 9.0\vc\include\xstring
;	COMDAT ?_Myptr@?$basic_string@_WU?$char_traits@_W@std@@V?$allocator@_W@2@@std@@IBEPB_WXZ
_TEXT	SEGMENT
?_Myptr@?$basic_string@_WU?$char_traits@_W@std@@V?$allocator@_W@2@@std@@IBEPB_WXZ PROC ; std::basic_string<wchar_t,std::char_traits<wchar_t>,std::allocator<wchar_t> >::_Myptr, COMDAT
; _this$ = ecx

; 2175 : 		return (_BUF_SIZE <= _Myres ? _Bx._Ptr : _Bx._Buf);

  00000	83 79 18 08	 cmp	 DWORD PTR [ecx+24], 8
  00004	72 04		 jb	 SHORT $LN3@Myptr@2
  00006	8b 41 04	 mov	 eax, DWORD PTR [ecx+4]

; 2176 : 		}

  00009	c3		 ret	 0
$LN3@Myptr@2:

; 2175 : 		return (_BUF_SIZE <= _Myres ? _Bx._Ptr : _Bx._Buf);

  0000a	8d 41 04	 lea	 eax, DWORD PTR [ecx+4]

; 2176 : 		}

  0000d	c3		 ret	 0
?_Myptr@?$basic_string@_WU?$char_traits@_W@std@@V?$allocator@_W@2@@std@@IBEPB_WXZ ENDP ; std::basic_string<wchar_t,std::char_traits<wchar_t>,std::allocator<wchar_t> >::_Myptr
_TEXT	ENDS
PUBLIC	??0?$allocator@_W@std@@QAE@XZ			; std::allocator<wchar_t>::allocator<wchar_t>
; Function compile flags: /Ogtpy
; File c:\program files (x86)\microsoft visual studio 9.0\vc\include\xmemory
;	COMDAT ??0?$allocator@_W@std@@QAE@XZ
_TEXT	SEGMENT
??0?$allocator@_W@std@@QAE@XZ PROC			; std::allocator<wchar_t>::allocator<wchar_t>, COMDAT
; _this$ = ecx

; 119  : 	allocator() _THROW0()

  00000	8b c1		 mov	 eax, ecx

; 120  : 		{	// construct default allocator (do nothing)
; 121  : 		}

  00002	c3		 ret	 0
??0?$allocator@_W@std@@QAE@XZ ENDP			; std::allocator<wchar_t>::allocator<wchar_t>
_TEXT	ENDS
PUBLIC	?_Myptr@?$basic_string@DU?$char_traits@D@std@@V?$allocator@D@2@@std@@IAEPADXZ ; std::basic_string<char,std::char_traits<char>,std::allocator<char> >::_Myptr
; Function compile flags: /Ogtpy
; File c:\program files (x86)\microsoft visual studio 9.0\vc\include\xstring
;	COMDAT ?_Myptr@?$basic_string@DU?$char_traits@D@std@@V?$allocator@D@2@@std@@IAEPADXZ
_TEXT	SEGMENT
?_Myptr@?$basic_string@DU?$char_traits@D@std@@V?$allocator@D@2@@std@@IAEPADXZ PROC ; std::basic_string<char,std::char_traits<char>,std::allocator<char> >::_Myptr, COMDAT
; _this$ = ecx

; 2170 : 		return (_BUF_SIZE <= _Myres ? _Bx._Ptr : _Bx._Buf);

  00000	83 79 18 10	 cmp	 DWORD PTR [ecx+24], 16	; 00000010H
  00004	72 04		 jb	 SHORT $LN3@Myptr@3
  00006	8b 41 04	 mov	 eax, DWORD PTR [ecx+4]

; 2171 : 		}

  00009	c3		 ret	 0
$LN3@Myptr@3:

; 2170 : 		return (_BUF_SIZE <= _Myres ? _Bx._Ptr : _Bx._Buf);

  0000a	8d 41 04	 lea	 eax, DWORD PTR [ecx+4]

; 2171 : 		}

  0000d	c3		 ret	 0
?_Myptr@?$basic_string@DU?$char_traits@D@std@@V?$allocator@D@2@@std@@IAEPADXZ ENDP ; std::basic_string<char,std::char_traits<char>,std::allocator<char> >::_Myptr
_TEXT	ENDS
PUBLIC	??0?$allocator@D@std@@QAE@ABV01@@Z		; std::allocator<char>::allocator<char>
; Function compile flags: /Ogtpy
; File c:\program files (x86)\microsoft visual studio 9.0\vc\include\xmemory
;	COMDAT ??0?$allocator@D@std@@QAE@ABV01@@Z
_TEXT	SEGMENT
___formal$ = 8						; size = 4
??0?$allocator@D@std@@QAE@ABV01@@Z PROC			; std::allocator<char>::allocator<char>, COMDAT
; _this$ = ecx

; 123  : 	allocator(const allocator<_Ty>&) _THROW0()

  00000	8b c1		 mov	 eax, ecx

; 124  : 		{	// construct by copying (do nothing)
; 125  : 		}

  00002	c2 04 00	 ret	 4
??0?$allocator@D@std@@QAE@ABV01@@Z ENDP			; std::allocator<char>::allocator<char>
_TEXT	ENDS
PUBLIC	?deallocate@?$allocator@D@std@@QAEXPADI@Z	; std::allocator<char>::deallocate
; Function compile flags: /Ogtpy
;	COMDAT ?deallocate@?$allocator@D@std@@QAEXPADI@Z
_TEXT	SEGMENT
__Ptr$ = 8						; size = 4
___formal$ = 12						; size = 4
?deallocate@?$allocator@D@std@@QAEXPADI@Z PROC		; std::allocator<char>::deallocate, COMDAT
; _this$ = ecx

; 140  : 		::operator delete(_Ptr);

  00000	8b 44 24 04	 mov	 eax, DWORD PTR __Ptr$[esp-4]
  00004	50		 push	 eax
  00005	e8 00 00 00 00	 call	 ??3@YAXPAX@Z		; operator delete
  0000a	59		 pop	 ecx

; 141  : 		}

  0000b	c2 08 00	 ret	 8
?deallocate@?$allocator@D@std@@QAEXPADI@Z ENDP		; std::allocator<char>::deallocate
_TEXT	ENDS
PUBLIC	??0?$allocator@_W@std@@QAE@ABV01@@Z		; std::allocator<wchar_t>::allocator<wchar_t>
; Function compile flags: /Ogtpy
;	COMDAT ??0?$allocator@_W@std@@QAE@ABV01@@Z
_TEXT	SEGMENT
___formal$ = 8						; size = 4
??0?$allocator@_W@std@@QAE@ABV01@@Z PROC		; std::allocator<wchar_t>::allocator<wchar_t>, COMDAT
; _this$ = ecx

; 123  : 	allocator(const allocator<_Ty>&) _THROW0()

  00000	8b c1		 mov	 eax, ecx

; 124  : 		{	// construct by copying (do nothing)
; 125  : 		}

  00002	c2 04 00	 ret	 4
??0?$allocator@_W@std@@QAE@ABV01@@Z ENDP		; std::allocator<wchar_t>::allocator<wchar_t>
_TEXT	ENDS
PUBLIC	?deallocate@?$allocator@_W@std@@QAEXPA_WI@Z	; std::allocator<wchar_t>::deallocate
; Function compile flags: /Ogtpy
;	COMDAT ?deallocate@?$allocator@_W@std@@QAEXPA_WI@Z
_TEXT	SEGMENT
__Ptr$ = 8						; size = 4
___formal$ = 12						; size = 4
?deallocate@?$allocator@_W@std@@QAEXPA_WI@Z PROC	; std::allocator<wchar_t>::deallocate, COMDAT
; _this$ = ecx

; 140  : 		::operator delete(_Ptr);

  00000	8b 44 24 04	 mov	 eax, DWORD PTR __Ptr$[esp-4]
  00004	50		 push	 eax
  00005	e8 00 00 00 00	 call	 ??3@YAXPAX@Z		; operator delete
  0000a	59		 pop	 ecx

; 141  : 		}

  0000b	c2 08 00	 ret	 8
?deallocate@?$allocator@_W@std@@QAEXPA_WI@Z ENDP	; std::allocator<wchar_t>::deallocate
_TEXT	ENDS
PUBLIC	?_Inside@?$basic_string@DU?$char_traits@D@std@@V?$allocator@D@2@@std@@IAE_NPBD@Z ; std::basic_string<char,std::char_traits<char>,std::allocator<char> >::_Inside
; Function compile flags: /Ogtpy
; File c:\program files (x86)\microsoft visual studio 9.0\vc\include\xstring
;	COMDAT ?_Inside@?$basic_string@DU?$char_traits@D@std@@V?$allocator@D@2@@std@@IAE_NPBD@Z
_TEXT	SEGMENT
__Ptr$ = 8						; size = 4
?_Inside@?$basic_string@DU?$char_traits@D@std@@V?$allocator@D@2@@std@@IAE_NPBD@Z PROC ; std::basic_string<char,std::char_traits<char>,std::allocator<char> >::_Inside, COMDAT
; _this$ = ecx

; 2133 : 		{	// test if _Ptr points inside string

  00000	56		 push	 esi
  00001	57		 push	 edi

; 2134 : 		if (_Ptr == 0 || _Ptr < _Myptr() || _Myptr() + _Mysize <= _Ptr)

  00002	8b 7c 24 0c	 mov	 edi, DWORD PTR __Ptr$[esp+4]
  00006	85 ff		 test	 edi, edi
  00008	74 2c		 je	 SHORT $LN2@Inside
  0000a	8b 71 18	 mov	 esi, DWORD PTR [ecx+24]
  0000d	8d 41 04	 lea	 eax, DWORD PTR [ecx+4]
  00010	83 fe 10	 cmp	 esi, 16			; 00000010H
  00013	72 04		 jb	 SHORT $LN8@Inside
  00015	8b 10		 mov	 edx, DWORD PTR [eax]
  00017	eb 02		 jmp	 SHORT $LN9@Inside
$LN8@Inside:
  00019	8b d0		 mov	 edx, eax
$LN9@Inside:
  0001b	3b fa		 cmp	 edi, edx
  0001d	72 17		 jb	 SHORT $LN2@Inside
  0001f	83 fe 10	 cmp	 esi, 16			; 00000010H
  00022	72 02		 jb	 SHORT $LN12@Inside
  00024	8b 00		 mov	 eax, DWORD PTR [eax]
$LN12@Inside:
  00026	8b 49 14	 mov	 ecx, DWORD PTR [ecx+20]
  00029	03 c8		 add	 ecx, eax
  0002b	3b cf		 cmp	 ecx, edi
  0002d	76 07		 jbe	 SHORT $LN2@Inside
  0002f	5f		 pop	 edi

; 2136 : 		else
; 2137 : 			return (true);

  00030	b0 01		 mov	 al, 1
  00032	5e		 pop	 esi

; 2138 : 		}

  00033	c2 04 00	 ret	 4
$LN2@Inside:
  00036	5f		 pop	 edi

; 2135 : 			return (false);	// don't ask

  00037	32 c0		 xor	 al, al
  00039	5e		 pop	 esi

; 2138 : 		}

  0003a	c2 04 00	 ret	 4
?_Inside@?$basic_string@DU?$char_traits@D@std@@V?$allocator@D@2@@std@@IAE_NPBD@Z ENDP ; std::basic_string<char,std::char_traits<char>,std::allocator<char> >::_Inside
_TEXT	ENDS
PUBLIC	?_Myptr@?$basic_string@_WU?$char_traits@_W@std@@V?$allocator@_W@2@@std@@IAEPA_WXZ ; std::basic_string<wchar_t,std::char_traits<wchar_t>,std::allocator<wchar_t> >::_Myptr
; Function compile flags: /Ogtpy
;	COMDAT ?_Myptr@?$basic_string@_WU?$char_traits@_W@std@@V?$allocator@_W@2@@std@@IAEPA_WXZ
_TEXT	SEGMENT
?_Myptr@?$basic_string@_WU?$char_traits@_W@std@@V?$allocator@_W@2@@std@@IAEPA_WXZ PROC ; std::basic_string<wchar_t,std::char_traits<wchar_t>,std::allocator<wchar_t> >::_Myptr, COMDAT
; _this$ = ecx

; 2170 : 		return (_BUF_SIZE <= _Myres ? _Bx._Ptr : _Bx._Buf);

  00000	83 79 18 08	 cmp	 DWORD PTR [ecx+24], 8
  00004	72 04		 jb	 SHORT $LN3@Myptr@4
  00006	8b 41 04	 mov	 eax, DWORD PTR [ecx+4]

; 2171 : 		}

  00009	c3		 ret	 0
$LN3@Myptr@4:

; 2170 : 		return (_BUF_SIZE <= _Myres ? _Bx._Ptr : _Bx._Buf);

  0000a	8d 41 04	 lea	 eax, DWORD PTR [ecx+4]

; 2171 : 		}

  0000d	c3		 ret	 0
?_Myptr@?$basic_string@_WU?$char_traits@_W@std@@V?$allocator@_W@2@@std@@IAEPA_WXZ ENDP ; std::basic_string<wchar_t,std::char_traits<wchar_t>,std::allocator<wchar_t> >::_Myptr
_TEXT	ENDS
PUBLIC	?max_size@?$allocator@D@std@@QBEIXZ		; std::allocator<char>::max_size
; Function compile flags: /Ogtpy
; File c:\program files (x86)\microsoft visual studio 9.0\vc\include\xmemory
;	COMDAT ?max_size@?$allocator@D@std@@QBEIXZ
_TEXT	SEGMENT
?max_size@?$allocator@D@std@@QBEIXZ PROC		; std::allocator<char>::max_size, COMDAT
; _this$ = ecx

; 165  : 		_SIZT _Count = (_SIZT)(-1) / sizeof (_Ty);
; 166  : 		return (0 < _Count ? _Count : 1);

  00000	83 c8 ff	 or	 eax, -1

; 167  : 		}

  00003	c3		 ret	 0
?max_size@?$allocator@D@std@@QBEIXZ ENDP		; std::allocator<char>::max_size
_TEXT	ENDS
PUBLIC	?size@?$basic_string@_WU?$char_traits@_W@std@@V?$allocator@_W@2@@std@@QBEIXZ ; std::basic_string<wchar_t,std::char_traits<wchar_t>,std::allocator<wchar_t> >::size
; Function compile flags: /Ogtpy
; File c:\program files (x86)\microsoft visual studio 9.0\vc\include\xstring
;	COMDAT ?size@?$basic_string@_WU?$char_traits@_W@std@@V?$allocator@_W@2@@std@@QBEIXZ
_TEXT	SEGMENT
?size@?$basic_string@_WU?$char_traits@_W@std@@V?$allocator@_W@2@@std@@QBEIXZ PROC ; std::basic_string<wchar_t,std::char_traits<wchar_t>,std::allocator<wchar_t> >::size, COMDAT
; _this$ = ecx

; 1666 : 		return (_Mysize);

  00000	8b 41 14	 mov	 eax, DWORD PTR [ecx+20]

; 1667 : 		}

  00003	c3		 ret	 0
?size@?$basic_string@_WU?$char_traits@_W@std@@V?$allocator@_W@2@@std@@QBEIXZ ENDP ; std::basic_string<wchar_t,std::char_traits<wchar_t>,std::allocator<wchar_t> >::size
_TEXT	ENDS
PUBLIC	?max_size@?$allocator@_W@std@@QBEIXZ		; std::allocator<wchar_t>::max_size
; Function compile flags: /Ogtpy
; File c:\program files (x86)\microsoft visual studio 9.0\vc\include\xmemory
;	COMDAT ?max_size@?$allocator@_W@std@@QBEIXZ
_TEXT	SEGMENT
?max_size@?$allocator@_W@std@@QBEIXZ PROC		; std::allocator<wchar_t>::max_size, COMDAT
; _this$ = ecx

; 165  : 		_SIZT _Count = (_SIZT)(-1) / sizeof (_Ty);
; 166  : 		return (0 < _Count ? _Count : 1);

  00000	b8 ff ff ff 7f	 mov	 eax, 2147483647		; 7fffffffH

; 167  : 		}

  00005	c3		 ret	 0
?max_size@?$allocator@_W@std@@QBEIXZ ENDP		; std::allocator<wchar_t>::max_size
_TEXT	ENDS
PUBLIC	__TI2?AVbad_alloc@std@@
PUBLIC	??$_Allocate@D@std@@YAPADIPAD@Z			; std::_Allocate<char>
PUBLIC	__CTA2?AVbad_alloc@std@@
PUBLIC	__CT??_R0?AVbad_alloc@std@@@8??0bad_alloc@std@@QAE@ABV01@@Z12
PUBLIC	??0bad_alloc@std@@QAE@ABV01@@Z			; std::bad_alloc::bad_alloc
PUBLIC	__CT??_R0?AVexception@std@@@8??0exception@std@@QAE@ABV01@@Z12
EXTRN	??2@YAPAXI@Z:PROC				; operator new
EXTRN	__CxxThrowException@8:PROC
EXTRN	??0exception@std@@QAE@ABV01@@Z:PROC		; std::exception::exception
;	COMDAT __CT??_R0?AVexception@std@@@8??0exception@std@@QAE@ABV01@@Z12
; File c:\program files (x86)\microsoft visual studio 9.0\vc\include\exception
xdata$x	SEGMENT
__CT??_R0?AVexception@std@@@8??0exception@std@@QAE@ABV01@@Z12 DD 00H
	DD	FLAT:??_R0?AVexception@std@@@8
	DD	00H
	DD	0ffffffffH
	ORG $+4
	DD	0cH
	DD	FLAT:??0exception@std@@QAE@ABV01@@Z
xdata$x	ENDS
;	COMDAT __CT??_R0?AVbad_alloc@std@@@8??0bad_alloc@std@@QAE@ABV01@@Z12
xdata$x	SEGMENT
__CT??_R0?AVbad_alloc@std@@@8??0bad_alloc@std@@QAE@ABV01@@Z12 DD 00H
	DD	FLAT:??_R0?AVbad_alloc@std@@@8
	DD	00H
	DD	0ffffffffH
	ORG $+4
	DD	0cH
	DD	FLAT:??0bad_alloc@std@@QAE@ABV01@@Z
xdata$x	ENDS
;	COMDAT __CTA2?AVbad_alloc@std@@
xdata$x	SEGMENT
__CTA2?AVbad_alloc@std@@ DD 02H
	DD	FLAT:__CT??_R0?AVbad_alloc@std@@@8??0bad_alloc@std@@QAE@ABV01@@Z12
	DD	FLAT:__CT??_R0?AVexception@std@@@8??0exception@std@@QAE@ABV01@@Z12
xdata$x	ENDS
;	COMDAT __TI2?AVbad_alloc@std@@
xdata$x	SEGMENT
__TI2?AVbad_alloc@std@@ DD 00H
	DD	FLAT:??1bad_alloc@std@@UAE@XZ
	DD	00H
	DD	FLAT:__CTA2?AVbad_alloc@std@@
; Function compile flags: /Ogtpy
; File c:\program files (x86)\microsoft visual studio 9.0\vc\include\xmemory
xdata$x	ENDS
;	COMDAT ??$_Allocate@D@std@@YAPADIPAD@Z
_TEXT	SEGMENT
$T98739 = -12						; size = 12
$T98744 = 8						; size = 4
__Count$ = 8						; size = 4
___formal$ = 12						; size = 4
??$_Allocate@D@std@@YAPADIPAD@Z PROC			; std::_Allocate<char>, COMDAT

; 37   : 	if (_Count <= 0)

  00000	8b 4c 24 04	 mov	 ecx, DWORD PTR __Count$[esp-4]
  00004	83 ec 0c	 sub	 esp, 12			; 0000000cH
  00007	85 c9		 test	 ecx, ecx
  00009	77 0f		 ja	 SHORT $LN3@Allocate

; 38   : 		_Count = 0;

  0000b	33 c9		 xor	 ecx, ecx
$LN1@Allocate:

; 41   : 
; 42   : 		// allocate storage for _Count elements of type _Ty
; 43   : 	return ((_Ty _FARQ *)::operator new(_Count * sizeof (_Ty)));

  0000d	51		 push	 ecx
  0000e	e8 00 00 00 00	 call	 ??2@YAPAXI@Z		; operator new
  00013	83 c4 04	 add	 esp, 4

; 44   : 	}

  00016	83 c4 0c	 add	 esp, 12			; 0000000cH
  00019	c3		 ret	 0
$LN3@Allocate:

; 39   : 	else if (((_SIZT)(-1) / _Count) < sizeof (_Ty))

  0001a	83 c8 ff	 or	 eax, -1
  0001d	33 d2		 xor	 edx, edx
  0001f	f7 f1		 div	 ecx
  00021	83 f8 01	 cmp	 eax, 1
  00024	73 e7		 jae	 SHORT $LN1@Allocate

; 40   : 		_THROW_NCEE(std::bad_alloc, NULL);

  00026	8d 44 24 10	 lea	 eax, DWORD PTR $T98744[esp+8]
  0002a	50		 push	 eax
  0002b	8d 4c 24 04	 lea	 ecx, DWORD PTR $T98739[esp+16]
  0002f	c7 44 24 14 00
	00 00 00	 mov	 DWORD PTR $T98744[esp+12], 0
  00037	e8 00 00 00 00	 call	 ??0exception@std@@QAE@ABQBD@Z ; std::exception::exception
  0003c	68 00 00 00 00	 push	 OFFSET __TI2?AVbad_alloc@std@@
  00041	8d 4c 24 04	 lea	 ecx, DWORD PTR $T98739[esp+16]
  00045	51		 push	 ecx
  00046	c7 44 24 08 00
	00 00 00	 mov	 DWORD PTR $T98739[esp+20], OFFSET ??_7bad_alloc@std@@6B@
  0004e	e8 00 00 00 00	 call	 __CxxThrowException@8
$LN8@Allocate:
  00053	cc		 int	 3
??$_Allocate@D@std@@YAPADIPAD@Z ENDP			; std::_Allocate<char>
_TEXT	ENDS
PUBLIC	??$_Allocate@_W@std@@YAPA_WIPA_W@Z		; std::_Allocate<wchar_t>
; Function compile flags: /Ogtpy
;	COMDAT ??$_Allocate@_W@std@@YAPA_WIPA_W@Z
_TEXT	SEGMENT
$T98748 = -12						; size = 12
$T98752 = 8						; size = 4
__Count$ = 8						; size = 4
___formal$ = 12						; size = 4
??$_Allocate@_W@std@@YAPA_WIPA_W@Z PROC			; std::_Allocate<wchar_t>, COMDAT

; 37   : 	if (_Count <= 0)

  00000	8b 4c 24 04	 mov	 ecx, DWORD PTR __Count$[esp-4]
  00004	83 ec 0c	 sub	 esp, 12			; 0000000cH
  00007	85 c9		 test	 ecx, ecx
  00009	77 12		 ja	 SHORT $LN3@Allocate@2

; 38   : 		_Count = 0;

  0000b	33 c9		 xor	 ecx, ecx
$LN1@Allocate@2:

; 41   : 
; 42   : 		// allocate storage for _Count elements of type _Ty
; 43   : 	return ((_Ty _FARQ *)::operator new(_Count * sizeof (_Ty)));

  0000d	8d 14 09	 lea	 edx, DWORD PTR [ecx+ecx]
  00010	52		 push	 edx
  00011	e8 00 00 00 00	 call	 ??2@YAPAXI@Z		; operator new
  00016	83 c4 04	 add	 esp, 4

; 44   : 	}

  00019	83 c4 0c	 add	 esp, 12			; 0000000cH
  0001c	c3		 ret	 0
$LN3@Allocate@2:

; 39   : 	else if (((_SIZT)(-1) / _Count) < sizeof (_Ty))

  0001d	83 c8 ff	 or	 eax, -1
  00020	33 d2		 xor	 edx, edx
  00022	f7 f1		 div	 ecx
  00024	83 f8 02	 cmp	 eax, 2
  00027	73 e4		 jae	 SHORT $LN1@Allocate@2

; 40   : 		_THROW_NCEE(std::bad_alloc, NULL);

  00029	8d 44 24 10	 lea	 eax, DWORD PTR $T98752[esp+8]
  0002d	50		 push	 eax
  0002e	8d 4c 24 04	 lea	 ecx, DWORD PTR $T98748[esp+16]
  00032	c7 44 24 14 00
	00 00 00	 mov	 DWORD PTR $T98752[esp+12], 0
  0003a	e8 00 00 00 00	 call	 ??0exception@std@@QAE@ABQBD@Z ; std::exception::exception
  0003f	68 00 00 00 00	 push	 OFFSET __TI2?AVbad_alloc@std@@
  00044	8d 4c 24 04	 lea	 ecx, DWORD PTR $T98748[esp+16]
  00048	51		 push	 ecx
  00049	c7 44 24 08 00
	00 00 00	 mov	 DWORD PTR $T98748[esp+20], OFFSET ??_7bad_alloc@std@@6B@
  00051	e8 00 00 00 00	 call	 __CxxThrowException@8
$LN8@Allocate@2:
  00056	cc		 int	 3
??$_Allocate@_W@std@@YAPA_WIPA_W@Z ENDP			; std::_Allocate<wchar_t>
; Function compile flags: /Ogtpy
_TEXT	ENDS
;	COMDAT ??0bad_alloc@std@@QAE@ABV01@@Z
_TEXT	SEGMENT
___that$ = 8						; size = 4
??0bad_alloc@std@@QAE@ABV01@@Z PROC			; std::bad_alloc::bad_alloc, COMDAT
; _this$ = ecx
  00000	8b 44 24 04	 mov	 eax, DWORD PTR ___that$[esp-4]
  00004	56		 push	 esi
  00005	50		 push	 eax
  00006	8b f1		 mov	 esi, ecx
  00008	e8 00 00 00 00	 call	 ??0exception@std@@QAE@ABV01@@Z ; std::exception::exception
  0000d	c7 06 00 00 00
	00		 mov	 DWORD PTR [esi], OFFSET ??_7bad_alloc@std@@6B@
  00013	8b c6		 mov	 eax, esi
  00015	5e		 pop	 esi
  00016	c2 04 00	 ret	 4
??0bad_alloc@std@@QAE@ABV01@@Z ENDP			; std::bad_alloc::bad_alloc
_TEXT	ENDS
PUBLIC	??$_Char_traits_cat@U?$char_traits@D@std@@@std@@YA?AU_Secure_char_traits_tag@0@XZ ; std::_Char_traits_cat<std::char_traits<char> >
; Function compile flags: /Ogtpy
; File c:\program files (x86)\microsoft visual studio 9.0\vc\include\iosfwd
;	COMDAT ??$_Char_traits_cat@U?$char_traits@D@std@@@std@@YA?AU_Secure_char_traits_tag@0@XZ
_TEXT	SEGMENT
__Secure$ = -1						; size = 1
??$_Char_traits_cat@U?$char_traits@D@std@@@std@@YA?AU_Secure_char_traits_tag@0@XZ PROC ; std::_Char_traits_cat<std::char_traits<char> >, COMDAT

; 575  : 	{

  00000	51		 push	 ecx

; 576  : 		typename _Char_traits_category<_Traits>::_Secure_char_traits _Secure;
; 577  : 		return (_Secure);

  00001	8a 44 24 03	 mov	 al, BYTE PTR __Secure$[esp+4]

; 578  : 	}

  00005	59		 pop	 ecx
  00006	c3		 ret	 0
??$_Char_traits_cat@U?$char_traits@D@std@@@std@@YA?AU_Secure_char_traits_tag@0@XZ ENDP ; std::_Char_traits_cat<std::char_traits<char> >
_TEXT	ENDS
PUBLIC	??$copy_s@U?$char_traits@D@std@@@_Traits_helper@std@@YAPADPADIPBDIU_Secure_char_traits_tag@1@@Z ; std::_Traits_helper::copy_s<std::char_traits<char> >
; Function compile flags: /Ogtpy
;	COMDAT ??$copy_s@U?$char_traits@D@std@@@_Traits_helper@std@@YAPADPADIPBDIU_Secure_char_traits_tag@1@@Z
_TEXT	SEGMENT
__First1$ = 8						; size = 4
__Size$ = 12						; size = 4
__First2$ = 16						; size = 4
__Count$ = 20						; size = 4
___formal$ = 24						; size = 1
??$copy_s@U?$char_traits@D@std@@@_Traits_helper@std@@YAPADPADIPBDIU_Secure_char_traits_tag@1@@Z PROC ; std::_Traits_helper::copy_s<std::char_traits<char> >, COMDAT

; 597  : 		return _Traits::_Copy_s(_First1, _Size, _First2, _Count);

  00000	8b 44 24 10	 mov	 eax, DWORD PTR __Count$[esp-4]
  00004	8b 4c 24 0c	 mov	 ecx, DWORD PTR __First2$[esp-4]
  00008	8b 54 24 08	 mov	 edx, DWORD PTR __Size$[esp-4]
  0000c	56		 push	 esi
  0000d	8b 74 24 08	 mov	 esi, DWORD PTR __First1$[esp]
  00011	50		 push	 eax
  00012	51		 push	 ecx
  00013	52		 push	 edx
  00014	56		 push	 esi
  00015	e8 00 00 00 00	 call	 _memcpy_s
  0001a	83 c4 10	 add	 esp, 16			; 00000010H
  0001d	8b c6		 mov	 eax, esi
  0001f	5e		 pop	 esi

; 598  : 	}

  00020	c3		 ret	 0
??$copy_s@U?$char_traits@D@std@@@_Traits_helper@std@@YAPADPADIPBDIU_Secure_char_traits_tag@1@@Z ENDP ; std::_Traits_helper::copy_s<std::char_traits<char> >
_TEXT	ENDS
PUBLIC	??$_Char_traits_cat@U?$char_traits@_W@std@@@std@@YA?AU_Secure_char_traits_tag@0@XZ ; std::_Char_traits_cat<std::char_traits<wchar_t> >
; Function compile flags: /Ogtpy
;	COMDAT ??$_Char_traits_cat@U?$char_traits@_W@std@@@std@@YA?AU_Secure_char_traits_tag@0@XZ
_TEXT	SEGMENT
__Secure$ = -1						; size = 1
??$_Char_traits_cat@U?$char_traits@_W@std@@@std@@YA?AU_Secure_char_traits_tag@0@XZ PROC ; std::_Char_traits_cat<std::char_traits<wchar_t> >, COMDAT

; 575  : 	{

  00000	51		 push	 ecx

; 576  : 		typename _Char_traits_category<_Traits>::_Secure_char_traits _Secure;
; 577  : 		return (_Secure);

  00001	8a 44 24 03	 mov	 al, BYTE PTR __Secure$[esp+4]

; 578  : 	}

  00005	59		 pop	 ecx
  00006	c3		 ret	 0
??$_Char_traits_cat@U?$char_traits@_W@std@@@std@@YA?AU_Secure_char_traits_tag@0@XZ ENDP ; std::_Char_traits_cat<std::char_traits<wchar_t> >
_TEXT	ENDS
PUBLIC	??$copy_s@U?$char_traits@_W@std@@@_Traits_helper@std@@YAPA_WPA_WIPB_WIU_Secure_char_traits_tag@1@@Z ; std::_Traits_helper::copy_s<std::char_traits<wchar_t> >
; Function compile flags: /Ogtpy
;	COMDAT ??$copy_s@U?$char_traits@_W@std@@@_Traits_helper@std@@YAPA_WPA_WIPB_WIU_Secure_char_traits_tag@1@@Z
_TEXT	SEGMENT
__First1$ = 8						; size = 4
__Size$ = 12						; size = 4
__First2$ = 16						; size = 4
__Count$ = 20						; size = 4
___formal$ = 24						; size = 1
??$copy_s@U?$char_traits@_W@std@@@_Traits_helper@std@@YAPA_WPA_WIPB_WIU_Secure_char_traits_tag@1@@Z PROC ; std::_Traits_helper::copy_s<std::char_traits<wchar_t> >, COMDAT

; 597  : 		return _Traits::_Copy_s(_First1, _Size, _First2, _Count);

  00000	8b 44 24 10	 mov	 eax, DWORD PTR __Count$[esp-4]
  00004	8b 54 24 0c	 mov	 edx, DWORD PTR __First2$[esp-4]
  00008	56		 push	 esi
  00009	8b 74 24 08	 mov	 esi, DWORD PTR __First1$[esp]
  0000d	8d 0c 00	 lea	 ecx, DWORD PTR [eax+eax]
  00010	8b 44 24 0c	 mov	 eax, DWORD PTR __Size$[esp]
  00014	51		 push	 ecx
  00015	52		 push	 edx
  00016	8d 0c 00	 lea	 ecx, DWORD PTR [eax+eax]
  00019	51		 push	 ecx
  0001a	56		 push	 esi
  0001b	e8 00 00 00 00	 call	 _memcpy_s
  00020	83 c4 10	 add	 esp, 16			; 00000010H
  00023	8b c6		 mov	 eax, esi
  00025	5e		 pop	 esi

; 598  : 	}

  00026	c3		 ret	 0
??$copy_s@U?$char_traits@_W@std@@@_Traits_helper@std@@YAPA_WPA_WIPB_WIU_Secure_char_traits_tag@1@@Z ENDP ; std::_Traits_helper::copy_s<std::char_traits<wchar_t> >
_TEXT	ENDS
PUBLIC	??$move_s@U?$char_traits@D@std@@@_Traits_helper@std@@YAPADPADIPBDIU_Secure_char_traits_tag@1@@Z ; std::_Traits_helper::move_s<std::char_traits<char> >
; Function compile flags: /Ogtpy
;	COMDAT ??$move_s@U?$char_traits@D@std@@@_Traits_helper@std@@YAPADPADIPBDIU_Secure_char_traits_tag@1@@Z
_TEXT	SEGMENT
__First1$ = 8						; size = 4
__Size$ = 12						; size = 4
__First2$ = 16						; size = 4
__Count$ = 20						; size = 4
___formal$ = 24						; size = 1
??$move_s@U?$char_traits@D@std@@@_Traits_helper@std@@YAPADPADIPBDIU_Secure_char_traits_tag@1@@Z PROC ; std::_Traits_helper::move_s<std::char_traits<char> >, COMDAT

; 624  : 		return _Traits::_Move_s(_First1, _Size, _First2, _Count);

  00000	8b 44 24 10	 mov	 eax, DWORD PTR __Count$[esp-4]
  00004	8b 4c 24 0c	 mov	 ecx, DWORD PTR __First2$[esp-4]
  00008	8b 54 24 08	 mov	 edx, DWORD PTR __Size$[esp-4]
  0000c	56		 push	 esi
  0000d	8b 74 24 08	 mov	 esi, DWORD PTR __First1$[esp]
  00011	50		 push	 eax
  00012	51		 push	 ecx
  00013	52		 push	 edx
  00014	56		 push	 esi
  00015	e8 00 00 00 00	 call	 _memmove_s
  0001a	83 c4 10	 add	 esp, 16			; 00000010H
  0001d	8b c6		 mov	 eax, esi
  0001f	5e		 pop	 esi

; 625  : 	}

  00020	c3		 ret	 0
??$move_s@U?$char_traits@D@std@@@_Traits_helper@std@@YAPADPADIPBDIU_Secure_char_traits_tag@1@@Z ENDP ; std::_Traits_helper::move_s<std::char_traits<char> >
_TEXT	ENDS
PUBLIC	??$move_s@U?$char_traits@_W@std@@@_Traits_helper@std@@YAPA_WPA_WIPB_WIU_Secure_char_traits_tag@1@@Z ; std::_Traits_helper::move_s<std::char_traits<wchar_t> >
; Function compile flags: /Ogtpy
;	COMDAT ??$move_s@U?$char_traits@_W@std@@@_Traits_helper@std@@YAPA_WPA_WIPB_WIU_Secure_char_traits_tag@1@@Z
_TEXT	SEGMENT
__First1$ = 8						; size = 4
__Size$ = 12						; size = 4
__First2$ = 16						; size = 4
__Count$ = 20						; size = 4
___formal$ = 24						; size = 1
??$move_s@U?$char_traits@_W@std@@@_Traits_helper@std@@YAPA_WPA_WIPB_WIU_Secure_char_traits_tag@1@@Z PROC ; std::_Traits_helper::move_s<std::char_traits<wchar_t> >, COMDAT

; 624  : 		return _Traits::_Move_s(_First1, _Size, _First2, _Count);

  00000	8b 44 24 10	 mov	 eax, DWORD PTR __Count$[esp-4]
  00004	8b 54 24 0c	 mov	 edx, DWORD PTR __First2$[esp-4]
  00008	56		 push	 esi
  00009	8b 74 24 08	 mov	 esi, DWORD PTR __First1$[esp]
  0000d	8d 0c 00	 lea	 ecx, DWORD PTR [eax+eax]
  00010	8b 44 24 0c	 mov	 eax, DWORD PTR __Size$[esp]
  00014	51		 push	 ecx
  00015	52		 push	 edx
  00016	8d 0c 00	 lea	 ecx, DWORD PTR [eax+eax]
  00019	51		 push	 ecx
  0001a	56		 push	 esi
  0001b	e8 00 00 00 00	 call	 _memmove_s
  00020	83 c4 10	 add	 esp, 16			; 00000010H
  00023	8b c6		 mov	 eax, esi
  00025	5e		 pop	 esi

; 625  : 	}

  00026	c3		 ret	 0
??$move_s@U?$char_traits@_W@std@@@_Traits_helper@std@@YAPA_WPA_WIPB_WIU_Secure_char_traits_tag@1@@Z ENDP ; std::_Traits_helper::move_s<std::char_traits<wchar_t> >
_TEXT	ENDS
PUBLIC	__real@4059000000000000
PUBLIC	_UpdateProgressBarProc
;	COMDAT __real@4059000000000000
; File c:\home\public\desktop\projects\ciphershed.build\src\setup\wizard.c
CONST	SEGMENT
__real@4059000000000000 DQ 04059000000000000r	; 100
; Function compile flags: /Ogtpy
CONST	ENDS
;	COMDAT _UpdateProgressBarProc
_TEXT	SEGMENT
tv94 = -8						; size = 4
tv72 = -8						; size = 8
tv162 = 8						; size = 2
_nPercent$ = 8						; size = 4
_UpdateProgressBarProc PROC				; COMDAT

; 794  : {

  00000	83 ec 08	 sub	 esp, 8

; 795  : 	HWND hProgressBar = GetDlgItem (hCurPage, nPbar);

  00003	a1 00 00 00 00	 mov	 eax, DWORD PTR ?nPbar@@3HA ; nPbar
  00008	8b 0d 00 00 00
	00		 mov	 ecx, DWORD PTR ?hCurPage@@3PAUHWND__@@A ; hCurPage
  0000e	53		 push	 ebx
  0000f	8b 1d 00 00 00
	00		 mov	 ebx, DWORD PTR __imp__GetDlgItem@8
  00015	56		 push	 esi
  00016	57		 push	 edi
  00017	50		 push	 eax
  00018	51		 push	 ecx
  00019	ff d3		 call	 ebx

; 796  : 	SendMessage (hProgressBar, PBM_SETPOS, (int) (100.0 * nPercent / 100), 0);

  0001b	db 44 24 18	 fild	 DWORD PTR _nPercent$[esp+16]
  0001f	dd 05 00 00 00
	00		 fld	 QWORD PTR __real@4059000000000000
  00025	8b f0		 mov	 esi, eax
  00027	d9 7c 24 18	 fnstcw	 WORD PTR tv162[esp+16]
  0002b	6a 00		 push	 0
  0002d	0f b7 44 24 1c	 movzx	 eax, WORD PTR tv162[esp+20]
  00032	dc c9		 fmul	 ST(1), ST(0)
  00034	0d 00 0c 00 00	 or	 eax, 3072		; 00000c00H
  00039	89 44 24 10	 mov	 DWORD PTR tv94[esp+24], eax
  0003d	de f9		 fdivp	 ST(1), ST(0)
  0003f	d9 6c 24 10	 fldcw	 WORD PTR tv94[esp+24]
  00043	df 7c 24 10	 fistp	 QWORD PTR tv72[esp+24]
  00047	8b 54 24 10	 mov	 edx, DWORD PTR tv72[esp+24]
  0004b	52		 push	 edx
  0004c	68 02 04 00 00	 push	 1026			; 00000402H
  00051	d9 6c 24 24	 fldcw	 WORD PTR tv162[esp+28]
  00055	56		 push	 esi
  00056	ff 15 00 00 00
	00		 call	 DWORD PTR __imp__SendMessageA@16

; 797  : 	InvalidateRect (hProgressBar, NULL, TRUE);

  0005c	6a 01		 push	 1
  0005e	6a 00		 push	 0
  00060	56		 push	 esi
  00061	ff 15 00 00 00
	00		 call	 DWORD PTR __imp__InvalidateRect@12

; 798  : 	ShowWindow(hProgressBar, SW_HIDE);

  00067	8b 3d 00 00 00
	00		 mov	 edi, DWORD PTR __imp__ShowWindow@8
  0006d	6a 00		 push	 0
  0006f	56		 push	 esi
  00070	ff d7		 call	 edi

; 799  : 	ShowWindow(hProgressBar, SW_SHOW);

  00072	6a 05		 push	 5
  00074	56		 push	 esi
  00075	ff d7		 call	 edi

; 800  : 	// Prevent the IDC_LOG_WINDOW item from partially disappearing at higher DPIs
; 801  : 	ShowWindow(GetDlgItem (hCurPage, IDC_LOG_WINDOW), SW_HIDE);

  00077	a1 00 00 00 00	 mov	 eax, DWORD PTR ?hCurPage@@3PAUHWND__@@A ; hCurPage
  0007c	6a 00		 push	 0
  0007e	68 f9 03 00 00	 push	 1017			; 000003f9H
  00083	50		 push	 eax
  00084	ff d3		 call	 ebx
  00086	50		 push	 eax
  00087	ff d7		 call	 edi

; 802  : 	ShowWindow(GetDlgItem (hCurPage, IDC_LOG_WINDOW), SW_SHOW);

  00089	8b 0d 00 00 00
	00		 mov	 ecx, DWORD PTR ?hCurPage@@3PAUHWND__@@A ; hCurPage
  0008f	6a 05		 push	 5
  00091	68 f9 03 00 00	 push	 1017			; 000003f9H
  00096	51		 push	 ecx
  00097	ff d3		 call	 ebx
  00099	50		 push	 eax
  0009a	ff d7		 call	 edi

; 803  : 	RefreshUIGFX();

  0009c	e8 00 00 00 00	 call	 _RefreshUIGFX
  000a1	5f		 pop	 edi
  000a2	5e		 pop	 esi

; 804  : 	return TRUE;

  000a3	b8 01 00 00 00	 mov	 eax, 1
  000a8	5b		 pop	 ebx

; 805  : }

  000a9	83 c4 08	 add	 esp, 8
  000ac	c3		 ret	 0
_UpdateProgressBarProc ENDP
_TEXT	ENDS
PUBLIC	?c_str@?$basic_string@DU?$char_traits@D@std@@V?$allocator@D@2@@std@@QBEPBDXZ ; std::basic_string<char,std::char_traits<char>,std::allocator<char> >::c_str
; Function compile flags: /Ogtpy
; File c:\program files (x86)\microsoft visual studio 9.0\vc\include\xstring
;	COMDAT ?c_str@?$basic_string@DU?$char_traits@D@std@@V?$allocator@D@2@@std@@QBEPBDXZ
_TEXT	SEGMENT
?c_str@?$basic_string@DU?$char_traits@D@std@@V?$allocator@D@2@@std@@QBEPBDXZ PROC ; std::basic_string<char,std::char_traits<char>,std::allocator<char> >::c_str, COMDAT
; _this$ = ecx

; 1651 : 		return (_Myptr());

  00000	83 79 18 10	 cmp	 DWORD PTR [ecx+24], 16	; 00000010H
  00004	72 04		 jb	 SHORT $LN5@c_str
  00006	8b 41 04	 mov	 eax, DWORD PTR [ecx+4]

; 1652 : 		}

  00009	c3		 ret	 0

; 1651 : 		return (_Myptr());

$LN5@c_str:
  0000a	8d 41 04	 lea	 eax, DWORD PTR [ecx+4]

; 1652 : 		}

  0000d	c3		 ret	 0
?c_str@?$basic_string@DU?$char_traits@D@std@@V?$allocator@D@2@@std@@QBEPBDXZ ENDP ; std::basic_string<char,std::char_traits<char>,std::allocator<char> >::c_str
_TEXT	ENDS
PUBLIC	?c_str@?$basic_string@_WU?$char_traits@_W@std@@V?$allocator@_W@2@@std@@QBEPB_WXZ ; std::basic_string<wchar_t,std::char_traits<wchar_t>,std::allocator<wchar_t> >::c_str
; Function compile flags: /Ogtpy
;	COMDAT ?c_str@?$basic_string@_WU?$char_traits@_W@std@@V?$allocator@_W@2@@std@@QBEPB_WXZ
_TEXT	SEGMENT
?c_str@?$basic_string@_WU?$char_traits@_W@std@@V?$allocator@_W@2@@std@@QBEPB_WXZ PROC ; std::basic_string<wchar_t,std::char_traits<wchar_t>,std::allocator<wchar_t> >::c_str, COMDAT
; _this$ = ecx

; 1651 : 		return (_Myptr());

  00000	83 79 18 08	 cmp	 DWORD PTR [ecx+24], 8
  00004	72 04		 jb	 SHORT $LN5@c_str@2
  00006	8b 41 04	 mov	 eax, DWORD PTR [ecx+4]

; 1652 : 		}

  00009	c3		 ret	 0

; 1651 : 		return (_Myptr());

$LN5@c_str@2:
  0000a	8d 41 04	 lea	 eax, DWORD PTR [ecx+4]

; 1652 : 		}

  0000d	c3		 ret	 0
?c_str@?$basic_string@_WU?$char_traits@_W@std@@V?$allocator@_W@2@@std@@QBEPB_WXZ ENDP ; std::basic_string<wchar_t,std::char_traits<wchar_t>,std::allocator<wchar_t> >::c_str
_TEXT	ENDS
PUBLIC	??0?$_String_val@DV?$allocator@D@std@@@std@@IAE@V?$allocator@D@1@@Z ; std::_String_val<char,std::allocator<char> >::_String_val<char,std::allocator<char> >
; Function compile flags: /Ogtpy
;	COMDAT ??0?$_String_val@DV?$allocator@D@std@@@std@@IAE@V?$allocator@D@1@@Z
_TEXT	SEGMENT
__Al$ = 8						; size = 1
??0?$_String_val@DV?$allocator@D@std@@@std@@IAE@V?$allocator@D@1@@Z PROC ; std::_String_val<char,std::allocator<char> >::_String_val<char,std::allocator<char> >, COMDAT
; _this$ = ecx

; 472  : 		{	// construct allocator from _Al

  00000	8b c1		 mov	 eax, ecx

; 473  : 		}

  00002	c2 04 00	 ret	 4
??0?$_String_val@DV?$allocator@D@std@@@std@@IAE@V?$allocator@D@1@@Z ENDP ; std::_String_val<char,std::allocator<char> >::_String_val<char,std::allocator<char> >
_TEXT	ENDS
PUBLIC	??0?$_String_val@DV?$allocator@D@std@@@std@@QAE@ABV01@@Z ; std::_String_val<char,std::allocator<char> >::_String_val<char,std::allocator<char> >
; Function compile flags: /Ogtpy
;	COMDAT ??0?$_String_val@DV?$allocator@D@std@@@std@@QAE@ABV01@@Z
_TEXT	SEGMENT
__Right$ = 8						; size = 4
??0?$_String_val@DV?$allocator@D@std@@@std@@QAE@ABV01@@Z PROC ; std::_String_val<char,std::allocator<char> >::_String_val<char,std::allocator<char> >, COMDAT
; _this$ = ecx

; 478  : 		{	// copy constructor

  00000	8b c1		 mov	 eax, ecx

; 479  : #if defined(_DEBUG)
; 480  : 		if (_Right._Myfirstiter == _IGNORE_MYITERLIST)
; 481  : 			{
; 482  : 			this->_Myfirstiter = _IGNORE_MYITERLIST;
; 483  : 			}
; 484  : #endif
; 485  : 		}

  00002	c2 04 00	 ret	 4
??0?$_String_val@DV?$allocator@D@std@@@std@@QAE@ABV01@@Z ENDP ; std::_String_val<char,std::allocator<char> >::_String_val<char,std::allocator<char> >
_TEXT	ENDS
PUBLIC	??0?$_String_val@_WV?$allocator@_W@std@@@std@@IAE@V?$allocator@_W@1@@Z ; std::_String_val<wchar_t,std::allocator<wchar_t> >::_String_val<wchar_t,std::allocator<wchar_t> >
; Function compile flags: /Ogtpy
;	COMDAT ??0?$_String_val@_WV?$allocator@_W@std@@@std@@IAE@V?$allocator@_W@1@@Z
_TEXT	SEGMENT
__Al$ = 8						; size = 1
??0?$_String_val@_WV?$allocator@_W@std@@@std@@IAE@V?$allocator@_W@1@@Z PROC ; std::_String_val<wchar_t,std::allocator<wchar_t> >::_String_val<wchar_t,std::allocator<wchar_t> >, COMDAT
; _this$ = ecx

; 472  : 		{	// construct allocator from _Al

  00000	8b c1		 mov	 eax, ecx

; 473  : 		}

  00002	c2 04 00	 ret	 4
??0?$_String_val@_WV?$allocator@_W@std@@@std@@IAE@V?$allocator@_W@1@@Z ENDP ; std::_String_val<wchar_t,std::allocator<wchar_t> >::_String_val<wchar_t,std::allocator<wchar_t> >
_TEXT	ENDS
PUBLIC	?_Eos@?$basic_string@DU?$char_traits@D@std@@V?$allocator@D@2@@std@@IAEXI@Z ; std::basic_string<char,std::char_traits<char>,std::allocator<char> >::_Eos
; Function compile flags: /Ogtpy
;	COMDAT ?_Eos@?$basic_string@DU?$char_traits@D@std@@V?$allocator@D@2@@std@@IAEXI@Z
_TEXT	SEGMENT
__Newsize$ = 8						; size = 4
?_Eos@?$basic_string@DU?$char_traits@D@std@@V?$allocator@D@2@@std@@IAEXI@Z PROC ; std::basic_string<char,std::char_traits<char>,std::allocator<char> >::_Eos, COMDAT
; _this$ = ecx

; 2114 : 		_Traits::assign(_Myptr()[_Mysize = _Newsize], _Elem());

  00000	83 79 18 10	 cmp	 DWORD PTR [ecx+24], 16	; 00000010H
  00004	8b 44 24 04	 mov	 eax, DWORD PTR __Newsize$[esp-4]
  00008	89 41 14	 mov	 DWORD PTR [ecx+20], eax
  0000b	72 0a		 jb	 SHORT $LN5@Eos
  0000d	8b 49 04	 mov	 ecx, DWORD PTR [ecx+4]
  00010	c6 04 01 00	 mov	 BYTE PTR [ecx+eax], 0

; 2115 : 		}

  00014	c2 04 00	 ret	 4

; 2114 : 		_Traits::assign(_Myptr()[_Mysize = _Newsize], _Elem());

$LN5@Eos:
  00017	c6 44 01 04 00	 mov	 BYTE PTR [ecx+eax+4], 0

; 2115 : 		}

  0001c	c2 04 00	 ret	 4
?_Eos@?$basic_string@DU?$char_traits@D@std@@V?$allocator@D@2@@std@@IAEXI@Z ENDP ; std::basic_string<char,std::char_traits<char>,std::allocator<char> >::_Eos
_TEXT	ENDS
PUBLIC	?_Eos@?$basic_string@_WU?$char_traits@_W@std@@V?$allocator@_W@2@@std@@IAEXI@Z ; std::basic_string<wchar_t,std::char_traits<wchar_t>,std::allocator<wchar_t> >::_Eos
; Function compile flags: /Ogtpy
;	COMDAT ?_Eos@?$basic_string@_WU?$char_traits@_W@std@@V?$allocator@_W@2@@std@@IAEXI@Z
_TEXT	SEGMENT
__Newsize$ = 8						; size = 4
?_Eos@?$basic_string@_WU?$char_traits@_W@std@@V?$allocator@_W@2@@std@@IAEXI@Z PROC ; std::basic_string<wchar_t,std::char_traits<wchar_t>,std::allocator<wchar_t> >::_Eos, COMDAT
; _this$ = ecx

; 2114 : 		_Traits::assign(_Myptr()[_Mysize = _Newsize], _Elem());

  00000	8b 44 24 04	 mov	 eax, DWORD PTR __Newsize$[esp-4]
  00004	33 d2		 xor	 edx, edx
  00006	83 79 18 08	 cmp	 DWORD PTR [ecx+24], 8
  0000a	89 41 14	 mov	 DWORD PTR [ecx+20], eax
  0000d	72 0a		 jb	 SHORT $LN5@Eos@2
  0000f	8b 49 04	 mov	 ecx, DWORD PTR [ecx+4]
  00012	66 89 14 41	 mov	 WORD PTR [ecx+eax*2], dx

; 2115 : 		}

  00016	c2 04 00	 ret	 4

; 2114 : 		_Traits::assign(_Myptr()[_Mysize = _Newsize], _Elem());

$LN5@Eos@2:
  00019	66 89 54 41 04	 mov	 WORD PTR [ecx+eax*2+4], dx

; 2115 : 		}

  0001e	c2 04 00	 ret	 4
?_Eos@?$basic_string@_WU?$char_traits@_W@std@@V?$allocator@_W@2@@std@@IAEXI@Z ENDP ; std::basic_string<wchar_t,std::char_traits<wchar_t>,std::allocator<wchar_t> >::_Eos
_TEXT	ENDS
PUBLIC	?max_size@?$basic_string@DU?$char_traits@D@std@@V?$allocator@D@2@@std@@QBEIXZ ; std::basic_string<char,std::char_traits<char>,std::allocator<char> >::max_size
; Function compile flags: /Ogtpy
;	COMDAT ?max_size@?$basic_string@DU?$char_traits@D@std@@V?$allocator@D@2@@std@@QBEIXZ
_TEXT	SEGMENT
?max_size@?$basic_string@DU?$char_traits@D@std@@V?$allocator@D@2@@std@@QBEIXZ PROC ; std::basic_string<char,std::char_traits<char>,std::allocator<char> >::max_size, COMDAT
; _this$ = ecx

; 1671 : 		size_type _Num = _Mybase::_Alval.max_size();
; 1672 : 		return (_Num <= 1 ? 1 : _Num - 1);

  00000	b8 fe ff ff ff	 mov	 eax, -2			; fffffffeH

; 1673 : 		}

  00005	c3		 ret	 0
?max_size@?$basic_string@DU?$char_traits@D@std@@V?$allocator@D@2@@std@@QBEIXZ ENDP ; std::basic_string<char,std::char_traits<char>,std::allocator<char> >::max_size
_TEXT	ENDS
PUBLIC	?_Inside@?$basic_string@_WU?$char_traits@_W@std@@V?$allocator@_W@2@@std@@IAE_NPB_W@Z ; std::basic_string<wchar_t,std::char_traits<wchar_t>,std::allocator<wchar_t> >::_Inside
; Function compile flags: /Ogtpy
;	COMDAT ?_Inside@?$basic_string@_WU?$char_traits@_W@std@@V?$allocator@_W@2@@std@@IAE_NPB_W@Z
_TEXT	SEGMENT
__Ptr$ = 8						; size = 4
?_Inside@?$basic_string@_WU?$char_traits@_W@std@@V?$allocator@_W@2@@std@@IAE_NPB_W@Z PROC ; std::basic_string<wchar_t,std::char_traits<wchar_t>,std::allocator<wchar_t> >::_Inside, COMDAT
; _this$ = ecx

; 2133 : 		{	// test if _Ptr points inside string

  00000	56		 push	 esi
  00001	57		 push	 edi

; 2134 : 		if (_Ptr == 0 || _Ptr < _Myptr() || _Myptr() + _Mysize <= _Ptr)

  00002	8b 7c 24 0c	 mov	 edi, DWORD PTR __Ptr$[esp+4]
  00006	85 ff		 test	 edi, edi
  00008	74 2d		 je	 SHORT $LN2@Inside@2
  0000a	8b 71 18	 mov	 esi, DWORD PTR [ecx+24]
  0000d	8d 41 04	 lea	 eax, DWORD PTR [ecx+4]
  00010	83 fe 08	 cmp	 esi, 8
  00013	72 04		 jb	 SHORT $LN8@Inside@2
  00015	8b 10		 mov	 edx, DWORD PTR [eax]
  00017	eb 02		 jmp	 SHORT $LN9@Inside@2
$LN8@Inside@2:
  00019	8b d0		 mov	 edx, eax
$LN9@Inside@2:
  0001b	3b fa		 cmp	 edi, edx
  0001d	72 18		 jb	 SHORT $LN2@Inside@2
  0001f	83 fe 08	 cmp	 esi, 8
  00022	72 02		 jb	 SHORT $LN12@Inside@2
  00024	8b 00		 mov	 eax, DWORD PTR [eax]
$LN12@Inside@2:
  00026	8b 49 14	 mov	 ecx, DWORD PTR [ecx+20]
  00029	8d 14 48	 lea	 edx, DWORD PTR [eax+ecx*2]
  0002c	3b d7		 cmp	 edx, edi
  0002e	76 07		 jbe	 SHORT $LN2@Inside@2
  00030	5f		 pop	 edi

; 2136 : 		else
; 2137 : 			return (true);

  00031	b0 01		 mov	 al, 1
  00033	5e		 pop	 esi

; 2138 : 		}

  00034	c2 04 00	 ret	 4
$LN2@Inside@2:
  00037	5f		 pop	 edi

; 2135 : 			return (false);	// don't ask

  00038	32 c0		 xor	 al, al
  0003a	5e		 pop	 esi

; 2138 : 		}

  0003b	c2 04 00	 ret	 4
?_Inside@?$basic_string@_WU?$char_traits@_W@std@@V?$allocator@_W@2@@std@@IAE_NPB_W@Z ENDP ; std::basic_string<wchar_t,std::char_traits<wchar_t>,std::allocator<wchar_t> >::_Inside
_TEXT	ENDS
PUBLIC	?allocate@?$allocator@D@std@@QAEPADI@Z		; std::allocator<char>::allocate
; Function compile flags: /Ogtpy
; File c:\program files (x86)\microsoft visual studio 9.0\vc\include\xmemory
;	COMDAT ?allocate@?$allocator@D@std@@QAEPADI@Z
_TEXT	SEGMENT
__Count$ = 8						; size = 4
?allocate@?$allocator@D@std@@QAEPADI@Z PROC		; std::allocator<char>::allocate, COMDAT
; _this$ = ecx

; 145  : 		return (_Allocate(_Count, (pointer)0));

  00000	8b 44 24 04	 mov	 eax, DWORD PTR __Count$[esp-4]
  00004	6a 00		 push	 0
  00006	50		 push	 eax
  00007	e8 00 00 00 00	 call	 ??$_Allocate@D@std@@YAPADIPAD@Z ; std::_Allocate<char>
  0000c	83 c4 08	 add	 esp, 8

; 146  : 		}

  0000f	c2 04 00	 ret	 4
?allocate@?$allocator@D@std@@QAEPADI@Z ENDP		; std::allocator<char>::allocate
_TEXT	ENDS
PUBLIC	?max_size@?$basic_string@_WU?$char_traits@_W@std@@V?$allocator@_W@2@@std@@QBEIXZ ; std::basic_string<wchar_t,std::char_traits<wchar_t>,std::allocator<wchar_t> >::max_size
; Function compile flags: /Ogtpy
; File c:\program files (x86)\microsoft visual studio 9.0\vc\include\xstring
;	COMDAT ?max_size@?$basic_string@_WU?$char_traits@_W@std@@V?$allocator@_W@2@@std@@QBEIXZ
_TEXT	SEGMENT
?max_size@?$basic_string@_WU?$char_traits@_W@std@@V?$allocator@_W@2@@std@@QBEIXZ PROC ; std::basic_string<wchar_t,std::char_traits<wchar_t>,std::allocator<wchar_t> >::max_size, COMDAT
; _this$ = ecx

; 1671 : 		size_type _Num = _Mybase::_Alval.max_size();
; 1672 : 		return (_Num <= 1 ? 1 : _Num - 1);

  00000	b8 fe ff ff 7f	 mov	 eax, 2147483646		; 7ffffffeH

; 1673 : 		}

  00005	c3		 ret	 0
?max_size@?$basic_string@_WU?$char_traits@_W@std@@V?$allocator@_W@2@@std@@QBEIXZ ENDP ; std::basic_string<wchar_t,std::char_traits<wchar_t>,std::allocator<wchar_t> >::max_size
_TEXT	ENDS
PUBLIC	?allocate@?$allocator@_W@std@@QAEPA_WI@Z	; std::allocator<wchar_t>::allocate
; Function compile flags: /Ogtpy
; File c:\program files (x86)\microsoft visual studio 9.0\vc\include\xmemory
;	COMDAT ?allocate@?$allocator@_W@std@@QAEPA_WI@Z
_TEXT	SEGMENT
__Count$ = 8						; size = 4
?allocate@?$allocator@_W@std@@QAEPA_WI@Z PROC		; std::allocator<wchar_t>::allocate, COMDAT
; _this$ = ecx

; 145  : 		return (_Allocate(_Count, (pointer)0));

  00000	8b 44 24 04	 mov	 eax, DWORD PTR __Count$[esp-4]
  00004	6a 00		 push	 0
  00006	50		 push	 eax
  00007	e8 00 00 00 00	 call	 ??$_Allocate@_W@std@@YAPA_WIPA_W@Z ; std::_Allocate<wchar_t>
  0000c	83 c4 08	 add	 esp, 8

; 146  : 		}

  0000f	c2 04 00	 ret	 4
?allocate@?$allocator@_W@std@@QAEPA_WI@Z ENDP		; std::allocator<wchar_t>::allocate
_TEXT	ENDS
PUBLIC	??$copy_s@U?$char_traits@D@std@@@_Traits_helper@std@@YAPADPADIPBDI@Z ; std::_Traits_helper::copy_s<std::char_traits<char> >
; Function compile flags: /Ogtpy
; File c:\program files (x86)\microsoft visual studio 9.0\vc\include\iosfwd
;	COMDAT ??$copy_s@U?$char_traits@D@std@@@_Traits_helper@std@@YAPADPADIPBDI@Z
_TEXT	SEGMENT
__First1$ = 8						; size = 4
__Size$ = 12						; size = 4
__First2$ = 16						; size = 4
__Count$ = 20						; size = 4
??$copy_s@U?$char_traits@D@std@@@_Traits_helper@std@@YAPADPADIPBDI@Z PROC ; std::_Traits_helper::copy_s<std::char_traits<char> >, COMDAT

; 589  : 		return copy_s<_Traits>(_First1, _Size, _First2, _Count, _Char_traits_cat<_Traits>());

  00000	8b 44 24 10	 mov	 eax, DWORD PTR __Count$[esp-4]
  00004	8b 4c 24 0c	 mov	 ecx, DWORD PTR __First2$[esp-4]
  00008	8b 54 24 08	 mov	 edx, DWORD PTR __Size$[esp-4]
  0000c	56		 push	 esi
  0000d	8b 74 24 08	 mov	 esi, DWORD PTR __First1$[esp]
  00011	50		 push	 eax
  00012	51		 push	 ecx
  00013	52		 push	 edx
  00014	56		 push	 esi
  00015	e8 00 00 00 00	 call	 _memcpy_s
  0001a	83 c4 10	 add	 esp, 16			; 00000010H
  0001d	8b c6		 mov	 eax, esi
  0001f	5e		 pop	 esi

; 590  : 	}

  00020	c3		 ret	 0
??$copy_s@U?$char_traits@D@std@@@_Traits_helper@std@@YAPADPADIPBDI@Z ENDP ; std::_Traits_helper::copy_s<std::char_traits<char> >
_TEXT	ENDS
PUBLIC	??$copy_s@U?$char_traits@_W@std@@@_Traits_helper@std@@YAPA_WPA_WIPB_WI@Z ; std::_Traits_helper::copy_s<std::char_traits<wchar_t> >
; Function compile flags: /Ogtpy
;	COMDAT ??$copy_s@U?$char_traits@_W@std@@@_Traits_helper@std@@YAPA_WPA_WIPB_WI@Z
_TEXT	SEGMENT
__First1$ = 8						; size = 4
__Size$ = 12						; size = 4
__First2$ = 16						; size = 4
__Count$ = 20						; size = 4
??$copy_s@U?$char_traits@_W@std@@@_Traits_helper@std@@YAPA_WPA_WIPB_WI@Z PROC ; std::_Traits_helper::copy_s<std::char_traits<wchar_t> >, COMDAT

; 589  : 		return copy_s<_Traits>(_First1, _Size, _First2, _Count, _Char_traits_cat<_Traits>());

  00000	8b 44 24 10	 mov	 eax, DWORD PTR __Count$[esp-4]
  00004	8b 54 24 0c	 mov	 edx, DWORD PTR __First2$[esp-4]
  00008	56		 push	 esi
  00009	8b 74 24 08	 mov	 esi, DWORD PTR __First1$[esp]
  0000d	8d 0c 00	 lea	 ecx, DWORD PTR [eax+eax]
  00010	8b 44 24 0c	 mov	 eax, DWORD PTR __Size$[esp]
  00014	51		 push	 ecx
  00015	52		 push	 edx
  00016	8d 0c 00	 lea	 ecx, DWORD PTR [eax+eax]
  00019	51		 push	 ecx
  0001a	56		 push	 esi
  0001b	e8 00 00 00 00	 call	 _memcpy_s
  00020	83 c4 10	 add	 esp, 16			; 00000010H
  00023	8b c6		 mov	 eax, esi
  00025	5e		 pop	 esi

; 590  : 	}

  00026	c3		 ret	 0
??$copy_s@U?$char_traits@_W@std@@@_Traits_helper@std@@YAPA_WPA_WIPB_WI@Z ENDP ; std::_Traits_helper::copy_s<std::char_traits<wchar_t> >
_TEXT	ENDS
PUBLIC	??$move_s@U?$char_traits@D@std@@@_Traits_helper@std@@YAPADPADIPBDI@Z ; std::_Traits_helper::move_s<std::char_traits<char> >
; Function compile flags: /Ogtpy
;	COMDAT ??$move_s@U?$char_traits@D@std@@@_Traits_helper@std@@YAPADPADIPBDI@Z
_TEXT	SEGMENT
__First1$ = 8						; size = 4
__Size$ = 12						; size = 4
__First2$ = 16						; size = 4
__Count$ = 20						; size = 4
??$move_s@U?$char_traits@D@std@@@_Traits_helper@std@@YAPADPADIPBDI@Z PROC ; std::_Traits_helper::move_s<std::char_traits<char> >, COMDAT

; 616  : 		return move_s<_Traits>(_First1, _Size, _First2, _Count, _Char_traits_cat<_Traits>());

  00000	8b 44 24 10	 mov	 eax, DWORD PTR __Count$[esp-4]
  00004	8b 4c 24 0c	 mov	 ecx, DWORD PTR __First2$[esp-4]
  00008	8b 54 24 08	 mov	 edx, DWORD PTR __Size$[esp-4]
  0000c	56		 push	 esi
  0000d	8b 74 24 08	 mov	 esi, DWORD PTR __First1$[esp]
  00011	50		 push	 eax
  00012	51		 push	 ecx
  00013	52		 push	 edx
  00014	56		 push	 esi
  00015	e8 00 00 00 00	 call	 _memmove_s
  0001a	83 c4 10	 add	 esp, 16			; 00000010H
  0001d	8b c6		 mov	 eax, esi
  0001f	5e		 pop	 esi

; 617  : 	}

  00020	c3		 ret	 0
??$move_s@U?$char_traits@D@std@@@_Traits_helper@std@@YAPADPADIPBDI@Z ENDP ; std::_Traits_helper::move_s<std::char_traits<char> >
_TEXT	ENDS
PUBLIC	??$move_s@U?$char_traits@_W@std@@@_Traits_helper@std@@YAPA_WPA_WIPB_WI@Z ; std::_Traits_helper::move_s<std::char_traits<wchar_t> >
; Function compile flags: /Ogtpy
;	COMDAT ??$move_s@U?$char_traits@_W@std@@@_Traits_helper@std@@YAPA_WPA_WIPB_WI@Z
_TEXT	SEGMENT
__First1$ = 8						; size = 4
__Size$ = 12						; size = 4
__First2$ = 16						; size = 4
__Count$ = 20						; size = 4
??$move_s@U?$char_traits@_W@std@@@_Traits_helper@std@@YAPA_WPA_WIPB_WI@Z PROC ; std::_Traits_helper::move_s<std::char_traits<wchar_t> >, COMDAT

; 616  : 		return move_s<_Traits>(_First1, _Size, _First2, _Count, _Char_traits_cat<_Traits>());

  00000	8b 44 24 10	 mov	 eax, DWORD PTR __Count$[esp-4]
  00004	8b 54 24 0c	 mov	 edx, DWORD PTR __First2$[esp-4]
  00008	56		 push	 esi
  00009	8b 74 24 08	 mov	 esi, DWORD PTR __First1$[esp]
  0000d	8d 0c 00	 lea	 ecx, DWORD PTR [eax+eax]
  00010	8b 44 24 0c	 mov	 eax, DWORD PTR __Size$[esp]
  00014	51		 push	 ecx
  00015	52		 push	 edx
  00016	8d 0c 00	 lea	 ecx, DWORD PTR [eax+eax]
  00019	51		 push	 ecx
  0001a	56		 push	 esi
  0001b	e8 00 00 00 00	 call	 _memmove_s
  00020	83 c4 10	 add	 esp, 16			; 00000010H
  00023	8b c6		 mov	 eax, esi
  00025	5e		 pop	 esi

; 617  : 	}

  00026	c3		 ret	 0
??$move_s@U?$char_traits@_W@std@@@_Traits_helper@std@@YAPA_WPA_WIPB_WI@Z ENDP ; std::_Traits_helper::move_s<std::char_traits<wchar_t> >
_TEXT	ENDS
PUBLIC	?_Tidy@?$basic_string@DU?$char_traits@D@std@@V?$allocator@D@2@@std@@IAEX_NI@Z ; std::basic_string<char,std::char_traits<char>,std::allocator<char> >::_Tidy
; Function compile flags: /Ogtpy
; File c:\program files (x86)\microsoft visual studio 9.0\vc\include\xstring
;	COMDAT ?_Tidy@?$basic_string@DU?$char_traits@D@std@@V?$allocator@D@2@@std@@IAEX_NI@Z
_TEXT	SEGMENT
__Built$ = 8						; size = 1
__Newsize$ = 12						; size = 4
?_Tidy@?$basic_string@DU?$char_traits@D@std@@V?$allocator@D@2@@std@@IAEX_NI@Z PROC ; std::basic_string<char,std::char_traits<char>,std::allocator<char> >::_Tidy, COMDAT
; _this$ = ecx

; 2149 : 		if (!_Built)

  00000	80 7c 24 04 00	 cmp	 BYTE PTR __Built$[esp-4], 0
  00005	56		 push	 esi
  00006	57		 push	 edi
  00007	8b 7c 24 10	 mov	 edi, DWORD PTR __Newsize$[esp+4]
  0000b	8b f1		 mov	 esi, ecx
  0000d	74 27		 je	 SHORT $LN15@Tidy

; 2150 : 			;
; 2151 : 		else if (_BUF_SIZE <= _Myres)

  0000f	83 7e 18 10	 cmp	 DWORD PTR [esi+24], 16	; 00000010H
  00013	72 21		 jb	 SHORT $LN15@Tidy

; 2152 : 			{	// copy any leftovers to small buffer and deallocate
; 2153 : 			_Elem *_Ptr = _Bx._Ptr;

  00015	8d 46 04	 lea	 eax, DWORD PTR [esi+4]
  00018	53		 push	 ebx
  00019	8b 18		 mov	 ebx, DWORD PTR [eax]

; 2154 : 			if (0 < _Newsize)

  0001b	85 ff		 test	 edi, edi
  0001d	76 0d		 jbe	 SHORT $LN13@Tidy

; 2155 : 				_Traits_helper::copy_s<_Traits>(_Bx._Buf, _BUF_SIZE, _Ptr, _Newsize);

  0001f	57		 push	 edi
  00020	53		 push	 ebx
  00021	6a 10		 push	 16			; 00000010H
  00023	50		 push	 eax
  00024	e8 00 00 00 00	 call	 _memcpy_s
  00029	83 c4 10	 add	 esp, 16			; 00000010H
$LN13@Tidy:

; 2156 : 			_Mybase::_Alval.deallocate(_Ptr, _Myres + 1);

  0002c	53		 push	 ebx
  0002d	e8 00 00 00 00	 call	 ??3@YAXPAX@Z		; operator delete
  00032	83 c4 04	 add	 esp, 4
  00035	5b		 pop	 ebx
$LN15@Tidy:

; 2157 : 			}
; 2158 : 		_Myres = _BUF_SIZE - 1;
; 2159 : 		_Eos(_Newsize);

  00036	89 7e 14	 mov	 DWORD PTR [esi+20], edi
  00039	c7 46 18 0f 00
	00 00		 mov	 DWORD PTR [esi+24], 15	; 0000000fH
  00040	c6 44 3e 04 00	 mov	 BYTE PTR [esi+edi+4], 0
  00045	5f		 pop	 edi
  00046	5e		 pop	 esi

; 2160 : 		}

  00047	c2 08 00	 ret	 8
?_Tidy@?$basic_string@DU?$char_traits@D@std@@V?$allocator@D@2@@std@@IAEX_NI@Z ENDP ; std::basic_string<char,std::char_traits<char>,std::allocator<char> >::_Tidy
_TEXT	ENDS
PUBLIC	?_Tidy@?$basic_string@_WU?$char_traits@_W@std@@V?$allocator@_W@2@@std@@IAEX_NI@Z ; std::basic_string<wchar_t,std::char_traits<wchar_t>,std::allocator<wchar_t> >::_Tidy
; Function compile flags: /Ogtpy
;	COMDAT ?_Tidy@?$basic_string@_WU?$char_traits@_W@std@@V?$allocator@_W@2@@std@@IAEX_NI@Z
_TEXT	SEGMENT
__Built$ = 8						; size = 1
__Newsize$ = 12						; size = 4
?_Tidy@?$basic_string@_WU?$char_traits@_W@std@@V?$allocator@_W@2@@std@@IAEX_NI@Z PROC ; std::basic_string<wchar_t,std::char_traits<wchar_t>,std::allocator<wchar_t> >::_Tidy, COMDAT
; _this$ = ecx

; 2149 : 		if (!_Built)

  00000	80 7c 24 04 00	 cmp	 BYTE PTR __Built$[esp-4], 0
  00005	56		 push	 esi
  00006	57		 push	 edi
  00007	8b 7c 24 10	 mov	 edi, DWORD PTR __Newsize$[esp+4]
  0000b	8b f1		 mov	 esi, ecx
  0000d	74 2a		 je	 SHORT $LN17@Tidy@2

; 2150 : 			;
; 2151 : 		else if (_BUF_SIZE <= _Myres)

  0000f	83 7e 18 08	 cmp	 DWORD PTR [esi+24], 8
  00013	72 24		 jb	 SHORT $LN17@Tidy@2

; 2152 : 			{	// copy any leftovers to small buffer and deallocate
; 2153 : 			_Elem *_Ptr = _Bx._Ptr;

  00015	8d 46 04	 lea	 eax, DWORD PTR [esi+4]
  00018	53		 push	 ebx
  00019	8b 18		 mov	 ebx, DWORD PTR [eax]

; 2154 : 			if (0 < _Newsize)

  0001b	85 ff		 test	 edi, edi
  0001d	76 10		 jbe	 SHORT $LN15@Tidy@2

; 2155 : 				_Traits_helper::copy_s<_Traits>(_Bx._Buf, _BUF_SIZE, _Ptr, _Newsize);

  0001f	8d 0c 3f	 lea	 ecx, DWORD PTR [edi+edi]
  00022	51		 push	 ecx
  00023	53		 push	 ebx
  00024	6a 10		 push	 16			; 00000010H
  00026	50		 push	 eax
  00027	e8 00 00 00 00	 call	 _memcpy_s
  0002c	83 c4 10	 add	 esp, 16			; 00000010H
$LN15@Tidy@2:

; 2156 : 			_Mybase::_Alval.deallocate(_Ptr, _Myres + 1);

  0002f	53		 push	 ebx
  00030	e8 00 00 00 00	 call	 ??3@YAXPAX@Z		; operator delete
  00035	83 c4 04	 add	 esp, 4
  00038	5b		 pop	 ebx
$LN17@Tidy@2:

; 2157 : 			}
; 2158 : 		_Myres = _BUF_SIZE - 1;
; 2159 : 		_Eos(_Newsize);

  00039	89 7e 14	 mov	 DWORD PTR [esi+20], edi
  0003c	c7 46 18 07 00
	00 00		 mov	 DWORD PTR [esi+24], 7
  00043	33 d2		 xor	 edx, edx
  00045	66 89 54 7e 04	 mov	 WORD PTR [esi+edi*2+4], dx
  0004a	5f		 pop	 edi
  0004b	5e		 pop	 esi

; 2160 : 		}

  0004c	c2 08 00	 ret	 8
?_Tidy@?$basic_string@_WU?$char_traits@_W@std@@V?$allocator@_W@2@@std@@IAEX_NI@Z ENDP ; std::basic_string<wchar_t,std::char_traits<wchar_t>,std::allocator<wchar_t> >::_Tidy
_TEXT	ENDS
PUBLIC	?erase@?$basic_string@DU?$char_traits@D@std@@V?$allocator@D@2@@std@@QAEAAV12@II@Z ; std::basic_string<char,std::char_traits<char>,std::allocator<char> >::erase
EXTRN	?_Xran@_String_base@std@@SAXXZ:PROC		; std::_String_base::_Xran
; Function compile flags: /Ogtpy
;	COMDAT ?erase@?$basic_string@DU?$char_traits@D@std@@V?$allocator@D@2@@std@@QAEAAV12@II@Z
_TEXT	SEGMENT
tv130 = 8						; size = 4
__Off$ = 8						; size = 4
__Count$ = 12						; size = 4
?erase@?$basic_string@DU?$char_traits@D@std@@V?$allocator@D@2@@std@@QAEAAV12@II@Z PROC ; std::basic_string<char,std::char_traits<char>,std::allocator<char> >::erase, COMDAT
; _this$ = ecx

; 1262 : 		{	// erase elements [_Off, _Off + _Count)

  00000	53		 push	 ebx

; 1263 : 		if (_Mysize < _Off)

  00001	8b 5c 24 08	 mov	 ebx, DWORD PTR __Off$[esp]
  00005	56		 push	 esi
  00006	8b f1		 mov	 esi, ecx
  00008	57		 push	 edi
  00009	39 5e 14	 cmp	 DWORD PTR [esi+20], ebx
  0000c	73 05		 jae	 SHORT $LN3@erase

; 1264 : 			_String_base::_Xran();	// _Off off end

  0000e	e8 00 00 00 00	 call	 ?_Xran@_String_base@std@@SAXXZ ; std::_String_base::_Xran
$LN3@erase:

; 1265 : 		if (_Mysize - _Off < _Count)

  00013	8b 46 14	 mov	 eax, DWORD PTR [esi+20]
  00016	8b 7c 24 14	 mov	 edi, DWORD PTR __Count$[esp+8]
  0001a	2b c3		 sub	 eax, ebx
  0001c	3b c7		 cmp	 eax, edi
  0001e	73 02		 jae	 SHORT $LN2@erase

; 1266 : 			_Count = _Mysize - _Off;	// trim _Count

  00020	8b f8		 mov	 edi, eax
$LN2@erase:

; 1267 : 		if (0 < _Count)

  00022	85 ff		 test	 edi, edi
  00024	76 55		 jbe	 SHORT $LN30@erase

; 1268 : 			{	// move elements down
; 1269 : 			_Traits_helper::move_s<_Traits>(_Myptr() + _Off, _Myres - _Off, _Myptr() + _Off + _Count,
; 1270 : 				_Mysize - _Off - _Count);

  00026	8b 4e 18	 mov	 ecx, DWORD PTR [esi+24]
  00029	55		 push	 ebp
  0002a	8d 6e 04	 lea	 ebp, DWORD PTR [esi+4]
  0002d	83 f9 10	 cmp	 ecx, 16			; 00000010H
  00030	72 09		 jb	 SHORT $LN8@erase
  00032	8b 55 00	 mov	 edx, DWORD PTR [ebp]
  00035	89 54 24 14	 mov	 DWORD PTR tv130[esp+12], edx
  00039	eb 04		 jmp	 SHORT $LN9@erase
$LN8@erase:
  0003b	89 6c 24 14	 mov	 DWORD PTR tv130[esp+12], ebp
$LN9@erase:
  0003f	83 f9 10	 cmp	 ecx, 16			; 00000010H
  00042	72 05		 jb	 SHORT $LN12@erase
  00044	8b 55 00	 mov	 edx, DWORD PTR [ebp]
  00047	eb 02		 jmp	 SHORT $LN13@erase
$LN12@erase:
  00049	8b d5		 mov	 edx, ebp
$LN13@erase:
  0004b	2b c7		 sub	 eax, edi
  0004d	50		 push	 eax
  0004e	8b 44 24 18	 mov	 eax, DWORD PTR tv130[esp+16]
  00052	03 c3		 add	 eax, ebx
  00054	03 c7		 add	 eax, edi
  00056	50		 push	 eax
  00057	2b cb		 sub	 ecx, ebx
  00059	51		 push	 ecx
  0005a	03 d3		 add	 edx, ebx
  0005c	52		 push	 edx
  0005d	e8 00 00 00 00	 call	 _memmove_s

; 1271 : 			size_type _Newsize = _Mysize - _Count;

  00062	8b 46 14	 mov	 eax, DWORD PTR [esi+20]
  00065	2b c7		 sub	 eax, edi
  00067	83 c4 10	 add	 esp, 16			; 00000010H

; 1272 : 			_Eos(_Newsize);

  0006a	83 7e 18 10	 cmp	 DWORD PTR [esi+24], 16	; 00000010H
  0006e	89 46 14	 mov	 DWORD PTR [esi+20], eax
  00071	72 03		 jb	 SHORT $LN26@erase
  00073	8b 6d 00	 mov	 ebp, DWORD PTR [ebp]
$LN26@erase:
  00076	c6 04 28 00	 mov	 BYTE PTR [eax+ebp], 0
  0007a	5d		 pop	 ebp
$LN30@erase:
  0007b	5f		 pop	 edi

; 1273 : 			}
; 1274 : 		return (*this);

  0007c	8b c6		 mov	 eax, esi
  0007e	5e		 pop	 esi
  0007f	5b		 pop	 ebx

; 1275 : 		}

  00080	c2 08 00	 ret	 8
?erase@?$basic_string@DU?$char_traits@D@std@@V?$allocator@D@2@@std@@QAEAAV12@II@Z ENDP ; std::basic_string<char,std::char_traits<char>,std::allocator<char> >::erase
_TEXT	ENDS
PUBLIC	?_Copy@?$basic_string@DU?$char_traits@D@std@@V?$allocator@D@2@@std@@IAEXII@Z ; std::basic_string<char,std::char_traits<char>,std::allocator<char> >::_Copy
EXTRN	___security_cookie:DWORD
EXTRN	___CxxFrameHandler3:PROC
EXTRN	@__security_check_cookie@4:PROC
;	COMDAT xdata$x
; File c:\program files (x86)\microsoft visual studio 9.0\vc\include\iosfwd
xdata$x	SEGMENT
__catchsym$?_Copy@?$basic_string@DU?$char_traits@D@std@@V?$allocator@D@2@@std@@IAEXII@Z$5 DD 040H
	DD	00H
	DD	00H
	DD	FLAT:__catch$?_Copy@?$basic_string@DU?$char_traits@D@std@@V?$allocator@D@2@@std@@IAEXII@Z$0
__catchsym$?_Copy@?$basic_string@DU?$char_traits@D@std@@V?$allocator@D@2@@std@@IAEXII@Z$4 DD 040H
	DD	00H
	DD	00H
	DD	FLAT:__catch$?_Copy@?$basic_string@DU?$char_traits@D@std@@V?$allocator@D@2@@std@@IAEXII@Z$1
__unwindtable$?_Copy@?$basic_string@DU?$char_traits@D@std@@V?$allocator@D@2@@std@@IAEXII@Z DD 0ffffffffH
	DD	00H
	DD	0ffffffffH
	DD	00H
	DD	01H
	DD	00H
	DD	01H
	DD	00H
__ehfuncinfo$?_Copy@?$basic_string@DU?$char_traits@D@std@@V?$allocator@D@2@@std@@IAEXII@Z DD 019930522H
	DD	04H
	DD	FLAT:__unwindtable$?_Copy@?$basic_string@DU?$char_traits@D@std@@V?$allocator@D@2@@std@@IAEXII@Z
	DD	02H
	DD	FLAT:__tryblocktable$?_Copy@?$basic_string@DU?$char_traits@D@std@@V?$allocator@D@2@@std@@IAEXII@Z
	DD	2 DUP(00H)
	DD	00H
	DD	01H
__tryblocktable$?_Copy@?$basic_string@DU?$char_traits@D@std@@V?$allocator@D@2@@std@@IAEXII@Z DD 02H
	DD	02H
	DD	03H
	DD	01H
	DD	FLAT:__catchsym$?_Copy@?$basic_string@DU?$char_traits@D@std@@V?$allocator@D@2@@std@@IAEXII@Z$4
	DD	00H
	DD	00H
	DD	03H
	DD	01H
	DD	FLAT:__catchsym$?_Copy@?$basic_string@DU?$char_traits@D@std@@V?$allocator@D@2@@std@@IAEXII@Z$5
; Function compile flags: /Ogtpy
; File c:\program files (x86)\microsoft visual studio 9.0\vc\include\xstring
xdata$x	ENDS
;	COMDAT ?_Copy@?$basic_string@DU?$char_traits@D@std@@V?$allocator@D@2@@std@@IAEXII@Z
_TEXT	SEGMENT
__Newres$ = -24						; size = 4
_this$ = -20						; size = 4
__$EHRec$ = -16						; size = 16
__Ptr$ = 8						; size = 4
__Newsize$ = 8						; size = 4
__Oldlen$ = 12						; size = 4
?_Copy@?$basic_string@DU?$char_traits@D@std@@V?$allocator@D@2@@std@@IAEXII@Z PROC ; std::basic_string<char,std::char_traits<char>,std::allocator<char> >::_Copy, COMDAT
; _this$ = ecx

; 2083 : 		{	// copy _Oldlen elements to newly allocated buffer

  00000	55		 push	 ebp
  00001	8b ec		 mov	 ebp, esp
  00003	6a ff		 push	 -1
  00005	68 00 00 00 00	 push	 __ehhandler$?_Copy@?$basic_string@DU?$char_traits@D@std@@V?$allocator@D@2@@std@@IAEXII@Z
  0000a	64 a1 00 00 00
	00		 mov	 eax, DWORD PTR fs:0
  00010	50		 push	 eax
  00011	83 ec 0c	 sub	 esp, 12			; 0000000cH
  00014	53		 push	 ebx
  00015	56		 push	 esi
  00016	57		 push	 edi
  00017	a1 00 00 00 00	 mov	 eax, DWORD PTR ___security_cookie
  0001c	33 c5		 xor	 eax, ebp
  0001e	50		 push	 eax
  0001f	8d 45 f4	 lea	 eax, DWORD PTR __$EHRec$[ebp+4]
  00022	64 a3 00 00 00
	00		 mov	 DWORD PTR fs:0, eax
  00028	89 65 f0	 mov	 DWORD PTR __$EHRec$[ebp], esp
  0002b	8b f9		 mov	 edi, ecx
  0002d	89 7d ec	 mov	 DWORD PTR _this$[ebp], edi

; 2084 : 		size_type _Newres = _Newsize | _ALLOC_MASK;

  00030	8b 45 08	 mov	 eax, DWORD PTR __Newsize$[ebp]
  00033	8b f0		 mov	 esi, eax
  00035	83 ce 0f	 or	 esi, 15			; 0000000fH

; 2085 : 		if (max_size() < _Newres)

  00038	83 fe fe	 cmp	 esi, -2			; fffffffeH
  0003b	76 04		 jbe	 SHORT $LN6@Copy

; 2086 : 			_Newres = _Newsize;	// undo roundup if too big

  0003d	8b f0		 mov	 esi, eax

; 2087 : 		else if (_Newres / 3 < _Myres / 2

  0003f	eb 22		 jmp	 SHORT $LN4@Copy
$LN6@Copy:

; 2088 : 			&& _Myres <= max_size() - _Myres / 2)

  00041	8b 5f 18	 mov	 ebx, DWORD PTR [edi+24]
  00044	b8 ab aa aa aa	 mov	 eax, -1431655765	; aaaaaaabH
  00049	f7 e6		 mul	 esi
  0004b	8b cb		 mov	 ecx, ebx
  0004d	d1 e9		 shr	 ecx, 1
  0004f	d1 ea		 shr	 edx, 1
  00051	3b d1		 cmp	 edx, ecx
  00053	73 0e		 jae	 SHORT $LN4@Copy
  00055	b8 fe ff ff ff	 mov	 eax, -2			; fffffffeH
  0005a	2b c1		 sub	 eax, ecx
  0005c	3b d8		 cmp	 ebx, eax
  0005e	77 03		 ja	 SHORT $LN4@Copy

; 2089 : 			_Newres = _Myres + _Myres / 2;	// grow exponentially if possible

  00060	8d 34 19	 lea	 esi, DWORD PTR [ecx+ebx]
$LN4@Copy:

; 2090 : 		_Elem *_Ptr = 0;
; 2091 : 
; 2092 : 		_TRY_BEGIN
; 2093 : 			_Ptr = _Mybase::_Alval.allocate(_Newres + 1);

  00063	8d 4e 01	 lea	 ecx, DWORD PTR [esi+1]
  00066	6a 00		 push	 0
  00068	51		 push	 ecx
  00069	c7 45 fc 00 00
	00 00		 mov	 DWORD PTR __$EHRec$[ebp+12], 0
  00070	e8 00 00 00 00	 call	 ??$_Allocate@D@std@@YAPADIPAD@Z ; std::_Allocate<char>
  00075	83 c4 08	 add	 esp, 8
  00078	89 45 08	 mov	 DWORD PTR __Ptr$[ebp], eax
  0007b	eb 28		 jmp	 SHORT $LN16@Copy
__catch$?_Copy@?$basic_string@DU?$char_traits@D@std@@V?$allocator@D@2@@std@@IAEXII@Z$0:

; 2094 : 		_CATCH_ALL
; 2095 : 			_Newres = _Newsize;	// allocation failed, undo roundup and retry

  0007d	8b 45 08	 mov	 eax, DWORD PTR __Newsize$[ebp]
  00080	89 65 f0	 mov	 DWORD PTR __$EHRec$[ebp], esp
  00083	89 45 e8	 mov	 DWORD PTR __Newres$[ebp], eax

; 2096 : 			_TRY_BEGIN
; 2097 : 				_Ptr = _Mybase::_Alval.allocate(_Newres + 1);

  00086	40		 inc	 eax
  00087	6a 00		 push	 0
  00089	50		 push	 eax
  0008a	c6 45 fc 02	 mov	 BYTE PTR __$EHRec$[ebp+12], 2
  0008e	e8 00 00 00 00	 call	 ??$_Allocate@D@std@@YAPADIPAD@Z ; std::_Allocate<char>
  00093	89 45 08	 mov	 DWORD PTR __Ptr$[ebp], eax
  00096	83 c4 08	 add	 esp, 8

; 2101 : 			_CATCH_END
; 2102 : 		_CATCH_END

  00099	b8 00 00 00 00	 mov	 eax, $LN106@Copy
  0009e	c3		 ret	 0
$LN106@Copy:
  0009f	8b 7d ec	 mov	 edi, DWORD PTR _this$[ebp]
  000a2	8b 75 e8	 mov	 esi, DWORD PTR __Newres$[ebp]
$LN16@Copy:

; 2103 : 
; 2104 : 		if (0 < _Oldlen)

  000a5	8b 5d 0c	 mov	 ebx, DWORD PTR __Oldlen$[ebp]
  000a8	85 db		 test	 ebx, ebx
  000aa	76 20		 jbe	 SHORT $LN71@Copy

; 2105 : 			_Traits_helper::copy_s<_Traits>(_Ptr, _Newres + 1, _Myptr(), _Oldlen);	// copy existing elements

  000ac	83 7f 18 10	 cmp	 DWORD PTR [edi+24], 16	; 00000010H
  000b0	72 05		 jb	 SHORT $LN63@Copy
  000b2	8b 47 04	 mov	 eax, DWORD PTR [edi+4]
  000b5	eb 03		 jmp	 SHORT $LN64@Copy
$LN63@Copy:
  000b7	8d 47 04	 lea	 eax, DWORD PTR [edi+4]
$LN64@Copy:
  000ba	53		 push	 ebx
  000bb	50		 push	 eax
  000bc	8b 45 08	 mov	 eax, DWORD PTR __Ptr$[ebp]
  000bf	8d 56 01	 lea	 edx, DWORD PTR [esi+1]
  000c2	52		 push	 edx
  000c3	50		 push	 eax
  000c4	e8 00 00 00 00	 call	 _memcpy_s
  000c9	83 c4 10	 add	 esp, 16			; 00000010H
$LN71@Copy:

; 2106 : 		_Tidy(true);

  000cc	83 7f 18 10	 cmp	 DWORD PTR [edi+24], 16	; 00000010H
  000d0	72 0c		 jb	 SHORT $LN87@Copy
  000d2	8b 4f 04	 mov	 ecx, DWORD PTR [edi+4]
  000d5	51		 push	 ecx
  000d6	e8 00 00 00 00	 call	 ??3@YAXPAX@Z		; operator delete
  000db	83 c4 04	 add	 esp, 4
$LN87@Copy:

; 2107 : 		_Bx._Ptr = _Ptr;

  000de	8b 4d 08	 mov	 ecx, DWORD PTR __Ptr$[ebp]
  000e1	8d 47 04	 lea	 eax, DWORD PTR [edi+4]
  000e4	c6 00 00	 mov	 BYTE PTR [eax], 0
  000e7	89 08		 mov	 DWORD PTR [eax], ecx

; 2108 : 		_Myres = _Newres;

  000e9	89 77 18	 mov	 DWORD PTR [edi+24], esi

; 2109 : 		_Eos(_Oldlen);

  000ec	89 5f 14	 mov	 DWORD PTR [edi+20], ebx
  000ef	83 fe 10	 cmp	 esi, 16			; 00000010H
  000f2	72 02		 jb	 SHORT $LN101@Copy
  000f4	8b c1		 mov	 eax, ecx
$LN101@Copy:
  000f6	c6 04 18 00	 mov	 BYTE PTR [eax+ebx], 0

; 2110 : 		}

  000fa	8b 4d f4	 mov	 ecx, DWORD PTR __$EHRec$[ebp+4]
  000fd	64 89 0d 00 00
	00 00		 mov	 DWORD PTR fs:0, ecx
  00104	59		 pop	 ecx
  00105	5f		 pop	 edi
  00106	5e		 pop	 esi
  00107	5b		 pop	 ebx
  00108	8b e5		 mov	 esp, ebp
  0010a	5d		 pop	 ebp
  0010b	c2 08 00	 ret	 8
__catch$?_Copy@?$basic_string@DU?$char_traits@D@std@@V?$allocator@D@2@@std@@IAEXII@Z$1:

; 2098 : 			_CATCH_ALL
; 2099 : 			_Tidy(true);	// failed again, discard storage and reraise

  0010e	8b 75 ec	 mov	 esi, DWORD PTR _this$[ebp]
  00111	83 7e 18 10	 cmp	 DWORD PTR [esi+24], 16	; 00000010H
  00115	72 0c		 jb	 SHORT $LN51@Copy
  00117	8b 56 04	 mov	 edx, DWORD PTR [esi+4]
  0011a	52		 push	 edx
  0011b	e8 00 00 00 00	 call	 ??3@YAXPAX@Z		; operator delete
  00120	83 c4 04	 add	 esp, 4
$LN51@Copy:

; 2100 : 			_RERAISE;

  00123	6a 00		 push	 0
  00125	c7 46 18 0f 00
	00 00		 mov	 DWORD PTR [esi+24], 15	; 0000000fH
  0012c	c7 46 14 00 00
	00 00		 mov	 DWORD PTR [esi+20], 0
  00133	6a 00		 push	 0
  00135	c6 46 04 00	 mov	 BYTE PTR [esi+4], 0
  00139	e8 00 00 00 00	 call	 __CxxThrowException@8
$LN109@Copy:
  0013e	cc		 int	 3
_TEXT	ENDS
;	COMDAT text$x
text$x	SEGMENT
__ehhandler$?_Copy@?$basic_string@DU?$char_traits@D@std@@V?$allocator@D@2@@std@@IAEXII@Z:
  00000	8b 54 24 08	 mov	 edx, DWORD PTR [esp+8]
  00004	8d 42 0c	 lea	 eax, DWORD PTR [edx+12]
  00007	8b 4a e4	 mov	 ecx, DWORD PTR [edx-28]
  0000a	33 c8		 xor	 ecx, eax
  0000c	e8 00 00 00 00	 call	 @__security_check_cookie@4
  00011	b8 00 00 00 00	 mov	 eax, OFFSET __ehfuncinfo$?_Copy@?$basic_string@DU?$char_traits@D@std@@V?$allocator@D@2@@std@@IAEXII@Z
  00016	e9 00 00 00 00	 jmp	 ___CxxFrameHandler3
text$x	ENDS
?_Copy@?$basic_string@DU?$char_traits@D@std@@V?$allocator@D@2@@std@@IAEXII@Z ENDP ; std::basic_string<char,std::char_traits<char>,std::allocator<char> >::_Copy
PUBLIC	?erase@?$basic_string@_WU?$char_traits@_W@std@@V?$allocator@_W@2@@std@@QAEAAV12@II@Z ; std::basic_string<wchar_t,std::char_traits<wchar_t>,std::allocator<wchar_t> >::erase
; Function compile flags: /Ogtpy
;	COMDAT ?erase@?$basic_string@_WU?$char_traits@_W@std@@V?$allocator@_W@2@@std@@QAEAAV12@II@Z
_TEXT	SEGMENT
tv133 = 8						; size = 4
__Off$ = 8						; size = 4
tv139 = 12						; size = 4
__Count$ = 12						; size = 4
?erase@?$basic_string@_WU?$char_traits@_W@std@@V?$allocator@_W@2@@std@@QAEAAV12@II@Z PROC ; std::basic_string<wchar_t,std::char_traits<wchar_t>,std::allocator<wchar_t> >::erase, COMDAT
; _this$ = ecx

; 1262 : 		{	// erase elements [_Off, _Off + _Count)

  00000	53		 push	 ebx

; 1263 : 		if (_Mysize < _Off)

  00001	8b 5c 24 08	 mov	 ebx, DWORD PTR __Off$[esp]
  00005	56		 push	 esi
  00006	8b f1		 mov	 esi, ecx
  00008	57		 push	 edi
  00009	39 5e 14	 cmp	 DWORD PTR [esi+20], ebx
  0000c	73 05		 jae	 SHORT $LN3@erase@2

; 1264 : 			_String_base::_Xran();	// _Off off end

  0000e	e8 00 00 00 00	 call	 ?_Xran@_String_base@std@@SAXXZ ; std::_String_base::_Xran
$LN3@erase@2:

; 1265 : 		if (_Mysize - _Off < _Count)

  00013	8b 46 14	 mov	 eax, DWORD PTR [esi+20]
  00016	8b 7c 24 14	 mov	 edi, DWORD PTR __Count$[esp+8]
  0001a	2b c3		 sub	 eax, ebx
  0001c	3b c7		 cmp	 eax, edi
  0001e	73 02		 jae	 SHORT $LN2@erase@2

; 1266 : 			_Count = _Mysize - _Off;	// trim _Count

  00020	8b f8		 mov	 edi, eax
$LN2@erase@2:

; 1267 : 		if (0 < _Count)

  00022	85 ff		 test	 edi, edi
  00024	76 69		 jbe	 SHORT $LN32@erase@2

; 1268 : 			{	// move elements down
; 1269 : 			_Traits_helper::move_s<_Traits>(_Myptr() + _Off, _Myres - _Off, _Myptr() + _Off + _Count,
; 1270 : 				_Mysize - _Off - _Count);

  00026	8b 4e 18	 mov	 ecx, DWORD PTR [esi+24]
  00029	55		 push	 ebp
  0002a	8d 6e 04	 lea	 ebp, DWORD PTR [esi+4]
  0002d	83 f9 08	 cmp	 ecx, 8
  00030	72 09		 jb	 SHORT $LN8@erase@2
  00032	8b 55 00	 mov	 edx, DWORD PTR [ebp]
  00035	89 54 24 14	 mov	 DWORD PTR tv133[esp+12], edx
  00039	eb 04		 jmp	 SHORT $LN9@erase@2
$LN8@erase@2:
  0003b	89 6c 24 14	 mov	 DWORD PTR tv133[esp+12], ebp
$LN9@erase@2:
  0003f	83 f9 08	 cmp	 ecx, 8
  00042	72 09		 jb	 SHORT $LN12@erase@2
  00044	8b 55 00	 mov	 edx, DWORD PTR [ebp]
  00047	89 54 24 18	 mov	 DWORD PTR tv139[esp+12], edx
  0004b	eb 04		 jmp	 SHORT $LN13@erase@2
$LN12@erase@2:
  0004d	89 6c 24 18	 mov	 DWORD PTR tv139[esp+12], ebp
$LN13@erase@2:
  00051	8b 54 24 14	 mov	 edx, DWORD PTR tv133[esp+12]
  00055	2b c7		 sub	 eax, edi
  00057	03 c0		 add	 eax, eax
  00059	50		 push	 eax
  0005a	8d 04 3b	 lea	 eax, DWORD PTR [ebx+edi]
  0005d	8d 04 42	 lea	 eax, DWORD PTR [edx+eax*2]
  00060	2b cb		 sub	 ecx, ebx
  00062	50		 push	 eax
  00063	03 c9		 add	 ecx, ecx
  00065	51		 push	 ecx
  00066	8b 4c 24 24	 mov	 ecx, DWORD PTR tv139[esp+24]
  0006a	8d 14 59	 lea	 edx, DWORD PTR [ecx+ebx*2]
  0006d	52		 push	 edx
  0006e	e8 00 00 00 00	 call	 _memmove_s

; 1271 : 			size_type _Newsize = _Mysize - _Count;

  00073	8b 46 14	 mov	 eax, DWORD PTR [esi+20]
  00076	2b c7		 sub	 eax, edi
  00078	83 c4 10	 add	 esp, 16			; 00000010H

; 1272 : 			_Eos(_Newsize);

  0007b	83 7e 18 08	 cmp	 DWORD PTR [esi+24], 8
  0007f	89 46 14	 mov	 DWORD PTR [esi+20], eax
  00082	72 03		 jb	 SHORT $LN28@erase@2
  00084	8b 6d 00	 mov	 ebp, DWORD PTR [ebp]
$LN28@erase@2:
  00087	33 c9		 xor	 ecx, ecx
  00089	66 89 4c 45 00	 mov	 WORD PTR [ebp+eax*2], cx
  0008e	5d		 pop	 ebp
$LN32@erase@2:
  0008f	5f		 pop	 edi

; 1273 : 			}
; 1274 : 		return (*this);

  00090	8b c6		 mov	 eax, esi
  00092	5e		 pop	 esi
  00093	5b		 pop	 ebx

; 1275 : 		}

  00094	c2 08 00	 ret	 8
?erase@?$basic_string@_WU?$char_traits@_W@std@@V?$allocator@_W@2@@std@@QAEAAV12@II@Z ENDP ; std::basic_string<wchar_t,std::char_traits<wchar_t>,std::allocator<wchar_t> >::erase
_TEXT	ENDS
PUBLIC	?_Copy@?$basic_string@_WU?$char_traits@_W@std@@V?$allocator@_W@2@@std@@IAEXII@Z ; std::basic_string<wchar_t,std::char_traits<wchar_t>,std::allocator<wchar_t> >::_Copy
;	COMDAT xdata$x
; File c:\program files (x86)\microsoft visual studio 9.0\vc\include\iosfwd
xdata$x	SEGMENT
__catchsym$?_Copy@?$basic_string@_WU?$char_traits@_W@std@@V?$allocator@_W@2@@std@@IAEXII@Z$5 DD 040H
	DD	00H
	DD	00H
	DD	FLAT:__catch$?_Copy@?$basic_string@_WU?$char_traits@_W@std@@V?$allocator@_W@2@@std@@IAEXII@Z$0
__catchsym$?_Copy@?$basic_string@_WU?$char_traits@_W@std@@V?$allocator@_W@2@@std@@IAEXII@Z$4 DD 040H
	DD	00H
	DD	00H
	DD	FLAT:__catch$?_Copy@?$basic_string@_WU?$char_traits@_W@std@@V?$allocator@_W@2@@std@@IAEXII@Z$1
__unwindtable$?_Copy@?$basic_string@_WU?$char_traits@_W@std@@V?$allocator@_W@2@@std@@IAEXII@Z DD 0ffffffffH
	DD	00H
	DD	0ffffffffH
	DD	00H
	DD	01H
	DD	00H
	DD	01H
	DD	00H
__ehfuncinfo$?_Copy@?$basic_string@_WU?$char_traits@_W@std@@V?$allocator@_W@2@@std@@IAEXII@Z DD 019930522H
	DD	04H
	DD	FLAT:__unwindtable$?_Copy@?$basic_string@_WU?$char_traits@_W@std@@V?$allocator@_W@2@@std@@IAEXII@Z
	DD	02H
	DD	FLAT:__tryblocktable$?_Copy@?$basic_string@_WU?$char_traits@_W@std@@V?$allocator@_W@2@@std@@IAEXII@Z
	DD	2 DUP(00H)
	DD	00H
	DD	01H
__tryblocktable$?_Copy@?$basic_string@_WU?$char_traits@_W@std@@V?$allocator@_W@2@@std@@IAEXII@Z DD 02H
	DD	02H
	DD	03H
	DD	01H
	DD	FLAT:__catchsym$?_Copy@?$basic_string@_WU?$char_traits@_W@std@@V?$allocator@_W@2@@std@@IAEXII@Z$4
	DD	00H
	DD	00H
	DD	03H
	DD	01H
	DD	FLAT:__catchsym$?_Copy@?$basic_string@_WU?$char_traits@_W@std@@V?$allocator@_W@2@@std@@IAEXII@Z$5
; Function compile flags: /Ogtpy
; File c:\program files (x86)\microsoft visual studio 9.0\vc\include\xstring
xdata$x	ENDS
;	COMDAT ?_Copy@?$basic_string@_WU?$char_traits@_W@std@@V?$allocator@_W@2@@std@@IAEXII@Z
_TEXT	SEGMENT
__Ptr$ = -24						; size = 4
_this$ = -20						; size = 4
__$EHRec$ = -16						; size = 16
__Newres$ = 8						; size = 4
__Newsize$ = 8						; size = 4
__Oldlen$ = 12						; size = 4
?_Copy@?$basic_string@_WU?$char_traits@_W@std@@V?$allocator@_W@2@@std@@IAEXII@Z PROC ; std::basic_string<wchar_t,std::char_traits<wchar_t>,std::allocator<wchar_t> >::_Copy, COMDAT
; _this$ = ecx

; 2083 : 		{	// copy _Oldlen elements to newly allocated buffer

  00000	55		 push	 ebp
  00001	8b ec		 mov	 ebp, esp
  00003	6a ff		 push	 -1
  00005	68 00 00 00 00	 push	 __ehhandler$?_Copy@?$basic_string@_WU?$char_traits@_W@std@@V?$allocator@_W@2@@std@@IAEXII@Z
  0000a	64 a1 00 00 00
	00		 mov	 eax, DWORD PTR fs:0
  00010	50		 push	 eax
  00011	83 ec 0c	 sub	 esp, 12			; 0000000cH
  00014	53		 push	 ebx
  00015	56		 push	 esi
  00016	57		 push	 edi
  00017	a1 00 00 00 00	 mov	 eax, DWORD PTR ___security_cookie
  0001c	33 c5		 xor	 eax, ebp
  0001e	50		 push	 eax
  0001f	8d 45 f4	 lea	 eax, DWORD PTR __$EHRec$[ebp+4]
  00022	64 a3 00 00 00
	00		 mov	 DWORD PTR fs:0, eax
  00028	89 65 f0	 mov	 DWORD PTR __$EHRec$[ebp], esp
  0002b	8b f9		 mov	 edi, ecx
  0002d	89 7d ec	 mov	 DWORD PTR _this$[ebp], edi

; 2084 : 		size_type _Newres = _Newsize | _ALLOC_MASK;

  00030	8b 45 08	 mov	 eax, DWORD PTR __Newsize$[ebp]
  00033	8b f0		 mov	 esi, eax
  00035	83 ce 07	 or	 esi, 7

; 2085 : 		if (max_size() < _Newres)

  00038	81 fe fe ff ff
	7f		 cmp	 esi, 2147483646		; 7ffffffeH
  0003e	76 04		 jbe	 SHORT $LN6@Copy@2

; 2086 : 			_Newres = _Newsize;	// undo roundup if too big

  00040	8b f0		 mov	 esi, eax

; 2087 : 		else if (_Newres / 3 < _Myres / 2

  00042	eb 22		 jmp	 SHORT $LN4@Copy@2
$LN6@Copy@2:

; 2088 : 			&& _Myres <= max_size() - _Myres / 2)

  00044	8b 5f 18	 mov	 ebx, DWORD PTR [edi+24]
  00047	b8 ab aa aa aa	 mov	 eax, -1431655765	; aaaaaaabH
  0004c	f7 e6		 mul	 esi
  0004e	8b cb		 mov	 ecx, ebx
  00050	d1 e9		 shr	 ecx, 1
  00052	d1 ea		 shr	 edx, 1
  00054	3b d1		 cmp	 edx, ecx
  00056	73 0e		 jae	 SHORT $LN4@Copy@2
  00058	b8 fe ff ff 7f	 mov	 eax, 2147483646		; 7ffffffeH
  0005d	2b c1		 sub	 eax, ecx
  0005f	3b d8		 cmp	 ebx, eax
  00061	77 03		 ja	 SHORT $LN4@Copy@2

; 2089 : 			_Newres = _Myres + _Myres / 2;	// grow exponentially if possible

  00063	8d 34 19	 lea	 esi, DWORD PTR [ecx+ebx]
$LN4@Copy@2:

; 2090 : 		_Elem *_Ptr = 0;
; 2091 : 
; 2092 : 		_TRY_BEGIN
; 2093 : 			_Ptr = _Mybase::_Alval.allocate(_Newres + 1);

  00066	8d 4e 01	 lea	 ecx, DWORD PTR [esi+1]
  00069	6a 00		 push	 0
  0006b	51		 push	 ecx
  0006c	c7 45 fc 00 00
	00 00		 mov	 DWORD PTR __$EHRec$[ebp+12], 0
  00073	e8 00 00 00 00	 call	 ??$_Allocate@_W@std@@YAPA_WIPA_W@Z ; std::_Allocate<wchar_t>
  00078	83 c4 08	 add	 esp, 8
  0007b	8b d8		 mov	 ebx, eax
  0007d	eb 2b		 jmp	 SHORT $LN16@Copy@2
__catch$?_Copy@?$basic_string@_WU?$char_traits@_W@std@@V?$allocator@_W@2@@std@@IAEXII@Z$0:

; 2094 : 		_CATCH_ALL
; 2095 : 			_Newres = _Newsize;	// allocation failed, undo roundup and retry

  0007f	8b 45 08	 mov	 eax, DWORD PTR __Newsize$[ebp]
  00082	89 65 f0	 mov	 DWORD PTR __$EHRec$[ebp], esp
  00085	89 45 08	 mov	 DWORD PTR __Newres$[ebp], eax

; 2096 : 			_TRY_BEGIN
; 2097 : 				_Ptr = _Mybase::_Alval.allocate(_Newres + 1);

  00088	40		 inc	 eax
  00089	6a 00		 push	 0
  0008b	50		 push	 eax
  0008c	c6 45 fc 02	 mov	 BYTE PTR __$EHRec$[ebp+12], 2
  00090	e8 00 00 00 00	 call	 ??$_Allocate@_W@std@@YAPA_WIPA_W@Z ; std::_Allocate<wchar_t>
  00095	89 45 e8	 mov	 DWORD PTR __Ptr$[ebp], eax
  00098	83 c4 08	 add	 esp, 8

; 2101 : 			_CATCH_END
; 2102 : 		_CATCH_END

  0009b	b8 00 00 00 00	 mov	 eax, $LN112@Copy@2
  000a0	c3		 ret	 0
$LN112@Copy@2:
  000a1	8b 7d ec	 mov	 edi, DWORD PTR _this$[ebp]
  000a4	8b 75 08	 mov	 esi, DWORD PTR __Newres$[ebp]
  000a7	8b 5d e8	 mov	 ebx, DWORD PTR __Ptr$[ebp]
$LN16@Copy@2:

; 2103 : 
; 2104 : 		if (0 < _Oldlen)

  000aa	8b 4d 0c	 mov	 ecx, DWORD PTR __Oldlen$[ebp]
  000ad	85 c9		 test	 ecx, ecx
  000af	76 24		 jbe	 SHORT $LN75@Copy@2

; 2105 : 			_Traits_helper::copy_s<_Traits>(_Ptr, _Newres + 1, _Myptr(), _Oldlen);	// copy existing elements

  000b1	83 7f 18 08	 cmp	 DWORD PTR [edi+24], 8
  000b5	72 05		 jb	 SHORT $LN65@Copy@2
  000b7	8b 47 04	 mov	 eax, DWORD PTR [edi+4]
  000ba	eb 03		 jmp	 SHORT $LN66@Copy@2
$LN65@Copy@2:
  000bc	8d 47 04	 lea	 eax, DWORD PTR [edi+4]
$LN66@Copy@2:
  000bf	8d 14 09	 lea	 edx, DWORD PTR [ecx+ecx]
  000c2	52		 push	 edx
  000c3	50		 push	 eax
  000c4	8d 44 36 02	 lea	 eax, DWORD PTR [esi+esi+2]
  000c8	50		 push	 eax
  000c9	53		 push	 ebx
  000ca	e8 00 00 00 00	 call	 _memcpy_s
  000cf	8b 4d 0c	 mov	 ecx, DWORD PTR __Oldlen$[ebp]
  000d2	83 c4 10	 add	 esp, 16			; 00000010H
$LN75@Copy@2:

; 2106 : 		_Tidy(true);

  000d5	83 7f 18 08	 cmp	 DWORD PTR [edi+24], 8
  000d9	72 0f		 jb	 SHORT $LN93@Copy@2
  000db	8b 4f 04	 mov	 ecx, DWORD PTR [edi+4]
  000de	51		 push	 ecx
  000df	e8 00 00 00 00	 call	 ??3@YAXPAX@Z		; operator delete
  000e4	8b 4d 0c	 mov	 ecx, DWORD PTR __Oldlen$[ebp]
  000e7	83 c4 04	 add	 esp, 4
$LN93@Copy@2:
  000ea	8d 47 04	 lea	 eax, DWORD PTR [edi+4]
  000ed	33 d2		 xor	 edx, edx

; 2107 : 		_Bx._Ptr = _Ptr;

  000ef	89 18		 mov	 DWORD PTR [eax], ebx

; 2108 : 		_Myres = _Newres;

  000f1	89 77 18	 mov	 DWORD PTR [edi+24], esi

; 2109 : 		_Eos(_Oldlen);

  000f4	89 4f 14	 mov	 DWORD PTR [edi+20], ecx
  000f7	83 fe 08	 cmp	 esi, 8
  000fa	72 02		 jb	 SHORT $LN107@Copy@2
  000fc	8b c3		 mov	 eax, ebx
$LN107@Copy@2:
  000fe	33 d2		 xor	 edx, edx
  00100	66 89 14 48	 mov	 WORD PTR [eax+ecx*2], dx

; 2110 : 		}

  00104	8b 4d f4	 mov	 ecx, DWORD PTR __$EHRec$[ebp+4]
  00107	64 89 0d 00 00
	00 00		 mov	 DWORD PTR fs:0, ecx
  0010e	59		 pop	 ecx
  0010f	5f		 pop	 edi
  00110	5e		 pop	 esi
  00111	5b		 pop	 ebx
  00112	8b e5		 mov	 esp, ebp
  00114	5d		 pop	 ebp
  00115	c2 08 00	 ret	 8
__catch$?_Copy@?$basic_string@_WU?$char_traits@_W@std@@V?$allocator@_W@2@@std@@IAEXII@Z$1:

; 2098 : 			_CATCH_ALL
; 2099 : 			_Tidy(true);	// failed again, discard storage and reraise

  00118	8b 75 ec	 mov	 esi, DWORD PTR _this$[ebp]
  0011b	83 7e 18 08	 cmp	 DWORD PTR [esi+24], 8
  0011f	72 0c		 jb	 SHORT $LN53@Copy@2
  00121	8b 46 04	 mov	 eax, DWORD PTR [esi+4]
  00124	50		 push	 eax
  00125	e8 00 00 00 00	 call	 ??3@YAXPAX@Z		; operator delete
  0012a	83 c4 04	 add	 esp, 4
$LN53@Copy@2:
  0012d	33 c9		 xor	 ecx, ecx

; 2100 : 			_RERAISE;

  0012f	51		 push	 ecx
  00130	c7 46 18 07 00
	00 00		 mov	 DWORD PTR [esi+24], 7
  00137	c7 46 14 00 00
	00 00		 mov	 DWORD PTR [esi+20], 0
  0013e	51		 push	 ecx
  0013f	66 89 4e 04	 mov	 WORD PTR [esi+4], cx
  00143	e8 00 00 00 00	 call	 __CxxThrowException@8
$LN115@Copy@2:
  00148	cc		 int	 3
_TEXT	ENDS
;	COMDAT text$x
text$x	SEGMENT
__ehhandler$?_Copy@?$basic_string@_WU?$char_traits@_W@std@@V?$allocator@_W@2@@std@@IAEXII@Z:
  00000	8b 54 24 08	 mov	 edx, DWORD PTR [esp+8]
  00004	8d 42 0c	 lea	 eax, DWORD PTR [edx+12]
  00007	8b 4a e4	 mov	 ecx, DWORD PTR [edx-28]
  0000a	33 c8		 xor	 ecx, eax
  0000c	e8 00 00 00 00	 call	 @__security_check_cookie@4
  00011	b8 00 00 00 00	 mov	 eax, OFFSET __ehfuncinfo$?_Copy@?$basic_string@_WU?$char_traits@_W@std@@V?$allocator@_W@2@@std@@IAEXII@Z
  00016	e9 00 00 00 00	 jmp	 ___CxxFrameHandler3
text$x	ENDS
?_Copy@?$basic_string@_WU?$char_traits@_W@std@@V?$allocator@_W@2@@std@@IAEXII@Z ENDP ; std::basic_string<wchar_t,std::char_traits<wchar_t>,std::allocator<wchar_t> >::_Copy
PUBLIC	??1?$basic_string@DU?$char_traits@D@std@@V?$allocator@D@2@@std@@QAE@XZ ; std::basic_string<char,std::char_traits<char>,std::allocator<char> >::~basic_string<char,std::char_traits<char>,std::allocator<char> >
; Function compile flags: /Ogtpy
;	COMDAT ??1?$basic_string@DU?$char_traits@D@std@@V?$allocator@D@2@@std@@QAE@XZ
_TEXT	SEGMENT
??1?$basic_string@DU?$char_traits@D@std@@V?$allocator@D@2@@std@@QAE@XZ PROC ; std::basic_string<char,std::char_traits<char>,std::allocator<char> >::~basic_string<char,std::char_traits<char>,std::allocator<char> >, COMDAT
; _this$ = ecx

; 905  : 		{	// destroy the string

  00000	56		 push	 esi
  00001	8b f1		 mov	 esi, ecx

; 906  : 		_Tidy(true);

  00003	83 7e 18 10	 cmp	 DWORD PTR [esi+24], 16	; 00000010H
  00007	72 0c		 jb	 SHORT $LN17@basic_stri
  00009	8b 46 04	 mov	 eax, DWORD PTR [esi+4]
  0000c	50		 push	 eax
  0000d	e8 00 00 00 00	 call	 ??3@YAXPAX@Z		; operator delete
  00012	83 c4 04	 add	 esp, 4
$LN17@basic_stri:
  00015	33 c0		 xor	 eax, eax
  00017	c7 46 18 0f 00
	00 00		 mov	 DWORD PTR [esi+24], 15	; 0000000fH
  0001e	89 46 14	 mov	 DWORD PTR [esi+20], eax
  00021	88 46 04	 mov	 BYTE PTR [esi+4], al
  00024	5e		 pop	 esi

; 907  : 		}

  00025	c3		 ret	 0
??1?$basic_string@DU?$char_traits@D@std@@V?$allocator@D@2@@std@@QAE@XZ ENDP ; std::basic_string<char,std::char_traits<char>,std::allocator<char> >::~basic_string<char,std::char_traits<char>,std::allocator<char> >
_TEXT	ENDS
PUBLIC	??1?$basic_string@_WU?$char_traits@_W@std@@V?$allocator@_W@2@@std@@QAE@XZ ; std::basic_string<wchar_t,std::char_traits<wchar_t>,std::allocator<wchar_t> >::~basic_string<wchar_t,std::char_traits<wchar_t>,std::allocator<wchar_t> >
; Function compile flags: /Ogtpy
;	COMDAT ??1?$basic_string@_WU?$char_traits@_W@std@@V?$allocator@_W@2@@std@@QAE@XZ
_TEXT	SEGMENT
??1?$basic_string@_WU?$char_traits@_W@std@@V?$allocator@_W@2@@std@@QAE@XZ PROC ; std::basic_string<wchar_t,std::char_traits<wchar_t>,std::allocator<wchar_t> >::~basic_string<wchar_t,std::char_traits<wchar_t>,std::allocator<wchar_t> >, COMDAT
; _this$ = ecx

; 905  : 		{	// destroy the string

  00000	56		 push	 esi
  00001	8b f1		 mov	 esi, ecx

; 906  : 		_Tidy(true);

  00003	83 7e 18 08	 cmp	 DWORD PTR [esi+24], 8
  00007	72 0c		 jb	 SHORT $LN19@basic_stri@2
  00009	8b 46 04	 mov	 eax, DWORD PTR [esi+4]
  0000c	50		 push	 eax
  0000d	e8 00 00 00 00	 call	 ??3@YAXPAX@Z		; operator delete
  00012	83 c4 04	 add	 esp, 4
$LN19@basic_stri@2:
  00015	c7 46 18 07 00
	00 00		 mov	 DWORD PTR [esi+24], 7
  0001c	c7 46 14 00 00
	00 00		 mov	 DWORD PTR [esi+20], 0
  00023	33 c9		 xor	 ecx, ecx
  00025	66 89 4e 04	 mov	 WORD PTR [esi+4], cx
  00029	5e		 pop	 esi

; 907  : 		}

  0002a	c3		 ret	 0
??1?$basic_string@_WU?$char_traits@_W@std@@V?$allocator@_W@2@@std@@QAE@XZ ENDP ; std::basic_string<wchar_t,std::char_traits<wchar_t>,std::allocator<wchar_t> >::~basic_string<wchar_t,std::char_traits<wchar_t>,std::allocator<wchar_t> >
_TEXT	ENDS
PUBLIC	?_Grow@?$basic_string@DU?$char_traits@D@std@@V?$allocator@D@2@@std@@IAE_NI_N@Z ; std::basic_string<char,std::char_traits<char>,std::allocator<char> >::_Grow
EXTRN	?_Xlen@_String_base@std@@SAXXZ:PROC		; std::_String_base::_Xlen
; Function compile flags: /Ogtpy
;	COMDAT ?_Grow@?$basic_string@DU?$char_traits@D@std@@V?$allocator@D@2@@std@@IAE_NI_N@Z
_TEXT	SEGMENT
__Newsize$ = 8						; size = 4
__Trim$ = 12						; size = 1
?_Grow@?$basic_string@DU?$char_traits@D@std@@V?$allocator@D@2@@std@@IAE_NI_N@Z PROC ; std::basic_string<char,std::char_traits<char>,std::allocator<char> >::_Grow, COMDAT
; _this$ = ecx

; 2119 : 		{	// ensure buffer is big enough, trim to size if _Trim is true

  00000	53		 push	 ebx

; 2120 : 			if (max_size() < _Newsize)

  00001	8b 5c 24 08	 mov	 ebx, DWORD PTR __Newsize$[esp]
  00005	56		 push	 esi
  00006	8b f1		 mov	 esi, ecx
  00008	83 fb fe	 cmp	 ebx, -2			; fffffffeH
  0000b	76 05		 jbe	 SHORT $LN6@Grow

; 2121 : 			_String_base::_Xlen();	// result too long

  0000d	e8 00 00 00 00	 call	 ?_Xlen@_String_base@std@@SAXXZ ; std::_String_base::_Xlen
$LN6@Grow:

; 2122 : 		if (_Myres < _Newsize)

  00012	8b 46 18	 mov	 eax, DWORD PTR [esi+24]
  00015	3b c3		 cmp	 eax, ebx
  00017	73 19		 jae	 SHORT $LN5@Grow

; 2123 : 			_Copy(_Newsize, _Mysize);	// reallocate to grow

  00019	8b 46 14	 mov	 eax, DWORD PTR [esi+20]
  0001c	50		 push	 eax
  0001d	53		 push	 ebx
  0001e	8b ce		 mov	 ecx, esi
  00020	e8 00 00 00 00	 call	 ?_Copy@?$basic_string@DU?$char_traits@D@std@@V?$allocator@D@2@@std@@IAEXII@Z ; std::basic_string<char,std::char_traits<char>,std::allocator<char> >::_Copy

; 2129 : 		return (0 < _Newsize);	// return true only if more work to do

  00025	33 c9		 xor	 ecx, ecx
  00027	3b cb		 cmp	 ecx, ebx
  00029	1b c0		 sbb	 eax, eax
  0002b	5e		 pop	 esi
  0002c	f7 d8		 neg	 eax
  0002e	5b		 pop	 ebx

; 2130 : 		}

  0002f	c2 08 00	 ret	 8
$LN5@Grow:

; 2124 : 		else if (_Trim && _Newsize < _BUF_SIZE)

  00032	80 7c 24 10 00	 cmp	 BYTE PTR __Trim$[esp+4], 0
  00037	74 52		 je	 SHORT $LN3@Grow
  00039	83 fb 10	 cmp	 ebx, 16			; 00000010H
  0003c	73 4d		 jae	 SHORT $LN3@Grow
  0003e	57		 push	 edi

; 2125 : 			_Tidy(true,	// copy and deallocate if trimming to small string
; 2126 : 				_Newsize < _Mysize ? _Newsize : _Mysize);

  0003f	8b 7e 14	 mov	 edi, DWORD PTR [esi+20]
  00042	3b df		 cmp	 ebx, edi
  00044	73 02		 jae	 SHORT $LN9@Grow
  00046	8b fb		 mov	 edi, ebx
$LN9@Grow:
  00048	83 f8 10	 cmp	 eax, 16			; 00000010H
  0004b	72 21		 jb	 SHORT $LN33@Grow
  0004d	8d 46 04	 lea	 eax, DWORD PTR [esi+4]
  00050	55		 push	 ebp
  00051	8b 28		 mov	 ebp, DWORD PTR [eax]
  00053	85 ff		 test	 edi, edi
  00055	76 0d		 jbe	 SHORT $LN31@Grow
  00057	57		 push	 edi
  00058	55		 push	 ebp
  00059	6a 10		 push	 16			; 00000010H
  0005b	50		 push	 eax
  0005c	e8 00 00 00 00	 call	 _memcpy_s
  00061	83 c4 10	 add	 esp, 16			; 00000010H
$LN31@Grow:
  00064	55		 push	 ebp
  00065	e8 00 00 00 00	 call	 ??3@YAXPAX@Z		; operator delete
  0006a	83 c4 04	 add	 esp, 4
  0006d	5d		 pop	 ebp
$LN33@Grow:
  0006e	89 7e 14	 mov	 DWORD PTR [esi+20], edi
  00071	c7 46 18 0f 00
	00 00		 mov	 DWORD PTR [esi+24], 15	; 0000000fH

; 2129 : 		return (0 < _Newsize);	// return true only if more work to do

  00078	33 c9		 xor	 ecx, ecx
  0007a	c6 44 3e 04 00	 mov	 BYTE PTR [esi+edi+4], 0
  0007f	3b cb		 cmp	 ecx, ebx
  00081	5f		 pop	 edi
  00082	1b c0		 sbb	 eax, eax
  00084	5e		 pop	 esi
  00085	f7 d8		 neg	 eax
  00087	5b		 pop	 ebx

; 2130 : 		}

  00088	c2 08 00	 ret	 8
$LN3@Grow:

; 2127 : 		else if (_Newsize == 0)

  0008b	85 db		 test	 ebx, ebx
  0008d	75 20		 jne	 SHORT $LN49@Grow

; 2128 : 			_Eos(0);	// new size is zero, just null terminate

  0008f	89 5e 14	 mov	 DWORD PTR [esi+20], ebx
  00092	83 f8 10	 cmp	 eax, 16			; 00000010H
  00095	72 12		 jb	 SHORT $LN47@Grow
  00097	8b 76 04	 mov	 esi, DWORD PTR [esi+4]

; 2129 : 		return (0 < _Newsize);	// return true only if more work to do

  0009a	33 c9		 xor	 ecx, ecx
  0009c	3b cb		 cmp	 ecx, ebx
  0009e	88 1e		 mov	 BYTE PTR [esi], bl
  000a0	1b c0		 sbb	 eax, eax
  000a2	5e		 pop	 esi
  000a3	f7 d8		 neg	 eax
  000a5	5b		 pop	 ebx

; 2130 : 		}

  000a6	c2 08 00	 ret	 8

; 2128 : 			_Eos(0);	// new size is zero, just null terminate

$LN47@Grow:
  000a9	83 c6 04	 add	 esi, 4
  000ac	c6 06 00	 mov	 BYTE PTR [esi], 0
$LN49@Grow:

; 2129 : 		return (0 < _Newsize);	// return true only if more work to do

  000af	33 c9		 xor	 ecx, ecx
  000b1	3b cb		 cmp	 ecx, ebx
  000b3	1b c0		 sbb	 eax, eax
  000b5	5e		 pop	 esi
  000b6	f7 d8		 neg	 eax
  000b8	5b		 pop	 ebx

; 2130 : 		}

  000b9	c2 08 00	 ret	 8
?_Grow@?$basic_string@DU?$char_traits@D@std@@V?$allocator@D@2@@std@@IAE_NI_N@Z ENDP ; std::basic_string<char,std::char_traits<char>,std::allocator<char> >::_Grow
_TEXT	ENDS
PUBLIC	?_Grow@?$basic_string@_WU?$char_traits@_W@std@@V?$allocator@_W@2@@std@@IAE_NI_N@Z ; std::basic_string<wchar_t,std::char_traits<wchar_t>,std::allocator<wchar_t> >::_Grow
; Function compile flags: /Ogtpy
;	COMDAT ?_Grow@?$basic_string@_WU?$char_traits@_W@std@@V?$allocator@_W@2@@std@@IAE_NI_N@Z
_TEXT	SEGMENT
__Newsize$ = 8						; size = 4
__Trim$ = 12						; size = 1
?_Grow@?$basic_string@_WU?$char_traits@_W@std@@V?$allocator@_W@2@@std@@IAE_NI_N@Z PROC ; std::basic_string<wchar_t,std::char_traits<wchar_t>,std::allocator<wchar_t> >::_Grow, COMDAT
; _this$ = ecx

; 2119 : 		{	// ensure buffer is big enough, trim to size if _Trim is true

  00000	55		 push	 ebp

; 2120 : 			if (max_size() < _Newsize)

  00001	8b 6c 24 08	 mov	 ebp, DWORD PTR __Newsize$[esp]
  00005	56		 push	 esi
  00006	8b f1		 mov	 esi, ecx
  00008	81 fd fe ff ff
	7f		 cmp	 ebp, 2147483646		; 7ffffffeH
  0000e	76 05		 jbe	 SHORT $LN6@Grow@2

; 2121 : 			_String_base::_Xlen();	// result too long

  00010	e8 00 00 00 00	 call	 ?_Xlen@_String_base@std@@SAXXZ ; std::_String_base::_Xlen
$LN6@Grow@2:

; 2122 : 		if (_Myres < _Newsize)

  00015	8b 46 18	 mov	 eax, DWORD PTR [esi+24]
  00018	3b c5		 cmp	 eax, ebp
  0001a	73 19		 jae	 SHORT $LN5@Grow@2

; 2123 : 			_Copy(_Newsize, _Mysize);	// reallocate to grow

  0001c	8b 46 14	 mov	 eax, DWORD PTR [esi+20]
  0001f	50		 push	 eax
  00020	55		 push	 ebp
  00021	8b ce		 mov	 ecx, esi
  00023	e8 00 00 00 00	 call	 ?_Copy@?$basic_string@_WU?$char_traits@_W@std@@V?$allocator@_W@2@@std@@IAEXII@Z ; std::basic_string<wchar_t,std::char_traits<wchar_t>,std::allocator<wchar_t> >::_Copy

; 2129 : 		return (0 < _Newsize);	// return true only if more work to do

  00028	33 c9		 xor	 ecx, ecx
  0002a	3b cd		 cmp	 ecx, ebp
  0002c	1b c0		 sbb	 eax, eax
  0002e	5e		 pop	 esi
  0002f	f7 d8		 neg	 eax
  00031	5d		 pop	 ebp

; 2130 : 		}

  00032	c2 08 00	 ret	 8
$LN5@Grow@2:

; 2124 : 		else if (_Trim && _Newsize < _BUF_SIZE)

  00035	80 7c 24 10 00	 cmp	 BYTE PTR __Trim$[esp+4], 0
  0003a	74 57		 je	 SHORT $LN3@Grow@2
  0003c	83 fd 08	 cmp	 ebp, 8
  0003f	73 52		 jae	 SHORT $LN3@Grow@2
  00041	57		 push	 edi

; 2125 : 			_Tidy(true,	// copy and deallocate if trimming to small string
; 2126 : 				_Newsize < _Mysize ? _Newsize : _Mysize);

  00042	8b 7e 14	 mov	 edi, DWORD PTR [esi+20]
  00045	3b ef		 cmp	 ebp, edi
  00047	73 02		 jae	 SHORT $LN9@Grow@2
  00049	8b fd		 mov	 edi, ebp
$LN9@Grow@2:
  0004b	83 f8 08	 cmp	 eax, 8
  0004e	72 24		 jb	 SHORT $LN35@Grow@2
  00050	8d 46 04	 lea	 eax, DWORD PTR [esi+4]
  00053	53		 push	 ebx
  00054	8b 18		 mov	 ebx, DWORD PTR [eax]
  00056	85 ff		 test	 edi, edi
  00058	76 10		 jbe	 SHORT $LN33@Grow@2
  0005a	8d 0c 3f	 lea	 ecx, DWORD PTR [edi+edi]
  0005d	51		 push	 ecx
  0005e	53		 push	 ebx
  0005f	6a 10		 push	 16			; 00000010H
  00061	50		 push	 eax
  00062	e8 00 00 00 00	 call	 _memcpy_s
  00067	83 c4 10	 add	 esp, 16			; 00000010H
$LN33@Grow@2:
  0006a	53		 push	 ebx
  0006b	e8 00 00 00 00	 call	 ??3@YAXPAX@Z		; operator delete
  00070	83 c4 04	 add	 esp, 4
  00073	5b		 pop	 ebx
$LN35@Grow@2:
  00074	33 d2		 xor	 edx, edx
  00076	89 7e 14	 mov	 DWORD PTR [esi+20], edi
  00079	c7 46 18 07 00
	00 00		 mov	 DWORD PTR [esi+24], 7

; 2129 : 		return (0 < _Newsize);	// return true only if more work to do

  00080	33 c9		 xor	 ecx, ecx
  00082	66 89 54 7e 04	 mov	 WORD PTR [esi+edi*2+4], dx
  00087	3b cd		 cmp	 ecx, ebp
  00089	5f		 pop	 edi
  0008a	1b c0		 sbb	 eax, eax
  0008c	5e		 pop	 esi
  0008d	f7 d8		 neg	 eax
  0008f	5d		 pop	 ebp

; 2130 : 		}

  00090	c2 08 00	 ret	 8
$LN3@Grow@2:

; 2127 : 		else if (_Newsize == 0)

  00093	85 ed		 test	 ebp, ebp
  00095	75 25		 jne	 SHORT $LN51@Grow@2

; 2128 : 			_Eos(0);	// new size is zero, just null terminate

  00097	89 6e 14	 mov	 DWORD PTR [esi+20], ebp
  0009a	83 f8 08	 cmp	 eax, 8
  0009d	72 15		 jb	 SHORT $LN49@Grow@2
  0009f	8b 76 04	 mov	 esi, DWORD PTR [esi+4]
  000a2	33 c0		 xor	 eax, eax

; 2129 : 		return (0 < _Newsize);	// return true only if more work to do

  000a4	33 c9		 xor	 ecx, ecx
  000a6	3b cd		 cmp	 ecx, ebp
  000a8	66 89 06	 mov	 WORD PTR [esi], ax
  000ab	1b c0		 sbb	 eax, eax
  000ad	5e		 pop	 esi
  000ae	f7 d8		 neg	 eax
  000b0	5d		 pop	 ebp

; 2130 : 		}

  000b1	c2 08 00	 ret	 8

; 2128 : 			_Eos(0);	// new size is zero, just null terminate

$LN49@Grow@2:
  000b4	83 c6 04	 add	 esi, 4
  000b7	33 c0		 xor	 eax, eax
  000b9	66 89 06	 mov	 WORD PTR [esi], ax
$LN51@Grow@2:

; 2129 : 		return (0 < _Newsize);	// return true only if more work to do

  000bc	33 c9		 xor	 ecx, ecx
  000be	3b cd		 cmp	 ecx, ebp
  000c0	1b c0		 sbb	 eax, eax
  000c2	5e		 pop	 esi
  000c3	f7 d8		 neg	 eax
  000c5	5d		 pop	 ebp

; 2130 : 		}

  000c6	c2 08 00	 ret	 8
?_Grow@?$basic_string@_WU?$char_traits@_W@std@@V?$allocator@_W@2@@std@@IAE_NI_N@Z ENDP ; std::basic_string<wchar_t,std::char_traits<wchar_t>,std::allocator<wchar_t> >::_Grow
_TEXT	ENDS
PUBLIC	?append@?$basic_string@DU?$char_traits@D@std@@V?$allocator@D@2@@std@@QAEAAV12@ABV12@II@Z ; std::basic_string<char,std::char_traits<char>,std::allocator<char> >::append
; Function compile flags: /Ogtpy
;	COMDAT ?append@?$basic_string@DU?$char_traits@D@std@@V?$allocator@D@2@@std@@QAEAAV12@ABV12@II@Z
_TEXT	SEGMENT
__Right$ = 8						; size = 4
__Roff$ = 12						; size = 4
__Count$ = 16						; size = 4
?append@?$basic_string@DU?$char_traits@D@std@@V?$allocator@D@2@@std@@QAEAAV12@ABV12@II@Z PROC ; std::basic_string<char,std::char_traits<char>,std::allocator<char> >::append, COMDAT
; _this$ = ecx

; 951  : 		{	// append _Right [_Roff, _Roff + _Count)

  00000	53		 push	 ebx
  00001	55		 push	 ebp

; 952  : 		if (_Right.size() < _Roff)

  00002	8b 6c 24 0c	 mov	 ebp, DWORD PTR __Right$[esp+4]
  00006	56		 push	 esi
  00007	57		 push	 edi
  00008	8b 7c 24 18	 mov	 edi, DWORD PTR __Roff$[esp+12]
  0000c	8b f1		 mov	 esi, ecx
  0000e	39 7d 14	 cmp	 DWORD PTR [ebp+20], edi
  00011	73 05		 jae	 SHORT $LN5@append

; 953  : 			_String_base::_Xran();	// _Roff off end

  00013	e8 00 00 00 00	 call	 ?_Xran@_String_base@std@@SAXXZ ; std::_String_base::_Xran
$LN5@append:

; 954  : 		size_type _Num = _Right.size() - _Roff;

  00018	8b 45 14	 mov	 eax, DWORD PTR [ebp+20]

; 955  : 		if (_Num < _Count)

  0001b	8b 5c 24 1c	 mov	 ebx, DWORD PTR __Count$[esp+12]
  0001f	2b c7		 sub	 eax, edi
  00021	3b c3		 cmp	 eax, ebx
  00023	73 02		 jae	 SHORT $LN4@append

; 956  : 			_Count = _Num;	// trim _Count to size

  00025	8b d8		 mov	 ebx, eax
$LN4@append:

; 957  : 		if (npos - _Mysize <= _Count || _Mysize + _Count < _Mysize)

  00027	8b 46 14	 mov	 eax, DWORD PTR [esi+20]
  0002a	83 c9 ff	 or	 ecx, -1
  0002d	2b c8		 sub	 ecx, eax
  0002f	3b cb		 cmp	 ecx, ebx
  00031	76 07		 jbe	 SHORT $LN2@append
  00033	8d 14 18	 lea	 edx, DWORD PTR [eax+ebx]
  00036	3b d0		 cmp	 edx, eax
  00038	73 05		 jae	 SHORT $LN3@append
$LN2@append:

; 958  : 			_String_base::_Xlen();	// result too long

  0003a	e8 00 00 00 00	 call	 ?_Xlen@_String_base@std@@SAXXZ ; std::_String_base::_Xlen
$LN3@append:

; 959  : 
; 960  : 		if (0 < _Count && _Grow(_Num = _Mysize + _Count))

  0003f	85 db		 test	 ebx, ebx
  00041	0f 86 ab 00 00
	00		 jbe	 $LN87@append
  00047	8b 7e 14	 mov	 edi, DWORD PTR [esi+20]
  0004a	03 fb		 add	 edi, ebx
  0004c	83 ff fe	 cmp	 edi, -2			; fffffffeH
  0004f	76 05		 jbe	 SHORT $LN17@append
  00051	e8 00 00 00 00	 call	 ?_Xlen@_String_base@std@@SAXXZ ; std::_String_base::_Xlen
$LN17@append:
  00056	8b 46 18	 mov	 eax, DWORD PTR [esi+24]
  00059	3b c7		 cmp	 eax, edi
  0005b	73 1f		 jae	 SHORT $LN16@append
  0005d	8b 46 14	 mov	 eax, DWORD PTR [esi+20]
  00060	50		 push	 eax
  00061	57		 push	 edi
  00062	8b ce		 mov	 ecx, esi
  00064	e8 00 00 00 00	 call	 ?_Copy@?$basic_string@DU?$char_traits@D@std@@V?$allocator@D@2@@std@@IAEXII@Z ; std::basic_string<char,std::char_traits<char>,std::allocator<char> >::_Copy
  00069	85 ff		 test	 edi, edi
$LN88@append:
  0006b	0f 86 81 00 00
	00		 jbe	 $LN87@append

; 961  : 			{	// make room and append new stuff
; 962  : 			_Traits_helper::copy_s<_Traits>(_Myptr() + _Mysize, _Myres - _Mysize,
; 963  : 				_Right._Myptr() + _Roff, _Count);

  00071	83 7d 18 10	 cmp	 DWORD PTR [ebp+24], 16	; 00000010H
  00075	72 2f		 jb	 SHORT $LN64@append
  00077	8b 6d 04	 mov	 ebp, DWORD PTR [ebp+4]
  0007a	eb 2d		 jmp	 SHORT $LN65@append

; 959  : 
; 960  : 		if (0 < _Count && _Grow(_Num = _Mysize + _Count))

$LN16@append:
  0007c	85 ff		 test	 edi, edi
  0007e	75 eb		 jne	 SHORT $LN88@append
  00080	89 7e 14	 mov	 DWORD PTR [esi+20], edi
  00083	83 f8 10	 cmp	 eax, 16			; 00000010H
  00086	72 0f		 jb	 SHORT $LN58@append
  00088	8b 46 04	 mov	 eax, DWORD PTR [esi+4]
  0008b	5f		 pop	 edi
  0008c	c6 00 00	 mov	 BYTE PTR [eax], 0

; 965  : 			}
; 966  : 		return (*this);

  0008f	8b c6		 mov	 eax, esi
  00091	5e		 pop	 esi
  00092	5d		 pop	 ebp
  00093	5b		 pop	 ebx

; 967  : 		}

  00094	c2 0c 00	 ret	 12			; 0000000cH

; 959  : 
; 960  : 		if (0 < _Count && _Grow(_Num = _Mysize + _Count))

$LN58@append:
  00097	8d 46 04	 lea	 eax, DWORD PTR [esi+4]
  0009a	5f		 pop	 edi
  0009b	c6 00 00	 mov	 BYTE PTR [eax], 0

; 965  : 			}
; 966  : 		return (*this);

  0009e	8b c6		 mov	 eax, esi
  000a0	5e		 pop	 esi
  000a1	5d		 pop	 ebp
  000a2	5b		 pop	 ebx

; 967  : 		}

  000a3	c2 0c 00	 ret	 12			; 0000000cH

; 961  : 			{	// make room and append new stuff
; 962  : 			_Traits_helper::copy_s<_Traits>(_Myptr() + _Mysize, _Myres - _Mysize,
; 963  : 				_Right._Myptr() + _Roff, _Count);

$LN64@append:
  000a6	83 c5 04	 add	 ebp, 4
$LN65@append:
  000a9	8b 46 18	 mov	 eax, DWORD PTR [esi+24]
  000ac	83 f8 10	 cmp	 eax, 16			; 00000010H
  000af	72 05		 jb	 SHORT $LN68@append
  000b1	8b 56 04	 mov	 edx, DWORD PTR [esi+4]
  000b4	eb 03		 jmp	 SHORT $LN69@append
$LN68@append:
  000b6	8d 56 04	 lea	 edx, DWORD PTR [esi+4]
$LN69@append:
  000b9	8b 4e 14	 mov	 ecx, DWORD PTR [esi+20]
  000bc	53		 push	 ebx
  000bd	8b 5c 24 1c	 mov	 ebx, DWORD PTR __Roff$[esp+16]
  000c1	03 eb		 add	 ebp, ebx
  000c3	2b c1		 sub	 eax, ecx
  000c5	55		 push	 ebp
  000c6	50		 push	 eax
  000c7	03 ca		 add	 ecx, edx
  000c9	51		 push	 ecx
  000ca	e8 00 00 00 00	 call	 _memcpy_s
  000cf	83 c4 10	 add	 esp, 16			; 00000010H

; 964  : 			_Eos(_Num);

  000d2	83 7e 18 10	 cmp	 DWORD PTR [esi+24], 16	; 00000010H
  000d6	89 7e 14	 mov	 DWORD PTR [esi+20], edi
  000d9	72 10		 jb	 SHORT $LN82@append
  000db	8b 46 04	 mov	 eax, DWORD PTR [esi+4]
  000de	c6 04 38 00	 mov	 BYTE PTR [eax+edi], 0
  000e2	5f		 pop	 edi

; 965  : 			}
; 966  : 		return (*this);

  000e3	8b c6		 mov	 eax, esi
  000e5	5e		 pop	 esi
  000e6	5d		 pop	 ebp
  000e7	5b		 pop	 ebx

; 967  : 		}

  000e8	c2 0c 00	 ret	 12			; 0000000cH

; 964  : 			_Eos(_Num);

$LN82@append:
  000eb	8d 46 04	 lea	 eax, DWORD PTR [esi+4]
  000ee	c6 04 38 00	 mov	 BYTE PTR [eax+edi], 0
$LN87@append:
  000f2	5f		 pop	 edi

; 965  : 			}
; 966  : 		return (*this);

  000f3	8b c6		 mov	 eax, esi
  000f5	5e		 pop	 esi
  000f6	5d		 pop	 ebp
  000f7	5b		 pop	 ebx

; 967  : 		}

  000f8	c2 0c 00	 ret	 12			; 0000000cH
?append@?$basic_string@DU?$char_traits@D@std@@V?$allocator@D@2@@std@@QAEAAV12@ABV12@II@Z ENDP ; std::basic_string<char,std::char_traits<char>,std::allocator<char> >::append
_TEXT	ENDS
PUBLIC	?assign@?$basic_string@DU?$char_traits@D@std@@V?$allocator@D@2@@std@@QAEAAV12@ABV12@II@Z ; std::basic_string<char,std::char_traits<char>,std::allocator<char> >::assign
; Function compile flags: /Ogtpy
;	COMDAT ?assign@?$basic_string@DU?$char_traits@D@std@@V?$allocator@D@2@@std@@QAEAAV12@ABV12@II@Z
_TEXT	SEGMENT
__Right$ = 8						; size = 4
__Roff$ = 12						; size = 4
__Count$ = 16						; size = 4
?assign@?$basic_string@DU?$char_traits@D@std@@V?$allocator@D@2@@std@@QAEAAV12@ABV12@II@Z PROC ; std::basic_string<char,std::char_traits<char>,std::allocator<char> >::assign, COMDAT
; _this$ = ecx

; 1046 : 		{	// assign _Right [_Roff, _Roff + _Count)

  00000	53		 push	 ebx

; 1047 : 		if (_Right.size() < _Roff)

  00001	8b 5c 24 08	 mov	 ebx, DWORD PTR __Right$[esp]
  00005	55		 push	 ebp
  00006	8b 6c 24 10	 mov	 ebp, DWORD PTR __Roff$[esp+4]
  0000a	56		 push	 esi
  0000b	57		 push	 edi
  0000c	8b f1		 mov	 esi, ecx
  0000e	39 6b 14	 cmp	 DWORD PTR [ebx+20], ebp
  00011	73 05		 jae	 SHORT $LN5@assign

; 1048 : 			_String_base::_Xran();	// _Roff off end

  00013	e8 00 00 00 00	 call	 ?_Xran@_String_base@std@@SAXXZ ; std::_String_base::_Xran
$LN5@assign:

; 1049 : 		size_type _Num = _Right.size() - _Roff;

  00018	8b 7b 14	 mov	 edi, DWORD PTR [ebx+20]

; 1050 : 		if (_Count < _Num)

  0001b	8b 44 24 1c	 mov	 eax, DWORD PTR __Count$[esp+12]
  0001f	2b fd		 sub	 edi, ebp
  00021	3b c7		 cmp	 eax, edi
  00023	73 02		 jae	 SHORT $LN4@assign

; 1051 : 			_Num = _Count;	// trim _Num to size

  00025	8b f8		 mov	 edi, eax
$LN4@assign:

; 1052 : 
; 1053 : 		if (this == &_Right)

  00027	3b f3		 cmp	 esi, ebx
  00029	75 1f		 jne	 SHORT $LN3@assign

; 1054 : 			erase((size_type)(_Roff + _Num)), erase(0, _Roff);	// substring

  0002b	6a ff		 push	 -1
  0002d	03 fd		 add	 edi, ebp
  0002f	57		 push	 edi
  00030	8b ce		 mov	 ecx, esi
  00032	e8 00 00 00 00	 call	 ?erase@?$basic_string@DU?$char_traits@D@std@@V?$allocator@D@2@@std@@QAEAAV12@II@Z ; std::basic_string<char,std::char_traits<char>,std::allocator<char> >::erase
  00037	55		 push	 ebp
  00038	6a 00		 push	 0
  0003a	8b ce		 mov	 ecx, esi
  0003c	e8 00 00 00 00	 call	 ?erase@?$basic_string@DU?$char_traits@D@std@@V?$allocator@D@2@@std@@QAEAAV12@II@Z ; std::basic_string<char,std::char_traits<char>,std::allocator<char> >::erase
  00041	5f		 pop	 edi

; 1059 : 			}
; 1060 : 		return (*this);

  00042	8b c6		 mov	 eax, esi
  00044	5e		 pop	 esi
  00045	5d		 pop	 ebp
  00046	5b		 pop	 ebx

; 1061 : 		}

  00047	c2 0c 00	 ret	 12			; 0000000cH
$LN3@assign:

; 1055 : 		else if (_Grow(_Num))

  0004a	83 ff fe	 cmp	 edi, -2			; fffffffeH
  0004d	76 05		 jbe	 SHORT $LN17@assign
  0004f	e8 00 00 00 00	 call	 ?_Xlen@_String_base@std@@SAXXZ ; std::_String_base::_Xlen
$LN17@assign:
  00054	8b 46 18	 mov	 eax, DWORD PTR [esi+24]
  00057	3b c7		 cmp	 eax, edi
  00059	73 1b		 jae	 SHORT $LN16@assign
  0005b	8b 46 14	 mov	 eax, DWORD PTR [esi+20]
  0005e	50		 push	 eax
  0005f	57		 push	 edi
  00060	8b ce		 mov	 ecx, esi
  00062	e8 00 00 00 00	 call	 ?_Copy@?$basic_string@DU?$char_traits@D@std@@V?$allocator@D@2@@std@@IAEXII@Z ; std::basic_string<char,std::char_traits<char>,std::allocator<char> >::_Copy
  00067	85 ff		 test	 edi, edi
$LN87@assign:
  00069	76 66		 jbe	 SHORT $LN86@assign

; 1056 : 			{	// make room and assign new stuff
; 1057 : 			_Traits_helper::copy_s<_Traits>(_Myptr(), _Myres, _Right._Myptr() + _Roff, _Num);

  0006b	83 7b 18 10	 cmp	 DWORD PTR [ebx+24], 16	; 00000010H
  0006f	72 2f		 jb	 SHORT $LN64@assign
  00071	8b 53 04	 mov	 edx, DWORD PTR [ebx+4]
  00074	eb 2d		 jmp	 SHORT $LN65@assign

; 1055 : 		else if (_Grow(_Num))

$LN16@assign:
  00076	85 ff		 test	 edi, edi
  00078	75 ef		 jne	 SHORT $LN87@assign
  0007a	89 7e 14	 mov	 DWORD PTR [esi+20], edi
  0007d	83 f8 10	 cmp	 eax, 16			; 00000010H
  00080	72 0f		 jb	 SHORT $LN58@assign
  00082	8b 46 04	 mov	 eax, DWORD PTR [esi+4]
  00085	5f		 pop	 edi
  00086	c6 00 00	 mov	 BYTE PTR [eax], 0

; 1059 : 			}
; 1060 : 		return (*this);

  00089	8b c6		 mov	 eax, esi
  0008b	5e		 pop	 esi
  0008c	5d		 pop	 ebp
  0008d	5b		 pop	 ebx

; 1061 : 		}

  0008e	c2 0c 00	 ret	 12			; 0000000cH

; 1055 : 		else if (_Grow(_Num))

$LN58@assign:
  00091	8d 46 04	 lea	 eax, DWORD PTR [esi+4]
  00094	5f		 pop	 edi
  00095	c6 00 00	 mov	 BYTE PTR [eax], 0

; 1059 : 			}
; 1060 : 		return (*this);

  00098	8b c6		 mov	 eax, esi
  0009a	5e		 pop	 esi
  0009b	5d		 pop	 ebp
  0009c	5b		 pop	 ebx

; 1061 : 		}

  0009d	c2 0c 00	 ret	 12			; 0000000cH

; 1056 : 			{	// make room and assign new stuff
; 1057 : 			_Traits_helper::copy_s<_Traits>(_Myptr(), _Myres, _Right._Myptr() + _Roff, _Num);

$LN64@assign:
  000a0	8d 53 04	 lea	 edx, DWORD PTR [ebx+4]
$LN65@assign:
  000a3	8b 4e 18	 mov	 ecx, DWORD PTR [esi+24]
  000a6	8d 5e 04	 lea	 ebx, DWORD PTR [esi+4]
  000a9	83 f9 10	 cmp	 ecx, 16			; 00000010H
  000ac	72 04		 jb	 SHORT $LN68@assign
  000ae	8b 03		 mov	 eax, DWORD PTR [ebx]
  000b0	eb 02		 jmp	 SHORT $LN69@assign
$LN68@assign:
  000b2	8b c3		 mov	 eax, ebx
$LN69@assign:
  000b4	57		 push	 edi
  000b5	03 d5		 add	 edx, ebp
  000b7	52		 push	 edx
  000b8	51		 push	 ecx
  000b9	50		 push	 eax
  000ba	e8 00 00 00 00	 call	 _memcpy_s
  000bf	83 c4 10	 add	 esp, 16			; 00000010H

; 1058 : 			_Eos(_Num);

  000c2	83 7e 18 10	 cmp	 DWORD PTR [esi+24], 16	; 00000010H
  000c6	89 7e 14	 mov	 DWORD PTR [esi+20], edi
  000c9	72 02		 jb	 SHORT $LN82@assign
  000cb	8b 1b		 mov	 ebx, DWORD PTR [ebx]
$LN82@assign:
  000cd	c6 04 3b 00	 mov	 BYTE PTR [ebx+edi], 0
$LN86@assign:
  000d1	5f		 pop	 edi

; 1059 : 			}
; 1060 : 		return (*this);

  000d2	8b c6		 mov	 eax, esi
  000d4	5e		 pop	 esi
  000d5	5d		 pop	 ebp
  000d6	5b		 pop	 ebx

; 1061 : 		}

  000d7	c2 0c 00	 ret	 12			; 0000000cH
?assign@?$basic_string@DU?$char_traits@D@std@@V?$allocator@D@2@@std@@QAEAAV12@ABV12@II@Z ENDP ; std::basic_string<char,std::char_traits<char>,std::allocator<char> >::assign
_TEXT	ENDS
PUBLIC	?assign@?$basic_string@DU?$char_traits@D@std@@V?$allocator@D@2@@std@@QAEAAV12@PBDI@Z ; std::basic_string<char,std::char_traits<char>,std::allocator<char> >::assign
; Function compile flags: /Ogtpy
;	COMDAT ?assign@?$basic_string@DU?$char_traits@D@std@@V?$allocator@D@2@@std@@QAEAAV12@PBDI@Z
_TEXT	SEGMENT
__Ptr$ = 8						; size = 4
__Count$ = 12						; size = 4
?assign@?$basic_string@DU?$char_traits@D@std@@V?$allocator@D@2@@std@@QAEAAV12@PBDI@Z PROC ; std::basic_string<char,std::char_traits<char>,std::allocator<char> >::assign, COMDAT
; _this$ = ecx

; 1064 : 		{	// assign [_Ptr, _Ptr + _Count)

  00000	55		 push	 ebp

; 1065 : 
; 1066 :  #if _HAS_ITERATOR_DEBUGGING
; 1067 : 		if (_Count != 0)
; 1068 : 			_DEBUG_POINTER(_Ptr);
; 1069 :  #endif /* _HAS_ITERATOR_DEBUGGING */
; 1070 : 
; 1071 : 		if (_Inside(_Ptr))

  00001	8b 6c 24 08	 mov	 ebp, DWORD PTR __Ptr$[esp]
  00005	56		 push	 esi
  00006	57		 push	 edi
  00007	8b f1		 mov	 esi, ecx
  00009	85 ed		 test	 ebp, ebp
  0000b	74 46		 je	 SHORT $LN93@assign@2
  0000d	8b 56 18	 mov	 edx, DWORD PTR [esi+24]
  00010	8d 46 04	 lea	 eax, DWORD PTR [esi+4]
  00013	83 fa 10	 cmp	 edx, 16			; 00000010H
  00016	72 04		 jb	 SHORT $LN12@assign@2
  00018	8b 08		 mov	 ecx, DWORD PTR [eax]
  0001a	eb 02		 jmp	 SHORT $LN13@assign@2
$LN12@assign@2:
  0001c	8b c8		 mov	 ecx, eax
$LN13@assign@2:
  0001e	3b e9		 cmp	 ebp, ecx
  00020	72 31		 jb	 SHORT $LN93@assign@2
  00022	83 fa 10	 cmp	 edx, 16			; 00000010H
  00025	72 04		 jb	 SHORT $LN16@assign@2
  00027	8b 08		 mov	 ecx, DWORD PTR [eax]
  00029	eb 02		 jmp	 SHORT $LN17@assign@2
$LN16@assign@2:
  0002b	8b c8		 mov	 ecx, eax
$LN17@assign@2:
  0002d	8b 7e 14	 mov	 edi, DWORD PTR [esi+20]
  00030	03 f9		 add	 edi, ecx
  00032	3b fd		 cmp	 edi, ebp
  00034	76 1d		 jbe	 SHORT $LN93@assign@2

; 1072 : 			return (assign(*this, _Ptr - _Myptr(), _Count));	// substring

  00036	83 fa 10	 cmp	 edx, 16			; 00000010H
  00039	72 02		 jb	 SHORT $LN20@assign@2
  0003b	8b 00		 mov	 eax, DWORD PTR [eax]
$LN20@assign@2:
  0003d	8b 4c 24 14	 mov	 ecx, DWORD PTR __Count$[esp+8]
  00041	51		 push	 ecx
  00042	2b e8		 sub	 ebp, eax
  00044	55		 push	 ebp
  00045	56		 push	 esi
  00046	8b ce		 mov	 ecx, esi
  00048	e8 00 00 00 00	 call	 ?assign@?$basic_string@DU?$char_traits@D@std@@V?$allocator@D@2@@std@@QAEAAV12@ABV12@II@Z ; std::basic_string<char,std::char_traits<char>,std::allocator<char> >::assign
  0004d	5f		 pop	 edi
  0004e	5e		 pop	 esi
  0004f	5d		 pop	 ebp

; 1080 : 		}

  00050	c2 08 00	 ret	 8
$LN93@assign@2:

; 1073 : 
; 1074 : 		if (_Grow(_Count))

  00053	8b 7c 24 14	 mov	 edi, DWORD PTR __Count$[esp+8]
  00057	83 ff fe	 cmp	 edi, -2			; fffffffeH
  0005a	76 05		 jbe	 SHORT $LN27@assign@2
  0005c	e8 00 00 00 00	 call	 ?_Xlen@_String_base@std@@SAXXZ ; std::_String_base::_Xlen
$LN27@assign@2:
  00061	8b 46 18	 mov	 eax, DWORD PTR [esi+24]
  00064	3b c7		 cmp	 eax, edi
  00066	73 20		 jae	 SHORT $LN26@assign@2
  00068	8b 56 14	 mov	 edx, DWORD PTR [esi+20]
  0006b	52		 push	 edx
  0006c	57		 push	 edi
  0006d	8b ce		 mov	 ecx, esi
  0006f	e8 00 00 00 00	 call	 ?_Copy@?$basic_string@DU?$char_traits@D@std@@V?$allocator@D@2@@std@@IAEXII@Z ; std::basic_string<char,std::char_traits<char>,std::allocator<char> >::_Copy
  00074	85 ff		 test	 edi, edi
$LN94@assign@2:
  00076	76 56		 jbe	 SHORT $LN90@assign@2

; 1075 : 			{	// make room and assign new stuff
; 1076 : 			_Traits_helper::copy_s<_Traits>(_Myptr(), _Myres, _Ptr, _Count);

  00078	8b 4e 18	 mov	 ecx, DWORD PTR [esi+24]
  0007b	53		 push	 ebx
  0007c	8d 5e 04	 lea	 ebx, DWORD PTR [esi+4]
  0007f	83 f9 10	 cmp	 ecx, 16			; 00000010H
  00082	72 2c		 jb	 SHORT $LN74@assign@2
  00084	8b 03		 mov	 eax, DWORD PTR [ebx]
  00086	eb 2a		 jmp	 SHORT $LN75@assign@2

; 1073 : 
; 1074 : 		if (_Grow(_Count))

$LN26@assign@2:
  00088	85 ff		 test	 edi, edi
  0008a	75 ea		 jne	 SHORT $LN94@assign@2
  0008c	89 7e 14	 mov	 DWORD PTR [esi+20], edi
  0008f	83 f8 10	 cmp	 eax, 16			; 00000010H
  00092	72 0e		 jb	 SHORT $LN68@assign@2
  00094	8b 46 04	 mov	 eax, DWORD PTR [esi+4]
  00097	5f		 pop	 edi
  00098	c6 00 00	 mov	 BYTE PTR [eax], 0

; 1078 : 			}
; 1079 : 		return (*this);

  0009b	8b c6		 mov	 eax, esi
  0009d	5e		 pop	 esi
  0009e	5d		 pop	 ebp

; 1080 : 		}

  0009f	c2 08 00	 ret	 8

; 1073 : 
; 1074 : 		if (_Grow(_Count))

$LN68@assign@2:
  000a2	8d 46 04	 lea	 eax, DWORD PTR [esi+4]
  000a5	5f		 pop	 edi
  000a6	c6 00 00	 mov	 BYTE PTR [eax], 0

; 1078 : 			}
; 1079 : 		return (*this);

  000a9	8b c6		 mov	 eax, esi
  000ab	5e		 pop	 esi
  000ac	5d		 pop	 ebp

; 1080 : 		}

  000ad	c2 08 00	 ret	 8

; 1075 : 			{	// make room and assign new stuff
; 1076 : 			_Traits_helper::copy_s<_Traits>(_Myptr(), _Myres, _Ptr, _Count);

$LN74@assign@2:
  000b0	8b c3		 mov	 eax, ebx
$LN75@assign@2:
  000b2	57		 push	 edi
  000b3	55		 push	 ebp
  000b4	51		 push	 ecx
  000b5	50		 push	 eax
  000b6	e8 00 00 00 00	 call	 _memcpy_s
  000bb	83 c4 10	 add	 esp, 16			; 00000010H

; 1077 : 			_Eos(_Count);

  000be	83 7e 18 10	 cmp	 DWORD PTR [esi+24], 16	; 00000010H
  000c2	89 7e 14	 mov	 DWORD PTR [esi+20], edi
  000c5	72 02		 jb	 SHORT $LN88@assign@2
  000c7	8b 1b		 mov	 ebx, DWORD PTR [ebx]
$LN88@assign@2:
  000c9	c6 04 3b 00	 mov	 BYTE PTR [ebx+edi], 0
  000cd	5b		 pop	 ebx
$LN90@assign@2:
  000ce	5f		 pop	 edi

; 1078 : 			}
; 1079 : 		return (*this);

  000cf	8b c6		 mov	 eax, esi
  000d1	5e		 pop	 esi
  000d2	5d		 pop	 ebp

; 1080 : 		}

  000d3	c2 08 00	 ret	 8
?assign@?$basic_string@DU?$char_traits@D@std@@V?$allocator@D@2@@std@@QAEAAV12@PBDI@Z ENDP ; std::basic_string<char,std::char_traits<char>,std::allocator<char> >::assign
_TEXT	ENDS
PUBLIC	?assign@?$basic_string@_WU?$char_traits@_W@std@@V?$allocator@_W@2@@std@@QAEAAV12@ABV12@II@Z ; std::basic_string<wchar_t,std::char_traits<wchar_t>,std::allocator<wchar_t> >::assign
; Function compile flags: /Ogtpy
;	COMDAT ?assign@?$basic_string@_WU?$char_traits@_W@std@@V?$allocator@_W@2@@std@@QAEAAV12@ABV12@II@Z
_TEXT	SEGMENT
__Right$ = 8						; size = 4
__Roff$ = 12						; size = 4
__Count$ = 16						; size = 4
?assign@?$basic_string@_WU?$char_traits@_W@std@@V?$allocator@_W@2@@std@@QAEAAV12@ABV12@II@Z PROC ; std::basic_string<wchar_t,std::char_traits<wchar_t>,std::allocator<wchar_t> >::assign, COMDAT
; _this$ = ecx

; 1046 : 		{	// assign _Right [_Roff, _Roff + _Count)

  00000	53		 push	 ebx

; 1047 : 		if (_Right.size() < _Roff)

  00001	8b 5c 24 0c	 mov	 ebx, DWORD PTR __Roff$[esp]
  00005	55		 push	 ebp
  00006	8b 6c 24 0c	 mov	 ebp, DWORD PTR __Right$[esp+4]
  0000a	56		 push	 esi
  0000b	57		 push	 edi
  0000c	8b f1		 mov	 esi, ecx
  0000e	39 5d 14	 cmp	 DWORD PTR [ebp+20], ebx
  00011	73 05		 jae	 SHORT $LN5@assign@3

; 1048 : 			_String_base::_Xran();	// _Roff off end

  00013	e8 00 00 00 00	 call	 ?_Xran@_String_base@std@@SAXXZ ; std::_String_base::_Xran
$LN5@assign@3:

; 1049 : 		size_type _Num = _Right.size() - _Roff;

  00018	8b 7d 14	 mov	 edi, DWORD PTR [ebp+20]

; 1050 : 		if (_Count < _Num)

  0001b	8b 44 24 1c	 mov	 eax, DWORD PTR __Count$[esp+12]
  0001f	2b fb		 sub	 edi, ebx
  00021	3b c7		 cmp	 eax, edi
  00023	73 02		 jae	 SHORT $LN4@assign@3

; 1051 : 			_Num = _Count;	// trim _Num to size

  00025	8b f8		 mov	 edi, eax
$LN4@assign@3:

; 1052 : 
; 1053 : 		if (this == &_Right)

  00027	3b f5		 cmp	 esi, ebp
  00029	75 1f		 jne	 SHORT $LN3@assign@3

; 1054 : 			erase((size_type)(_Roff + _Num)), erase(0, _Roff);	// substring

  0002b	6a ff		 push	 -1
  0002d	03 fb		 add	 edi, ebx
  0002f	57		 push	 edi
  00030	8b ce		 mov	 ecx, esi
  00032	e8 00 00 00 00	 call	 ?erase@?$basic_string@_WU?$char_traits@_W@std@@V?$allocator@_W@2@@std@@QAEAAV12@II@Z ; std::basic_string<wchar_t,std::char_traits<wchar_t>,std::allocator<wchar_t> >::erase
  00037	53		 push	 ebx
  00038	6a 00		 push	 0
  0003a	8b ce		 mov	 ecx, esi
  0003c	e8 00 00 00 00	 call	 ?erase@?$basic_string@_WU?$char_traits@_W@std@@V?$allocator@_W@2@@std@@QAEAAV12@II@Z ; std::basic_string<wchar_t,std::char_traits<wchar_t>,std::allocator<wchar_t> >::erase
  00041	5f		 pop	 edi

; 1059 : 			}
; 1060 : 		return (*this);

  00042	8b c6		 mov	 eax, esi
  00044	5e		 pop	 esi
  00045	5d		 pop	 ebp
  00046	5b		 pop	 ebx

; 1061 : 		}

  00047	c2 0c 00	 ret	 12			; 0000000cH
$LN3@assign@3:

; 1055 : 		else if (_Grow(_Num))

  0004a	81 ff fe ff ff
	7f		 cmp	 edi, 2147483646		; 7ffffffeH
  00050	76 05		 jbe	 SHORT $LN17@assign@3
  00052	e8 00 00 00 00	 call	 ?_Xlen@_String_base@std@@SAXXZ ; std::_String_base::_Xlen
$LN17@assign@3:
  00057	8b 46 18	 mov	 eax, DWORD PTR [esi+24]
  0005a	3b c7		 cmp	 eax, edi
  0005c	73 1b		 jae	 SHORT $LN16@assign@3
  0005e	8b 46 14	 mov	 eax, DWORD PTR [esi+20]
  00061	50		 push	 eax
  00062	57		 push	 edi
  00063	8b ce		 mov	 ecx, esi
  00065	e8 00 00 00 00	 call	 ?_Copy@?$basic_string@_WU?$char_traits@_W@std@@V?$allocator@_W@2@@std@@IAEXII@Z ; std::basic_string<wchar_t,std::char_traits<wchar_t>,std::allocator<wchar_t> >::_Copy
  0006a	85 ff		 test	 edi, edi
$LN91@assign@3:
  0006c	76 7a		 jbe	 SHORT $LN90@assign@3

; 1056 : 			{	// make room and assign new stuff
; 1057 : 			_Traits_helper::copy_s<_Traits>(_Myptr(), _Myres, _Right._Myptr() + _Roff, _Num);

  0006e	83 7d 18 08	 cmp	 DWORD PTR [ebp+24], 8
  00072	72 33		 jb	 SHORT $LN66@assign@3
  00074	8b 4d 04	 mov	 ecx, DWORD PTR [ebp+4]
  00077	eb 31		 jmp	 SHORT $LN67@assign@3

; 1055 : 		else if (_Grow(_Num))

$LN16@assign@3:
  00079	85 ff		 test	 edi, edi
  0007b	75 ef		 jne	 SHORT $LN91@assign@3
  0007d	89 7e 14	 mov	 DWORD PTR [esi+20], edi
  00080	83 f8 08	 cmp	 eax, 8
  00083	72 11		 jb	 SHORT $LN60@assign@3
  00085	8b 46 04	 mov	 eax, DWORD PTR [esi+4]
  00088	33 c9		 xor	 ecx, ecx
  0008a	5f		 pop	 edi
  0008b	66 89 08	 mov	 WORD PTR [eax], cx

; 1059 : 			}
; 1060 : 		return (*this);

  0008e	8b c6		 mov	 eax, esi
  00090	5e		 pop	 esi
  00091	5d		 pop	 ebp
  00092	5b		 pop	 ebx

; 1061 : 		}

  00093	c2 0c 00	 ret	 12			; 0000000cH

; 1055 : 		else if (_Grow(_Num))

$LN60@assign@3:
  00096	8d 46 04	 lea	 eax, DWORD PTR [esi+4]
  00099	33 c9		 xor	 ecx, ecx
  0009b	5f		 pop	 edi
  0009c	66 89 08	 mov	 WORD PTR [eax], cx

; 1059 : 			}
; 1060 : 		return (*this);

  0009f	8b c6		 mov	 eax, esi
  000a1	5e		 pop	 esi
  000a2	5d		 pop	 ebp
  000a3	5b		 pop	 ebx

; 1061 : 		}

  000a4	c2 0c 00	 ret	 12			; 0000000cH

; 1056 : 			{	// make room and assign new stuff
; 1057 : 			_Traits_helper::copy_s<_Traits>(_Myptr(), _Myres, _Right._Myptr() + _Roff, _Num);

$LN66@assign@3:
  000a7	8d 4d 04	 lea	 ecx, DWORD PTR [ebp+4]
$LN67@assign@3:
  000aa	83 7e 18 08	 cmp	 DWORD PTR [esi+24], 8
  000ae	8d 6e 04	 lea	 ebp, DWORD PTR [esi+4]
  000b1	72 05		 jb	 SHORT $LN70@assign@3
  000b3	8b 45 00	 mov	 eax, DWORD PTR [ebp]
  000b6	eb 02		 jmp	 SHORT $LN71@assign@3
$LN70@assign@3:
  000b8	8b c5		 mov	 eax, ebp
$LN71@assign@3:
  000ba	8b 54 24 18	 mov	 edx, DWORD PTR __Roff$[esp+12]
  000be	8d 0c 51	 lea	 ecx, DWORD PTR [ecx+edx*2]
  000c1	8d 1c 3f	 lea	 ebx, DWORD PTR [edi+edi]
  000c4	53		 push	 ebx
  000c5	51		 push	 ecx
  000c6	8b 4e 18	 mov	 ecx, DWORD PTR [esi+24]
  000c9	8d 14 09	 lea	 edx, DWORD PTR [ecx+ecx]
  000cc	52		 push	 edx
  000cd	50		 push	 eax
  000ce	e8 00 00 00 00	 call	 _memcpy_s
  000d3	83 c4 10	 add	 esp, 16			; 00000010H

; 1058 : 			_Eos(_Num);

  000d6	83 7e 18 08	 cmp	 DWORD PTR [esi+24], 8
  000da	89 7e 14	 mov	 DWORD PTR [esi+20], edi
  000dd	72 03		 jb	 SHORT $LN86@assign@3
  000df	8b 6d 00	 mov	 ebp, DWORD PTR [ebp]
$LN86@assign@3:
  000e2	33 c0		 xor	 eax, eax
  000e4	66 89 04 2b	 mov	 WORD PTR [ebx+ebp], ax
$LN90@assign@3:
  000e8	5f		 pop	 edi

; 1059 : 			}
; 1060 : 		return (*this);

  000e9	8b c6		 mov	 eax, esi
  000eb	5e		 pop	 esi
  000ec	5d		 pop	 ebp
  000ed	5b		 pop	 ebx

; 1061 : 		}

  000ee	c2 0c 00	 ret	 12			; 0000000cH
?assign@?$basic_string@_WU?$char_traits@_W@std@@V?$allocator@_W@2@@std@@QAEAAV12@ABV12@II@Z ENDP ; std::basic_string<wchar_t,std::char_traits<wchar_t>,std::allocator<wchar_t> >::assign
_TEXT	ENDS
PUBLIC	?append@?$basic_string@DU?$char_traits@D@std@@V?$allocator@D@2@@std@@QAEAAV12@PBDI@Z ; std::basic_string<char,std::char_traits<char>,std::allocator<char> >::append
; Function compile flags: /Ogtpy
;	COMDAT ?append@?$basic_string@DU?$char_traits@D@std@@V?$allocator@D@2@@std@@QAEAAV12@PBDI@Z
_TEXT	SEGMENT
__Ptr$ = 8						; size = 4
__Count$ = 12						; size = 4
?append@?$basic_string@DU?$char_traits@D@std@@V?$allocator@D@2@@std@@QAEAAV12@PBDI@Z PROC ; std::basic_string<char,std::char_traits<char>,std::allocator<char> >::append, COMDAT
; _this$ = ecx

; 971  : 
; 972  :  #if _HAS_ITERATOR_DEBUGGING
; 973  : 		if (_Count != 0)
; 974  : 			_DEBUG_POINTER(_Ptr);
; 975  :  #endif /* _HAS_ITERATOR_DEBUGGING */
; 976  : 
; 977  : 		if (_Inside(_Ptr))

  00000	8b 54 24 04	 mov	 edx, DWORD PTR __Ptr$[esp-4]
  00004	53		 push	 ebx
  00005	56		 push	 esi
  00006	57		 push	 edi
  00007	8b f1		 mov	 esi, ecx
  00009	85 d2		 test	 edx, edx
  0000b	74 46		 je	 SHORT $LN4@append@2
  0000d	8b 7e 18	 mov	 edi, DWORD PTR [esi+24]
  00010	8d 46 04	 lea	 eax, DWORD PTR [esi+4]
  00013	83 ff 10	 cmp	 edi, 16			; 00000010H
  00016	72 04		 jb	 SHORT $LN14@append@2
  00018	8b 08		 mov	 ecx, DWORD PTR [eax]
  0001a	eb 02		 jmp	 SHORT $LN15@append@2
$LN14@append@2:
  0001c	8b c8		 mov	 ecx, eax
$LN15@append@2:
  0001e	3b d1		 cmp	 edx, ecx
  00020	72 31		 jb	 SHORT $LN4@append@2
  00022	83 ff 10	 cmp	 edi, 16			; 00000010H
  00025	72 04		 jb	 SHORT $LN18@append@2
  00027	8b 08		 mov	 ecx, DWORD PTR [eax]
  00029	eb 02		 jmp	 SHORT $LN19@append@2
$LN18@append@2:
  0002b	8b c8		 mov	 ecx, eax
$LN19@append@2:
  0002d	8b 5e 14	 mov	 ebx, DWORD PTR [esi+20]
  00030	03 d9		 add	 ebx, ecx
  00032	3b da		 cmp	 ebx, edx
  00034	76 1d		 jbe	 SHORT $LN4@append@2

; 978  : 			return (append(*this, _Ptr - _Myptr(), _Count));	// substring

  00036	83 ff 10	 cmp	 edi, 16			; 00000010H
  00039	72 02		 jb	 SHORT $LN22@append@2
  0003b	8b 00		 mov	 eax, DWORD PTR [eax]
$LN22@append@2:
  0003d	8b 4c 24 14	 mov	 ecx, DWORD PTR __Count$[esp+8]
  00041	51		 push	 ecx
  00042	2b d0		 sub	 edx, eax
  00044	52		 push	 edx
  00045	56		 push	 esi
  00046	8b ce		 mov	 ecx, esi
  00048	e8 00 00 00 00	 call	 ?append@?$basic_string@DU?$char_traits@D@std@@V?$allocator@D@2@@std@@QAEAAV12@ABV12@II@Z ; std::basic_string<char,std::char_traits<char>,std::allocator<char> >::append
  0004d	5f		 pop	 edi
  0004e	5e		 pop	 esi
  0004f	5b		 pop	 ebx

; 989  : 		}

  00050	c2 08 00	 ret	 8
$LN4@append@2:

; 979  : 		if (npos - _Mysize <= _Count || _Mysize + _Count < _Mysize)

  00053	8b 46 14	 mov	 eax, DWORD PTR [esi+20]
  00056	83 ca ff	 or	 edx, -1
  00059	55		 push	 ebp
  0005a	8b 6c 24 18	 mov	 ebp, DWORD PTR __Count$[esp+12]
  0005e	2b d0		 sub	 edx, eax
  00060	3b d5		 cmp	 edx, ebp
  00062	76 07		 jbe	 SHORT $LN2@append@2
  00064	8d 0c 28	 lea	 ecx, DWORD PTR [eax+ebp]
  00067	3b c8		 cmp	 ecx, eax
  00069	73 05		 jae	 SHORT $LN3@append@2
$LN2@append@2:

; 980  : 			_String_base::_Xlen();	// result too long

  0006b	e8 00 00 00 00	 call	 ?_Xlen@_String_base@std@@SAXXZ ; std::_String_base::_Xlen
$LN3@append@2:

; 981  : 
; 982  : 		size_type _Num;
; 983  : 		if (0 < _Count && _Grow(_Num = _Mysize + _Count))

  00070	85 ed		 test	 ebp, ebp
  00072	0f 86 87 00 00
	00		 jbe	 $LN92@append@2
  00078	8b 7e 14	 mov	 edi, DWORD PTR [esi+20]
  0007b	03 fd		 add	 edi, ebp
  0007d	83 ff fe	 cmp	 edi, -2			; fffffffeH
  00080	76 05		 jbe	 SHORT $LN29@append@2
  00082	e8 00 00 00 00	 call	 ?_Xlen@_String_base@std@@SAXXZ ; std::_String_base::_Xlen
$LN29@append@2:
  00087	8b 46 18	 mov	 eax, DWORD PTR [esi+24]
  0008a	3b c7		 cmp	 eax, edi
  0008c	73 1f		 jae	 SHORT $LN28@append@2
  0008e	8b 56 14	 mov	 edx, DWORD PTR [esi+20]
  00091	52		 push	 edx
  00092	57		 push	 edi
  00093	8b ce		 mov	 ecx, esi
  00095	e8 00 00 00 00	 call	 ?_Copy@?$basic_string@DU?$char_traits@D@std@@V?$allocator@D@2@@std@@IAEXII@Z ; std::basic_string<char,std::char_traits<char>,std::allocator<char> >::_Copy
  0009a	85 ff		 test	 edi, edi
$LN95@append@2:
  0009c	76 61		 jbe	 SHORT $LN92@append@2

; 984  : 			{	// make room and append new stuff
; 985  : 			_Traits_helper::copy_s<_Traits>(_Myptr() + _Mysize, _Myres - _Mysize, _Ptr, _Count);

  0009e	8b 46 18	 mov	 eax, DWORD PTR [esi+24]
  000a1	8d 5e 04	 lea	 ebx, DWORD PTR [esi+4]
  000a4	83 f8 10	 cmp	 eax, 16			; 00000010H
  000a7	72 2e		 jb	 SHORT $LN76@append@2
  000a9	8b 13		 mov	 edx, DWORD PTR [ebx]
  000ab	eb 2c		 jmp	 SHORT $LN77@append@2

; 981  : 
; 982  : 		size_type _Num;
; 983  : 		if (0 < _Count && _Grow(_Num = _Mysize + _Count))

$LN28@append@2:
  000ad	85 ff		 test	 edi, edi
  000af	75 eb		 jne	 SHORT $LN95@append@2
  000b1	89 7e 14	 mov	 DWORD PTR [esi+20], edi
  000b4	83 f8 10	 cmp	 eax, 16			; 00000010H
  000b7	72 0f		 jb	 SHORT $LN70@append@2
  000b9	8b 46 04	 mov	 eax, DWORD PTR [esi+4]
  000bc	5d		 pop	 ebp
  000bd	5f		 pop	 edi
  000be	c6 00 00	 mov	 BYTE PTR [eax], 0

; 987  : 			}
; 988  : 		return (*this);

  000c1	8b c6		 mov	 eax, esi
  000c3	5e		 pop	 esi
  000c4	5b		 pop	 ebx

; 989  : 		}

  000c5	c2 08 00	 ret	 8

; 981  : 
; 982  : 		size_type _Num;
; 983  : 		if (0 < _Count && _Grow(_Num = _Mysize + _Count))

$LN70@append@2:
  000c8	8d 46 04	 lea	 eax, DWORD PTR [esi+4]
  000cb	5d		 pop	 ebp
  000cc	5f		 pop	 edi
  000cd	c6 00 00	 mov	 BYTE PTR [eax], 0

; 987  : 			}
; 988  : 		return (*this);

  000d0	8b c6		 mov	 eax, esi
  000d2	5e		 pop	 esi
  000d3	5b		 pop	 ebx

; 989  : 		}

  000d4	c2 08 00	 ret	 8

; 984  : 			{	// make room and append new stuff
; 985  : 			_Traits_helper::copy_s<_Traits>(_Myptr() + _Mysize, _Myres - _Mysize, _Ptr, _Count);

$LN76@append@2:
  000d7	8b d3		 mov	 edx, ebx
$LN77@append@2:
  000d9	8b 4e 14	 mov	 ecx, DWORD PTR [esi+20]
  000dc	55		 push	 ebp
  000dd	8b 6c 24 18	 mov	 ebp, DWORD PTR __Ptr$[esp+16]
  000e1	2b c1		 sub	 eax, ecx
  000e3	55		 push	 ebp
  000e4	50		 push	 eax
  000e5	03 ca		 add	 ecx, edx
  000e7	51		 push	 ecx
  000e8	e8 00 00 00 00	 call	 _memcpy_s
  000ed	83 c4 10	 add	 esp, 16			; 00000010H

; 986  : 			_Eos(_Num);

  000f0	83 7e 18 10	 cmp	 DWORD PTR [esi+24], 16	; 00000010H
  000f4	89 7e 14	 mov	 DWORD PTR [esi+20], edi
  000f7	72 02		 jb	 SHORT $LN90@append@2
  000f9	8b 1b		 mov	 ebx, DWORD PTR [ebx]
$LN90@append@2:
  000fb	c6 04 3b 00	 mov	 BYTE PTR [ebx+edi], 0
$LN92@append@2:
  000ff	5d		 pop	 ebp
  00100	5f		 pop	 edi

; 987  : 			}
; 988  : 		return (*this);

  00101	8b c6		 mov	 eax, esi
  00103	5e		 pop	 esi
  00104	5b		 pop	 ebx

; 989  : 		}

  00105	c2 08 00	 ret	 8
?append@?$basic_string@DU?$char_traits@D@std@@V?$allocator@D@2@@std@@QAEAAV12@PBDI@Z ENDP ; std::basic_string<char,std::char_traits<char>,std::allocator<char> >::append
_TEXT	ENDS
PUBLIC	??0?$basic_string@DU?$char_traits@D@std@@V?$allocator@D@2@@std@@QAE@ABV01@@Z ; std::basic_string<char,std::char_traits<char>,std::allocator<char> >::basic_string<char,std::char_traits<char>,std::allocator<char> >
; Function compile flags: /Ogtpy
;	COMDAT ??0?$basic_string@DU?$char_traits@D@std@@V?$allocator@D@2@@std@@QAE@ABV01@@Z
_TEXT	SEGMENT
__Right$ = 8						; size = 4
??0?$basic_string@DU?$char_traits@D@std@@V?$allocator@D@2@@std@@QAE@ABV01@@Z PROC ; std::basic_string<char,std::char_traits<char>,std::allocator<char> >::basic_string<char,std::char_traits<char>,std::allocator<char> >, COMDAT
; _this$ = ecx

; 721  : 		{	// construct by copying _Right

  00000	56		 push	 esi

; 722  : 		_Tidy();

  00001	33 c0		 xor	 eax, eax
  00003	8b f1		 mov	 esi, ecx

; 723  : 		assign(_Right, 0, npos);

  00005	6a ff		 push	 -1
  00007	89 46 14	 mov	 DWORD PTR [esi+20], eax
  0000a	c7 46 18 0f 00
	00 00		 mov	 DWORD PTR [esi+24], 15	; 0000000fH
  00011	50		 push	 eax
  00012	88 46 04	 mov	 BYTE PTR [esi+4], al
  00015	8b 44 24 10	 mov	 eax, DWORD PTR __Right$[esp+8]
  00019	50		 push	 eax
  0001a	e8 00 00 00 00	 call	 ?assign@?$basic_string@DU?$char_traits@D@std@@V?$allocator@D@2@@std@@QAEAAV12@ABV12@II@Z ; std::basic_string<char,std::char_traits<char>,std::allocator<char> >::assign

; 724  : 		}

  0001f	8b c6		 mov	 eax, esi
  00021	5e		 pop	 esi
  00022	c2 04 00	 ret	 4
??0?$basic_string@DU?$char_traits@D@std@@V?$allocator@D@2@@std@@QAE@ABV01@@Z ENDP ; std::basic_string<char,std::char_traits<char>,std::allocator<char> >::basic_string<char,std::char_traits<char>,std::allocator<char> >
_TEXT	ENDS
PUBLIC	?assign@?$basic_string@DU?$char_traits@D@std@@V?$allocator@D@2@@std@@QAEAAV12@PBD@Z ; std::basic_string<char,std::char_traits<char>,std::allocator<char> >::assign
; Function compile flags: /Ogtpy
;	COMDAT ?assign@?$basic_string@DU?$char_traits@D@std@@V?$allocator@D@2@@std@@QAEAAV12@PBD@Z
_TEXT	SEGMENT
__Ptr$ = 8						; size = 4
?assign@?$basic_string@DU?$char_traits@D@std@@V?$allocator@D@2@@std@@QAEAAV12@PBD@Z PROC ; std::basic_string<char,std::char_traits<char>,std::allocator<char> >::assign, COMDAT
; _this$ = ecx

; 1083 : 		{	// assign [_Ptr, <null>)

  00000	56		 push	 esi

; 1084 : 		_DEBUG_POINTER(_Ptr);
; 1085 : 		return (assign(_Ptr, _Traits::length(_Ptr)));

  00001	8b 74 24 08	 mov	 esi, DWORD PTR __Ptr$[esp]
  00005	8b c6		 mov	 eax, esi
  00007	57		 push	 edi
  00008	8d 78 01	 lea	 edi, DWORD PTR [eax+1]
  0000b	eb 03 8d 49 00	 npad	 5
$LL5@assign@4:
  00010	8a 10		 mov	 dl, BYTE PTR [eax]
  00012	40		 inc	 eax
  00013	84 d2		 test	 dl, dl
  00015	75 f9		 jne	 SHORT $LL5@assign@4
  00017	2b c7		 sub	 eax, edi
  00019	50		 push	 eax
  0001a	56		 push	 esi
  0001b	e8 00 00 00 00	 call	 ?assign@?$basic_string@DU?$char_traits@D@std@@V?$allocator@D@2@@std@@QAEAAV12@PBDI@Z ; std::basic_string<char,std::char_traits<char>,std::allocator<char> >::assign
  00020	5f		 pop	 edi
  00021	5e		 pop	 esi

; 1086 : 		}

  00022	c2 04 00	 ret	 4
?assign@?$basic_string@DU?$char_traits@D@std@@V?$allocator@D@2@@std@@QAEAAV12@PBD@Z ENDP ; std::basic_string<char,std::char_traits<char>,std::allocator<char> >::assign
_TEXT	ENDS
PUBLIC	?assign@?$basic_string@_WU?$char_traits@_W@std@@V?$allocator@_W@2@@std@@QAEAAV12@PB_WI@Z ; std::basic_string<wchar_t,std::char_traits<wchar_t>,std::allocator<wchar_t> >::assign
; Function compile flags: /Ogtpy
;	COMDAT ?assign@?$basic_string@_WU?$char_traits@_W@std@@V?$allocator@_W@2@@std@@QAEAAV12@PB_WI@Z
_TEXT	SEGMENT
__Ptr$ = 8						; size = 4
__Count$ = 12						; size = 4
?assign@?$basic_string@_WU?$char_traits@_W@std@@V?$allocator@_W@2@@std@@QAEAAV12@PB_WI@Z PROC ; std::basic_string<wchar_t,std::char_traits<wchar_t>,std::allocator<wchar_t> >::assign, COMDAT
; _this$ = ecx

; 1064 : 		{	// assign [_Ptr, _Ptr + _Count)

  00000	53		 push	 ebx
  00001	56		 push	 esi
  00002	8b f1		 mov	 esi, ecx

; 1065 : 
; 1066 :  #if _HAS_ITERATOR_DEBUGGING
; 1067 : 		if (_Count != 0)
; 1068 : 			_DEBUG_POINTER(_Ptr);
; 1069 :  #endif /* _HAS_ITERATOR_DEBUGGING */
; 1070 : 
; 1071 : 		if (_Inside(_Ptr))

  00004	8b 4c 24 0c	 mov	 ecx, DWORD PTR __Ptr$[esp+4]
  00008	57		 push	 edi
  00009	85 c9		 test	 ecx, ecx
  0000b	74 49		 je	 SHORT $LN97@assign@5
  0000d	8b 7e 18	 mov	 edi, DWORD PTR [esi+24]
  00010	8d 46 04	 lea	 eax, DWORD PTR [esi+4]
  00013	83 ff 08	 cmp	 edi, 8
  00016	72 04		 jb	 SHORT $LN12@assign@5
  00018	8b 10		 mov	 edx, DWORD PTR [eax]
  0001a	eb 02		 jmp	 SHORT $LN13@assign@5
$LN12@assign@5:
  0001c	8b d0		 mov	 edx, eax
$LN13@assign@5:
  0001e	3b ca		 cmp	 ecx, edx
  00020	72 34		 jb	 SHORT $LN97@assign@5
  00022	83 ff 08	 cmp	 edi, 8
  00025	72 04		 jb	 SHORT $LN16@assign@5
  00027	8b 10		 mov	 edx, DWORD PTR [eax]
  00029	eb 02		 jmp	 SHORT $LN17@assign@5
$LN16@assign@5:
  0002b	8b d0		 mov	 edx, eax
$LN17@assign@5:
  0002d	8b 5e 14	 mov	 ebx, DWORD PTR [esi+20]
  00030	8d 14 5a	 lea	 edx, DWORD PTR [edx+ebx*2]
  00033	3b d1		 cmp	 edx, ecx
  00035	76 1f		 jbe	 SHORT $LN97@assign@5

; 1072 : 			return (assign(*this, _Ptr - _Myptr(), _Count));	// substring

  00037	83 ff 08	 cmp	 edi, 8
  0003a	72 02		 jb	 SHORT $LN20@assign@5
  0003c	8b 00		 mov	 eax, DWORD PTR [eax]
$LN20@assign@5:
  0003e	8b 54 24 14	 mov	 edx, DWORD PTR __Count$[esp+8]
  00042	2b c8		 sub	 ecx, eax
  00044	52		 push	 edx
  00045	d1 f9		 sar	 ecx, 1
  00047	51		 push	 ecx
  00048	56		 push	 esi
  00049	8b ce		 mov	 ecx, esi
  0004b	e8 00 00 00 00	 call	 ?assign@?$basic_string@_WU?$char_traits@_W@std@@V?$allocator@_W@2@@std@@QAEAAV12@ABV12@II@Z ; std::basic_string<wchar_t,std::char_traits<wchar_t>,std::allocator<wchar_t> >::assign
  00050	5f		 pop	 edi
  00051	5e		 pop	 esi
  00052	5b		 pop	 ebx

; 1080 : 		}

  00053	c2 08 00	 ret	 8
$LN97@assign@5:

; 1073 : 
; 1074 : 		if (_Grow(_Count))

  00056	8b 7c 24 14	 mov	 edi, DWORD PTR __Count$[esp+8]
  0005a	81 ff fe ff ff
	7f		 cmp	 edi, 2147483646		; 7ffffffeH
  00060	76 05		 jbe	 SHORT $LN27@assign@5
  00062	e8 00 00 00 00	 call	 ?_Xlen@_String_base@std@@SAXXZ ; std::_String_base::_Xlen
$LN27@assign@5:
  00067	8b 46 18	 mov	 eax, DWORD PTR [esi+24]
  0006a	3b c7		 cmp	 eax, edi
  0006c	73 21		 jae	 SHORT $LN26@assign@5
  0006e	8b 46 14	 mov	 eax, DWORD PTR [esi+20]
  00071	50		 push	 eax
  00072	57		 push	 edi
  00073	8b ce		 mov	 ecx, esi
  00075	e8 00 00 00 00	 call	 ?_Copy@?$basic_string@_WU?$char_traits@_W@std@@V?$allocator@_W@2@@std@@IAEXII@Z ; std::basic_string<wchar_t,std::char_traits<wchar_t>,std::allocator<wchar_t> >::_Copy
  0007a	85 ff		 test	 edi, edi
$LN98@assign@5:
  0007c	76 67		 jbe	 SHORT $LN94@assign@5

; 1075 : 			{	// make room and assign new stuff
; 1076 : 			_Traits_helper::copy_s<_Traits>(_Myptr(), _Myres, _Ptr, _Count);

  0007e	8b 4e 18	 mov	 ecx, DWORD PTR [esi+24]
  00081	55		 push	 ebp
  00082	8d 6e 04	 lea	 ebp, DWORD PTR [esi+4]
  00085	83 f9 08	 cmp	 ecx, 8
  00088	72 31		 jb	 SHORT $LN76@assign@5
  0008a	8b 45 00	 mov	 eax, DWORD PTR [ebp]
  0008d	eb 2e		 jmp	 SHORT $LN77@assign@5

; 1073 : 
; 1074 : 		if (_Grow(_Count))

$LN26@assign@5:
  0008f	85 ff		 test	 edi, edi
  00091	75 e9		 jne	 SHORT $LN98@assign@5
  00093	89 7e 14	 mov	 DWORD PTR [esi+20], edi
  00096	83 f8 08	 cmp	 eax, 8
  00099	72 10		 jb	 SHORT $LN70@assign@5
  0009b	8b 46 04	 mov	 eax, DWORD PTR [esi+4]
  0009e	33 c9		 xor	 ecx, ecx
  000a0	5f		 pop	 edi
  000a1	66 89 08	 mov	 WORD PTR [eax], cx

; 1078 : 			}
; 1079 : 		return (*this);

  000a4	8b c6		 mov	 eax, esi
  000a6	5e		 pop	 esi
  000a7	5b		 pop	 ebx

; 1080 : 		}

  000a8	c2 08 00	 ret	 8

; 1073 : 
; 1074 : 		if (_Grow(_Count))

$LN70@assign@5:
  000ab	8d 46 04	 lea	 eax, DWORD PTR [esi+4]
  000ae	33 c9		 xor	 ecx, ecx
  000b0	5f		 pop	 edi
  000b1	66 89 08	 mov	 WORD PTR [eax], cx

; 1078 : 			}
; 1079 : 		return (*this);

  000b4	8b c6		 mov	 eax, esi
  000b6	5e		 pop	 esi
  000b7	5b		 pop	 ebx

; 1080 : 		}

  000b8	c2 08 00	 ret	 8

; 1075 : 			{	// make room and assign new stuff
; 1076 : 			_Traits_helper::copy_s<_Traits>(_Myptr(), _Myres, _Ptr, _Count);

$LN76@assign@5:
  000bb	8b c5		 mov	 eax, ebp
$LN77@assign@5:
  000bd	8b 54 24 14	 mov	 edx, DWORD PTR __Ptr$[esp+12]
  000c1	8d 1c 3f	 lea	 ebx, DWORD PTR [edi+edi]
  000c4	53		 push	 ebx
  000c5	52		 push	 edx
  000c6	03 c9		 add	 ecx, ecx
  000c8	51		 push	 ecx
  000c9	50		 push	 eax
  000ca	e8 00 00 00 00	 call	 _memcpy_s
  000cf	83 c4 10	 add	 esp, 16			; 00000010H

; 1077 : 			_Eos(_Count);

  000d2	83 7e 18 08	 cmp	 DWORD PTR [esi+24], 8
  000d6	89 7e 14	 mov	 DWORD PTR [esi+20], edi
  000d9	72 03		 jb	 SHORT $LN92@assign@5
  000db	8b 6d 00	 mov	 ebp, DWORD PTR [ebp]
$LN92@assign@5:
  000de	33 d2		 xor	 edx, edx
  000e0	66 89 14 2b	 mov	 WORD PTR [ebx+ebp], dx
  000e4	5d		 pop	 ebp
$LN94@assign@5:
  000e5	5f		 pop	 edi

; 1078 : 			}
; 1079 : 		return (*this);

  000e6	8b c6		 mov	 eax, esi
  000e8	5e		 pop	 esi
  000e9	5b		 pop	 ebx

; 1080 : 		}

  000ea	c2 08 00	 ret	 8
?assign@?$basic_string@_WU?$char_traits@_W@std@@V?$allocator@_W@2@@std@@QAEAAV12@PB_WI@Z ENDP ; std::basic_string<wchar_t,std::char_traits<wchar_t>,std::allocator<wchar_t> >::assign
_TEXT	ENDS
PUBLIC	?append@?$basic_string@DU?$char_traits@D@std@@V?$allocator@D@2@@std@@QAEAAV12@PBD@Z ; std::basic_string<char,std::char_traits<char>,std::allocator<char> >::append
; Function compile flags: /Ogtpy
;	COMDAT ?append@?$basic_string@DU?$char_traits@D@std@@V?$allocator@D@2@@std@@QAEAAV12@PBD@Z
_TEXT	SEGMENT
__Ptr$ = 8						; size = 4
?append@?$basic_string@DU?$char_traits@D@std@@V?$allocator@D@2@@std@@QAEAAV12@PBD@Z PROC ; std::basic_string<char,std::char_traits<char>,std::allocator<char> >::append, COMDAT
; _this$ = ecx

; 992  : 		{	// append [_Ptr, <null>)

  00000	56		 push	 esi

; 993  : 		_DEBUG_POINTER(_Ptr);
; 994  : 		return (append(_Ptr, _Traits::length(_Ptr)));

  00001	8b 74 24 08	 mov	 esi, DWORD PTR __Ptr$[esp]
  00005	8b c6		 mov	 eax, esi
  00007	57		 push	 edi
  00008	8d 78 01	 lea	 edi, DWORD PTR [eax+1]
  0000b	eb 03 8d 49 00	 npad	 5
$LL5@append@3:
  00010	8a 10		 mov	 dl, BYTE PTR [eax]
  00012	40		 inc	 eax
  00013	84 d2		 test	 dl, dl
  00015	75 f9		 jne	 SHORT $LL5@append@3
  00017	2b c7		 sub	 eax, edi
  00019	50		 push	 eax
  0001a	56		 push	 esi
  0001b	e8 00 00 00 00	 call	 ?append@?$basic_string@DU?$char_traits@D@std@@V?$allocator@D@2@@std@@QAEAAV12@PBDI@Z ; std::basic_string<char,std::char_traits<char>,std::allocator<char> >::append
  00020	5f		 pop	 edi
  00021	5e		 pop	 esi

; 995  : 		}

  00022	c2 04 00	 ret	 4
?append@?$basic_string@DU?$char_traits@D@std@@V?$allocator@D@2@@std@@QAEAAV12@PBD@Z ENDP ; std::basic_string<char,std::char_traits<char>,std::allocator<char> >::append
_TEXT	ENDS
PUBLIC	??0?$basic_string@DU?$char_traits@D@std@@V?$allocator@D@2@@std@@QAE@PBD@Z ; std::basic_string<char,std::char_traits<char>,std::allocator<char> >::basic_string<char,std::char_traits<char>,std::allocator<char> >
; Function compile flags: /Ogtpy
;	COMDAT ??0?$basic_string@DU?$char_traits@D@std@@V?$allocator@D@2@@std@@QAE@PBD@Z
_TEXT	SEGMENT
__Ptr$ = 8						; size = 4
??0?$basic_string@DU?$char_traits@D@std@@V?$allocator@D@2@@std@@QAE@PBD@Z PROC ; std::basic_string<char,std::char_traits<char>,std::allocator<char> >::basic_string<char,std::char_traits<char>,std::allocator<char> >, COMDAT
; _this$ = ecx

; 652  : 		_Tidy();
; 653  : 		assign(_Ptr);

  00000	8b 54 24 04	 mov	 edx, DWORD PTR __Ptr$[esp-4]
  00004	56		 push	 esi
  00005	8b f1		 mov	 esi, ecx
  00007	8b c2		 mov	 eax, edx
  00009	57		 push	 edi
  0000a	c7 46 18 0f 00
	00 00		 mov	 DWORD PTR [esi+24], 15	; 0000000fH
  00011	c7 46 14 00 00
	00 00		 mov	 DWORD PTR [esi+20], 0
  00018	c6 46 04 00	 mov	 BYTE PTR [esi+4], 0
  0001c	8d 78 01	 lea	 edi, DWORD PTR [eax+1]
  0001f	90		 npad	 1
$LL37@basic_stri@3:
  00020	8a 08		 mov	 cl, BYTE PTR [eax]
  00022	40		 inc	 eax
  00023	84 c9		 test	 cl, cl
  00025	75 f9		 jne	 SHORT $LL37@basic_stri@3
  00027	2b c7		 sub	 eax, edi
  00029	50		 push	 eax
  0002a	52		 push	 edx
  0002b	8b ce		 mov	 ecx, esi
  0002d	e8 00 00 00 00	 call	 ?assign@?$basic_string@DU?$char_traits@D@std@@V?$allocator@D@2@@std@@QAEAAV12@PBDI@Z ; std::basic_string<char,std::char_traits<char>,std::allocator<char> >::assign
  00032	5f		 pop	 edi

; 654  : 		}

  00033	8b c6		 mov	 eax, esi
  00035	5e		 pop	 esi
  00036	c2 04 00	 ret	 4
??0?$basic_string@DU?$char_traits@D@std@@V?$allocator@D@2@@std@@QAE@PBD@Z ENDP ; std::basic_string<char,std::char_traits<char>,std::allocator<char> >::basic_string<char,std::char_traits<char>,std::allocator<char> >
_TEXT	ENDS
PUBLIC	?assign@?$basic_string@_WU?$char_traits@_W@std@@V?$allocator@_W@2@@std@@QAEAAV12@PB_W@Z ; std::basic_string<wchar_t,std::char_traits<wchar_t>,std::allocator<wchar_t> >::assign
; Function compile flags: /Ogtpy
;	COMDAT ?assign@?$basic_string@_WU?$char_traits@_W@std@@V?$allocator@_W@2@@std@@QAEAAV12@PB_W@Z
_TEXT	SEGMENT
__Ptr$ = 8						; size = 4
?assign@?$basic_string@_WU?$char_traits@_W@std@@V?$allocator@_W@2@@std@@QAEAAV12@PB_W@Z PROC ; std::basic_string<wchar_t,std::char_traits<wchar_t>,std::allocator<wchar_t> >::assign, COMDAT
; _this$ = ecx

; 1083 : 		{	// assign [_Ptr, <null>)

  00000	56		 push	 esi

; 1084 : 		_DEBUG_POINTER(_Ptr);
; 1085 : 		return (assign(_Ptr, _Traits::length(_Ptr)));

  00001	8b 74 24 08	 mov	 esi, DWORD PTR __Ptr$[esp]
  00005	8b c6		 mov	 eax, esi
  00007	57		 push	 edi
  00008	8d 78 02	 lea	 edi, DWORD PTR [eax+2]
  0000b	eb 03 8d 49 00	 npad	 5
$LL5@assign@6:
  00010	66 8b 10	 mov	 dx, WORD PTR [eax]
  00013	83 c0 02	 add	 eax, 2
  00016	66 85 d2	 test	 dx, dx
  00019	75 f5		 jne	 SHORT $LL5@assign@6
  0001b	2b c7		 sub	 eax, edi
  0001d	d1 f8		 sar	 eax, 1
  0001f	50		 push	 eax
  00020	56		 push	 esi
  00021	e8 00 00 00 00	 call	 ?assign@?$basic_string@_WU?$char_traits@_W@std@@V?$allocator@_W@2@@std@@QAEAAV12@PB_WI@Z ; std::basic_string<wchar_t,std::char_traits<wchar_t>,std::allocator<wchar_t> >::assign
  00026	5f		 pop	 edi
  00027	5e		 pop	 esi

; 1086 : 		}

  00028	c2 04 00	 ret	 4
?assign@?$basic_string@_WU?$char_traits@_W@std@@V?$allocator@_W@2@@std@@QAEAAV12@PB_W@Z ENDP ; std::basic_string<wchar_t,std::char_traits<wchar_t>,std::allocator<wchar_t> >::assign
_TEXT	ENDS
PUBLIC	??Y?$basic_string@DU?$char_traits@D@std@@V?$allocator@D@2@@std@@QAEAAV01@PBD@Z ; std::basic_string<char,std::char_traits<char>,std::allocator<char> >::operator+=
; Function compile flags: /Ogtpy
;	COMDAT ??Y?$basic_string@DU?$char_traits@D@std@@V?$allocator@D@2@@std@@QAEAAV01@PBD@Z
_TEXT	SEGMENT
__Ptr$ = 8						; size = 4
??Y?$basic_string@DU?$char_traits@D@std@@V?$allocator@D@2@@std@@QAEAAV01@PBD@Z PROC ; std::basic_string<char,std::char_traits<char>,std::allocator<char> >::operator+=, COMDAT
; _this$ = ecx

; 935  : 		{	// append [_Ptr, <null>)

  00000	56		 push	 esi

; 936  : 		return (append(_Ptr));

  00001	8b 74 24 08	 mov	 esi, DWORD PTR __Ptr$[esp]
  00005	8b c6		 mov	 eax, esi
  00007	57		 push	 edi
  00008	8d 78 01	 lea	 edi, DWORD PTR [eax+1]
  0000b	eb 03 8d 49 00	 npad	 5
$LL7@operator:
  00010	8a 10		 mov	 dl, BYTE PTR [eax]
  00012	40		 inc	 eax
  00013	84 d2		 test	 dl, dl
  00015	75 f9		 jne	 SHORT $LL7@operator
  00017	2b c7		 sub	 eax, edi
  00019	50		 push	 eax
  0001a	56		 push	 esi
  0001b	e8 00 00 00 00	 call	 ?append@?$basic_string@DU?$char_traits@D@std@@V?$allocator@D@2@@std@@QAEAAV12@PBDI@Z ; std::basic_string<char,std::char_traits<char>,std::allocator<char> >::append
  00020	5f		 pop	 edi
  00021	5e		 pop	 esi

; 937  : 		}

  00022	c2 04 00	 ret	 4
??Y?$basic_string@DU?$char_traits@D@std@@V?$allocator@D@2@@std@@QAEAAV01@PBD@Z ENDP ; std::basic_string<char,std::char_traits<char>,std::allocator<char> >::operator+=
_TEXT	ENDS
PUBLIC	??0?$basic_string@_WU?$char_traits@_W@std@@V?$allocator@_W@2@@std@@QAE@PB_W@Z ; std::basic_string<wchar_t,std::char_traits<wchar_t>,std::allocator<wchar_t> >::basic_string<wchar_t,std::char_traits<wchar_t>,std::allocator<wchar_t> >
; Function compile flags: /Ogtpy
;	COMDAT ??0?$basic_string@_WU?$char_traits@_W@std@@V?$allocator@_W@2@@std@@QAE@PB_W@Z
_TEXT	SEGMENT
__Ptr$ = 8						; size = 4
??0?$basic_string@_WU?$char_traits@_W@std@@V?$allocator@_W@2@@std@@QAE@PB_W@Z PROC ; std::basic_string<wchar_t,std::char_traits<wchar_t>,std::allocator<wchar_t> >::basic_string<wchar_t,std::char_traits<wchar_t>,std::allocator<wchar_t> >, COMDAT
; _this$ = ecx

; 652  : 		_Tidy();
; 653  : 		assign(_Ptr);

  00000	8b 54 24 04	 mov	 edx, DWORD PTR __Ptr$[esp-4]
  00004	56		 push	 esi
  00005	8b f1		 mov	 esi, ecx
  00007	33 c0		 xor	 eax, eax
  00009	c7 46 18 07 00
	00 00		 mov	 DWORD PTR [esi+24], 7
  00010	c7 46 14 00 00
	00 00		 mov	 DWORD PTR [esi+20], 0
  00017	66 89 46 04	 mov	 WORD PTR [esi+4], ax
  0001b	8b c2		 mov	 eax, edx
  0001d	57		 push	 edi
  0001e	8d 78 02	 lea	 edi, DWORD PTR [eax+2]
$LL39@basic_stri@4:
  00021	66 8b 08	 mov	 cx, WORD PTR [eax]
  00024	83 c0 02	 add	 eax, 2
  00027	66 85 c9	 test	 cx, cx
  0002a	75 f5		 jne	 SHORT $LL39@basic_stri@4
  0002c	2b c7		 sub	 eax, edi
  0002e	d1 f8		 sar	 eax, 1
  00030	50		 push	 eax
  00031	52		 push	 edx
  00032	8b ce		 mov	 ecx, esi
  00034	e8 00 00 00 00	 call	 ?assign@?$basic_string@_WU?$char_traits@_W@std@@V?$allocator@_W@2@@std@@QAEAAV12@PB_WI@Z ; std::basic_string<wchar_t,std::char_traits<wchar_t>,std::allocator<wchar_t> >::assign
  00039	5f		 pop	 edi

; 654  : 		}

  0003a	8b c6		 mov	 eax, esi
  0003c	5e		 pop	 esi
  0003d	c2 04 00	 ret	 4
??0?$basic_string@_WU?$char_traits@_W@std@@V?$allocator@_W@2@@std@@QAE@PB_W@Z ENDP ; std::basic_string<wchar_t,std::char_traits<wchar_t>,std::allocator<wchar_t> >::basic_string<wchar_t,std::char_traits<wchar_t>,std::allocator<wchar_t> >
_TEXT	ENDS
PUBLIC	??4?$basic_string@_WU?$char_traits@_W@std@@V?$allocator@_W@2@@std@@QAEAAV01@PB_W@Z ; std::basic_string<wchar_t,std::char_traits<wchar_t>,std::allocator<wchar_t> >::operator=
; Function compile flags: /Ogtpy
;	COMDAT ??4?$basic_string@_WU?$char_traits@_W@std@@V?$allocator@_W@2@@std@@QAEAAV01@PB_W@Z
_TEXT	SEGMENT
__Ptr$ = 8						; size = 4
??4?$basic_string@_WU?$char_traits@_W@std@@V?$allocator@_W@2@@std@@QAEAAV01@PB_W@Z PROC ; std::basic_string<wchar_t,std::char_traits<wchar_t>,std::allocator<wchar_t> >::operator=, COMDAT
; _this$ = ecx

; 920  : 		{	// assign [_Ptr, <null>)

  00000	56		 push	 esi

; 921  : 		return (assign(_Ptr));

  00001	8b 74 24 08	 mov	 esi, DWORD PTR __Ptr$[esp]
  00005	8b c6		 mov	 eax, esi
  00007	57		 push	 edi
  00008	8d 78 02	 lea	 edi, DWORD PTR [eax+2]
  0000b	eb 03 8d 49 00	 npad	 5
$LL7@operator@2:
  00010	66 8b 10	 mov	 dx, WORD PTR [eax]
  00013	83 c0 02	 add	 eax, 2
  00016	66 85 d2	 test	 dx, dx
  00019	75 f5		 jne	 SHORT $LL7@operator@2
  0001b	2b c7		 sub	 eax, edi
  0001d	d1 f8		 sar	 eax, 1
  0001f	50		 push	 eax
  00020	56		 push	 esi
  00021	e8 00 00 00 00	 call	 ?assign@?$basic_string@_WU?$char_traits@_W@std@@V?$allocator@_W@2@@std@@QAEAAV12@PB_WI@Z ; std::basic_string<wchar_t,std::char_traits<wchar_t>,std::allocator<wchar_t> >::assign
  00026	5f		 pop	 edi
  00027	5e		 pop	 esi

; 922  : 		}

  00028	c2 04 00	 ret	 4
??4?$basic_string@_WU?$char_traits@_W@std@@V?$allocator@_W@2@@std@@QAEAAV01@PB_W@Z ENDP ; std::basic_string<wchar_t,std::char_traits<wchar_t>,std::allocator<wchar_t> >::operator=
_TEXT	ENDS
PUBLIC	??$?HDU?$char_traits@D@std@@V?$allocator@D@1@@std@@YA?AV?$basic_string@DU?$char_traits@D@std@@V?$allocator@D@2@@0@ABV10@PBD@Z ; std::operator+<char,std::char_traits<char>,std::allocator<char> >
;	COMDAT xdata$x
; File c:\program files (x86)\microsoft visual studio 9.0\vc\include\iosfwd
xdata$x	SEGMENT
__unwindtable$??$?HDU?$char_traits@D@std@@V?$allocator@D@1@@std@@YA?AV?$basic_string@DU?$char_traits@D@std@@V?$allocator@D@2@@0@ABV10@PBD@Z DD 0ffffffffH
	DD	FLAT:__unwindfunclet$??$?HDU?$char_traits@D@std@@V?$allocator@D@1@@std@@YA?AV?$basic_string@DU?$char_traits@D@std@@V?$allocator@D@2@@0@ABV10@PBD@Z$0
__ehfuncinfo$??$?HDU?$char_traits@D@std@@V?$allocator@D@1@@std@@YA?AV?$basic_string@DU?$char_traits@D@std@@V?$allocator@D@2@@0@ABV10@PBD@Z DD 019930522H
	DD	01H
	DD	FLAT:__unwindtable$??$?HDU?$char_traits@D@std@@V?$allocator@D@1@@std@@YA?AV?$basic_string@DU?$char_traits@D@std@@V?$allocator@D@2@@0@ABV10@PBD@Z
	DD	2 DUP(00H)
	DD	2 DUP(00H)
	DD	00H
	DD	01H
; Function compile flags: /Ogtpy
; File c:\program files (x86)\microsoft visual studio 9.0\vc\include\string
xdata$x	ENDS
;	COMDAT ??$?HDU?$char_traits@D@std@@V?$allocator@D@1@@std@@YA?AV?$basic_string@DU?$char_traits@D@std@@V?$allocator@D@2@@0@ABV10@PBD@Z
_TEXT	SEGMENT
$T102243 = -44						; size = 4
$T102240 = -40						; size = 28
__$EHRec$ = -12						; size = 12
___$ReturnUdt$ = 8					; size = 4
__Left$ = 12						; size = 4
__Right$ = 16						; size = 4
??$?HDU?$char_traits@D@std@@V?$allocator@D@1@@std@@YA?AV?$basic_string@DU?$char_traits@D@std@@V?$allocator@D@2@@0@ABV10@PBD@Z PROC ; std::operator+<char,std::char_traits<char>,std::allocator<char> >, COMDAT

; 53   : 	{	// return string + NTCS

  00000	6a ff		 push	 -1
  00002	68 00 00 00 00	 push	 __ehhandler$??$?HDU?$char_traits@D@std@@V?$allocator@D@1@@std@@YA?AV?$basic_string@DU?$char_traits@D@std@@V?$allocator@D@2@@0@ABV10@PBD@Z
  00007	64 a1 00 00 00
	00		 mov	 eax, DWORD PTR fs:0
  0000d	50		 push	 eax
  0000e	83 ec 20	 sub	 esp, 32			; 00000020H
  00011	53		 push	 ebx
  00012	56		 push	 esi
  00013	a1 00 00 00 00	 mov	 eax, DWORD PTR ___security_cookie
  00018	33 c4		 xor	 eax, esp
  0001a	50		 push	 eax
  0001b	8d 44 24 2c	 lea	 eax, DWORD PTR __$EHRec$[esp+56]
  0001f	64 a3 00 00 00
	00		 mov	 DWORD PTR fs:0, eax

; 54   : 	return (basic_string<_Elem, _Traits, _Alloc>(_Left) += _Right);

  00025	8b 44 24 40	 mov	 eax, DWORD PTR __Left$[esp+52]
  00029	33 db		 xor	 ebx, ebx
  0002b	6a ff		 push	 -1
  0002d	53		 push	 ebx
  0002e	50		 push	 eax
  0002f	8d 4c 24 1c	 lea	 ecx, DWORD PTR $T102240[esp+68]
  00033	89 5c 24 18	 mov	 DWORD PTR $T102243[esp+68], ebx
  00037	c7 44 24 34 0f
	00 00 00	 mov	 DWORD PTR $T102240[esp+92], 15 ; 0000000fH
  0003f	89 5c 24 30	 mov	 DWORD PTR $T102240[esp+88], ebx
  00043	88 5c 24 20	 mov	 BYTE PTR $T102240[esp+72], bl
  00047	e8 00 00 00 00	 call	 ?assign@?$basic_string@DU?$char_traits@D@std@@V?$allocator@D@2@@std@@QAEAAV12@ABV12@II@Z ; std::basic_string<char,std::char_traits<char>,std::allocator<char> >::assign
  0004c	8b 54 24 44	 mov	 edx, DWORD PTR __Right$[esp+52]
  00050	8b c2		 mov	 eax, edx
  00052	89 5c 24 34	 mov	 DWORD PTR __$EHRec$[esp+64], ebx
  00056	8d 70 01	 lea	 esi, DWORD PTR [eax+1]
  00059	8d a4 24 00 00
	00 00		 npad	 7
$LL90@operator@3:
  00060	8a 08		 mov	 cl, BYTE PTR [eax]
  00062	40		 inc	 eax
  00063	3a cb		 cmp	 cl, bl
  00065	75 f9		 jne	 SHORT $LL90@operator@3
  00067	2b c6		 sub	 eax, esi
  00069	50		 push	 eax
  0006a	52		 push	 edx
  0006b	8d 4c 24 18	 lea	 ecx, DWORD PTR $T102240[esp+64]
  0006f	e8 00 00 00 00	 call	 ?append@?$basic_string@DU?$char_traits@D@std@@V?$allocator@D@2@@std@@QAEAAV12@PBDI@Z ; std::basic_string<char,std::char_traits<char>,std::allocator<char> >::append
  00074	8b 74 24 3c	 mov	 esi, DWORD PTR ___$ReturnUdt$[esp+52]
  00078	6a ff		 push	 -1
  0007a	53		 push	 ebx
  0007b	c7 46 18 0f 00
	00 00		 mov	 DWORD PTR [esi+24], 15	; 0000000fH
  00082	89 5e 14	 mov	 DWORD PTR [esi+20], ebx
  00085	50		 push	 eax
  00086	8b ce		 mov	 ecx, esi
  00088	88 5e 04	 mov	 BYTE PTR [esi+4], bl
  0008b	e8 00 00 00 00	 call	 ?assign@?$basic_string@DU?$char_traits@D@std@@V?$allocator@D@2@@std@@QAEAAV12@ABV12@II@Z ; std::basic_string<char,std::char_traits<char>,std::allocator<char> >::assign
  00090	83 7c 24 28 10	 cmp	 DWORD PTR $T102240[esp+80], 16 ; 00000010H
  00095	72 0d		 jb	 SHORT $LN91@operator@3
  00097	8b 4c 24 14	 mov	 ecx, DWORD PTR $T102240[esp+60]
  0009b	51		 push	 ecx
  0009c	e8 00 00 00 00	 call	 ??3@YAXPAX@Z		; operator delete
  000a1	83 c4 04	 add	 esp, 4
$LN91@operator@3:
  000a4	8b c6		 mov	 eax, esi

; 55   : 	}

  000a6	8b 4c 24 2c	 mov	 ecx, DWORD PTR __$EHRec$[esp+56]
  000aa	64 89 0d 00 00
	00 00		 mov	 DWORD PTR fs:0, ecx
  000b1	59		 pop	 ecx
  000b2	5e		 pop	 esi
  000b3	5b		 pop	 ebx
  000b4	83 c4 2c	 add	 esp, 44			; 0000002cH
  000b7	c3		 ret	 0
_TEXT	ENDS
;	COMDAT text$x
text$x	SEGMENT
__unwindfunclet$??$?HDU?$char_traits@D@std@@V?$allocator@D@1@@std@@YA?AV?$basic_string@DU?$char_traits@D@std@@V?$allocator@D@2@@0@ABV10@PBD@Z$0:
  00000	8d 4d d8	 lea	 ecx, DWORD PTR $T102240[ebp]
  00003	e9 00 00 00 00	 jmp	 ??1?$basic_string@DU?$char_traits@D@std@@V?$allocator@D@2@@std@@QAE@XZ ; std::basic_string<char,std::char_traits<char>,std::allocator<char> >::~basic_string<char,std::char_traits<char>,std::allocator<char> >
__ehhandler$??$?HDU?$char_traits@D@std@@V?$allocator@D@1@@std@@YA?AV?$basic_string@DU?$char_traits@D@std@@V?$allocator@D@2@@0@ABV10@PBD@Z:
  00008	8b 54 24 08	 mov	 edx, DWORD PTR [esp+8]
  0000c	8d 42 d8	 lea	 eax, DWORD PTR [edx-40]
  0000f	8b 4a d4	 mov	 ecx, DWORD PTR [edx-44]
  00012	33 c8		 xor	 ecx, eax
  00014	e8 00 00 00 00	 call	 @__security_check_cookie@4
  00019	b8 00 00 00 00	 mov	 eax, OFFSET __ehfuncinfo$??$?HDU?$char_traits@D@std@@V?$allocator@D@1@@std@@YA?AV?$basic_string@DU?$char_traits@D@std@@V?$allocator@D@2@@0@ABV10@PBD@Z
  0001e	e9 00 00 00 00	 jmp	 ___CxxFrameHandler3
text$x	ENDS
??$?HDU?$char_traits@D@std@@V?$allocator@D@1@@std@@YA?AV?$basic_string@DU?$char_traits@D@std@@V?$allocator@D@2@@0@ABV10@PBD@Z ENDP ; std::operator+<char,std::char_traits<char>,std::allocator<char> >
PUBLIC	??_C@_1CA@MBPOLHGL@?$AAT?$AAi?$AAm?$AAe?$AAs?$AA?5?$AAN?$AAe?$AAw?$AA?5?$AAR?$AAo?$AAm?$AAa?$AAn?$AA?$AA@ ; `string'
PUBLIC	??_C@_1EG@KKLJGMFD@?$AAP?$AAl?$AAe?$AAa?$AAs?$AAe?$AA?5?$AAc?$AAo?$AAn?$AAs?$AAi?$AAd?$AAe?$AAr?$AA?5?$AAm?$AAa?$AAk?$AAi?$AAn?$AAg?$AA?5?$AAa?$AA?5?$AAd?$AAo?$AAn?$AAa?$AAt?$AAi?$AAo@ ; `string'
PUBLIC	??_C@_0BI@CKIDBLFB@SETUP_FINISHED_INFO_DON?$AA@	; `string'
PUBLIC	??_C@_0BJ@KIEFKBPA@SETUP_FINISHED_TITLE_DON?$AA@ ; `string'
PUBLIC	??_C@_0CB@HFOJNJFM@SETUP_FINISHED_UPGRADE_TITLE_DON@ ; `string'
PUBLIC	??_C@_0BO@CCIEODIN@EXTRACTION_FINISHED_TITLE_DON?$AA@ ; `string'
PUBLIC	??_C@_0BE@FMNDIKAG@INSTALL_IN_PROGRESS?$AA@	; `string'
PUBLIC	??_C@_0BE@JGHDAHN@SETUP_PROGRESS_INFO?$AA@	; `string'
PUBLIC	??_C@_0BF@FGINDNOJ@SETUP_PROGRESS_TITLE?$AA@	; `string'
PUBLIC	??_C@_07PJFGKPND@INSTALL?$AA@			; `string'
PUBLIC	??_C@_0CB@JOIIBOEC@Software?2Classes?2TrueCryptVolume@ ; `string'
PUBLIC	??_C@_0L@LGADMAPO@?2TrueCrypt?$AA@		; `string'
PUBLIC	??_C@_0M@HNGGAEIF@?2CipherShed?$AA@		; `string'
PUBLIC	??_C@_0BK@GJOJHDCA@SETUP_UPGRADE_DESTINATION?$AA@ ; `string'
PUBLIC	??_C@_0BD@BMMFNCA@SETUP_OPTIONS_INFO?$AA@	; `string'
PUBLIC	??_C@_0BE@EDFPLLMN@SETUP_OPTIONS_TITLE?$AA@	; `string'
PUBLIC	??_C@_0BH@PEMNLIII@EXTRACTION_IN_PROGRESS?$AA@	; `string'
PUBLIC	??_C@_0BJ@LJFMAAFG@EXTRACTION_PROGRESS_INFO?$AA@ ; `string'
PUBLIC	??_C@_0BA@IBCNACGH@EXTRACTING_VERB?$AA@		; `string'
PUBLIC	??_C@_07LBPFAJBE@EXTRACT?$AA@			; `string'
PUBLIC	??_C@_0BF@HFEALDNI@AUTO_FOLDER_CREATION?$AA@	; `string'
PUBLIC	??_C@_0BI@OKGEFEFK@EXTRACTION_OPTIONS_INFO?$AA@	; `string'
PUBLIC	??_C@_0BJ@PDGEILOG@EXTRACTION_OPTIONS_TITLE?$AA@ ; `string'
PUBLIC	??_C@_0M@GMDAANJE@CipherShed?2?$AA@		; `string'
PUBLIC	??_C@_0BI@ECIBEEIH@SETUP_MODE_HELP_INSTALL?$AA@	; `string'
PUBLIC	??_C@_0BI@JGKCNIKM@SETUP_MODE_HELP_UPGRADE?$AA@	; `string'
PUBLIC	??_C@_0BI@KCCOCEA@SETUP_MODE_HELP_EXTRACT?$AA@	; `string'
PUBLIC	??_C@_0BA@PHBLGFGD@SETUP_MODE_INFO?$AA@		; `string'
PUBLIC	??_C@_0BB@KMHMHMNP@SETUP_MODE_TITLE?$AA@	; `string'
PUBLIC	??_C@_07CNHFDDPI@UPGRADE?$AA@			; `string'
PUBLIC	??_C@_0BB@OFECFCBP@REPAIR_REINSTALL?$AA@	; `string'
PUBLIC	??_C@_0BH@MFJOAEDC@CANNOT_DISPLAY_LICENSE?$AA@	; `string'
PUBLIC	??_C@_06JHILMIHF@CANCEL?$AA@			; `string'
PUBLIC	??_C@_04PKHKLFPJ@PREV?$AA@			; `string'
PUBLIC	??_C@_04MOKMKBJN@NEXT?$AA@			; `string'
PUBLIC	??_C@_1DI@FKGEFKMH@?$AAI?$AA?5?$AA?$CG?$AAa?$AAc?$AAc?$AAe?$AAp?$AAt?$AA?5?$AAt?$AAh?$AAe?$AA?5?$AAl?$AAi?$AAc?$AAe?$AAn?$AAs?$AAe?$AA?5?$AAt?$AAe?$AAr?$AAm?$AAs?$AA?$AA@ ; `string'
PUBLIC	??_C@_1BIA@MJJKLEKE@?$AAI?$AAM?$AAP?$AAO?$AAR?$AAT?$AAA?$AAN?$AAT?$AA?3?$AA?5?$AAB?$AAy?$AA?5?$AAc?$AAh?$AAe?$AAc?$AAk?$AAi?$AAn?$AAg?$AA?5?$AAt?$AAh?$AAe?$AA?5?$AAc?$AAh?$AAe?$AAc?$AAk@ ; `string'
PUBLIC	??_C@_1LA@INOIFBMC@?$AAY?$AAo?$AAu?$AA?5?$AAm?$AAu?$AAs?$AAt?$AA?5?$AAa?$AAc?$AAc?$AAe?$AAp?$AAt?$AA?5?$AAt?$AAh?$AAe?$AAs?$AAe?$AA?5?$AAl?$AAi?$AAc?$AAe?$AAn?$AAs?$AAe?$AA?5?$AAt?$AAe@ ; `string'
PUBLIC	??_C@_1DM@EGEEIDAI@?$AAP?$AAl?$AAe?$AAa?$AAs?$AAe?$AA?5?$AAr?$AAe?$AAa?$AAd?$AA?5?$AAt?$AAh?$AAe?$AA?5?$AAl?$AAi?$AAc?$AAe?$AAn?$AAs?$AAe?$AA?5?$AAt?$AAe?$AAr?$AAm?$AAs?$AA?$AA@ ; `string'
PUBLIC	??_C@_0BF@EOKBACHI@SETUP_WIZARD_PAGE_?$CFd?$AA@	; `string'
PUBLIC	??_C@_0O@MGHONKG@IDD_INSTL_DLG?$AA@		; `string'
PUBLIC	??_C@_06KCCPDNM@donate?$AA@			; `string'
PUBLIC	??_C@_07KNCOJMJF@?$CGref?$DN?$CFd?$AA@		; `string'
PUBLIC	??_C@_0BA@DJBAGGGN@SELECT_DEST_DIR?$AA@		; `string'
PUBLIC	__$ArrayPad$
PUBLIC	_PageDialogProc@16
EXTRN	__imp__CreateFontIndirectW@4:PROC
EXTRN	_CompensateDPIFont:PROC
EXTRN	_wcsncpy:PROC
EXTRN	_NormalCursor:PROC
EXTRN	_DoInstall:PROC
EXTRN	_SystemRestoreDll:DWORD
EXTRN	__imp__RegCloseKey@4:PROC
EXTRN	__imp__RegOpenKeyExA@20:PROC
EXTRN	__access:PROC
EXTRN	__imp__SHGetSpecialFolderPathA@16:PROC
EXTRN	_bDesktopIconStatusDetermined:DWORD
EXTRN	__beginthread:PROC
EXTRN	_ExtractAllFilesThread:PROC
EXTRN	_DestExtractPath:BYTE
EXTRN	_WaitCursor:PROC
EXTRN	_strncat:PROC
EXTRN	_SetupFilesDir:BYTE
EXTRN	_CheckButton:PROC
EXTRN	_hUserBoldFont:DWORD
EXTRN	_bUpgrade:DWORD
EXTRN	_bRepairMode:DWORD
EXTRN	_DetermineUpgradeDowngradeStatus:PROC
EXTRN	_exit:PROC
EXTRN	_Error:PROC
EXTRN	_GetString:PROC
EXTRN	__imp__SetWindowTextW@8:PROC
EXTRN	_SetCheckBox:PROC
EXTRN	_free:PROC
EXTRN	__imp__SetWindowTextA@8:PROC
EXTRN	_GetLegalNotices:PROC
EXTRN	_LastDialogId:DWORD
EXTRN	_LocalizeDialog:PROC
EXTRN	_Applink:PROC
EXTRN	_sprintf_s:PROC
EXTRN	_bDesktopIcon:DWORD
EXTRN	_bAddToStartMenu:DWORD
EXTRN	_bRegisterFileExt:DWORD
EXTRN	_bForAllUsers:DWORD
EXTRN	_bSystemRestore:DWORD
EXTRN	__imp__SetDlgItemTextA@12:PROC
EXTRN	_BrowseDirectories:PROC
EXTRN	__imp__GetWindowTextLengthA@4:PROC
EXTRN	__imp__EnableWindow@8:PROC
EXTRN	_IsButtonChecked:PROC
EXTRN	__imp__GetStockObject@4:PROC
EXTRN	__imp__SetBkMode@8:PROC
EXTRN	_OpenPageHelp:PROC
EXTRN	__imp__GetParent@4:PROC
EXTRN	__imp__ReleaseDC@8:PROC
EXTRN	__imp__EndPaint@8:PROC
EXTRN	__imp__TextOutW@20:PROC
EXTRN	__imp__SetTextAlign@8:PROC
EXTRN	__imp__SetBkColor@8:PROC
EXTRN	__imp__SetTextColor@8:PROC
EXTRN	__imp__FillRect@12:PROC
EXTRN	_CompensateYDPI:PROC
EXTRN	_CompensateXDPI:PROC
EXTRN	__imp__CreateSolidBrush@4:PROC
EXTRN	__imp__SelectObject@8:PROC
EXTRN	_AbortProcessSilent:PROC
EXTRN	__imp__BeginPaint@8:PROC
EXTRN	_localcleanup:PROC
EXTRN	__imp__EndDialog@8:PROC
EXTRN	_memset:PROC
;	COMDAT ?PageDebugId@?1??PageDialogProc@@9@16@4PADA
; File c:\program files (x86)\microsoft visual studio 9.0\vc\include\xstring
_BSS	SEGMENT
?PageDebugId@?1??PageDialogProc@@9@16@4PADA DB 080H DUP (?) ; `PageDialogProc'::`2'::PageDebugId
_BSS	ENDS
_BSS	SEGMENT
_DonTextColor DD 01H DUP (?)
_DonBkgColor DD	01H DUP (?)
_DonColorSchemeId DD 01H DUP (?)
_BSS	ENDS
;	COMDAT ??_C@_1CA@MBPOLHGL@?$AAT?$AAi?$AAm?$AAe?$AAs?$AA?5?$AAN?$AAe?$AAw?$AA?5?$AAR?$AAo?$AAm?$AAa?$AAn?$AA?$AA@
CONST	SEGMENT
??_C@_1CA@MBPOLHGL@?$AAT?$AAi?$AAm?$AAe?$AAs?$AA?5?$AAN?$AAe?$AAw?$AA?5?$AAR?$AAo?$AAm?$AAa?$AAn?$AA?$AA@ DB 'T'
	DB	00H, 'i', 00H, 'm', 00H, 'e', 00H, 's', 00H, ' ', 00H, 'N', 00H
	DB	'e', 00H, 'w', 00H, ' ', 00H, 'R', 00H, 'o', 00H, 'm', 00H, 'a'
	DB	00H, 'n', 00H, 00H, 00H			; `string'
CONST	ENDS
;	COMDAT ??_C@_1EG@KKLJGMFD@?$AAP?$AAl?$AAe?$AAa?$AAs?$AAe?$AA?5?$AAc?$AAo?$AAn?$AAs?$AAi?$AAd?$AAe?$AAr?$AA?5?$AAm?$AAa?$AAk?$AAi?$AAn?$AAg?$AA?5?$AAa?$AA?5?$AAd?$AAo?$AAn?$AAa?$AAt?$AAi?$AAo@
CONST	SEGMENT
??_C@_1EG@KKLJGMFD@?$AAP?$AAl?$AAe?$AAa?$AAs?$AAe?$AA?5?$AAc?$AAo?$AAn?$AAs?$AAi?$AAd?$AAe?$AAr?$AA?5?$AAm?$AAa?$AAk?$AAi?$AAn?$AAg?$AA?5?$AAa?$AA?5?$AAd?$AAo?$AAn?$AAa?$AAt?$AAi?$AAo@ DB 'P'
	DB	00H, 'l', 00H, 'e', 00H, 'a', 00H, 's', 00H, 'e', 00H, ' ', 00H
	DB	'c', 00H, 'o', 00H, 'n', 00H, 's', 00H, 'i', 00H, 'd', 00H, 'e'
	DB	00H, 'r', 00H, ' ', 00H, 'm', 00H, 'a', 00H, 'k', 00H, 'i', 00H
	DB	'n', 00H, 'g', 00H, ' ', 00H, 'a', 00H, ' ', 00H, 'd', 00H, 'o'
	DB	00H, 'n', 00H, 'a', 00H, 't', 00H, 'i', 00H, 'o', 00H, 'n', 00H
	DB	'.', 00H, 00H, 00H				; `string'
CONST	ENDS
;	COMDAT ??_C@_0BI@CKIDBLFB@SETUP_FINISHED_INFO_DON?$AA@
CONST	SEGMENT
??_C@_0BI@CKIDBLFB@SETUP_FINISHED_INFO_DON?$AA@ DB 'SETUP_FINISHED_INFO_D'
	DB	'ON', 00H					; `string'
CONST	ENDS
;	COMDAT ??_C@_0BJ@KIEFKBPA@SETUP_FINISHED_TITLE_DON?$AA@
CONST	SEGMENT
??_C@_0BJ@KIEFKBPA@SETUP_FINISHED_TITLE_DON?$AA@ DB 'SETUP_FINISHED_TITLE'
	DB	'_DON', 00H					; `string'
CONST	ENDS
;	COMDAT ??_C@_0CB@HFOJNJFM@SETUP_FINISHED_UPGRADE_TITLE_DON@
CONST	SEGMENT
??_C@_0CB@HFOJNJFM@SETUP_FINISHED_UPGRADE_TITLE_DON@ DB 'SETUP_FINISHED_U'
	DB	'PGRADE_TITLE_DON', 00H			; `string'
CONST	ENDS
;	COMDAT ??_C@_0BO@CCIEODIN@EXTRACTION_FINISHED_TITLE_DON?$AA@
CONST	SEGMENT
??_C@_0BO@CCIEODIN@EXTRACTION_FINISHED_TITLE_DON?$AA@ DB 'EXTRACTION_FINI'
	DB	'SHED_TITLE_DON', 00H			; `string'
CONST	ENDS
;	COMDAT ??_C@_0BE@FMNDIKAG@INSTALL_IN_PROGRESS?$AA@
CONST	SEGMENT
??_C@_0BE@FMNDIKAG@INSTALL_IN_PROGRESS?$AA@ DB 'INSTALL_IN_PROGRESS', 00H ; `string'
CONST	ENDS
;	COMDAT ??_C@_0BE@JGHDAHN@SETUP_PROGRESS_INFO?$AA@
CONST	SEGMENT
??_C@_0BE@JGHDAHN@SETUP_PROGRESS_INFO?$AA@ DB 'SETUP_PROGRESS_INFO', 00H ; `string'
CONST	ENDS
;	COMDAT ??_C@_0BF@FGINDNOJ@SETUP_PROGRESS_TITLE?$AA@
CONST	SEGMENT
??_C@_0BF@FGINDNOJ@SETUP_PROGRESS_TITLE?$AA@ DB 'SETUP_PROGRESS_TITLE', 00H ; `string'
CONST	ENDS
;	COMDAT ??_C@_07PJFGKPND@INSTALL?$AA@
CONST	SEGMENT
??_C@_07PJFGKPND@INSTALL?$AA@ DB 'INSTALL', 00H		; `string'
CONST	ENDS
;	COMDAT ??_C@_0CB@JOIIBOEC@Software?2Classes?2TrueCryptVolume@
CONST	SEGMENT
??_C@_0CB@JOIIBOEC@Software?2Classes?2TrueCryptVolume@ DB 'Software\Class'
	DB	'es\TrueCryptVolume', 00H			; `string'
CONST	ENDS
;	COMDAT ??_C@_0L@LGADMAPO@?2TrueCrypt?$AA@
CONST	SEGMENT
??_C@_0L@LGADMAPO@?2TrueCrypt?$AA@ DB '\TrueCrypt', 00H	; `string'
CONST	ENDS
;	COMDAT ??_C@_0M@HNGGAEIF@?2CipherShed?$AA@
CONST	SEGMENT
??_C@_0M@HNGGAEIF@?2CipherShed?$AA@ DB '\CipherShed', 00H ; `string'
CONST	ENDS
;	COMDAT ??_C@_0BK@GJOJHDCA@SETUP_UPGRADE_DESTINATION?$AA@
CONST	SEGMENT
??_C@_0BK@GJOJHDCA@SETUP_UPGRADE_DESTINATION?$AA@ DB 'SETUP_UPGRADE_DESTI'
	DB	'NATION', 00H				; `string'
CONST	ENDS
;	COMDAT ??_C@_0BD@BMMFNCA@SETUP_OPTIONS_INFO?$AA@
CONST	SEGMENT
??_C@_0BD@BMMFNCA@SETUP_OPTIONS_INFO?$AA@ DB 'SETUP_OPTIONS_INFO', 00H ; `string'
CONST	ENDS
;	COMDAT ??_C@_0BE@EDFPLLMN@SETUP_OPTIONS_TITLE?$AA@
CONST	SEGMENT
??_C@_0BE@EDFPLLMN@SETUP_OPTIONS_TITLE?$AA@ DB 'SETUP_OPTIONS_TITLE', 00H ; `string'
CONST	ENDS
;	COMDAT ??_C@_0BH@PEMNLIII@EXTRACTION_IN_PROGRESS?$AA@
CONST	SEGMENT
??_C@_0BH@PEMNLIII@EXTRACTION_IN_PROGRESS?$AA@ DB 'EXTRACTION_IN_PROGRESS'
	DB	00H						; `string'
CONST	ENDS
;	COMDAT ??_C@_0BJ@LJFMAAFG@EXTRACTION_PROGRESS_INFO?$AA@
CONST	SEGMENT
??_C@_0BJ@LJFMAAFG@EXTRACTION_PROGRESS_INFO?$AA@ DB 'EXTRACTION_PROGRESS_'
	DB	'INFO', 00H					; `string'
CONST	ENDS
;	COMDAT ??_C@_0BA@IBCNACGH@EXTRACTING_VERB?$AA@
CONST	SEGMENT
??_C@_0BA@IBCNACGH@EXTRACTING_VERB?$AA@ DB 'EXTRACTING_VERB', 00H ; `string'
CONST	ENDS
;	COMDAT ??_C@_07LBPFAJBE@EXTRACT?$AA@
CONST	SEGMENT
??_C@_07LBPFAJBE@EXTRACT?$AA@ DB 'EXTRACT', 00H		; `string'
CONST	ENDS
;	COMDAT ??_C@_0BF@HFEALDNI@AUTO_FOLDER_CREATION?$AA@
CONST	SEGMENT
??_C@_0BF@HFEALDNI@AUTO_FOLDER_CREATION?$AA@ DB 'AUTO_FOLDER_CREATION', 00H ; `string'
CONST	ENDS
;	COMDAT ??_C@_0BI@OKGEFEFK@EXTRACTION_OPTIONS_INFO?$AA@
CONST	SEGMENT
??_C@_0BI@OKGEFEFK@EXTRACTION_OPTIONS_INFO?$AA@ DB 'EXTRACTION_OPTIONS_IN'
	DB	'FO', 00H					; `string'
CONST	ENDS
;	COMDAT ??_C@_0BJ@PDGEILOG@EXTRACTION_OPTIONS_TITLE?$AA@
CONST	SEGMENT
??_C@_0BJ@PDGEILOG@EXTRACTION_OPTIONS_TITLE?$AA@ DB 'EXTRACTION_OPTIONS_T'
	DB	'ITLE', 00H					; `string'
CONST	ENDS
;	COMDAT ??_C@_0M@GMDAANJE@CipherShed?2?$AA@
CONST	SEGMENT
??_C@_0M@GMDAANJE@CipherShed?2?$AA@ DB 'CipherShed\', 00H ; `string'
CONST	ENDS
;	COMDAT ??_C@_0BI@ECIBEEIH@SETUP_MODE_HELP_INSTALL?$AA@
CONST	SEGMENT
??_C@_0BI@ECIBEEIH@SETUP_MODE_HELP_INSTALL?$AA@ DB 'SETUP_MODE_HELP_INSTA'
	DB	'LL', 00H					; `string'
CONST	ENDS
;	COMDAT ??_C@_0BI@JGKCNIKM@SETUP_MODE_HELP_UPGRADE?$AA@
CONST	SEGMENT
??_C@_0BI@JGKCNIKM@SETUP_MODE_HELP_UPGRADE?$AA@ DB 'SETUP_MODE_HELP_UPGRA'
	DB	'DE', 00H					; `string'
CONST	ENDS
;	COMDAT ??_C@_0BI@KCCOCEA@SETUP_MODE_HELP_EXTRACT?$AA@
CONST	SEGMENT
??_C@_0BI@KCCOCEA@SETUP_MODE_HELP_EXTRACT?$AA@ DB 'SETUP_MODE_HELP_EXTRAC'
	DB	'T', 00H					; `string'
CONST	ENDS
;	COMDAT ??_C@_0BA@PHBLGFGD@SETUP_MODE_INFO?$AA@
CONST	SEGMENT
??_C@_0BA@PHBLGFGD@SETUP_MODE_INFO?$AA@ DB 'SETUP_MODE_INFO', 00H ; `string'
CONST	ENDS
;	COMDAT ??_C@_0BB@KMHMHMNP@SETUP_MODE_TITLE?$AA@
CONST	SEGMENT
??_C@_0BB@KMHMHMNP@SETUP_MODE_TITLE?$AA@ DB 'SETUP_MODE_TITLE', 00H ; `string'
CONST	ENDS
;	COMDAT ??_C@_07CNHFDDPI@UPGRADE?$AA@
CONST	SEGMENT
??_C@_07CNHFDDPI@UPGRADE?$AA@ DB 'UPGRADE', 00H		; `string'
CONST	ENDS
;	COMDAT ??_C@_0BB@OFECFCBP@REPAIR_REINSTALL?$AA@
CONST	SEGMENT
??_C@_0BB@OFECFCBP@REPAIR_REINSTALL?$AA@ DB 'REPAIR_REINSTALL', 00H ; `string'
CONST	ENDS
;	COMDAT ??_C@_0BH@MFJOAEDC@CANNOT_DISPLAY_LICENSE?$AA@
CONST	SEGMENT
??_C@_0BH@MFJOAEDC@CANNOT_DISPLAY_LICENSE?$AA@ DB 'CANNOT_DISPLAY_LICENSE'
	DB	00H						; `string'
CONST	ENDS
;	COMDAT ??_C@_06JHILMIHF@CANCEL?$AA@
CONST	SEGMENT
??_C@_06JHILMIHF@CANCEL?$AA@ DB 'CANCEL', 00H		; `string'
CONST	ENDS
;	COMDAT ??_C@_04PKHKLFPJ@PREV?$AA@
CONST	SEGMENT
??_C@_04PKHKLFPJ@PREV?$AA@ DB 'PREV', 00H		; `string'
CONST	ENDS
;	COMDAT ??_C@_04MOKMKBJN@NEXT?$AA@
CONST	SEGMENT
??_C@_04MOKMKBJN@NEXT?$AA@ DB 'NEXT', 00H		; `string'
CONST	ENDS
;	COMDAT ??_C@_1DI@FKGEFKMH@?$AAI?$AA?5?$AA?$CG?$AAa?$AAc?$AAc?$AAe?$AAp?$AAt?$AA?5?$AAt?$AAh?$AAe?$AA?5?$AAl?$AAi?$AAc?$AAe?$AAn?$AAs?$AAe?$AA?5?$AAt?$AAe?$AAr?$AAm?$AAs?$AA?$AA@
CONST	SEGMENT
??_C@_1DI@FKGEFKMH@?$AAI?$AA?5?$AA?$CG?$AAa?$AAc?$AAc?$AAe?$AAp?$AAt?$AA?5?$AAt?$AAh?$AAe?$AA?5?$AAl?$AAi?$AAc?$AAe?$AAn?$AAs?$AAe?$AA?5?$AAt?$AAe?$AAr?$AAm?$AAs?$AA?$AA@ DB 'I'
	DB	00H, ' ', 00H, '&', 00H, 'a', 00H, 'c', 00H, 'c', 00H, 'e', 00H
	DB	'p', 00H, 't', 00H, ' ', 00H, 't', 00H, 'h', 00H, 'e', 00H, ' '
	DB	00H, 'l', 00H, 'i', 00H, 'c', 00H, 'e', 00H, 'n', 00H, 's', 00H
	DB	'e', 00H, ' ', 00H, 't', 00H, 'e', 00H, 'r', 00H, 'm', 00H, 's'
	DB	00H, 00H, 00H				; `string'
CONST	ENDS
;	COMDAT ??_C@_1BIA@MJJKLEKE@?$AAI?$AAM?$AAP?$AAO?$AAR?$AAT?$AAA?$AAN?$AAT?$AA?3?$AA?5?$AAB?$AAy?$AA?5?$AAc?$AAh?$AAe?$AAc?$AAk?$AAi?$AAn?$AAg?$AA?5?$AAt?$AAh?$AAe?$AA?5?$AAc?$AAh?$AAe?$AAc?$AAk@
CONST	SEGMENT
??_C@_1BIA@MJJKLEKE@?$AAI?$AAM?$AAP?$AAO?$AAR?$AAT?$AAA?$AAN?$AAT?$AA?3?$AA?5?$AAB?$AAy?$AA?5?$AAc?$AAh?$AAe?$AAc?$AAk?$AAi?$AAn?$AAg?$AA?5?$AAt?$AAh?$AAe?$AA?5?$AAc?$AAh?$AAe?$AAc?$AAk@ DB 'I'
	DB	00H, 'M', 00H, 'P', 00H, 'O', 00H, 'R', 00H, 'T', 00H, 'A', 00H
	DB	'N', 00H, 'T', 00H, ':', 00H, ' ', 00H, 'B', 00H, 'y', 00H, ' '
	DB	00H, 'c', 00H, 'h', 00H, 'e', 00H, 'c', 00H, 'k', 00H, 'i', 00H
	DB	'n', 00H, 'g', 00H, ' ', 00H, 't', 00H, 'h', 00H, 'e', 00H, ' '
	DB	00H, 'c', 00H, 'h', 00H, 'e', 00H, 'c', 00H, 'k', 00H, 'b', 00H
	DB	'o', 00H, 'x', 00H, ' ', 00H, 'b', 00H, 'e', 00H, 'l', 00H, 'o'
	DB	00H, 'w', 00H, ',', 00H, ' ', 00H, 'y', 00H, 'o', 00H, 'u', 00H
	DB	' ', 00H, 'a', 00H, 'c', 00H, 'c', 00H, 'e', 00H, 'p', 00H, 't'
	DB	00H, ' ', 00H, 't', 00H, 'h', 00H, 'e', 00H, 's', 00H, 'e', 00H
	DB	' ', 00H, 'l', 00H, 'i', 00H, 'c', 00H, 'e', 00H, 'n', 00H, 's'
	DB	00H, 'e', 00H, ' ', 00H, 't', 00H, 'e', 00H, 'r', 00H, 'm', 00H
	DB	's', 00H, ' ', 00H, 'a', 00H, 'n', 00H, 'd', 00H, ' ', 00H, 's'
	DB	00H, 'i', 00H, 'g', 00H, 'n', 00H, 'i', 00H, 'f', 00H, 'y', 00H
	DB	' ', 00H, 't', 00H, 'h', 00H, 'a', 00H, 't', 00H, ' ', 00H, 'y'
	DB	00H, 'o', 00H, 'u', 00H, ' ', 00H, 'u', 00H, 'n', 00H, 'd', 00H
	DB	'e', 00H, 'r', 00H, 's', 00H, 't', 00H, 'a', 00H, 'n', 00H, 'd'
	DB	00H, ' ', 00H, 'a', 00H, 'n', 00H, 'd', 00H, ' ', 00H, 'a', 00H
	DB	'g', 00H, 'r', 00H, 'e', 00H, 'e', 00H, ' ', 00H, 't', 00H, 'o'
	DB	00H, ' ', 00H, 't', 00H, 'h', 00H, 'e', 00H, 'm', 00H, '.', 00H
	DB	' ', 00H, 'P', 00H, 'l', 00H, 'e', 00H, 'a', 00H, 's', 00H, 'e'
	DB	00H, ' ', 00H, 'c', 00H, 'l', 00H, 'i', 00H, 'c', 00H, 'k', 00H
	DB	' ', 00H, 't', 00H, 'h', 00H, 'e', 00H, ' ', 00H, '''', 00H, 'a'
	DB	00H, 'r', 00H, 'r', 00H, 'o', 00H, 'w', 00H, ' ', 00H, 'd', 00H
	DB	'o', 00H, 'w', 00H, 'n', 00H, '''', 00H, ' ', 00H, 'i', 00H, 'c'
	DB	00H, 'o', 00H, 'n', 00H, ' ', 00H, 't', 00H, 'o', 00H, ' ', 00H
	DB	's', 00H, 'e', 00H, 'e', 00H, ' ', 00H, 't', 00H, 'h', 00H, 'e'
	DB	00H, ' ', 00H, 'r', 00H, 'e', 00H, 's', 00H, 't', 00H, ' ', 00H
	DB	'o', 00H, 'f', 00H, ' ', 00H, 't', 00H, 'h', 00H, 'e', 00H, ' '
	DB	00H, 'l', 00H, 'i', 00H, 'c', 00H, 'e', 00H, 'n', 00H, 's', 00H
	DB	'e', 00H, '.', 00H, 00H, 00H			; `string'
CONST	ENDS
;	COMDAT ??_C@_1LA@INOIFBMC@?$AAY?$AAo?$AAu?$AA?5?$AAm?$AAu?$AAs?$AAt?$AA?5?$AAa?$AAc?$AAc?$AAe?$AAp?$AAt?$AA?5?$AAt?$AAh?$AAe?$AAs?$AAe?$AA?5?$AAl?$AAi?$AAc?$AAe?$AAn?$AAs?$AAe?$AA?5?$AAt?$AAe@
CONST	SEGMENT
??_C@_1LA@INOIFBMC@?$AAY?$AAo?$AAu?$AA?5?$AAm?$AAu?$AAs?$AAt?$AA?5?$AAa?$AAc?$AAc?$AAe?$AAp?$AAt?$AA?5?$AAt?$AAh?$AAe?$AAs?$AAe?$AA?5?$AAl?$AAi?$AAc?$AAe?$AAn?$AAs?$AAe?$AA?5?$AAt?$AAe@ DB 'Y'
	DB	00H, 'o', 00H, 'u', 00H, ' ', 00H, 'm', 00H, 'u', 00H, 's', 00H
	DB	't', 00H, ' ', 00H, 'a', 00H, 'c', 00H, 'c', 00H, 'e', 00H, 'p'
	DB	00H, 't', 00H, ' ', 00H, 't', 00H, 'h', 00H, 'e', 00H, 's', 00H
	DB	'e', 00H, ' ', 00H, 'l', 00H, 'i', 00H, 'c', 00H, 'e', 00H, 'n'
	DB	00H, 's', 00H, 'e', 00H, ' ', 00H, 't', 00H, 'e', 00H, 'r', 00H
	DB	'm', 00H, 's', 00H, ' ', 00H, 'b', 00H, 'e', 00H, 'f', 00H, 'o'
	DB	00H, 'r', 00H, 'e', 00H, ' ', 00H, 'y', 00H, 'o', 00H, 'u', 00H
	DB	' ', 00H, 'c', 00H, 'a', 00H, 'n', 00H, ' ', 00H, 'u', 00H, 's'
	DB	00H, 'e', 00H, ',', 00H, ' ', 00H, 'e', 00H, 'x', 00H, 't', 00H
	DB	'r', 00H, 'a', 00H, 'c', 00H, 't', 00H, ',', 00H, ' ', 00H, 'o'
	DB	00H, 'r', 00H, ' ', 00H, 'i', 00H, 'n', 00H, 's', 00H, 't', 00H
	DB	'a', 00H, 'l', 00H, 'l', 00H, ' ', 00H, 'C', 00H, 'i', 00H, 'p'
	DB	00H, 'h', 00H, 'e', 00H, 'r', 00H, 'S', 00H, 'h', 00H, 'e', 00H
	DB	'd', 00H, '.', 00H, 00H, 00H			; `string'
CONST	ENDS
;	COMDAT ??_C@_1DM@EGEEIDAI@?$AAP?$AAl?$AAe?$AAa?$AAs?$AAe?$AA?5?$AAr?$AAe?$AAa?$AAd?$AA?5?$AAt?$AAh?$AAe?$AA?5?$AAl?$AAi?$AAc?$AAe?$AAn?$AAs?$AAe?$AA?5?$AAt?$AAe?$AAr?$AAm?$AAs?$AA?$AA@
CONST	SEGMENT
??_C@_1DM@EGEEIDAI@?$AAP?$AAl?$AAe?$AAa?$AAs?$AAe?$AA?5?$AAr?$AAe?$AAa?$AAd?$AA?5?$AAt?$AAh?$AAe?$AA?5?$AAl?$AAi?$AAc?$AAe?$AAn?$AAs?$AAe?$AA?5?$AAt?$AAe?$AAr?$AAm?$AAs?$AA?$AA@ DB 'P'
	DB	00H, 'l', 00H, 'e', 00H, 'a', 00H, 's', 00H, 'e', 00H, ' ', 00H
	DB	'r', 00H, 'e', 00H, 'a', 00H, 'd', 00H, ' ', 00H, 't', 00H, 'h'
	DB	00H, 'e', 00H, ' ', 00H, 'l', 00H, 'i', 00H, 'c', 00H, 'e', 00H
	DB	'n', 00H, 's', 00H, 'e', 00H, ' ', 00H, 't', 00H, 'e', 00H, 'r'
	DB	00H, 'm', 00H, 's', 00H, 00H, 00H		; `string'
CONST	ENDS
;	COMDAT ??_C@_0BF@EOKBACHI@SETUP_WIZARD_PAGE_?$CFd?$AA@
CONST	SEGMENT
??_C@_0BF@EOKBACHI@SETUP_WIZARD_PAGE_?$CFd?$AA@ DB 'SETUP_WIZARD_PAGE_%d', 00H ; `string'
CONST	ENDS
;	COMDAT ??_C@_0O@MGHONKG@IDD_INSTL_DLG?$AA@
CONST	SEGMENT
??_C@_0O@MGHONKG@IDD_INSTL_DLG?$AA@ DB 'IDD_INSTL_DLG', 00H ; `string'
CONST	ENDS
;	COMDAT ??_C@_06KCCPDNM@donate?$AA@
CONST	SEGMENT
??_C@_06KCCPDNM@donate?$AA@ DB 'donate', 00H		; `string'
CONST	ENDS
;	COMDAT ??_C@_07KNCOJMJF@?$CGref?$DN?$CFd?$AA@
CONST	SEGMENT
??_C@_07KNCOJMJF@?$CGref?$DN?$CFd?$AA@ DB '&ref=%d', 00H ; `string'
CONST	ENDS
;	COMDAT ??_C@_0BA@DJBAGGGN@SELECT_DEST_DIR?$AA@
CONST	SEGMENT
??_C@_0BA@DJBAGGGN@SELECT_DEST_DIR?$AA@ DB 'SELECT_DEST_DIR', 00H ; `string'
; Function compile flags: /Ogtpy
; File c:\home\public\desktop\projects\ciphershed.build\src\setup\wizard.c
CONST	ENDS
;	COMDAT _PageDialogProc@16
_TEXT	SEGMENT
$T102620 = -760						; size = 4
_driverVersion$95677 = -760				; size = 4
_hKey$95735 = -756					; size = 4
_trect$95910 = -752					; size = 16
_driverVersion$95709 = -736				; size = 4
$T102609 = -732						; size = 28
$T102608 = -704						; size = 28
$T102607 = -676						; size = 28
$T102610 = -648						; size = 28
_lf$95853 = -620					; size = 92
_tmpPaintStruct$95904 = -528				; size = 64
_path$95715 = -464					; size = 260
_tmpstr$95894 = -204					; size = 200
__$ArrayPad$ = -4					; size = 4
_hwndDlg$ = 8						; size = 4
_uMsg$ = 12						; size = 4
_wParam$ = 16						; size = 4
_lParam$ = 20						; size = 4
_PageDialogProc@16 PROC					; COMDAT

; 218  : {

  00000	81 ec f8 02 00
	00		 sub	 esp, 760		; 000002f8H
  00006	a1 00 00 00 00	 mov	 eax, DWORD PTR ___security_cookie
  0000b	33 c4		 xor	 eax, esp
  0000d	89 84 24 f4 02
	00 00		 mov	 DWORD PTR __$ArrayPad$[esp+760], eax
  00014	8b 84 24 04 03
	00 00		 mov	 eax, DWORD PTR _wParam$[esp+756]

; 219  : 	static char PageDebugId[128];
; 220  : 	WORD lw = LOWORD (wParam);
; 221  : 	WORD hw = HIWORD (wParam);
; 222  : 
; 223  : 	hCurPage = hwndDlg;
; 224  : 
; 225  : 	switch (uMsg)

  0001b	8b 8c 24 00 03
	00 00		 mov	 ecx, DWORD PTR _uMsg$[esp+756]
  00022	53		 push	 ebx
  00023	56		 push	 esi
  00024	8b b4 24 04 03
	00 00		 mov	 esi, DWORD PTR _hwndDlg$[esp+764]

; 504  : 
; 505  : 		case DONATIONS_PAGE:
; 506  : 
; 507  : 			SetWindowTextW (GetDlgItem (GetParent (hwndDlg), IDC_BOX_TITLE), GetString (bExtractOnly ? "EXTRACTION_FINISHED_TITLE_DON" : (bUpgrade ? "SETUP_FINISHED_UPGRADE_TITLE_DON" : "SETUP_FINISHED_TITLE_DON")));

  0002b	33 db		 xor	 ebx, ebx
  0002d	8b d0		 mov	 edx, eax
  0002f	c1 ea 10	 shr	 edx, 16			; 00000010H
  00032	89 5c 24 08	 mov	 DWORD PTR $T102620[esp+768], ebx
  00036	57		 push	 edi
  00037	89 35 00 00 00
	00		 mov	 DWORD PTR ?hCurPage@@3PAUHWND__@@A, esi ; hCurPage
  0003d	83 f9 53	 cmp	 ecx, 83			; 00000053H
  00040	0f 87 74 01 00
	00		 ja	 $LN93@PageDialog

; 219  : 	static char PageDebugId[128];
; 220  : 	WORD lw = LOWORD (wParam);
; 221  : 	WORD hw = HIWORD (wParam);
; 222  : 
; 223  : 	hCurPage = hwndDlg;
; 224  : 
; 225  : 	switch (uMsg)

  00046	0f 84 45 01 00
	00		 je	 $LN38@PageDialog
  0004c	83 e9 0f	 sub	 ecx, 15			; 0000000fH
  0004f	74 2f		 je	 SHORT $LN7@PageDialog
  00051	83 e9 05	 sub	 ecx, 5
  00054	74 23		 je	 SHORT $LN9@PageDialog
  00056	83 e9 02	 sub	 ecx, 2
  00059	75 1e		 jne	 SHORT $LN9@PageDialog

; 601  : 
; 602  : 	case WM_ENDSESSION:
; 603  : 
; 604  : 		bPromptTutorial = FALSE;
; 605  : 		bPromptReleaseNotes = FALSE;
; 606  : 
; 607  : 		EndDialog (MainDlg, 0);

  0005b	a1 00 00 00 00	 mov	 eax, DWORD PTR _MainDlg
  00060	53		 push	 ebx
  00061	50		 push	 eax
  00062	89 1d 00 00 00
	00		 mov	 DWORD PTR _bPromptTutorial, ebx
  00068	89 1d 00 00 00
	00		 mov	 DWORD PTR _bPromptReleaseNotes, ebx
  0006e	ff 15 00 00 00
	00		 call	 DWORD PTR __imp__EndDialog@8

; 608  : 		localcleanup ();

  00074	e8 00 00 00 00	 call	 _localcleanup
$LN9@PageDialog:

; 609  : 		return 0;

  00079	33 c0		 xor	 eax, eax
  0007b	e9 06 12 00 00	 jmp	 $LN79@PageDialog
$LN7@PageDialog:

; 714  : 				}
; 715  : 				return 1;
; 716  : 			}
; 717  : 		}
; 718  : 
; 719  : 		return 0;
; 720  : 
; 721  : 
; 722  : 	case WM_PAINT:
; 723  : 
; 724  : 		if (nCurPageNo == DONATIONS_PAGE)

  00080	83 3d 00 00 00
	00 06		 cmp	 DWORD PTR ?nCurPageNo@@3HA, 6 ; nCurPageNo
  00087	0f 85 fd 00 00
	00		 jne	 $LN6@PageDialog

; 725  : 		{
; 726  : 			PAINTSTRUCT tmpPaintStruct;
; 727  : 			HDC hdc = BeginPaint (hCurPage, &tmpPaintStruct); 

  0008d	8d 8c 24 f4 00
	00 00		 lea	 ecx, DWORD PTR _tmpPaintStruct$95904[esp+772]
  00094	51		 push	 ecx
  00095	56		 push	 esi
  00096	ff 15 00 00 00
	00		 call	 DWORD PTR __imp__BeginPaint@8
  0009c	8b f0		 mov	 esi, eax

; 728  : 
; 729  : 			if (hdc == NULL)

  0009e	3b f3		 cmp	 esi, ebx
  000a0	75 05		 jne	 SHORT $LN5@PageDialog

; 730  : 				AbortProcessSilent ();

  000a2	e8 00 00 00 00	 call	 _AbortProcessSilent
$LN5@PageDialog:

; 731  : 
; 732  : 			SelectObject (hdc, hDonTextFont);

  000a7	8b 15 00 00 00
	00		 mov	 edx, DWORD PTR _hDonTextFont
  000ad	52		 push	 edx
  000ae	56		 push	 esi
  000af	ff 15 00 00 00
	00		 call	 DWORD PTR __imp__SelectObject@8

; 733  : 
; 734  : 			if (DonColorSchemeId != 2)

  000b5	83 3d 00 00 00
	00 02		 cmp	 DWORD PTR _DonColorSchemeId, 2
  000bc	74 66		 je	 SHORT $LN4@PageDialog

; 735  : 			{
; 736  : 				HBRUSH tmpBrush = CreateSolidBrush (DonBkgColor);

  000be	a1 00 00 00 00	 mov	 eax, DWORD PTR _DonBkgColor
  000c3	50		 push	 eax
  000c4	ff 15 00 00 00
	00		 call	 DWORD PTR __imp__CreateSolidBrush@4
  000ca	8b f8		 mov	 edi, eax

; 737  : 
; 738  : 				if (tmpBrush == NULL)

  000cc	3b fb		 cmp	 edi, ebx
  000ce	75 05		 jne	 SHORT $LN3@PageDialog

; 739  : 					AbortProcessSilent ();

  000d0	e8 00 00 00 00	 call	 _AbortProcessSilent
$LN3@PageDialog:

; 740  : 
; 741  : 				RECT trect;
; 742  : 
; 743  : 				trect.left = 0;
; 744  : 				trect.right = CompensateXDPI (526);

  000d5	68 0e 02 00 00	 push	 526			; 0000020eH
  000da	89 5c 24 18	 mov	 DWORD PTR _trect$95910[esp+776], ebx
  000de	e8 00 00 00 00	 call	 _CompensateXDPI

; 745  : 				trect.top  = 0;
; 746  : 				trect.bottom = CompensateYDPI (246);

  000e3	68 f6 00 00 00	 push	 246			; 000000f6H
  000e8	89 44 24 24	 mov	 DWORD PTR _trect$95910[esp+788], eax
  000ec	89 5c 24 20	 mov	 DWORD PTR _trect$95910[esp+784], ebx
  000f0	e8 00 00 00 00	 call	 _CompensateYDPI
  000f5	83 c4 08	 add	 esp, 8

; 747  : 
; 748  : 				FillRect (hdc, &trect, tmpBrush);

  000f8	57		 push	 edi
  000f9	8d 4c 24 18	 lea	 ecx, DWORD PTR _trect$95910[esp+776]
  000fd	51		 push	 ecx
  000fe	56		 push	 esi
  000ff	89 44 24 2c	 mov	 DWORD PTR _trect$95910[esp+796], eax
  00103	ff 15 00 00 00
	00		 call	 DWORD PTR __imp__FillRect@12

; 749  : 
; 750  : 				SetTextColor (hdc, DonTextColor);

  00109	8b 15 00 00 00
	00		 mov	 edx, DWORD PTR _DonTextColor
  0010f	52		 push	 edx
  00110	56		 push	 esi
  00111	ff 15 00 00 00
	00		 call	 DWORD PTR __imp__SetTextColor@8

; 751  : 				SetBkColor (hdc, DonBkgColor);

  00117	a1 00 00 00 00	 mov	 eax, DWORD PTR _DonBkgColor
  0011c	50		 push	 eax
  0011d	56		 push	 esi
  0011e	ff 15 00 00 00
	00		 call	 DWORD PTR __imp__SetBkColor@8
$LN4@PageDialog:

; 752  : 			}
; 753  : 
; 754  : 			SetTextAlign(hdc, TA_CENTER);

  00124	6a 06		 push	 6
  00126	56		 push	 esi
  00127	ff 15 00 00 00
	00		 call	 DWORD PTR __imp__SetTextAlign@8

; 755  : 
; 756  : 			TextOutW (hdc,
; 757  : 				CompensateXDPI (258),
; 758  : 				CompensateYDPI (70),
; 759  : 				DonText.c_str(), 
; 760  : 				DonText.length()); 

  0012d	83 3d 18 00 00
	00 08		 cmp	 DWORD PTR ?DonText@@3V?$basic_string@_WU?$char_traits@_W@std@@V?$allocator@_W@2@@std@@A+24, 8
  00134	a1 04 00 00 00	 mov	 eax, DWORD PTR ?DonText@@3V?$basic_string@_WU?$char_traits@_W@std@@V?$allocator@_W@2@@std@@A+4
  00139	73 05		 jae	 SHORT $LN117@PageDialog
  0013b	b8 04 00 00 00	 mov	 eax, OFFSET ?DonText@@3V?$basic_string@_WU?$char_traits@_W@std@@V?$allocator@_W@2@@std@@A+4
$LN117@PageDialog:
  00140	8b 0d 14 00 00
	00		 mov	 ecx, DWORD PTR ?DonText@@3V?$basic_string@_WU?$char_traits@_W@std@@V?$allocator@_W@2@@std@@A+20
  00146	51		 push	 ecx
  00147	50		 push	 eax
  00148	6a 46		 push	 70			; 00000046H
  0014a	e8 00 00 00 00	 call	 _CompensateYDPI
  0014f	83 c4 04	 add	 esp, 4
  00152	50		 push	 eax
  00153	68 02 01 00 00	 push	 258			; 00000102H
  00158	e8 00 00 00 00	 call	 _CompensateXDPI
  0015d	83 c4 04	 add	 esp, 4
  00160	50		 push	 eax
  00161	56		 push	 esi
  00162	ff 15 00 00 00
	00		 call	 DWORD PTR __imp__TextOutW@20

; 761  : 			
; 762  : 			EndPaint (hCurPage, &tmpPaintStruct); 

  00168	a1 00 00 00 00	 mov	 eax, DWORD PTR ?hCurPage@@3PAUHWND__@@A ; hCurPage
  0016d	8d 94 24 f4 00
	00 00		 lea	 edx, DWORD PTR _tmpPaintStruct$95904[esp+772]
  00174	52		 push	 edx
  00175	50		 push	 eax
  00176	ff 15 00 00 00
	00		 call	 DWORD PTR __imp__EndPaint@8

; 763  : 			ReleaseDC (hCurPage, hdc);

  0017c	8b 0d 00 00 00
	00		 mov	 ecx, DWORD PTR ?hCurPage@@3PAUHWND__@@A ; hCurPage
  00182	56		 push	 esi
  00183	51		 push	 ecx
  00184	ff 15 00 00 00
	00		 call	 DWORD PTR __imp__ReleaseDC@8
$LN6@PageDialog:

; 764  : 		}
; 765  : 		return 0; 

  0018a	33 c0		 xor	 eax, eax
  0018c	e9 f5 10 00 00	 jmp	 $LN79@PageDialog
$LN38@PageDialog:

; 595  : 
; 596  : 	case WM_HELP:
; 597  : 		if (bLicenseAccepted)

  00191	39 1d 00 00 00
	00		 cmp	 DWORD PTR ?bLicenseAccepted@@3HA, ebx ; bLicenseAccepted
  00197	74 17		 je	 SHORT $LN37@PageDialog

; 598  : 			OpenPageHelp (GetParent (hwndDlg), nCurPageNo);

  00199	8b 15 00 00 00
	00		 mov	 edx, DWORD PTR ?nCurPageNo@@3HA ; nCurPageNo
  0019f	52		 push	 edx
  001a0	56		 push	 esi
  001a1	ff 15 00 00 00
	00		 call	 DWORD PTR __imp__GetParent@4
  001a7	50		 push	 eax
  001a8	e8 00 00 00 00	 call	 _OpenPageHelp
  001ad	83 c4 08	 add	 esp, 8
$LN37@PageDialog:

; 599  : 
; 600  : 		return 1;

  001b0	b8 01 00 00 00	 mov	 eax, 1
  001b5	e9 cc 10 00 00	 jmp	 $LN79@PageDialog
$LN93@PageDialog:

; 219  : 	static char PageDebugId[128];
; 220  : 	WORD lw = LOWORD (wParam);
; 221  : 	WORD hw = HIWORD (wParam);
; 222  : 
; 223  : 	hCurPage = hwndDlg;
; 224  : 
; 225  : 	switch (uMsg)

  001ba	81 e9 10 01 00
	00		 sub	 ecx, 272		; 00000110H
  001c0	0f 84 30 03 00
	00		 je	 $LN76@PageDialog
  001c6	83 e9 01	 sub	 ecx, 1
  001c9	74 1f		 je	 SHORT $LN35@PageDialog
  001cb	83 e9 27	 sub	 ecx, 39			; 00000027H

; 766  : 
; 767  : 
; 768  : 	case WM_CTLCOLORSTATIC:
; 769  : 
; 770  : 		/* This maintains the background under the transparent-backround texts */
; 771  : 
; 772  : 		SetBkMode ((HDC) wParam, TRANSPARENT);
; 773  : 		return ((LONG) (HBRUSH) (GetStockObject (NULL_BRUSH)));
; 774  : 
; 775  : 
; 776  : 	case WM_ERASEBKGND:
; 777  : 
; 778  : 		return 0;
; 779  : 	}
; 780  : 
; 781  : 	return 0;

  001ce	0f 85 a5 fe ff
	ff		 jne	 $LN9@PageDialog
  001d4	6a 01		 push	 1
  001d6	50		 push	 eax
  001d7	ff 15 00 00 00
	00		 call	 DWORD PTR __imp__SetBkMode@8
  001dd	6a 05		 push	 5
  001df	ff 15 00 00 00
	00		 call	 DWORD PTR __imp__GetStockObject@4
  001e5	e9 9c 10 00 00	 jmp	 $LN79@PageDialog
$LN35@PageDialog:

; 610  : 
; 611  : 
; 612  : 	case WM_COMMAND:
; 613  : 
; 614  : 		if (lw == IDC_AGREE && nCurPageNo == INTRO_PAGE)

  001ea	b9 fe 03 00 00	 mov	 ecx, 1022		; 000003feH
  001ef	66 3b c1	 cmp	 ax, cx
  001f2	8b 0d 00 00 00
	00		 mov	 ecx, DWORD PTR ?nCurPageNo@@3HA ; nCurPageNo
  001f8	75 3c		 jne	 SHORT $LN34@PageDialog
  001fa	3b cb		 cmp	 ecx, ebx
  001fc	75 70		 jne	 SHORT $LN32@PageDialog

; 615  : 		{
; 616  : 			EnableWindow (GetDlgItem (GetParent (hwndDlg), IDC_NEXT), IsButtonChecked (GetDlgItem (hwndDlg, IDC_AGREE)));

  001fe	8b 3d 00 00 00
	00		 mov	 edi, DWORD PTR __imp__GetDlgItem@8
  00204	68 fe 03 00 00	 push	 1022			; 000003feH
  00209	56		 push	 esi
  0020a	ff d7		 call	 edi
  0020c	50		 push	 eax
  0020d	e8 00 00 00 00	 call	 _IsButtonChecked
  00212	83 c4 04	 add	 esp, 4
  00215	50		 push	 eax
  00216	68 02 04 00 00	 push	 1026			; 00000402H
  0021b	56		 push	 esi
  0021c	ff 15 00 00 00
	00		 call	 DWORD PTR __imp__GetParent@4
  00222	50		 push	 eax
  00223	ff d7		 call	 edi
  00225	50		 push	 eax
  00226	ff 15 00 00 00
	00		 call	 DWORD PTR __imp__EnableWindow@8

; 617  : 			return 1;

  0022c	b8 01 00 00 00	 mov	 eax, 1
  00231	e9 50 10 00 00	 jmp	 $LN79@PageDialog
$LN34@PageDialog:

; 618  : 		}
; 619  : 
; 620  : 		if (lw == IDC_WIZARD_MODE_EXTRACT_ONLY && nCurPageNo == WIZARD_MODE_PAGE)

  00236	bf 01 04 00 00	 mov	 edi, 1025		; 00000401H
  0023b	66 3b c7	 cmp	 ax, di
  0023e	75 12		 jne	 SHORT $LN33@PageDialog
  00240	83 f9 01	 cmp	 ecx, 1
  00243	75 29		 jne	 SHORT $LN32@PageDialog

; 621  : 		{
; 622  : 			bExtractOnly = TRUE;

  00245	89 0d 00 00 00
	00		 mov	 DWORD PTR ?bExtractOnly@@3HA, ecx ; bExtractOnly

; 623  : 			return 1;

  0024b	8b c1		 mov	 eax, ecx
  0024d	e9 34 10 00 00	 jmp	 $LN79@PageDialog
$LN33@PageDialog:

; 624  : 		}
; 625  : 
; 626  : 		if (lw == IDC_WIZARD_MODE_INSTALL && nCurPageNo == WIZARD_MODE_PAGE)

  00252	bf 00 04 00 00	 mov	 edi, 1024		; 00000400H
  00257	66 3b c7	 cmp	 ax, di
  0025a	75 12		 jne	 SHORT $LN32@PageDialog
  0025c	83 f9 01	 cmp	 ecx, 1
  0025f	75 0d		 jne	 SHORT $LN32@PageDialog

; 627  : 		{
; 628  : 			bExtractOnly = FALSE;

  00261	89 1d 00 00 00
	00		 mov	 DWORD PTR ?bExtractOnly@@3HA, ebx ; bExtractOnly

; 629  : 			return 1;

  00267	8b c1		 mov	 eax, ecx
  00269	e9 18 10 00 00	 jmp	 $LN79@PageDialog
$LN32@PageDialog:

; 630  : 		}
; 631  : 
; 632  : 		if ( nCurPageNo == EXTRACTION_OPTIONS_PAGE && hw == EN_CHANGE )

  0026e	83 f9 04	 cmp	 ecx, 4
  00271	75 46		 jne	 SHORT $LN31@PageDialog
  00273	b9 00 03 00 00	 mov	 ecx, 768		; 00000300H
  00278	66 3b d1	 cmp	 dx, cx
  0027b	75 67		 jne	 SHORT $LN118@PageDialog
$LN133@PageDialog:

; 633  : 		{
; 634  : 			EnableWindow (GetDlgItem (MainDlg, IDC_NEXT), (GetWindowTextLengthA(GetDlgItem (hCurPage, IDC_DESTINATION)) > 1));

  0027d	68 e8 03 00 00	 push	 1000			; 000003e8H
  00282	56		 push	 esi
  00283	8b 35 00 00 00
	00		 mov	 esi, DWORD PTR __imp__GetDlgItem@8
  00289	ff d6		 call	 esi
  0028b	50		 push	 eax
  0028c	ff 15 00 00 00
	00		 call	 DWORD PTR __imp__GetWindowTextLengthA@4
  00292	33 d2		 xor	 edx, edx
  00294	83 f8 01	 cmp	 eax, 1
  00297	a1 00 00 00 00	 mov	 eax, DWORD PTR _MainDlg
  0029c	0f 9f c2	 setg	 dl
  0029f	52		 push	 edx
  002a0	68 02 04 00 00	 push	 1026			; 00000402H
  002a5	50		 push	 eax
  002a6	ff d6		 call	 esi
  002a8	50		 push	 eax
  002a9	ff 15 00 00 00
	00		 call	 DWORD PTR __imp__EnableWindow@8
$LN25@PageDialog:

; 635  : 			return 1;

  002af	b8 01 00 00 00	 mov	 eax, 1
  002b4	e9 cd 0f 00 00	 jmp	 $LN79@PageDialog
$LN31@PageDialog:

; 636  : 		}
; 637  : 
; 638  : 		if ( nCurPageNo == INSTALL_OPTIONS_PAGE && hw == EN_CHANGE )

  002b9	83 f9 02	 cmp	 ecx, 2
  002bc	0f 85 df 01 00
	00		 jne	 $LN20@PageDialog
  002c2	b9 00 03 00 00	 mov	 ecx, 768		; 00000300H
  002c7	66 3b d1	 cmp	 dx, cx
  002ca	74 b1		 je	 SHORT $LN133@PageDialog

; 661  : 				return 1;
; 662  : 			}
; 663  : 		}
; 664  : 
; 665  : 		if ( nCurPageNo == INSTALL_OPTIONS_PAGE )
; 666  : 		{
; 667  : 			switch (lw)

  002cc	0f b7 c0	 movzx	 eax, ax
  002cf	05 16 fc ff ff	 add	 eax, -1002		; fffffc16H
  002d4	83 f8 0b	 cmp	 eax, 11			; 0000000bH
  002d7	0f 87 9c fd ff
	ff		 ja	 $LN9@PageDialog
  002dd	ff 24 85 00 00
	00 00		 jmp	 DWORD PTR $LN134@PageDialog[eax*4]
$LN118@PageDialog:

; 639  : 		{
; 640  : 			EnableWindow (GetDlgItem (MainDlg, IDC_NEXT), (GetWindowTextLengthA(GetDlgItem (hCurPage, IDC_DESTINATION)) > 1));
; 641  : 			return 1;
; 642  : 		}
; 643  : 
; 644  : 		if ( nCurPageNo == EXTRACTION_OPTIONS_PAGE )
; 645  : 		{
; 646  : 			switch (lw)

  002e4	0f b7 c0	 movzx	 eax, ax
  002e7	2d ea 03 00 00	 sub	 eax, 1002		; 000003eaH
  002ec	74 2d		 je	 SHORT $LN26@PageDialog
  002ee	83 e8 13	 sub	 eax, 19			; 00000013H
  002f1	0f 85 82 fd ff
	ff		 jne	 $LN9@PageDialog

; 656  : 				}
; 657  : 				return 1;
; 658  : 
; 659  : 			case IDC_OPEN_CONTAINING_FOLDER:
; 660  : 				bOpenContainingFolder = IsButtonChecked (GetDlgItem (hCurPage, IDC_OPEN_CONTAINING_FOLDER));

  002f7	68 fd 03 00 00	 push	 1021			; 000003fdH
  002fc	56		 push	 esi
  002fd	ff 15 00 00 00
	00		 call	 DWORD PTR __imp__GetDlgItem@8
  00303	50		 push	 eax
  00304	e8 00 00 00 00	 call	 _IsButtonChecked
  00309	a3 00 00 00 00	 mov	 DWORD PTR ?bOpenContainingFolder@@3HA, eax ; bOpenContainingFolder
  0030e	83 c4 04	 add	 esp, 4
  00311	b8 01 00 00 00	 mov	 eax, 1
  00316	e9 6b 0f 00 00	 jmp	 $LN79@PageDialog
$LN26@PageDialog:

; 647  : 			{
; 648  : 			case IDC_BROWSE:
; 649  : 				if (BrowseDirectories (hwndDlg, "SELECT_DEST_DIR", WizardDestExtractPath))

  0031b	68 00 00 00 00	 push	 OFFSET ?WizardDestExtractPath@@3PADA ; WizardDestExtractPath
  00320	68 00 00 00 00	 push	 OFFSET ??_C@_0BA@DJBAGGGN@SELECT_DEST_DIR?$AA@
  00325	56		 push	 esi
  00326	e8 00 00 00 00	 call	 _BrowseDirectories
  0032b	83 c4 0c	 add	 esp, 12			; 0000000cH
  0032e	85 c0		 test	 eax, eax
  00330	0f 84 79 ff ff
	ff		 je	 $LN25@PageDialog

; 650  : 				{
; 651  : 					if (WizardDestExtractPath [strlen(WizardDestExtractPath)-1] != '\\')

  00336	b8 00 00 00 00	 mov	 eax, OFFSET ?WizardDestExtractPath@@3PADA ; WizardDestExtractPath
  0033b	8d 50 01	 lea	 edx, DWORD PTR [eax+1]
  0033e	8b ff		 npad	 2
$LL120@PageDialog:
  00340	8a 08		 mov	 cl, BYTE PTR [eax]
  00342	40		 inc	 eax
  00343	84 c9		 test	 cl, cl
  00345	75 f9		 jne	 SHORT $LL120@PageDialog
  00347	2b c2		 sub	 eax, edx
  00349	80 b8 ff ff ff
	ff 5c		 cmp	 BYTE PTR ?WizardDestExtractPath@@3PADA[eax-1], 92 ; 0000005cH
  00350	74 18		 je	 SHORT $LN24@PageDialog

; 652  : 					{
; 653  : 						strcat (WizardDestExtractPath, "\\");

  00352	bf 00 00 00 00	 mov	 edi, OFFSET ?WizardDestExtractPath@@3PADA ; WizardDestExtractPath
  00357	4f		 dec	 edi
$LL121@PageDialog:
  00358	8a 47 01	 mov	 al, BYTE PTR [edi+1]
  0035b	47		 inc	 edi
  0035c	84 c0		 test	 al, al
  0035e	75 f8		 jne	 SHORT $LL121@PageDialog
  00360	66 8b 0d 00 00
	00 00		 mov	 cx, WORD PTR ??_C@_01KICIPPFI@?2?$AA@
  00367	66 89 0f	 mov	 WORD PTR [edi], cx
$LN24@PageDialog:

; 654  : 					}
; 655  : 					SetDlgItemText (hwndDlg, IDC_DESTINATION, WizardDestExtractPath);

  0036a	68 00 00 00 00	 push	 OFFSET ?WizardDestExtractPath@@3PADA ; WizardDestExtractPath
  0036f	68 e8 03 00 00	 push	 1000			; 000003e8H
  00374	56		 push	 esi
  00375	ff 15 00 00 00
	00		 call	 DWORD PTR __imp__SetDlgItemTextA@12
  0037b	b8 01 00 00 00	 mov	 eax, 1
  00380	e9 01 0f 00 00	 jmp	 $LN79@PageDialog
$LN19@PageDialog:

; 668  : 			{
; 669  : 			case IDC_BROWSE:
; 670  : 				if (BrowseDirectories (hwndDlg, "SELECT_DEST_DIR", WizardDestInstallPath))

  00385	68 00 00 00 00	 push	 OFFSET ?WizardDestInstallPath@@3PADA ; WizardDestInstallPath
  0038a	68 00 00 00 00	 push	 OFFSET ??_C@_0BA@DJBAGGGN@SELECT_DEST_DIR?$AA@
  0038f	56		 push	 esi
  00390	e8 00 00 00 00	 call	 _BrowseDirectories
  00395	83 c4 0c	 add	 esp, 12			; 0000000cH
  00398	85 c0		 test	 eax, eax
  0039a	0f 84 0f ff ff
	ff		 je	 $LN25@PageDialog

; 671  : 				{
; 672  : 					if (WizardDestInstallPath [strlen(WizardDestInstallPath)-1] != '\\')

  003a0	b8 00 00 00 00	 mov	 eax, OFFSET ?WizardDestInstallPath@@3PADA ; WizardDestInstallPath
  003a5	8d 50 01	 lea	 edx, DWORD PTR [eax+1]
$LL122@PageDialog:
  003a8	8a 08		 mov	 cl, BYTE PTR [eax]
  003aa	40		 inc	 eax
  003ab	84 c9		 test	 cl, cl
  003ad	75 f9		 jne	 SHORT $LL122@PageDialog
  003af	2b c2		 sub	 eax, edx
  003b1	80 b8 ff ff ff
	ff 5c		 cmp	 BYTE PTR ?WizardDestInstallPath@@3PADA[eax-1], 92 ; 0000005cH
  003b8	74 18		 je	 SHORT $LN17@PageDialog

; 673  : 					{
; 674  : 						strcat (WizardDestInstallPath, "\\");

  003ba	bf 00 00 00 00	 mov	 edi, OFFSET ?WizardDestInstallPath@@3PADA ; WizardDestInstallPath
  003bf	4f		 dec	 edi
$LL123@PageDialog:
  003c0	8a 47 01	 mov	 al, BYTE PTR [edi+1]
  003c3	47		 inc	 edi
  003c4	84 c0		 test	 al, al
  003c6	75 f8		 jne	 SHORT $LL123@PageDialog
  003c8	66 8b 15 00 00
	00 00		 mov	 dx, WORD PTR ??_C@_01KICIPPFI@?2?$AA@
  003cf	66 89 17	 mov	 WORD PTR [edi], dx
$LN17@PageDialog:

; 675  : 					}
; 676  : 					SetDlgItemText (hwndDlg, IDC_DESTINATION, WizardDestInstallPath);

  003d2	68 00 00 00 00	 push	 OFFSET ?WizardDestInstallPath@@3PADA ; WizardDestInstallPath
  003d7	68 e8 03 00 00	 push	 1000			; 000003e8H
  003dc	56		 push	 esi
  003dd	ff 15 00 00 00
	00		 call	 DWORD PTR __imp__SetDlgItemTextA@12
  003e3	b8 01 00 00 00	 mov	 eax, 1
  003e8	e9 99 0e 00 00	 jmp	 $LN79@PageDialog
$LN16@PageDialog:

; 677  : 				}
; 678  : 				return 1;
; 679  : 
; 680  : 			case IDC_SYSTEM_RESTORE:
; 681  : 				bSystemRestore = IsButtonChecked (GetDlgItem (hCurPage, IDC_SYSTEM_RESTORE));

  003ed	68 f3 03 00 00	 push	 1011			; 000003f3H
  003f2	56		 push	 esi
  003f3	ff 15 00 00 00
	00		 call	 DWORD PTR __imp__GetDlgItem@8
  003f9	50		 push	 eax
  003fa	e8 00 00 00 00	 call	 _IsButtonChecked
  003ff	a3 00 00 00 00	 mov	 DWORD PTR _bSystemRestore, eax
  00404	83 c4 04	 add	 esp, 4
  00407	b8 01 00 00 00	 mov	 eax, 1
  0040c	e9 75 0e 00 00	 jmp	 $LN79@PageDialog
$LN15@PageDialog:

; 682  : 				return 1;
; 683  : 
; 684  : 			case IDC_ALL_USERS:
; 685  : 				bForAllUsers = IsButtonChecked (GetDlgItem (hCurPage, IDC_ALL_USERS));

  00411	68 f5 03 00 00	 push	 1013			; 000003f5H
  00416	56		 push	 esi
  00417	ff 15 00 00 00
	00		 call	 DWORD PTR __imp__GetDlgItem@8
  0041d	50		 push	 eax
  0041e	e8 00 00 00 00	 call	 _IsButtonChecked
  00423	a3 00 00 00 00	 mov	 DWORD PTR _bForAllUsers, eax
  00428	83 c4 04	 add	 esp, 4
  0042b	b8 01 00 00 00	 mov	 eax, 1
  00430	e9 51 0e 00 00	 jmp	 $LN79@PageDialog
$LN14@PageDialog:

; 686  : 				return 1;
; 687  : 
; 688  : 			case IDC_FILE_TYPE:
; 689  : 				bRegisterFileExt = IsButtonChecked (GetDlgItem (hCurPage, IDC_FILE_TYPE));

  00435	68 f0 03 00 00	 push	 1008			; 000003f0H
  0043a	56		 push	 esi
  0043b	ff 15 00 00 00
	00		 call	 DWORD PTR __imp__GetDlgItem@8
  00441	50		 push	 eax
  00442	e8 00 00 00 00	 call	 _IsButtonChecked
  00447	a3 00 00 00 00	 mov	 DWORD PTR _bRegisterFileExt, eax
  0044c	83 c4 04	 add	 esp, 4
  0044f	b8 01 00 00 00	 mov	 eax, 1
  00454	e9 2d 0e 00 00	 jmp	 $LN79@PageDialog
$LN13@PageDialog:

; 690  : 				return 1;
; 691  : 
; 692  : 			case IDC_PROG_GROUP:
; 693  : 				bAddToStartMenu = IsButtonChecked (GetDlgItem (hCurPage, IDC_PROG_GROUP));

  00459	68 f2 03 00 00	 push	 1010			; 000003f2H
  0045e	56		 push	 esi
  0045f	ff 15 00 00 00
	00		 call	 DWORD PTR __imp__GetDlgItem@8
  00465	50		 push	 eax
  00466	e8 00 00 00 00	 call	 _IsButtonChecked
  0046b	a3 00 00 00 00	 mov	 DWORD PTR _bAddToStartMenu, eax
  00470	83 c4 04	 add	 esp, 4
  00473	b8 01 00 00 00	 mov	 eax, 1
  00478	e9 09 0e 00 00	 jmp	 $LN79@PageDialog
$LN12@PageDialog:

; 694  : 				return 1;
; 695  : 
; 696  : 			case IDC_DESKTOP_ICON:
; 697  : 				bDesktopIcon = IsButtonChecked (GetDlgItem (hCurPage, IDC_DESKTOP_ICON));

  0047d	68 f4 03 00 00	 push	 1012			; 000003f4H
  00482	56		 push	 esi
  00483	ff 15 00 00 00
	00		 call	 DWORD PTR __imp__GetDlgItem@8
  00489	50		 push	 eax
  0048a	e8 00 00 00 00	 call	 _IsButtonChecked
  0048f	a3 00 00 00 00	 mov	 DWORD PTR _bDesktopIcon, eax
  00494	83 c4 04	 add	 esp, 4
  00497	b8 01 00 00 00	 mov	 eax, 1
  0049c	e9 e5 0d 00 00	 jmp	 $LN79@PageDialog
$LN20@PageDialog:

; 698  : 				return 1;
; 699  : 
; 700  : 			}
; 701  : 		}
; 702  : 
; 703  : 		if (nCurPageNo == DONATIONS_PAGE)

  004a1	83 f9 06	 cmp	 ecx, 6
  004a4	0f 85 cf fb ff
	ff		 jne	 $LN9@PageDialog

; 704  : 		{
; 705  : 			switch (lw)

  004aa	b9 08 04 00 00	 mov	 ecx, 1032		; 00000408H
  004af	66 3b c1	 cmp	 ax, cx
  004b2	0f 85 c1 fb ff
	ff		 jne	 $LN9@PageDialog

; 706  : 			{
; 707  : 			case IDC_DONATE:
; 708  : 				{
; 709  : 					char tmpstr [200];
; 710  : 
; 711  : 					snprintf (tmpstr, sizeof(tmpstr), "&ref=%d", DonColorSchemeId);

  004b8	8b 15 00 00 00
	00		 mov	 edx, DWORD PTR _DonColorSchemeId
  004be	52		 push	 edx
  004bf	68 00 00 00 00	 push	 OFFSET ??_C@_07KNCOJMJF@?$CGref?$DN?$CFd?$AA@
  004c4	8d 84 24 40 02
	00 00		 lea	 eax, DWORD PTR _tmpstr$95894[esp+780]
  004cb	68 c8 00 00 00	 push	 200			; 000000c8H
  004d0	50		 push	 eax
  004d1	e8 00 00 00 00	 call	 _sprintf_s

; 712  : 
; 713  : 					Applink ("donate", FALSE, tmpstr);

  004d6	8d 8c 24 48 02
	00 00		 lea	 ecx, DWORD PTR _tmpstr$95894[esp+788]
  004dd	51		 push	 ecx
  004de	53		 push	 ebx
  004df	68 00 00 00 00	 push	 OFFSET ??_C@_06KCCPDNM@donate?$AA@
  004e4	e8 00 00 00 00	 call	 _Applink
  004e9	83 c4 1c	 add	 esp, 28			; 0000001cH
  004ec	b8 01 00 00 00	 mov	 eax, 1
  004f1	e9 90 0d 00 00	 jmp	 $LN79@PageDialog
$LN76@PageDialog:
  004f6	55		 push	 ebp

; 226  : 	{
; 227  : 	case WM_INITDIALOG:
; 228  : 		LocalizeDialog (hwndDlg, "IDD_INSTL_DLG");

  004f7	68 00 00 00 00	 push	 OFFSET ??_C@_0O@MGHONKG@IDD_INSTL_DLG?$AA@
  004fc	56		 push	 esi
  004fd	e8 00 00 00 00	 call	 _LocalizeDialog

; 229  : 
; 230  : 		snprintf (PageDebugId, sizeof(PageDebugId), "SETUP_WIZARD_PAGE_%d", nCurPageNo);

  00502	8b 15 00 00 00
	00		 mov	 edx, DWORD PTR ?nCurPageNo@@3HA ; nCurPageNo
  00508	52		 push	 edx
  00509	68 00 00 00 00	 push	 OFFSET ??_C@_0BF@EOKBACHI@SETUP_WIZARD_PAGE_?$CFd?$AA@
  0050e	68 80 00 00 00	 push	 128			; 00000080H
  00513	68 00 00 00 00	 push	 OFFSET ?PageDebugId@?1??PageDialogProc@@9@16@4PADA
  00518	e8 00 00 00 00	 call	 _sprintf_s

; 231  : 		LastDialogId = PageDebugId;
; 232  : 
; 233  : 		switch (nCurPageNo)

  0051d	a1 00 00 00 00	 mov	 eax, DWORD PTR ?nCurPageNo@@3HA ; nCurPageNo
  00522	83 c4 18	 add	 esp, 24			; 00000018H
  00525	c7 05 00 00 00
	00 00 00 00 00	 mov	 DWORD PTR _LastDialogId, OFFSET ?PageDebugId@?1??PageDialogProc@@9@16@4PADA
  0052f	83 f8 06	 cmp	 eax, 6
  00532	0f 87 4b 0d 00
	00		 ja	 $LN74@PageDialog
  00538	ff 24 85 00 00
	00 00		 jmp	 DWORD PTR $LN135@PageDialog[eax*4]
$LN73@PageDialog:

; 234  : 		{
; 235  : 		case INTRO_PAGE:
; 236  : 			{
; 237  : 				char *licenseText = NULL;
; 238  : 
; 239  : 				licenseText = GetLegalNotices ();

  0053f	e8 00 00 00 00	 call	 _GetLegalNotices
  00544	8b e8		 mov	 ebp, eax

; 240  : 				if (licenseText != NULL)

  00546	3b eb		 cmp	 ebp, ebx
  00548	0f 84 4c 01 00
	00		 je	 $LN72@PageDialog

; 241  : 				{
