; Listing generated by Microsoft (R) Optimizing Compiler Version 15.00.30729.207 

include listing.inc

INCLUDELIB OLDNAMES

PUBLIC	RootDeviceObject
PUBLIC	DriverShuttingDown
PUBLIC	OsMajorVersion
PUBLIC	DriverUnloadDisabled
PUBLIC	PortableMode
PUBLIC	VolumeClassFilterRegistered
PUBLIC	CacheBootPassword
PUBLIC	NonAdminSystemFavoritesAccessDisabled
PUBLIC	??_C@_1CE@IPABBIFA@?$AA?2?$AAD?$AAe?$AAv?$AAi?$AAc?$AAe?$AA?2?$AAT?$AAr?$AAu?$AAe?$AAC?$AAr?$AAy?$AAp?$AAt?$AA?$AA@PBOPGDP@ ;  ?? ::PBOPGDP::`string'
PUBLIC	??_C@_1M@IOJLKPKK@?$AAS?$AAt?$AAa?$AAr?$AAt?$AA?$AA@PBOPGDP@ ;  ?? ::PBOPGDP::`string'
PUBLIC	??_C@_1CM@KJDLPNIG@?$AA?2?$AAD?$AAo?$AAs?$AAD?$AAe?$AAv?$AAi?$AAc?$AAe?$AAs?$AA?2?$AAT?$AAr?$AAu?$AAe?$AAC?$AAr?$AAy?$AAp?$AAt?$AA?$AA@PBOPGDP@ ;  ?? ::PBOPGDP::`string'
PUBLIC	??_C@_0BA@OLBPPLP@TrueCryptVolume?$AA@FNODOBFM@	;  ?? ::FNODOBFM::`string'
PUBLIC	??_C@_0L@FEEFGEIL@CipherShed?$AA@FNODOBFM@	;  ?? ::FNODOBFM::`string'
PUBLIC	??_C@_09EMKKFGIH@TrueCrypt?$AA@FNODOBFM@	;  ?? ::FNODOBFM::`string'
PUBLIC	??_C@_1BA@CCLAPIHO@?$AA?2?$AAD?$AAe?$AAv?$AAi?$AAc?$AAe?$AA?$AA@FNODOBFM@ ;  ?? ::FNODOBFM::`string'
PUBLIC	??_C@_19JHEHLFPM@?$AA?2?$AA?$DP?$AA?$DP?$AA?2?$AA?$AA@FNODOBFM@ ;  ?? ::FNODOBFM::`string'
PUBLIC	??_C@_1DA@GMJGMIMP@?$AA?2?$AAD?$AAe?$AAv?$AAi?$AAc?$AAe?$AA?2?$AAT?$AAr?$AAu?$AAe?$AAC?$AAr?$AAy?$AAp?$AAt?$AAV?$AAo?$AAl?$AAu?$AAm?$AAe?$AA?$AA@FNODOBFM@ ;  ?? ::FNODOBFM::`string'
PUBLIC	??_C@_1BK@LABJKOM@?$AA?2?$AAD?$AAo?$AAs?$AAD?$AAe?$AAv?$AAi?$AAc?$AAe?$AAs?$AA?2?$AA?$AA@FNODOBFM@ ;  ?? ::FNODOBFM::`string'
PUBLIC	??_C@_1CM@KJDLPNIG@?$AA?2?$AAD?$AAo?$AAs?$AAD?$AAe?$AAv?$AAi?$AAc?$AAe?$AAs?$AA?2?$AAT?$AAr?$AAu?$AAe?$AAC?$AAr?$AAy?$AAp?$AAt?$AA?$AA@FNODOBFM@ ;  ?? ::FNODOBFM::`string'
PUBLIC	??_C@_1EA@FPAPEGHJ@?$AAP?$AAs?$AAD?$AAe?$AAr?$AAe?$AAf?$AAe?$AAr?$AAe?$AAn?$AAc?$AAe?$AAI?$AAm?$AAp?$AAe?$AAr?$AAs?$AAo?$AAn?$AAa?$AAt?$AAi?$AAo?$AAn?$AAT?$AAo?$AAk?$AAe?$AAn?$AA?$AA@FNODOBFM@ ;  ?? ::FNODOBFM::`string'
PUBLIC	??_C@_1DE@MJJBHHAG@?$AA?2?$AAD?$AAe?$AAv?$AAi?$AAc?$AAe?$AA?2?$AAM?$AAo?$AAu?$AAn?$AAt?$AAP?$AAo?$AAi?$AAn?$AAt?$AAM?$AAa?$AAn?$AAa?$AAg?$AAe?$AAr?$AA?$AA@FNODOBFM@ ;  ?? ::FNODOBFM::`string'
PUBLIC	??_C@_1MA@BNNNAGDA@?$AA?2?$AAR?$AAE?$AAG?$AAI?$AAS?$AAT?$AAR?$AAY?$AA?2?$AAM?$AAA?$AAC?$AAH?$AAI?$AAN?$AAE?$AA?2?$AAS?$AAY?$AAS?$AAT?$AAE?$AAM?$AA?2?$AAC?$AAu?$AAr?$AAr?$AAe?$AAn?$AAt@FNODOBFM@ ;  ?? ::FNODOBFM::`string'
PUBLIC	??_C@_1BK@FNJCPENK@?$AAU?$AAp?$AAp?$AAe?$AAr?$AAF?$AAi?$AAl?$AAt?$AAe?$AAr?$AAs?$AA?$AA@FNODOBFM@ ;  ?? ::FNODOBFM::`string'
PUBLIC	??_C@_1BE@OBOIPPHP@?$AAt?$AAr?$AAu?$AAe?$AAc?$AAr?$AAy?$AAp?$AAt?$AA?$AA@FNODOBFM@ ;  ?? ::FNODOBFM::`string'
PUBLIC	??_C@_1HM@GLBNDPGI@?$AA?2?$AAR?$AAE?$AAG?$AAI?$AAS?$AAT?$AAR?$AAY?$AA?2?$AAM?$AAA?$AAC?$AAH?$AAI?$AAN?$AAE?$AA?2?$AAS?$AAY?$AAS?$AAT?$AAE?$AAM?$AA?2?$AAC?$AAu?$AAr?$AAr?$AAe?$AAn?$AAt@FNODOBFM@ ;  ?? ::FNODOBFM::`string'
PUBLIC	??_C@_1CA@LGEHFLCO@?$AAT?$AAr?$AAu?$AAe?$AAC?$AAr?$AAy?$AAp?$AAt?$AAC?$AAo?$AAn?$AAf?$AAi?$AAg?$AA?$AA@FNODOBFM@ ;  ?? ::FNODOBFM::`string'
PUBLIC	??_C@_1EA@CEOJFLPD@?$AAT?$AAr?$AAu?$AAe?$AAC?$AAr?$AAy?$AAp?$AAt?$AAE?$AAn?$AAc?$AAr?$AAy?$AAp?$AAt?$AAi?$AAo?$AAn?$AAF?$AAr?$AAe?$AAe?$AAC?$AAp?$AAu?$AAC?$AAo?$AAu?$AAn?$AAt?$AA?$AA@FNODOBFM@ ;  ?? ::FNODOBFM::`string'
EXTRN	__imp_PsGetVersion:PROC
EXTRN	__imp_IoGetDeviceInterfaces:PROC
EXTRN	GUID_DEVINTERFACE_VOLUME:BYTE
EXTRN	__imp_IoRegisterShutdownNotification:PROC
EXTRN	__imp_KeInitializeSemaphore:PROC
EXTRN	__imp_IoEnumerateDeviceObjectList:PROC
EXTRN	__imp_ObOpenObjectByPointer:PROC
EXTRN	__imp_PsCreateSystemThread:PROC
EXTRN	__imp_SeCreateClientSecurity:PROC
EXTRN	__imp_KeReleaseSemaphore:PROC
EXTRN	__imp_KeInitializeTimerEx:PROC
EXTRN	__imp_KeSetTimerEx:PROC
EXTRN	__imp_wcsncat:PROC
EXTRN	__imp_MmGetSystemRoutineAddress:PROC
EXTRN	__imp_SeTokenType:PROC
EXTRN	__imp_IoGetDeviceObjectPointer:PROC
EXTRN	__imp_ObReferenceObjectByHandle:PROC
EXTRN	__imp_IoBuildSynchronousFsdRequest:PROC
EXTRN	__imp_ObfReferenceObject:PROC
EXTRN	__imp_IoBuildDeviceIoControlRequest:PROC
EXTRN	__imp_IoGetRelatedDeviceObject:PROC
EXTRN	__imp_IoCreateSymbolicLink:PROC
EXTRN	__imp_IoDeleteSymbolicLink:PROC
EXTRN	__imp_RtlLengthSid:PROC
EXTRN	__imp_RtlCopySid:PROC
EXTRN	__imp_ZwQuerySymbolicLinkObject:PROC
EXTRN	__imp_ZwCreateFile:PROC
EXTRN	__imp_ZwOpenSymbolicLinkObject:PROC
EXTRN	__imp_IofCompleteRequest:PROC
EXTRN	__imp_KeQueryActiveProcessors:PROC
EXTRN	__imp_KeDelayExecutionThread:PROC
EXTRN	__imp_ZwQueryValueKey:PROC
EXTRN	__imp_ZwClose:PROC
EXTRN	__imp_ZwOpenKey:PROC
EXTRN	__imp_ZwSetValueKey:PROC
EXTRN	__imp_RtlInitUnicodeString:PROC
EXTRN	__imp_SeCaptureSubjectContext:PROC
EXTRN	__imp_SeLockSubjectContext:PROC
EXTRN	__imp_SeUnlockSubjectContext:PROC
EXTRN	__imp_SeReleaseSubjectContext:PROC
EXTRN	__imp_RtlEqualSid:PROC
EXTRN	__imp_SeTokenIsAdmin:PROC
EXTRN	__imp_SeQueryInformationToken:PROC
EXTRN	__imp_KeQueryPerformanceCounter:PROC
COMM	VirtualVolumeDeviceObjects:QWORD:01aH
COMM	TCDriverObject:QWORD
COMM	LastUniqueVolumeId:DWORD
COMM	OsMinorVersion:DWORD
COMM	SelfTestsPassed:DWORD
RootDeviceObject DQ 01H DUP (?)
DriverShuttingDown DD 01H DUP (?)
OsMajorVersion DD 01H DUP (?)
DriverUnloadDisabled DD 01H DUP (?)
PortableMode DD	01H DUP (?)
VolumeClassFilterRegistered DD 01H DUP (?)
CacheBootPassword DD 01H DUP (?)
NonAdminSystemFavoritesAccessDisabled DD 01H DUP (?)
	ALIGN	8

EncryptionThreadPoolFreeCpuCountLimit DQ 01H DUP (?)
SystemFavoriteVolumeDirty DD 01H DUP (?)
PagingFileCreationPrevented DD 01H DUP (?)
;	COMDAT ??_C@_1EA@CEOJFLPD@?$AAT?$AAr?$AAu?$AAe?$AAC?$AAr?$AAy?$AAp?$AAt?$AAE?$AAn?$AAc?$AAr?$AAy?$AAp?$AAt?$AAi?$AAo?$AAn?$AAF?$AAr?$AAe?$AAe?$AAC?$AAp?$AAu?$AAC?$AAo?$AAu?$AAn?$AAt?$AA?$AA@FNODOBFM@
text$s	SEGMENT
??_C@_1EA@CEOJFLPD@?$AAT?$AAr?$AAu?$AAe?$AAC?$AAr?$AAy?$AAp?$AAt?$AAE?$AAn?$AAc?$AAr?$AAy?$AAp?$AAt?$AAi?$AAo?$AAn?$AAF?$AAr?$AAe?$AAe?$AAC?$AAp?$AAu?$AAC?$AAo?$AAu?$AAn?$AAt?$AA?$AA@FNODOBFM@ DB 'T'
	DB	00H, 'r', 00H, 'u', 00H, 'e', 00H, 'C', 00H, 'r', 00H, 'y', 00H
	DB	'p', 00H, 't', 00H, 'E', 00H, 'n', 00H, 'c', 00H, 'r', 00H, 'y'
	DB	00H, 'p', 00H, 't', 00H, 'i', 00H, 'o', 00H, 'n', 00H, 'F', 00H
	DB	'r', 00H, 'e', 00H, 'e', 00H, 'C', 00H, 'p', 00H, 'u', 00H, 'C'
	DB	00H, 'o', 00H, 'u', 00H, 'n', 00H, 't', 00H, 00H, 00H ;  ?? ::FNODOBFM::`string'
text$s	ENDS
;	COMDAT ??_C@_1CA@LGEHFLCO@?$AAT?$AAr?$AAu?$AAe?$AAC?$AAr?$AAy?$AAp?$AAt?$AAC?$AAo?$AAn?$AAf?$AAi?$AAg?$AA?$AA@FNODOBFM@
text$s	SEGMENT
??_C@_1CA@LGEHFLCO@?$AAT?$AAr?$AAu?$AAe?$AAC?$AAr?$AAy?$AAp?$AAt?$AAC?$AAo?$AAn?$AAf?$AAi?$AAg?$AA?$AA@FNODOBFM@ DB 'T'
	DB	00H, 'r', 00H, 'u', 00H, 'e', 00H, 'C', 00H, 'r', 00H, 'y', 00H
	DB	'p', 00H, 't', 00H, 'C', 00H, 'o', 00H, 'n', 00H, 'f', 00H, 'i'
	DB	00H, 'g', 00H, 00H, 00H			;  ?? ::FNODOBFM::`string'
text$s	ENDS
;	COMDAT ??_C@_1HM@GLBNDPGI@?$AA?2?$AAR?$AAE?$AAG?$AAI?$AAS?$AAT?$AAR?$AAY?$AA?2?$AAM?$AAA?$AAC?$AAH?$AAI?$AAN?$AAE?$AA?2?$AAS?$AAY?$AAS?$AAT?$AAE?$AAM?$AA?2?$AAC?$AAu?$AAr?$AAr?$AAe?$AAn?$AAt@FNODOBFM@
text$s	SEGMENT
??_C@_1HM@GLBNDPGI@?$AA?2?$AAR?$AAE?$AAG?$AAI?$AAS?$AAT?$AAR?$AAY?$AA?2?$AAM?$AAA?$AAC?$AAH?$AAI?$AAN?$AAE?$AA?2?$AAS?$AAY?$AAS?$AAT?$AAE?$AAM?$AA?2?$AAC?$AAu?$AAr?$AAr?$AAe?$AAn?$AAt@FNODOBFM@ DB '\'
	DB	00H, 'R', 00H, 'E', 00H, 'G', 00H, 'I', 00H, 'S', 00H, 'T', 00H
	DB	'R', 00H, 'Y', 00H, '\', 00H, 'M', 00H, 'A', 00H, 'C', 00H, 'H'
	DB	00H, 'I', 00H, 'N', 00H, 'E', 00H, '\', 00H, 'S', 00H, 'Y', 00H
	DB	'S', 00H, 'T', 00H, 'E', 00H, 'M', 00H, '\', 00H, 'C', 00H, 'u'
	DB	00H, 'r', 00H, 'r', 00H, 'e', 00H, 'n', 00H, 't', 00H, 'C', 00H
	DB	'o', 00H, 'n', 00H, 't', 00H, 'r', 00H, 'o', 00H, 'l', 00H, 'S'
	DB	00H, 'e', 00H, 't', 00H, '\', 00H, 'S', 00H, 'e', 00H, 'r', 00H
	DB	'v', 00H, 'i', 00H, 'c', 00H, 'e', 00H, 's', 00H, '\', 00H, 't'
	DB	00H, 'r', 00H, 'u', 00H, 'e', 00H, 'c', 00H, 'r', 00H, 'y', 00H
	DB	'p', 00H, 't', 00H, 00H, 00H			;  ?? ::FNODOBFM::`string'
text$s	ENDS
;	COMDAT ??_C@_1BE@OBOIPPHP@?$AAt?$AAr?$AAu?$AAe?$AAc?$AAr?$AAy?$AAp?$AAt?$AA?$AA@FNODOBFM@
text$s	SEGMENT
??_C@_1BE@OBOIPPHP@?$AAt?$AAr?$AAu?$AAe?$AAc?$AAr?$AAy?$AAp?$AAt?$AA?$AA@FNODOBFM@ DB 't'
	DB	00H, 'r', 00H, 'u', 00H, 'e', 00H, 'c', 00H, 'r', 00H, 'y', 00H
	DB	'p', 00H, 't', 00H, 00H, 00H			;  ?? ::FNODOBFM::`string'
text$s	ENDS
;	COMDAT ??_C@_1BK@FNJCPENK@?$AAU?$AAp?$AAp?$AAe?$AAr?$AAF?$AAi?$AAl?$AAt?$AAe?$AAr?$AAs?$AA?$AA@FNODOBFM@
text$s	SEGMENT
??_C@_1BK@FNJCPENK@?$AAU?$AAp?$AAp?$AAe?$AAr?$AAF?$AAi?$AAl?$AAt?$AAe?$AAr?$AAs?$AA?$AA@FNODOBFM@ DB 'U'
	DB	00H, 'p', 00H, 'p', 00H, 'e', 00H, 'r', 00H, 'F', 00H, 'i', 00H
	DB	'l', 00H, 't', 00H, 'e', 00H, 'r', 00H, 's', 00H, 00H, 00H ;  ?? ::FNODOBFM::`string'
text$s	ENDS
;	COMDAT ??_C@_1MA@BNNNAGDA@?$AA?2?$AAR?$AAE?$AAG?$AAI?$AAS?$AAT?$AAR?$AAY?$AA?2?$AAM?$AAA?$AAC?$AAH?$AAI?$AAN?$AAE?$AA?2?$AAS?$AAY?$AAS?$AAT?$AAE?$AAM?$AA?2?$AAC?$AAu?$AAr?$AAr?$AAe?$AAn?$AAt@FNODOBFM@
text$s	SEGMENT
??_C@_1MA@BNNNAGDA@?$AA?2?$AAR?$AAE?$AAG?$AAI?$AAS?$AAT?$AAR?$AAY?$AA?2?$AAM?$AAA?$AAC?$AAH?$AAI?$AAN?$AAE?$AA?2?$AAS?$AAY?$AAS?$AAT?$AAE?$AAM?$AA?2?$AAC?$AAu?$AAr?$AAr?$AAe?$AAn?$AAt@FNODOBFM@ DB '\'
	DB	00H, 'R', 00H, 'E', 00H, 'G', 00H, 'I', 00H, 'S', 00H, 'T', 00H
	DB	'R', 00H, 'Y', 00H, '\', 00H, 'M', 00H, 'A', 00H, 'C', 00H, 'H'
	DB	00H, 'I', 00H, 'N', 00H, 'E', 00H, '\', 00H, 'S', 00H, 'Y', 00H
	DB	'S', 00H, 'T', 00H, 'E', 00H, 'M', 00H, '\', 00H, 'C', 00H, 'u'
	DB	00H, 'r', 00H, 'r', 00H, 'e', 00H, 'n', 00H, 't', 00H, 'C', 00H
	DB	'o', 00H, 'n', 00H, 't', 00H, 'r', 00H, 'o', 00H, 'l', 00H, 'S'
	DB	00H, 'e', 00H, 't', 00H, '\', 00H, 'C', 00H, 'o', 00H, 'n', 00H
	DB	't', 00H, 'r', 00H, 'o', 00H, 'l', 00H, '\', 00H, 'C', 00H, 'l'
	DB	00H, 'a', 00H, 's', 00H, 's', 00H, '\', 00H, '{', 00H, '7', 00H
	DB	'1', 00H, 'A', 00H, '2', 00H, '7', 00H, 'C', 00H, 'D', 00H, 'D'
	DB	00H, '-', 00H, '8', 00H, '1', 00H, '2', 00H, 'A', 00H, '-', 00H
	DB	'1', 00H, '1', 00H, 'D', 00H, '0', 00H, '-', 00H, 'B', 00H, 'E'
	DB	00H, 'C', 00H, '7', 00H, '-', 00H, '0', 00H, '8', 00H, '0', 00H
	DB	'0', 00H, '2', 00H, 'B', 00H, 'E', 00H, '2', 00H, '0', 00H, '9'
	DB	00H, '2', 00H, 'F', 00H, '}', 00H, 00H, 00H	;  ?? ::FNODOBFM::`string'
text$s	ENDS
;	COMDAT ??_C@_1DE@MJJBHHAG@?$AA?2?$AAD?$AAe?$AAv?$AAi?$AAc?$AAe?$AA?2?$AAM?$AAo?$AAu?$AAn?$AAt?$AAP?$AAo?$AAi?$AAn?$AAt?$AAM?$AAa?$AAn?$AAa?$AAg?$AAe?$AAr?$AA?$AA@FNODOBFM@
text$s	SEGMENT
??_C@_1DE@MJJBHHAG@?$AA?2?$AAD?$AAe?$AAv?$AAi?$AAc?$AAe?$AA?2?$AAM?$AAo?$AAu?$AAn?$AAt?$AAP?$AAo?$AAi?$AAn?$AAt?$AAM?$AAa?$AAn?$AAa?$AAg?$AAe?$AAr?$AA?$AA@FNODOBFM@ DB '\'
	DB	00H, 'D', 00H, 'e', 00H, 'v', 00H, 'i', 00H, 'c', 00H, 'e', 00H
	DB	'\', 00H, 'M', 00H, 'o', 00H, 'u', 00H, 'n', 00H, 't', 00H, 'P'
	DB	00H, 'o', 00H, 'i', 00H, 'n', 00H, 't', 00H, 'M', 00H, 'a', 00H
	DB	'n', 00H, 'a', 00H, 'g', 00H, 'e', 00H, 'r', 00H, 00H, 00H ;  ?? ::FNODOBFM::`string'
text$s	ENDS
;	COMDAT ??_C@_1EA@FPAPEGHJ@?$AAP?$AAs?$AAD?$AAe?$AAr?$AAe?$AAf?$AAe?$AAr?$AAe?$AAn?$AAc?$AAe?$AAI?$AAm?$AAp?$AAe?$AAr?$AAs?$AAo?$AAn?$AAa?$AAt?$AAi?$AAo?$AAn?$AAT?$AAo?$AAk?$AAe?$AAn?$AA?$AA@FNODOBFM@
text$s	SEGMENT
??_C@_1EA@FPAPEGHJ@?$AAP?$AAs?$AAD?$AAe?$AAr?$AAe?$AAf?$AAe?$AAr?$AAe?$AAn?$AAc?$AAe?$AAI?$AAm?$AAp?$AAe?$AAr?$AAs?$AAo?$AAn?$AAa?$AAt?$AAi?$AAo?$AAn?$AAT?$AAo?$AAk?$AAe?$AAn?$AA?$AA@FNODOBFM@ DB 'P'
	DB	00H, 's', 00H, 'D', 00H, 'e', 00H, 'r', 00H, 'e', 00H, 'f', 00H
	DB	'e', 00H, 'r', 00H, 'e', 00H, 'n', 00H, 'c', 00H, 'e', 00H, 'I'
	DB	00H, 'm', 00H, 'p', 00H, 'e', 00H, 'r', 00H, 's', 00H, 'o', 00H
	DB	'n', 00H, 'a', 00H, 't', 00H, 'i', 00H, 'o', 00H, 'n', 00H, 'T'
	DB	00H, 'o', 00H, 'k', 00H, 'e', 00H, 'n', 00H, 00H, 00H ;  ?? ::FNODOBFM::`string'
text$s	ENDS
;	COMDAT ??_C@_1CM@KJDLPNIG@?$AA?2?$AAD?$AAo?$AAs?$AAD?$AAe?$AAv?$AAi?$AAc?$AAe?$AAs?$AA?2?$AAT?$AAr?$AAu?$AAe?$AAC?$AAr?$AAy?$AAp?$AAt?$AA?$AA@FNODOBFM@
text$s	SEGMENT
??_C@_1CM@KJDLPNIG@?$AA?2?$AAD?$AAo?$AAs?$AAD?$AAe?$AAv?$AAi?$AAc?$AAe?$AAs?$AA?2?$AAT?$AAr?$AAu?$AAe?$AAC?$AAr?$AAy?$AAp?$AAt?$AA?$AA@FNODOBFM@ DB '\'
	DB	00H, 'D', 00H, 'o', 00H, 's', 00H, 'D', 00H, 'e', 00H, 'v', 00H
	DB	'i', 00H, 'c', 00H, 'e', 00H, 's', 00H, '\', 00H, 'T', 00H, 'r'
	DB	00H, 'u', 00H, 'e', 00H, 'C', 00H, 'r', 00H, 'y', 00H, 'p', 00H
	DB	't', 00H, 00H, 00H				;  ?? ::FNODOBFM::`string'
text$s	ENDS
;	COMDAT ??_C@_1BK@LABJKOM@?$AA?2?$AAD?$AAo?$AAs?$AAD?$AAe?$AAv?$AAi?$AAc?$AAe?$AAs?$AA?2?$AA?$AA@FNODOBFM@
text$s	SEGMENT
??_C@_1BK@LABJKOM@?$AA?2?$AAD?$AAo?$AAs?$AAD?$AAe?$AAv?$AAi?$AAc?$AAe?$AAs?$AA?2?$AA?$AA@FNODOBFM@ DB '\'
	DB	00H, 'D', 00H, 'o', 00H, 's', 00H, 'D', 00H, 'e', 00H, 'v', 00H
	DB	'i', 00H, 'c', 00H, 'e', 00H, 's', 00H, '\', 00H, 00H, 00H ;  ?? ::FNODOBFM::`string'
text$s	ENDS
;	COMDAT ??_C@_1DA@GMJGMIMP@?$AA?2?$AAD?$AAe?$AAv?$AAi?$AAc?$AAe?$AA?2?$AAT?$AAr?$AAu?$AAe?$AAC?$AAr?$AAy?$AAp?$AAt?$AAV?$AAo?$AAl?$AAu?$AAm?$AAe?$AA?$AA@FNODOBFM@
text$s	SEGMENT
??_C@_1DA@GMJGMIMP@?$AA?2?$AAD?$AAe?$AAv?$AAi?$AAc?$AAe?$AA?2?$AAT?$AAr?$AAu?$AAe?$AAC?$AAr?$AAy?$AAp?$AAt?$AAV?$AAo?$AAl?$AAu?$AAm?$AAe?$AA?$AA@FNODOBFM@ DB '\'
	DB	00H, 'D', 00H, 'e', 00H, 'v', 00H, 'i', 00H, 'c', 00H, 'e', 00H
	DB	'\', 00H, 'T', 00H, 'r', 00H, 'u', 00H, 'e', 00H, 'C', 00H, 'r'
	DB	00H, 'y', 00H, 'p', 00H, 't', 00H, 'V', 00H, 'o', 00H, 'l', 00H
	DB	'u', 00H, 'm', 00H, 'e', 00H, 00H, 00H	;  ?? ::FNODOBFM::`string'
text$s	ENDS
;	COMDAT ??_C@_19JHEHLFPM@?$AA?2?$AA?$DP?$AA?$DP?$AA?2?$AA?$AA@FNODOBFM@
text$s	SEGMENT
??_C@_19JHEHLFPM@?$AA?2?$AA?$DP?$AA?$DP?$AA?2?$AA?$AA@FNODOBFM@ DB '\', 00H
	DB	'?', 00H, '?', 00H, '\', 00H, 00H, 00H	;  ?? ::FNODOBFM::`string'
text$s	ENDS
;	COMDAT ??_C@_1BA@CCLAPIHO@?$AA?2?$AAD?$AAe?$AAv?$AAi?$AAc?$AAe?$AA?$AA@FNODOBFM@
text$s	SEGMENT
??_C@_1BA@CCLAPIHO@?$AA?2?$AAD?$AAe?$AAv?$AAi?$AAc?$AAe?$AA?$AA@FNODOBFM@ DB '\'
	DB	00H, 'D', 00H, 'e', 00H, 'v', 00H, 'i', 00H, 'c', 00H, 'e', 00H
	DB	00H, 00H					;  ?? ::FNODOBFM::`string'
text$s	ENDS
;	COMDAT ??_C@_09EMKKFGIH@TrueCrypt?$AA@FNODOBFM@
text$s	SEGMENT
??_C@_09EMKKFGIH@TrueCrypt?$AA@FNODOBFM@ DB 'TrueCrypt', 00H ;  ?? ::FNODOBFM::`string'
text$s	ENDS
;	COMDAT ??_C@_0L@FEEFGEIL@CipherShed?$AA@FNODOBFM@
text$s	SEGMENT
??_C@_0L@FEEFGEIL@CipherShed?$AA@FNODOBFM@ DB 'CipherShed', 00H ;  ?? ::FNODOBFM::`string'
text$s	ENDS
;	COMDAT ??_C@_0BA@OLBPPLP@TrueCryptVolume?$AA@FNODOBFM@
text$s	SEGMENT
??_C@_0BA@OLBPPLP@TrueCryptVolume?$AA@FNODOBFM@ DB 'TrueCryptVolume', 00H ;  ?? ::FNODOBFM::`string'
text$s	ENDS
;	COMDAT ??_C@_1CM@KJDLPNIG@?$AA?2?$AAD?$AAo?$AAs?$AAD?$AAe?$AAv?$AAi?$AAc?$AAe?$AAs?$AA?2?$AAT?$AAr?$AAu?$AAe?$AAC?$AAr?$AAy?$AAp?$AAt?$AA?$AA@PBOPGDP@
INIT$s	SEGMENT
??_C@_1CM@KJDLPNIG@?$AA?2?$AAD?$AAo?$AAs?$AAD?$AAe?$AAv?$AAi?$AAc?$AAe?$AAs?$AA?2?$AAT?$AAr?$AAu?$AAe?$AAC?$AAr?$AAy?$AAp?$AAt?$AA?$AA@PBOPGDP@ DB '\'
	DB	00H, 'D', 00H, 'o', 00H, 's', 00H, 'D', 00H, 'e', 00H, 'v', 00H
	DB	'i', 00H, 'c', 00H, 'e', 00H, 's', 00H, '\', 00H, 'T', 00H, 'r'
	DB	00H, 'u', 00H, 'e', 00H, 'C', 00H, 'r', 00H, 'y', 00H, 'p', 00H
	DB	't', 00H, 00H, 00H				;  ?? ::PBOPGDP::`string'
INIT$s	ENDS
;	COMDAT ??_C@_1M@IOJLKPKK@?$AAS?$AAt?$AAa?$AAr?$AAt?$AA?$AA@PBOPGDP@
INIT$s	SEGMENT
??_C@_1M@IOJLKPKK@?$AAS?$AAt?$AAa?$AAr?$AAt?$AA?$AA@PBOPGDP@ DB 'S', 00H, 't'
	DB	00H, 'a', 00H, 'r', 00H, 't', 00H, 00H, 00H	;  ?? ::PBOPGDP::`string'
INIT$s	ENDS
;	COMDAT ??_C@_1CE@IPABBIFA@?$AA?2?$AAD?$AAe?$AAv?$AAi?$AAc?$AAe?$AA?2?$AAT?$AAr?$AAu?$AAe?$AAC?$AAr?$AAy?$AAp?$AAt?$AA?$AA@PBOPGDP@
INIT$s	SEGMENT
??_C@_1CE@IPABBIFA@?$AA?2?$AAD?$AAe?$AAv?$AAi?$AAc?$AAe?$AA?2?$AAT?$AAr?$AAu?$AAe?$AAC?$AAr?$AAy?$AAp?$AAt?$AA?$AA@PBOPGDP@ DB '\'
	DB	00H, 'D', 00H, 'e', 00H, 'v', 00H, 'i', 00H, 'c', 00H, 'e', 00H
	DB	'\', 00H, 'T', 00H, 'r', 00H, 'u', 00H, 'e', 00H, 'C', 00H, 'r'
	DB	00H, 'y', 00H, 'p', 00H, 't', 00H, 00H, 00H	;  ?? ::PBOPGDP::`string'
PUBLIC	IsOSAtLeast
;	COMDAT pdata
; File c:\users\public\desktop\projects\ciphershed\src\driver\ntdriver.c
pdata	SEGMENT
$pdata$IsOSAtLeast DD imagerel $LN16
	DD	imagerel $LN16+167
	DD	imagerel $unwind$IsOSAtLeast
pdata	ENDS
;	COMDAT xdata
xdata	SEGMENT
$unwind$IsOSAtLeast DD 010401H
	DD	06204H
; Function compile flags: /Ogspy
xdata	ENDS
;	COMDAT IsOSAtLeast
_TEXT	SEGMENT
reqMinOS$ = 64
IsOSAtLeast PROC					; COMDAT

; 3348 : {

$LN16:
  00000	48 83 ec 38	 sub	 rsp, 56			; 00000038H

; 3349 : 	/* When updating this function, update IsOSVersionAtLeast() in Dlgcode.c too. */
; 3350 : 
; 3351 : 	ULONG major = 0, minor = 0;
; 3352 : 
; 3353 : 	ASSERT (OsMajorVersion != 0);
; 3354 : 
; 3355 : 	switch (reqMinOS)

  00004	45 33 c0	 xor	 r8d, r8d
  00007	83 e9 07	 sub	 ecx, 7
  0000a	74 68		 je	 SHORT $LN8@IsOSAtLeas
  0000c	45 8d 48 01	 lea	 r9d, QWORD PTR [r8+1]
  00010	41 2b c9	 sub	 ecx, r9d
  00013	74 55		 je	 SHORT $LN7@IsOSAtLeas
  00015	41 8d 50 02	 lea	 edx, QWORD PTR [r8+2]
  00019	2b ca		 sub	 ecx, edx
  0001b	74 46		 je	 SHORT $LN6@IsOSAtLeas
  0001d	41 2b c9	 sub	 ecx, r9d
  00020	74 3a		 je	 SHORT $LN5@IsOSAtLeas
  00022	2b ca		 sub	 ecx, edx
  00024	74 2f		 je	 SHORT $LN4@IsOSAtLeas
  00026	2b ca		 sub	 ecx, edx
  00028	74 24		 je	 SHORT $LN3@IsOSAtLeas
  0002a	41 8d 50 04	 lea	 edx, QWORD PTR [r8+4]
  0002e	3b ca		 cmp	 ecx, edx
  00030	74 1c		 je	 SHORT $LN3@IsOSAtLeas

; 3363 : 	case WIN_10:			major = 6; minor = 4; break;
; 3364 : 
; 3365 : 	default:
; 3366 : 		TC_THROW_FATAL_EXCEPTION;

  00032	41 8d 48 29	 lea	 ecx, QWORD PTR [r8+41]
  00036	45 33 c9	 xor	 r9d, r9d
  00039	ba 26 0d 00 00	 mov	 edx, 3366		; 00000d26H
  0003e	48 c7 44 24 20
	43 54 00 00	 mov	 QWORD PTR [rsp+32], 21571 ; 00005443H
  00047	ff 15 00 00 00
	00		 call	 QWORD PTR __imp_KeBugCheckEx
  0004d	cc		 int	 3
$LN3@IsOSAtLeas:

; 3362 : 	case WIN_8:				major = 6; minor = 2; break;

  0004e	b8 06 00 00 00	 mov	 eax, 6
  00053	eb 27		 jmp	 SHORT $LN9@IsOSAtLeas
$LN4@IsOSAtLeas:

; 3361 : 	case WIN_7:				major = 6; minor = 1; break;

  00055	b8 06 00 00 00	 mov	 eax, 6
  0005a	eb 13		 jmp	 SHORT $LN15@IsOSAtLeas
$LN5@IsOSAtLeas:

; 3360 : 	case WIN_VISTA:			major = 6; minor = 0; break;

  0005c	b8 06 00 00 00	 mov	 eax, 6
  00061	eb 16		 jmp	 SHORT $LN14@IsOSAtLeas
$LN6@IsOSAtLeas:

; 3359 : 	case WIN_SERVER_2003:	major = 5; minor = 2; break;

  00063	b8 05 00 00 00	 mov	 eax, 5
  00068	eb 12		 jmp	 SHORT $LN9@IsOSAtLeas
$LN7@IsOSAtLeas:

; 3358 : 	case WIN_XP:			major = 5; minor = 1; break;

  0006a	b8 05 00 00 00	 mov	 eax, 5
$LN15@IsOSAtLeas:
  0006f	41 8b d1	 mov	 edx, r9d
  00072	eb 08		 jmp	 SHORT $LN9@IsOSAtLeas
$LN8@IsOSAtLeas:

; 3356 : 	{
; 3357 : 	case WIN_2000:			major = 5; minor = 0; break;

  00074	b8 05 00 00 00	 mov	 eax, 5
$LN14@IsOSAtLeas:
  00079	41 8b d0	 mov	 edx, r8d
$LN9@IsOSAtLeas:

; 3367 : 		break;
; 3368 : 	}
; 3369 : 
; 3370 : 	return ((OsMajorVersion << 16 | OsMinorVersion << 8)
; 3371 : 		>= (major << 16 | minor << 8));

  0007c	8b 0d 00 00 00
	00		 mov	 ecx, DWORD PTR OsMajorVersion
  00082	c1 e0 08	 shl	 eax, 8
  00085	0b c2		 or	 eax, edx
  00087	c1 e1 08	 shl	 ecx, 8
  0008a	ba ff ff ff 00	 mov	 edx, 16777215		; 00ffffffH
  0008f	0b 0d 00 00 00
	00		 or	 ecx, DWORD PTR OsMinorVersion
  00095	23 c2		 and	 eax, edx
  00097	23 ca		 and	 ecx, edx
  00099	3b c8		 cmp	 ecx, eax
  0009b	41 0f 93 c0	 setae	 r8b
  0009f	41 8b c0	 mov	 eax, r8d

; 3372 : }

  000a2	48 83 c4 38	 add	 rsp, 56			; 00000038H
  000a6	c3		 ret	 0
$LN13@IsOSAtLeas:
IsOSAtLeast ENDP
_TEXT	ENDS
PUBLIC	TCReadRegistryKey
;	COMDAT pdata
pdata	SEGMENT
$pdata$TCReadRegistryKey DD imagerel $LN9
	DD	imagerel $LN9+291
	DD	imagerel $unwind$TCReadRegistryKey
pdata	ENDS
;	COMDAT xdata
xdata	SEGMENT
$unwind$TCReadRegistryKey DD 040f01H
	DD	013340fH
	DD	07008f20fH
; Function compile flags: /Ogspy
xdata	ENDS
;	COMDAT TCReadRegistryKey
_TEXT	SEGMENT
regKeyHandle$ = 48
valName$ = 56
size$ = 144
keyPath$ = 144
keyValueName$ = 152
keyData$ = 160
resultSize$ = 168
TCReadRegistryKey PROC					; COMDAT

; 3042 : {

$LN9:
  00000	48 8b c4	 mov	 rax, rsp
  00003	48 89 58 10	 mov	 QWORD PTR [rax+16], rbx
  00007	57		 push	 rdi
  00008	48 81 ec 80 00
	00 00		 sub	 rsp, 128		; 00000080H

; 3043 : 	OBJECT_ATTRIBUTES regObjAttribs;
; 3044 : 	HANDLE regKeyHandle;
; 3045 : 	NTSTATUS status;
; 3046 : 	UNICODE_STRING valName;
; 3047 : 	ULONG size = 0;

  0000f	83 60 08 00	 and	 DWORD PTR [rax+8], 0

; 3048 : 	ULONG resultSize;
; 3049 : 
; 3050 : 	InitializeObjectAttributes (&regObjAttribs, keyPath, OBJ_KERNEL_HANDLE | OBJ_CASE_INSENSITIVE, NULL, NULL);

  00013	48 83 60 c8 00	 and	 QWORD PTR [rax-56], 0
  00018	48 83 60 e0 00	 and	 QWORD PTR [rax-32], 0
  0001d	48 83 60 e8 00	 and	 QWORD PTR [rax-24], 0
  00022	49 8b f8	 mov	 rdi, r8
  00025	48 89 48 d0	 mov	 QWORD PTR [rax-48], rcx
  00029	48 8b da	 mov	 rbx, rdx

; 3051 : 	status = ZwOpenKey (&regKeyHandle, KEY_READ, &regObjAttribs);

  0002c	4c 8d 40 c0	 lea	 r8, QWORD PTR [rax-64]
  00030	48 8d 48 a8	 lea	 rcx, QWORD PTR [rax-88]
  00034	ba 19 00 02 00	 mov	 edx, 131097		; 00020019H
  00039	c7 40 c0 30 00
	00 00		 mov	 DWORD PTR [rax-64], 48	; 00000030H
  00040	c7 40 d8 40 02
	00 00		 mov	 DWORD PTR [rax-40], 576	; 00000240H
  00047	ff 15 00 00 00
	00		 call	 QWORD PTR __imp_ZwOpenKey

; 3052 : 	if (!NT_SUCCESS (status))

  0004d	85 c0		 test	 eax, eax

; 3053 : 		return status;

  0004f	0f 88 bd 00 00
	00		 js	 $LN5@TCReadRegi

; 3054 : 
; 3055 : 	RtlInitUnicodeString (&valName, keyValueName);

  00055	48 8d 4c 24 38	 lea	 rcx, QWORD PTR valName$[rsp]
  0005a	48 8b d3	 mov	 rdx, rbx
  0005d	ff 15 00 00 00
	00		 call	 QWORD PTR __imp_RtlInitUnicodeString

; 3056 : 	status = ZwQueryValueKey (regKeyHandle, &valName, KeyValuePartialInformation, NULL, 0, &size);

  00063	48 8b 4c 24 30	 mov	 rcx, QWORD PTR regKeyHandle$[rsp]
  00068	45 33 c9	 xor	 r9d, r9d
  0006b	4c 8d 9c 24 90
	00 00 00	 lea	 r11, QWORD PTR size$[rsp]
  00073	45 8d 41 02	 lea	 r8d, QWORD PTR [r9+2]
  00077	48 8d 54 24 38	 lea	 rdx, QWORD PTR valName$[rsp]
  0007c	4c 89 5c 24 28	 mov	 QWORD PTR [rsp+40], r11
  00081	83 64 24 20 00	 and	 DWORD PTR [rsp+32], 0
  00086	ff 15 00 00 00
	00		 call	 QWORD PTR __imp_ZwQueryValueKey
  0008c	8b d8		 mov	 ebx, eax

; 3057 : 		
; 3058 : 	if (!NT_SUCCESS (status) && status != STATUS_BUFFER_OVERFLOW && status != STATUS_BUFFER_TOO_SMALL)

  0008e	85 c0		 test	 eax, eax
  00090	79 0e		 jns	 SHORT $LN3@TCReadRegi
  00092	3d 05 00 00 80	 cmp	 eax, -2147483643	; ffffffff80000005H
  00097	74 07		 je	 SHORT $LN3@TCReadRegi
  00099	3d 23 00 00 c0	 cmp	 eax, -1073741789	; ffffffffc0000023H
  0009e	75 65		 jne	 SHORT $LN7@TCReadRegi
$LN3@TCReadRegi:

; 3059 : 	{
; 3060 : 		ZwClose (regKeyHandle);
; 3061 : 		return status;
; 3062 : 	}
; 3063 : 
; 3064 : 	if (size == 0)

  000a0	8b 84 24 90 00
	00 00		 mov	 eax, DWORD PTR size$[rsp]
  000a7	85 c0		 test	 eax, eax
  000a9	75 07		 jne	 SHORT $LN2@TCReadRegi
  000ab	bb 22 00 00 80	 mov	 ebx, -2147483614	; ffffffff80000022H
  000b0	eb 53		 jmp	 SHORT $LN7@TCReadRegi
$LN2@TCReadRegi:

; 3065 : 	{
; 3066 : 		ZwClose (regKeyHandle);
; 3067 : 		return STATUS_NO_DATA_DETECTED;
; 3068 : 	}
; 3069 : 
; 3070 : 	*keyData = (PKEY_VALUE_PARTIAL_INFORMATION) TCalloc (size);

  000b2	48 8b d0	 mov	 rdx, rax
  000b5	33 c9		 xor	 ecx, ecx
  000b7	41 b8 54 43 4d
	4d		 mov	 r8d, 1296909140		; 4d4d4354H
  000bd	ff 15 00 00 00
	00		 call	 QWORD PTR __imp_ExAllocatePoolWithTag
  000c3	4c 8b c8	 mov	 r9, rax
  000c6	48 89 07	 mov	 QWORD PTR [rdi], rax

; 3071 : 	if (!*keyData)

  000c9	48 85 c0	 test	 rax, rax
  000cc	75 07		 jne	 SHORT $LN1@TCReadRegi
  000ce	bb 9a 00 00 c0	 mov	 ebx, -1073741670	; ffffffffc000009aH
  000d3	eb 30		 jmp	 SHORT $LN7@TCReadRegi
$LN1@TCReadRegi:

; 3072 : 	{
; 3073 : 		ZwClose (regKeyHandle);
; 3074 : 		return STATUS_INSUFFICIENT_RESOURCES;
; 3075 : 	}
; 3076 : 
; 3077 : 	status = ZwQueryValueKey (regKeyHandle, &valName, KeyValuePartialInformation, *keyData, size, &resultSize);

  000d5	48 8b 4c 24 30	 mov	 rcx, QWORD PTR regKeyHandle$[rsp]
  000da	48 8d 84 24 a8
	00 00 00	 lea	 rax, QWORD PTR resultSize$[rsp]
  000e2	48 8d 54 24 38	 lea	 rdx, QWORD PTR valName$[rsp]
  000e7	48 89 44 24 28	 mov	 QWORD PTR [rsp+40], rax
  000ec	8b 84 24 90 00
	00 00		 mov	 eax, DWORD PTR size$[rsp]
  000f3	41 b8 02 00 00
	00		 mov	 r8d, 2
  000f9	89 44 24 20	 mov	 DWORD PTR [rsp+32], eax
  000fd	ff 15 00 00 00
	00		 call	 QWORD PTR __imp_ZwQueryValueKey
  00103	8b d8		 mov	 ebx, eax
$LN7@TCReadRegi:
  00105	48 8b 4c 24 30	 mov	 rcx, QWORD PTR regKeyHandle$[rsp]
  0010a	ff 15 00 00 00
	00		 call	 QWORD PTR __imp_ZwClose
  00110	8b c3		 mov	 eax, ebx
$LN5@TCReadRegi:

; 3078 : 
; 3079 : 	ZwClose (regKeyHandle);
; 3080 : 	return status;
; 3081 : }

  00112	48 8b 9c 24 98
	00 00 00	 mov	 rbx, QWORD PTR [rsp+152]
  0011a	48 81 c4 80 00
	00 00		 add	 rsp, 128		; 00000080H
  00121	5f		 pop	 rdi
  00122	c3		 ret	 0
TCReadRegistryKey ENDP
_TEXT	ENDS
PUBLIC	EnsureNullTerminatedString
; Function compile flags: /Ogspy
;	COMDAT EnsureNullTerminatedString
_TEXT	SEGMENT
str$ = 8
maxSizeInBytes$ = 16
EnsureNullTerminatedString PROC				; COMDAT

; 3011 : 	ASSERT ((maxSizeInBytes & 1) == 0);
; 3012 : 	str[maxSizeInBytes / sizeof (wchar_t) - 1] = 0;

  00000	33 c0		 xor	 eax, eax
  00002	66 89 81 06 02
	00 00		 mov	 WORD PTR [rcx+518], ax

; 3013 : }

  00009	c3		 ret	 0
EnsureNullTerminatedString ENDP
_TEXT	ENDS
PUBLIC	GetCpuCount
;	COMDAT pdata
pdata	SEGMENT
$pdata$GetCpuCount DD imagerel $LN10
	DD	imagerel $LN10+54
	DD	imagerel $unwind$GetCpuCount
pdata	ENDS
;	COMDAT xdata
xdata	SEGMENT
$unwind$GetCpuCount DD 010401H
	DD	04204H
; Function compile flags: /Ogspy
xdata	ENDS
;	COMDAT GetCpuCount
_TEXT	SEGMENT
GetCpuCount PROC					; COMDAT

; 2989 : {

$LN10:
  00000	48 83 ec 28	 sub	 rsp, 40			; 00000028H

; 2990 : 	KAFFINITY activeCpuMap = KeQueryActiveProcessors();

  00004	ff 15 00 00 00
	00		 call	 QWORD PTR __imp_KeQueryActiveProcessors

; 2991 : 	size_t mapSize = sizeof (activeCpuMap) * 8;

  0000a	b9 40 00 00 00	 mov	 ecx, 64			; 00000040H
  0000f	4c 8b d8	 mov	 r11, rax

; 2992 : 	size_t cpuCount = 0;

  00012	33 c0		 xor	 eax, eax
  00014	8d 51 c1	 lea	 edx, QWORD PTR [rcx-63]
$LL4@GetCpuCoun:

; 2993 : 
; 2994 : 	while (mapSize--)

  00017	48 2b ca	 sub	 rcx, rdx

; 2995 : 	{
; 2996 : 		if (activeCpuMap & 1)

  0001a	44 84 da	 test	 r11b, dl
  0001d	74 03		 je	 SHORT $LN2@GetCpuCoun

; 2997 : 			++cpuCount;

  0001f	48 03 c2	 add	 rax, rdx
$LN2@GetCpuCoun:

; 2998 : 
; 2999 : 		activeCpuMap >>= 1;

  00022	49 d1 eb	 shr	 r11, 1
  00025	48 85 c9	 test	 rcx, rcx
  00028	75 ed		 jne	 SHORT $LL4@GetCpuCoun

; 3000 : 	}
; 3001 : 
; 3002 : 	if (cpuCount == 0)

  0002a	48 85 c0	 test	 rax, rax
  0002d	48 0f 44 c2	 cmove	 rax, rdx

; 3003 : 		return 1;
; 3004 : 
; 3005 : 	return cpuCount;
; 3006 : }

  00031	48 83 c4 28	 add	 rsp, 40			; 00000028H
  00035	c3		 ret	 0
GetCpuCount ENDP
_TEXT	ENDS
PUBLIC	TCCompleteDiskIrp
;	COMDAT pdata
pdata	SEGMENT
$pdata$TCCompleteDiskIrp DD imagerel $LN3
	DD	imagerel $LN3+34
	DD	imagerel $unwind$TCCompleteDiskIrp
pdata	ENDS
;	COMDAT xdata
xdata	SEGMENT
$unwind$TCCompleteDiskIrp DD 020601H
	DD	030023206H
; Function compile flags: /Ogspy
xdata	ENDS
;	COMDAT TCCompleteDiskIrp
_TEXT	SEGMENT
irp$ = 48
status$ = 56
information$ = 64
TCCompleteDiskIrp PROC					; COMDAT

; 2980 : {

$LN3:
  00000	40 53		 push	 rbx
  00002	48 83 ec 20	 sub	 rsp, 32			; 00000020H

; 2981 : 	irp->IoStatus.Status = status;
; 2982 : 	irp->IoStatus.Information = information;
; 2983 : 	IoCompleteRequest (irp, NT_SUCCESS (status) ? IO_DISK_INCREMENT : IO_NO_INCREMENT);

  00006	85 d2		 test	 edx, edx
  00008	8b da		 mov	 ebx, edx
  0000a	89 51 30	 mov	 DWORD PTR [rcx+48], edx
  0000d	0f 99 c2	 setns	 dl
  00010	4c 89 41 38	 mov	 QWORD PTR [rcx+56], r8
  00014	ff 15 00 00 00
	00		 call	 QWORD PTR __imp_IofCompleteRequest

; 2984 : 	return status;

  0001a	8b c3		 mov	 eax, ebx

; 2985 : }

  0001c	48 83 c4 20	 add	 rsp, 32			; 00000020H
  00020	5b		 pop	 rbx
  00021	c3		 ret	 0
TCCompleteDiskIrp ENDP
_TEXT	ENDS
PUBLIC	TCCompleteIrp
;	COMDAT pdata
pdata	SEGMENT
$pdata$TCCompleteIrp DD imagerel $LN3
	DD	imagerel $LN3+31
	DD	imagerel $unwind$TCCompleteIrp
pdata	ENDS
;	COMDAT xdata
xdata	SEGMENT
$unwind$TCCompleteIrp DD 020601H
	DD	030023206H
; Function compile flags: /Ogspy
xdata	ENDS
;	COMDAT TCCompleteIrp
_TEXT	SEGMENT
irp$ = 48
status$ = 56
information$ = 64
TCCompleteIrp PROC					; COMDAT

; 2971 : {

$LN3:
  00000	40 53		 push	 rbx
  00002	48 83 ec 20	 sub	 rsp, 32			; 00000020H
  00006	8b da		 mov	 ebx, edx

; 2972 : 	irp->IoStatus.Status = status;

  00008	89 51 30	 mov	 DWORD PTR [rcx+48], edx

; 2973 : 	irp->IoStatus.Information = information;
; 2974 : 	IoCompleteRequest (irp, IO_NO_INCREMENT);

  0000b	33 d2		 xor	 edx, edx
  0000d	4c 89 41 38	 mov	 QWORD PTR [rcx+56], r8
  00011	ff 15 00 00 00
	00		 call	 QWORD PTR __imp_IofCompleteRequest

; 2975 : 	return status;

  00017	8b c3		 mov	 eax, ebx

; 2976 : }

  00019	48 83 c4 20	 add	 rsp, 32			; 00000020H
  0001d	5b		 pop	 rbx
  0001e	c3		 ret	 0
TCCompleteIrp ENDP
_TEXT	ENDS
PUBLIC	IsAccessibleByUser
;	COMDAT pdata
pdata	SEGMENT
$pdata$IsAccessibleByUser DD imagerel $LN4
	DD	imagerel $LN4+144
	DD	imagerel $unwind$IsAccessibleByUser
pdata	ENDS
;	COMDAT xdata
xdata	SEGMENT
$unwind$IsAccessibleByUser DD 020a01H
	DD	015010aH
; Function compile flags: /Ogspy
xdata	ENDS
;	COMDAT IsAccessibleByUser
_TEXT	SEGMENT
fileHandle$ = 176
objectFileName$ = 176
readOnly$ = 184
IsAccessibleByUser PROC					; COMDAT

; 2894 : {

$LN4:
  00000	48 8b c4	 mov	 rax, rsp
  00003	48 81 ec a8 00
	00 00		 sub	 rsp, 168		; 000000a8H

; 2895 : 	OBJECT_ATTRIBUTES fileObjAttributes;
; 2896 : 	IO_STATUS_BLOCK ioStatusBlock;
; 2897 : 	HANDLE fileHandle;
; 2898 : 	NTSTATUS status;
; 2899 : 
; 2900 : 	ASSERT (!IoIsSystemThread (PsGetCurrentThread()));
; 2901 : 
; 2902 : 	InitializeObjectAttributes (&fileObjAttributes, objectFileName, OBJ_CASE_INSENSITIVE | OBJ_FORCE_ACCESS_CHECK | OBJ_KERNEL_HANDLE, NULL, NULL);
; 2903 : 	
; 2904 : 	status = ZwCreateFile (&fileHandle,
; 2905 : 		readOnly ? GENERIC_READ : GENERIC_READ | GENERIC_WRITE,
; 2906 : 		&fileObjAttributes,
; 2907 : 		&ioStatusBlock,
; 2908 : 		NULL,
; 2909 : 		FILE_ATTRIBUTE_NORMAL,
; 2910 : 		FILE_SHARE_READ | FILE_SHARE_WRITE | FILE_SHARE_DELETE,
; 2911 : 		FILE_OPEN,
; 2912 : 		FILE_SYNCHRONOUS_IO_NONALERT,
; 2913 : 		NULL,
; 2914 : 		0);

  0000a	83 60 a8 00	 and	 DWORD PTR [rax-88], 0
  0000e	48 83 60 a0 00	 and	 QWORD PTR [rax-96], 0
  00013	48 83 60 d0 00	 and	 QWORD PTR [rax-48], 0
  00018	48 83 60 e8 00	 and	 QWORD PTR [rax-24], 0
  0001d	48 83 60 f0 00	 and	 QWORD PTR [rax-16], 0
  00022	c7 40 98 20 00
	00 00		 mov	 DWORD PTR [rax-104], 32	; 00000020H
  00029	c7 40 90 01 00
	00 00		 mov	 DWORD PTR [rax-112], 1
  00030	c7 40 88 07 00
	00 00		 mov	 DWORD PTR [rax-120], 7
  00037	48 89 48 d8	 mov	 QWORD PTR [rax-40], rcx
  0003b	c7 40 80 80 00
	00 00		 mov	 DWORD PTR [rax-128], 128 ; 00000080H
  00042	48 83 64 24 20
	00		 and	 QWORD PTR [rsp+32], 0
  00048	4c 8d 48 b8	 lea	 r9, QWORD PTR [rax-72]
  0004c	4c 8d 40 c8	 lea	 r8, QWORD PTR [rax-56]
  00050	48 8d 48 08	 lea	 rcx, QWORD PTR [rax+8]
  00054	ba 00 00 00 c0	 mov	 edx, -1073741824	; c0000000H
  00059	c7 40 c8 30 00
	00 00		 mov	 DWORD PTR [rax-56], 48	; 00000030H
  00060	c7 40 e0 40 06
	00 00		 mov	 DWORD PTR [rax-32], 1600 ; 00000640H
  00067	ff 15 00 00 00
	00		 call	 QWORD PTR __imp_ZwCreateFile

; 2915 : 
; 2916 : 	if (NT_SUCCESS (status))

  0006d	85 c0		 test	 eax, eax
  0006f	78 15		 js	 SHORT $LN1@IsAccessib

; 2917 : 	{
; 2918 : 		ZwClose (fileHandle);

  00071	48 8b 8c 24 b0
	00 00 00	 mov	 rcx, QWORD PTR fileHandle$[rsp]
  00079	ff 15 00 00 00
	00		 call	 QWORD PTR __imp_ZwClose

; 2919 : 		return TRUE;

  0007f	b8 01 00 00 00	 mov	 eax, 1
  00084	eb 02		 jmp	 SHORT $LN2@IsAccessib
$LN1@IsAccessib:

; 2920 : 	}
; 2921 : 
; 2922 : 	return FALSE;

  00086	33 c0		 xor	 eax, eax
$LN2@IsAccessib:

; 2923 : }

  00088	48 81 c4 a8 00
	00 00		 add	 rsp, 168		; 000000a8H
  0008f	c3		 ret	 0
IsAccessibleByUser ENDP
_TEXT	ENDS
PUBLIC	GetIntersection
; Function compile flags: /Ogspy
;	COMDAT GetIntersection
_TEXT	SEGMENT
start1$ = 8
length1$ = 16
start2$ = 24
end2$ = 32
intersectStart$ = 40
intersectLength$ = 48
GetIntersection PROC					; COMDAT

; 2882 : 	uint64 end1 = start1 + length1 - 1;

  00000	8b c2		 mov	 eax, edx
  00002	48 8d 54 08 ff	 lea	 rdx, QWORD PTR [rax+rcx-1]

; 2883 : 	uint64 intersectEnd = (end1 <= end2) ? end1 : end2;

  00007	49 3b d1	 cmp	 rdx, r9
  0000a	4c 0f 46 ca	 cmovbe	 r9, rdx

; 2884 : 	
; 2885 : 	*intersectStart = (start1 >= start2) ? start1 : start2;

  0000e	48 8b 54 24 28	 mov	 rdx, QWORD PTR intersectStart$[rsp]
  00013	49 3b c8	 cmp	 rcx, r8
  00016	4c 0f 43 c1	 cmovae	 r8, rcx
  0001a	4c 89 02	 mov	 QWORD PTR [rdx], r8

; 2886 : 	*intersectLength = (uint32) ((*intersectStart > intersectEnd) ? 0 : intersectEnd + 1 - *intersectStart);

  0001d	4d 3b c1	 cmp	 r8, r9
  00020	76 05		 jbe	 SHORT $LN4@GetInterse
  00022	45 33 c9	 xor	 r9d, r9d
  00025	eb 06		 jmp	 SHORT $LN5@GetInterse
$LN4@GetInterse:
  00027	4d 2b c8	 sub	 r9, r8
  0002a	49 ff c1	 inc	 r9
$LN5@GetInterse:
  0002d	48 8b 44 24 30	 mov	 rax, QWORD PTR intersectLength$[rsp]
  00032	44 89 08	 mov	 DWORD PTR [rax], r9d

; 2887 : 	
; 2888 : 	if (*intersectLength == 0)

  00035	45 85 c9	 test	 r9d, r9d
  00038	75 03		 jne	 SHORT $LN1@GetInterse

; 2889 : 		*intersectStart = start1;

  0003a	48 89 0a	 mov	 QWORD PTR [rdx], rcx
$LN1@GetInterse:

; 2890 : }

  0003d	c3		 ret	 0
GetIntersection ENDP
_TEXT	ENDS
PUBLIC	RegionsOverlap
; Function compile flags: /Ogspy
;	COMDAT RegionsOverlap
_TEXT	SEGMENT
start1$ = 8
end1$ = 16
start2$ = 24
end2$ = 32
RegionsOverlap PROC					; COMDAT

; 2876 : 	return (start1 < start2) ? (end1 >= start2) : (start1 <= end2);

  00000	33 c0		 xor	 eax, eax
  00002	49 3b d0	 cmp	 rdx, r8
  00005	44 8b d0	 mov	 r10d, eax
  00008	41 0f 93 c2	 setae	 r10b
  0000c	49 3b c9	 cmp	 rcx, r9
  0000f	0f 96 c0	 setbe	 al
  00012	49 3b c8	 cmp	 rcx, r8
  00015	41 0f 42 c2	 cmovb	 eax, r10d

; 2877 : }

  00019	c3		 ret	 0
RegionsOverlap ENDP
_TEXT	ENDS
PUBLIC	SymbolicLinkToTarget
;	COMDAT pdata
pdata	SEGMENT
$pdata$SymbolicLinkToTarget DD imagerel $LN4
	DD	imagerel $LN4+195
	DD	imagerel $unwind$SymbolicLinkToTarget
pdata	ENDS
;	COMDAT xdata
xdata	SEGMENT
$unwind$SymbolicLinkToTarget DD 060f01H
	DD	011640fH
	DD	010340fH
	DD	0700bd20fH
; Function compile flags: /Ogspy
xdata	ENDS
;	COMDAT SymbolicLinkToTarget
_TEXT	SEGMENT
target$32707 = 32
fullFileName$ = 48
objectAttributes$ = 64
symlinkName$ = 128
targetName$ = 136
maxTargetNameLength$ = 144
handle$ = 152
SymbolicLinkToTarget PROC				; COMDAT

; 2845 : {

$LN4:
  00000	48 89 5c 24 08	 mov	 QWORD PTR [rsp+8], rbx
  00005	48 89 74 24 10	 mov	 QWORD PTR [rsp+16], rsi
  0000a	57		 push	 rdi
  0000b	48 83 ec 70	 sub	 rsp, 112		; 00000070H
  0000f	48 8b fa	 mov	 rdi, rdx

; 2846 : 	NTSTATUS ntStatus;
; 2847 : 	OBJECT_ATTRIBUTES objectAttributes;
; 2848 : 	UNICODE_STRING fullFileName;
; 2849 : 	HANDLE handle;
; 2850 : 
; 2851 : 	RtlInitUnicodeString (&fullFileName, symlinkName);

  00012	48 8b d1	 mov	 rdx, rcx
  00015	48 8d 4c 24 30	 lea	 rcx, QWORD PTR fullFileName$[rsp]
  0001a	ff 15 00 00 00
	00		 call	 QWORD PTR __imp_RtlInitUnicodeString

; 2852 : 	InitializeObjectAttributes (&objectAttributes, &fullFileName, OBJ_KERNEL_HANDLE | OBJ_CASE_INSENSITIVE, NULL, NULL);

  00020	33 f6		 xor	 esi, esi
  00022	48 8d 44 24 30	 lea	 rax, QWORD PTR fullFileName$[rsp]

; 2853 : 
; 2854 : 	ntStatus = ZwOpenSymbolicLinkObject (&handle, GENERIC_READ, &objectAttributes);

  00027	4c 8d 44 24 40	 lea	 r8, QWORD PTR objectAttributes$[rsp]
  0002c	48 8d 8c 24 98
	00 00 00	 lea	 rcx, QWORD PTR handle$[rsp]
  00034	ba 00 00 00 80	 mov	 edx, -2147483648	; 80000000H
  00039	48 89 44 24 50	 mov	 QWORD PTR objectAttributes$[rsp+16], rax
  0003e	c7 44 24 40 30
	00 00 00	 mov	 DWORD PTR objectAttributes$[rsp], 48 ; 00000030H
  00046	48 89 74 24 48	 mov	 QWORD PTR objectAttributes$[rsp+8], rsi
  0004b	c7 44 24 58 40
	02 00 00	 mov	 DWORD PTR objectAttributes$[rsp+24], 576 ; 00000240H
  00053	48 89 74 24 60	 mov	 QWORD PTR objectAttributes$[rsp+32], rsi
  00058	48 89 74 24 68	 mov	 QWORD PTR objectAttributes$[rsp+40], rsi
  0005d	ff 15 00 00 00
	00		 call	 QWORD PTR __imp_ZwOpenSymbolicLinkObject

; 2855 : 
; 2856 : 	if (NT_SUCCESS (ntStatus))

  00063	3b c6		 cmp	 eax, esi
  00065	8b d8		 mov	 ebx, eax
  00067	7c 46		 jl	 SHORT $LN1@SymbolicLi

; 2857 : 	{
; 2858 : 		UNICODE_STRING target;
; 2859 : 		target.Buffer = targetName;
; 2860 : 		target.Length = 0;
; 2861 : 		target.MaximumLength = maxTargetNameLength;

  00069	41 b8 08 02 00
	00		 mov	 r8d, 520		; 00000208H

; 2862 : 		memset (targetName, 0, maxTargetNameLength);

  0006f	33 d2		 xor	 edx, edx
  00071	48 8b cf	 mov	 rcx, rdi
  00074	48 89 7c 24 28	 mov	 QWORD PTR target$32707[rsp+8], rdi
  00079	66 89 74 24 20	 mov	 WORD PTR target$32707[rsp], si
  0007e	66 44 89 44 24
	22		 mov	 WORD PTR target$32707[rsp+2], r8w
  00084	e8 00 00 00 00	 call	 memset

; 2863 : 
; 2864 : 		ntStatus = ZwQuerySymbolicLinkObject (handle, &target, NULL);

  00089	48 8b 8c 24 98
	00 00 00	 mov	 rcx, QWORD PTR handle$[rsp]
  00091	48 8d 54 24 20	 lea	 rdx, QWORD PTR target$32707[rsp]
  00096	45 33 c0	 xor	 r8d, r8d
  00099	ff 15 00 00 00
	00		 call	 QWORD PTR __imp_ZwQuerySymbolicLinkObject

; 2865 : 
; 2866 : 		ZwClose (handle);

  0009f	48 8b 8c 24 98
	00 00 00	 mov	 rcx, QWORD PTR handle$[rsp]
  000a7	8b d8		 mov	 ebx, eax
  000a9	ff 15 00 00 00
	00		 call	 QWORD PTR __imp_ZwClose
$LN1@SymbolicLi:

; 2867 : 	}
; 2868 : 
; 2869 : 	return ntStatus;
; 2870 : }

  000af	4c 8d 5c 24 70	 lea	 r11, QWORD PTR [rsp+112]
  000b4	8b c3		 mov	 eax, ebx
  000b6	49 8b 5b 10	 mov	 rbx, QWORD PTR [r11+16]
  000ba	49 8b 73 18	 mov	 rsi, QWORD PTR [r11+24]
  000be	49 8b e3	 mov	 rsp, r11
  000c1	5f		 pop	 rdi
  000c2	c3		 ret	 0
SymbolicLinkToTarget ENDP
_TEXT	ENDS
PUBLIC	getToken
; Function compile flags: /Ogspy
;	COMDAT getToken
_TEXT	SEGMENT
psubContext$ = 8
getToken PROC						; COMDAT

; 2549 : 	if (!psubContext) 
; 2550 : 	{
; 2551 : 		return NULL;
; 2552 : 	}
; 2553 : 	else if (psubContext->ClientToken && psubContext->ImpersonationLevel >= SecurityImpersonation)

  00000	48 8b 01	 mov	 rax, QWORD PTR [rcx]
  00003	48 85 c0	 test	 rax, rax
  00006	74 06		 je	 SHORT $LN2@getToken
  00008	83 79 08 02	 cmp	 DWORD PTR [rcx+8], 2

; 2554 : 	{
; 2555 : 		return psubContext->ClientToken;

  0000c	7d 04		 jge	 SHORT $LN8@getToken
$LN2@getToken:

; 2556 : 	}
; 2557 : 	else
; 2558 : 	{
; 2559 : 		return psubContext->PrimaryToken;

  0000e	48 8b 41 10	 mov	 rax, QWORD PTR [rcx+16]
$LN8@getToken:

; 2560 : 	}
; 2561 : }

  00012	c3		 ret	 0
getToken ENDP
_TEXT	ENDS
;	COMDAT pdata
pdata	SEGMENT
$pdata$TCReadWriteDevice DD imagerel TCReadWriteDevice
	DD	imagerel TCReadWriteDevice+213
	DD	imagerel $unwind$TCReadWriteDevice
pdata	ENDS
;	COMDAT xdata
xdata	SEGMENT
$unwind$TCReadWriteDevice DD 061401H
	DD	0116414H
	DD	0103414H
	DD	07010d214H
; Function compile flags: /Ogspy
xdata	ENDS
;	COMDAT TCReadWriteDevice
_TEXT	SEGMENT
ioStatusBlock$ = 64
completionEvent$ = 80
write$ = 128
deviceObject$ = 136
buffer$ = 144
offset$ = 152
length$ = 160
TCReadWriteDevice PROC					; COMDAT

; 2370 : {

  00000	48 8b c4	 mov	 rax, rsp
  00003	48 89 58 08	 mov	 QWORD PTR [rax+8], rbx
  00007	48 89 70 10	 mov	 QWORD PTR [rax+16], rsi
  0000b	4c 89 48 20	 mov	 QWORD PTR [rax+32], r9
  0000f	57		 push	 rdi
  00010	48 83 ec 70	 sub	 rsp, 112		; 00000070H
  00014	8b d9		 mov	 ebx, ecx
  00016	49 8b f8	 mov	 rdi, r8
  00019	48 8b f2	 mov	 rsi, rdx

; 2371 : 	NTSTATUS status;
; 2372 : 	IO_STATUS_BLOCK ioStatusBlock;
; 2373 : 	PIRP irp;
; 2374 : 	KEVENT completionEvent;
; 2375 : 
; 2376 : 	ASSERT (KeGetCurrentIrql() <= APC_LEVEL);
; 2377 : 
; 2378 : 	KeInitializeEvent (&completionEvent, NotificationEvent, FALSE);

  0001c	48 8d 48 d8	 lea	 rcx, QWORD PTR [rax-40]
  00020	45 33 c0	 xor	 r8d, r8d
  00023	33 d2		 xor	 edx, edx
  00025	ff 15 00 00 00
	00		 call	 QWORD PTR __imp_KeInitializeEvent

; 2379 : 	irp = IoBuildSynchronousFsdRequest (write ? IRP_MJ_WRITE : IRP_MJ_READ, deviceObject, buffer, length, &offset, &completionEvent, &ioStatusBlock);

  0002b	44 8b 8c 24 a0
	00 00 00	 mov	 r9d, DWORD PTR length$[rsp]
  00033	48 8d 44 24 40	 lea	 rax, QWORD PTR ioStatusBlock$[rsp]
  00038	48 89 44 24 30	 mov	 QWORD PTR [rsp+48], rax
  0003d	48 8d 44 24 50	 lea	 rax, QWORD PTR completionEvent$[rsp]
  00042	f7 db		 neg	 ebx
  00044	1b c9		 sbb	 ecx, ecx
  00046	48 89 44 24 28	 mov	 QWORD PTR [rsp+40], rax
  0004b	48 8d 84 24 98
	00 00 00	 lea	 rax, QWORD PTR offset$[rsp]
  00053	f7 d9		 neg	 ecx
  00055	4c 8b c7	 mov	 r8, rdi
  00058	48 8b d6	 mov	 rdx, rsi
  0005b	83 c1 03	 add	 ecx, 3
  0005e	48 89 44 24 20	 mov	 QWORD PTR [rsp+32], rax
  00063	ff 15 00 00 00
	00		 call	 QWORD PTR __imp_IoBuildSynchronousFsdRequest
  00069	48 8b d8	 mov	 rbx, rax

; 2380 : 	if (!irp)

  0006c	48 85 c0	 test	 rax, rax
  0006f	75 07		 jne	 SHORT $LN3@TCReadWrit

; 2381 : 		return STATUS_INSUFFICIENT_RESOURCES;

  00071	b8 9a 00 00 c0	 mov	 eax, -1073741670	; ffffffffc000009aH
  00076	eb 4b		 jmp	 SHORT $LN4@TCReadWrit
$LN3@TCReadWrit:

; 2382 : 
; 2383 : 	ObReferenceObject (deviceObject);

  00078	48 8b ce	 mov	 rcx, rsi
  0007b	ff 15 00 00 00
	00		 call	 QWORD PTR __imp_ObfReferenceObject

; 2384 : 	status = IoCallDriver (deviceObject, irp);

  00081	48 8b d3	 mov	 rdx, rbx
  00084	48 8b ce	 mov	 rcx, rsi
  00087	ff 15 00 00 00
	00		 call	 QWORD PTR __imp_IofCallDriver
  0008d	8b d8		 mov	 ebx, eax

; 2385 : 
; 2386 : 	if (status == STATUS_PENDING)

  0008f	3d 03 01 00 00	 cmp	 eax, 259		; 00000103H
  00094	75 22		 jne	 SHORT $LN1@TCReadWrit

; 2387 : 	{
; 2388 : 		status = KeWaitForSingleObject (&completionEvent, Executive, KernelMode, FALSE, NULL);

  00096	48 83 64 24 20
	00		 and	 QWORD PTR [rsp+32], 0
  0009c	48 8d 4c 24 50	 lea	 rcx, QWORD PTR completionEvent$[rsp]
  000a1	45 33 c9	 xor	 r9d, r9d
  000a4	45 33 c0	 xor	 r8d, r8d
  000a7	33 d2		 xor	 edx, edx
  000a9	ff 15 00 00 00
	00		 call	 QWORD PTR __imp_KeWaitForSingleObject
  000af	8b d8		 mov	 ebx, eax

; 2389 : 		if (NT_SUCCESS (status))

  000b1	85 c0		 test	 eax, eax
  000b3	0f 49 5c 24 40	 cmovns	 ebx, DWORD PTR ioStatusBlock$[rsp]
$LN1@TCReadWrit:

; 2390 : 			status = ioStatusBlock.Status;
; 2391 : 	}
; 2392 : 
; 2393 : 	ObDereferenceObject (deviceObject);

  000b8	48 8b ce	 mov	 rcx, rsi
  000bb	ff 15 00 00 00
	00		 call	 QWORD PTR __imp_ObfDereferenceObject

; 2394 : 	return status;

  000c1	8b c3		 mov	 eax, ebx
$LN4@TCReadWrit:

; 2395 : }

  000c3	4c 8d 5c 24 70	 lea	 r11, QWORD PTR [rsp+112]
  000c8	49 8b 5b 10	 mov	 rbx, QWORD PTR [r11+16]
  000cc	49 8b 73 18	 mov	 rsi, QWORD PTR [r11+24]
  000d0	49 8b e3	 mov	 rsp, r11
  000d3	5f		 pop	 rdi
  000d4	c3		 ret	 0
TCReadWriteDevice ENDP
_TEXT	ENDS
PUBLIC	TCCloseFsVolume
;	COMDAT pdata
pdata	SEGMENT
$pdata$TCCloseFsVolume DD imagerel $LN3
	DD	imagerel $LN3+33
	DD	imagerel $unwind$TCCloseFsVolume
pdata	ENDS
;	COMDAT xdata
xdata	SEGMENT
$unwind$TCCloseFsVolume DD 020601H
	DD	030023206H
; Function compile flags: /Ogspy
xdata	ENDS
;	COMDAT TCCloseFsVolume
_TEXT	SEGMENT
volumeHandle$ = 48
fileObject$ = 56
TCCloseFsVolume PROC					; COMDAT

; 2363 : {

$LN3:
  00000	40 53		 push	 rbx
  00002	48 83 ec 20	 sub	 rsp, 32			; 00000020H
  00006	48 8b d9	 mov	 rbx, rcx

; 2364 : 	ObDereferenceObject (fileObject);

  00009	48 8b ca	 mov	 rcx, rdx
  0000c	ff 15 00 00 00
	00		 call	 QWORD PTR __imp_ObfDereferenceObject

; 2365 : 	ZwClose (volumeHandle);

  00012	48 8b cb	 mov	 rcx, rbx

; 2366 : }

  00015	48 83 c4 20	 add	 rsp, 32			; 00000020H
  00019	5b		 pop	 rbx
  0001a	48 ff 25 00 00
	00 00		 rex_jmp QWORD PTR __imp_ZwClose
TCCloseFsVolume ENDP
_TEXT	ENDS
PUBLIC	SendDeviceIoControlRequest
;	COMDAT pdata
pdata	SEGMENT
$pdata$SendDeviceIoControlRequestWorkItemRoutine DD imagerel SendDeviceIoControlRequestWorkItemRoutine
	DD	imagerel SendDeviceIoControlRequestWorkItemRoutine+68
	DD	imagerel $unwind$SendDeviceIoControlRequestWorkItemRoutine
pdata	ENDS
;	COMDAT xdata
xdata	SEGMENT
$unwind$SendDeviceIoControlRequestWorkItemRoutine DD 020601H
	DD	030025206H
; Function compile flags: /Ogspy
xdata	ENDS
;	COMDAT SendDeviceIoControlRequestWorkItemRoutine
_TEXT	SEGMENT
rootDeviceObject$ = 64
arg$ = 72
SendDeviceIoControlRequestWorkItemRoutine PROC		; COMDAT

; 2208 : {

  00000	40 53		 push	 rbx
  00002	48 83 ec 30	 sub	 rsp, 48			; 00000030H

; 2209 : 	arg->Status = SendDeviceIoControlRequest (arg->deviceObject, arg->ioControlCode, arg->inputBuffer, arg->inputBufferSize, arg->outputBuffer, arg->outputBufferSize);

  00006	8b 42 28	 mov	 eax, DWORD PTR [rdx+40]
  00009	44 8b 4a 18	 mov	 r9d, DWORD PTR [rdx+24]
  0000d	4c 8b 42 10	 mov	 r8, QWORD PTR [rdx+16]
  00011	48 8b da	 mov	 rbx, rdx
  00014	89 44 24 28	 mov	 DWORD PTR [rsp+40], eax
  00018	48 8b 42 20	 mov	 rax, QWORD PTR [rdx+32]
  0001c	8b 52 08	 mov	 edx, DWORD PTR [rdx+8]
  0001f	48 8b 0b	 mov	 rcx, QWORD PTR [rbx]
  00022	48 89 44 24 20	 mov	 QWORD PTR [rsp+32], rax
  00027	e8 00 00 00 00	 call	 SendDeviceIoControlRequest

; 2210 : 	KeSetEvent (&arg->WorkItemCompletedEvent, IO_NO_INCREMENT, FALSE);

  0002c	48 8d 4b 30	 lea	 rcx, QWORD PTR [rbx+48]
  00030	45 33 c0	 xor	 r8d, r8d
  00033	33 d2		 xor	 edx, edx
  00035	89 43 2c	 mov	 DWORD PTR [rbx+44], eax

; 2211 : }

  00038	48 83 c4 30	 add	 rsp, 48			; 00000030H
  0003c	5b		 pop	 rbx
  0003d	48 ff 25 00 00
	00 00		 rex_jmp QWORD PTR __imp_KeSetEvent
SendDeviceIoControlRequestWorkItemRoutine ENDP
_TEXT	ENDS
PUBLIC	__$ArrayPad$
PUBLIC	TCGetDosNameFromNumber
EXTRN	__GSHandlerCheck:PROC
EXTRN	__security_cookie:QWORD
;	COMDAT pdata
pdata	SEGMENT
$pdata$TCGetDosNameFromNumber DD imagerel $LN6
	DD	imagerel $LN6+133
	DD	imagerel $unwind$TCGetDosNameFromNumber
pdata	ENDS
;	COMDAT xdata
xdata	SEGMENT
$unwind$TCGetDosNameFromNumber DD 021519H
	DD	070021206H
	DD	imagerel __GSHandlerCheck
	DD	08H
; Function compile flags: /Ogspy
xdata	ENDS
;	COMDAT TCGetDosNameFromNumber
_TEXT	SEGMENT
tmp$ = 0
__$ArrayPad$ = 8
dosname$ = 32
nDriveNo$ = 40
TCGetDosNameFromNumber PROC				; COMDAT

; 1884 : {

$LN6:
  00000	40 57		 push	 rdi
  00002	48 83 ec 10	 sub	 rsp, 16
  00006	48 8b 05 00 00
	00 00		 mov	 rax, QWORD PTR __security_cookie
  0000d	48 33 c4	 xor	 rax, rsp
  00010	48 89 44 24 08	 mov	 QWORD PTR __$ArrayPad$[rsp], rax

; 1885 : 	WCHAR tmp[3] =
; 1886 : 	{0, ':', 0};
; 1887 : 	int j = nDriveNo + (WCHAR) 'A';

  00015	66 83 c2 41	 add	 dx, 65			; 00000041H
  00019	48 8b f9	 mov	 rdi, rcx
  0001c	45 33 c0	 xor	 r8d, r8d

; 1888 : 
; 1889 : 	tmp[0] = (short) j;

  0001f	66 89 14 24	 mov	 WORD PTR tmp$[rsp], dx

; 1890 : 	//This is a risk point from CVE-2015-7358, there are global and per user mounts, need more logic here.
; 1891 : 	wcscpy (dosname, (LPWSTR) DOS_MOUNT_PREFIX);

  00023	48 8d 0d 00 00
	00 00		 lea	 rcx, OFFSET FLAT:??_C@_1BK@LABJKOM@?$AA?2?$AAD?$AAo?$AAs?$AAD?$AAe?$AAv?$AAi?$AAc?$AAe?$AAs?$AA?2?$AA?$AA@FNODOBFM@
  0002a	b8 3a 00 00 00	 mov	 eax, 58			; 0000003aH
  0002f	48 8b d7	 mov	 rdx, rdi
  00032	66 44 89 44 24
	04		 mov	 WORD PTR tmp$[rsp+4], r8w
  00038	66 89 44 24 02	 mov	 WORD PTR tmp$[rsp+2], ax
  0003d	48 2b d1	 sub	 rdx, rcx
$LL3@TCGetDosNa:
  00040	0f b7 01	 movzx	 eax, WORD PTR [rcx]
  00043	66 89 04 0a	 mov	 WORD PTR [rdx+rcx], ax
  00047	48 83 c1 02	 add	 rcx, 2
  0004b	66 41 3b c0	 cmp	 ax, r8w
  0004f	75 ef		 jne	 SHORT $LL3@TCGetDosNa

; 1892 : 	wcscat (dosname, tmp);

  00051	33 c0		 xor	 eax, eax
  00053	48 83 c9 ff	 or	 rcx, -1
  00057	48 8d 14 24	 lea	 rdx, QWORD PTR tmp$[rsp]
  0005b	66 f2 af	 repne scasw
  0005e	33 c9		 xor	 ecx, ecx
$LL5@TCGetDosNa:
  00060	0f b7 04 0a	 movzx	 eax, WORD PTR [rdx+rcx]
  00064	48 83 c1 02	 add	 rcx, 2
  00068	66 89 44 0f fc	 mov	 WORD PTR [rdi+rcx-4], ax
  0006d	66 85 c0	 test	 ax, ax
  00070	75 ee		 jne	 SHORT $LL5@TCGetDosNa

; 1893 : }

  00072	48 8b 4c 24 08	 mov	 rcx, QWORD PTR __$ArrayPad$[rsp]
  00077	48 33 cc	 xor	 rcx, rsp
  0007a	e8 00 00 00 00	 call	 __security_check_cookie
  0007f	48 83 c4 10	 add	 rsp, 16
  00083	5f		 pop	 rdi
  00084	c3		 ret	 0
TCGetDosNameFromNumber ENDP
_TEXT	ENDS
PUBLIC	__$ArrayPad$
PUBLIC	TCGetNTNameFromNumber
;	COMDAT pdata
pdata	SEGMENT
$pdata$TCGetNTNameFromNumber DD imagerel $LN5
	DD	imagerel $LN5+113
	DD	imagerel $unwind$TCGetNTNameFromNumber
pdata	ENDS
;	COMDAT xdata
xdata	SEGMENT
$unwind$TCGetNTNameFromNumber DD 011319H
	DD	06204H
	DD	imagerel __GSHandlerCheck
	DD	028H
; Function compile flags: /Ogspy
xdata	ENDS
;	COMDAT TCGetNTNameFromNumber
_TEXT	SEGMENT
tmp$ = 32
__$ArrayPad$ = 40
ntname$ = 64
nDriveNo$ = 72
TCGetNTNameFromNumber PROC				; COMDAT

; 1873 : {

$LN5:
  00000	48 83 ec 38	 sub	 rsp, 56			; 00000038H
  00004	48 8b 05 00 00
	00 00		 mov	 rax, QWORD PTR __security_cookie
  0000b	48 33 c4	 xor	 rax, rsp
  0000e	48 89 44 24 28	 mov	 QWORD PTR __$ArrayPad$[rsp], rax

; 1874 : 	WCHAR tmp[3] =
; 1875 : 	{0, ':', 0};
; 1876 : 	int j = nDriveNo + (WCHAR) 'A';

  00013	66 83 c2 41	 add	 dx, 65			; 00000041H
  00017	45 33 c9	 xor	 r9d, r9d
  0001a	b8 3a 00 00 00	 mov	 eax, 58			; 0000003aH

; 1877 : 
; 1878 : 	tmp[0] = (short) j;

  0001f	66 89 54 24 20	 mov	 WORD PTR tmp$[rsp], dx

; 1879 : 	wcscpy (ntname, (LPWSTR) NT_MOUNT_PREFIX);

  00024	48 8d 15 00 00
	00 00		 lea	 rdx, OFFSET FLAT:??_C@_1DA@GMJGMIMP@?$AA?2?$AAD?$AAe?$AAv?$AAi?$AAc?$AAe?$AA?2?$AAT?$AAr?$AAu?$AAe?$AAC?$AAr?$AAy?$AAp?$AAt?$AAV?$AAo?$AAl?$AAu?$AAm?$AAe?$AA?$AA@FNODOBFM@
  0002b	4c 8b c1	 mov	 r8, rcx
  0002e	66 89 44 24 22	 mov	 WORD PTR tmp$[rsp+2], ax
  00033	66 44 89 4c 24
	24		 mov	 WORD PTR tmp$[rsp+4], r9w
  00039	4c 2b c2	 sub	 r8, rdx
$LL3@TCGetNTNam:
  0003c	0f b7 02	 movzx	 eax, WORD PTR [rdx]
  0003f	66 41 89 04 10	 mov	 WORD PTR [r8+rdx], ax
  00044	48 83 c2 02	 add	 rdx, 2
  00048	66 41 3b c1	 cmp	 ax, r9w
  0004c	75 ee		 jne	 SHORT $LL3@TCGetNTNam

; 1880 : 	wcsncat (ntname, tmp, 1);

  0004e	48 8d 54 24 20	 lea	 rdx, QWORD PTR tmp$[rsp]
  00053	41 b8 01 00 00
	00		 mov	 r8d, 1
  00059	ff 15 00 00 00
	00		 call	 QWORD PTR __imp_wcsncat

; 1881 : }

  0005f	48 8b 4c 24 28	 mov	 rcx, QWORD PTR __$ArrayPad$[rsp]
  00064	48 33 cc	 xor	 rcx, rsp
  00067	e8 00 00 00 00	 call	 __security_check_cookie
  0006c	48 83 c4 38	 add	 rsp, 56			; 00000038H
  00070	c3		 ret	 0
TCGetNTNameFromNumber ENDP
_TEXT	ENDS
PUBLIC	TCSleep
;	COMDAT pdata
pdata	SEGMENT
$pdata$TCSleep DD imagerel $LN4
	DD	imagerel $LN4+124
	DD	imagerel $unwind$TCSleep
pdata	ENDS
;	COMDAT xdata
xdata	SEGMENT
$unwind$TCSleep DD 040a01H
	DD	08340aH
	DD	07006520aH
; Function compile flags: /Ogspy
xdata	ENDS
;	COMDAT TCSleep
_TEXT	SEGMENT
milliSeconds$ = 64
TCSleep	PROC						; COMDAT

; 1748 : {

$LN4:
  00000	48 89 5c 24 08	 mov	 QWORD PTR [rsp+8], rbx
  00005	57		 push	 rdi
  00006	48 83 ec 30	 sub	 rsp, 48			; 00000030H
  0000a	48 63 d9	 movsxd	 rbx, ecx

; 1749 : 	PKTIMER timer = (PKTIMER) TCalloc (sizeof (KTIMER));

  0000d	ba 40 00 00 00	 mov	 edx, 64			; 00000040H
  00012	41 b8 54 43 4d
	4d		 mov	 r8d, 1296909140		; 4d4d4354H
  00018	33 c9		 xor	 ecx, ecx
  0001a	ff 15 00 00 00
	00		 call	 QWORD PTR __imp_ExAllocatePoolWithTag
  00020	48 8b f8	 mov	 rdi, rax

; 1750 : 	LARGE_INTEGER duetime;
; 1751 : 
; 1752 : 	if (!timer)

  00023	48 85 c0	 test	 rax, rax
  00026	74 49		 je	 SHORT $LN2@TCSleep

; 1753 : 		return;
; 1754 : 
; 1755 : 	duetime.QuadPart = (__int64) milliSeconds * -10000;
; 1756 : 	KeInitializeTimerEx(timer, NotificationTimer);

  00028	33 d2		 xor	 edx, edx
  0002a	48 8b c8	 mov	 rcx, rax
  0002d	48 69 db f0 d8
	ff ff		 imul	 rbx, -10000		; ffffffffffffd8f0H
  00034	ff 15 00 00 00
	00		 call	 QWORD PTR __imp_KeInitializeTimerEx

; 1757 : 	KeSetTimerEx(timer, duetime, 0, NULL);

  0003a	45 33 c9	 xor	 r9d, r9d
  0003d	45 33 c0	 xor	 r8d, r8d
  00040	48 8b d3	 mov	 rdx, rbx
  00043	48 8b cf	 mov	 rcx, rdi
  00046	ff 15 00 00 00
	00		 call	 QWORD PTR __imp_KeSetTimerEx

; 1758 : 
; 1759 : 	KeWaitForSingleObject (timer, Executive, KernelMode, FALSE, NULL);

  0004c	48 83 64 24 20
	00		 and	 QWORD PTR [rsp+32], 0
  00052	45 33 c9	 xor	 r9d, r9d
  00055	45 33 c0	 xor	 r8d, r8d
  00058	33 d2		 xor	 edx, edx
  0005a	48 8b cf	 mov	 rcx, rdi
  0005d	ff 15 00 00 00
	00		 call	 QWORD PTR __imp_KeWaitForSingleObject

; 1760 : 
; 1761 : 	TCfree (timer);

  00063	ba 54 43 4d 4d	 mov	 edx, 1296909140		; 4d4d4354H
  00068	48 8b cf	 mov	 rcx, rdi
  0006b	ff 15 00 00 00
	00		 call	 QWORD PTR __imp_ExFreePoolWithTag
$LN2@TCSleep:

; 1762 : }

  00071	48 8b 5c 24 40	 mov	 rbx, QWORD PTR [rsp+64]
  00076	48 83 c4 30	 add	 rsp, 48			; 00000030H
  0007a	5f		 pop	 rdi
  0007b	c3		 ret	 0
TCSleep	ENDP
_TEXT	ENDS
PUBLIC	TCStopVolumeThread
;	COMDAT pdata
pdata	SEGMENT
$pdata$TCStopVolumeThread DD imagerel $LN4
	DD	imagerel $LN4+79
	DD	imagerel $unwind$TCStopVolumeThread
pdata	ENDS
;	COMDAT xdata
xdata	SEGMENT
$unwind$TCStopVolumeThread DD 020601H
	DD	030025206H
; Function compile flags: /Ogspy
xdata	ENDS
;	COMDAT TCStopVolumeThread
_TEXT	SEGMENT
DeviceObject$ = 64
Extension$ = 72
TCStopVolumeThread PROC					; COMDAT

; 1717 : {

$LN4:
  00000	40 53		 push	 rbx
  00002	48 83 ec 30	 sub	 rsp, 48			; 00000030H

; 1718 : 	NTSTATUS ntStatus;
; 1719 : 
; 1720 : 	if (DeviceObject);	/* Remove compiler warning */
; 1721 : 
; 1722 : 	Dump ("Signalling thread to quit...\n");
; 1723 : 
; 1724 : 	Extension->bThreadShouldQuit = TRUE;

  00006	41 b8 01 00 00
	00		 mov	 r8d, 1

; 1725 : 
; 1726 : 	KeReleaseSemaphore (&Extension->RequestSemaphore,
; 1727 : 			    0,
; 1728 : 			    1,
; 1729 : 			    TRUE);

  0000c	48 8d 4a 58	 lea	 rcx, QWORD PTR [rdx+88]
  00010	48 8b da	 mov	 rbx, rdx
  00013	44 89 42 1c	 mov	 DWORD PTR [rdx+28], r8d
  00017	33 d2		 xor	 edx, edx
  00019	45 8a c8	 mov	 r9b, r8b
  0001c	ff 15 00 00 00
	00		 call	 QWORD PTR __imp_KeReleaseSemaphore

; 1730 : 
; 1731 : 	ntStatus = KeWaitForSingleObject (Extension->peThread,
; 1732 : 					  Executive,
; 1733 : 					  KernelMode,
; 1734 : 					  FALSE,
; 1735 : 					  NULL);

  00022	48 8b 4b 20	 mov	 rcx, QWORD PTR [rbx+32]
  00026	48 83 64 24 20
	00		 and	 QWORD PTR [rsp+32], 0
  0002c	45 33 c9	 xor	 r9d, r9d
  0002f	45 33 c0	 xor	 r8d, r8d
  00032	33 d2		 xor	 edx, edx
  00034	ff 15 00 00 00
	00		 call	 QWORD PTR __imp_KeWaitForSingleObject

; 1736 : 
; 1737 : 	ASSERT (NT_SUCCESS (ntStatus));
; 1738 : 
; 1739 : 	ObDereferenceObject (Extension->peThread);

  0003a	48 8b 4b 20	 mov	 rcx, QWORD PTR [rbx+32]
  0003e	ff 15 00 00 00
	00		 call	 QWORD PTR __imp_ObfDereferenceObject

; 1740 : 	Extension->peThread = NULL;

  00044	48 83 63 20 00	 and	 QWORD PTR [rbx+32], 0

; 1741 : 
; 1742 : 	Dump ("Thread exited\n");
; 1743 : }

  00049	48 83 c4 30	 add	 rsp, 48			; 00000030H
  0004d	5b		 pop	 rbx
  0004e	c3		 ret	 0
TCStopVolumeThread ENDP
_TEXT	ENDS
PUBLIC	TCStopThread
;	COMDAT pdata
pdata	SEGMENT
$pdata$TCStopThread DD imagerel $LN4
	DD	imagerel $LN4+69
	DD	imagerel $unwind$TCStopThread
pdata	ENDS
;	COMDAT xdata
xdata	SEGMENT
$unwind$TCStopThread DD 020601H
	DD	030025206H
; Function compile flags: /Ogspy
xdata	ENDS
;	COMDAT TCStopThread
_TEXT	SEGMENT
kThread$ = 64
wakeUpEvent$ = 72
TCStopThread PROC					; COMDAT

; 1630 : {

$LN4:
  00000	40 53		 push	 rbx
  00002	48 83 ec 30	 sub	 rsp, 48			; 00000030H
  00006	48 8b c2	 mov	 rax, rdx
  00009	48 8b d9	 mov	 rbx, rcx

; 1631 : 	if (wakeUpEvent)

  0000c	48 85 d2	 test	 rdx, rdx
  0000f	74 0e		 je	 SHORT $LN1@TCStopThre

; 1632 : 		KeSetEvent (wakeUpEvent, 0, FALSE);

  00011	45 33 c0	 xor	 r8d, r8d
  00014	33 d2		 xor	 edx, edx
  00016	48 8b c8	 mov	 rcx, rax
  00019	ff 15 00 00 00
	00		 call	 QWORD PTR __imp_KeSetEvent
$LN1@TCStopThre:

; 1633 : 
; 1634 : 	KeWaitForSingleObject (kThread, Executive, KernelMode, FALSE, NULL);

  0001f	48 83 64 24 20
	00		 and	 QWORD PTR [rsp+32], 0
  00025	45 33 c9	 xor	 r9d, r9d
  00028	45 33 c0	 xor	 r8d, r8d
  0002b	33 d2		 xor	 edx, edx
  0002d	48 8b cb	 mov	 rcx, rbx
  00030	ff 15 00 00 00
	00		 call	 QWORD PTR __imp_KeWaitForSingleObject

; 1635 : 	ObDereferenceObject (kThread);

  00036	48 8b cb	 mov	 rcx, rbx

; 1636 : }

  00039	48 83 c4 30	 add	 rsp, 48			; 00000030H
  0003d	5b		 pop	 rbx
  0003e	48 ff 25 00 00
	00 00		 rex_jmp QWORD PTR __imp_ObfDereferenceObject
TCStopThread ENDP
_TEXT	ENDS
PUBLIC	TCStartThreadInProcess
;	COMDAT pdata
pdata	SEGMENT
$pdata$TCStartThreadInProcess DD imagerel $LN8
	DD	imagerel $LN8+212
	DD	imagerel $unwind$TCStartThreadInProcess
pdata	ENDS
;	COMDAT xdata
xdata	SEGMENT
$unwind$TCStartThreadInProcess DD 041301H
	DD	0123413H
	DD	0700cf213H
; Function compile flags: /Ogspy
xdata	ENDS
;	COMDAT TCStartThreadInProcess
_TEXT	SEGMENT
processHandle$ = 64
threadProc$ = 144
threadArg$ = 152
kThread$ = 160
threadHandle$ = 168
process$ = 168
TCStartThreadInProcess PROC				; COMDAT

; 1594 : {

$LN8:
  00000	48 8b c4	 mov	 rax, rsp
  00003	48 89 58 08	 mov	 QWORD PTR [rax+8], rbx
  00007	4c 89 48 20	 mov	 QWORD PTR [rax+32], r9
  0000b	57		 push	 rdi
  0000c	48 81 ec 80 00
	00 00		 sub	 rsp, 128		; 00000080H

; 1595 : 	NTSTATUS status;
; 1596 : 	HANDLE threadHandle;
; 1597 : 	HANDLE processHandle = NULL;

  00013	48 83 60 b8 00	 and	 QWORD PTR [rax-72], 0

; 1598 : 	OBJECT_ATTRIBUTES threadObjAttributes;
; 1599 : 
; 1600 : 	if (process)
; 1601 : 	{
; 1602 : 		status = ObOpenObjectByPointer (process, OBJ_KERNEL_HANDLE, NULL, 0, NULL, KernelMode, &processHandle);
; 1603 : 		if (!NT_SUCCESS (status))
; 1604 : 			return status;
; 1605 : 	}
; 1606 : 
; 1607 : 	InitializeObjectAttributes (&threadObjAttributes, NULL, OBJ_KERNEL_HANDLE, NULL, NULL);

  00018	48 83 60 c8 00	 and	 QWORD PTR [rax-56], 0
  0001d	48 83 60 d0 00	 and	 QWORD PTR [rax-48], 0
  00022	48 83 60 e0 00	 and	 QWORD PTR [rax-32], 0
  00027	48 83 60 e8 00	 and	 QWORD PTR [rax-24], 0

; 1608 : 	
; 1609 : 	status = PsCreateSystemThread (&threadHandle, THREAD_ALL_ACCESS, &threadObjAttributes, processHandle, NULL, threadProc, threadArg);

  0002c	48 89 50 a8	 mov	 QWORD PTR [rax-88], rdx
  00030	48 89 48 a0	 mov	 QWORD PTR [rax-96], rcx
  00034	48 83 60 98 00	 and	 QWORD PTR [rax-104], 0
  00039	49 8b f8	 mov	 rdi, r8
  0003c	bb ff 03 1f 00	 mov	 ebx, 2032639		; 001f03ffH
  00041	48 8d 48 20	 lea	 rcx, QWORD PTR [rax+32]
  00045	4c 8d 40 c0	 lea	 r8, QWORD PTR [rax-64]
  00049	45 33 c9	 xor	 r9d, r9d
  0004c	8b d3		 mov	 edx, ebx
  0004e	c7 40 c0 30 00
	00 00		 mov	 DWORD PTR [rax-64], 48	; 00000030H
  00055	c7 40 d8 00 02
	00 00		 mov	 DWORD PTR [rax-40], 512	; 00000200H
  0005c	ff 15 00 00 00
	00		 call	 QWORD PTR __imp_PsCreateSystemThread

; 1610 : 	if (!NT_SUCCESS (status))

  00062	85 c0		 test	 eax, eax

; 1611 : 		return status;

  00064	78 5d		 js	 SHORT $LN6@TCStartThr

; 1612 : 
; 1613 : 	status = ObReferenceObjectByHandle (threadHandle, THREAD_ALL_ACCESS, NULL, KernelMode, (PVOID *) kThread, NULL);

  00066	48 8b 8c 24 a8
	00 00 00	 mov	 rcx, QWORD PTR threadHandle$[rsp]
  0006e	48 83 64 24 28
	00		 and	 QWORD PTR [rsp+40], 0
  00074	45 33 c9	 xor	 r9d, r9d
  00077	45 33 c0	 xor	 r8d, r8d
  0007a	8b d3		 mov	 edx, ebx
  0007c	48 89 7c 24 20	 mov	 QWORD PTR [rsp+32], rdi
  00081	ff 15 00 00 00
	00		 call	 QWORD PTR __imp_ObReferenceObjectByHandle
  00087	8b d8		 mov	 ebx, eax

; 1614 : 	if (!NT_SUCCESS (status))

  00089	85 c0		 test	 eax, eax
  0008b	79 16		 jns	 SHORT $LN2@TCStartThr

; 1615 : 	{
; 1616 : 		ZwClose (threadHandle);

  0008d	48 8b 8c 24 a8
	00 00 00	 mov	 rcx, QWORD PTR threadHandle$[rsp]
  00095	ff 15 00 00 00
	00		 call	 QWORD PTR __imp_ZwClose

; 1617 : 		*kThread = NULL;

  0009b	48 83 27 00	 and	 QWORD PTR [rdi], 0

; 1618 : 		return status;

  0009f	8b c3		 mov	 eax, ebx
  000a1	eb 20		 jmp	 SHORT $LN6@TCStartThr
$LN2@TCStartThr:

; 1619 : 	}
; 1620 : 
; 1621 : 	if (processHandle)

  000a3	48 8b 4c 24 40	 mov	 rcx, QWORD PTR processHandle$[rsp]
  000a8	48 85 c9	 test	 rcx, rcx
  000ab	74 06		 je	 SHORT $LN1@TCStartThr

; 1622 : 		ZwClose (processHandle);

  000ad	ff 15 00 00 00
	00		 call	 QWORD PTR __imp_ZwClose
$LN1@TCStartThr:

; 1623 : 
; 1624 : 	ZwClose (threadHandle);

  000b3	48 8b 8c 24 a8
	00 00 00	 mov	 rcx, QWORD PTR threadHandle$[rsp]
  000bb	ff 15 00 00 00
	00		 call	 QWORD PTR __imp_ZwClose

; 1625 : 	return STATUS_SUCCESS;

  000c1	33 c0		 xor	 eax, eax
$LN6@TCStartThr:

; 1626 : }

  000c3	48 8b 9c 24 90
	00 00 00	 mov	 rbx, QWORD PTR [rsp+144]
  000cb	48 81 c4 80 00
	00 00		 add	 rsp, 128		; 00000080H
  000d2	5f		 pop	 rdi
  000d3	c3		 ret	 0
TCStartThreadInProcess ENDP
_TEXT	ENDS
PUBLIC	TCStartThread
;	COMDAT pdata
pdata	SEGMENT
$pdata$TCStartThread DD imagerel $LN10
	DD	imagerel $LN10+211
	DD	imagerel $unwind$TCStartThread
pdata	ENDS
;	COMDAT xdata
xdata	SEGMENT
$unwind$TCStartThread DD 040f01H
	DD	012340fH
	DD	07008f20fH
; Function compile flags: /Ogspy
xdata	ENDS
;	COMDAT TCStartThread
_TEXT	SEGMENT
processHandle$46071 = 64
threadProc$ = 144
threadArg$ = 152
kThread$ = 160
threadHandle$46070 = 168
TCStartThread PROC					; COMDAT

; 1588 : {

$LN10:
  00000	48 8b c4	 mov	 rax, rsp
  00003	48 89 58 08	 mov	 QWORD PTR [rax+8], rbx
  00007	57		 push	 rdi
  00008	48 81 ec 80 00
	00 00		 sub	 rsp, 128		; 00000080H

; 1589 : 	return TCStartThreadInProcess (threadProc, threadArg, kThread, NULL);

  0000f	48 83 60 b8 00	 and	 QWORD PTR [rax-72], 0
  00014	48 83 60 c8 00	 and	 QWORD PTR [rax-56], 0
  00019	48 83 60 d0 00	 and	 QWORD PTR [rax-48], 0
  0001e	48 83 60 e0 00	 and	 QWORD PTR [rax-32], 0
  00023	48 83 60 e8 00	 and	 QWORD PTR [rax-24], 0
  00028	48 89 50 a8	 mov	 QWORD PTR [rax-88], rdx
  0002c	48 89 48 a0	 mov	 QWORD PTR [rax-96], rcx
  00030	48 83 60 98 00	 and	 QWORD PTR [rax-104], 0
  00035	49 8b f8	 mov	 rdi, r8
  00038	48 8d 48 20	 lea	 rcx, QWORD PTR [rax+32]
  0003c	4c 8d 40 c0	 lea	 r8, QWORD PTR [rax-64]
  00040	45 33 c9	 xor	 r9d, r9d
  00043	ba ff 03 1f 00	 mov	 edx, 2032639		; 001f03ffH
  00048	c7 40 c0 30 00
	00 00		 mov	 DWORD PTR [rax-64], 48	; 00000030H
  0004f	c7 40 d8 00 02
	00 00		 mov	 DWORD PTR [rax-40], 512	; 00000200H
  00056	ff 15 00 00 00
	00		 call	 QWORD PTR __imp_PsCreateSystemThread
  0005c	8b d8		 mov	 ebx, eax
  0005e	85 c0		 test	 eax, eax
  00060	78 5e		 js	 SHORT $LN8@TCStartThr@2
  00062	48 8b 8c 24 a8
	00 00 00	 mov	 rcx, QWORD PTR threadHandle$46070[rsp]
  0006a	48 83 64 24 28
	00		 and	 QWORD PTR [rsp+40], 0
  00070	45 33 c9	 xor	 r9d, r9d
  00073	45 33 c0	 xor	 r8d, r8d
  00076	ba ff 03 1f 00	 mov	 edx, 2032639		; 001f03ffH
  0007b	48 89 7c 24 20	 mov	 QWORD PTR [rsp+32], rdi
  00080	ff 15 00 00 00
	00		 call	 QWORD PTR __imp_ObReferenceObjectByHandle
  00086	8b d8		 mov	 ebx, eax
  00088	85 c0		 test	 eax, eax
  0008a	79 14		 jns	 SHORT $LN4@TCStartThr@2
  0008c	48 8b 8c 24 a8
	00 00 00	 mov	 rcx, QWORD PTR threadHandle$46070[rsp]
  00094	ff 15 00 00 00
	00		 call	 QWORD PTR __imp_ZwClose
  0009a	48 83 27 00	 and	 QWORD PTR [rdi], 0
  0009e	eb 20		 jmp	 SHORT $LN8@TCStartThr@2
$LN4@TCStartThr@2:
  000a0	48 8b 4c 24 40	 mov	 rcx, QWORD PTR processHandle$46071[rsp]
  000a5	48 85 c9	 test	 rcx, rcx
  000a8	74 06		 je	 SHORT $LN3@TCStartThr@2
  000aa	ff 15 00 00 00
	00		 call	 QWORD PTR __imp_ZwClose
$LN3@TCStartThr@2:
  000b0	48 8b 8c 24 a8
	00 00 00	 mov	 rcx, QWORD PTR threadHandle$46070[rsp]
  000b8	ff 15 00 00 00
	00		 call	 QWORD PTR __imp_ZwClose
  000be	33 db		 xor	 ebx, ebx
$LN8@TCStartThr@2:
  000c0	8b c3		 mov	 eax, ebx

; 1590 : }

  000c2	48 8b 9c 24 90
	00 00 00	 mov	 rbx, QWORD PTR [rsp+144]
  000ca	48 81 c4 80 00
	00 00		 add	 rsp, 128		; 00000080H
  000d1	5f		 pop	 rdi
  000d2	c3		 ret	 0
TCStartThread ENDP
_TEXT	ENDS
PUBLIC	RootDeviceControlMutexRelease
RootDeviceControlMutex DB 038H DUP (?)
; Function compile flags: /Ogspy
;	COMDAT RootDeviceControlMutexRelease
_TEXT	SEGMENT
RootDeviceControlMutexRelease PROC			; COMDAT

; 491  : 	KeReleaseMutex (&RootDeviceControlMutex, FALSE);

  00000	48 8d 0d 00 00
	00 00		 lea	 rcx, OFFSET FLAT:RootDeviceControlMutex
  00007	33 d2		 xor	 edx, edx

; 492  : }

  00009	48 ff 25 00 00
	00 00		 rex_jmp QWORD PTR __imp_KeReleaseMutex
RootDeviceControlMutexRelease ENDP
_TEXT	ENDS
PUBLIC	RootDeviceControlMutexAcquireNoWait
;	COMDAT pdata
pdata	SEGMENT
$pdata$RootDeviceControlMutexAcquireNoWait DD imagerel $LN5
	DD	imagerel $LN5+68
	DD	imagerel $unwind$RootDeviceControlMutexAcquireNoWait
pdata	ENDS
;	COMDAT xdata
xdata	SEGMENT
$unwind$RootDeviceControlMutexAcquireNoWait DD 020601H
	DD	030025206H
; Function compile flags: /Ogspy
xdata	ENDS
;	COMDAT RootDeviceControlMutexAcquireNoWait
_TEXT	SEGMENT
timeout$ = 64
RootDeviceControlMutexAcquireNoWait PROC		; COMDAT

; 479  : {

$LN5:
  00000	40 53		 push	 rbx
  00002	48 83 ec 30	 sub	 rsp, 48			; 00000030H

; 480  : 	NTSTATUS status;
; 481  : 	LARGE_INTEGER timeout;
; 482  : 	timeout.QuadPart = 0;
; 483  : 
; 484  : 	status = KeWaitForMutexObject (&RootDeviceControlMutex, Executive, KernelMode, FALSE, &timeout);

  00006	48 8d 44 24 40	 lea	 rax, QWORD PTR timeout$[rsp]
  0000b	48 8d 0d 00 00
	00 00		 lea	 rcx, OFFSET FLAT:RootDeviceControlMutex
  00012	33 db		 xor	 ebx, ebx
  00014	45 33 c9	 xor	 r9d, r9d
  00017	45 33 c0	 xor	 r8d, r8d
  0001a	33 d2		 xor	 edx, edx
  0001c	48 89 44 24 20	 mov	 QWORD PTR [rsp+32], rax
  00021	48 89 5c 24 40	 mov	 QWORD PTR timeout$[rsp], rbx
  00026	ff 15 00 00 00
	00		 call	 QWORD PTR __imp_KeWaitForSingleObject

; 485  : 	return NT_SUCCESS (status) && status != STATUS_TIMEOUT;

  0002c	3b c3		 cmp	 eax, ebx
  0002e	7c 0c		 jl	 SHORT $LN4@RootDevice
  00030	3d 02 01 00 00	 cmp	 eax, 258		; 00000102H
  00035	74 05		 je	 SHORT $LN4@RootDevice
  00037	bb 01 00 00 00	 mov	 ebx, 1
$LN4@RootDevice:
  0003c	8b c3		 mov	 eax, ebx

; 486  : }

  0003e	48 83 c4 30	 add	 rsp, 48			; 00000030H
  00042	5b		 pop	 rbx
  00043	c3		 ret	 0
RootDeviceControlMutexAcquireNoWait ENDP
_TEXT	ENDS
PUBLIC	__$ArrayPad$
PUBLIC	TCCreateRootDeviceObject
;	COMDAT pdata
pdata	SEGMENT
$pdata$TCCreateRootDeviceObject DD imagerel $LN9
	DD	imagerel $LN9+323
	DD	imagerel $unwind$TCCreateRootDeviceObject
pdata	ENDS
;	COMDAT xdata
xdata	SEGMENT
$unwind$TCCreateRootDeviceObject DD 051f19H
	DD	023340dH
	DD	020010dH
	DD	07006H
	DD	imagerel __GSHandlerCheck
	DD	0f0H
; Function compile flags: /Ogspy
xdata	ENDS
;	COMDAT TCCreateRootDeviceObject
INIT	SEGMENT
DeviceObject$ = 64
ntUnicodeString$ = 72
Win32NameString$ = 88
ntname$ = 112
dosname$ = 176
__$ArrayPad$ = 240
DriverObject$ = 272
TCCreateRootDeviceObject PROC				; COMDAT

; 354  : {

$LN9:
  00000	48 89 5c 24 10	 mov	 QWORD PTR [rsp+16], rbx
  00005	57		 push	 rdi
  00006	48 81 ec 00 01
	00 00		 sub	 rsp, 256		; 00000100H
  0000d	48 8b 05 00 00
	00 00		 mov	 rax, QWORD PTR __security_cookie
  00014	48 33 c4	 xor	 rax, rsp
  00017	48 89 84 24 f0
	00 00 00	 mov	 QWORD PTR __$ArrayPad$[rsp], rax

; 355  : 	UNICODE_STRING Win32NameString, ntUnicodeString;
; 356  : 	WCHAR dosname[32], ntname[32];
; 357  : 	PDEVICE_OBJECT DeviceObject;
; 358  : 	NTSTATUS ntStatus;
; 359  : 	BOOL *bRootExtension;
; 360  : 
; 361  : 	Dump ("TCCreateRootDeviceObject BEGIN\n");
; 362  : 	ASSERT (KeGetCurrentIrql() == PASSIVE_LEVEL);
; 363  : 
; 364  : 	wcscpy (dosname, (LPWSTR) DOS_ROOT_PREFIX);

  0001f	33 ff		 xor	 edi, edi
  00021	48 8b d9	 mov	 rbx, rcx
  00024	48 8d 15 00 00
	00 00		 lea	 rdx, OFFSET FLAT:__ImageBase
  0002b	48 8b cf	 mov	 rcx, rdi
$LL5@TCCreateRo@2:
  0002e	0f b7 84 11 00
	00 00 00	 movzx	 eax, WORD PTR ??_C@_1CM@KJDLPNIG@?$AA?2?$AAD?$AAo?$AAs?$AAD?$AAe?$AAv?$AAi?$AAc?$AAe?$AAs?$AA?2?$AAT?$AAr?$AAu?$AAe?$AAC?$AAr?$AAy?$AAp?$AAt?$AA?$AA@PBOPGDP@[rcx+rdx]
  00036	48 83 c1 02	 add	 rcx, 2
  0003a	66 89 84 0c ae
	00 00 00	 mov	 WORD PTR dosname$[rsp+rcx-2], ax
  00042	66 3b c7	 cmp	 ax, di
  00045	75 e7		 jne	 SHORT $LL5@TCCreateRo@2

; 365  : 	wcscpy (ntname, (LPWSTR) NT_ROOT_PREFIX);

  00047	48 8b cf	 mov	 rcx, rdi
$LL6@TCCreateRo@2:
  0004a	0f b7 84 11 00
	00 00 00	 movzx	 eax, WORD PTR ??_C@_1CE@IPABBIFA@?$AA?2?$AAD?$AAe?$AAv?$AAi?$AAc?$AAe?$AA?2?$AAT?$AAr?$AAu?$AAe?$AAC?$AAr?$AAy?$AAp?$AAt?$AA?$AA@PBOPGDP@[rcx+rdx]
  00052	48 83 c1 02	 add	 rcx, 2
  00056	66 89 44 0c 6e	 mov	 WORD PTR ntname$[rsp+rcx-2], ax
  0005b	66 3b c7	 cmp	 ax, di
  0005e	75 ea		 jne	 SHORT $LL6@TCCreateRo@2

; 366  : 	RtlInitUnicodeString (&ntUnicodeString, ntname);

  00060	48 8d 54 24 70	 lea	 rdx, QWORD PTR ntname$[rsp]
  00065	48 8d 4c 24 48	 lea	 rcx, QWORD PTR ntUnicodeString$[rsp]
  0006a	ff 15 00 00 00
	00		 call	 QWORD PTR __imp_RtlInitUnicodeString

; 367  : 	RtlInitUnicodeString (&Win32NameString, dosname);

  00070	48 8d 94 24 b0
	00 00 00	 lea	 rdx, QWORD PTR dosname$[rsp]
  00078	48 8d 4c 24 58	 lea	 rcx, QWORD PTR Win32NameString$[rsp]
  0007d	ff 15 00 00 00
	00		 call	 QWORD PTR __imp_RtlInitUnicodeString

; 368  : 
; 369  : 	Dump ("Creating root device nt=%ls dos=%ls\n", ntname, dosname);
; 370  : 	
; 371  : 	ntStatus = IoCreateDevice (
; 372  : 					  DriverObject,
; 373  : 					  sizeof (BOOL),
; 374  : 					  &ntUnicodeString,
; 375  : 					  FILE_DEVICE_UNKNOWN,
; 376  : 					  FILE_DEVICE_SECURE_OPEN,
; 377  : 					  FALSE,
; 378  : 					  &DeviceObject);

  00083	41 b9 22 00 00
	00		 mov	 r9d, 34			; 00000022H
  00089	4c 8d 5c 24 40	 lea	 r11, QWORD PTR DeviceObject$[rsp]
  0008e	4c 89 5c 24 30	 mov	 QWORD PTR [rsp+48], r11
  00093	4c 8d 44 24 48	 lea	 r8, QWORD PTR ntUnicodeString$[rsp]
  00098	41 8d 51 e2	 lea	 edx, QWORD PTR [r9-30]
  0009c	48 8b cb	 mov	 rcx, rbx
  0009f	40 88 7c 24 28	 mov	 BYTE PTR [rsp+40], dil
  000a4	c7 44 24 20 00
	01 00 00	 mov	 DWORD PTR [rsp+32], 256	; 00000100H
  000ac	ff 15 00 00 00
	00		 call	 QWORD PTR __imp_IoCreateDevice

; 379  : 
; 380  : 	if (!NT_SUCCESS (ntStatus))

  000b2	3b c7		 cmp	 eax, edi

; 381  : 	{
; 382  : 		Dump ("TCCreateRootDeviceObject NTSTATUS = 0x%08x END\n", ntStatus);
; 383  : 		return ntStatus;/* Failed to create DeviceObject */

  000b4	7c 6c		 jl	 SHORT $LN3@TCCreateRo@2

; 384  : 	}
; 385  : 
; 386  : 	DeviceObject->Flags |= DO_DIRECT_IO;

  000b6	48 8b 44 24 40	 mov	 rax, QWORD PTR DeviceObject$[rsp]

; 387  : 	DeviceObject->AlignmentRequirement = FILE_WORD_ALIGNMENT;

  000bb	ba 01 00 00 00	 mov	 edx, 1
  000c0	83 48 30 10	 or	 DWORD PTR [rax+48], 16
  000c4	48 8b 44 24 40	 mov	 rax, QWORD PTR DeviceObject$[rsp]
  000c9	89 90 98 00 00
	00		 mov	 DWORD PTR [rax+152], edx

; 388  : 
; 389  : 	/* Setup the device extension */
; 390  : 	bRootExtension = (BOOL *) DeviceObject->DeviceExtension;

  000cf	48 8b 44 24 40	 mov	 rax, QWORD PTR DeviceObject$[rsp]
  000d4	48 8b 48 40	 mov	 rcx, QWORD PTR [rax+64]

; 391  : 	*bRootExtension = TRUE;

  000d8	89 11		 mov	 DWORD PTR [rcx], edx

; 392  : 
; 393  : 	KeInitializeMutex (&RootDeviceControlMutex, 0);

  000da	48 8d 0d 00 00
	00 00		 lea	 rcx, OFFSET FLAT:RootDeviceControlMutex
  000e1	33 d2		 xor	 edx, edx
  000e3	ff 15 00 00 00
	00		 call	 QWORD PTR __imp_KeInitializeMutex

; 394  : 
; 395  : 	ntStatus = IoCreateSymbolicLink (&Win32NameString, &ntUnicodeString);

  000e9	48 8d 54 24 48	 lea	 rdx, QWORD PTR ntUnicodeString$[rsp]
  000ee	48 8d 4c 24 58	 lea	 rcx, QWORD PTR Win32NameString$[rsp]
  000f3	ff 15 00 00 00
	00		 call	 QWORD PTR __imp_IoCreateSymbolicLink

; 396  : 
; 397  : 	if (!NT_SUCCESS (ntStatus))
; 398  : 	{
; 399  : 		Dump ("TCCreateRootDeviceObject NTSTATUS = 0x%08x END\n", ntStatus);
; 400  : 		IoDeleteDevice (DeviceObject);

  000f9	48 8b 4c 24 40	 mov	 rcx, QWORD PTR DeviceObject$[rsp]
  000fe	3b c7		 cmp	 eax, edi
  00100	8b d8		 mov	 ebx, eax
  00102	7d 0a		 jge	 SHORT $LN1@TCCreateRo@2
  00104	ff 15 00 00 00
	00		 call	 QWORD PTR __imp_IoDeleteDevice

; 401  : 		return ntStatus;

  0010a	8b c3		 mov	 eax, ebx
  0010c	eb 14		 jmp	 SHORT $LN3@TCCreateRo@2
$LN1@TCCreateRo@2:

; 402  : 	}
; 403  : 
; 404  : 	IoRegisterShutdownNotification (DeviceObject);

  0010e	ff 15 00 00 00
	00		 call	 QWORD PTR __imp_IoRegisterShutdownNotification

; 405  : 	RootDeviceObject = DeviceObject;

  00114	4c 8b 5c 24 40	 mov	 r11, QWORD PTR DeviceObject$[rsp]

; 406  : 
; 407  : 	Dump ("TCCreateRootDeviceObject STATUS_SUCCESS END\n");
; 408  : 	return STATUS_SUCCESS;

  00119	33 c0		 xor	 eax, eax
  0011b	4c 89 1d 00 00
	00 00		 mov	 QWORD PTR RootDeviceObject, r11
$LN3@TCCreateRo@2:

; 409  : }

  00122	48 8b 8c 24 f0
	00 00 00	 mov	 rcx, QWORD PTR __$ArrayPad$[rsp]
  0012a	48 33 cc	 xor	 rcx, rsp
  0012d	e8 00 00 00 00	 call	 __security_check_cookie
  00132	48 8b 9c 24 18
	01 00 00	 mov	 rbx, QWORD PTR [rsp+280]
  0013a	48 81 c4 00 01
	00 00		 add	 rsp, 256		; 00000100H
  00141	5f		 pop	 rdi
  00142	c3		 ret	 0
TCCreateRootDeviceObject ENDP
INIT	ENDS
PUBLIC	GetVirtualVolumeDeviceObject
; Function compile flags: /Ogspy
;	COMDAT GetVirtualVolumeDeviceObject
_TEXT	SEGMENT
driveNumber$ = 8
GetVirtualVolumeDeviceObject PROC			; COMDAT

; 192  : 	if (driveNumber < MIN_MOUNTED_VOLUME_DRIVE_NUMBER || driveNumber > MAX_MOUNTED_VOLUME_DRIVE_NUMBER)

  00000	83 f9 19	 cmp	 ecx, 25
  00003	77 0f		 ja	 SHORT $LN1@GetVirtual

; 194  : 
; 195  : 	return VirtualVolumeDeviceObjects[driveNumber];

  00005	48 63 c1	 movsxd	 rax, ecx
  00008	48 8d 0d 00 00
	00 00		 lea	 rcx, OFFSET FLAT:VirtualVolumeDeviceObjects
  0000f	48 8b 04 c1	 mov	 rax, QWORD PTR [rcx+rax*8]

; 196  : }

  00013	c3		 ret	 0
$LN1@GetVirtual:

; 193  : 		return NULL;

  00014	33 c0		 xor	 eax, eax

; 196  : }

  00016	c3		 ret	 0
GetVirtualVolumeDeviceObject ENDP
PUBLIC	ReadRegistryConfigFlags
;	COMDAT pdata
; File c:\users\public\desktop\projects\ciphershed\src\common\crypto.c
pdata	SEGMENT
$pdata$ReadRegistryConfigFlags DD imagerel $LN13
	DD	imagerel $LN13+226
	DD	imagerel $unwind$ReadRegistryConfigFlags
pdata	ENDS
;	COMDAT xdata
xdata	SEGMENT
$unwind$ReadRegistryConfigFlags DD 040a01H
	DD	08340aH
	DD	07006520aH
; Function compile flags: /Ogspy
; File c:\users\public\desktop\projects\ciphershed\src\driver\ntdriver.c
xdata	ENDS
;	COMDAT ReadRegistryConfigFlags
_TEXT	SEGMENT
name$ = 32
driverEntry$ = 64
data$ = 72
ReadRegistryConfigFlags PROC				; COMDAT

; 3148 : {

$LN13:
  00000	48 89 5c 24 08	 mov	 QWORD PTR [rsp+8], rbx
  00005	57		 push	 rdi
  00006	48 83 ec 30	 sub	 rsp, 48			; 00000030H
  0000a	8b f9		 mov	 edi, ecx

; 3149 : 	PKEY_VALUE_PARTIAL_INFORMATION data;
; 3150 : 	UNICODE_STRING name;
; 3151 : 	NTSTATUS status;
; 3152 : 	uint32 flags = 0;
; 3153 : 
; 3154 : 	RtlInitUnicodeString (&name, L"\\REGISTRY\\MACHINE\\SYSTEM\\CurrentControlSet\\Services\\truecrypt");

  0000c	48 8d 15 00 00
	00 00		 lea	 rdx, OFFSET FLAT:??_C@_1HM@GLBNDPGI@?$AA?2?$AAR?$AAE?$AAG?$AAI?$AAS?$AAT?$AAR?$AAY?$AA?2?$AAM?$AAA?$AAC?$AAH?$AAI?$AAN?$AAE?$AA?2?$AAS?$AAY?$AAS?$AAT?$AAE?$AAM?$AA?2?$AAC?$AAu?$AAr?$AAr?$AAe?$AAn?$AAt@FNODOBFM@
  00013	48 8d 4c 24 20	 lea	 rcx, QWORD PTR name$[rsp]
  00018	ff 15 00 00 00
	00		 call	 QWORD PTR __imp_RtlInitUnicodeString

; 3155 : 	status = TCReadRegistryKey (&name, TC_DRIVER_CONFIG_REG_VALUE_NAME, &data);

  0001e	4c 8d 44 24 48	 lea	 r8, QWORD PTR data$[rsp]
  00023	48 8d 15 00 00
	00 00		 lea	 rdx, OFFSET FLAT:??_C@_1CA@LGEHFLCO@?$AAT?$AAr?$AAu?$AAe?$AAC?$AAr?$AAy?$AAp?$AAt?$AAC?$AAo?$AAn?$AAf?$AAi?$AAg?$AA?$AA@FNODOBFM@
  0002a	48 8d 4c 24 20	 lea	 rcx, QWORD PTR name$[rsp]
  0002f	e8 00 00 00 00	 call	 TCReadRegistryKey
  00034	8b d8		 mov	 ebx, eax

; 3156 : 
; 3157 : 	if (NT_SUCCESS (status))

  00036	85 c0		 test	 eax, eax
  00038	78 5d		 js	 SHORT $LN8@ReadRegist

; 3158 : 	{
; 3159 : 		if (data->Type == REG_DWORD)

  0003a	4c 8b 44 24 48	 mov	 r8, QWORD PTR data$[rsp]
  0003f	41 83 78 04 04	 cmp	 DWORD PTR [r8+4], 4
  00044	75 3e		 jne	 SHORT $LN7@ReadRegist

; 3160 : 		{
; 3161 : 			flags = *(uint32 *) data->Data;

  00046	41 8b 48 0c	 mov	 ecx, DWORD PTR [r8+12]

; 3162 : 			Dump ("Configuration flags = 0x%x\n", flags);
; 3163 : 
; 3164 : 			if (driverEntry)

  0004a	ba 01 00 00 00	 mov	 edx, 1
  0004f	85 ff		 test	 edi, edi
  00051	74 24		 je	 SHORT $LN4@ReadRegist

; 3165 : 			{
; 3166 : 				if (flags & (TC_DRIVER_CONFIG_CACHE_BOOT_PASSWORD | TC_DRIVER_CONFIG_CACHE_BOOT_PASSWORD_FOR_SYS_FAVORITES))

  00053	8b 05 00 00 00
	00		 mov	 eax, DWORD PTR CacheBootPassword
  00059	f6 c1 03	 test	 cl, 3
  0005c	0f 45 c2	 cmovne	 eax, edx

; 3167 : 					CacheBootPassword = TRUE;
; 3168 : 
; 3169 : 				if (flags & TC_DRIVER_CONFIG_DISABLE_NONADMIN_SYS_FAVORITES_ACCESS)

  0005f	f6 c1 04	 test	 cl, 4
  00062	89 05 00 00 00
	00		 mov	 DWORD PTR CacheBootPassword, eax
  00068	8b 05 00 00 00
	00		 mov	 eax, DWORD PTR NonAdminSystemFavoritesAccessDisabled
  0006e	0f 45 c2	 cmovne	 eax, edx
  00071	89 05 00 00 00
	00		 mov	 DWORD PTR NonAdminSystemFavoritesAccessDisabled, eax
$LN4@ReadRegist:

; 3170 : 					NonAdminSystemFavoritesAccessDisabled = TRUE;
; 3171 : 			}
; 3172 : 
; 3173 : 			EnableHwEncryption ((flags & TC_DRIVER_CONFIG_DISABLE_HARDWARE_ENCRYPTION) ? FALSE : TRUE);

  00077	c1 e9 03	 shr	 ecx, 3
  0007a	23 ca		 and	 ecx, edx
  0007c	89 0d 00 00 00
	00		 mov	 DWORD PTR HwEncryptionDisabled, ecx

; 3174 : 		}
; 3175 : 		else

  00082	eb 05		 jmp	 SHORT $LN3@ReadRegist
$LN7@ReadRegist:

; 3176 : 			status = STATUS_INVALID_PARAMETER;

  00084	bb 0d 00 00 c0	 mov	 ebx, -1073741811	; ffffffffc000000dH
$LN3@ReadRegist:

; 3177 : 
; 3178 : 		TCfree (data);

  00089	ba 54 43 4d 4d	 mov	 edx, 1296909140		; 4d4d4354H
  0008e	49 8b c8	 mov	 rcx, r8
  00091	ff 15 00 00 00
	00		 call	 QWORD PTR __imp_ExFreePoolWithTag
$LN8@ReadRegist:

; 3179 : 	}
; 3180 : 
; 3181 : 	if (driverEntry && NT_SUCCESS (TCReadRegistryKey (&name, TC_ENCRYPTION_FREE_CPU_COUNT_REG_VALUE_NAME, &data)))

  00097	85 ff		 test	 edi, edi
  00099	74 3a		 je	 SHORT $LN2@ReadRegist
  0009b	4c 8d 44 24 48	 lea	 r8, QWORD PTR data$[rsp]
  000a0	48 8d 15 00 00
	00 00		 lea	 rdx, OFFSET FLAT:??_C@_1EA@CEOJFLPD@?$AAT?$AAr?$AAu?$AAe?$AAC?$AAr?$AAy?$AAp?$AAt?$AAE?$AAn?$AAc?$AAr?$AAy?$AAp?$AAt?$AAi?$AAo?$AAn?$AAF?$AAr?$AAe?$AAe?$AAC?$AAp?$AAu?$AAC?$AAo?$AAu?$AAn?$AAt?$AA?$AA@FNODOBFM@
  000a7	48 8d 4c 24 20	 lea	 rcx, QWORD PTR name$[rsp]
  000ac	e8 00 00 00 00	 call	 TCReadRegistryKey
  000b1	85 c0		 test	 eax, eax
  000b3	78 20		 js	 SHORT $LN2@ReadRegist

; 3182 : 	{
; 3183 : 		if (data->Type == REG_DWORD)

  000b5	48 8b 4c 24 48	 mov	 rcx, QWORD PTR data$[rsp]
  000ba	83 79 04 04	 cmp	 DWORD PTR [rcx+4], 4
  000be	75 0a		 jne	 SHORT $LN1@ReadRegist

; 3184 : 			EncryptionThreadPoolFreeCpuCountLimit = *(uint32 *) data->Data;

  000c0	8b 41 0c	 mov	 eax, DWORD PTR [rcx+12]
  000c3	48 89 05 00 00
	00 00		 mov	 QWORD PTR EncryptionThreadPoolFreeCpuCountLimit, rax
$LN1@ReadRegist:

; 3185 : 
; 3186 : 		TCfree (data);

  000ca	ba 54 43 4d 4d	 mov	 edx, 1296909140		; 4d4d4354H
  000cf	ff 15 00 00 00
	00		 call	 QWORD PTR __imp_ExFreePoolWithTag
$LN2@ReadRegist:

; 3187 : 	}
; 3188 : 
; 3189 : 	return status;

  000d5	8b c3		 mov	 eax, ebx

; 3190 : }

  000d7	48 8b 5c 24 40	 mov	 rbx, QWORD PTR [rsp+64]
  000dc	48 83 c4 30	 add	 rsp, 48			; 00000030H
  000e0	5f		 pop	 rdi
  000e1	c3		 ret	 0
ReadRegistryConfigFlags ENDP
_TEXT	ENDS
PUBLIC	IsVolumeClassFilterRegistered
;	COMDAT pdata
pdata	SEGMENT
$pdata$IsVolumeClassFilterRegistered DD imagerel $LN14
	DD	imagerel $LN14+175
	DD	imagerel $unwind$IsVolumeClassFilterRegistered
pdata	ENDS
;	COMDAT xdata
xdata	SEGMENT
$unwind$IsVolumeClassFilterRegistered DD 020601H
	DD	030025206H
; Function compile flags: /Ogspy
xdata	ENDS
;	COMDAT IsVolumeClassFilterRegistered
_TEXT	SEGMENT
name$ = 32
data$ = 64
IsVolumeClassFilterRegistered PROC			; COMDAT

; 3106 : {

$LN14:
  00000	40 53		 push	 rbx
  00002	48 83 ec 30	 sub	 rsp, 48			; 00000030H

; 3107 : 	UNICODE_STRING name;
; 3108 : 	NTSTATUS status;
; 3109 : 	BOOL registered = FALSE;
; 3110 : 
; 3111 : 	PKEY_VALUE_PARTIAL_INFORMATION data;
; 3112 : 
; 3113 : 	/*
; 3114 : 	 * Note: Do not change the "Storage Volumes" guid (System-Defined Device Setup Classes).
; 3115 : 	 * This class includes storage volumes as defined by the system-supplied
; 3116 : 	 * logical volume manager and class drivers that create device objects to
; 3117 : 	 * represent storage volumes, such as the system disk class driver.
; 3118 : 	 * @see	http://msdn.microsoft.com/en-us/library/windows/hardware/ff553426%28v=vs.85%29.aspx
; 3119 : 	 */
; 3120 : 	RtlInitUnicodeString (&name, L"\\REGISTRY\\MACHINE\\SYSTEM\\CurrentControlSet\\Control\\Class\\{71A27CDD-812A-11D0-BEC7-08002BE2092F}");

  00006	48 8d 15 00 00
	00 00		 lea	 rdx, OFFSET FLAT:??_C@_1MA@BNNNAGDA@?$AA?2?$AAR?$AAE?$AAG?$AAI?$AAS?$AAT?$AAR?$AAY?$AA?2?$AAM?$AAA?$AAC?$AAH?$AAI?$AAN?$AAE?$AA?2?$AAS?$AAY?$AAS?$AAT?$AAE?$AAM?$AA?2?$AAC?$AAu?$AAr?$AAr?$AAe?$AAn?$AAt@FNODOBFM@
  0000d	48 8d 4c 24 20	 lea	 rcx, QWORD PTR name$[rsp]
  00012	33 db		 xor	 ebx, ebx
  00014	ff 15 00 00 00
	00		 call	 QWORD PTR __imp_RtlInitUnicodeString

; 3121 : 	status = TCReadRegistryKey (&name, L"UpperFilters", &data);

  0001a	4c 8d 44 24 40	 lea	 r8, QWORD PTR data$[rsp]
  0001f	48 8d 15 00 00
	00 00		 lea	 rdx, OFFSET FLAT:??_C@_1BK@FNJCPENK@?$AAU?$AAp?$AAp?$AAe?$AAr?$AAF?$AAi?$AAl?$AAt?$AAe?$AAr?$AAs?$AA?$AA@FNODOBFM@
  00026	48 8d 4c 24 20	 lea	 rcx, QWORD PTR name$[rsp]
  0002b	e8 00 00 00 00	 call	 TCReadRegistryKey

; 3122 : 
; 3123 : 	if (NT_SUCCESS (status))

  00030	3b c3		 cmp	 eax, ebx
  00032	7c 73		 jl	 SHORT $LN6@IsVolumeCl

; 3124 : 	{
; 3125 : 		if (data->Type == REG_MULTI_SZ && data->DataLength >= 9 * sizeof (wchar_t))

  00034	48 8b 4c 24 40	 mov	 rcx, QWORD PTR data$[rsp]
  00039	83 79 04 07	 cmp	 DWORD PTR [rcx+4], 7
  0003d	75 5d		 jne	 SHORT $LN2@IsVolumeCl
  0003f	83 79 08 12	 cmp	 DWORD PTR [rcx+8], 18
  00043	72 57		 jb	 SHORT $LN2@IsVolumeCl

; 3126 : 		{
; 3127 : 			// Search for the string "truecrypt"
; 3128 : 			ULONG i;
; 3129 : 			for (i = 0; i <= data->DataLength - 9 * sizeof (wchar_t); ++i)

  00045	44 8b 51 08	 mov	 r10d, DWORD PTR [rcx+8]
  00049	44 8b cb	 mov	 r9d, ebx
  0004c	48 8b c3	 mov	 rax, rbx
  0004f	49 83 ea 12	 sub	 r10, 18
$LL4@IsVolumeCl:

; 3130 : 			{
; 3131 : 				if (memcmp (data->Data + i, L"truecrypt", 9 * sizeof (wchar_t)) == 0)

  00053	48 8d 44 08 0c	 lea	 rax, QWORD PTR [rax+rcx+12]
  00058	48 8d 15 00 00
	00 00		 lea	 rdx, OFFSET FLAT:??_C@_1BE@OBOIPPHP@?$AAt?$AAr?$AAu?$AAe?$AAc?$AAr?$AAy?$AAp?$AAt?$AA?$AA@FNODOBFM@
  0005f	4c 8b 00	 mov	 r8, QWORD PTR [rax]
  00062	4c 3b 02	 cmp	 r8, QWORD PTR [rdx]
  00065	75 1a		 jne	 SHORT $LN12@IsVolumeCl
  00067	4c 8b 40 08	 mov	 r8, QWORD PTR [rax+8]
  0006b	4c 3b 42 08	 cmp	 r8, QWORD PTR [rdx+8]
  0006f	75 10		 jne	 SHORT $LN12@IsVolumeCl
  00071	66 44 8b 40 10	 mov	 r8w, WORD PTR [rax+16]
  00076	66 44 3b 42 10	 cmp	 r8w, WORD PTR [rdx+16]
  0007b	75 04		 jne	 SHORT $LN12@IsVolumeCl
  0007d	8b c3		 mov	 eax, ebx
  0007f	eb 05		 jmp	 SHORT $LN13@IsVolumeCl
$LN12@IsVolumeCl:
  00081	1b c0		 sbb	 eax, eax
  00083	83 d8 ff	 sbb	 eax, -1
$LN13@IsVolumeCl:
  00086	3b c3		 cmp	 eax, ebx
  00088	74 0d		 je	 SHORT $LN10@IsVolumeCl
  0008a	41 ff c1	 inc	 r9d
  0008d	41 8b c1	 mov	 eax, r9d
  00090	49 3b c2	 cmp	 rax, r10
  00093	76 be		 jbe	 SHORT $LL4@IsVolumeCl
  00095	eb 05		 jmp	 SHORT $LN2@IsVolumeCl
$LN10@IsVolumeCl:

; 3132 : 				{
; 3133 : 					Dump ("Volume class filter active\n");
; 3134 : 					registered = TRUE;

  00097	bb 01 00 00 00	 mov	 ebx, 1
$LN2@IsVolumeCl:

; 3135 : 					break;
; 3136 : 				}
; 3137 : 			}
; 3138 : 		}
; 3139 : 
; 3140 : 		TCfree (data);

  0009c	ba 54 43 4d 4d	 mov	 edx, 1296909140		; 4d4d4354H
  000a1	ff 15 00 00 00
	00		 call	 QWORD PTR __imp_ExFreePoolWithTag
$LN6@IsVolumeCl:

; 3141 : 	}
; 3142 : 
; 3143 : 	return registered;

  000a7	8b c3		 mov	 eax, ebx

; 3144 : }

  000a9	48 83 c4 30	 add	 rsp, 48			; 00000030H
  000ad	5b		 pop	 rbx
  000ae	c3		 ret	 0
IsVolumeClassFilterRegistered ENDP
_TEXT	ENDS
PUBLIC	__$ArrayPad$
PUBLIC	IsDriveLetterAvailable
;	COMDAT pdata
pdata	SEGMENT
$pdata$IsDriveLetterAvailable DD imagerel $LN7
	DD	imagerel $LN7+173
	DD	imagerel $unwind$IsDriveLetterAvailable
pdata	ENDS
;	COMDAT xdata
xdata	SEGMENT
$unwind$IsDriveLetterAvailable DD 031b19H
	DD	0300109H
	DD	03002H
	DD	imagerel __GSHandlerCheck
	DD	0170H
; Function compile flags: /Ogspy
xdata	ENDS
;	COMDAT IsDriveLetterAvailable
_TEXT	SEGMENT
handle$ = 32
objectAttributes$ = 40
objectName$ = 88
link$ = 112
__$ArrayPad$ = 368
nDosDriveNo$ = 400
IsDriveLetterAvailable PROC				; COMDAT

; 2942 : {

$LN7:
  00000	40 53		 push	 rbx
  00002	48 81 ec 80 01
	00 00		 sub	 rsp, 384		; 00000180H
  00009	48 8b 05 00 00
	00 00		 mov	 rax, QWORD PTR __security_cookie
  00010	48 33 c4	 xor	 rax, rsp
  00013	48 89 84 24 70
	01 00 00	 mov	 QWORD PTR __$ArrayPad$[rsp], rax

; 2943 : 	OBJECT_ATTRIBUTES objectAttributes;
; 2944 : 	UNICODE_STRING objectName;
; 2945 : 	WCHAR link[128];
; 2946 : 	HANDLE handle;
; 2947 : 	NTSTATUS ntStatus;
; 2948 : 
; 2949 : 	TCGetDosNameFromNumber (link, nDosDriveNo);

  0001b	8b d1		 mov	 edx, ecx
  0001d	48 8d 4c 24 70	 lea	 rcx, QWORD PTR link$[rsp]
  00022	e8 00 00 00 00	 call	 TCGetDosNameFromNumber

; 2950 : 	RtlInitUnicodeString (&objectName, link);

  00027	48 8d 54 24 70	 lea	 rdx, QWORD PTR link$[rsp]
  0002c	48 8d 4c 24 58	 lea	 rcx, QWORD PTR objectName$[rsp]
  00031	ff 15 00 00 00
	00		 call	 QWORD PTR __imp_RtlInitUnicodeString

; 2951 : 	InitializeObjectAttributes (&objectAttributes, &objectName, OBJ_KERNEL_HANDLE | OBJ_CASE_INSENSITIVE, NULL, NULL);

  00037	33 db		 xor	 ebx, ebx
  00039	48 8d 44 24 58	 lea	 rax, QWORD PTR objectName$[rsp]

; 2952 : 
; 2953 : 	ntStatus=ZwOpenSymbolicLinkObject (&handle, GENERIC_READ, &objectAttributes);

  0003e	4c 8d 44 24 28	 lea	 r8, QWORD PTR objectAttributes$[rsp]
  00043	48 8d 4c 24 20	 lea	 rcx, QWORD PTR handle$[rsp]
  00048	ba 00 00 00 80	 mov	 edx, -2147483648	; 80000000H
  0004d	48 89 44 24 38	 mov	 QWORD PTR objectAttributes$[rsp+16], rax
  00052	c7 44 24 28 30
	00 00 00	 mov	 DWORD PTR objectAttributes$[rsp], 48 ; 00000030H
  0005a	48 89 5c 24 30	 mov	 QWORD PTR objectAttributes$[rsp+8], rbx
  0005f	c7 44 24 40 40
	02 00 00	 mov	 DWORD PTR objectAttributes$[rsp+24], 576 ; 00000240H
  00067	48 89 5c 24 48	 mov	 QWORD PTR objectAttributes$[rsp+32], rbx
  0006c	48 89 5c 24 50	 mov	 QWORD PTR objectAttributes$[rsp+40], rbx
  00071	ff 15 00 00 00
	00		 call	 QWORD PTR __imp_ZwOpenSymbolicLinkObject

; 2954 : 	if (NT_SUCCESS (ntStatus))

  00077	3b c3		 cmp	 eax, ebx
  00079	7c 0f		 jl	 SHORT $LN4@IsDriveLet

; 2955 : 	{
; 2956 : 		ZwClose (handle);

  0007b	48 8b 4c 24 20	 mov	 rcx, QWORD PTR handle$[rsp]
  00080	ff 15 00 00 00
	00		 call	 QWORD PTR __imp_ZwClose

; 2957 : 		return FALSE;

  00086	33 c0		 xor	 eax, eax
  00088	eb 0a		 jmp	 SHORT $LN2@IsDriveLet
$LN4@IsDriveLet:

; 2958 : 	}
; 2959 : 	else if (ntStatus == STATUS_OBJECT_NAME_NOT_FOUND)

  0008a	3d 34 00 00 c0	 cmp	 eax, -1073741772	; ffffffffc0000034H
  0008f	0f 94 c3	 sete	 bl
  00092	8b c3		 mov	 eax, ebx
$LN2@IsDriveLet:

; 2960 : 	{
; 2961 : 		return TRUE;
; 2962 : 	}
; 2963 : 	else
; 2964 : 	{
; 2965 : 		return FALSE;
; 2966 : 	}
; 2967 : }

  00094	48 8b 8c 24 70
	01 00 00	 mov	 rcx, QWORD PTR __$ArrayPad$[rsp]
  0009c	48 33 cc	 xor	 rcx, rsp
  0009f	e8 00 00 00 00	 call	 __security_check_cookie
  000a4	48 81 c4 80 01
	00 00		 add	 rsp, 384		; 00000180H
  000ab	5b		 pop	 rbx
  000ac	c3		 ret	 0
IsDriveLetterAvailable ENDP
_TEXT	ENDS
PUBLIC	UserCanAccessDriveDevice
;	COMDAT pdata
pdata	SEGMENT
$pdata$UserCanAccessDriveDevice DD imagerel $LN6
	DD	imagerel $LN6+204
	DD	imagerel $unwind$UserCanAccessDriveDevice
pdata	ENDS
;	COMDAT xdata
xdata	SEGMENT
$unwind$UserCanAccessDriveDevice DD 030901H
	DD	0160109H
	DD	03002H
; Function compile flags: /Ogspy
xdata	ENDS
;	COMDAT UserCanAccessDriveDevice
_TEXT	SEGMENT
name$ = 96
ioStatusBlock$49268 = 112
fileObjAttributes$49267 = 128
fileHandle$49269 = 192
UserCanAccessDriveDevice PROC				; COMDAT

; 2927 : {

$LN6:
  00000	40 53		 push	 rbx
  00002	48 81 ec b0 00
	00 00		 sub	 rsp, 176		; 000000b0H

; 2928 : 	UNICODE_STRING name;
; 2929 : 	RtlInitUnicodeString (&name, L"\\Device\\MountPointManager");

  00009	48 8d 15 00 00
	00 00		 lea	 rdx, OFFSET FLAT:??_C@_1DE@MJJBHHAG@?$AA?2?$AAD?$AAe?$AAv?$AAi?$AAc?$AAe?$AA?2?$AAM?$AAo?$AAu?$AAn?$AAt?$AAP?$AAo?$AAi?$AAn?$AAt?$AAM?$AAa?$AAn?$AAa?$AAg?$AAe?$AAr?$AA?$AA@FNODOBFM@
  00010	48 8d 4c 24 60	 lea	 rcx, QWORD PTR name$[rsp]
  00015	ff 15 00 00 00
	00		 call	 QWORD PTR __imp_RtlInitUnicodeString

; 2930 : 
; 2931 : 	return IsAccessibleByUser (&name, FALSE);

  0001b	83 64 24 50 00	 and	 DWORD PTR [rsp+80], 0
  00020	48 83 64 24 48
	00		 and	 QWORD PTR [rsp+72], 0
  00026	48 83 a4 24 88
	00 00 00 00	 and	 QWORD PTR fileObjAttributes$49267[rsp+8], 0
  0002f	48 83 a4 24 a0
	00 00 00 00	 and	 QWORD PTR fileObjAttributes$49267[rsp+32], 0
  00038	48 83 a4 24 a8
	00 00 00 00	 and	 QWORD PTR fileObjAttributes$49267[rsp+40], 0
  00041	c7 44 24 40 20
	00 00 00	 mov	 DWORD PTR [rsp+64], 32	; 00000020H
  00049	48 8d 44 24 60	 lea	 rax, QWORD PTR name$[rsp]
  0004e	bb 01 00 00 00	 mov	 ebx, 1
  00053	89 5c 24 38	 mov	 DWORD PTR [rsp+56], ebx
  00057	c7 44 24 30 07
	00 00 00	 mov	 DWORD PTR [rsp+48], 7
  0005f	4c 8d 4c 24 70	 lea	 r9, QWORD PTR ioStatusBlock$49268[rsp]
  00064	4c 8d 84 24 80
	00 00 00	 lea	 r8, QWORD PTR fileObjAttributes$49267[rsp]
  0006c	48 8d 8c 24 c0
	00 00 00	 lea	 rcx, QWORD PTR fileHandle$49269[rsp]
  00074	ba 00 00 00 c0	 mov	 edx, -1073741824	; c0000000H
  00079	c7 44 24 28 80
	00 00 00	 mov	 DWORD PTR [rsp+40], 128	; 00000080H
  00081	48 83 64 24 20
	00		 and	 QWORD PTR [rsp+32], 0
  00087	c7 84 24 80 00
	00 00 30 00 00
	00		 mov	 DWORD PTR fileObjAttributes$49267[rsp], 48 ; 00000030H
  00092	c7 84 24 98 00
	00 00 40 06 00
	00		 mov	 DWORD PTR fileObjAttributes$49267[rsp+24], 1600 ; 00000640H
  0009d	48 89 84 24 90
	00 00 00	 mov	 QWORD PTR fileObjAttributes$49267[rsp+16], rax
  000a5	ff 15 00 00 00
	00		 call	 QWORD PTR __imp_ZwCreateFile
  000ab	85 c0		 test	 eax, eax
  000ad	78 10		 js	 SHORT $LN3@UserCanAcc
  000af	48 8b 8c 24 c0
	00 00 00	 mov	 rcx, QWORD PTR fileHandle$49269[rsp]
  000b7	ff 15 00 00 00
	00		 call	 QWORD PTR __imp_ZwClose
  000bd	eb 02		 jmp	 SHORT $LN4@UserCanAcc
$LN3@UserCanAcc:
  000bf	33 db		 xor	 ebx, ebx
$LN4@UserCanAcc:
  000c1	8b c3		 mov	 eax, ebx

; 2932 : }

  000c3	48 81 c4 b0 00
	00 00		 add	 rsp, 176		; 000000b0H
  000ca	5b		 pop	 rbx
  000cb	c3		 ret	 0
UserCanAccessDriveDevice ENDP
; Function compile flags: /Ogspy
_TEXT	ENDS
;	COMDAT FindVolumeWithHighestUniqueId
_TEXT	SEGMENT
maxUniqueId$ = 8
FindVolumeWithHighestUniqueId PROC			; COMDAT

; 2786 : 	PDEVICE_OBJECT highestIdDevice = NULL;
; 2787 : 	int highestId = -1;
; 2788 : 	int drive;
; 2789 : 
; 2790 : 	for (drive = MIN_MOUNTED_VOLUME_DRIVE_NUMBER; drive <= MAX_MOUNTED_VOLUME_DRIVE_NUMBER; ++drive)

  00000	33 d2		 xor	 edx, edx
  00002	45 33 c9	 xor	 r9d, r9d
  00005	41 83 ca ff	 or	 r10d, -1

; 2791 : 	{
; 2792 : 		PDEVICE_OBJECT device = GetVirtualVolumeDeviceObject (drive);

  00009	48 83 fa 19	 cmp	 rdx, 25
$LN14@FindVolume:
  0000d	77 0d		 ja	 SHORT $LN8@FindVolume
  0000f	4c 8d 05 00 00
	00 00		 lea	 r8, OFFSET FLAT:VirtualVolumeDeviceObjects
  00016	4d 8b 04 d0	 mov	 r8, QWORD PTR [r8+rdx*8]
  0001a	eb 03		 jmp	 SHORT $LN10@FindVolume
$LN8@FindVolume:
  0001c	45 33 c0	 xor	 r8d, r8d
$LN10@FindVolume:

; 2793 : 		if (device)

  0001f	4d 85 c0	 test	 r8, r8
  00022	74 16		 je	 SHORT $LN4@FindVolume

; 2794 : 		{
; 2795 : 			PEXTENSION extension = (PEXTENSION) device->DeviceExtension;

  00024	49 8b 40 40	 mov	 rax, QWORD PTR [r8+64]

; 2796 : 			if (extension->UniqueVolumeId > highestId && extension->UniqueVolumeId <= maxUniqueId)

  00028	44 39 50 10	 cmp	 DWORD PTR [rax+16], r10d
  0002c	7e 0c		 jle	 SHORT $LN4@FindVolume
  0002e	39 48 10	 cmp	 DWORD PTR [rax+16], ecx
  00031	7f 07		 jg	 SHORT $LN4@FindVolume

; 2797 : 			{
; 2798 : 				highestId = extension->UniqueVolumeId;

  00033	44 8b 50 10	 mov	 r10d, DWORD PTR [rax+16]

; 2799 : 				highestIdDevice = device;

  00037	4d 8b c8	 mov	 r9, r8
$LN4@FindVolume:
  0003a	48 ff c2	 inc	 rdx
  0003d	48 83 fa 19	 cmp	 rdx, 25
  00041	7e ca		 jle	 SHORT $LN14@FindVolume

; 2800 : 			}
; 2801 : 		}
; 2802 : 	}
; 2803 : 
; 2804 : 	return highestIdDevice;

  00043	49 8b c1	 mov	 rax, r9

; 2805 : }

  00046	c3		 ret	 0
FindVolumeWithHighestUniqueId ENDP
_TEXT	ENDS
PUBLIC	__$ArrayPad$
PUBLIC	RemoveDriveLink
;	COMDAT pdata
pdata	SEGMENT
$pdata$RemoveDriveLink DD imagerel $LN3
	DD	imagerel $LN3+88
	DD	imagerel $unwind$RemoveDriveLink
pdata	ENDS
;	COMDAT xdata
xdata	SEGMENT
$unwind$RemoveDriveLink DD 021919H
	DD	0490107H
	DD	imagerel __GSHandlerCheck
	DD	0230H
; Function compile flags: /Ogspy
xdata	ENDS
;	COMDAT RemoveDriveLink
_TEXT	SEGMENT
symLink$ = 32
link$ = 48
__$ArrayPad$ = 560
nDosDriveNo$ = 592
RemoveDriveLink PROC					; COMDAT

; 2469 : {

$LN3:
  00000	48 81 ec 48 02
	00 00		 sub	 rsp, 584		; 00000248H
  00007	48 8b 05 00 00
	00 00		 mov	 rax, QWORD PTR __security_cookie
  0000e	48 33 c4	 xor	 rax, rsp
  00011	48 89 84 24 30
	02 00 00	 mov	 QWORD PTR __$ArrayPad$[rsp], rax

; 2470 : 	WCHAR link[256];
; 2471 : 	UNICODE_STRING symLink;
; 2472 : 	NTSTATUS ntStatus;
; 2473 : 
; 2474 : 	TCGetDosNameFromNumber (link, nDosDriveNo);

  00019	8b d1		 mov	 edx, ecx
  0001b	48 8d 4c 24 30	 lea	 rcx, QWORD PTR link$[rsp]
  00020	e8 00 00 00 00	 call	 TCGetDosNameFromNumber

; 2475 : 	RtlInitUnicodeString (&symLink, link);

  00025	48 8d 54 24 30	 lea	 rdx, QWORD PTR link$[rsp]
  0002a	48 8d 4c 24 20	 lea	 rcx, QWORD PTR symLink$[rsp]
  0002f	ff 15 00 00 00
	00		 call	 QWORD PTR __imp_RtlInitUnicodeString

; 2476 : 
; 2477 : 	ntStatus = IoDeleteSymbolicLink (&symLink);

  00035	48 8d 4c 24 20	 lea	 rcx, QWORD PTR symLink$[rsp]
  0003a	ff 15 00 00 00
	00		 call	 QWORD PTR __imp_IoDeleteSymbolicLink

; 2478 : 	Dump ("IoDeleteSymbolicLink returned %X\n", ntStatus);
; 2479 : 	return ntStatus;
; 2480 : }

  00040	48 8b 8c 24 30
	02 00 00	 mov	 rcx, QWORD PTR __$ArrayPad$[rsp]
  00048	48 33 cc	 xor	 rcx, rsp
  0004b	e8 00 00 00 00	 call	 __security_check_cookie
  00050	48 81 c4 48 02
	00 00		 add	 rsp, 584		; 00000248H
  00057	c3		 ret	 0
RemoveDriveLink ENDP
_TEXT	ENDS
PUBLIC	__$ArrayPad$
PUBLIC	CreateDriveLink
;	COMDAT pdata
pdata	SEGMENT
$pdata$CreateDriveLink DD imagerel $LN3
	DD	imagerel $LN3+132
	DD	imagerel $unwind$CreateDriveLink
pdata	ENDS
;	COMDAT xdata
xdata	SEGMENT
$unwind$CreateDriveLink DD 031b19H
	DD	04a0109H
	DD	03002H
	DD	imagerel __GSHandlerCheck
	DD	0240H
; Function compile flags: /Ogspy
xdata	ENDS
;	COMDAT CreateDriveLink
_TEXT	SEGMENT
symLink$ = 32
deviceName$ = 48
dev$ = 64
link$ = 320
__$ArrayPad$ = 576
nDosDriveNo$ = 608
CreateDriveLink PROC					; COMDAT

; 2451 : {

$LN3:
  00000	40 53		 push	 rbx
  00002	48 81 ec 50 02
	00 00		 sub	 rsp, 592		; 00000250H
  00009	48 8b 05 00 00
	00 00		 mov	 rax, QWORD PTR __security_cookie
  00010	48 33 c4	 xor	 rax, rsp
  00013	48 89 84 24 40
	02 00 00	 mov	 QWORD PTR __$ArrayPad$[rsp], rax
  0001b	8b d9		 mov	 ebx, ecx

; 2452 : 	WCHAR dev[128], link[128];
; 2453 : 	UNICODE_STRING deviceName, symLink;
; 2454 : 	NTSTATUS ntStatus;
; 2455 : 
; 2456 : 	TCGetNTNameFromNumber (dev, nDosDriveNo);

  0001d	8b d1		 mov	 edx, ecx
  0001f	48 8d 4c 24 40	 lea	 rcx, QWORD PTR dev$[rsp]
  00024	e8 00 00 00 00	 call	 TCGetNTNameFromNumber

; 2457 : 	TCGetDosNameFromNumber (link, nDosDriveNo);

  00029	48 8d 8c 24 40
	01 00 00	 lea	 rcx, QWORD PTR link$[rsp]
  00031	8b d3		 mov	 edx, ebx
  00033	e8 00 00 00 00	 call	 TCGetDosNameFromNumber

; 2458 : 
; 2459 : 	RtlInitUnicodeString (&deviceName, dev);

  00038	48 8d 54 24 40	 lea	 rdx, QWORD PTR dev$[rsp]
  0003d	48 8d 4c 24 30	 lea	 rcx, QWORD PTR deviceName$[rsp]
  00042	ff 15 00 00 00
	00		 call	 QWORD PTR __imp_RtlInitUnicodeString

; 2460 : 	RtlInitUnicodeString (&symLink, link);

  00048	48 8d 94 24 40
	01 00 00	 lea	 rdx, QWORD PTR link$[rsp]
  00050	48 8d 4c 24 20	 lea	 rcx, QWORD PTR symLink$[rsp]
  00055	ff 15 00 00 00
	00		 call	 QWORD PTR __imp_RtlInitUnicodeString

; 2461 : 
; 2462 : 	ntStatus = IoCreateSymbolicLink (&symLink, &deviceName);

  0005b	48 8d 54 24 30	 lea	 rdx, QWORD PTR deviceName$[rsp]
  00060	48 8d 4c 24 20	 lea	 rcx, QWORD PTR symLink$[rsp]
  00065	ff 15 00 00 00
	00		 call	 QWORD PTR __imp_IoCreateSymbolicLink

; 2463 : 	Dump ("IoCreateSymbolicLink returned %X\n", ntStatus);
; 2464 : 	return ntStatus;
; 2465 : }

  0006b	48 8b 8c 24 40
	02 00 00	 mov	 rcx, QWORD PTR __$ArrayPad$[rsp]
  00073	48 33 cc	 xor	 rcx, rsp
  00076	e8 00 00 00 00	 call	 __security_check_cookie
  0007b	48 81 c4 50 02
	00 00		 add	 rsp, 592		; 00000250H
  00082	5b		 pop	 rbx
  00083	c3		 ret	 0
CreateDriveLink ENDP
_TEXT	ENDS
PUBLIC	TCFsctlCall
;	COMDAT pdata
; File c:\winddk\7600.16385.1\inc\ddk\wdm.h
pdata	SEGMENT
$pdata$TCFsctlCall DD imagerel $LN7
	DD	imagerel $LN7+214
	DD	imagerel $unwind$TCFsctlCall
pdata	ENDS
;	COMDAT xdata
xdata	SEGMENT
$unwind$TCFsctlCall DD 061201H
	DD	0136412H
	DD	0123412H
	DD	0700bf212H
; Function compile flags: /Ogspy
; File c:\users\public\desktop\projects\ciphershed\src\driver\ntdriver.c
xdata	ENDS
;	COMDAT TCFsctlCall
_TEXT	SEGMENT
ioStatusBlock$ = 80
event$ = 96
fileObject$ = 144
IoControlCode$ = 152
InputBuffer$ = 160
InputBufferSize$ = 168
OutputBuffer$ = 176
OutputBufferSize$ = 184
TCFsctlCall PROC					; COMDAT

; 2412 : {

$LN7:
  00000	48 89 5c 24 08	 mov	 QWORD PTR [rsp+8], rbx
  00005	48 89 74 24 10	 mov	 QWORD PTR [rsp+16], rsi
  0000a	57		 push	 rdi
  0000b	48 81 ec 80 00
	00 00		 sub	 rsp, 128		; 00000080H
  00012	8b da		 mov	 ebx, edx
  00014	48 8b f9	 mov	 rdi, rcx

; 2413 : 	IO_STATUS_BLOCK ioStatusBlock;
; 2414 : 	NTSTATUS ntStatus;
; 2415 : 	PIRP irp;
; 2416 : 	KEVENT event;
; 2417 : 	PIO_STACK_LOCATION stack;
; 2418 : 	PDEVICE_OBJECT deviceObject = IoGetRelatedDeviceObject (fileObject);

  00017	ff 15 00 00 00
	00		 call	 QWORD PTR __imp_IoGetRelatedDeviceObject

; 2419 : 
; 2420 : 	KeInitializeEvent(&event, NotificationEvent, FALSE);

  0001d	48 8d 4c 24 60	 lea	 rcx, QWORD PTR event$[rsp]
  00022	45 33 c0	 xor	 r8d, r8d
  00025	33 d2		 xor	 edx, edx
  00027	48 8b f0	 mov	 rsi, rax
  0002a	ff 15 00 00 00
	00		 call	 QWORD PTR __imp_KeInitializeEvent

; 2421 : 
; 2422 : 	irp = IoBuildDeviceIoControlRequest (IoControlCode,
; 2423 : 					     deviceObject,
; 2424 : 					     InputBuffer, InputBufferSize,
; 2425 : 					     OutputBuffer, OutputBufferSize,
; 2426 : 					     FALSE,
; 2427 : 					     &event,
; 2428 : 					     &ioStatusBlock);

  00030	8b 8c 24 b8 00
	00 00		 mov	 ecx, DWORD PTR OutputBufferSize$[rsp]
  00037	4c 8d 5c 24 50	 lea	 r11, QWORD PTR ioStatusBlock$[rsp]
  0003c	48 8d 44 24 60	 lea	 rax, QWORD PTR event$[rsp]
  00041	45 33 c9	 xor	 r9d, r9d
  00044	4c 89 5c 24 40	 mov	 QWORD PTR [rsp+64], r11
  00049	48 89 44 24 38	 mov	 QWORD PTR [rsp+56], rax
  0004e	c6 44 24 30 00	 mov	 BYTE PTR [rsp+48], 0
  00053	89 4c 24 28	 mov	 DWORD PTR [rsp+40], ecx
  00057	48 8b 8c 24 b0
	00 00 00	 mov	 rcx, QWORD PTR OutputBuffer$[rsp]
  0005f	45 33 c0	 xor	 r8d, r8d
  00062	48 89 4c 24 20	 mov	 QWORD PTR [rsp+32], rcx
  00067	8b cb		 mov	 ecx, ebx
  00069	48 8b d6	 mov	 rdx, rsi
  0006c	ff 15 00 00 00
	00		 call	 QWORD PTR __imp_IoBuildDeviceIoControlRequest
  00072	48 8b d0	 mov	 rdx, rax

; 2429 : 
; 2430 : 	if (irp == NULL)

  00075	48 85 c0	 test	 rax, rax
  00078	75 07		 jne	 SHORT $LN2@TCFsctlCal

; 2431 : 		return STATUS_INSUFFICIENT_RESOURCES;

  0007a	b8 9a 00 00 c0	 mov	 eax, -1073741670	; ffffffffc000009aH
  0007f	eb 40		 jmp	 SHORT $LN1@TCFsctlCal
$LN2@TCFsctlCal:

; 2432 : 
; 2433 : 	stack = IoGetNextIrpStackLocation(irp);

  00081	48 8b 80 b8 00
	00 00		 mov	 rax, QWORD PTR [rax+184]

; 2434 : 	
; 2435 : 	stack->MajorFunction = IRP_MJ_FILE_SYSTEM_CONTROL;
; 2436 : 	stack->MinorFunction = IRP_MN_USER_FS_REQUEST;
; 2437 : 	stack->FileObject = fileObject;
; 2438 : 
; 2439 : 	ntStatus = IoCallDriver (deviceObject, irp);

  00088	48 8b ce	 mov	 rcx, rsi
  0008b	c6 40 b8 0d	 mov	 BYTE PTR [rax-72], 13
  0008f	c6 40 b9 00	 mov	 BYTE PTR [rax-71], 0
  00093	48 89 78 e8	 mov	 QWORD PTR [rax-24], rdi
  00097	ff 15 00 00 00
	00		 call	 QWORD PTR __imp_IofCallDriver

; 2440 : 	if (ntStatus == STATUS_PENDING)

  0009d	3d 03 01 00 00	 cmp	 eax, 259		; 00000103H
  000a2	75 1d		 jne	 SHORT $LN1@TCFsctlCal

; 2441 : 	{
; 2442 : 		KeWaitForSingleObject (&event, Executive, KernelMode, FALSE, NULL);

  000a4	48 83 64 24 20
	00		 and	 QWORD PTR [rsp+32], 0
  000aa	48 8d 4c 24 60	 lea	 rcx, QWORD PTR event$[rsp]
  000af	45 33 c9	 xor	 r9d, r9d
  000b2	45 33 c0	 xor	 r8d, r8d
  000b5	33 d2		 xor	 edx, edx
  000b7	ff 15 00 00 00
	00		 call	 QWORD PTR __imp_KeWaitForSingleObject

; 2443 : 		ntStatus = ioStatusBlock.Status;

  000bd	8b 44 24 50	 mov	 eax, DWORD PTR ioStatusBlock$[rsp]
$LN1@TCFsctlCal:

; 2444 : 	}
; 2445 : 
; 2446 : 	return ntStatus;
; 2447 : }

  000c1	4c 8d 9c 24 80
	00 00 00	 lea	 r11, QWORD PTR [rsp+128]
  000c9	49 8b 5b 10	 mov	 rbx, QWORD PTR [r11+16]
  000cd	49 8b 73 18	 mov	 rsi, QWORD PTR [r11+24]
  000d1	49 8b e3	 mov	 rsp, r11
  000d4	5f		 pop	 rdi
  000d5	c3		 ret	 0
TCFsctlCall ENDP
_TEXT	ENDS
PUBLIC	TCWriteDevice
;	COMDAT pdata
pdata	SEGMENT
$pdata$TCWriteDevice DD imagerel $LN3
	DD	imagerel $LN3+33
	DD	imagerel $unwind$TCWriteDevice
pdata	ENDS
;	COMDAT xdata
xdata	SEGMENT
$unwind$TCWriteDevice DD 010401H
	DD	06204H
; Function compile flags: /Ogspy
xdata	ENDS
;	COMDAT TCWriteDevice
_TEXT	SEGMENT
deviceObject$ = 64
buffer$ = 72
offset$ = 80
length$ = 88
TCWriteDevice PROC					; COMDAT

; 2405 : {

$LN3:
  00000	48 83 ec 38	 sub	 rsp, 56			; 00000038H

; 2406 : 	return TCReadWriteDevice (TRUE, deviceObject, buffer, offset, length);

  00004	44 89 4c 24 20	 mov	 DWORD PTR [rsp+32], r9d
  00009	4d 8b c8	 mov	 r9, r8
  0000c	4c 8b c2	 mov	 r8, rdx
  0000f	48 8b d1	 mov	 rdx, rcx
  00012	b9 01 00 00 00	 mov	 ecx, 1
  00017	e8 00 00 00 00	 call	 TCReadWriteDevice

; 2407 : }

  0001c	48 83 c4 38	 add	 rsp, 56			; 00000038H
  00020	c3		 ret	 0
TCWriteDevice ENDP
_TEXT	ENDS
PUBLIC	TCReadDevice
;	COMDAT pdata
pdata	SEGMENT
$pdata$TCReadDevice DD imagerel $LN3
	DD	imagerel $LN3+30
	DD	imagerel $unwind$TCReadDevice
pdata	ENDS
;	COMDAT xdata
xdata	SEGMENT
$unwind$TCReadDevice DD 010401H
	DD	06204H
; Function compile flags: /Ogspy
xdata	ENDS
;	COMDAT TCReadDevice
_TEXT	SEGMENT
deviceObject$ = 64
buffer$ = 72
offset$ = 80
length$ = 88
TCReadDevice PROC					; COMDAT

; 2399 : {

$LN3:
  00000	48 83 ec 38	 sub	 rsp, 56			; 00000038H

; 2400 : 	return TCReadWriteDevice (FALSE, deviceObject, buffer, offset, length);

  00004	44 89 4c 24 20	 mov	 DWORD PTR [rsp+32], r9d
  00009	4d 8b c8	 mov	 r9, r8
  0000c	4c 8b c2	 mov	 r8, rdx
  0000f	48 8b d1	 mov	 rdx, rcx
  00012	33 c9		 xor	 ecx, ecx
  00014	e8 00 00 00 00	 call	 TCReadWriteDevice

; 2401 : }

  00019	48 83 c4 38	 add	 rsp, 56			; 00000038H
  0001d	c3		 ret	 0
TCReadDevice ENDP
_TEXT	ENDS
PUBLIC	__$ArrayPad$
PUBLIC	TCOpenFsVolume
;	COMDAT pdata
pdata	SEGMENT
$pdata$TCOpenFsVolume DD imagerel $LN5
	DD	imagerel $LN5+288
	DD	imagerel $unwind$TCOpenFsVolume
pdata	ENDS
;	COMDAT xdata
xdata	SEGMENT
$unwind$TCOpenFsVolume DD 051f19H
	DD	05f340dH
	DD	05a010dH
	DD	07006H
	DD	imagerel __GSHandlerCheck
	DD	02c0H
; Function compile flags: /Ogspy
xdata	ENDS
;	COMDAT TCOpenFsVolume
_TEXT	SEGMENT
objectAttributes$ = 96
fullFileName$ = 144
ioStatus$ = 160
volumeName$ = 176
__$ArrayPad$ = 704
Extension$ = 736
volumeHandle$ = 744
fileObject$ = 752
TCOpenFsVolume PROC					; COMDAT

; 2320 : {

$LN5:
  00000	48 89 5c 24 20	 mov	 QWORD PTR [rsp+32], rbx
  00005	57		 push	 rdi
  00006	48 81 ec d0 02
	00 00		 sub	 rsp, 720		; 000002d0H
  0000d	48 8b 05 00 00
	00 00		 mov	 rax, QWORD PTR __security_cookie
  00014	48 33 c4	 xor	 rax, rsp
  00017	48 89 84 24 c0
	02 00 00	 mov	 QWORD PTR __$ArrayPad$[rsp], rax
  0001f	48 8b fa	 mov	 rdi, rdx

; 2321 : 	NTSTATUS ntStatus;
; 2322 : 	OBJECT_ATTRIBUTES objectAttributes;
; 2323 : 	UNICODE_STRING fullFileName;
; 2324 : 	IO_STATUS_BLOCK ioStatus;
; 2325 : 	WCHAR volumeName[TC_MAX_PATH];
; 2326 : 
; 2327 : 	TCGetNTNameFromNumber (volumeName, Extension->nDosDriveNo);

  00022	8b 51 14	 mov	 edx, DWORD PTR [rcx+20]
  00025	48 8d 8c 24 b0
	00 00 00	 lea	 rcx, QWORD PTR volumeName$[rsp]
  0002d	49 8b d8	 mov	 rbx, r8
  00030	e8 00 00 00 00	 call	 TCGetNTNameFromNumber

; 2328 : 	RtlInitUnicodeString (&fullFileName, volumeName);

  00035	48 8d 94 24 b0
	00 00 00	 lea	 rdx, QWORD PTR volumeName$[rsp]
  0003d	48 8d 8c 24 90
	00 00 00	 lea	 rcx, QWORD PTR fullFileName$[rsp]
  00045	ff 15 00 00 00
	00		 call	 QWORD PTR __imp_RtlInitUnicodeString

; 2329 : 	InitializeObjectAttributes (&objectAttributes, &fullFileName, OBJ_CASE_INSENSITIVE | OBJ_KERNEL_HANDLE, NULL, NULL);
; 2330 : 
; 2331 : 	ntStatus = ZwCreateFile (volumeHandle,
; 2332 : 		SYNCHRONIZE | GENERIC_READ,
; 2333 : 		&objectAttributes,
; 2334 : 		&ioStatus,
; 2335 : 		NULL,
; 2336 : 		FILE_ATTRIBUTE_NORMAL,
; 2337 : 		FILE_SHARE_READ | FILE_SHARE_WRITE,
; 2338 : 		FILE_OPEN,
; 2339 : 		FILE_SYNCHRONOUS_IO_NONALERT,
; 2340 : 		NULL,
; 2341 : 		0);

  0004b	83 64 24 50 00	 and	 DWORD PTR [rsp+80], 0
  00050	48 83 64 24 48
	00		 and	 QWORD PTR [rsp+72], 0
  00056	48 83 64 24 68
	00		 and	 QWORD PTR objectAttributes$[rsp+8], 0
  0005c	48 83 a4 24 80
	00 00 00 00	 and	 QWORD PTR objectAttributes$[rsp+32], 0
  00065	48 83 a4 24 88
	00 00 00 00	 and	 QWORD PTR objectAttributes$[rsp+40], 0
  0006e	c7 44 24 40 20
	00 00 00	 mov	 DWORD PTR [rsp+64], 32	; 00000020H
  00076	c7 44 24 38 01
	00 00 00	 mov	 DWORD PTR [rsp+56], 1
  0007e	48 8d 84 24 90
	00 00 00	 lea	 rax, QWORD PTR fullFileName$[rsp]
  00086	c7 44 24 30 03
	00 00 00	 mov	 DWORD PTR [rsp+48], 3
  0008e	4c 8d 8c 24 a0
	00 00 00	 lea	 r9, QWORD PTR ioStatus$[rsp]
  00096	4c 8d 44 24 60	 lea	 r8, QWORD PTR objectAttributes$[rsp]
  0009b	ba 00 00 10 80	 mov	 edx, -2146435072	; 80100000H
  000a0	48 8b cf	 mov	 rcx, rdi
  000a3	c7 44 24 28 80
	00 00 00	 mov	 DWORD PTR [rsp+40], 128	; 00000080H
  000ab	48 83 64 24 20
	00		 and	 QWORD PTR [rsp+32], 0
  000b1	c7 44 24 60 30
	00 00 00	 mov	 DWORD PTR objectAttributes$[rsp], 48 ; 00000030H
  000b9	c7 44 24 78 40
	02 00 00	 mov	 DWORD PTR objectAttributes$[rsp+24], 576 ; 00000240H
  000c1	48 89 44 24 70	 mov	 QWORD PTR objectAttributes$[rsp+16], rax
  000c6	ff 15 00 00 00
	00		 call	 QWORD PTR __imp_ZwCreateFile

; 2342 : 
; 2343 : 	Dump ("Volume %ls open NTSTATUS 0x%08x\n", volumeName, ntStatus);
; 2344 : 
; 2345 : 	if (!NT_SUCCESS (ntStatus))

  000cc	85 c0		 test	 eax, eax

; 2346 : 		return ntStatus;

  000ce	78 2f		 js	 SHORT $LN3@TCOpenFsVo

; 2347 : 
; 2348 : 	ntStatus = ObReferenceObjectByHandle (*volumeHandle,
; 2349 : 		FILE_READ_DATA,
; 2350 : 		NULL,
; 2351 : 		KernelMode,
; 2352 : 		fileObject,
; 2353 : 		NULL);

  000d0	48 8b 0f	 mov	 rcx, QWORD PTR [rdi]
  000d3	48 83 64 24 28
	00		 and	 QWORD PTR [rsp+40], 0
  000d9	45 33 c9	 xor	 r9d, r9d
  000dc	41 8d 51 01	 lea	 edx, QWORD PTR [r9+1]
  000e0	45 33 c0	 xor	 r8d, r8d
  000e3	48 89 5c 24 20	 mov	 QWORD PTR [rsp+32], rbx
  000e8	ff 15 00 00 00
	00		 call	 QWORD PTR __imp_ObReferenceObjectByHandle
  000ee	8b d8		 mov	 ebx, eax

; 2354 : 
; 2355 : 	if (!NT_SUCCESS (ntStatus))

  000f0	85 c0		 test	 eax, eax
  000f2	79 09		 jns	 SHORT $LN1@TCOpenFsVo

; 2356 : 		ZwClose (*volumeHandle);

  000f4	48 8b 0f	 mov	 rcx, QWORD PTR [rdi]
  000f7	ff 15 00 00 00
	00		 call	 QWORD PTR __imp_ZwClose
$LN1@TCOpenFsVo:

; 2357 : 
; 2358 : 	return ntStatus;

  000fd	8b c3		 mov	 eax, ebx
$LN3@TCOpenFsVo:

; 2359 : }

  000ff	48 8b 8c 24 c0
	02 00 00	 mov	 rcx, QWORD PTR __$ArrayPad$[rsp]
  00107	48 33 cc	 xor	 rcx, rsp
  0010a	e8 00 00 00 00	 call	 __security_check_cookie
  0010f	48 8b 9c 24 f8
	02 00 00	 mov	 rbx, QWORD PTR [rsp+760]
  00117	48 81 c4 d0 02
	00 00		 add	 rsp, 720		; 000002d0H
  0011e	5f		 pop	 rdi
  0011f	c3		 ret	 0
TCOpenFsVolume ENDP
_TEXT	ENDS
;	COMDAT pdata
; File c:\winddk\7600.16385.1\inc\ddk\wdm.h
pdata	SEGMENT
$pdata$SendDeviceIoControlRequest DD imagerel $LN10
	DD	imagerel $LN10+439
	DD	imagerel $unwind$SendDeviceIoControlRequest
pdata	ENDS
;	COMDAT xdata
xdata	SEGMENT
$unwind$SendDeviceIoControlRequest DD 0b1c01H
	DD	01f741cH
	DD	01e641cH
	DD	01d541cH
	DD	01c341cH
	DD	01a011cH
	DD	0c015H
; Function compile flags: /Ogspy
; File c:\users\public\desktop\projects\ciphershed\src\driver\ntdriver.c
xdata	ENDS
;	COMDAT SendDeviceIoControlRequest
_TEXT	SEGMENT
ioStatusBlock$ = 80
event$ = 96
args$32363 = 128
deviceObject$ = 224
ioControlCode$ = 232
inputBuffer$ = 240
inputBufferSize$ = 248
outputBuffer$ = 256
outputBufferSize$ = 264
SendDeviceIoControlRequest PROC				; COMDAT

; 2215 : {

$LN10:
  00000	48 8b c4	 mov	 rax, rsp
  00003	48 89 58 08	 mov	 QWORD PTR [rax+8], rbx
  00007	48 89 68 10	 mov	 QWORD PTR [rax+16], rbp
  0000b	48 89 70 18	 mov	 QWORD PTR [rax+24], rsi
  0000f	48 89 78 20	 mov	 QWORD PTR [rax+32], rdi
  00013	41 54		 push	 r12
  00015	48 81 ec d0 00
	00 00		 sub	 rsp, 208		; 000000d0H
  0001c	41 8b f1	 mov	 esi, r9d
  0001f	49 8b e8	 mov	 rbp, r8
  00022	44 8b e2	 mov	 r12d, edx
  00025	48 8b d9	 mov	 rbx, rcx

; 2216 : 	IO_STATUS_BLOCK ioStatusBlock;
; 2217 : 	NTSTATUS status;
; 2218 : 	PIRP irp;
; 2219 : 	KEVENT event;
; 2220 : 
; 2221 : 	if (KeGetCurrentIrql() > APC_LEVEL)

  00028	44 0f 20 c0	 mov	 rax, cr8
  0002c	3c 01		 cmp	 al, 1
  0002e	0f 86 c0 00 00
	00		 jbe	 $LN4@SendDevice

; 2222 : 	{
; 2223 : 		SendDeviceIoControlRequestWorkItemArgs args;
; 2224 : 
; 2225 : 		PIO_WORKITEM workItem = IoAllocateWorkItem (RootDeviceObject);

  00034	48 8b 0d 00 00
	00 00		 mov	 rcx, QWORD PTR RootDeviceObject
  0003b	ff 15 00 00 00
	00		 call	 QWORD PTR __imp_IoAllocateWorkItem
  00041	48 8b f8	 mov	 rdi, rax

; 2226 : 		if (!workItem)

  00044	48 85 c0	 test	 rax, rax
  00047	75 0a		 jne	 SHORT $LN3@SendDevice
$LN9@SendDevice:

; 2227 : 			return STATUS_INSUFFICIENT_RESOURCES;

  00049	b8 9a 00 00 c0	 mov	 eax, -1073741670	; ffffffffc000009aH
  0004e	e9 46 01 00 00	 jmp	 $LN5@SendDevice
$LN3@SendDevice:

; 2228 : 
; 2229 : 		args.deviceObject = deviceObject;
; 2230 : 		args.ioControlCode = ioControlCode;
; 2231 : 		args.inputBuffer = inputBuffer;
; 2232 : 		args.inputBufferSize = inputBufferSize;
; 2233 : 		args.outputBuffer = outputBuffer;

  00053	48 8b 84 24 00
	01 00 00	 mov	 rax, QWORD PTR outputBuffer$[rsp]

; 2234 : 		args.outputBufferSize = outputBufferSize;
; 2235 : 
; 2236 : 		KeInitializeEvent (&args.WorkItemCompletedEvent, SynchronizationEvent, FALSE);

  0005b	45 33 c0	 xor	 r8d, r8d
  0005e	48 8d 8c 24 b0
	00 00 00	 lea	 rcx, QWORD PTR args$32363[rsp+48]
  00066	48 89 84 24 a0
	00 00 00	 mov	 QWORD PTR args$32363[rsp+32], rax
  0006e	8b 84 24 08 01
	00 00		 mov	 eax, DWORD PTR outputBufferSize$[rsp]
  00075	41 8d 50 01	 lea	 edx, QWORD PTR [r8+1]
  00079	48 89 9c 24 80
	00 00 00	 mov	 QWORD PTR args$32363[rsp], rbx
  00081	44 89 a4 24 88
	00 00 00	 mov	 DWORD PTR args$32363[rsp+8], r12d
  00089	48 89 ac 24 90
	00 00 00	 mov	 QWORD PTR args$32363[rsp+16], rbp
  00091	89 84 24 a8 00
	00 00		 mov	 DWORD PTR args$32363[rsp+40], eax
  00098	89 b4 24 98 00
	00 00		 mov	 DWORD PTR args$32363[rsp+24], esi
  0009f	ff 15 00 00 00
	00		 call	 QWORD PTR __imp_KeInitializeEvent

; 2237 : 		IoQueueWorkItem (workItem, SendDeviceIoControlRequestWorkItemRoutine, DelayedWorkQueue, &args); 

  000a5	4c 8d 8c 24 80
	00 00 00	 lea	 r9, QWORD PTR args$32363[rsp]
  000ad	48 8d 15 00 00
	00 00		 lea	 rdx, OFFSET FLAT:SendDeviceIoControlRequestWorkItemRoutine
  000b4	41 b8 01 00 00
	00		 mov	 r8d, 1
  000ba	48 8b cf	 mov	 rcx, rdi
  000bd	ff 15 00 00 00
	00		 call	 QWORD PTR __imp_IoQueueWorkItem

; 2238 : 
; 2239 : 		KeWaitForSingleObject (&args.WorkItemCompletedEvent, Executive, KernelMode, FALSE, NULL);

  000c3	48 83 64 24 20
	00		 and	 QWORD PTR [rsp+32], 0
  000c9	48 8d 8c 24 b0
	00 00 00	 lea	 rcx, QWORD PTR args$32363[rsp+48]
  000d1	45 33 c9	 xor	 r9d, r9d
  000d4	45 33 c0	 xor	 r8d, r8d
  000d7	33 d2		 xor	 edx, edx
  000d9	ff 15 00 00 00
	00		 call	 QWORD PTR __imp_KeWaitForSingleObject

; 2240 : 		IoFreeWorkItem (workItem);

  000df	48 8b cf	 mov	 rcx, rdi
  000e2	ff 15 00 00 00
	00		 call	 QWORD PTR __imp_IoFreeWorkItem

; 2241 :  
; 2242 : 		return args.Status;

  000e8	8b 84 24 ac 00
	00 00		 mov	 eax, DWORD PTR args$32363[rsp+44]
  000ef	e9 a5 00 00 00	 jmp	 $LN5@SendDevice
$LN4@SendDevice:

; 2243 : 	}
; 2244 : 
; 2245 : 	KeInitializeEvent (&event, NotificationEvent, FALSE);

  000f4	48 8d 4c 24 60	 lea	 rcx, QWORD PTR event$[rsp]
  000f9	45 33 c0	 xor	 r8d, r8d
  000fc	33 d2		 xor	 edx, edx
  000fe	ff 15 00 00 00
	00		 call	 QWORD PTR __imp_KeInitializeEvent

; 2246 : 
; 2247 : 	irp = IoBuildDeviceIoControlRequest (ioControlCode, deviceObject, inputBuffer, inputBufferSize,
; 2248 : 		outputBuffer, outputBufferSize, FALSE, &event, &ioStatusBlock);

  00104	48 8d 44 24 60	 lea	 rax, QWORD PTR event$[rsp]
  00109	4c 8d 5c 24 50	 lea	 r11, QWORD PTR ioStatusBlock$[rsp]
  0010e	4c 89 5c 24 40	 mov	 QWORD PTR [rsp+64], r11
  00113	48 89 44 24 38	 mov	 QWORD PTR [rsp+56], rax
  00118	8b 84 24 08 01
	00 00		 mov	 eax, DWORD PTR outputBufferSize$[rsp]
  0011f	c6 44 24 30 00	 mov	 BYTE PTR [rsp+48], 0
  00124	89 44 24 28	 mov	 DWORD PTR [rsp+40], eax
  00128	48 8b 84 24 00
	01 00 00	 mov	 rax, QWORD PTR outputBuffer$[rsp]
  00130	44 8b ce	 mov	 r9d, esi
  00133	4c 8b c5	 mov	 r8, rbp
  00136	48 8b d3	 mov	 rdx, rbx
  00139	41 8b cc	 mov	 ecx, r12d
  0013c	48 89 44 24 20	 mov	 QWORD PTR [rsp+32], rax
  00141	ff 15 00 00 00
	00		 call	 QWORD PTR __imp_IoBuildDeviceIoControlRequest
  00147	48 8b f8	 mov	 rdi, rax

; 2249 : 
; 2250 : 	if (!irp)

  0014a	48 85 c0	 test	 rax, rax

; 2251 : 		return STATUS_INSUFFICIENT_RESOURCES;

  0014d	0f 84 f6 fe ff
	ff		 je	 $LN9@SendDevice

; 2252 : 
; 2253 : 	ObReferenceObject (deviceObject);

  00153	48 8b cb	 mov	 rcx, rbx
  00156	ff 15 00 00 00
	00		 call	 QWORD PTR __imp_ObfReferenceObject

; 2254 : 
; 2255 : 	status = IoCallDriver (deviceObject, irp);

  0015c	48 8b d7	 mov	 rdx, rdi
  0015f	48 8b cb	 mov	 rcx, rbx
  00162	ff 15 00 00 00
	00		 call	 QWORD PTR __imp_IofCallDriver
  00168	8b f8		 mov	 edi, eax

; 2256 : 	if (status == STATUS_PENDING)

  0016a	3d 03 01 00 00	 cmp	 eax, 259		; 00000103H
  0016f	75 1d		 jne	 SHORT $LN1@SendDevice

; 2257 : 	{
; 2258 : 		KeWaitForSingleObject (&event, Executive, KernelMode, FALSE, NULL);

  00171	48 83 64 24 20
	00		 and	 QWORD PTR [rsp+32], 0
  00177	48 8d 4c 24 60	 lea	 rcx, QWORD PTR event$[rsp]
  0017c	45 33 c9	 xor	 r9d, r9d
  0017f	45 33 c0	 xor	 r8d, r8d
  00182	33 d2		 xor	 edx, edx
  00184	ff 15 00 00 00
	00		 call	 QWORD PTR __imp_KeWaitForSingleObject

; 2259 : 		status = ioStatusBlock.Status;

  0018a	8b 7c 24 50	 mov	 edi, DWORD PTR ioStatusBlock$[rsp]
$LN1@SendDevice:

; 2260 : 	}
; 2261 : 
; 2262 : 	ObDereferenceObject (deviceObject);

  0018e	48 8b cb	 mov	 rcx, rbx
  00191	ff 15 00 00 00
	00		 call	 QWORD PTR __imp_ObfDereferenceObject

; 2263 : 	return status;

  00197	8b c7		 mov	 eax, edi
$LN5@SendDevice:

; 2264 : }

  00199	4c 8d 9c 24 d0
	00 00 00	 lea	 r11, QWORD PTR [rsp+208]
  001a1	49 8b 5b 10	 mov	 rbx, QWORD PTR [r11+16]
  001a5	49 8b 6b 18	 mov	 rbp, QWORD PTR [r11+24]
  001a9	49 8b 73 20	 mov	 rsi, QWORD PTR [r11+32]
  001ad	49 8b 7b 28	 mov	 rdi, QWORD PTR [r11+40]
  001b1	49 8b e3	 mov	 rsp, r11
  001b4	41 5c		 pop	 r12
  001b6	c3		 ret	 0
SendDeviceIoControlRequest ENDP
_TEXT	ENDS
PUBLIC	TCDeviceIoControl
;	COMDAT pdata
; File c:\winddk\7600.16385.1\inc\ddk\wdm.h
pdata	SEGMENT
$pdata$TCDeviceIoControl DD imagerel $LN8
	DD	imagerel $LN8+281
	DD	imagerel $unwind$TCDeviceIoControl
pdata	ENDS
;	COMDAT xdata
xdata	SEGMENT
$unwind$TCDeviceIoControl DD 071201H
	DD	0176412H
	DD	0163412H
	DD	0140112H
	DD	0700bH
; Function compile flags: /Ogspy
; File c:\users\public\desktop\projects\ciphershed\src\driver\ntdriver.c
xdata	ENDS
;	COMDAT TCDeviceIoControl
_TEXT	SEGMENT
deviceObject$ = 80
fileObject$ = 88
name$ = 96
ioStatusBlock$ = 112
event$ = 128
deviceName$ = 176
IoControlCode$ = 184
InputBuffer$ = 192
InputBufferSize$ = 200
OutputBuffer$ = 208
OutputBufferSize$ = 216
TCDeviceIoControl PROC					; COMDAT

; 2152 : {

$LN8:
  00000	48 89 5c 24 08	 mov	 QWORD PTR [rsp+8], rbx
  00005	48 89 74 24 10	 mov	 QWORD PTR [rsp+16], rsi
  0000a	57		 push	 rdi
  0000b	48 81 ec a0 00
	00 00		 sub	 rsp, 160		; 000000a0H
  00012	8b f2		 mov	 esi, edx

; 2153 : 	IO_STATUS_BLOCK ioStatusBlock;
; 2154 : 	NTSTATUS ntStatus;
; 2155 : 	PIRP irp;
; 2156 : 	PFILE_OBJECT fileObject;
; 2157 : 	PDEVICE_OBJECT deviceObject;
; 2158 : 	KEVENT event;
; 2159 : 	UNICODE_STRING name;
; 2160 : 
; 2161 : 	RtlInitUnicodeString(&name, deviceName);

  00014	48 8b d1	 mov	 rdx, rcx
  00017	48 8d 4c 24 60	 lea	 rcx, QWORD PTR name$[rsp]
  0001c	41 8b d9	 mov	 ebx, r9d
  0001f	49 8b f8	 mov	 rdi, r8
  00022	ff 15 00 00 00
	00		 call	 QWORD PTR __imp_RtlInitUnicodeString

; 2162 : 	ntStatus = IoGetDeviceObjectPointer (&name, FILE_READ_ATTRIBUTES, &fileObject, &deviceObject);

  00028	4c 8d 4c 24 50	 lea	 r9, QWORD PTR deviceObject$[rsp]
  0002d	4c 8d 44 24 58	 lea	 r8, QWORD PTR fileObject$[rsp]
  00032	48 8d 4c 24 60	 lea	 rcx, QWORD PTR name$[rsp]
  00037	ba 80 00 00 00	 mov	 edx, 128		; 00000080H
  0003c	ff 15 00 00 00
	00		 call	 QWORD PTR __imp_IoGetDeviceObjectPointer

; 2163 : 
; 2164 : 	if (!NT_SUCCESS (ntStatus))

  00042	85 c0		 test	 eax, eax

; 2165 : 		return ntStatus;

  00044	0f 88 ba 00 00
	00		 js	 $LN4@TCDeviceIo

; 2166 : 
; 2167 : 	KeInitializeEvent(&event, NotificationEvent, FALSE);

  0004a	48 8d 8c 24 80
	00 00 00	 lea	 rcx, QWORD PTR event$[rsp]
  00052	45 33 c0	 xor	 r8d, r8d
  00055	33 d2		 xor	 edx, edx
  00057	ff 15 00 00 00
	00		 call	 QWORD PTR __imp_KeInitializeEvent

; 2168 : 
; 2169 : 	irp = IoBuildDeviceIoControlRequest (IoControlCode,
; 2170 : 					     deviceObject,
; 2171 : 					     InputBuffer, InputBufferSize,
; 2172 : 					     OutputBuffer, OutputBufferSize,
; 2173 : 					     FALSE,
; 2174 : 					     &event,
; 2175 : 					     &ioStatusBlock);

  0005d	48 8b 54 24 50	 mov	 rdx, QWORD PTR deviceObject$[rsp]
  00062	48 8d 84 24 80
	00 00 00	 lea	 rax, QWORD PTR event$[rsp]
  0006a	4c 8d 5c 24 70	 lea	 r11, QWORD PTR ioStatusBlock$[rsp]
  0006f	44 8b cb	 mov	 r9d, ebx
  00072	4c 8b c7	 mov	 r8, rdi
  00075	4c 89 5c 24 40	 mov	 QWORD PTR [rsp+64], r11
  0007a	48 89 44 24 38	 mov	 QWORD PTR [rsp+56], rax
  0007f	8b 84 24 d8 00
	00 00		 mov	 eax, DWORD PTR OutputBufferSize$[rsp]
  00086	c6 44 24 30 00	 mov	 BYTE PTR [rsp+48], 0
  0008b	89 44 24 28	 mov	 DWORD PTR [rsp+40], eax
  0008f	48 8b 84 24 d0
	00 00 00	 mov	 rax, QWORD PTR OutputBuffer$[rsp]
  00097	8b ce		 mov	 ecx, esi
  00099	48 89 44 24 20	 mov	 QWORD PTR [rsp+32], rax
  0009e	ff 15 00 00 00
	00		 call	 QWORD PTR __imp_IoBuildDeviceIoControlRequest
  000a4	48 8b d0	 mov	 rdx, rax

; 2176 : 
; 2177 : 	if (irp == NULL)

  000a7	48 85 c0	 test	 rax, rax
  000aa	75 07		 jne	 SHORT $LN2@TCDeviceIo

; 2178 : 	{
; 2179 : 		Dump ("IRP allocation failed\n");
; 2180 : 		ntStatus = STATUS_INSUFFICIENT_RESOURCES;

  000ac	bb 9a 00 00 c0	 mov	 ebx, -1073741670	; ffffffffc000009aH

; 2181 : 		goto ret;

  000b1	eb 44		 jmp	 SHORT $ret$32325
$LN2@TCDeviceIo:

; 2182 : 	}
; 2183 : 
; 2184 : 	IoGetNextIrpStackLocation (irp)->FileObject = fileObject;

  000b3	48 8b 88 b8 00
	00 00		 mov	 rcx, QWORD PTR [rax+184]
  000ba	48 8b 44 24 58	 mov	 rax, QWORD PTR fileObject$[rsp]
  000bf	48 89 41 e8	 mov	 QWORD PTR [rcx-24], rax

; 2185 : 
; 2186 : 	ntStatus = IoCallDriver (deviceObject, irp);

  000c3	48 8b 4c 24 50	 mov	 rcx, QWORD PTR deviceObject$[rsp]
  000c8	ff 15 00 00 00
	00		 call	 QWORD PTR __imp_IofCallDriver
  000ce	8b d8		 mov	 ebx, eax

; 2187 : 	if (ntStatus == STATUS_PENDING)

  000d0	3d 03 01 00 00	 cmp	 eax, 259		; 00000103H
  000d5	75 20		 jne	 SHORT $ret$32325

; 2188 : 	{
; 2189 : 		KeWaitForSingleObject (&event, Executive, KernelMode, FALSE, NULL);

  000d7	48 83 64 24 20
	00		 and	 QWORD PTR [rsp+32], 0
  000dd	48 8d 8c 24 80
	00 00 00	 lea	 rcx, QWORD PTR event$[rsp]
  000e5	45 33 c9	 xor	 r9d, r9d
  000e8	45 33 c0	 xor	 r8d, r8d
  000eb	33 d2		 xor	 edx, edx
  000ed	ff 15 00 00 00
	00		 call	 QWORD PTR __imp_KeWaitForSingleObject

; 2190 : 		ntStatus = ioStatusBlock.Status;

  000f3	8b 5c 24 70	 mov	 ebx, DWORD PTR ioStatusBlock$[rsp]
$ret$32325:

; 2191 : 	}
; 2192 : 
; 2193 : ret:
; 2194 : 	ObDereferenceObject (fileObject);

  000f7	48 8b 4c 24 58	 mov	 rcx, QWORD PTR fileObject$[rsp]
  000fc	ff 15 00 00 00
	00		 call	 QWORD PTR __imp_ObfDereferenceObject

; 2195 : 	return ntStatus;

  00102	8b c3		 mov	 eax, ebx
$LN4@TCDeviceIo:

; 2196 : }

  00104	4c 8d 9c 24 a0
	00 00 00	 lea	 r11, QWORD PTR [rsp+160]
  0010c	49 8b 5b 10	 mov	 rbx, QWORD PTR [r11+16]
  00110	49 8b 73 18	 mov	 rsi, QWORD PTR [r11+24]
  00114	49 8b e3	 mov	 rsp, r11
  00117	5f		 pop	 rdi
  00118	c3		 ret	 0
TCDeviceIoControl ENDP
_TEXT	ENDS
PUBLIC	OnShutdownPending
;	COMDAT pdata
pdata	SEGMENT
$pdata$OnShutdownPending DD imagerel $LN14
	DD	imagerel $LN14+137
	DD	imagerel $unwind$OnShutdownPending
pdata	ENDS
;	COMDAT xdata
xdata	SEGMENT
$unwind$OnShutdownPending DD 010401H
	DD	08204H
; Function compile flags: /Ogspy
xdata	ENDS
;	COMDAT OnShutdownPending
_TEXT	SEGMENT
unmount$ = 48
OnShutdownPending PROC					; COMDAT

; 2139 : {

$LN14:
  00000	48 83 ec 48	 sub	 rsp, 72			; 00000048H

; 2140 : 	UNMOUNT_STRUCT unmount;
; 2141 : 	memset (&unmount, 0, sizeof (unmount));

  00004	33 c0		 xor	 eax, eax
  00006	48 89 44 24 30	 mov	 QWORD PTR unmount$[rsp], rax

; 2142 : 	unmount.ignoreOpenFiles = TRUE;

  0000b	c7 44 24 34 01
	00 00 00	 mov	 DWORD PTR unmount$[rsp+4], 1
  00013	48 89 44 24 38	 mov	 QWORD PTR unmount$[rsp+8], rax
$LL5@OnShutdown:

; 2143 : 
; 2144 : 	while (SendDeviceIoControlRequest (RootDeviceObject, TC_IOCTL_DISMOUNT_ALL_VOLUMES, &unmount, sizeof (unmount), &unmount, sizeof (unmount)) == STATUS_INSUFFICIENT_RESOURCES || unmount.HiddenVolumeProtectionTriggered)

  00018	48 8b 0d 00 00
	00 00		 mov	 rcx, QWORD PTR RootDeviceObject
  0001f	48 8d 44 24 30	 lea	 rax, QWORD PTR unmount$[rsp]
  00024	4c 8d 44 24 30	 lea	 r8, QWORD PTR unmount$[rsp]
  00029	41 b9 10 00 00
	00		 mov	 r9d, 16
  0002f	ba 14 20 22 00	 mov	 edx, 2236436		; 00222014H
  00034	c7 44 24 28 10
	00 00 00	 mov	 DWORD PTR [rsp+40], 16
  0003c	48 89 44 24 20	 mov	 QWORD PTR [rsp+32], rax
  00041	e8 00 00 00 00	 call	 SendDeviceIoControlRequest
  00046	3d 9a 00 00 c0	 cmp	 eax, -1073741670	; ffffffffc000009aH
  0004b	74 07		 je	 SHORT $LN3@OnShutdown
  0004d	83 7c 24 38 00	 cmp	 DWORD PTR unmount$[rsp+8], 0
  00052	74 07		 je	 SHORT $LL2@OnShutdown
$LN3@OnShutdown:

; 2145 : 		unmount.HiddenVolumeProtectionTriggered = FALSE;

  00054	83 64 24 38 00	 and	 DWORD PTR unmount$[rsp+8], 0
  00059	eb bd		 jmp	 SHORT $LL5@OnShutdown
$LL2@OnShutdown:

; 2146 : 
; 2147 : 	while (SendDeviceIoControlRequest (RootDeviceObject, TC_IOCTL_WIPE_PASSWORD_CACHE, NULL, 0, NULL, 0) == STATUS_INSUFFICIENT_RESOURCES);

  0005b	48 8b 0d 00 00
	00 00		 mov	 rcx, QWORD PTR RootDeviceObject
  00062	83 64 24 28 00	 and	 DWORD PTR [rsp+40], 0
  00067	48 83 64 24 20
	00		 and	 QWORD PTR [rsp+32], 0
  0006d	45 33 c9	 xor	 r9d, r9d
  00070	45 33 c0	 xor	 r8d, r8d
  00073	ba 30 20 22 00	 mov	 edx, 2236464		; 00222030H
  00078	e8 00 00 00 00	 call	 SendDeviceIoControlRequest
  0007d	3d 9a 00 00 c0	 cmp	 eax, -1073741670	; ffffffffc000009aH
  00082	74 d7		 je	 SHORT $LL2@OnShutdown

; 2148 : }

  00084	48 83 c4 48	 add	 rsp, 72			; 00000048H
  00088	c3		 ret	 0
OnShutdownPending ENDP
_TEXT	ENDS
PUBLIC	TCDeleteDeviceObject
;	COMDAT pdata
pdata	SEGMENT
$pdata$TCDeleteDeviceObject DD imagerel $LN18
	DD	imagerel $LN18+348
	DD	imagerel $unwind$TCDeleteDeviceObject
pdata	ENDS
;	COMDAT xdata
xdata	SEGMENT
$unwind$TCDeleteDeviceObject DD 060f01H
	DD	0d640fH
	DD	0c340fH
	DD	0700b920fH
; Function compile flags: /Ogspy
xdata	ENDS
;	COMDAT TCDeleteDeviceObject
_TEXT	SEGMENT
Win32NameString$ = 48
name$32270 = 64
DeviceObject$ = 96
Extension$ = 104
TCDeleteDeviceObject PROC				; COMDAT

; 2061 : {

$LN18:
  00000	48 89 5c 24 08	 mov	 QWORD PTR [rsp+8], rbx
  00005	48 89 74 24 10	 mov	 QWORD PTR [rsp+16], rsi
  0000a	57		 push	 rdi
  0000b	48 83 ec 50	 sub	 rsp, 80			; 00000050H

; 2062 : 	UNICODE_STRING Win32NameString;
; 2063 : 	NTSTATUS ntStatus;
; 2064 : 
; 2065 : 	Dump ("TCDeleteDeviceObject BEGIN\n");
; 2066 : 
; 2067 : 	if (Extension->bRootDevice)

  0000f	83 3a 00	 cmp	 DWORD PTR [rdx], 0
  00012	48 8b da	 mov	 rbx, rdx
  00015	48 8b f1	 mov	 rsi, rcx
  00018	74 2a		 je	 SHORT $LN11@TCDeleteDe

; 2068 : 	{
; 2069 : 		RtlInitUnicodeString (&Win32NameString, (LPWSTR) DOS_ROOT_PREFIX);

  0001a	48 8d 15 00 00
	00 00		 lea	 rdx, OFFSET FLAT:??_C@_1CM@KJDLPNIG@?$AA?2?$AAD?$AAo?$AAs?$AAD?$AAe?$AAv?$AAi?$AAc?$AAe?$AAs?$AA?2?$AAT?$AAr?$AAu?$AAe?$AAC?$AAr?$AAy?$AAp?$AAt?$AA?$AA@FNODOBFM@
  00021	48 8d 4c 24 30	 lea	 rcx, QWORD PTR Win32NameString$[rsp]
  00026	ff 15 00 00 00
	00		 call	 QWORD PTR __imp_RtlInitUnicodeString

; 2070 : 		ntStatus = IoDeleteSymbolicLink (&Win32NameString);

  0002c	48 8d 4c 24 30	 lea	 rcx, QWORD PTR Win32NameString$[rsp]
  00031	ff 15 00 00 00
	00		 call	 QWORD PTR __imp_IoDeleteSymbolicLink

; 2071 : 		if (!NT_SUCCESS (ntStatus))
; 2072 : 			Dump ("IoDeleteSymbolicLink failed ntStatus = 0x%08x\n", ntStatus);
; 2073 : 
; 2074 : 		RootDeviceObject = NULL;

  00037	48 83 25 00 00
	00 00 00	 and	 QWORD PTR RootDeviceObject, 0

; 2075 : 	}
; 2076 : 	else

  0003f	e9 ff 00 00 00	 jmp	 $LN9@TCDeleteDe
$LN11@TCDeleteDe:

; 2077 : 	{
; 2078 : 		if (Extension->peThread != NULL)

  00044	48 83 7a 20 00	 cmp	 QWORD PTR [rdx+32], 0
  00049	74 41		 je	 SHORT $LN15@TCDeleteDe

; 2079 : 			TCStopVolumeThread (DeviceObject, Extension);

  0004b	c7 42 1c 01 00
	00 00		 mov	 DWORD PTR [rdx+28], 1
  00052	48 8d 4a 58	 lea	 rcx, QWORD PTR [rdx+88]
  00056	33 d2		 xor	 edx, edx
  00058	44 8d 42 01	 lea	 r8d, QWORD PTR [rdx+1]
  0005c	41 b1 01	 mov	 r9b, 1
  0005f	ff 15 00 00 00
	00		 call	 QWORD PTR __imp_KeReleaseSemaphore
  00065	48 8b 4b 20	 mov	 rcx, QWORD PTR [rbx+32]
  00069	48 83 64 24 20
	00		 and	 QWORD PTR [rsp+32], 0
  0006f	45 33 c9	 xor	 r9d, r9d
  00072	45 33 c0	 xor	 r8d, r8d
  00075	33 d2		 xor	 edx, edx
  00077	ff 15 00 00 00
	00		 call	 QWORD PTR __imp_KeWaitForSingleObject
  0007d	48 8b 4b 20	 mov	 rcx, QWORD PTR [rbx+32]
  00081	ff 15 00 00 00
	00		 call	 QWORD PTR __imp_ObfDereferenceObject
  00087	48 83 63 20 00	 and	 QWORD PTR [rbx+32], 0
$LN15@TCDeleteDe:

; 2080 : 
; 2081 : 		if (Extension->UserSid)

  0008c	48 8b 8b 88 05
	00 00		 mov	 rcx, QWORD PTR [rbx+1416]
  00093	48 85 c9	 test	 rcx, rcx
  00096	74 0b		 je	 SHORT $LN7@TCDeleteDe

; 2082 : 			TCfree (Extension->UserSid);

  00098	ba 54 43 4d 4d	 mov	 edx, 1296909140		; 4d4d4354H
  0009d	ff 15 00 00 00
	00		 call	 QWORD PTR __imp_ExFreePoolWithTag
$LN7@TCDeleteDe:

; 2083 : 
; 2084 : 		if (Extension->SecurityClientContextValid)

  000a3	83 bb 90 05 00
	00 00		 cmp	 DWORD PTR [rbx+1424], 0
  000aa	0f 84 83 00 00
	00		 je	 $LN1@TCDeleteDe

; 2085 : 		{
; 2086 : 			if (OsMajorVersion == 5 && OsMinorVersion == 0)

  000b0	83 3d 00 00 00
	00 05		 cmp	 DWORD PTR OsMajorVersion, 5
  000b7	75 18		 jne	 SHORT $LN5@TCDeleteDe
  000b9	83 3d 00 00 00
	00 00		 cmp	 DWORD PTR OsMinorVersion, 0
  000c0	75 0f		 jne	 SHORT $LN5@TCDeleteDe

; 2087 : 			{
; 2088 : 				ObDereferenceObject (Extension->SecurityClientContext.ClientToken);

  000c2	48 8b 8b a8 05
	00 00		 mov	 rcx, QWORD PTR [rbx+1448]
  000c9	ff 15 00 00 00
	00		 call	 QWORD PTR __imp_ObfDereferenceObject

; 2089 : 			}
; 2090 : 			else

  000cf	eb 62		 jmp	 SHORT $LN1@TCDeleteDe
$LN5@TCDeleteDe:

; 2091 : 			{
; 2092 : 				// Windows 2000 does not support PsDereferenceImpersonationToken() used by SeDeleteClientSecurity().
; 2093 : 				// TODO: Use only SeDeleteClientSecurity() once support for Windows 2000 is dropped.
; 2094 : 
; 2095 : 				VOID (*PsDereferenceImpersonationTokenD) (PACCESS_TOKEN ImpersonationToken);
; 2096 : 				UNICODE_STRING name;
; 2097 : 				RtlInitUnicodeString (&name, L"PsDereferenceImpersonationToken");

  000d1	48 8d 15 00 00
	00 00		 lea	 rdx, OFFSET FLAT:??_C@_1EA@FPAPEGHJ@?$AAP?$AAs?$AAD?$AAe?$AAr?$AAe?$AAf?$AAe?$AAr?$AAe?$AAn?$AAc?$AAe?$AAI?$AAm?$AAp?$AAe?$AAr?$AAs?$AAo?$AAn?$AAa?$AAt?$AAi?$AAo?$AAn?$AAT?$AAo?$AAk?$AAe?$AAn?$AA?$AA@FNODOBFM@
  000d8	48 8d 4c 24 40	 lea	 rcx, QWORD PTR name$32270[rsp]
  000dd	ff 15 00 00 00
	00		 call	 QWORD PTR __imp_RtlInitUnicodeString

; 2098 : 
; 2099 : 				PsDereferenceImpersonationTokenD = MmGetSystemRoutineAddress (&name);

  000e3	48 8d 4c 24 40	 lea	 rcx, QWORD PTR name$32270[rsp]
  000e8	ff 15 00 00 00
	00		 call	 QWORD PTR __imp_MmGetSystemRoutineAddress
  000ee	48 8b f8	 mov	 rdi, rax

; 2100 : 				if (!PsDereferenceImpersonationTokenD)

  000f1	48 85 c0	 test	 rax, rax
  000f4	75 22		 jne	 SHORT $LN3@TCDeleteDe

; 2101 : 					TC_BUG_CHECK (STATUS_NOT_IMPLEMENTED);

  000f6	8d 48 29	 lea	 ecx, QWORD PTR [rax+41]
  000f9	45 33 c9	 xor	 r9d, r9d
  000fc	ba 35 08 00 00	 mov	 edx, 2101		; 00000835H
  00101	49 c7 c0 02 00
	00 c0		 mov	 r8, -1073741822		; ffffffffc0000002H
  00108	48 c7 44 24 20
	43 54 00 00	 mov	 QWORD PTR [rsp+32], 21571 ; 00005443H
  00111	ff 15 00 00 00
	00		 call	 QWORD PTR __imp_KeBugCheckEx
  00117	cc		 int	 3
$LN3@TCDeleteDe:

; 2102 : 				
; 2103 : #				define PsDereferencePrimaryToken
; 2104 : #				define PsDereferenceImpersonationToken PsDereferenceImpersonationTokenD
; 2105 : 
; 2106 : 				SeDeleteClientSecurity (&Extension->SecurityClientContext);

  00118	48 8b 8b a8 05
	00 00		 mov	 rcx, QWORD PTR [rbx+1448]
  0011f	ff 15 00 00 00
	00		 call	 QWORD PTR __imp_SeTokenType
  00125	83 f8 01	 cmp	 eax, 1
  00128	74 09		 je	 SHORT $LN1@TCDeleteDe
  0012a	48 8b 8b a8 05
	00 00		 mov	 rcx, QWORD PTR [rbx+1448]
  00131	ff d7		 call	 rdi
$LN1@TCDeleteDe:

; 2107 : 
; 2108 : #				undef PsDereferencePrimaryToken
; 2109 : #				undef PsDereferenceImpersonationToken
; 2110 : 			}
; 2111 : 		}
; 2112 : 
; 2113 : 		VirtualVolumeDeviceObjects[Extension->nDosDriveNo] = NULL;

  00133	48 63 43 14	 movsxd	 rax, DWORD PTR [rbx+20]
  00137	48 8d 0d 00 00
	00 00		 lea	 rcx, OFFSET FLAT:VirtualVolumeDeviceObjects
  0013e	48 83 24 c1 00	 and	 QWORD PTR [rcx+rax*8], 0
$LN9@TCDeleteDe:

; 2114 : 	}
; 2115 : 
; 2116 : 	IoDeleteDevice (DeviceObject);

  00143	48 8b ce	 mov	 rcx, rsi
  00146	ff 15 00 00 00
	00		 call	 QWORD PTR __imp_IoDeleteDevice

; 2117 : 
; 2118 : 	Dump ("TCDeleteDeviceObject END\n");
; 2119 : }

  0014c	48 8b 5c 24 60	 mov	 rbx, QWORD PTR [rsp+96]
  00151	48 8b 74 24 68	 mov	 rsi, QWORD PTR [rsp+104]
  00156	48 83 c4 50	 add	 rsp, 80			; 00000050H
  0015a	5f		 pop	 rdi
  0015b	c3		 ret	 0
$LN17@TCDeleteDe:
TCDeleteDeviceObject ENDP
_TEXT	ENDS
PUBLIC	__$ArrayPad$
PUBLIC	TCCreateDeviceObject
;	COMDAT pdata
; File c:\winddk\7600.16385.1\inc\ddk\wdm.h
pdata	SEGMENT
$pdata$TCCreateDeviceObject DD imagerel $LN8
	DD	imagerel $LN8+403
	DD	imagerel $unwind$TCCreateDeviceObject
pdata	ENDS
;	COMDAT xdata
xdata	SEGMENT
$unwind$TCCreateDeviceObject DD 051f19H
	DD	01e010dH
	DD	060057006H
	DD	03004H
	DD	imagerel __GSHandlerCheck
	DD	0e0H
; Function compile flags: /Ogspy
; File c:\users\public\desktop\projects\ciphershed\src\driver\ntdriver.c
xdata	ENDS
;	COMDAT TCCreateDeviceObject
_TEXT	SEGMENT
ntUnicodeString$ = 64
Win32NameString$ = 80
ntname$ = 96
dosname$ = 160
__$ArrayPad$ = 224
DriverObject$ = 272
ppDeviceObject$ = 280
mount$ = 288
TCCreateDeviceObject PROC				; COMDAT

; 414  : {

$LN8:
  00000	4c 8b dc	 mov	 r11, rsp
  00003	53		 push	 rbx
  00004	56		 push	 rsi
  00005	57		 push	 rdi
  00006	48 81 ec f0 00
	00 00		 sub	 rsp, 240		; 000000f0H
  0000d	48 8b 05 00 00
	00 00		 mov	 rax, QWORD PTR __security_cookie
  00014	48 33 c4	 xor	 rax, rsp
  00017	48 89 84 24 e0
	00 00 00	 mov	 QWORD PTR __$ArrayPad$[rsp], rax
  0001f	48 8b f2	 mov	 rsi, rdx

; 415  : 	UNICODE_STRING Win32NameString, ntUnicodeString;
; 416  : 	WCHAR dosname[32], ntname[32];
; 417  : 	PEXTENSION Extension;
; 418  : 	NTSTATUS ntStatus;
; 419  : 	ULONG devChars = 0;
; 420  : 
; 421  : 	Dump ("TCCreateDeviceObject BEGIN\n");
; 422  : 	ASSERT (KeGetCurrentIrql() == PASSIVE_LEVEL);
; 423  : 
; 424  : 	TCGetDosNameFromNumber (dosname, mount->nDosDriveNo);

  00022	41 8b 90 64 02
	00 00		 mov	 edx, DWORD PTR [r8+612]
  00029	48 8b d9	 mov	 rbx, rcx
  0002c	49 8d 4b 98	 lea	 rcx, QWORD PTR [r11-104]
  00030	49 8b f8	 mov	 rdi, r8
  00033	e8 00 00 00 00	 call	 TCGetDosNameFromNumber

; 425  : 	TCGetNTNameFromNumber (ntname, mount->nDosDriveNo);

  00038	8b 97 64 02 00
	00		 mov	 edx, DWORD PTR [rdi+612]
  0003e	48 8d 4c 24 60	 lea	 rcx, QWORD PTR ntname$[rsp]
  00043	e8 00 00 00 00	 call	 TCGetNTNameFromNumber

; 426  : 	RtlInitUnicodeString (&ntUnicodeString, ntname);

  00048	48 8d 54 24 60	 lea	 rdx, QWORD PTR ntname$[rsp]
  0004d	48 8d 4c 24 40	 lea	 rcx, QWORD PTR ntUnicodeString$[rsp]
  00052	ff 15 00 00 00
	00		 call	 QWORD PTR __imp_RtlInitUnicodeString

; 427  : 	RtlInitUnicodeString (&Win32NameString, dosname);

  00058	48 8d 94 24 a0
	00 00 00	 lea	 rdx, QWORD PTR dosname$[rsp]
  00060	48 8d 4c 24 50	 lea	 rcx, QWORD PTR Win32NameString$[rsp]
  00065	ff 15 00 00 00
	00		 call	 QWORD PTR __imp_RtlInitUnicodeString

; 428  : 
; 429  : 	devChars = FILE_DEVICE_SECURE_OPEN;
; 430  : 	devChars |= mount->bMountReadOnly ? FILE_READ_ONLY_DEVICE : 0;

  0006b	8b 87 6c 02 00
	00		 mov	 eax, DWORD PTR [rdi+620]

; 431  : 	devChars |= mount->bMountRemovable ? FILE_REMOVABLE_MEDIA : 0;
; 432  : 
; 433  : 	Dump ("Creating device nt=%ls dos=%ls\n", ntname, dosname);
; 434  : 
; 435  : 	ntStatus = IoCreateDevice (
; 436  : 					  DriverObject,			/* Our Driver Object */
; 437  : 					  sizeof (EXTENSION),	/* Size of state information */
; 438  : 					  &ntUnicodeString,		/* Device name "\Device\Name" */
; 439  : 					  FILE_DEVICE_DISK,		/* Device type */
; 440  : 					  devChars,				/* Device characteristics */
; 441  : 					  FALSE,				/* Exclusive device */
; 442  : 					  ppDeviceObject);		/* Returned ptr to Device Object */

  00071	48 89 74 24 30	 mov	 QWORD PTR [rsp+48], rsi
  00076	f7 d8		 neg	 eax
  00078	c6 44 24 28 00	 mov	 BYTE PTR [rsp+40], 0
  0007d	4c 8d 44 24 40	 lea	 r8, QWORD PTR ntUnicodeString$[rsp]
  00082	1b d2		 sbb	 edx, edx
  00084	33 c0		 xor	 eax, eax
  00086	41 b9 07 00 00
	00		 mov	 r9d, 7
  0008c	83 e2 02	 and	 edx, 2
  0008f	39 87 70 02 00
	00		 cmp	 DWORD PTR [rdi+624], eax
  00095	48 8b cb	 mov	 rcx, rbx
  00098	0f 95 c0	 setne	 al
  0009b	0b d0		 or	 edx, eax
  0009d	0f ba ea 08	 bts	 edx, 8
  000a1	89 54 24 20	 mov	 DWORD PTR [rsp+32], edx
  000a5	ba e0 05 00 00	 mov	 edx, 1504		; 000005e0H
  000aa	ff 15 00 00 00
	00		 call	 QWORD PTR __imp_IoCreateDevice

; 443  : 
; 444  : 	if (!NT_SUCCESS (ntStatus))

  000b0	85 c0		 test	 eax, eax

; 445  : 	{
; 446  : 		Dump ("TCCreateDeviceObject NTSTATUS = 0x%08x END\n", ntStatus);
; 447  : 		return ntStatus;/* Failed to create DeviceObject */

  000b2	0f 88 c0 00 00
	00		 js	 $LN2@TCCreateDe

; 448  : 	}
; 449  : 	/* Initialize device object and extension. */
; 450  : 
; 451  : 	(*ppDeviceObject)->Flags |= DO_DIRECT_IO;

  000b8	48 8b 06	 mov	 rax, QWORD PTR [rsi]

; 452  : 	(*ppDeviceObject)->StackSize += 6;		// Reduce occurrence of NO_MORE_IRP_STACK_LOCATIONS bug check caused by buggy drivers
; 453  : 
; 454  : 	/* Setup the device extension */
; 455  : 	Extension = (PEXTENSION) (*ppDeviceObject)->DeviceExtension;
; 456  : 	memset (Extension, 0, sizeof (EXTENSION));

  000bb	33 d2		 xor	 edx, edx
  000bd	41 b8 e0 05 00
	00		 mov	 r8d, 1504		; 000005e0H
  000c3	83 48 30 10	 or	 DWORD PTR [rax+48], 16
  000c7	48 8b 06	 mov	 rax, QWORD PTR [rsi]
  000ca	80 40 4c 06	 add	 BYTE PTR [rax+76], 6
  000ce	48 8b 06	 mov	 rax, QWORD PTR [rsi]
  000d1	48 8b 58 40	 mov	 rbx, QWORD PTR [rax+64]
  000d5	48 8b cb	 mov	 rcx, rbx
  000d8	e8 00 00 00 00	 call	 memset

; 457  : 
; 458  : 	Extension->IsVolumeDevice = TRUE;

  000dd	ba 01 00 00 00	 mov	 edx, 1

; 459  : 	Extension->nDosDriveNo = mount->nDosDriveNo;
; 460  : 	Extension->bRemovable = mount->bMountRemovable;
; 461  : 	Extension->PartitionInInactiveSysEncScope = mount->bPartitionInInactiveSysEncScope;
; 462  : 	Extension->SystemFavorite = mount->SystemFavorite;
; 463  : 
; 464  : 	KeInitializeEvent (&Extension->keCreateEvent, SynchronizationEvent, FALSE);

  000e2	48 8d 4b 28	 lea	 rcx, QWORD PTR [rbx+40]
  000e6	89 53 04	 mov	 DWORD PTR [rbx+4], edx
  000e9	8b 87 64 02 00
	00		 mov	 eax, DWORD PTR [rdi+612]
  000ef	45 33 c0	 xor	 r8d, r8d
  000f2	89 43 14	 mov	 DWORD PTR [rbx+20], eax
  000f5	8b 87 70 02 00
	00		 mov	 eax, DWORD PTR [rdi+624]
  000fb	89 83 44 03 00
	00		 mov	 DWORD PTR [rbx+836], eax
  00101	8b 87 80 02 00
	00		 mov	 eax, DWORD PTR [rdi+640]
  00107	89 83 48 03 00
	00		 mov	 DWORD PTR [rbx+840], eax
  0010d	8b 87 88 02 00
	00		 mov	 eax, DWORD PTR [rdi+648]
  00113	89 83 54 03 00
	00		 mov	 DWORD PTR [rbx+852], eax
  00119	ff 15 00 00 00
	00		 call	 QWORD PTR __imp_KeInitializeEvent

; 465  : 	KeInitializeSemaphore (&Extension->RequestSemaphore, 0L, MAXLONG);

  0011f	48 8d 4b 58	 lea	 rcx, QWORD PTR [rbx+88]
  00123	33 d2		 xor	 edx, edx
  00125	41 b8 ff ff ff
	7f		 mov	 r8d, 2147483647		; 7fffffffH
  0012b	ff 15 00 00 00
	00		 call	 QWORD PTR __imp_KeInitializeSemaphore

; 466  : 	KeInitializeSpinLock (&Extension->ListSpinLock);

  00131	48 83 63 40 00	 and	 QWORD PTR [rbx+64], 0

; 467  : 	InitializeListHead (&Extension->ListEntry);

  00136	48 8d 43 48	 lea	 rax, QWORD PTR [rbx+72]

; 468  : 	IoInitializeRemoveLock (&Extension->Queue.RemoveLock, 'LRCT', 0, 0);

  0013a	48 8d 8b 80 01
	00 00		 lea	 rcx, QWORD PTR [rbx+384]
  00141	45 33 c9	 xor	 r9d, r9d
  00144	45 33 c0	 xor	 r8d, r8d
  00147	ba 54 43 52 4c	 mov	 edx, 1280459604		; 4c524354H
  0014c	48 89 40 08	 mov	 QWORD PTR [rax+8], rax
  00150	48 89 00	 mov	 QWORD PTR [rax], rax
  00153	c7 44 24 20 20
	00 00 00	 mov	 DWORD PTR [rsp+32], 32	; 00000020H
  0015b	ff 15 00 00 00
	00		 call	 QWORD PTR __imp_IoInitializeRemoveLockEx

; 469  : 
; 470  : 	VirtualVolumeDeviceObjects[mount->nDosDriveNo] = *ppDeviceObject;

  00161	48 8b 06	 mov	 rax, QWORD PTR [rsi]
  00164	4c 63 9f 64 02
	00 00		 movsxd	 r11, DWORD PTR [rdi+612]
  0016b	48 8d 0d 00 00
	00 00		 lea	 rcx, OFFSET FLAT:VirtualVolumeDeviceObjects
  00172	4a 89 04 d9	 mov	 QWORD PTR [rcx+r11*8], rax

; 471  : 
; 472  : 	Dump ("TCCreateDeviceObject STATUS_SUCCESS END\n");
; 473  : 
; 474  : 	return STATUS_SUCCESS;

  00176	33 c0		 xor	 eax, eax
$LN2@TCCreateDe:

; 475  : }

  00178	48 8b 8c 24 e0
	00 00 00	 mov	 rcx, QWORD PTR __$ArrayPad$[rsp]
  00180	48 33 cc	 xor	 rcx, rsp
  00183	e8 00 00 00 00	 call	 __security_check_cookie
  00188	48 81 c4 f0 00
	00 00		 add	 rsp, 240		; 000000f0H
  0018f	5f		 pop	 rdi
  00190	5e		 pop	 rsi
  00191	5b		 pop	 rbx
  00192	c3		 ret	 0
TCCreateDeviceObject ENDP
_TEXT	ENDS
PUBLIC	ValidateIOBufferSize
;	COMDAT pdata
; File c:\winddk\7600.16385.1\inc\ddk\wdm.h
pdata	SEGMENT
$pdata$ValidateIOBufferSize DD imagerel $LN13
	DD	imagerel $LN13+135
	DD	imagerel $unwind$ValidateIOBufferSize
pdata	ENDS
;	COMDAT xdata
xdata	SEGMENT
$unwind$ValidateIOBufferSize DD 010401H
	DD	04204H
; Function compile flags: /Ogspy
; File c:\users\public\desktop\projects\ciphershed\src\driver\ntdriver.c
xdata	ENDS
;	COMDAT ValidateIOBufferSize
_TEXT	SEGMENT
irp$ = 48
requiredBufferSize$ = 56
type$ = 64
ValidateIOBufferSize PROC				; COMDAT

; 168  : {

$LN13:
  00000	48 83 ec 28	 sub	 rsp, 40			; 00000028H

; 169  : 	PIO_STACK_LOCATION irpSp = IoGetCurrentIrpStackLocation (irp);

  00004	4c 8b 99 b8 00
	00 00		 mov	 r11, QWORD PTR [rcx+184]
  0000b	4c 8b c9	 mov	 r9, rcx

; 170  : 	BOOL input = (type == ValidateInput || type == ValidateInputOutput);

  0000e	45 85 c0	 test	 r8d, r8d
  00011	74 0b		 je	 SHORT $LN7@ValidateIO
  00013	41 83 f8 02	 cmp	 r8d, 2
  00017	74 05		 je	 SHORT $LN7@ValidateIO
  00019	45 33 d2	 xor	 r10d, r10d
  0001c	eb 06		 jmp	 SHORT $LN8@ValidateIO
$LN7@ValidateIO:
  0001e	41 ba 01 00 00
	00		 mov	 r10d, 1
$LN8@ValidateIO:

; 171  : 	BOOL output = (type == ValidateOutput || type == ValidateInputOutput);

  00024	41 83 f8 01	 cmp	 r8d, 1
  00028	74 0a		 je	 SHORT $LN9@ValidateIO
  0002a	41 83 f8 02	 cmp	 r8d, 2
  0002e	74 04		 je	 SHORT $LN9@ValidateIO
  00030	33 c9		 xor	 ecx, ecx
  00032	eb 05		 jmp	 SHORT $LN10@ValidateIO
$LN9@ValidateIO:
  00034	b9 01 00 00 00	 mov	 ecx, 1
$LN10@ValidateIO:

; 172  : 
; 173  : 	if ((input && irpSp->Parameters.DeviceIoControl.InputBufferLength < requiredBufferSize)
; 174  : 		|| (output && irpSp->Parameters.DeviceIoControl.OutputBufferLength < requiredBufferSize))

  00039	45 85 d2	 test	 r10d, r10d
  0003c	74 09		 je	 SHORT $LN2@ValidateIO
  0003e	41 8b 43 10	 mov	 eax, DWORD PTR [r11+16]
  00042	48 3b c2	 cmp	 rax, rdx
  00045	72 0d		 jb	 SHORT $LN3@ValidateIO
$LN2@ValidateIO:
  00047	85 c9		 test	 ecx, ecx
  00049	74 1a		 je	 SHORT $LN4@ValidateIO
  0004b	41 8b 43 08	 mov	 eax, DWORD PTR [r11+8]
  0004f	48 3b c2	 cmp	 rax, rdx
  00052	73 11		 jae	 SHORT $LN4@ValidateIO
$LN3@ValidateIO:

; 175  : 	{
; 176  : 		Dump ("STATUS_BUFFER_TOO_SMALL ioctl=0x%x,%d in=%d out=%d reqsize=%d insize=%d outsize=%d\n", (int) (irpSp->Parameters.DeviceIoControl.IoControlCode >> 16), (int) ((irpSp->Parameters.DeviceIoControl.IoControlCode & 0x1FFF) >> 2), input, output, requiredBufferSize, irpSp->Parameters.DeviceIoControl.InputBufferLength, irpSp->Parameters.DeviceIoControl.OutputBufferLength);
; 177  : 
; 178  : 		irp->IoStatus.Status = STATUS_BUFFER_TOO_SMALL;
; 179  : 		irp->IoStatus.Information = 0;

  00054	49 83 61 38 00	 and	 QWORD PTR [r9+56], 0
  00059	41 c7 41 30 23
	00 00 c0	 mov	 DWORD PTR [r9+48], -1073741789 ; ffffffffc0000023H

; 180  : 		return FALSE;

  00061	33 c0		 xor	 eax, eax
  00063	eb 1d		 jmp	 SHORT $LN5@ValidateIO
$LN4@ValidateIO:

; 181  : 	}
; 182  : 
; 183  : 	if (!input && output)

  00065	45 85 d2	 test	 r10d, r10d
  00068	75 13		 jne	 SHORT $LN1@ValidateIO
  0006a	85 c9		 test	 ecx, ecx
  0006c	74 0f		 je	 SHORT $LN1@ValidateIO

; 184  : 		memset (irp->AssociatedIrp.SystemBuffer, 0, irpSp->Parameters.DeviceIoControl.OutputBufferLength);

  0006e	45 8b 43 08	 mov	 r8d, DWORD PTR [r11+8]
  00072	49 8b 49 18	 mov	 rcx, QWORD PTR [r9+24]
  00076	33 d2		 xor	 edx, edx
  00078	e8 00 00 00 00	 call	 memset
$LN1@ValidateIO:

; 185  : 
; 186  : 	return TRUE;

  0007d	b8 01 00 00 00	 mov	 eax, 1
$LN5@ValidateIO:

; 187  : }

  00082	48 83 c4 28	 add	 rsp, 40			; 00000028H
  00086	c3		 ret	 0
ValidateIOBufferSize ENDP
_TEXT	ENDS
PUBLIC	DriverAddDevice
;	COMDAT pdata
pdata	SEGMENT
$pdata$DriverAddDevice DD imagerel $LN6
	DD	imagerel $LN6+138
	DD	imagerel $unwind$DriverAddDevice
pdata	ENDS
;	COMDAT xdata
xdata	SEGMENT
$unwind$DriverAddDevice DD 060f01H
	DD	07640fH
	DD	06340fH
	DD	0700b320fH
; Function compile flags: /Ogspy
xdata	ENDS
;	COMDAT DriverAddDevice
_TEXT	SEGMENT
driverObject$ = 48
pdo$ = 56
interfaceLinks$31396 = 64
DriverAddDevice PROC					; COMDAT

; 112  : {

$LN6:
  00000	48 89 5c 24 08	 mov	 QWORD PTR [rsp+8], rbx
  00005	48 89 74 24 10	 mov	 QWORD PTR [rsp+16], rsi
  0000a	57		 push	 rdi
  0000b	48 83 ec 20	 sub	 rsp, 32			; 00000020H

; 113  : #ifdef DEBUG
; 114  : 	char nameInfoBuffer[128];
; 115  : 	POBJECT_NAME_INFORMATION nameInfo = (POBJECT_NAME_INFORMATION) nameInfoBuffer;
; 116  : 	ULONG nameInfoSize;
; 117  : 	Dump ("AddDevice pdo=%p type=%x name=%ws\n", pdo, pdo->DeviceType, NT_SUCCESS (ObQueryNameString (pdo, nameInfo, sizeof (nameInfoBuffer), &nameInfoSize)) ? nameInfo->Name.Buffer : L"?");
; 118  : #endif
; 119  : 
; 120  : 	if (VolumeClassFilterRegistered && BootArgsValid && BootArgs.HiddenSystemPartitionStart != 0)

  0000f	33 f6		 xor	 esi, esi
  00011	48 8b da	 mov	 rbx, rdx
  00014	48 8b f9	 mov	 rdi, rcx
  00017	39 35 00 00 00
	00		 cmp	 DWORD PTR VolumeClassFilterRegistered, esi
  0001d	74 50		 je	 SHORT $LN2@DriverAddD
  0001f	39 35 00 00 00
	00		 cmp	 DWORD PTR BootArgsValid, esi
  00025	74 48		 je	 SHORT $LN2@DriverAddD
  00027	48 39 35 5a 00
	00 00		 cmp	 QWORD PTR BootArgs+90, rsi
  0002e	74 3f		 je	 SHORT $LN2@DriverAddD

; 121  : 	{
; 122  : 		PWSTR interfaceLinks;
; 123  : 		if (NT_SUCCESS (IoGetDeviceInterfaces (&GUID_DEVINTERFACE_VOLUME, pdo, DEVICE_INTERFACE_INCLUDE_NONACTIVE, &interfaceLinks)))

  00030	4c 8d 4c 24 40	 lea	 r9, QWORD PTR interfaceLinks$31396[rsp]
  00035	44 8d 46 01	 lea	 r8d, QWORD PTR [rsi+1]
  00039	48 8d 0d 00 00
	00 00		 lea	 rcx, OFFSET FLAT:GUID_DEVINTERFACE_VOLUME
  00040	ff 15 00 00 00
	00		 call	 QWORD PTR __imp_IoGetDeviceInterfaces
  00046	3b c6		 cmp	 eax, esi
  00048	7c 25		 jl	 SHORT $LN2@DriverAddD

; 124  : 		{
; 125  : 			if (interfaceLinks[0] != UNICODE_NULL)

  0004a	48 8b 4c 24 40	 mov	 rcx, QWORD PTR interfaceLinks$31396[rsp]

; 126  : 			{
; 127  : 				Dump ("Volume pdo=%p interface=%ws\n", pdo, interfaceLinks);
; 128  : 				ExFreePool (interfaceLinks);

  0004f	33 d2		 xor	 edx, edx
  00051	66 39 31	 cmp	 WORD PTR [rcx], si
  00054	74 13		 je	 SHORT $LN1@DriverAddD
  00056	ff 15 00 00 00
	00		 call	 QWORD PTR __imp_ExFreePoolWithTag

; 129  : 
; 130  : 				return VolumeFilterAddDevice (driverObject, pdo);

  0005c	48 8b d3	 mov	 rdx, rbx
  0005f	48 8b cf	 mov	 rcx, rdi
  00062	e8 00 00 00 00	 call	 VolumeFilterAddDevice
  00067	eb 11		 jmp	 SHORT $LN4@DriverAddD
$LN1@DriverAddD:

; 131  : 			}
; 132  : 
; 133  : 			ExFreePool (interfaceLinks);

  00069	ff 15 00 00 00
	00		 call	 QWORD PTR __imp_ExFreePoolWithTag
$LN2@DriverAddD:

; 134  : 		}
; 135  : 	}
; 136  : 
; 137  : 	return DriveFilterAddDevice (driverObject, pdo);

  0006f	48 8b d3	 mov	 rdx, rbx
  00072	48 8b cf	 mov	 rcx, rdi
  00075	e8 00 00 00 00	 call	 DriveFilterAddDevice
$LN4@DriverAddD:

; 138  : }

  0007a	48 8b 5c 24 30	 mov	 rbx, QWORD PTR [rsp+48]
  0007f	48 8b 74 24 38	 mov	 rsi, QWORD PTR [rsp+56]
  00084	48 83 c4 20	 add	 rsp, 32			; 00000020H
  00088	5f		 pop	 rdi
  00089	c3		 ret	 0
DriverAddDevice ENDP
PUBLIC	IsVolumeAccessibleByCurrentUser
;	COMDAT pdata
pdata	SEGMENT
$pdata$IsVolumeAccessibleByCurrentUser DD imagerel $LN18
	DD	imagerel $LN18+265
	DD	imagerel $unwind$IsVolumeAccessibleByCurrentUser
pdata	ENDS
;	COMDAT xdata
xdata	SEGMENT
$unwind$IsVolumeAccessibleByCurrentUser DD 060f01H
	DD	0c640fH
	DD	0a340fH
	DD	0700b720fH
; Function compile flags: /Ogspy
xdata	ENDS
;	COMDAT IsVolumeAccessibleByCurrentUser
_TEXT	SEGMENT
subContext$ = 32
volumeDeviceExtension$ = 80
tokenUser$ = 88
IsVolumeAccessibleByCurrentUser PROC			; COMDAT

; 3288 : {

$LN18:
  00000	48 89 5c 24 08	 mov	 QWORD PTR [rsp+8], rbx
  00005	48 89 74 24 18	 mov	 QWORD PTR [rsp+24], rsi
  0000a	57		 push	 rdi
  0000b	48 83 ec 40	 sub	 rsp, 64			; 00000040H
  0000f	48 8b f1	 mov	 rsi, rcx

; 3289 : 	SECURITY_SUBJECT_CONTEXT subContext;
; 3290 : 	PACCESS_TOKEN accessToken;
; 3291 : 	PTOKEN_USER tokenUser;
; 3292 : 	BOOL result = FALSE;
; 3293 : 
; 3294 : 	if (IoIsSystemThread (PsGetCurrentThread())
; 3295 : 		|| UserCanAccessDriveDevice()
; 3296 : 		|| !volumeDeviceExtension->UserSid
; 3297 : 		|| (volumeDeviceExtension->SystemFavorite && !NonAdminSystemFavoritesAccessDisabled))

  00012	65 48 8b 0c 25
	88 01 00 00	 mov	 rcx, QWORD PTR gs:392
  0001b	33 db		 xor	 ebx, ebx
  0001d	ff 15 00 00 00
	00		 call	 QWORD PTR __imp_IoIsSystemThread
  00023	3a c3		 cmp	 al, bl
  00025	0f 85 c9 00 00
	00		 jne	 $LN4@IsVolumeAc
  0002b	e8 00 00 00 00	 call	 UserCanAccessDriveDevice
  00030	3b c3		 cmp	 eax, ebx
  00032	0f 85 bc 00 00
	00		 jne	 $LN4@IsVolumeAc
  00038	48 39 9e 88 05
	00 00		 cmp	 QWORD PTR [rsi+1416], rbx
  0003f	0f 84 af 00 00
	00		 je	 $LN4@IsVolumeAc
  00045	39 9e 54 03 00
	00		 cmp	 DWORD PTR [rsi+852], ebx
  0004b	74 0c		 je	 SHORT $LN5@IsVolumeAc
  0004d	39 1d 00 00 00
	00		 cmp	 DWORD PTR NonAdminSystemFavoritesAccessDisabled, ebx
  00053	0f 84 9b 00 00
	00		 je	 $LN4@IsVolumeAc
$LN5@IsVolumeAc:

; 3300 : 	}
; 3301 : 
; 3302 : 	SeCaptureSubjectContext (&subContext);

  00059	48 8d 4c 24 20	 lea	 rcx, QWORD PTR subContext$[rsp]
  0005e	ff 15 00 00 00
	00		 call	 QWORD PTR __imp_SeCaptureSubjectContext

; 3303 : 	SeLockSubjectContext(&subContext);

  00064	48 8d 4c 24 20	 lea	 rcx, QWORD PTR subContext$[rsp]
  00069	ff 15 00 00 00
	00		 call	 QWORD PTR __imp_SeLockSubjectContext

; 3304 : 	accessToken = getToken(&subContext);

  0006f	48 8b 7c 24 20	 mov	 rdi, QWORD PTR subContext$[rsp]
  00074	48 3b fb	 cmp	 rdi, rbx
  00077	74 07		 je	 SHORT $LN13@IsVolumeAc
  00079	83 7c 24 28 02	 cmp	 DWORD PTR subContext$[rsp+8], 2
  0007e	7d 05		 jge	 SHORT $LN12@IsVolumeAc
$LN13@IsVolumeAc:
  00080	48 8b 7c 24 30	 mov	 rdi, QWORD PTR subContext$[rsp+16]
$LN12@IsVolumeAc:

; 3305 : 
; 3306 : 	if (!accessToken)

  00085	48 3b fb	 cmp	 rdi, rbx
  00088	74 50		 je	 SHORT $ret$32994

; 3307 : 		goto ret;
; 3308 : 	
; 3309 : 	if (SeTokenIsAdmin (accessToken))

  0008a	48 8b cf	 mov	 rcx, rdi
  0008d	ff 15 00 00 00
	00		 call	 QWORD PTR __imp_SeTokenIsAdmin
  00093	3a c3		 cmp	 al, bl
  00095	74 07		 je	 SHORT $LN2@IsVolumeAc

; 3310 : 	{
; 3311 : 		result = TRUE;

  00097	bb 01 00 00 00	 mov	 ebx, 1

; 3312 : 		goto ret;

  0009c	eb 3c		 jmp	 SHORT $ret$32994
$LN2@IsVolumeAc:

; 3313 : 	}
; 3314 : 
; 3315 : 	if (!NT_SUCCESS (SeQueryInformationToken (accessToken, TokenUser, &tokenUser)))

  0009e	4c 8d 44 24 58	 lea	 r8, QWORD PTR tokenUser$[rsp]
  000a3	ba 01 00 00 00	 mov	 edx, 1
  000a8	48 8b cf	 mov	 rcx, rdi
  000ab	ff 15 00 00 00
	00		 call	 QWORD PTR __imp_SeQueryInformationToken
  000b1	3b c3		 cmp	 eax, ebx
  000b3	7c 25		 jl	 SHORT $ret$32994

; 3316 : 		goto ret;
; 3317 : 
; 3318 : 	result = RtlEqualSid (volumeDeviceExtension->UserSid, tokenUser->User.Sid);

  000b5	48 8b 54 24 58	 mov	 rdx, QWORD PTR tokenUser$[rsp]
  000ba	48 8b 8e 88 05
	00 00		 mov	 rcx, QWORD PTR [rsi+1416]
  000c1	48 8b 12	 mov	 rdx, QWORD PTR [rdx]
  000c4	ff 15 00 00 00
	00		 call	 QWORD PTR __imp_RtlEqualSid

; 3319 : 	ExFreePool (tokenUser);		// Documented in newer versions of WDK

  000ca	48 8b 4c 24 58	 mov	 rcx, QWORD PTR tokenUser$[rsp]
  000cf	33 d2		 xor	 edx, edx
  000d1	0f b6 d8	 movzx	 ebx, al
  000d4	ff 15 00 00 00
	00		 call	 QWORD PTR __imp_ExFreePoolWithTag
$ret$32994:

; 3320 : 
; 3321 : ret:
; 3322 : 	SeUnlockSubjectContext(&subContext);

  000da	48 8d 4c 24 20	 lea	 rcx, QWORD PTR subContext$[rsp]
  000df	ff 15 00 00 00
	00		 call	 QWORD PTR __imp_SeUnlockSubjectContext

; 3323 : 	SeReleaseSubjectContext (&subContext);

  000e5	48 8d 4c 24 20	 lea	 rcx, QWORD PTR subContext$[rsp]
  000ea	ff 15 00 00 00
	00		 call	 QWORD PTR __imp_SeReleaseSubjectContext

; 3324 : 	return result;

  000f0	8b c3		 mov	 eax, ebx
  000f2	eb 05		 jmp	 SHORT $LN6@IsVolumeAc
$LN4@IsVolumeAc:

; 3298 : 	{
; 3299 : 		return TRUE;

  000f4	b8 01 00 00 00	 mov	 eax, 1
$LN6@IsVolumeAc:

; 3325 : }

  000f9	48 8b 5c 24 50	 mov	 rbx, QWORD PTR [rsp+80]
  000fe	48 8b 74 24 60	 mov	 rsi, QWORD PTR [rsp+96]
  00103	48 83 c4 40	 add	 rsp, 64			; 00000040H
  00107	5f		 pop	 rdi
  00108	c3		 ret	 0
IsVolumeAccessibleByCurrentUser ENDP
_TEXT	ENDS
PUBLIC	GetDeviceSectorSize
;	COMDAT pdata
pdata	SEGMENT
$pdata$GetDeviceSectorSize DD imagerel $LN4
	DD	imagerel $LN4+61
	DD	imagerel $unwind$GetDeviceSectorSize
pdata	ENDS
;	COMDAT xdata
xdata	SEGMENT
$unwind$GetDeviceSectorSize DD 020601H
	DD	030029206H
; Function compile flags: /Ogspy
xdata	ENDS
;	COMDAT GetDeviceSectorSize
_TEXT	SEGMENT
geometry$ = 48
deviceObject$ = 96
bytesPerSector$ = 104
GetDeviceSectorSize PROC				; COMDAT

; 3203 : {

$LN4:
  00000	40 53		 push	 rbx
  00002	48 83 ec 50	 sub	 rsp, 80			; 00000050H

; 3204 : 	NTSTATUS status;
; 3205 : 	DISK_GEOMETRY geometry;
; 3206 : 
; 3207 : 	status = SendDeviceIoControlRequest (deviceObject, IOCTL_DISK_GET_DRIVE_GEOMETRY, NULL, 0, &geometry, sizeof (geometry));

  00006	48 8d 44 24 30	 lea	 rax, QWORD PTR geometry$[rsp]
  0000b	48 8b da	 mov	 rbx, rdx
  0000e	45 33 c9	 xor	 r9d, r9d
  00011	45 33 c0	 xor	 r8d, r8d
  00014	ba 00 00 07 00	 mov	 edx, 458752		; 00070000H
  00019	c7 44 24 28 18
	00 00 00	 mov	 DWORD PTR [rsp+40], 24
  00021	48 89 44 24 20	 mov	 QWORD PTR [rsp+32], rax
  00026	e8 00 00 00 00	 call	 SendDeviceIoControlRequest

; 3208 : 
; 3209 : 	if (!NT_SUCCESS (status))

  0002b	85 c0		 test	 eax, eax

; 3210 : 		return status;

  0002d	78 08		 js	 SHORT $LN2@GetDeviceS

; 3211 : 
; 3212 : 	*bytesPerSector = geometry.BytesPerSector;

  0002f	8b 44 24 44	 mov	 eax, DWORD PTR geometry$[rsp+20]
  00033	89 03		 mov	 DWORD PTR [rbx], eax

; 3213 : 	return STATUS_SUCCESS;

  00035	33 c0		 xor	 eax, eax
$LN2@GetDeviceS:

; 3214 : }

  00037	48 83 c4 50	 add	 rsp, 80			; 00000050H
  0003b	5b		 pop	 rbx
  0003c	c3		 ret	 0
GetDeviceSectorSize ENDP
_TEXT	ENDS
PUBLIC	__$ArrayPad$
PUBLIC	MountManagerUnmount
;	COMDAT pdata
pdata	SEGMENT
$pdata$MountManagerUnmount DD imagerel $LN3
	DD	imagerel $LN3+171
	DD	imagerel $unwind$MountManagerUnmount
pdata	ENDS
;	COMDAT xdata
xdata	SEGMENT
$unwind$MountManagerUnmount DD 031b19H
	DD	04e0109H
	DD	07002H
	DD	imagerel __GSHandlerCheck
	DD	0260H
; Function compile flags: /Ogspy
xdata	ENDS
;	COMDAT MountManagerUnmount
_TEXT	SEGMENT
buf$ = 48
out$ = 304
__$ArrayPad$ = 608
nDosDriveNo$ = 640
MountManagerUnmount PROC				; COMDAT

; 2521 : {

$LN3:
  00000	40 57		 push	 rdi
  00002	48 81 ec 70 02
	00 00		 sub	 rsp, 624		; 00000270H
  00009	48 8b 05 00 00
	00 00		 mov	 rax, QWORD PTR __security_cookie
  00010	48 33 c4	 xor	 rax, rsp
  00013	48 89 84 24 60
	02 00 00	 mov	 QWORD PTR __$ArrayPad$[rsp], rax
  0001b	8b f9		 mov	 edi, ecx

; 2522 : 	NTSTATUS ntStatus; 
; 2523 : 	char buf[256], out[300];
; 2524 : 	PMOUNTMGR_MOUNT_POINT in = (PMOUNTMGR_MOUNT_POINT) buf;
; 2525 : 
; 2526 : 	memset (buf, 0, sizeof buf);

  0001d	48 8d 4c 24 30	 lea	 rcx, QWORD PTR buf$[rsp]
  00022	33 d2		 xor	 edx, edx
  00024	41 b8 00 01 00
	00		 mov	 r8d, 256		; 00000100H
  0002a	e8 00 00 00 00	 call	 memset

; 2527 : 
; 2528 : 	TCGetDosNameFromNumber ((PWSTR) &in[1], nDosDriveNo);

  0002f	48 8d 4c 24 48	 lea	 rcx, QWORD PTR buf$[rsp+24]
  00034	8b d7		 mov	 edx, edi
  00036	e8 00 00 00 00	 call	 TCGetDosNameFromNumber

; 2529 : 
; 2530 : 	// Only symbolic link can be deleted with IOCTL_MOUNTMGR_DELETE_POINTS. If any other entry is specified, the mount manager will ignore subsequent IOCTL_MOUNTMGR_VOLUME_ARRIVAL_NOTIFICATION for the same volume ID.
; 2531 : 	in->SymbolicLinkNameOffset = sizeof (MOUNTMGR_MOUNT_POINT);
; 2532 : 	in->SymbolicLinkNameLength = (USHORT) wcslen ((PWCHAR) &in[1]) * 2;

  0003b	48 83 c9 ff	 or	 rcx, -1
  0003f	33 c0		 xor	 eax, eax
  00041	c7 44 24 30 18
	00 00 00	 mov	 DWORD PTR buf$[rsp], 24
  00049	48 8d 7c 24 48	 lea	 rdi, QWORD PTR buf$[rsp+24]

; 2533 : 
; 2534 : 	ntStatus = TCDeviceIoControl (MOUNTMGR_DEVICE_NAME, IOCTL_MOUNTMGR_DELETE_POINTS,
; 2535 : 		in, sizeof(MOUNTMGR_MOUNT_POINT) + in->SymbolicLinkNameLength, out, sizeof out);

  0004e	4c 8d 44 24 30	 lea	 r8, QWORD PTR buf$[rsp]
  00053	66 f2 af	 repne scasw
  00056	48 8d 84 24 30
	01 00 00	 lea	 rax, QWORD PTR out$[rsp]
  0005e	ba 04 c0 6d 00	 mov	 edx, 7192580		; 006dc004H
  00063	48 f7 d1	 not	 rcx
  00066	c7 44 24 28 2c
	01 00 00	 mov	 DWORD PTR [rsp+40], 300	; 0000012cH
  0006e	48 89 44 24 20	 mov	 QWORD PTR [rsp+32], rax
  00073	48 ff c9	 dec	 rcx
  00076	66 03 c9	 add	 cx, cx

; 2536 : 
; 2537 : 	Dump ("IOCTL_MOUNTMGR_DELETE_POINTS returned 0x%08x\n", ntStatus);
; 2538 : 
; 2539 : 	return ntStatus;

  00079	44 0f b7 c9	 movzx	 r9d, cx
  0007d	66 89 4c 24 34	 mov	 WORD PTR buf$[rsp+4], cx
  00082	48 8d 0d 00 00
	00 00		 lea	 rcx, OFFSET FLAT:??_C@_1DE@MJJBHHAG@?$AA?2?$AAD?$AAe?$AAv?$AAi?$AAc?$AAe?$AA?2?$AAM?$AAo?$AAu?$AAn?$AAt?$AAP?$AAo?$AAi?$AAn?$AAt?$AAM?$AAa?$AAn?$AAa?$AAg?$AAe?$AAr?$AA?$AA@FNODOBFM@
  00089	41 83 c1 18	 add	 r9d, 24
  0008d	e8 00 00 00 00	 call	 TCDeviceIoControl

; 2540 : }

  00092	48 8b 8c 24 60
	02 00 00	 mov	 rcx, QWORD PTR __$ArrayPad$[rsp]
  0009a	48 33 cc	 xor	 rcx, rsp
  0009d	e8 00 00 00 00	 call	 __security_check_cookie
  000a2	48 81 c4 70 02
	00 00		 add	 rsp, 624		; 00000270H
  000a9	5f		 pop	 rdi
  000aa	c3		 ret	 0
MountManagerUnmount ENDP
_TEXT	ENDS
PUBLIC	__$ArrayPad$
PUBLIC	MountManagerMount
;	COMDAT pdata
pdata	SEGMENT
$pdata$MountManagerMount DD imagerel $LN5
	DD	imagerel $LN5+415
	DD	imagerel $unwind$MountManagerMount
pdata	ENDS
;	COMDAT xdata
xdata	SEGMENT
$unwind$MountManagerMount DD 092919H
	DD	06b6417H
	DD	06a5417H
	DD	0693417H
	DD	0660117H
	DD	07010H
	DD	imagerel __GSHandlerCheck
	DD	0320H
; Function compile flags: /Ogspy
xdata	ENDS
;	COMDAT MountManagerMount
_TEXT	SEGMENT
devName$ = 48
symName$ = 64
buf$ = 80
arrVolume$ = 288
__$ArrayPad$ = 800
mount$ = 832
MountManagerMount PROC					; COMDAT

; 2484 : {

$LN5:
  00000	4c 8b dc	 mov	 r11, rsp
  00003	49 89 5b 10	 mov	 QWORD PTR [r11+16], rbx
  00007	49 89 6b 18	 mov	 QWORD PTR [r11+24], rbp
  0000b	49 89 73 20	 mov	 QWORD PTR [r11+32], rsi
  0000f	57		 push	 rdi
  00010	48 81 ec 30 03
	00 00		 sub	 rsp, 816		; 00000330H
  00017	48 8b 05 00 00
	00 00		 mov	 rax, QWORD PTR __security_cookie
  0001e	48 33 c4	 xor	 rax, rsp
  00021	48 89 84 24 20
	03 00 00	 mov	 QWORD PTR __$ArrayPad$[rsp], rax

; 2485 : 	NTSTATUS ntStatus; 
; 2486 : 	WCHAR arrVolume[256];
; 2487 : 	char buf[200];
; 2488 : 	PMOUNTMGR_TARGET_NAME in = (PMOUNTMGR_TARGET_NAME) buf;
; 2489 : 	PMOUNTMGR_CREATE_POINT_INPUT point = (PMOUNTMGR_CREATE_POINT_INPUT) buf;
; 2490 : 	UNICODE_STRING symName, devName;
; 2491 : 
; 2492 : 	TCGetNTNameFromNumber (arrVolume, mount->nDosDriveNo);

  00029	8b 91 64 02 00
	00		 mov	 edx, DWORD PTR [rcx+612]
  0002f	48 8b d9	 mov	 rbx, rcx
  00032	49 8d 8b e8 fd
	ff ff		 lea	 rcx, QWORD PTR [r11-536]
  00039	e8 00 00 00 00	 call	 TCGetNTNameFromNumber

; 2493 : 	in->DeviceNameLength = (USHORT) wcslen (arrVolume) * 2;

  0003e	33 c0		 xor	 eax, eax
  00040	48 83 cd ff	 or	 rbp, -1
  00044	48 8d bc 24 20
	01 00 00	 lea	 rdi, QWORD PTR arrVolume$[rsp]
  0004c	48 8b cd	 mov	 rcx, rbp
  0004f	66 f2 af	 repne scasw
  00052	48 f7 d1	 not	 rcx
  00055	48 ff c9	 dec	 rcx
  00058	0f b7 c1	 movzx	 eax, cx
  0005b	66 03 c0	 add	 ax, ax

; 2494 : 	wcscpy(in->DeviceName, arrVolume);

  0005e	33 f6		 xor	 esi, esi
  00060	48 8b d6	 mov	 rdx, rsi
  00063	66 89 44 24 50	 mov	 WORD PTR buf$[rsp], ax
$LL3@MountManag:
  00068	0f b7 84 14 20
	01 00 00	 movzx	 eax, WORD PTR arrVolume$[rsp+rdx]
  00070	48 83 c2 02	 add	 rdx, 2
  00074	66 89 44 14 50	 mov	 WORD PTR buf$[rsp+rdx], ax
  00079	66 3b c6	 cmp	 ax, si
  0007c	75 ea		 jne	 SHORT $LL3@MountManag

; 2495 : 
; 2496 : 	ntStatus = TCDeviceIoControl (MOUNTMGR_DEVICE_NAME, IOCTL_MOUNTMGR_VOLUME_ARRIVAL_NOTIFICATION,
; 2497 : 		in, (ULONG) (sizeof (in->DeviceNameLength) + wcslen (arrVolume) * 2), 0, 0);

  0007e	44 8d 4c 09 02	 lea	 r9d, DWORD PTR [rcx+rcx+2]
  00083	4c 8d 44 24 50	 lea	 r8, QWORD PTR buf$[rsp]
  00088	48 8d 0d 00 00
	00 00		 lea	 rcx, OFFSET FLAT:??_C@_1DE@MJJBHHAG@?$AA?2?$AAD?$AAe?$AAv?$AAi?$AAc?$AAe?$AA?2?$AAM?$AAo?$AAu?$AAn?$AAt?$AAP?$AAo?$AAi?$AAn?$AAt?$AAM?$AAa?$AAn?$AAa?$AAg?$AAe?$AAr?$AA?$AA@FNODOBFM@
  0008f	ba 2c 40 6d 00	 mov	 edx, 7159852		; 006d402cH
  00094	89 74 24 28	 mov	 DWORD PTR [rsp+40], esi
  00098	48 89 74 24 20	 mov	 QWORD PTR [rsp+32], rsi
  0009d	e8 00 00 00 00	 call	 TCDeviceIoControl

; 2498 : 
; 2499 : 	memset (buf, 0, sizeof buf);

  000a2	48 8d 4c 24 50	 lea	 rcx, QWORD PTR buf$[rsp]
  000a7	33 d2		 xor	 edx, edx
  000a9	41 b8 c8 00 00
	00		 mov	 r8d, 200		; 000000c8H
  000af	e8 00 00 00 00	 call	 memset

; 2500 : 	TCGetDosNameFromNumber ((PWSTR) &point[1], mount->nDosDriveNo);

  000b4	8b 93 64 02 00
	00		 mov	 edx, DWORD PTR [rbx+612]
  000ba	48 8d 4c 24 58	 lea	 rcx, QWORD PTR buf$[rsp+8]
  000bf	e8 00 00 00 00	 call	 TCGetDosNameFromNumber

; 2501 : 
; 2502 : 	point->SymbolicLinkNameOffset = sizeof (MOUNTMGR_CREATE_POINT_INPUT);

  000c4	ba 08 00 00 00	 mov	 edx, 8

; 2503 : 	point->SymbolicLinkNameLength = (USHORT) wcslen ((PWSTR) &point[1]) * 2;

  000c9	33 c0		 xor	 eax, eax
  000cb	66 89 54 24 50	 mov	 WORD PTR buf$[rsp], dx
  000d0	48 8d 7c 24 58	 lea	 rdi, QWORD PTR buf$[rsp+8]
  000d5	48 8b cd	 mov	 rcx, rbp
  000d8	66 f2 af	 repne scasw

; 2504 : 
; 2505 : 	RtlInitUnicodeString(&symName, (PWSTR) (buf + point->SymbolicLinkNameOffset));

  000db	48 8d 54 24 58	 lea	 rdx, QWORD PTR buf$[rsp+8]
  000e0	48 f7 d1	 not	 rcx
  000e3	48 ff c9	 dec	 rcx
  000e6	66 03 c9	 add	 cx, cx
  000e9	66 89 4c 24 52	 mov	 WORD PTR buf$[rsp+2], cx
  000ee	48 8d 4c 24 40	 lea	 rcx, QWORD PTR symName$[rsp]
  000f3	ff 15 00 00 00
	00		 call	 QWORD PTR __imp_RtlInitUnicodeString

; 2506 : 
; 2507 : 	point->DeviceNameOffset = point->SymbolicLinkNameOffset + point->SymbolicLinkNameLength;

  000f9	0f b7 54 24 52	 movzx	 edx, WORD PTR buf$[rsp+2]
  000fe	66 03 54 24 50	 add	 dx, WORD PTR buf$[rsp]

; 2508 : 	TCGetNTNameFromNumber ((PWSTR) (buf + point->DeviceNameOffset), mount->nDosDriveNo);

  00103	0f b7 c2	 movzx	 eax, dx
  00106	66 89 54 24 54	 mov	 WORD PTR buf$[rsp+4], dx
  0010b	8b 93 64 02 00
	00		 mov	 edx, DWORD PTR [rbx+612]
  00111	48 8d 4c 04 50	 lea	 rcx, QWORD PTR buf$[rsp+rax]
  00116	e8 00 00 00 00	 call	 TCGetNTNameFromNumber

; 2509 : 	point->DeviceNameLength = (USHORT) wcslen ((PWSTR) (buf + point->DeviceNameOffset)) * 2;

  0011b	0f b7 54 24 54	 movzx	 edx, WORD PTR buf$[rsp+4]
  00120	33 c0		 xor	 eax, eax
  00122	48 8d 54 14 50	 lea	 rdx, QWORD PTR buf$[rsp+rdx]
  00127	48 8b cd	 mov	 rcx, rbp
  0012a	48 8b fa	 mov	 rdi, rdx
  0012d	66 f2 af	 repne scasw
  00130	48 f7 d1	 not	 rcx
  00133	48 ff c9	 dec	 rcx
  00136	66 03 c9	 add	 cx, cx
  00139	66 89 4c 24 56	 mov	 WORD PTR buf$[rsp+6], cx

; 2510 : 
; 2511 : 	RtlInitUnicodeString(&devName, (PWSTR) (buf + point->DeviceNameOffset));

  0013e	48 8d 4c 24 30	 lea	 rcx, QWORD PTR devName$[rsp]
  00143	ff 15 00 00 00
	00		 call	 QWORD PTR __imp_RtlInitUnicodeString

; 2512 : 
; 2513 : 	ntStatus = TCDeviceIoControl (MOUNTMGR_DEVICE_NAME, IOCTL_MOUNTMGR_CREATE_POINT, point,
; 2514 : 		point->DeviceNameOffset + point->DeviceNameLength, 0, 0);
; 2515 : 
; 2516 : 	return ntStatus;

  00149	44 0f b7 4c 24
	56		 movzx	 r9d, WORD PTR buf$[rsp+6]
  0014f	0f b7 44 24 54	 movzx	 eax, WORD PTR buf$[rsp+4]
  00154	4c 8d 44 24 50	 lea	 r8, QWORD PTR buf$[rsp]
  00159	48 8d 0d 00 00
	00 00		 lea	 rcx, OFFSET FLAT:??_C@_1DE@MJJBHHAG@?$AA?2?$AAD?$AAe?$AAv?$AAi?$AAc?$AAe?$AA?2?$AAM?$AAo?$AAu?$AAn?$AAt?$AAP?$AAo?$AAi?$AAn?$AAt?$AAM?$AAa?$AAn?$AAa?$AAg?$AAe?$AAr?$AA?$AA@FNODOBFM@
  00160	44 03 c8	 add	 r9d, eax
  00163	ba 00 c0 6d 00	 mov	 edx, 7192576		; 006dc000H
  00168	89 74 24 28	 mov	 DWORD PTR [rsp+40], esi
  0016c	48 89 74 24 20	 mov	 QWORD PTR [rsp+32], rsi
  00171	e8 00 00 00 00	 call	 TCDeviceIoControl

; 2517 : }

  00176	48 8b 8c 24 20
	03 00 00	 mov	 rcx, QWORD PTR __$ArrayPad$[rsp]
  0017e	48 33 cc	 xor	 rcx, rsp
  00181	e8 00 00 00 00	 call	 __security_check_cookie
  00186	4c 8d 9c 24 30
	03 00 00	 lea	 r11, QWORD PTR [rsp+816]
  0018e	49 8b 5b 18	 mov	 rbx, QWORD PTR [r11+24]
  00192	49 8b 6b 20	 mov	 rbp, QWORD PTR [r11+32]
  00196	49 8b 73 28	 mov	 rsi, QWORD PTR [r11+40]
  0019a	49 8b e3	 mov	 rsp, r11
  0019d	5f		 pop	 rdi
  0019e	c3		 ret	 0
MountManagerMount ENDP
_TEXT	ENDS
PUBLIC	ProbeRealDriveSize
;	COMDAT pdata
pdata	SEGMENT
$pdata$ProbeRealDriveSize DD imagerel $LN21
	DD	imagerel $LN21+292
	DD	imagerel $unwind$ProbeRealDriveSize
pdata	ENDS
;	COMDAT xdata
xdata	SEGMENT
$unwind$ProbeRealDriveSize DD 0a1801H
	DD	0d6418H
	DD	0b5418H
	DD	0a3418H
	DD	0d0145218H
	DD	07010c012H
; Function compile flags: /Ogspy
xdata	ENDS
;	COMDAT ProbeRealDriveSize
_TEXT	SEGMENT
driveDeviceObject$ = 80
driveSize$ = 88
sysLength$ = 96
ProbeRealDriveSize PROC					; COMDAT

; 2268 : {

$LN21:
  00000	48 89 5c 24 08	 mov	 QWORD PTR [rsp+8], rbx
  00005	48 89 6c 24 10	 mov	 QWORD PTR [rsp+16], rbp
  0000a	48 89 74 24 20	 mov	 QWORD PTR [rsp+32], rsi
  0000f	57		 push	 rdi
  00010	41 54		 push	 r12
  00012	41 55		 push	 r13
  00014	48 83 ec 30	 sub	 rsp, 48			; 00000030H
  00018	48 8b fa	 mov	 rdi, rdx
  0001b	48 8b e9	 mov	 rbp, rcx

; 2269 : 	NTSTATUS status;
; 2270 : 	LARGE_INTEGER sysLength;
; 2271 : 	LARGE_INTEGER offset;
; 2272 : 	byte *sectorBuffer;
; 2273 : 	ULONGLONG startTime;
; 2274 : 
; 2275 : 	if (!UserCanAccessDriveDevice())

  0001e	e8 00 00 00 00	 call	 UserCanAccessDriveDevice
  00023	85 c0		 test	 eax, eax
  00025	75 0a		 jne	 SHORT $LN9@ProbeRealD

; 2276 : 		return STATUS_ACCESS_DENIED;

  00027	b8 22 00 00 c0	 mov	 eax, -1073741790	; ffffffffc0000022H
  0002c	e9 da 00 00 00	 jmp	 $LN4@ProbeRealD
$LN9@ProbeRealD:

; 2277 : 
; 2278 : 	sectorBuffer = TCalloc (TC_SECTOR_SIZE_BIOS);

  00031	41 bd 00 02 00
	00		 mov	 r13d, 512		; 00000200H
  00037	41 b8 54 43 4d
	4d		 mov	 r8d, 1296909140		; 4d4d4354H
  0003d	33 c9		 xor	 ecx, ecx
  0003f	49 8b d5	 mov	 rdx, r13
  00042	ff 15 00 00 00
	00		 call	 QWORD PTR __imp_ExAllocatePoolWithTag
  00048	48 8b f0	 mov	 rsi, rax

; 2279 : 	if (!sectorBuffer)

  0004b	48 85 c0	 test	 rax, rax
  0004e	75 0a		 jne	 SHORT $LN8@ProbeRealD

; 2280 : 		return STATUS_INSUFFICIENT_RESOURCES;

  00050	b8 9a 00 00 c0	 mov	 eax, -1073741670	; ffffffffc000009aH
  00055	e9 b1 00 00 00	 jmp	 $LN4@ProbeRealD
$LN8@ProbeRealD:

; 2281 : 
; 2282 : 	status = SendDeviceIoControlRequest (driveDeviceObject, IOCTL_DISK_GET_LENGTH_INFO,
; 2283 : 		NULL, 0, &sysLength, sizeof (sysLength));

  0005a	48 8d 44 24 60	 lea	 rax, QWORD PTR sysLength$[rsp]
  0005f	45 33 c9	 xor	 r9d, r9d
  00062	45 33 c0	 xor	 r8d, r8d
  00065	ba 5c 40 07 00	 mov	 edx, 475228		; 0007405cH
  0006a	48 8b cd	 mov	 rcx, rbp
  0006d	c7 44 24 28 08
	00 00 00	 mov	 DWORD PTR [rsp+40], 8
  00075	48 89 44 24 20	 mov	 QWORD PTR [rsp+32], rax
  0007a	e8 00 00 00 00	 call	 SendDeviceIoControlRequest
  0007f	8b d8		 mov	 ebx, eax

; 2284 : 
; 2285 : 	if (!NT_SUCCESS (status))

  00081	85 c0		 test	 eax, eax
  00083	78 76		 js	 SHORT $LN20@ProbeRealD

; 2286 : 	{
; 2287 : 		Dump ("Failed to get drive size - error %x\n", status);
; 2288 : 		TCfree (sectorBuffer);
; 2289 : 		return status;
; 2290 : 	}
; 2291 : 
; 2292 : 	startTime = KeQueryInterruptTime ();

  00085	49 bc 08 00 00
	00 80 f7 ff ff	 mov	 r12, -9345848836088	; fffff78000000008H
  0008f	4d 8b 24 24	 mov	 r12, QWORD PTR [r12]

; 2293 : 	for (offset.QuadPart = sysLength.QuadPart; ; offset.QuadPart += TC_SECTOR_SIZE_BIOS)

  00093	48 8b 5c 24 60	 mov	 rbx, QWORD PTR sysLength$[rsp]
$LL6@ProbeRealD:

; 2294 : 	{
; 2295 : 		status = TCReadDevice (driveDeviceObject, sectorBuffer, offset, TC_SECTOR_SIZE_BIOS);

  00098	4c 8b cb	 mov	 r9, rbx
  0009b	4c 8b c6	 mov	 r8, rsi
  0009e	48 8b d5	 mov	 rdx, rbp
  000a1	33 c9		 xor	 ecx, ecx
  000a3	44 89 6c 24 20	 mov	 DWORD PTR [rsp+32], r13d
  000a8	e8 00 00 00 00	 call	 TCReadWriteDevice

; 2296 : 		
; 2297 : 		if (NT_SUCCESS (status))

  000ad	85 c0		 test	 eax, eax
  000af	78 45		 js	 SHORT $LN18@ProbeRealD

; 2298 : 			status = TCWriteDevice (driveDeviceObject, sectorBuffer, offset, TC_SECTOR_SIZE_BIOS);

  000b1	4c 8b cb	 mov	 r9, rbx
  000b4	4c 8b c6	 mov	 r8, rsi
  000b7	48 8b d5	 mov	 rdx, rbp
  000ba	b9 01 00 00 00	 mov	 ecx, 1
  000bf	44 89 6c 24 20	 mov	 DWORD PTR [rsp+32], r13d
  000c4	e8 00 00 00 00	 call	 TCReadWriteDevice

; 2299 : 
; 2300 : 		if (!NT_SUCCESS (status))

  000c9	85 c0		 test	 eax, eax
  000cb	78 29		 js	 SHORT $LN18@ProbeRealD

; 2303 : 			Dump ("Real drive size = %I64d bytes (%I64d hidden)\n", driveSize->QuadPart, driveSize->QuadPart - sysLength.QuadPart);
; 2304 : 			TCfree (sectorBuffer);
; 2305 : 			return STATUS_SUCCESS;
; 2306 : 		}
; 2307 : 
; 2308 : 		if (KeQueryInterruptTime() - startTime > 3ULL * 60 * 1000 * 1000 * 10)

  000cd	48 a1 08 00 00
	00 80 f7 ff ff	 mov	 rax, QWORD PTR ds:-9345848836088
  000d7	49 2b c4	 sub	 rax, r12
  000da	48 3d 00 d2 49
	6b		 cmp	 rax, 1800000000		; 6b49d200H
  000e0	77 05		 ja	 SHORT $LN19@ProbeRealD

; 2293 : 	for (offset.QuadPart = sysLength.QuadPart; ; offset.QuadPart += TC_SECTOR_SIZE_BIOS)

  000e2	49 03 dd	 add	 rbx, r13
  000e5	eb b1		 jmp	 SHORT $LL6@ProbeRealD
$LN19@ProbeRealD:

; 2309 : 		{
; 2310 : 			// Abort if probing for more than 3 minutes
; 2311 : 			driveSize->QuadPart = sysLength.QuadPart;

  000e7	48 8b 44 24 60	 mov	 rax, QWORD PTR sysLength$[rsp]
  000ec	bb 02 01 00 00	 mov	 ebx, 258		; 00000102H
  000f1	48 89 07	 mov	 QWORD PTR [rdi], rax
  000f4	eb 05		 jmp	 SHORT $LN20@ProbeRealD
$LN18@ProbeRealD:

; 2301 : 		{
; 2302 : 			driveSize->QuadPart = offset.QuadPart;

  000f6	48 89 1f	 mov	 QWORD PTR [rdi], rbx
  000f9	33 db		 xor	 ebx, ebx
$LN20@ProbeRealD:
  000fb	ba 54 43 4d 4d	 mov	 edx, 1296909140		; 4d4d4354H
  00100	48 8b ce	 mov	 rcx, rsi
  00103	ff 15 00 00 00
	00		 call	 QWORD PTR __imp_ExFreePoolWithTag
  00109	8b c3		 mov	 eax, ebx
$LN4@ProbeRealD:

; 2312 : 			TCfree (sectorBuffer);
; 2313 : 			return STATUS_TIMEOUT;
; 2314 : 		}
; 2315 : 	}
; 2316 : }

  0010b	48 8b 5c 24 50	 mov	 rbx, QWORD PTR [rsp+80]
  00110	48 8b 6c 24 58	 mov	 rbp, QWORD PTR [rsp+88]
  00115	48 8b 74 24 68	 mov	 rsi, QWORD PTR [rsp+104]
  0011a	48 83 c4 30	 add	 rsp, 48			; 00000030H
  0011e	41 5d		 pop	 r13
  00120	41 5c		 pop	 r12
  00122	5f		 pop	 rdi
  00123	c3		 ret	 0
ProbeRealDriveSize ENDP
_TEXT	ENDS
PUBLIC	TCUnloadDriver
;	COMDAT pdata
; File c:\users\public\desktop\projects\ciphershed\src\driver\drivefilter.c
pdata	SEGMENT
$pdata$TCUnloadDriver DD imagerel $LN10
	DD	imagerel $LN10+91
	DD	imagerel $unwind$TCUnloadDriver
pdata	ENDS
;	COMDAT xdata
xdata	SEGMENT
$unwind$TCUnloadDriver DD 010401H
	DD	06204H
; Function compile flags: /Ogspy
; File c:\users\public\desktop\projects\ciphershed\src\driver\ntdriver.c
xdata	ENDS
;	COMDAT TCUnloadDriver
_TEXT	SEGMENT
DriverObject$ = 64
TCUnloadDriver PROC					; COMDAT

; 2123 : {

$LN10:
  00000	48 83 ec 38	 sub	 rsp, 56			; 00000038H

; 2124 : 	Dump ("TCUnloadDriver BEGIN\n");
; 2125 : 
; 2126 : 	OnShutdownPending();

  00004	e8 00 00 00 00	 call	 OnShutdownPending

; 2127 : 
; 2128 : 	if (IsBootDriveMounted())

  00009	4c 8b 1d 00 00
	00 00		 mov	 r11, QWORD PTR BootDriveFilterExtension
  00010	4d 85 db	 test	 r11, r11
  00013	74 2d		 je	 SHORT $LN1@TCUnloadDr
  00015	41 83 bb b8 02
	00 00 00	 cmp	 DWORD PTR [r11+696], 0
  0001d	74 23		 je	 SHORT $LN1@TCUnloadDr

; 2129 : 		TC_BUG_CHECK (STATUS_INVALID_DEVICE_STATE);

  0001f	45 33 c9	 xor	 r9d, r9d
  00022	ba 51 08 00 00	 mov	 edx, 2129		; 00000851H
  00027	49 c7 c0 84 01
	00 c0		 mov	 r8, -1073741436		; ffffffffc0000184H
  0002e	41 8d 49 29	 lea	 ecx, QWORD PTR [r9+41]
  00032	48 c7 44 24 20
	43 54 00 00	 mov	 QWORD PTR [rsp+32], 21571 ; 00005443H
  0003b	ff 15 00 00 00
	00		 call	 QWORD PTR __imp_KeBugCheckEx
  00041	cc		 int	 3
$LN1@TCUnloadDr:

; 2130 : 
; 2131 : 	EncryptionThreadPoolStop();

  00042	e8 00 00 00 00	 call	 EncryptionThreadPoolStop

; 2132 : 	TCDeleteDeviceObject (RootDeviceObject, (PEXTENSION) RootDeviceObject->DeviceExtension);

  00047	48 8b 0d 00 00
	00 00		 mov	 rcx, QWORD PTR RootDeviceObject
  0004e	48 8b 51 40	 mov	 rdx, QWORD PTR [rcx+64]

; 2133 : 
; 2134 : 	Dump ("TCUnloadDriver END\n");
; 2135 : }

  00052	48 83 c4 38	 add	 rsp, 56			; 00000038H
  00056	e9 00 00 00 00	 jmp	 TCDeleteDeviceObject
$LN9@TCUnloadDr:
TCUnloadDriver ENDP
_TEXT	ENDS
PUBLIC	__$ArrayPad$
PUBLIC	ProcessVolumeDeviceControlIrp
;	COMDAT pdata
pdata	SEGMENT
$pdata$ProcessVolumeDeviceControlIrp DD imagerel $LN68
	DD	imagerel $LN68+1545
	DD	imagerel $unwind$ProcessVolumeDeviceControlIrp
pdata	ENDS
;	COMDAT xdata
xdata	SEGMENT
$unwind$ProcessVolumeDeviceControlIrp DD 092819H
	DD	0695416H
	DD	0663416H
	DD	0620116H
	DD	0c00dd00fH
	DD	0700bH
	DD	imagerel __GSHandlerCheck
	DD	0300H
; Function compile flags: /Ogspy
xdata	ENDS
;	COMDAT ProcessVolumeDeviceControlIrp
_TEXT	SEGMENT
tmp$31594 = 80
offset$31676 = 88
ntUnicodeString$31609 = 88
ntUnicodeString$31576 = 88
ioStatus$31670 = 104
volId$31593 = 128
ntName$31610 = 256
ntName$31577 = 256
__$ArrayPad$ = 768
DeviceObject$ = 816
Extension$ = 824
Irp$ = 832
ProcessVolumeDeviceControlIrp PROC			; COMDAT

; 496  : {

$LN68:
  00000	48 89 5c 24 08	 mov	 QWORD PTR [rsp+8], rbx
  00005	48 89 6c 24 20	 mov	 QWORD PTR [rsp+32], rbp
  0000a	57		 push	 rdi
  0000b	41 54		 push	 r12
  0000d	41 55		 push	 r13
  0000f	48 81 ec 10 03
	00 00		 sub	 rsp, 784		; 00000310H
  00016	48 8b 05 00 00
	00 00		 mov	 rax, QWORD PTR __security_cookie
  0001d	48 33 c4	 xor	 rax, rsp
  00020	48 89 84 24 00
	03 00 00	 mov	 QWORD PTR __$ArrayPad$[rsp], rax

; 497  : 	PIO_STACK_LOCATION irpSp = IoGetCurrentIrpStackLocation (Irp);

  00028	4d 8b a0 b8 00
	00 00		 mov	 r12, QWORD PTR [r8+184]

; 498  : 
; 499  : 	switch (irpSp->Parameters.DeviceIoControl.IoControlCode)

  0002f	b9 5c 40 07 00	 mov	 ecx, 475228		; 0007405cH
  00034	49 8b d8	 mov	 rbx, r8
  00037	41 8b 44 24 18	 mov	 eax, DWORD PTR [r12+24]
  0003c	48 8b fa	 mov	 rdi, rdx
  0003f	3b c1		 cmp	 eax, ecx
  00041	0f 87 03 03 00
	00		 ja	 $LN50@ProcessVol
  00047	0f 84 c0 02 00
	00		 je	 $LN22@ProcessVol
  0004d	2d 00 00 07 00	 sub	 eax, 458752		; 00070000H
  00052	0f 84 53 02 00
	00		 je	 $LN30@ProcessVol
  00058	83 e8 14	 sub	 eax, 20
  0005b	0f 84 52 01 00
	00		 je	 $LN19@ProcessVol
  00061	83 e8 10	 sub	 eax, 16
  00064	0f 84 2b 01 00
	00		 je	 $LN10@ProcessVol
  0006a	83 e8 24	 sub	 eax, 36			; 00000024H
  0006d	0f 84 ca 00 00
	00		 je	 $LN26@ProcessVol
  00073	2d b8 0b 00 00	 sub	 eax, 3000		; 00000bb8H
  00078	0f 84 2d 02 00
	00		 je	 $LN30@ProcessVol
  0007e	2d 04 34 00 00	 sub	 eax, 13316		; 00003404H
  00083	74 66		 je	 SHORT $LN28@ProcessVol
  00085	83 f8 08	 cmp	 eax, 8
  00088	0f 85 01 03 00
	00		 jne	 $LN1@ProcessVol

; 665  : 
; 666  : 	case IOCTL_DISK_GET_DRIVE_LAYOUT:
; 667  : 		if (ValidateIOBufferSize (Irp, sizeof (DRIVE_LAYOUT_INFORMATION), ValidateOutput))

  0008e	8d 50 20	 lea	 edx, QWORD PTR [rax+32]
  00091	44 8d 40 f9	 lea	 r8d, QWORD PTR [rax-7]
  00095	48 8b cb	 mov	 rcx, rbx
  00098	e8 00 00 00 00	 call	 ValidateIOBufferSize
  0009d	85 c0		 test	 eax, eax
  0009f	0f 84 28 05 00
	00		 je	 $LN11@ProcessVol

; 668  : 		{
; 669  : 			PDRIVE_LAYOUT_INFORMATION outputBuffer = (PDRIVE_LAYOUT_INFORMATION)
; 670  : 			Irp->AssociatedIrp.SystemBuffer;

  000a5	48 8b 4b 18	 mov	 rcx, QWORD PTR [rbx+24]

; 671  : 
; 672  : 			outputBuffer->PartitionCount = 1;
; 673  : 			outputBuffer->Signature = 0;
; 674  : 
; 675  : 			outputBuffer->PartitionEntry->PartitionType = Extension->PartitionType;
; 676  : 			outputBuffer->PartitionEntry->BootIndicator = FALSE;
; 677  : 			outputBuffer->PartitionEntry->RecognizedPartition = TRUE;
; 678  : 			outputBuffer->PartitionEntry->RewritePartition = FALSE;
; 679  : 			outputBuffer->PartitionEntry->StartingOffset.QuadPart = Extension->BytesPerSector;
; 680  : 			outputBuffer->PartitionEntry->PartitionLength.QuadPart = Extension->DiskLength;
; 681  : 			outputBuffer->PartitionEntry->HiddenSectors = 0;
; 682  : 
; 683  : 			Irp->IoStatus.Status = STATUS_SUCCESS;
; 684  : 			Irp->IoStatus.Information = sizeof (PARTITION_INFORMATION);

  000a9	bd 20 00 00 00	 mov	 ebp, 32			; 00000020H
  000ae	83 61 04 00	 and	 DWORD PTR [rcx+4], 0
  000b2	c7 01 01 00 00
	00		 mov	 DWORD PTR [rcx], 1
  000b8	8a 87 bc 00 00
	00		 mov	 al, BYTE PTR [rdi+188]
  000be	88 41 20	 mov	 BYTE PTR [rcx+32], al
  000c1	c6 41 21 00	 mov	 BYTE PTR [rcx+33], 0
  000c5	c6 41 22 01	 mov	 BYTE PTR [rcx+34], 1
  000c9	c6 41 23 00	 mov	 BYTE PTR [rcx+35], 0
  000cd	8b 87 b8 00 00
	00		 mov	 eax, DWORD PTR [rdi+184]
  000d3	48 89 41 08	 mov	 QWORD PTR [rcx+8], rax
  000d7	48 8b 87 a0 00
	00 00		 mov	 rax, QWORD PTR [rdi+160]
  000de	83 61 18 00	 and	 DWORD PTR [rcx+24], 0
  000e2	48 89 41 10	 mov	 QWORD PTR [rcx+16], rax

; 685  : 		}
; 686  : 		break;

  000e6	e9 15 02 00 00	 jmp	 $LN63@ProcessVol
$LN28@ProcessVol:

; 629  : 
; 630  : 	case IOCTL_DISK_GET_PARTITION_INFO:
; 631  : 		if (ValidateIOBufferSize (Irp, sizeof (PARTITION_INFORMATION), ValidateOutput))

  000eb	bd 20 00 00 00	 mov	 ebp, 32			; 00000020H
  000f0	48 8b cb	 mov	 rcx, rbx
  000f3	44 8d 45 e1	 lea	 r8d, QWORD PTR [rbp-31]
  000f7	48 8b d5	 mov	 rdx, rbp
  000fa	e8 00 00 00 00	 call	 ValidateIOBufferSize
  000ff	85 c0		 test	 eax, eax
  00101	0f 84 c6 04 00
	00		 je	 $LN11@ProcessVol

; 632  : 		{
; 633  : 			PPARTITION_INFORMATION outputBuffer = (PPARTITION_INFORMATION)
; 634  : 			Irp->AssociatedIrp.SystemBuffer;
; 635  : 
; 636  : 			outputBuffer->PartitionType = Extension->PartitionType;

  00107	8a 87 bc 00 00
	00		 mov	 al, BYTE PTR [rdi+188]
  0010d	48 8b 4b 18	 mov	 rcx, QWORD PTR [rbx+24]
  00111	88 41 18	 mov	 BYTE PTR [rcx+24], al

; 637  : 			outputBuffer->BootIndicator = FALSE;

  00114	c6 41 19 00	 mov	 BYTE PTR [rcx+25], 0

; 638  : 			outputBuffer->RecognizedPartition = TRUE;

  00118	c6 41 1a 01	 mov	 BYTE PTR [rcx+26], 1

; 639  : 			outputBuffer->RewritePartition = FALSE;

  0011c	c6 41 1b 00	 mov	 BYTE PTR [rcx+27], 0

; 640  : 			outputBuffer->StartingOffset.QuadPart = Extension->BytesPerSector;

  00120	8b 87 b8 00 00
	00		 mov	 eax, DWORD PTR [rdi+184]
  00126	48 89 01	 mov	 QWORD PTR [rcx], rax

; 641  : 			outputBuffer->PartitionLength.QuadPart= Extension->DiskLength;

  00129	48 8b 87 a0 00
	00 00		 mov	 rax, QWORD PTR [rdi+160]

; 642  : 			outputBuffer->HiddenSectors = 0;

  00130	83 61 10 00	 and	 DWORD PTR [rcx+16], 0
  00134	48 89 41 08	 mov	 QWORD PTR [rcx+8], rax

; 643  : 			Irp->IoStatus.Status = STATUS_SUCCESS;
; 644  : 			Irp->IoStatus.Information = sizeof (PARTITION_INFORMATION);
; 645  : 		}
; 646  : 		break;

  00138	e9 c3 01 00 00	 jmp	 $LN63@ProcessVol
$LN26@ProcessVol:

; 647  : 
; 648  : 	case IOCTL_DISK_GET_PARTITION_INFO_EX:
; 649  : 		if (ValidateIOBufferSize (Irp, sizeof (PARTITION_INFORMATION_EX), ValidateOutput))

  0013d	bd 90 00 00 00	 mov	 ebp, 144		; 00000090H
  00142	41 b8 01 00 00
	00		 mov	 r8d, 1
  00148	48 8b cb	 mov	 rcx, rbx
  0014b	48 8b d5	 mov	 rdx, rbp
  0014e	e8 00 00 00 00	 call	 ValidateIOBufferSize
  00153	85 c0		 test	 eax, eax
  00155	0f 84 72 04 00
	00		 je	 $LN11@ProcessVol

; 650  : 		{
; 651  : 			PPARTITION_INFORMATION_EX outputBuffer = (PPARTITION_INFORMATION_EX) Irp->AssociatedIrp.SystemBuffer;

  0015b	48 8b 4b 18	 mov	 rcx, QWORD PTR [rbx+24]

; 652  : 
; 653  : 			outputBuffer->PartitionStyle = PARTITION_STYLE_MBR;

  0015f	83 21 00	 and	 DWORD PTR [rcx], 0

; 654  : 			outputBuffer->RewritePartition = FALSE;

  00162	c6 41 1c 00	 mov	 BYTE PTR [rcx+28], 0

; 655  : 			outputBuffer->StartingOffset.QuadPart = Extension->BytesPerSector;

  00166	8b 87 b8 00 00
	00		 mov	 eax, DWORD PTR [rdi+184]
  0016c	48 89 41 08	 mov	 QWORD PTR [rcx+8], rax

; 656  : 			outputBuffer->PartitionLength.QuadPart= Extension->DiskLength;

  00170	48 8b 87 a0 00
	00 00		 mov	 rax, QWORD PTR [rdi+160]
  00177	48 89 41 10	 mov	 QWORD PTR [rcx+16], rax

; 657  : 			outputBuffer->Mbr.PartitionType = Extension->PartitionType;

  0017b	8a 87 bc 00 00
	00		 mov	 al, BYTE PTR [rdi+188]

; 658  : 			outputBuffer->Mbr.BootIndicator = FALSE;
; 659  : 			outputBuffer->Mbr.RecognizedPartition = TRUE;
; 660  : 			outputBuffer->Mbr.HiddenSectors = 0;

  00181	83 61 24 00	 and	 DWORD PTR [rcx+36], 0
  00185	88 41 20	 mov	 BYTE PTR [rcx+32], al
  00188	c6 41 21 00	 mov	 BYTE PTR [rcx+33], 0
  0018c	c6 41 22 01	 mov	 BYTE PTR [rcx+34], 1

; 661  : 			Irp->IoStatus.Status = STATUS_SUCCESS;
; 662  : 			Irp->IoStatus.Information = sizeof (PARTITION_INFORMATION_EX);
; 663  : 		}
; 664  : 		break;

  00190	e9 6b 01 00 00	 jmp	 $LN63@ProcessVol
$LN10@ProcessVol:

; 748  : 			}
; 749  : 		}
; 750  : 		break;
; 751  : 
; 752  : 	case IOCTL_DISK_IS_WRITABLE:
; 753  : 		{
; 754  : 			if (Extension->bReadOnly)

  00195	8b 82 40 03 00
	00		 mov	 eax, DWORD PTR [rdx+832]
  0019b	f7 d8		 neg	 eax
  0019d	1b c9		 sbb	 ecx, ecx
  0019f	81 e1 a2 00 00
	c0		 and	 ecx, -1073741662	; ffffffffc00000a2H
  001a5	41 89 48 30	 mov	 DWORD PTR [r8+48], ecx
$LN66@ProcessVol:

; 755  : 				Irp->IoStatus.Status = STATUS_MEDIA_WRITE_PROTECTED;
; 756  : 			else
; 757  : 				Irp->IoStatus.Status = STATUS_SUCCESS;
; 758  : 			Irp->IoStatus.Information = 0;

  001a9	49 83 60 38 00	 and	 QWORD PTR [r8+56], 0

; 759  : 
; 760  : 		}
; 761  : 		break;

  001ae	e9 1a 04 00 00	 jmp	 $LN11@ProcessVol
$LN19@ProcessVol:

; 703  : 
; 704  : 	case IOCTL_DISK_VERIFY:
; 705  : 		if (ValidateIOBufferSize (Irp, sizeof (VERIFY_INFORMATION), ValidateInput))

  001b3	45 33 c0	 xor	 r8d, r8d
  001b6	48 8b cb	 mov	 rcx, rbx
  001b9	41 8d 50 10	 lea	 edx, QWORD PTR [r8+16]
  001bd	e8 00 00 00 00	 call	 ValidateIOBufferSize
  001c2	85 c0		 test	 eax, eax
  001c4	0f 84 03 04 00
	00		 je	 $LN11@ProcessVol

; 706  : 		{
; 707  : 			PVERIFY_INFORMATION pVerifyInformation;
; 708  : 			pVerifyInformation = (PVERIFY_INFORMATION) Irp->AssociatedIrp.SystemBuffer;

  001ca	48 8b 6b 18	 mov	 rbp, QWORD PTR [rbx+24]

; 709  : 
; 710  : 			if (pVerifyInformation->StartingOffset.QuadPart + pVerifyInformation->Length > Extension->DiskLength)

  001ce	8b 4d 08	 mov	 ecx, DWORD PTR [rbp+8]
  001d1	48 8b c1	 mov	 rax, rcx
  001d4	48 03 45 00	 add	 rax, QWORD PTR [rbp]
  001d8	48 3b 87 a0 00
	00 00		 cmp	 rax, QWORD PTR [rdi+160]

; 711  : 				Irp->IoStatus.Status = STATUS_INVALID_PARAMETER;
; 712  : 			else

  001df	0f 8f 43 02 00
	00		 jg	 $LN58@ProcessVol

; 713  : 			{
; 714  : 				IO_STATUS_BLOCK ioStatus;
; 715  : 				PVOID buffer = TCalloc (max (pVerifyInformation->Length, PAGE_SIZE));

  001e5	b8 00 10 00 00	 mov	 eax, 4096		; 00001000H
  001ea	41 bd 54 43 4d
	4d		 mov	 r13d, 1296909140	; 4d4d4354H
  001f0	3b c8		 cmp	 ecx, eax
  001f2	45 8b c5	 mov	 r8d, r13d
  001f5	0f 47 c1	 cmova	 eax, ecx
  001f8	33 c9		 xor	 ecx, ecx
  001fa	8b d0		 mov	 edx, eax
  001fc	ff 15 00 00 00
	00		 call	 QWORD PTR __imp_ExAllocatePoolWithTag
  00202	4c 8b e0	 mov	 r12, rax

; 716  : 				
; 717  : 				if (!buffer)

  00205	48 85 c0	 test	 rax, rax
  00208	75 0c		 jne	 SHORT $LN15@ProcessVol

; 718  : 				{
; 719  : 					Irp->IoStatus.Status = STATUS_INSUFFICIENT_RESOURCES;

  0020a	c7 43 30 9a 00
	00 c0		 mov	 DWORD PTR [rbx+48], -1073741670 ; ffffffffc000009aH

; 720  : 				}
; 721  : 				else

  00211	e9 19 02 00 00	 jmp	 $LN13@ProcessVol
$LN15@ProcessVol:

; 722  : 				{
; 723  : 					LARGE_INTEGER offset = pVerifyInformation->StartingOffset;

  00216	48 8b 45 00	 mov	 rax, QWORD PTR [rbp]

; 724  : 					offset.QuadPart += Extension->cryptoInfo->hiddenVolume ? Extension->cryptoInfo->hiddenVolumeOffset : Extension->cryptoInfo->volDataAreaOffset;

  0021a	48 8b 8f 90 00
	00 00		 mov	 rcx, QWORD PTR [rdi+144]
  00221	48 89 44 24 58	 mov	 QWORD PTR offset$31676[rsp], rax
  00226	83 b9 a0 29 00
	00 00		 cmp	 DWORD PTR [rcx+10656], 0
  0022d	74 09		 je	 SHORT $LN48@ProcessVol
  0022f	48 8b 91 18 44
	00 00		 mov	 rdx, QWORD PTR [rcx+17432]
  00236	eb 07		 jmp	 SHORT $LN49@ProcessVol
$LN48@ProcessVol:
  00238	48 8b 91 08 44
	00 00		 mov	 rdx, QWORD PTR [rcx+17416]
$LN49@ProcessVol:

; 725  : 
; 726  : 					Irp->IoStatus.Status = ZwReadFile (Extension->hDeviceFile, NULL, NULL, NULL, &ioStatus, buffer, pVerifyInformation->Length, &offset, NULL);

  0023f	48 83 64 24 40
	00		 and	 QWORD PTR [rsp+64], 0
  00245	48 8b 4f 78	 mov	 rcx, QWORD PTR [rdi+120]
  00249	48 03 c2	 add	 rax, rdx
  0024c	48 89 44 24 58	 mov	 QWORD PTR offset$31676[rsp], rax
  00251	48 8d 44 24 58	 lea	 rax, QWORD PTR offset$31676[rsp]
  00256	45 33 c9	 xor	 r9d, r9d
  00259	48 89 44 24 38	 mov	 QWORD PTR [rsp+56], rax
  0025e	8b 45 08	 mov	 eax, DWORD PTR [rbp+8]
  00261	45 33 c0	 xor	 r8d, r8d
  00264	89 44 24 30	 mov	 DWORD PTR [rsp+48], eax
  00268	48 8d 44 24 68	 lea	 rax, QWORD PTR ioStatus$31670[rsp]
  0026d	33 d2		 xor	 edx, edx
  0026f	4c 89 64 24 28	 mov	 QWORD PTR [rsp+40], r12
  00274	48 89 44 24 20	 mov	 QWORD PTR [rsp+32], rax
  00279	ff 15 00 00 00
	00		 call	 QWORD PTR __imp_ZwReadFile

; 727  : 					TCfree (buffer);

  0027f	41 8b d5	 mov	 edx, r13d
  00282	49 8b cc	 mov	 rcx, r12
  00285	89 43 30	 mov	 DWORD PTR [rbx+48], eax
  00288	ff 15 00 00 00
	00		 call	 QWORD PTR __imp_ExFreePoolWithTag

; 728  : 
; 729  : 					if (NT_SUCCESS (Irp->IoStatus.Status) && ioStatus.Information != pVerifyInformation->Length)

  0028e	83 7b 30 00	 cmp	 DWORD PTR [rbx+48], 0
  00292	0f 8c 97 01 00
	00		 jl	 $LN13@ProcessVol
  00298	8b 45 08	 mov	 eax, DWORD PTR [rbp+8]
  0029b	48 39 44 24 70	 cmp	 QWORD PTR ioStatus$31670[rsp+8], rax
  002a0	0f 84 89 01 00
	00		 je	 $LN13@ProcessVol

; 730  : 						Irp->IoStatus.Status = STATUS_INVALID_PARAMETER;
; 731  : 				}
; 732  : 			}
; 733  : 
; 734  : 			Irp->IoStatus.Information = 0;
; 735  : 		}
; 736  : 		break;

  002a6	e9 7d 01 00 00	 jmp	 $LN58@ProcessVol
$LN30@ProcessVol:

; 610  : 
; 611  : 	case IOCTL_DISK_GET_MEDIA_TYPES:
; 612  : 	case IOCTL_DISK_GET_DRIVE_GEOMETRY:
; 613  : 		/* Return the drive geometry for the disk.  Note that we
; 614  : 		   return values which were made up to suit the disk size.  */
; 615  : 		if (ValidateIOBufferSize (Irp, sizeof (DISK_GEOMETRY), ValidateOutput))

  002ab	bd 18 00 00 00	 mov	 ebp, 24
  002b0	48 8b cb	 mov	 rcx, rbx
  002b3	44 8d 45 e9	 lea	 r8d, QWORD PTR [rbp-23]
  002b7	48 8b d5	 mov	 rdx, rbp
  002ba	e8 00 00 00 00	 call	 ValidateIOBufferSize
  002bf	85 c0		 test	 eax, eax
  002c1	0f 84 06 03 00
	00		 je	 $LN11@ProcessVol

; 616  : 		{
; 617  : 			PDISK_GEOMETRY outputBuffer = (PDISK_GEOMETRY)
; 618  : 			Irp->AssociatedIrp.SystemBuffer;
; 619  : 
; 620  : 			outputBuffer->MediaType = Extension->bRemovable ? RemovableMedia : FixedMedia;

  002c7	8b 87 44 03 00
	00		 mov	 eax, DWORD PTR [rdi+836]
  002cd	48 8b 53 18	 mov	 rdx, QWORD PTR [rbx+24]
  002d1	f7 d8		 neg	 eax
  002d3	1b c9		 sbb	 ecx, ecx
  002d5	83 c1 0c	 add	 ecx, 12
  002d8	89 4a 08	 mov	 DWORD PTR [rdx+8], ecx

; 621  : 			outputBuffer->Cylinders.QuadPart = Extension->NumberOfCylinders;

  002db	48 8b 87 a8 00
	00 00		 mov	 rax, QWORD PTR [rdi+168]
  002e2	48 89 02	 mov	 QWORD PTR [rdx], rax

; 622  : 			outputBuffer->TracksPerCylinder = Extension->TracksPerCylinder;

  002e5	8b 87 b0 00 00
	00		 mov	 eax, DWORD PTR [rdi+176]
  002eb	89 42 0c	 mov	 DWORD PTR [rdx+12], eax

; 623  : 			outputBuffer->SectorsPerTrack = Extension->SectorsPerTrack;

  002ee	8b 87 b4 00 00
	00		 mov	 eax, DWORD PTR [rdi+180]
  002f4	89 42 10	 mov	 DWORD PTR [rdx+16], eax

; 624  : 			outputBuffer->BytesPerSector = Extension->BytesPerSector;

  002f7	8b 87 b8 00 00
	00		 mov	 eax, DWORD PTR [rdi+184]
  002fd	89 42 14	 mov	 DWORD PTR [rdx+20], eax
$LN63@ProcessVol:

; 625  : 			Irp->IoStatus.Status = STATUS_SUCCESS;

  00300	83 63 30 00	 and	 DWORD PTR [rbx+48], 0

; 626  : 			Irp->IoStatus.Information = sizeof (DISK_GEOMETRY);

  00304	48 89 6b 38	 mov	 QWORD PTR [rbx+56], rbp

; 627  : 		}
; 628  : 		break;

  00308	e9 c0 02 00 00	 jmp	 $LN11@ProcessVol
$LN22@ProcessVol:

; 687  : 
; 688  : 	case IOCTL_DISK_GET_LENGTH_INFO:
; 689  : 		if (!ValidateIOBufferSize (Irp, sizeof (GET_LENGTH_INFORMATION), ValidateOutput))

  0030d	ba 08 00 00 00	 mov	 edx, 8
  00312	48 8b cb	 mov	 rcx, rbx
  00315	44 8d 42 f9	 lea	 r8d, QWORD PTR [rdx-7]
  00319	e8 00 00 00 00	 call	 ValidateIOBufferSize
  0031e	85 c0		 test	 eax, eax
  00320	75 09		 jne	 SHORT $LN21@ProcessVol

; 690  : 		{
; 691  : 			Irp->IoStatus.Status = STATUS_BUFFER_OVERFLOW;

  00322	c7 43 30 05 00
	00 80		 mov	 DWORD PTR [rbx+48], -2147483643 ; ffffffff80000005H

; 692  : 			Irp->IoStatus.Information = sizeof (GET_LENGTH_INFORMATION);
; 693  : 		}
; 694  : 		else

  00329	eb 12		 jmp	 SHORT $LN65@ProcessVol
$LN21@ProcessVol:

; 695  : 		{
; 696  : 			PGET_LENGTH_INFORMATION outputBuffer = (PGET_LENGTH_INFORMATION) Irp->AssociatedIrp.SystemBuffer;
; 697  : 
; 698  : 			outputBuffer->Length.QuadPart = Extension->DiskLength;

  0032b	48 8b 87 a0 00
	00 00		 mov	 rax, QWORD PTR [rdi+160]
  00332	48 8b 4b 18	 mov	 rcx, QWORD PTR [rbx+24]
  00336	48 89 01	 mov	 QWORD PTR [rcx], rax

; 699  : 			Irp->IoStatus.Status = STATUS_SUCCESS;

  00339	83 63 30 00	 and	 DWORD PTR [rbx+48], 0
$LN65@ProcessVol:

; 700  : 			Irp->IoStatus.Information = sizeof (GET_LENGTH_INFORMATION);

  0033d	48 c7 43 38 08
	00 00 00	 mov	 QWORD PTR [rbx+56], 8

; 701  : 		}
; 702  : 		break;

  00345	e9 83 02 00 00	 jmp	 $LN11@ProcessVol
$LN50@ProcessVol:

; 498  : 
; 499  : 	switch (irpSp->Parameters.DeviceIoControl.IoControlCode)

  0034a	2d 00 48 07 00	 sub	 eax, 477184		; 00074800H
  0034f	0f 84 57 02 00
	00		 je	 $LN12@ProcessVol
  00355	2d 00 00 26 00	 sub	 eax, 2490368		; 00260000H
  0035a	0f 84 4c 02 00
	00		 je	 $LN12@ProcessVol
  00360	2d 00 b8 1f 00	 sub	 eax, 2078720		; 001fb800H
  00365	bd 04 00 00 00	 mov	 ebp, 4
  0036a	0f 84 a1 01 00
	00		 je	 $LN37@ProcessVol
  00370	83 e8 08	 sub	 eax, 8
  00373	0f 84 10 01 00
	00		 je	 $LN41@ProcessVol
  00379	2b c5		 sub	 eax, ebp
  0037b	0f 84 8e 00 00
	00		 je	 $LN33@ProcessVol
  00381	2d f4 ff 08 00	 sub	 eax, 589812		; 0008fff4H
  00386	74 33		 je	 SHORT $LN6@ProcessVol
  00388	3d 08 c0 00 00	 cmp	 eax, 49160		; 0000c008H
  0038d	74 22		 je	 SHORT $LN7@ProcessVol
$LN1@ProcessVol:

; 788  : 
; 789  : 	default:
; 790  : 		return TCCompleteIrp (Irp, STATUS_INVALID_DEVICE_REQUEST, 0);

  0038f	49 83 60 38 00	 and	 QWORD PTR [r8+56], 0
  00394	33 d2		 xor	 edx, edx
  00396	48 8b cb	 mov	 rcx, rbx
  00399	41 c7 40 30 10
	00 00 c0	 mov	 DWORD PTR [r8+48], -1073741808 ; ffffffffc0000010H
  003a1	ff 15 00 00 00
	00		 call	 QWORD PTR __imp_IofCompleteRequest
  003a7	b8 10 00 00 c0	 mov	 eax, -1073741808	; ffffffffc0000010H
  003ac	e9 2f 02 00 00	 jmp	 $LN44@ProcessVol
$LN7@ProcessVol:

; 762  : 		
; 763  : 	case IOCTL_VOLUME_ONLINE:
; 764  : 		Irp->IoStatus.Status = STATUS_SUCCESS;

  003b1	41 83 60 30 00	 and	 DWORD PTR [r8+48], 0

; 765  : 		Irp->IoStatus.Information = 0;
; 766  : 		break;

  003b6	e9 ee fd ff ff	 jmp	 $LN66@ProcessVol
$LN6@ProcessVol:

; 767  : 
; 768  : 	case IOCTL_VOLUME_GET_VOLUME_DISK_EXTENTS:
; 769  : 
; 770  : 		// Vista's filesystem defragmenter fails if IOCTL_VOLUME_GET_VOLUME_DISK_EXTENTS does not succeed.
; 771  : 		if (!(OsMajorVersion == 6 && OsMinorVersion == 0))

  003bb	83 3d 00 00 00
	00 06		 cmp	 DWORD PTR OsMajorVersion, 6
  003c2	75 3e		 jne	 SHORT $LN4@ProcessVol
  003c4	83 3d 00 00 00
	00 00		 cmp	 DWORD PTR OsMinorVersion, 0
  003cb	75 35		 jne	 SHORT $LN4@ProcessVol

; 774  : 			Irp->IoStatus.Information = 0;
; 775  : 		}
; 776  : 		else if (ValidateIOBufferSize (Irp, sizeof (VOLUME_DISK_EXTENTS), ValidateOutput))

  003cd	bd 20 00 00 00	 mov	 ebp, 32			; 00000020H
  003d2	48 8b cb	 mov	 rcx, rbx
  003d5	44 8d 45 e1	 lea	 r8d, QWORD PTR [rbp-31]
  003d9	48 8b d5	 mov	 rdx, rbp
  003dc	e8 00 00 00 00	 call	 ValidateIOBufferSize
  003e1	85 c0		 test	 eax, eax
  003e3	0f 84 e4 01 00
	00		 je	 $LN11@ProcessVol

; 777  : 		{
; 778  : 			VOLUME_DISK_EXTENTS *extents = (VOLUME_DISK_EXTENTS *) Irp->AssociatedIrp.SystemBuffer;

  003e9	48 8b 7b 18	 mov	 rdi, QWORD PTR [rbx+24]

; 779  : 
; 780  : 			// No extent data can be returned as this is not a physical drive.
; 781  : 			memset (extents, 0, sizeof (*extents));

  003ed	4c 8b c5	 mov	 r8, rbp
  003f0	33 d2		 xor	 edx, edx
  003f2	48 8b cf	 mov	 rcx, rdi
  003f5	e8 00 00 00 00	 call	 memset

; 782  : 			extents->NumberOfDiskExtents = 0;

  003fa	83 27 00	 and	 DWORD PTR [rdi], 0

; 783  : 
; 784  : 			Irp->IoStatus.Status = STATUS_SUCCESS;
; 785  : 			Irp->IoStatus.Information = sizeof (*extents);

  003fd	e9 fe fe ff ff	 jmp	 $LN63@ProcessVol
$LN4@ProcessVol:

; 772  : 		{
; 773  : 			Irp->IoStatus.Status = STATUS_INVALID_DEVICE_REQUEST;

  00402	41 c7 40 30 10
	00 00 c0	 mov	 DWORD PTR [r8+48], -1073741808 ; ffffffffc0000010H

; 786  : 		}
; 787  : 		break;

  0040a	e9 9a fd ff ff	 jmp	 $LN66@ProcessVol
$LN33@ProcessVol:

; 572  : 
; 573  : 	case IOCTL_MOUNTDEV_QUERY_SUGGESTED_LINK_NAME:
; 574  : 		{
; 575  : 			ULONG outLength;
; 576  : 			UNICODE_STRING ntUnicodeString;
; 577  : 			WCHAR ntName[256];
; 578  : 			PMOUNTDEV_SUGGESTED_LINK_NAME outputBuffer = (PMOUNTDEV_SUGGESTED_LINK_NAME) Irp->AssociatedIrp.SystemBuffer;

  0040f	4d 8b 68 18	 mov	 r13, QWORD PTR [r8+24]

; 579  : 
; 580  : 			if (!ValidateIOBufferSize (Irp, sizeof (MOUNTDEV_SUGGESTED_LINK_NAME), ValidateOutput))

  00413	ba 06 00 00 00	 mov	 edx, 6
  00418	48 8b cb	 mov	 rcx, rbx
  0041b	44 8d 42 fb	 lea	 r8d, QWORD PTR [rdx-5]
  0041f	e8 00 00 00 00	 call	 ValidateIOBufferSize
  00424	85 c0		 test	 eax, eax
  00426	75 11		 jne	 SHORT $LN32@ProcessVol
$LN58@ProcessVol:

; 581  : 			{
; 582  : 				Irp->IoStatus.Status = STATUS_INVALID_PARAMETER;

  00428	c7 43 30 0d 00
	00 c0		 mov	 DWORD PTR [rbx+48], -1073741811 ; ffffffffc000000dH
$LN13@ProcessVol:

; 583  : 				Irp->IoStatus.Information = 0;

  0042f	48 83 63 38 00	 and	 QWORD PTR [rbx+56], 0

; 584  : 				break; 

  00434	e9 94 01 00 00	 jmp	 $LN11@ProcessVol
$LN32@ProcessVol:

; 585  : 			}
; 586  : 
; 587  : 			TCGetDosNameFromNumber (ntName, Extension->nDosDriveNo);

  00439	8b 57 14	 mov	 edx, DWORD PTR [rdi+20]
  0043c	48 8d 8c 24 00
	01 00 00	 lea	 rcx, QWORD PTR ntName$31610[rsp]
  00444	e8 00 00 00 00	 call	 TCGetDosNameFromNumber

; 588  : 			RtlInitUnicodeString (&ntUnicodeString, ntName);

  00449	48 8d 94 24 00
	01 00 00	 lea	 rdx, QWORD PTR ntName$31610[rsp]
  00451	48 8d 4c 24 58	 lea	 rcx, QWORD PTR ntUnicodeString$31609[rsp]
  00456	ff 15 00 00 00
	00		 call	 QWORD PTR __imp_RtlInitUnicodeString

; 589  : 
; 590  : 			outLength = FIELD_OFFSET(MOUNTDEV_SUGGESTED_LINK_NAME,Name) + ntUnicodeString.Length;

  0045c	0f b7 7c 24 58	 movzx	 edi, WORD PTR ntUnicodeString$31609[rsp]

; 591  : 
; 592  : 			outputBuffer->UseOnlyIfThereAreNoOtherLinks = FALSE;

  00461	41 c6 45 00 00	 mov	 BYTE PTR [r13], 0

; 593  : 			outputBuffer->NameLength = ntUnicodeString.Length;

  00466	0f b7 44 24 58	 movzx	 eax, WORD PTR ntUnicodeString$31609[rsp]
  0046b	03 fd		 add	 edi, ebp
  0046d	66 41 89 45 02	 mov	 WORD PTR [r13+2], ax

; 594  : 
; 595  : 			if(irpSp->Parameters.DeviceIoControl.OutputBufferLength < outLength)

  00472	41 39 7c 24 08	 cmp	 DWORD PTR [r12+8], edi
  00477	73 0a		 jae	 SHORT $LN31@ProcessVol

; 596  : 			{
; 597  : 				Irp->IoStatus.Information = sizeof (MOUNTDEV_SUGGESTED_LINK_NAME);

  00479	48 c7 43 38 06
	00 00 00	 mov	 QWORD PTR [rbx+56], 6

; 598  : 				Irp->IoStatus.Status = STATUS_BUFFER_OVERFLOW;
; 599  : 				break;

  00481	eb 5f		 jmp	 SHORT $LN60@ProcessVol
$LN31@ProcessVol:

; 600  : 			}
; 601  : 
; 602  : 			RtlCopyMemory ((PCHAR)outputBuffer->Name,ntUnicodeString.Buffer, ntUnicodeString.Length);

  00483	49 8d 4d 04	 lea	 rcx, QWORD PTR [r13+4]

; 603  : 		
; 604  : 			Irp->IoStatus.Status = STATUS_SUCCESS;
; 605  : 			Irp->IoStatus.Information = outLength;
; 606  : 
; 607  : 			Dump ("link = %ls\n",ntName);
; 608  : 		}
; 609  : 		break;

  00487	eb 69		 jmp	 SHORT $LN67@ProcessVol
$LN41@ProcessVol:

; 500  : 	{
; 501  : 
; 502  : 	case IOCTL_MOUNTDEV_QUERY_DEVICE_NAME:
; 503  : 		if (!ValidateIOBufferSize (Irp, sizeof (MOUNTDEV_NAME), ValidateOutput))

  00489	41 b8 01 00 00
	00		 mov	 r8d, 1
  0048f	48 8b d5	 mov	 rdx, rbp
  00492	48 8b cb	 mov	 rcx, rbx
  00495	e8 00 00 00 00	 call	 ValidateIOBufferSize
  0049a	85 c0		 test	 eax, eax

; 504  : 		{
; 505  : 			Irp->IoStatus.Information = sizeof (MOUNTDEV_NAME);
; 506  : 			Irp->IoStatus.Status = STATUS_BUFFER_OVERFLOW;
; 507  : 		}
; 508  : 		else

  0049c	74 40		 je	 SHORT $LN59@ProcessVol

; 509  : 		{
; 510  : 			ULONG outLength;
; 511  : 			UNICODE_STRING ntUnicodeString;
; 512  : 			WCHAR ntName[256];
; 513  : 			PMOUNTDEV_NAME outputBuffer = (PMOUNTDEV_NAME) Irp->AssociatedIrp.SystemBuffer;
; 514  : 
; 515  : 			TCGetNTNameFromNumber (ntName, Extension->nDosDriveNo);

  0049e	8b 57 14	 mov	 edx, DWORD PTR [rdi+20]
  004a1	4c 8b 6b 18	 mov	 r13, QWORD PTR [rbx+24]
  004a5	48 8d 8c 24 00
	01 00 00	 lea	 rcx, QWORD PTR ntName$31577[rsp]
  004ad	e8 00 00 00 00	 call	 TCGetNTNameFromNumber

; 516  : 			RtlInitUnicodeString (&ntUnicodeString, ntName);

  004b2	48 8d 94 24 00
	01 00 00	 lea	 rdx, QWORD PTR ntName$31577[rsp]
  004ba	48 8d 4c 24 58	 lea	 rcx, QWORD PTR ntUnicodeString$31576[rsp]
  004bf	ff 15 00 00 00
	00		 call	 QWORD PTR __imp_RtlInitUnicodeString

; 517  : 
; 518  : 			outputBuffer->NameLength = ntUnicodeString.Length;

  004c5	0f b7 54 24 58	 movzx	 edx, WORD PTR ntUnicodeString$31576[rsp]
  004ca	66 41 89 55 00	 mov	 WORD PTR [r13], dx

; 519  : 			outLength = ntUnicodeString.Length + sizeof(USHORT);

  004cf	0f b7 7c 24 58	 movzx	 edi, WORD PTR ntUnicodeString$31576[rsp]
  004d4	83 c7 02	 add	 edi, 2

; 520  : 
; 521  : 			if (irpSp->Parameters.DeviceIoControl.OutputBufferLength < outLength)

  004d7	41 39 7c 24 08	 cmp	 DWORD PTR [r12+8], edi
  004dc	73 10		 jae	 SHORT $LN38@ProcessVol
$LN59@ProcessVol:

; 522  : 			{
; 523  : 				Irp->IoStatus.Information = sizeof (MOUNTDEV_NAME);

  004de	48 89 6b 38	 mov	 QWORD PTR [rbx+56], rbp
$LN60@ProcessVol:

; 524  : 				Irp->IoStatus.Status = STATUS_BUFFER_OVERFLOW;

  004e2	c7 43 30 05 00
	00 80		 mov	 DWORD PTR [rbx+48], -2147483643 ; ffffffff80000005H

; 525  : 
; 526  : 				break;

  004e9	e9 df 00 00 00	 jmp	 $LN11@ProcessVol
$LN38@ProcessVol:

; 527  : 			}
; 528  : 
; 529  : 			RtlCopyMemory ((PCHAR)outputBuffer->Name,ntUnicodeString.Buffer, ntUnicodeString.Length);

  004ee	49 8d 4d 02	 lea	 rcx, QWORD PTR [r13+2]
$LN67@ProcessVol:
  004f2	44 0f b7 44 24
	58		 movzx	 r8d, WORD PTR ntUnicodeString$31576[rsp]
  004f8	48 8b 54 24 60	 mov	 rdx, QWORD PTR ntUnicodeString$31576[rsp+8]
$LN61@ProcessVol:
  004fd	e8 00 00 00 00	 call	 memcpy

; 530  : 
; 531  : 			Irp->IoStatus.Status = STATUS_SUCCESS;

  00502	83 63 30 00	 and	 DWORD PTR [rbx+48], 0

; 532  : 			Irp->IoStatus.Information = outLength;

  00506	8b c7		 mov	 eax, edi
  00508	48 89 43 38	 mov	 QWORD PTR [rbx+56], rax

; 533  : 
; 534  : 			Dump ("name = %ls\n",ntName);
; 535  : 		}
; 536  : 		break;

  0050c	e9 bc 00 00 00	 jmp	 $LN11@ProcessVol
$LN37@ProcessVol:

; 537  : 
; 538  : 	case IOCTL_MOUNTDEV_QUERY_UNIQUE_ID:
; 539  : 		if (!ValidateIOBufferSize (Irp, sizeof (MOUNTDEV_UNIQUE_ID), ValidateOutput))

  00511	41 b8 01 00 00
	00		 mov	 r8d, 1
  00517	48 8b d5	 mov	 rdx, rbp
  0051a	48 8b cb	 mov	 rcx, rbx
  0051d	e8 00 00 00 00	 call	 ValidateIOBufferSize
  00522	85 c0		 test	 eax, eax

; 540  : 		{
; 541  : 			Irp->IoStatus.Information = sizeof (MOUNTDEV_UNIQUE_ID);
; 542  : 			Irp->IoStatus.Status = STATUS_BUFFER_OVERFLOW;
; 543  : 		}
; 544  : 		else

  00524	74 b8		 je	 SHORT $LN59@ProcessVol

; 545  : 		{
; 546  : 			ULONG outLength;
; 547  : 			UCHAR volId[128], tmp[] = { 0,0 };
; 548  : 			PMOUNTDEV_UNIQUE_ID outputBuffer = (PMOUNTDEV_UNIQUE_ID) Irp->AssociatedIrp.SystemBuffer;
; 549  : 
; 550  : 			strcpy (volId, TC_UNIQUE_ID_PREFIX); 
; 551  : 			tmp[0] = 'A' + (UCHAR) Extension->nDosDriveNo;

  00526	8a 47 14	 mov	 al, BYTE PTR [rdi+20]
  00529	f3 0f 6f 05 00
	00 00 00	 movdqu	 xmm0, XMMWORD PTR ??_C@_0BA@OLBPPLP@TrueCryptVolume?$AA@FNODOBFM@
  00531	4c 8b 4b 18	 mov	 r9, QWORD PTR [rbx+24]
  00535	04 41		 add	 al, 65			; 00000041H

; 552  : 			strcat (volId, tmp);

  00537	49 83 c8 ff	 or	 r8, -1
  0053b	48 8d bc 24 80
	00 00 00	 lea	 rdi, QWORD PTR volId$31593[rsp]
  00543	f3 0f 7f 84 24
	80 00 00 00	 movdqu	 XMMWORD PTR volId$31593[rsp], xmm0
  0054c	88 44 24 50	 mov	 BYTE PTR tmp$31594[rsp], al
  00550	33 c0		 xor	 eax, eax
  00552	49 8b c8	 mov	 rcx, r8
  00555	f2 ae		 repne scasb
  00557	48 8d 4c 24 50	 lea	 rcx, QWORD PTR tmp$31594[rsp]
  0055c	33 d2		 xor	 edx, edx
  0055e	c6 44 24 51 00	 mov	 BYTE PTR tmp$31594[rsp+1], 0
$LL57@ProcessVol:
  00563	8a 04 11	 mov	 al, BYTE PTR [rcx+rdx]
  00566	48 ff c2	 inc	 rdx
  00569	88 44 17 fe	 mov	 BYTE PTR [rdi+rdx-2], al
  0056d	84 c0		 test	 al, al
  0056f	75 f2		 jne	 SHORT $LL57@ProcessVol

; 553  : 			
; 554  : 			outputBuffer->UniqueIdLength = (USHORT) strlen (volId);

  00571	33 c0		 xor	 eax, eax
  00573	49 8b c8	 mov	 rcx, r8
  00576	48 8d bc 24 80
	00 00 00	 lea	 rdi, QWORD PTR volId$31593[rsp]
  0057e	f2 ae		 repne scasb
  00580	48 f7 d1	 not	 rcx
  00583	48 ff c9	 dec	 rcx
  00586	66 41 89 09	 mov	 WORD PTR [r9], cx
  0058a	4c 8b c1	 mov	 r8, rcx

; 555  : 			outLength = (ULONG) (strlen (volId) + sizeof (USHORT));

  0058d	8d 79 02	 lea	 edi, DWORD PTR [rcx+2]

; 556  : 
; 557  : 			if (irpSp->Parameters.DeviceIoControl.OutputBufferLength < outLength)

  00590	41 39 7c 24 08	 cmp	 DWORD PTR [r12+8], edi

; 558  : 			{
; 559  : 				Irp->IoStatus.Information = sizeof (MOUNTDEV_UNIQUE_ID);
; 560  : 				Irp->IoStatus.Status = STATUS_BUFFER_OVERFLOW;
; 561  : 				break;

  00595	0f 82 43 ff ff
	ff		 jb	 $LN59@ProcessVol

; 562  : 			}
; 563  : 
; 564  : 			RtlCopyMemory ((PCHAR)outputBuffer->UniqueId, volId, strlen (volId));

  0059b	49 8d 49 02	 lea	 rcx, QWORD PTR [r9+2]
  0059f	48 8d 94 24 80
	00 00 00	 lea	 rdx, QWORD PTR volId$31593[rsp]

; 565  : 
; 566  : 			Irp->IoStatus.Status = STATUS_SUCCESS;
; 567  : 			Irp->IoStatus.Information = outLength;
; 568  : 
; 569  : 			Dump ("id = %s\n",volId);
; 570  : 		}
; 571  : 		break;

  005a7	e9 51 ff ff ff	 jmp	 $LN61@ProcessVol
$LN12@ProcessVol:

; 737  : 
; 738  : 	case IOCTL_DISK_CHECK_VERIFY:
; 739  : 	case IOCTL_STORAGE_CHECK_VERIFY:
; 740  : 		{
; 741  : 			Irp->IoStatus.Status = STATUS_SUCCESS;

  005ac	41 83 60 30 00	 and	 DWORD PTR [r8+48], 0

; 742  : 			Irp->IoStatus.Information = 0;

  005b1	49 83 60 38 00	 and	 QWORD PTR [r8+56], 0

; 743  : 
; 744  : 			if (irpSp->Parameters.DeviceIoControl.OutputBufferLength >= sizeof (ULONG))

  005b6	bd 04 00 00 00	 mov	 ebp, 4
  005bb	41 39 6c 24 08	 cmp	 DWORD PTR [r12+8], ebp
  005c0	72 0b		 jb	 SHORT $LN11@ProcessVol

; 745  : 			{
; 746  : 				*((ULONG *) Irp->AssociatedIrp.SystemBuffer) = 0;

  005c2	49 8b 40 18	 mov	 rax, QWORD PTR [r8+24]
  005c6	83 20 00	 and	 DWORD PTR [rax], 0

; 747  : 				Irp->IoStatus.Information = sizeof (ULONG);

  005c9	49 89 68 38	 mov	 QWORD PTR [r8+56], rbp
$LN11@ProcessVol:

; 791  : 	}
; 792  : 
; 793  : #ifdef DEBUG
; 794  : 	if (!NT_SUCCESS (Irp->IoStatus.Status))
; 795  : 	{
; 796  : 		Dump ("IOCTL error 0x%08x (0x%x %d)\n",
; 797  : 			Irp->IoStatus.Status,
; 798  : 			(int) (irpSp->Parameters.DeviceIoControl.IoControlCode >> 16),
; 799  : 			(int) ((irpSp->Parameters.DeviceIoControl.IoControlCode & 0x1FFF) >> 2));
; 800  : 	}
; 801  : #endif
; 802  : 
; 803  : 	return TCCompleteDiskIrp (Irp, Irp->IoStatus.Status, Irp->IoStatus.Information);

  005cd	8b 7b 30	 mov	 edi, DWORD PTR [rbx+48]
  005d0	48 8b cb	 mov	 rcx, rbx
  005d3	85 ff		 test	 edi, edi
  005d5	0f 99 c2	 setns	 dl
  005d8	ff 15 00 00 00
	00		 call	 QWORD PTR __imp_IofCompleteRequest
  005de	8b c7		 mov	 eax, edi
$LN44@ProcessVol:

; 804  : }

  005e0	48 8b 8c 24 00
	03 00 00	 mov	 rcx, QWORD PTR __$ArrayPad$[rsp]
  005e8	48 33 cc	 xor	 rcx, rsp
  005eb	e8 00 00 00 00	 call	 __security_check_cookie
  005f0	4c 8d 9c 24 10
	03 00 00	 lea	 r11, QWORD PTR [rsp+784]
  005f8	49 8b 5b 20	 mov	 rbx, QWORD PTR [r11+32]
  005fc	49 8b 6b 38	 mov	 rbp, QWORD PTR [r11+56]
  00600	49 8b e3	 mov	 rsp, r11
  00603	41 5d		 pop	 r13
  00605	41 5c		 pop	 r12
  00607	5f		 pop	 rdi
  00608	c3		 ret	 0
ProcessVolumeDeviceControlIrp ENDP
PUBLIC	ReadDeviceSkipUnreadableSectors
;	COMDAT pdata
pdata	SEGMENT
$pdata$ReadDeviceSkipUnreadableSectors DD imagerel $LN15
	DD	imagerel $LN15+223
	DD	imagerel $unwind$ReadDeviceSkipUnreadableSectors
pdata	ENDS
;	COMDAT xdata
xdata	SEGMENT
$unwind$ReadDeviceSkipUnreadableSectors DD 0a1c01H
	DD	011641cH
	DD	0f541cH
	DD	0e341cH
	DD	0d018921cH
	DD	07014c016H
; Function compile flags: /Ogspy
xdata	ENDS
;	COMDAT ReadDeviceSkipUnreadableSectors
_TEXT	SEGMENT
geometry$51975 = 48
deviceObject$ = 112
buffer$ = 120
startOffset$ = 128
size$ = 136
sectorSize$ = 144
badSectorCount$ = 144
ReadDeviceSkipUnreadableSectors PROC			; COMDAT

; 3261 : {

$LN15:
  00000	48 8b c4	 mov	 rax, rsp
  00003	48 89 58 08	 mov	 QWORD PTR [rax+8], rbx
  00007	48 89 68 10	 mov	 QWORD PTR [rax+16], rbp
  0000b	48 89 70 20	 mov	 QWORD PTR [rax+32], rsi
  0000f	4c 89 40 18	 mov	 QWORD PTR [rax+24], r8
  00013	57		 push	 rdi
  00014	41 54		 push	 r12
  00016	41 55		 push	 r13
  00018	48 83 ec 50	 sub	 rsp, 80			; 00000050H

; 3262 : 	NTSTATUS status;
; 3263 : 	ULONG sectorSize;
; 3264 : 	ULONG sectorCount;
; 3265 : 
; 3266 : 	*badSectorCount = 0;

  0001c	4c 8b a4 24 90
	00 00 00	 mov	 r12, QWORD PTR badSectorCount$[rsp]

; 3267 : 
; 3268 : 	status = GetDeviceSectorSize (deviceObject, &sectorSize);

  00024	c7 40 c0 18 00
	00 00		 mov	 DWORD PTR [rax-64], 24
  0002b	48 8d 40 c8	 lea	 rax, QWORD PTR [rax-56]
  0002f	49 83 24 24 00	 and	 QWORD PTR [r12], 0
  00034	41 8b d9	 mov	 ebx, r9d
  00037	48 8b ea	 mov	 rbp, rdx
  0003a	45 33 c9	 xor	 r9d, r9d
  0003d	45 33 c0	 xor	 r8d, r8d
  00040	ba 00 00 07 00	 mov	 edx, 458752		; 00070000H
  00045	4c 8b e9	 mov	 r13, rcx
  00048	48 89 44 24 20	 mov	 QWORD PTR [rsp+32], rax
  0004d	e8 00 00 00 00	 call	 SendDeviceIoControlRequest
  00052	85 c0		 test	 eax, eax
  00054	79 09		 jns	 SHORT $LN8@ReadDevice
  00056	8b bc 24 90 00
	00 00		 mov	 edi, DWORD PTR sectorSize$[rsp]
  0005d	eb 06		 jmp	 SHORT $LN9@ReadDevice
$LN8@ReadDevice:
  0005f	8b 7c 24 44	 mov	 edi, DWORD PTR geometry$51975[rsp+20]
  00063	33 c0		 xor	 eax, eax
$LN9@ReadDevice:

; 3269 : 	if (!NT_SUCCESS (status))

  00065	85 c0		 test	 eax, eax

; 3270 : 		return status;

  00067	78 5c		 js	 SHORT $LN6@ReadDevice

; 3271 : 
; 3272 : 	for (sectorCount = size / sectorSize; sectorCount > 0; --sectorCount, startOffset.QuadPart += sectorSize, buffer += sectorSize)

  00069	33 d2		 xor	 edx, edx
  0006b	8b c3		 mov	 eax, ebx
  0006d	f7 f7		 div	 edi
  0006f	8b d8		 mov	 ebx, eax
  00071	85 c0		 test	 eax, eax
  00073	74 4e		 je	 SHORT $LN2@ReadDevice
  00075	48 8b 8c 24 80
	00 00 00	 mov	 rcx, QWORD PTR startOffset$[rsp]
  0007d	8b f7		 mov	 esi, edi
$LL4@ReadDevice:

; 3273 : 	{
; 3274 : 		status = TCReadDevice (deviceObject, buffer, startOffset, sectorSize);

  0007f	4c 8b c9	 mov	 r9, rcx
  00082	4c 8b c5	 mov	 r8, rbp
  00085	49 8b d5	 mov	 rdx, r13
  00088	33 c9		 xor	 ecx, ecx
  0008a	89 7c 24 20	 mov	 DWORD PTR [rsp+32], edi
  0008e	e8 00 00 00 00	 call	 TCReadWriteDevice

; 3275 : 		if (!NT_SUCCESS (status))

  00093	85 c0		 test	 eax, eax
  00095	79 11		 jns	 SHORT $LN3@ReadDevice

; 3276 : 		{
; 3277 : 			Dump ("Skipping bad sector at %I64d\n", startOffset.QuadPart);
; 3278 : 			memset (buffer, 0, sectorSize);

  00097	4c 8b c6	 mov	 r8, rsi
  0009a	33 d2		 xor	 edx, edx
  0009c	48 8b cd	 mov	 rcx, rbp
  0009f	e8 00 00 00 00	 call	 memset

; 3279 : 			++(*badSectorCount);

  000a4	49 ff 04 24	 inc	 QWORD PTR [r12]
$LN3@ReadDevice:
  000a8	48 8b 8c 24 80
	00 00 00	 mov	 rcx, QWORD PTR startOffset$[rsp]
  000b0	48 03 ee	 add	 rbp, rsi
  000b3	48 03 ce	 add	 rcx, rsi
  000b6	83 c3 ff	 add	 ebx, -1			; ffffffffH
  000b9	48 89 8c 24 80
	00 00 00	 mov	 QWORD PTR startOffset$[rsp], rcx
  000c1	75 bc		 jne	 SHORT $LL4@ReadDevice
$LN2@ReadDevice:

; 3280 : 		}
; 3281 : 	}
; 3282 : 
; 3283 : 	return STATUS_SUCCESS;

  000c3	33 c0		 xor	 eax, eax
$LN6@ReadDevice:

; 3284 : }

  000c5	4c 8d 5c 24 50	 lea	 r11, QWORD PTR [rsp+80]
  000ca	49 8b 5b 20	 mov	 rbx, QWORD PTR [r11+32]
  000ce	49 8b 6b 28	 mov	 rbp, QWORD PTR [r11+40]
  000d2	49 8b 73 38	 mov	 rsi, QWORD PTR [r11+56]
  000d6	49 8b e3	 mov	 rsp, r11
  000d9	41 5d		 pop	 r13
  000db	41 5c		 pop	 r12
  000dd	5f		 pop	 rdi
  000de	c3		 ret	 0
ReadDeviceSkipUnreadableSectors ENDP
_TEXT	ENDS
PUBLIC	ZeroUnreadableSectors
;	COMDAT pdata
pdata	SEGMENT
$pdata$ZeroUnreadableSectors DD imagerel $LN21
	DD	imagerel $LN21+298
	DD	imagerel $unwind$ZeroUnreadableSectors
pdata	ENDS
;	COMDAT xdata
xdata	SEGMENT
$unwind$ZeroUnreadableSectors DD 0a1b01H
	DD	012541bH
	DD	010341bH
	DD	0e017921bH
	DD	0c013d015H
	DD	060107011H
; Function compile flags: /Ogspy
xdata	ENDS
;	COMDAT ZeroUnreadableSectors
_TEXT	SEGMENT
geometry$52003 = 48
deviceObject$ = 128
startOffset$ = 136
size$ = 144
sectorSize$ = 152
zeroedSectorCount$ = 152
ZeroUnreadableSectors PROC				; COMDAT

; 3218 : {

$LN21:
  00000	48 8b c4	 mov	 rax, rsp
  00003	48 89 58 08	 mov	 QWORD PTR [rax+8], rbx
  00007	48 89 68 18	 mov	 QWORD PTR [rax+24], rbp
  0000b	48 89 50 10	 mov	 QWORD PTR [rax+16], rdx
  0000f	56		 push	 rsi
  00010	57		 push	 rdi
  00011	41 54		 push	 r12
  00013	41 55		 push	 r13
  00015	41 56		 push	 r14
  00017	48 83 ec 50	 sub	 rsp, 80			; 00000050H

; 3219 : 	NTSTATUS status;
; 3220 : 	ULONG sectorSize;
; 3221 : 	ULONG sectorCount;
; 3222 : 	byte *sectorBuffer = NULL;
; 3223 : 
; 3224 : 	*zeroedSectorCount = 0;

  0001b	49 83 21 00	 and	 QWORD PTR [r9], 0

; 3225 : 
; 3226 : 	status = GetDeviceSectorSize (deviceObject, &sectorSize);

  0001f	c7 40 b0 18 00
	00 00		 mov	 DWORD PTR [rax-80], 24
  00026	48 8d 40 b8	 lea	 rax, QWORD PTR [rax-72]
  0002a	4d 8b e9	 mov	 r13, r9
  0002d	41 8b f8	 mov	 edi, r8d
  00030	ba 00 00 07 00	 mov	 edx, 458752		; 00070000H
  00035	45 33 c9	 xor	 r9d, r9d
  00038	45 33 c0	 xor	 r8d, r8d
  0003b	48 89 44 24 20	 mov	 QWORD PTR [rsp+32], rax
  00040	4c 8b f1	 mov	 r14, rcx
  00043	e8 00 00 00 00	 call	 SendDeviceIoControlRequest
  00048	85 c0		 test	 eax, eax
  0004a	79 09		 jns	 SHORT $LN11@ZeroUnread
  0004c	8b 9c 24 98 00
	00 00		 mov	 ebx, DWORD PTR sectorSize$[rsp]
  00053	eb 06		 jmp	 SHORT $LN12@ZeroUnread
$LN11@ZeroUnread:
  00055	8b 5c 24 44	 mov	 ebx, DWORD PTR geometry$52003[rsp+20]
  00059	33 c0		 xor	 eax, eax
$LN12@ZeroUnread:

; 3227 : 	if (!NT_SUCCESS (status))

  0005b	85 c0		 test	 eax, eax

; 3228 : 		return status;

  0005d	0f 88 ae 00 00
	00		 js	 $LN9@ZeroUnread

; 3229 : 
; 3230 : 	sectorBuffer = TCalloc (sectorSize);

  00063	41 b8 54 43 4d
	4d		 mov	 r8d, 1296909140		; 4d4d4354H
  00069	8b d3		 mov	 edx, ebx
  0006b	33 c9		 xor	 ecx, ecx
  0006d	44 8b e3	 mov	 r12d, ebx
  00070	ff 15 00 00 00
	00		 call	 QWORD PTR __imp_ExAllocatePoolWithTag
  00076	48 8b e8	 mov	 rbp, rax

; 3231 : 	if (!sectorBuffer)

  00079	48 85 c0	 test	 rax, rax
  0007c	75 0a		 jne	 SHORT $LN7@ZeroUnread

; 3232 : 		return STATUS_INSUFFICIENT_RESOURCES;

  0007e	b8 9a 00 00 c0	 mov	 eax, -1073741670	; ffffffffc000009aH
  00083	e9 89 00 00 00	 jmp	 $LN9@ZeroUnread
$LN7@ZeroUnread:

; 3233 : 
; 3234 : 	for (sectorCount = size / sectorSize; sectorCount > 0; --sectorCount, startOffset.QuadPart += sectorSize)

  00088	33 d2		 xor	 edx, edx
  0008a	8b c7		 mov	 eax, edi
  0008c	f7 f3		 div	 ebx
  0008e	8b f8		 mov	 edi, eax
  00090	85 c0		 test	 eax, eax
  00092	74 6b		 je	 SHORT $LN4@ZeroUnread
  00094	48 8b 8c 24 88
	00 00 00	 mov	 rcx, QWORD PTR startOffset$[rsp]
$LL6@ZeroUnread:

; 3235 : 	{
; 3236 : 		status = TCReadDevice (deviceObject, sectorBuffer, startOffset, sectorSize);

  0009c	4c 8b c9	 mov	 r9, rcx
  0009f	4c 8b c5	 mov	 r8, rbp
  000a2	49 8b d6	 mov	 rdx, r14
  000a5	33 c9		 xor	 ecx, ecx
  000a7	89 5c 24 20	 mov	 DWORD PTR [rsp+32], ebx
  000ab	e8 00 00 00 00	 call	 TCReadWriteDevice

; 3237 : 		if (!NT_SUCCESS (status))

  000b0	85 c0		 test	 eax, eax
  000b2	79 33		 jns	 SHORT $LN5@ZeroUnread

; 3238 : 		{
; 3239 : 			Dump ("Zeroing sector at %I64d\n", startOffset.QuadPart);
; 3240 : 			memset (sectorBuffer, 0, sectorSize);

  000b4	4d 8b c4	 mov	 r8, r12
  000b7	33 d2		 xor	 edx, edx
  000b9	48 8b cd	 mov	 rcx, rbp
  000bc	e8 00 00 00 00	 call	 memset

; 3241 : 
; 3242 : 			status = TCWriteDevice (deviceObject, sectorBuffer, startOffset, sectorSize);

  000c1	4c 8b 8c 24 88
	00 00 00	 mov	 r9, QWORD PTR startOffset$[rsp]
  000c9	4c 8b c5	 mov	 r8, rbp
  000cc	49 8b d6	 mov	 rdx, r14
  000cf	b9 01 00 00 00	 mov	 ecx, 1
  000d4	89 5c 24 20	 mov	 DWORD PTR [rsp+32], ebx
  000d8	e8 00 00 00 00	 call	 TCReadWriteDevice
  000dd	8b f0		 mov	 esi, eax

; 3243 : 			if (!NT_SUCCESS (status))

  000df	85 c0		 test	 eax, eax
  000e1	78 1e		 js	 SHORT $err$32959

; 3244 : 				goto err;
; 3245 : 
; 3246 : 			++(*zeroedSectorCount);

  000e3	49 ff 45 00	 inc	 QWORD PTR [r13]
$LN5@ZeroUnread:

; 3233 : 
; 3234 : 	for (sectorCount = size / sectorSize; sectorCount > 0; --sectorCount, startOffset.QuadPart += sectorSize)

  000e7	48 8b 8c 24 88
	00 00 00	 mov	 rcx, QWORD PTR startOffset$[rsp]
  000ef	49 03 cc	 add	 rcx, r12
  000f2	83 c7 ff	 add	 edi, -1			; ffffffffH
  000f5	48 89 8c 24 88
	00 00 00	 mov	 QWORD PTR startOffset$[rsp], rcx
  000fd	75 9d		 jne	 SHORT $LL6@ZeroUnread
$LN4@ZeroUnread:

; 3247 : 		}
; 3248 : 	}
; 3249 : 
; 3250 : 	status = STATUS_SUCCESS;

  000ff	33 f6		 xor	 esi, esi
$err$32959:

; 3251 : 
; 3252 : err:
; 3253 : 	if (sectorBuffer)
; 3254 : 		TCfree (sectorBuffer);

  00101	ba 54 43 4d 4d	 mov	 edx, 1296909140		; 4d4d4354H
  00106	48 8b cd	 mov	 rcx, rbp
  00109	ff 15 00 00 00
	00		 call	 QWORD PTR __imp_ExFreePoolWithTag

; 3255 : 
; 3256 : 	return status;

  0010f	8b c6		 mov	 eax, esi
$LN9@ZeroUnread:

; 3257 : }

  00111	4c 8d 5c 24 50	 lea	 r11, QWORD PTR [rsp+80]
  00116	49 8b 5b 30	 mov	 rbx, QWORD PTR [r11+48]
  0011a	49 8b 6b 40	 mov	 rbp, QWORD PTR [r11+64]
  0011e	49 8b e3	 mov	 rsp, r11
  00121	41 5e		 pop	 r14
  00123	41 5d		 pop	 r13
  00125	41 5c		 pop	 r12
  00127	5f		 pop	 rdi
  00128	5e		 pop	 rsi
  00129	c3		 ret	 0
ZeroUnreadableSectors ENDP
_TEXT	ENDS
PUBLIC	__$ArrayPad$
PUBLIC	UnmountDevice
;	COMDAT pdata
pdata	SEGMENT
$pdata$UnmountDevice DD imagerel $LN49
	DD	imagerel $LN49+714
	DD	imagerel $unwind$UnmountDevice
pdata	ENDS
;	COMDAT xdata
xdata	SEGMENT
$unwind$UnmountDevice DD 092519H
	DD	0803413H
	DD	0780113H
	DD	0c00ad00cH
	DD	060077008H
	DD	05006H
	DD	imagerel __GSHandlerCheck
	DD	03b0H
; Function compile flags: /Ogspy
xdata	ENDS
;	COMDAT UnmountDevice
_TEXT	SEGMENT
volumeFileObject$ = 48
volumeHandle$ = 56
symLink$52077 = 64
ntfsData$32621 = 80
buf$52067 = 176
link$52076 = 432
out$52068 = 432
__$ArrayPad$ = 944
unmountRequest$ = 1008
deviceObject$ = 1016
ignoreOpenFiles$ = 1024
UnmountDevice PROC					; COMDAT

; 2698 : {

$LN49:
  00000	48 89 5c 24 18	 mov	 QWORD PTR [rsp+24], rbx
  00005	55		 push	 rbp
  00006	56		 push	 rsi
  00007	57		 push	 rdi
  00008	41 54		 push	 r12
  0000a	41 55		 push	 r13
  0000c	48 81 ec c0 03
	00 00		 sub	 rsp, 960		; 000003c0H
  00013	48 8b 05 00 00
	00 00		 mov	 rax, QWORD PTR __security_cookie
  0001a	48 33 c4	 xor	 rax, rsp
  0001d	48 89 84 24 b0
	03 00 00	 mov	 QWORD PTR __$ArrayPad$[rsp], rax

; 2699 : 	PEXTENSION extension = deviceObject->DeviceExtension;

  00025	4c 8b 62 40	 mov	 r12, QWORD PTR [rdx+64]
  00029	41 8b f0	 mov	 esi, r8d
  0002c	48 8b ea	 mov	 rbp, rdx
  0002f	4c 8b e9	 mov	 r13, rcx

; 2700 : 	NTSTATUS ntStatus;
; 2701 : 	HANDLE volumeHandle;
; 2702 : 	PFILE_OBJECT volumeFileObject;
; 2703 : 
; 2704 : 	Dump ("UnmountDevice %d\n", extension->nDosDriveNo);
; 2705 : 
; 2706 : 	ntStatus = TCOpenFsVolume (extension, &volumeHandle, &volumeFileObject);

  00032	4c 8d 44 24 30	 lea	 r8, QWORD PTR volumeFileObject$[rsp]
  00037	48 8d 54 24 38	 lea	 rdx, QWORD PTR volumeHandle$[rsp]
  0003c	49 8b cc	 mov	 rcx, r12
  0003f	e8 00 00 00 00	 call	 TCOpenFsVolume

; 2707 : 
; 2708 : 	if (NT_SUCCESS (ntStatus))

  00044	bb 01 00 00 00	 mov	 ebx, 1
  00049	85 c0		 test	 eax, eax
  0004b	0f 88 f0 00 00
	00		 js	 $LN16@UnmountDev
  00051	8b 05 00 00 00
	00		 mov	 eax, DWORD PTR OsMajorVersion
  00057	c1 e0 08	 shl	 eax, 8

; 2709 : 	{
; 2710 : 		int dismountRetry;
; 2711 : 
; 2712 : 		// Dismounting a writable NTFS filesystem prevents the driver from being unloaded on Windows 7
; 2713 : 		if (IsOSAtLeast (WIN_7) && !extension->bReadOnly)

  0005a	0b 05 00 00 00
	00		 or	 eax, DWORD PTR OsMinorVersion
  00060	25 ff ff ff 00	 and	 eax, 16777215		; 00ffffffH
  00065	3d 01 06 00 00	 cmp	 eax, 1537		; 00000601H
  0006a	72 43		 jb	 SHORT $LN14@UnmountDev
  0006c	41 83 bc 24 40
	03 00 00 00	 cmp	 DWORD PTR [r12+832], 0
  00075	75 38		 jne	 SHORT $LN14@UnmountDev

; 2714 : 		{
; 2715 : 			NTFS_VOLUME_DATA_BUFFER ntfsData;
; 2716 : 
; 2717 : 			if (NT_SUCCESS (TCFsctlCall (volumeFileObject, FSCTL_GET_NTFS_VOLUME_DATA, NULL, 0, &ntfsData, sizeof (ntfsData))))

  00077	48 8b 4c 24 30	 mov	 rcx, QWORD PTR volumeFileObject$[rsp]
  0007c	48 8d 44 24 50	 lea	 rax, QWORD PTR ntfsData$32621[rsp]
  00081	45 33 c9	 xor	 r9d, r9d
  00084	45 33 c0	 xor	 r8d, r8d
  00087	ba 64 00 09 00	 mov	 edx, 589924		; 00090064H
  0008c	c7 44 24 28 60
	00 00 00	 mov	 DWORD PTR [rsp+40], 96	; 00000060H
  00094	48 89 44 24 20	 mov	 QWORD PTR [rsp+32], rax
  00099	e8 00 00 00 00	 call	 TCFsctlCall
  0009e	8b 0d 00 00 00
	00		 mov	 ecx, DWORD PTR DriverUnloadDisabled
  000a4	85 c0		 test	 eax, eax
  000a6	0f 49 cb	 cmovns	 ecx, ebx
  000a9	89 0d 00 00 00
	00		 mov	 DWORD PTR DriverUnloadDisabled, ecx
$LN14@UnmountDev:

; 2718 : 				DriverUnloadDisabled = TRUE;
; 2719 : 		}
; 2720 : 
; 2721 : 		// Lock volume
; 2722 : 		ntStatus = TCFsctlCall (volumeFileObject, FSCTL_LOCK_VOLUME, NULL, 0, NULL, 0);

  000af	48 8b 4c 24 30	 mov	 rcx, QWORD PTR volumeFileObject$[rsp]
  000b4	83 64 24 28 00	 and	 DWORD PTR [rsp+40], 0
  000b9	48 83 64 24 20
	00		 and	 QWORD PTR [rsp+32], 0
  000bf	45 33 c9	 xor	 r9d, r9d
  000c2	45 33 c0	 xor	 r8d, r8d
  000c5	ba 18 00 09 00	 mov	 edx, 589848		; 00090018H
  000ca	e8 00 00 00 00	 call	 TCFsctlCall

; 2723 : 		Dump ("FSCTL_LOCK_VOLUME returned %X\n", ntStatus);
; 2724 : 
; 2725 : 		if (!NT_SUCCESS (ntStatus) && !ignoreOpenFiles)

  000cf	85 c0		 test	 eax, eax
  000d1	79 27		 jns	 SHORT $LN13@UnmountDev
  000d3	85 f6		 test	 esi, esi
  000d5	75 23		 jne	 SHORT $LN13@UnmountDev
$LN46@UnmountDev:

; 2726 : 		{
; 2727 : 			TCCloseFsVolume (volumeHandle, volumeFileObject);

  000d7	48 8b 4c 24 30	 mov	 rcx, QWORD PTR volumeFileObject$[rsp]
  000dc	48 8b 7c 24 38	 mov	 rdi, QWORD PTR volumeHandle$[rsp]
  000e1	ff 15 00 00 00
	00		 call	 QWORD PTR __imp_ObfDereferenceObject
  000e7	48 8b cf	 mov	 rcx, rdi
  000ea	ff 15 00 00 00
	00		 call	 QWORD PTR __imp_ZwClose
$LN48@UnmountDev:

; 2728 : 			return ERR_FILES_OPEN;

  000f0	b8 06 00 00 00	 mov	 eax, 6
  000f5	e9 a9 01 00 00	 jmp	 $LN17@UnmountDev
$LN13@UnmountDev:

; 2729 : 		}
; 2730 : 
; 2731 : 		// Dismount volume
; 2732 : 		for (dismountRetry = 0; dismountRetry < 200; ++dismountRetry)

  000fa	33 ff		 xor	 edi, edi
$LL12@UnmountDev:

; 2733 : 		{
; 2734 : 			ntStatus = TCFsctlCall (volumeFileObject, FSCTL_DISMOUNT_VOLUME, NULL, 0, NULL, 0);

  000fc	48 8b 4c 24 30	 mov	 rcx, QWORD PTR volumeFileObject$[rsp]
  00101	83 64 24 28 00	 and	 DWORD PTR [rsp+40], 0
  00106	48 83 64 24 20
	00		 and	 QWORD PTR [rsp+32], 0
  0010c	45 33 c9	 xor	 r9d, r9d
  0010f	45 33 c0	 xor	 r8d, r8d
  00112	ba 20 00 09 00	 mov	 edx, 589856		; 00090020H
  00117	e8 00 00 00 00	 call	 TCFsctlCall

; 2735 : 			Dump ("FSCTL_DISMOUNT_VOLUME returned %X\n", ntStatus);
; 2736 : 
; 2737 : 			if (NT_SUCCESS (ntStatus) || ntStatus == STATUS_VOLUME_DISMOUNTED)

  0011c	85 c0		 test	 eax, eax
  0011e	79 2b		 jns	 SHORT $LN4@UnmountDev
  00120	3d 6e 02 00 c0	 cmp	 eax, -1073741202	; ffffffffc000026eH
  00125	74 24		 je	 SHORT $LN4@UnmountDev

; 2738 : 				break;
; 2739 : 
; 2740 : 			if (!ignoreOpenFiles)

  00127	85 f6		 test	 esi, esi
  00129	74 ac		 je	 SHORT $LN46@UnmountDev

; 2741 : 			{
; 2742 : 				TCCloseFsVolume (volumeHandle, volumeFileObject);
; 2743 : 				return ERR_FILES_OPEN;
; 2744 : 			}
; 2745 : 
; 2746 : 			TCSleep (100);

  0012b	b9 64 00 00 00	 mov	 ecx, 100		; 00000064H
  00130	e8 00 00 00 00	 call	 TCSleep
  00135	03 fb		 add	 edi, ebx
  00137	81 ff c8 00 00
	00		 cmp	 edi, 200		; 000000c8H
  0013d	7c bd		 jl	 SHORT $LL12@UnmountDev

; 2738 : 				break;
; 2739 : 
; 2740 : 			if (!ignoreOpenFiles)

  0013f	eb 0a		 jmp	 SHORT $LN4@UnmountDev
$LN16@UnmountDev:

; 2747 : 		}
; 2748 : 	}
; 2749 : 	else 
; 2750 : 	{
; 2751 : 		// Volume cannot be opened => force dismount if allowed
; 2752 : 		if (!ignoreOpenFiles)

  00141	85 f6		 test	 esi, esi

; 2753 : 			return ERR_FILES_OPEN;

  00143	74 ab		 je	 SHORT $LN48@UnmountDev

; 2754 : 		else
; 2755 : 			volumeHandle = NULL;

  00145	48 83 64 24 38
	00		 and	 QWORD PTR volumeHandle$[rsp], 0
$LN4@UnmountDev:

; 2756 : 	}
; 2757 : 
; 2758 : 	if (extension->bMountManager)

  0014b	41 83 bc 24 50
	03 00 00 00	 cmp	 DWORD PTR [r12+848], 0
  00154	0f 84 8a 00 00
	00		 je	 $LN38@UnmountDev

; 2759 : 		MountManagerUnmount (extension->nDosDriveNo);

  0015a	48 8d 8c 24 b0
	00 00 00	 lea	 rcx, QWORD PTR buf$52067[rsp]
  00162	33 d2		 xor	 edx, edx
  00164	41 b8 00 01 00
	00		 mov	 r8d, 256		; 00000100H
  0016a	e8 00 00 00 00	 call	 memset
  0016f	41 8b 54 24 14	 mov	 edx, DWORD PTR [r12+20]
  00174	48 8d 8c 24 c8
	00 00 00	 lea	 rcx, QWORD PTR buf$52067[rsp+24]
  0017c	e8 00 00 00 00	 call	 TCGetDosNameFromNumber
  00181	48 83 c9 ff	 or	 rcx, -1
  00185	33 c0		 xor	 eax, eax
  00187	c7 84 24 b0 00
	00 00 18 00 00
	00		 mov	 DWORD PTR buf$52067[rsp], 24
  00192	48 8d bc 24 c8
	00 00 00	 lea	 rdi, QWORD PTR buf$52067[rsp+24]
  0019a	4c 8d 84 24 b0
	00 00 00	 lea	 r8, QWORD PTR buf$52067[rsp]
  001a2	66 f2 af	 repne scasw
  001a5	48 8d 84 24 b0
	01 00 00	 lea	 rax, QWORD PTR out$52068[rsp]
  001ad	ba 04 c0 6d 00	 mov	 edx, 7192580		; 006dc004H
  001b2	48 f7 d1	 not	 rcx
  001b5	c7 44 24 28 2c
	01 00 00	 mov	 DWORD PTR [rsp+40], 300	; 0000012cH
  001bd	48 89 44 24 20	 mov	 QWORD PTR [rsp+32], rax
  001c2	48 2b cb	 sub	 rcx, rbx
  001c5	66 03 c9	 add	 cx, cx
  001c8	44 0f b7 c9	 movzx	 r9d, cx
  001cc	66 89 8c 24 b4
	00 00 00	 mov	 WORD PTR buf$52067[rsp+4], cx
  001d4	48 8d 0d 00 00
	00 00		 lea	 rcx, OFFSET FLAT:??_C@_1DE@MJJBHHAG@?$AA?2?$AAD?$AAe?$AAv?$AAi?$AAc?$AAe?$AA?2?$AAM?$AAo?$AAu?$AAn?$AAt?$AAP?$AAo?$AAi?$AAn?$AAt?$AAM?$AAa?$AAn?$AAa?$AAg?$AAe?$AAr?$AA?$AA@FNODOBFM@
  001db	41 83 c1 18	 add	 r9d, 24
  001df	e8 00 00 00 00	 call	 TCDeviceIoControl
$LN38@UnmountDev:

; 2760 : 
; 2761 : 	// We always remove symbolic link as mount manager might fail to do so
; 2762 : 	RemoveDriveLink (extension->nDosDriveNo);

  001e4	41 8b 54 24 14	 mov	 edx, DWORD PTR [r12+20]
  001e9	48 8d 8c 24 b0
	01 00 00	 lea	 rcx, QWORD PTR link$52076[rsp]
  001f1	e8 00 00 00 00	 call	 TCGetDosNameFromNumber
  001f6	48 8d 94 24 b0
	01 00 00	 lea	 rdx, QWORD PTR link$52076[rsp]
  001fe	48 8d 4c 24 40	 lea	 rcx, QWORD PTR symLink$52077[rsp]
  00203	ff 15 00 00 00
	00		 call	 QWORD PTR __imp_RtlInitUnicodeString
  00209	48 8d 4c 24 40	 lea	 rcx, QWORD PTR symLink$52077[rsp]
  0020e	ff 15 00 00 00
	00		 call	 QWORD PTR __imp_IoDeleteSymbolicLink

; 2763 : 
; 2764 : 	extension->bShuttingDown = TRUE;
; 2765 : 
; 2766 : 	ntStatus = IoAcquireRemoveLock (&extension->Queue.RemoveLock, NULL);

  00214	4c 8d 05 00 00
	00 00		 lea	 r8, OFFSET FLAT:??_C@_00CNPNBAHC@?$AA@FNODOBFM@
  0021b	49 8d 8c 24 80
	01 00 00	 lea	 rcx, QWORD PTR [r12+384]
  00223	be 20 00 00 00	 mov	 esi, 32			; 00000020H
  00228	44 8b cb	 mov	 r9d, ebx
  0022b	33 d2		 xor	 edx, edx
  0022d	41 89 5c 24 18	 mov	 DWORD PTR [r12+24], ebx
  00232	89 74 24 20	 mov	 DWORD PTR [rsp+32], esi
  00236	ff 15 00 00 00
	00		 call	 QWORD PTR __imp_IoAcquireRemoveLockEx

; 2767 : 	ASSERT (NT_SUCCESS (ntStatus));
; 2768 : 	IoReleaseRemoveLockAndWait (&extension->Queue.RemoveLock, NULL);

  0023c	49 8d 8c 24 80
	01 00 00	 lea	 rcx, QWORD PTR [r12+384]
  00244	44 8b c6	 mov	 r8d, esi
  00247	33 d2		 xor	 edx, edx
  00249	ff 15 00 00 00
	00		 call	 QWORD PTR __imp_IoReleaseRemoveLockAndWaitEx

; 2769 : 
; 2770 : 	if (volumeHandle != NULL)

  0024f	48 8b 7c 24 38	 mov	 rdi, QWORD PTR volumeHandle$[rsp]
  00254	48 85 ff	 test	 rdi, rdi
  00257	74 14		 je	 SHORT $LN42@UnmountDev

; 2771 : 		TCCloseFsVolume (volumeHandle, volumeFileObject);

  00259	48 8b 4c 24 30	 mov	 rcx, QWORD PTR volumeFileObject$[rsp]
  0025e	ff 15 00 00 00
	00		 call	 QWORD PTR __imp_ObfDereferenceObject
  00264	48 8b cf	 mov	 rcx, rdi
  00267	ff 15 00 00 00
	00		 call	 QWORD PTR __imp_ZwClose
$LN42@UnmountDev:

; 2772 : 
; 2773 : 	if (unmountRequest)

  0026d	4d 85 ed	 test	 r13, r13
  00270	74 23		 je	 SHORT $LN1@UnmountDev

; 2774 : 	{
; 2775 : 		PCRYPTO_INFO cryptoInfo = ((PEXTENSION) deviceObject->DeviceExtension)->cryptoInfo;

  00272	48 8b 45 40	 mov	 rax, QWORD PTR [rbp+64]
  00276	48 8b 88 90 00
	00 00		 mov	 rcx, QWORD PTR [rax+144]

; 2776 : 		unmountRequest->HiddenVolumeProtectionTriggered = (cryptoInfo->bProtectHiddenVolume && cryptoInfo->bHiddenVolProtectionAction);

  0027d	83 b9 00 44 00
	00 00		 cmp	 DWORD PTR [rcx+17408], 0
  00284	74 09		 je	 SHORT $LN19@UnmountDev
  00286	83 b9 04 44 00
	00 00		 cmp	 DWORD PTR [rcx+17412], 0
  0028d	75 02		 jne	 SHORT $LN20@UnmountDev
$LN19@UnmountDev:
  0028f	33 db		 xor	 ebx, ebx
$LN20@UnmountDev:
  00291	41 89 5d 08	 mov	 DWORD PTR [r13+8], ebx
$LN1@UnmountDev:

; 2777 : 	}
; 2778 : 
; 2779 : 	TCDeleteDeviceObject (deviceObject, (PEXTENSION) deviceObject->DeviceExtension);

  00295	48 8b 55 40	 mov	 rdx, QWORD PTR [rbp+64]
  00299	48 8b cd	 mov	 rcx, rbp
  0029c	e8 00 00 00 00	 call	 TCDeleteDeviceObject

; 2780 : 	return 0;

  002a1	33 c0		 xor	 eax, eax
$LN17@UnmountDev:

; 2781 : }

  002a3	48 8b 8c 24 b0
	03 00 00	 mov	 rcx, QWORD PTR __$ArrayPad$[rsp]
  002ab	48 33 cc	 xor	 rcx, rsp
  002ae	e8 00 00 00 00	 call	 __security_check_cookie
  002b3	48 8b 9c 24 00
	04 00 00	 mov	 rbx, QWORD PTR [rsp+1024]
  002bb	48 81 c4 c0 03
	00 00		 add	 rsp, 960		; 000003c0H
  002c2	41 5d		 pop	 r13
  002c4	41 5c		 pop	 r12
  002c6	5f		 pop	 rdi
  002c7	5e		 pop	 rsi
  002c8	5d		 pop	 rbp
  002c9	c3		 ret	 0
UnmountDevice ENDP
PUBLIC	UnmountAllDevices
;	COMDAT pdata
pdata	SEGMENT
$pdata$UnmountAllDevices DD imagerel $LN31
	DD	imagerel $LN31+219
	DD	imagerel $unwind$UnmountAllDevices
pdata	ENDS
;	COMDAT xdata
xdata	SEGMENT
$unwind$UnmountAllDevices DD 0a1801H
	DD	0a6418H
	DD	095418H
	DD	083418H
	DD	0d0143218H
	DD	07010c012H
; Function compile flags: /Ogspy
xdata	ENDS
;	COMDAT UnmountAllDevices
_TEXT	SEGMENT
unmountRequest$ = 64
ignoreOpenFiles$ = 72
UnmountAllDevices PROC					; COMDAT

; 2809 : {

$LN31:
  00000	48 89 5c 24 08	 mov	 QWORD PTR [rsp+8], rbx
  00005	48 89 6c 24 10	 mov	 QWORD PTR [rsp+16], rbp
  0000a	48 89 74 24 18	 mov	 QWORD PTR [rsp+24], rsi
  0000f	57		 push	 rdi
  00010	41 54		 push	 r12
  00012	41 55		 push	 r13
  00014	48 83 ec 20	 sub	 rsp, 32			; 00000020H

; 2810 : 	NTSTATUS status = 0;
; 2811 : 	PDEVICE_OBJECT ListDevice;
; 2812 : 	int maxUniqueId = LastUniqueVolumeId;

  00018	8b 2d 00 00 00
	00		 mov	 ebp, DWORD PTR LastUniqueVolumeId
  0001e	45 33 e4	 xor	 r12d, r12d
  00021	44 8b ea	 mov	 r13d, edx
  00024	48 8b d9	 mov	 rbx, rcx

; 2813 : 
; 2814 : 	Dump ("Unmounting all volumes\n");
; 2815 : 
; 2816 : 	if (unmountRequest)

  00027	48 85 c9	 test	 rcx, rcx
  0002a	74 04		 je	 SHORT $LL5@UnmountAll

; 2817 : 		unmountRequest->HiddenVolumeProtectionTriggered = FALSE;

  0002c	44 21 61 08	 and	 DWORD PTR [rcx+8], r12d
$LL5@UnmountAll:

; 2818 : 
; 2819 : 	// Dismount volumes in the reverse order they were mounted to properly dismount nested volumes
; 2820 : 	while ((ListDevice = FindVolumeWithHighestUniqueId (maxUniqueId)) != NULL)

  00030	33 c9		 xor	 ecx, ecx
  00032	33 f6		 xor	 esi, esi
  00034	41 83 c8 ff	 or	 r8d, -1
  00038	48 83 f9 19	 cmp	 rcx, 25
$LN30@UnmountAll:
  0003c	77 0d		 ja	 SHORT $LN16@UnmountAll
  0003e	48 8d 15 00 00
	00 00		 lea	 rdx, OFFSET FLAT:VirtualVolumeDeviceObjects
  00045	48 8b 14 ca	 mov	 rdx, QWORD PTR [rdx+rcx*8]
  00049	eb 02		 jmp	 SHORT $LN18@UnmountAll
$LN16@UnmountAll:
  0004b	33 d2		 xor	 edx, edx
$LN18@UnmountAll:
  0004d	48 85 d2	 test	 rdx, rdx
  00050	74 16		 je	 SHORT $LN12@UnmountAll
  00052	48 8b 42 40	 mov	 rax, QWORD PTR [rdx+64]
  00056	44 39 40 10	 cmp	 DWORD PTR [rax+16], r8d
  0005a	7e 0c		 jle	 SHORT $LN12@UnmountAll
  0005c	39 68 10	 cmp	 DWORD PTR [rax+16], ebp
  0005f	7f 07		 jg	 SHORT $LN12@UnmountAll
  00061	44 8b 40 10	 mov	 r8d, DWORD PTR [rax+16]
  00065	48 8b f2	 mov	 rsi, rdx
$LN12@UnmountAll:
  00068	48 ff c1	 inc	 rcx
  0006b	48 83 f9 19	 cmp	 rcx, 25
  0006f	7e cb		 jle	 SHORT $LN30@UnmountAll
  00071	48 85 f6	 test	 rsi, rsi
  00074	74 49		 je	 SHORT $LN22@UnmountAll

; 2821 : 	{
; 2822 : 		PEXTENSION ListExtension = (PEXTENSION) ListDevice->DeviceExtension;

  00076	48 8b 7e 40	 mov	 rdi, QWORD PTR [rsi+64]

; 2823 : 		maxUniqueId = ListExtension->UniqueVolumeId - 1;
; 2824 : 
; 2825 : 		if (IsVolumeAccessibleByCurrentUser (ListExtension))

  0007a	48 8b cf	 mov	 rcx, rdi
  0007d	8b 6f 10	 mov	 ebp, DWORD PTR [rdi+16]
  00080	ff cd		 dec	 ebp
  00082	e8 00 00 00 00	 call	 IsVolumeAccessibleByCurrentUser
  00087	85 c0		 test	 eax, eax
  00089	74 a5		 je	 SHORT $LL5@UnmountAll

; 2826 : 		{
; 2827 : 			NTSTATUS ntStatus;
; 2828 : 
; 2829 : 			if (unmountRequest)

  0008b	48 85 db	 test	 rbx, rbx
  0008e	74 05		 je	 SHORT $LN2@UnmountAll

; 2830 : 				unmountRequest->nDosDriveNo = ListExtension->nDosDriveNo;

  00090	8b 47 14	 mov	 eax, DWORD PTR [rdi+20]
  00093	89 03		 mov	 DWORD PTR [rbx], eax
$LN2@UnmountAll:

; 2831 : 
; 2832 : 			ntStatus = UnmountDevice (unmountRequest, ListDevice, ignoreOpenFiles);

  00095	45 8b c5	 mov	 r8d, r13d
  00098	48 8b d6	 mov	 rdx, rsi
  0009b	48 8b cb	 mov	 rcx, rbx
  0009e	e8 00 00 00 00	 call	 UnmountDevice

; 2833 : 			status = ntStatus == 0 ? status : ntStatus;

  000a3	85 c0		 test	 eax, eax
  000a5	41 0f 44 c4	 cmove	 eax, r12d
  000a9	44 8b e0	 mov	 r12d, eax

; 2834 : 
; 2835 : 			if (unmountRequest && unmountRequest->HiddenVolumeProtectionTriggered)

  000ac	48 85 db	 test	 rbx, rbx
  000af	0f 84 7b ff ff
	ff		 je	 $LL5@UnmountAll
  000b5	83 7b 08 00	 cmp	 DWORD PTR [rbx+8], 0

; 2836 : 				break;
; 2837 : 		}
; 2838 : 	}

  000b9	0f 84 71 ff ff
	ff		 je	 $LL5@UnmountAll
$LN22@UnmountAll:

; 2839 : 
; 2840 : 	return status;
; 2841 : }

  000bf	48 8b 5c 24 40	 mov	 rbx, QWORD PTR [rsp+64]
  000c4	48 8b 6c 24 48	 mov	 rbp, QWORD PTR [rsp+72]
  000c9	48 8b 74 24 50	 mov	 rsi, QWORD PTR [rsp+80]
  000ce	41 8b c4	 mov	 eax, r12d
  000d1	48 83 c4 20	 add	 rsp, 32			; 00000020H
  000d5	41 5d		 pop	 r13
  000d7	41 5c		 pop	 r12
  000d9	5f		 pop	 rdi
  000da	c3		 ret	 0
UnmountAllDevices ENDP
PUBLIC	VolumeThreadProc
;	COMDAT pdata
; File c:\winddk\7600.16385.1\inc\ddk\wdm.h
pdata	SEGMENT
$pdata$VolumeThreadProc DD imagerel $LN29
	DD	imagerel $LN29+612
	DD	imagerel $unwind$VolumeThreadProc
pdata	ENDS
;	COMDAT xdata
xdata	SEGMENT
$unwind$VolumeThreadProc DD 0c1c01H
	DD	0e641cH
	DD	0d541cH
	DD	0c341cH
	DD	0f018521cH
	DD	0d014e016H
	DD	07010c012H
; Function compile flags: /Ogspy
; File c:\users\public\desktop\projects\ciphershed\src\driver\ntdriver.c
xdata	ENDS
;	COMDAT VolumeThreadProc
_TEXT	SEGMENT
Context$ = 96
VolumeThreadProc PROC					; COMDAT

; 1768 : {

$LN29:
  00000	48 89 5c 24 08	 mov	 QWORD PTR [rsp+8], rbx
  00005	48 89 6c 24 10	 mov	 QWORD PTR [rsp+16], rbp
  0000a	48 89 74 24 18	 mov	 QWORD PTR [rsp+24], rsi
  0000f	57		 push	 rdi
  00010	41 54		 push	 r12
  00012	41 55		 push	 r13
  00014	41 56		 push	 r14
  00016	41 57		 push	 r15
  00018	48 83 ec 30	 sub	 rsp, 48			; 00000030H

; 1769 : 	PTHREAD_BLOCK pThreadBlock = (PTHREAD_BLOCK) Context;
; 1770 : 	PDEVICE_OBJECT DeviceObject = pThreadBlock->DeviceObject;

  0001c	48 8b 29	 mov	 rbp, QWORD PTR [rcx]
  0001f	48 8b d9	 mov	 rbx, rcx

; 1771 : 	PEXTENSION Extension = (PEXTENSION) DeviceObject->DeviceExtension;
; 1772 : 	BOOL bDevice;
; 1773 : 
; 1774 : 	/* Set thread priority to lowest realtime level. */
; 1775 : 	KeSetPriorityThread (KeGetCurrentThread (), LOW_REALTIME_PRIORITY);

  00022	65 48 8b 0c 25
	88 01 00 00	 mov	 rcx, QWORD PTR gs:392
  0002b	48 8b 7d 40	 mov	 rdi, QWORD PTR [rbp+64]
  0002f	ba 10 00 00 00	 mov	 edx, 16
  00034	ff 15 00 00 00
	00		 call	 QWORD PTR __imp_KeSetPriorityThread

; 1776 : 
; 1777 : 	Dump ("Mount THREAD OPENING VOLUME BEGIN\n");
; 1778 : 
; 1779 : 	if (memcmp (pThreadBlock->mount->wszVolume, WIDE ("\\Device"), 14) != 0)

  0003a	4c 8b 8b 28 02
	00 00		 mov	 r9, QWORD PTR [rbx+552]
  00041	48 8d 0d 00 00
	00 00		 lea	 rcx, OFFSET FLAT:??_C@_1BA@CCLAPIHO@?$AA?2?$AAD?$AAe?$AAv?$AAi?$AAc?$AAe?$AA?$AA@FNODOBFM@
  00048	49 8b 51 10	 mov	 rdx, QWORD PTR [r9+16]
  0004c	45 33 e4	 xor	 r12d, r12d
  0004f	48 3b 11	 cmp	 rdx, QWORD PTR [rcx]
  00052	75 19		 jne	 SHORT $LN27@VolumeThre
  00054	41 8b 51 18	 mov	 edx, DWORD PTR [r9+24]
  00058	3b 51 08	 cmp	 edx, DWORD PTR [rcx+8]
  0005b	75 10		 jne	 SHORT $LN27@VolumeThre
  0005d	66 41 8b 51 1c	 mov	 dx, WORD PTR [r9+28]
  00062	66 3b 51 0c	 cmp	 dx, WORD PTR [rcx+12]
  00066	75 05		 jne	 SHORT $LN27@VolumeThre
  00068	41 8b c4	 mov	 eax, r12d
  0006b	eb 05		 jmp	 SHORT $LN28@VolumeThre
$LN27@VolumeThre:
  0006d	1b c0		 sbb	 eax, eax
  0006f	83 d8 ff	 sbb	 eax, -1
$LN28@VolumeThre:
  00072	41 bd 01 00 00
	00		 mov	 r13d, 1

; 1780 : 	{
; 1781 : 		wcscpy (pThreadBlock->wszMountVolume, WIDE ("\\??\\"));

  00078	48 8d 73 0c	 lea	 rsi, QWORD PTR [rbx+12]
  0007c	41 3b c4	 cmp	 eax, r12d
  0007f	74 3d		 je	 SHORT $LN13@VolumeThre
  00081	48 8d 0d 00 00
	00 00		 lea	 rcx, OFFSET FLAT:??_C@_19JHEHLFPM@?$AA?2?$AA?$DP?$AA?$DP?$AA?2?$AA?$AA@FNODOBFM@
  00088	48 8b d6	 mov	 rdx, rsi
  0008b	48 2b d1	 sub	 rdx, rcx
$LL16@VolumeThre:
  0008e	0f b7 01	 movzx	 eax, WORD PTR [rcx]
  00091	66 89 04 0a	 mov	 WORD PTR [rdx+rcx], ax
  00095	48 83 c1 02	 add	 rcx, 2
  00099	66 41 3b c4	 cmp	 ax, r12w
  0009d	75 ef		 jne	 SHORT $LL16@VolumeThre

; 1782 : 		wcsncat (pThreadBlock->wszMountVolume, pThreadBlock->mount->wszVolume,
; 1783 : 			sizeof (pThreadBlock->wszMountVolume) / 2 - 5);

  0009f	48 8b 93 28 02
	00 00		 mov	 rdx, QWORD PTR [rbx+552]
  000a6	41 b8 07 01 00
	00		 mov	 r8d, 263		; 00000107H
  000ac	48 8b ce	 mov	 rcx, rsi
  000af	48 83 c2 10	 add	 rdx, 16
  000b3	ff 15 00 00 00
	00		 call	 QWORD PTR __imp_wcsncat

; 1784 : 		bDevice = FALSE;

  000b9	45 8b dc	 mov	 r11d, r12d

; 1785 : 	}
; 1786 : 	else

  000bc	eb 1a		 jmp	 SHORT $LN12@VolumeThre
$LN13@VolumeThre:

; 1787 : 	{
; 1788 : 		pThreadBlock->wszMountVolume[0] = 0;
; 1789 : 		wcsncat (pThreadBlock->wszMountVolume, pThreadBlock->mount->wszVolume,
; 1790 : 			sizeof (pThreadBlock->wszMountVolume) / 2 - 1);

  000be	49 8d 51 10	 lea	 rdx, QWORD PTR [r9+16]
  000c2	41 b8 0b 01 00
	00		 mov	 r8d, 267		; 0000010bH
  000c8	48 8b ce	 mov	 rcx, rsi
  000cb	66 44 89 26	 mov	 WORD PTR [rsi], r12w
  000cf	ff 15 00 00 00
	00		 call	 QWORD PTR __imp_wcsncat

; 1791 : 		bDevice = TRUE;

  000d5	45 8b dd	 mov	 r11d, r13d
$LN12@VolumeThre:

; 1792 : 	}
; 1793 : 
; 1794 : 	Dump ("Mount THREAD request for File %ls DriveNumber %d Device = %d\n",
; 1795 : 	      pThreadBlock->wszMountVolume, pThreadBlock->mount->nDosDriveNo, bDevice);
; 1796 : 
; 1797 : 	pThreadBlock->ntCreateStatus = TCOpenVolume (DeviceObject,
; 1798 : 		Extension,
; 1799 : 		pThreadBlock->mount,
; 1800 : 		pThreadBlock->wszMountVolume,
; 1801 : 		bDevice);

  000d8	4c 8b 83 28 02
	00 00		 mov	 r8, QWORD PTR [rbx+552]
  000df	4c 8b ce	 mov	 r9, rsi
  000e2	48 8b d7	 mov	 rdx, rdi
  000e5	48 8b cd	 mov	 rcx, rbp
  000e8	44 89 5c 24 20	 mov	 DWORD PTR [rsp+32], r11d
  000ed	e8 00 00 00 00	 call	 TCOpenVolume

; 1802 : 
; 1803 : 	if (!NT_SUCCESS (pThreadBlock->ntCreateStatus) || pThreadBlock->mount->nReturnCode != 0)

  000f2	41 3b c4	 cmp	 eax, r12d
  000f5	89 43 08	 mov	 DWORD PTR [rbx+8], eax
  000f8	7c 0c		 jl	 SHORT $LN10@VolumeThre
  000fa	48 8b 83 28 02
	00 00		 mov	 rax, QWORD PTR [rbx+552]
  00101	44 39 20	 cmp	 DWORD PTR [rax], r12d
  00104	74 17		 je	 SHORT $LN11@VolumeThre
$LN10@VolumeThre:

; 1804 : 	{
; 1805 : 		KeSetEvent (&Extension->keCreateEvent, 0, FALSE);

  00106	48 8d 4f 28	 lea	 rcx, QWORD PTR [rdi+40]
  0010a	45 33 c0	 xor	 r8d, r8d
  0010d	33 d2		 xor	 edx, edx
  0010f	ff 15 00 00 00
	00		 call	 QWORD PTR __imp_KeSetEvent

; 1806 : 		PsTerminateSystemThread (STATUS_SUCCESS);

  00115	33 c9		 xor	 ecx, ecx
  00117	ff 15 00 00 00
	00		 call	 QWORD PTR __imp_PsTerminateSystemThread
$LN11@VolumeThre:

; 1807 : 	}
; 1808 : 
; 1809 : 	// Start IO queue
; 1810 : 	Extension->Queue.IsFilterDevice = FALSE;
; 1811 : 	Extension->Queue.DeviceObject = DeviceObject;
; 1812 : 	Extension->Queue.CryptoInfo = Extension->cryptoInfo;

  0011d	48 8b 87 90 00
	00 00		 mov	 rax, QWORD PTR [rdi+144]
  00124	44 89 a7 48 01
	00 00		 mov	 DWORD PTR [rdi+328], r12d
  0012b	48 89 af e0 00
	00 00		 mov	 QWORD PTR [rdi+224], rbp
  00132	48 89 87 28 01
	00 00		 mov	 QWORD PTR [rdi+296], rax

; 1813 : 	Extension->Queue.HostFileHandle = Extension->hDeviceFile;

  00139	48 8b 47 78	 mov	 rax, QWORD PTR [rdi+120]
  0013d	48 89 87 30 01
	00 00		 mov	 QWORD PTR [rdi+304], rax

; 1814 : 	Extension->Queue.VirtualDeviceLength = Extension->DiskLength;

  00144	48 8b 87 a0 00
	00 00		 mov	 rax, QWORD PTR [rdi+160]
  0014b	48 89 87 38 01
	00 00		 mov	 QWORD PTR [rdi+312], rax

; 1815 : 	Extension->Queue.MaxReadAheadOffset.QuadPart = Extension->HostLength;

  00152	48 8b 87 98 00
	00 00		 mov	 rax, QWORD PTR [rdi+152]
  00159	48 89 87 b8 02
	00 00		 mov	 QWORD PTR [rdi+696], rax

; 1816 : 
; 1817 : 	if (Extension->SecurityClientContextValid)

  00160	44 39 a7 90 05
	00 00		 cmp	 DWORD PTR [rdi+1424], r12d
  00167	74 10		 je	 SHORT $LN9@VolumeThre

; 1818 : 		Extension->Queue.SecurityClientContext = &Extension->SecurityClientContext;

  00169	48 8d 87 98 05
	00 00		 lea	 rax, QWORD PTR [rdi+1432]
  00170	48 89 87 40 01
	00 00		 mov	 QWORD PTR [rdi+320], rax

; 1819 : 	else

  00177	eb 07		 jmp	 SHORT $LN8@VolumeThre
$LN9@VolumeThre:

; 1820 : 		Extension->Queue.SecurityClientContext = NULL;

  00179	4c 89 a7 40 01
	00 00		 mov	 QWORD PTR [rdi+320], r12
$LN8@VolumeThre:

; 1821 : 
; 1822 : 	pThreadBlock->ntCreateStatus = EncryptedIoQueueStart (&Extension->Queue);

  00180	48 8d 8f e0 00
	00 00		 lea	 rcx, QWORD PTR [rdi+224]
  00187	e8 00 00 00 00	 call	 EncryptedIoQueueStart

; 1823 : 
; 1824 : 	if (!NT_SUCCESS (pThreadBlock->ntCreateStatus))

  0018c	41 3b c4	 cmp	 eax, r12d
  0018f	89 43 08	 mov	 DWORD PTR [rbx+8], eax
  00192	7d 2c		 jge	 SHORT $LN7@VolumeThre

; 1825 : 	{
; 1826 : 		TCCloseVolume (DeviceObject, Extension);

  00194	48 8b d7	 mov	 rdx, rdi
  00197	48 8b cd	 mov	 rcx, rbp
  0019a	e8 00 00 00 00	 call	 TCCloseVolume

; 1827 : 
; 1828 : 		pThreadBlock->mount->nReturnCode = ERR_OS_ERROR;

  0019f	4c 8b 9b 28 02
	00 00		 mov	 r11, QWORD PTR [rbx+552]

; 1829 : 		KeSetEvent (&Extension->keCreateEvent, 0, FALSE);

  001a6	48 8d 4f 28	 lea	 rcx, QWORD PTR [rdi+40]
  001aa	45 33 c0	 xor	 r8d, r8d
  001ad	33 d2		 xor	 edx, edx
  001af	45 89 2b	 mov	 DWORD PTR [r11], r13d
  001b2	ff 15 00 00 00
	00		 call	 QWORD PTR __imp_KeSetEvent

; 1830 : 		PsTerminateSystemThread (STATUS_SUCCESS);

  001b8	33 c9		 xor	 ecx, ecx
  001ba	ff 15 00 00 00
	00		 call	 QWORD PTR __imp_PsTerminateSystemThread
$LN7@VolumeThre:

; 1831 : 	}
; 1832 : 
; 1833 : 	KeSetEvent (&Extension->keCreateEvent, 0, FALSE);

  001c0	48 8d 4f 28	 lea	 rcx, QWORD PTR [rdi+40]
  001c4	45 33 c0	 xor	 r8d, r8d
  001c7	33 d2		 xor	 edx, edx
  001c9	ff 15 00 00 00
	00		 call	 QWORD PTR __imp_KeSetEvent
$LL6@VolumeThre:

; 1834 : 	/* From this point on pThreadBlock cannot be used as it will have been released! */
; 1835 : 	pThreadBlock = NULL;
; 1836 : 
; 1837 : 	for (;;)
; 1838 : 	{
; 1839 : 		/* Wait for a request from the dispatch routines. */
; 1840 : 		KeWaitForSingleObject ((PVOID) & Extension->RequestSemaphore, Executive, KernelMode, FALSE, NULL);

  001cf	48 8d 4f 58	 lea	 rcx, QWORD PTR [rdi+88]
  001d3	45 33 c9	 xor	 r9d, r9d
  001d6	45 33 c0	 xor	 r8d, r8d
  001d9	33 d2		 xor	 edx, edx
  001db	4c 89 64 24 20	 mov	 QWORD PTR [rsp+32], r12
  001e0	ff 15 00 00 00
	00		 call	 QWORD PTR __imp_KeWaitForSingleObject

; 1841 : 
; 1842 : 		for (;;)
; 1843 : 		{
; 1844 : 			PIO_STACK_LOCATION irpSp;
; 1845 : 			PLIST_ENTRY request;
; 1846 : 			PIRP irp;
; 1847 : 
; 1848 : 			request = ExInterlockedRemoveHeadList (&Extension->ListEntry, &Extension->ListSpinLock);

  001e6	48 8d 57 40	 lea	 rdx, QWORD PTR [rdi+64]
  001ea	48 8d 4f 48	 lea	 rcx, QWORD PTR [rdi+72]
  001ee	ff 15 00 00 00
	00		 call	 QWORD PTR __imp_ExInterlockedRemoveHeadList

; 1849 : 			if (request == NULL)

  001f4	49 3b c4	 cmp	 rax, r12
  001f7	74 41		 je	 SHORT $LN25@VolumeThre
$LL4@VolumeThre:

; 1850 : 				break;
; 1851 : 
; 1852 : 			irp = CONTAINING_RECORD (request, IRP, Tail.Overlay.ListEntry);

  001f9	48 8d 98 58 ff
	ff ff		 lea	 rbx, QWORD PTR [rax-168]

; 1853 : 			irpSp = IoGetCurrentIrpStackLocation (irp);
; 1854 : 
; 1855 : 			ASSERT (irpSp->MajorFunction == IRP_MJ_DEVICE_CONTROL);
; 1856 : 
; 1857 : 			ProcessVolumeDeviceControlIrp (DeviceObject, Extension, irp);

  00200	48 8b d7	 mov	 rdx, rdi
  00203	48 8b cd	 mov	 rcx, rbp
  00206	4c 8b c3	 mov	 r8, rbx
  00209	e8 00 00 00 00	 call	 ProcessVolumeDeviceControlIrp

; 1858 : 			IoReleaseRemoveLock (&Extension->Queue.RemoveLock, irp);

  0020e	48 8d 8f 80 01
	00 00		 lea	 rcx, QWORD PTR [rdi+384]
  00215	41 b8 20 00 00
	00		 mov	 r8d, 32			; 00000020H
  0021b	48 8b d3	 mov	 rdx, rbx
  0021e	ff 15 00 00 00
	00		 call	 QWORD PTR __imp_IoReleaseRemoveLockEx
  00224	48 8d 57 40	 lea	 rdx, QWORD PTR [rdi+64]
  00228	48 8d 4f 48	 lea	 rcx, QWORD PTR [rdi+72]
  0022c	ff 15 00 00 00
	00		 call	 QWORD PTR __imp_ExInterlockedRemoveHeadList
  00232	48 85 c0	 test	 rax, rax
  00235	75 c2		 jne	 SHORT $LL4@VolumeThre
  00237	45 33 e4	 xor	 r12d, r12d
$LN25@VolumeThre:

; 1859 : 		}
; 1860 : 
; 1861 : 		if (Extension->bThreadShouldQuit)

  0023a	44 39 67 1c	 cmp	 DWORD PTR [rdi+28], r12d
  0023e	74 8f		 je	 SHORT $LL6@VolumeThre

; 1862 : 		{
; 1863 : 			Dump ("Closing volume\n");
; 1864 : 			EncryptedIoQueueStop (&Extension->Queue);

  00240	48 8d 8f e0 00
	00 00		 lea	 rcx, QWORD PTR [rdi+224]
  00247	e8 00 00 00 00	 call	 EncryptedIoQueueStop

; 1865 : 
; 1866 : 			TCCloseVolume (DeviceObject, Extension);

  0024c	48 8b d7	 mov	 rdx, rdi
  0024f	48 8b cd	 mov	 rcx, rbp
  00252	e8 00 00 00 00	 call	 TCCloseVolume

; 1867 : 			PsTerminateSystemThread (STATUS_SUCCESS);

  00257	33 c9		 xor	 ecx, ecx
  00259	ff 15 00 00 00
	00		 call	 QWORD PTR __imp_PsTerminateSystemThread
  0025f	e9 6b ff ff ff	 jmp	 $LL6@VolumeThre
VolumeThreadProc ENDP
_TEXT	ENDS
PUBLIC	TCStartVolumeThread
;	COMDAT pdata
; File c:\winddk\7600.16385.1\inc\ddk\wdm.h
pdata	SEGMENT
$pdata$TCStartVolumeThread DD imagerel $LN12
	DD	imagerel $LN12+382
	DD	imagerel $unwind$TCStartVolumeThread
pdata	ENDS
;	COMDAT xdata
xdata	SEGMENT
$unwind$TCStartVolumeThread DD 081701H
	DD	0146417H
	DD	0135417H
	DD	0123417H
	DD	07010f217H
; Function compile flags: /Ogspy
; File c:\users\public\desktop\projects\ciphershed\src\driver\ntdriver.c
xdata	ENDS
;	COMDAT TCStartVolumeThread
_TEXT	SEGMENT
qos$ = 64
threadObjAttributes$ = 80
DeviceObject$ = 144
Extension$ = 152
mount$ = 160
hThread$ = 168
TCStartVolumeThread PROC				; COMDAT

; 1640 : {

$LN12:
  00000	48 89 5c 24 08	 mov	 QWORD PTR [rsp+8], rbx
  00005	48 89 6c 24 10	 mov	 QWORD PTR [rsp+16], rbp
  0000a	48 89 74 24 18	 mov	 QWORD PTR [rsp+24], rsi
  0000f	57		 push	 rdi
  00010	48 81 ec 80 00
	00 00		 sub	 rsp, 128		; 00000080H
  00017	49 8b d8	 mov	 rbx, r8
  0001a	48 8b f2	 mov	 rsi, rdx
  0001d	48 8b e9	 mov	 rbp, rcx

; 1641 : 	PTHREAD_BLOCK pThreadBlock = TCalloc (sizeof (THREAD_BLOCK));

  00020	ba 30 02 00 00	 mov	 edx, 560		; 00000230H
  00025	33 c9		 xor	 ecx, ecx
  00027	41 b8 54 43 4d
	4d		 mov	 r8d, 1296909140		; 4d4d4354H
