; Listing generated by Microsoft (R) Optimizing Compiler Version 15.00.30729.01 

	TITLE	c:\home\public\Desktop\projects\ciphershed.build\src\Crypto\Cast.c
	.686P
	.XMM
	include listing.inc
	.model	flat

INCLUDELIB LIBCMT
INCLUDELIB OLDNAMES

CONST	SEGMENT
_S	DD	030fb40d4H
	DD	09fa0ff0bH
	DD	06beccd2fH
	DD	03f258c7aH
	DD	01e213f2fH
	DD	09c004dd3H
	DD	06003e540H
	DD	0cf9fc949H
	DD	0bfd4af27H
	DD	088bbbdb5H
	DD	0e2034090H
	DD	098d09675H
	DD	06e63a0e0H
	DD	015c361d2H
	DD	0c2e7661dH
	DD	022d4ff8eH
	DD	028683b6fH
	DD	0c07fd059H
	DD	0ff2379c8H
	DD	0775f50e2H
	DD	043c340d3H
	DD	0df2f8656H
	DD	0887ca41aH
	DD	0a2d2bd2dH
	DD	0a1c9e0d6H
	DD	0346c4819H
	DD	061b76d87H
	DD	022540f2fH
	DD	02abe32e1H
	DD	0aa54166bH
	DD	022568e3aH
	DD	0a2d341d0H
	DD	066db40c8H
	DD	0a784392fH
	DD	04dff2fH
	DD	02db9d2deH
	DD	097943facH
	DD	04a97c1d8H
	DD	0527644b7H
	DD	0b5f437a7H
	DD	0b82cbaefH
	DD	0d751d159H
	DD	06ff7f0edH
	DD	05a097a1fH
	DD	0827b68d0H
	DD	090ecf52eH
	DD	022b0c054H
	DD	0bc8e5935H
	DD	04b6d2f7fH
	DD	050bb64a2H
	DD	0d2664910H
	DD	0bee5812dH
	DD	0b7332290H
	DD	0e93b159fH
	DD	0b48ee411H
	DD	04bff345dH
	DD	0fd45c240H
	DD	0ad31973fH
	DD	0c4f6d02eH
	DD	055fc8165H
	DD	0d5b1caadH
	DD	0a1ac2daeH
	DD	0a2d4b76dH
	DD	0c19b0c50H
	DD	0882240f2H
	DD	0c6e4f38H
	DD	0a4e4bfd7H
	DD	04f5ba272H
	DD	0564c1d2fH
	DD	0c59c5319H
	DD	0b949e354H
	DD	0b04669feH
	DD	0b1b6ab8aH
	DD	0c71358ddH
	DD	06385c545H
	DD	0110f935dH
	DD	057538ad5H
	DD	06a390493H
	DD	0e63d37e0H
	DD	02a54f6b3H
	DD	03a787d5fH
	DD	06276a0b5H
	DD	019a6fcdfH
	DD	07a42206aH
	DD	029f9d4d5H
	DD	0f61b1891H
	DD	0bb72275eH
	DD	0aa508167H
	DD	038901091H
	DD	0c6b505ebH
	DD	084c7cb8cH
	DD	02ad75a0fH
	DD	0874a1427H
	DD	0a2d1936bH
	DD	02ad286afH
	DD	0aa56d291H
	DD	0d7894360H
	DD	0425c750dH
	DD	093b39e26H
	DD	0187184c9H
	DD	06c00b32dH
	DD	073e2bb14H
	DD	0a0bebc3cH
	DD	054623779H
	DD	064459eabH
	DD	03f328b82H
	DD	07718cf82H
	DD	059a2cea6H
	DD	04ee002eH
	DD	089fe78e6H
	DD	03fab0950H
	DD	0325ff6c2H
	DD	081383f05H
	DD	06963c5c8H
	DD	076cb5ad6H
	DD	0d49974c9H
	DD	0ca180dcfH
	DD	0380782d5H
	DD	0c7fa5cf6H
	DD	08ac31511H
	DD	035e79e13H
	DD	047da91d0H
	DD	0f40f9086H
	DD	0a7e2419eH
	DD	031366241H
	DD	051ef495H
	DD	0aa573b04H
	DD	04a805d8dH
	DD	0548300d0H
	DD	0322a3cH
	DD	0bf64cddfH
	DD	0ba57a68eH
	DD	075c6372bH
	DD	050afd341H
	DD	0a7c13275H
	DD	0915a0bf5H
	DD	06b54bfabH
	DD	02b0b1426H
	DD	0ab4cc9d7H
	DD	0449ccd82H
	DD	0f7fbf265H
	DD	0ab85c5f3H
	DD	01b55db94H
	DD	0aad4e324H
	DD	0cfa4bd3fH
	DD	02deaa3e2H
	DD	09e204d02H
	DD	0c8bd25acH
	DD	0eadf55b3H
	DD	0d5bd9e98H
	DD	0e31231b2H
	DD	02ad5ad6cH
	DD	0954329deH
	DD	0adbe4528H
	DD	0d8710f69H
	DD	0aa51c90fH
	DD	0aa786bf6H
	DD	022513f1eH
	DD	0aa51a79bH
	DD	02ad344ccH
	DD	07b5a41f0H
	DD	0d37cfbadH
	DD	01b069505H
	DD	041ece491H
	DD	0b4c332e6H
	DD	032268d4H
	DD	0c9600accH
	DD	0ce387e6dH
	DD	0bf6bb16cH
	DD	06a70fb78H
	DD	0d03d9c9H
	DD	0d4df39deH
	DD	0e01063daH
	DD	04736f464H
	DD	05ad328d8H
	DD	0b347cc96H
	DD	075bb0fc3H
	DD	098511bfbH
	DD	04ffbcc35H
	DD	0b58bcf6aH
	DD	0e11f0abcH
	DD	0bfc5fe4aH
	DD	0a70aec10H
	DD	0ac39570aH
	DD	03f04442fH
	DD	06188b153H
	DD	0e0397a2eH
	DD	05727cb79H
	DD	09ceb418fH
	DD	01cacd68dH
	DD	02ad37c96H
	DD	0175cb9dH
	DD	0c69dff09H
	DD	0c75b65f0H
	DD	0d9db40d8H
	DD	0ec0e7779H
	DD	04744ead4H
	DD	0b11c3274H
	DD	0dd24cb9eH
	DD	07e1c54bdH
	DD	0f01144f9H
	DD	0d2240eb1H
	DD	09675b3fdH
	DD	0a3ac3755H
	DD	0d47c27afH
	DD	051c85f4dH
	DD	056907596H
	DD	0a5bb15e6H
	DD	0580304f0H
	DD	0ca042cf1H
	DD	011a37eaH
	DD	08dbfaadbH
	DD	035ba3e4aH
	DD	03526ffa0H
	DD	0c37b4d09H
	DD	0bc306ed9H
	DD	098a52666H
	DD	05648f725H
	DD	0ff5e569dH
	DD	0ced63d0H
	DD	07c63b2cfH
	DD	0700b45e1H
	DD	0d5ea50f1H
	DD	085a92872H
	DD	0af1fbda7H
	DD	0d4234870H
	DD	0a7870bf3H
	DD	02d3b4d79H
	DD	042e04198H
	DD	0cd0ede7H
	DD	026470db8H
	DD	0f881814cH
	DD	0474d6ad7H
	DD	07c0c5e5cH
	DD	0d1231959H
	DD	0381b7298H
	DD	0f5d2f4dbH
	DD	0ab838653H
	DD	06e2f1e23H
	DD	083719c9eH
	DD	0bd91e046H
	DD	09a56456eH
	DD	0dc39200cH
	DD	020c8c571H
	DD	0962bda1cH
	DD	0e1e696ffH
	DD	0b141ab08H
	DD	07cca89b9H
	DD	01a69e783H
	DD	02cc4843H
	DD	0a2f7c579H
	DD	0429ef47dH
	DD	0427b169cH
	DD	05ac9f049H
	DD	0dd8f0f00H
	DD	05c8165bfH
	DD	01f201094H
	DD	0ef0ba75bH
	DD	069e3cf7eH
	DD	0393f4380H
	DD	0fe61cf7aH
	DD	0eec5207aH
	DD	055889c94H
	DD	072fc0651H
	DD	0ada7ef79H
	DD	04e1d7235H
	DD	0d55a63ceH
	DD	0de0436baH
	DD	099c430efH
	DD	05f0c0794H
	DD	018dcdb7dH
	DD	0a1d6eff3H
	DD	0a0b52f7bH
	DD	059e83605H
	DD	0ee15b094H
	DD	0e9ffd909H
	DD	0dc440086H
	DD	0ef944459H
	DD	0ba83ccb3H
	DD	0e0c3cdfbH
	DD	0d1da4181H
	DD	03b092ab1H
	DD	0f997f1c1H
	DD	0a5e6cf7bH
	DD	01420ddbH
	DD	0e4e7ef5bH
	DD	025a1ff41H
	DD	0e180f806H
	DD	01fc41080H
	DD	0179bee7aH
	DD	0d37ac6a9H
	DD	0fe5830a4H
	DD	098de8b7fH
	DD	077e83f4eH
	DD	079929269H
	DD	024fa9f7bH
	DD	0e113c85bH
	DD	0acc40083H
	DD	0d7503525H
	DD	0f7ea615fH
	DD	062143154H
	DD	0d554b63H
	DD	05d681121H
	DD	0c866c359H
	DD	03d63cf73H
	DD	0cee234c0H
	DD	0d4d87e87H
	DD	05c672b21H
	DD	071f6181H
	DD	039f7627fH
	DD	0361e3084H
	DD	0e4eb573bH
	DD	0602f64a4H
	DD	0d63acd9cH
	DD	01bbc4635H
	DD	09e81032dH
	DD	02701f50cH
	DD	099847ab4H
	DD	0a0e3df79H
	DD	0ba6cf38cH
	DD	010843094H
	DD	02537a95eH
	DD	0f46f6ffeH
	DD	0a1ff3b1fH
	DD	0208cfb6aH
	DD	08f458c74H
	DD	0d9e0a227H
	DD	04ec73a34H
	DD	0fc884f69H
	DD	03e4de8dfH
	DD	0ef0e0088H
	DD	03559648dH
	DD	08a45388cH
	DD	01d804366H
	DD	0721d9bfdH
	DD	0a58684bbH
	DD	0e8256333H
	DD	0844e8212H
	DD	0128d8098H
	DD	0fed33fb4H
	DD	0ce280ae1H
	DD	027e19ba5H
	DD	0d5a6c252H
	DD	0e49754bdH
	DD	0c5d655ddH
	DD	0eb667064H
	DD	077840b4dH
	DD	0a1b6a801H
	DD	084db26a9H
	DD	0e0b56714H
	DD	021f043b7H
	DD	0e5d05860H
	DD	054f03084H
	DD	066ff472H
	DD	0a31aa153H
	DD	0dadc4755H
	DD	0b5625dbfH
	DD	068561be6H
	DD	083ca6b94H
	DD	02d6ed23bH
	DD	0eccf01dbH
	DD	0a6d3d0baH
	DD	0b6803d5cH
	DD	0af77a709H
	DD	033b4a34cH
	DD	0397bc8d6H
	DD	05ee22b95H
	DD	05f0e5304H
	DD	081ed6f61H
	DD	020e74364H
	DD	0b45e1378H
	DD	0de18639bH
	DD	0881ca122H
	DD	0b96726d1H
	DD	08049a7e8H
	DD	022b7da7bH
	DD	05e552d25H
	DD	05272d237H
	DD	079d2951cH
	DD	0c60d894cH
	DD	0488cb402H
	DD	01ba4fe5bH
	DD	0a4b09f6bH
	DD	01ca815cfH
	DD	0a20c3005H
	DD	08871df63H
	DD	0b9de2fcbH
	DD	0cc6c9e9H
	DD	0beeff53H
	DD	0e3214517H
	DD	0b4542835H
	DD	09f63293cH
	DD	0ee41e729H
	DD	06e1d2d7cH
	DD	050045286H
	DD	01e6685f3H
	DD	0f33401c6H
	DD	030a22c95H
	DD	031a70850H
	DD	060930f13H
	DD	073f98417H
	DD	0a1269859H
	DD	0ec645c44H
	DD	052c877a9H
	DD	0cdff33a6H
	DD	0a02b1741H
	DD	07cbad9a2H
	DD	02180036fH
	DD	050d99c08H
	DD	0cb3f4861H
	DD	0c26bd765H
	DD	064a3f6abH
	DD	080342676H
	DD	025a75e7bH
	DD	0e4e6d1fcH
	DD	020c710e6H
	DD	0cdf0b680H
	DD	017844d3bH
	DD	031eef84dH
	DD	07e0824e4H
	DD	02ccb49ebH
	DD	0846a3baeH
	DD	08ff77888H
	DD	0ee5d60f6H
	DD	07af75673H
	DD	02fdd5cdbH
	DD	0a11631c1H
	DD	030f66f43H
	DD	0b3faec54H
	DD	0157fd7faH
	DD	0ef8579ccH
	DD	0d152de58H
	DD	0db2ffd5eH
	DD	08f32ce19H
	DD	0306af97aH
	DD	02f03ef8H
	DD	099319ad5H
	DD	0c242fa0fH
	DD	0a7e3ebb0H
	DD	0c68e4906H
	DD	0b8da230cH
	DD	080823028H
	DD	0dcdef3c8H
	DD	0d35fb171H
	DD	088a1bc8H
	DD	0bec0c560H
	DD	061a3c9e8H
	DD	0bca8f54dH
	DD	0c72feffaH
	DD	022822e99H
	DD	082c570b4H
	DD	0d8d94e89H
	DD	08b1c34bcH
	DD	0301e16e6H
	DD	0273be979H
	DD	0b0ffeaa6H
	DD	061d9b8c6H
	DD	0b24869H
	DD	0b7ffce3fH
	DD	08dc283bH
	DD	043daf65aH
	DD	0f7e19798H
	DD	07619b72fH
	DD	08f1c9ba4H
	DD	0dc8637a0H
	DD	016a7d3b1H
	DD	09fc393b7H
	DD	0a7136eebH
	DD	0c6bcc63eH
	DD	01a513742H
	DD	0ef6828bcH
	DD	0520365d6H
	DD	02d6a77abH
	DD	03527ed4bH
	DD	0821fd216H
	DD	095c6e2eH
	DD	0db92f2fbH
	DD	05eea29cbH
	DD	0145892f5H
	DD	091584f7fH
	DD	05483697bH
	DD	02667a8ccH
	DD	085196048H
	DD	08c4baceaH
	DD	0833860d4H
	DD	0d23e0f9H
	DD	06c387e8aH
	DD	0ae6d249H
	DD	0b284600cH
	DD	0d835731dH
	DD	0dcb1c647H
	DD	0ac4c56eaH
	DD	03ebd81b3H
	DD	0230eabb0H
	DD	06438bc87H
	DD	0f0b5b1faH
	DD	08f5ea2b3H
	DD	0fc184642H
	DD	0a036b7aH
	DD	04fb089bdH
	DD	0649da589H
	DD	0a345415eH
	DD	05c038323H
	DD	03e5d3bb9H
	DD	043d79572H
	DD	07e6dd07cH
	DD	06dfdf1eH
	DD	06c6cc4efH
	DD	07160a539H
	DD	073bfbe70H
	DD	083877605H
	DD	04523ecf1H
	DD	08defc240H
	DD	025fa5d9fH
	DD	0eb903dbfH
	DD	0e810c907H
	DD	047607fffH
	DD	0369fe44bH
	DD	08c1fc644H
	DD	0aececa90H
	DD	0beb1f9bfH
	DD	0eefbcaeaH
	DD	0e8cf1950H
	DD	051df07aeH
	DD	0920e8806H
	DD	0f0ad0548H
	DD	0e13c8d83H
	DD	0927010d5H
	DD	011107d9fH
	DD	07647db9H
	DD	0b2e3e4d4H
	DD	03d4f285eH
	DD	0b9afa820H
	DD	0fade82e0H
	DD	0a067268bH
	DD	08272792eH
	DD	0553fb2c0H
	DD	0489ae22bH
	DD	0d4ef9794H
	DD	0125e3fbcH
	DD	021fffceeH
	DD	0825b1bfdH
	DD	09255c5edH
	DD	01257a240H
	DD	04e1a8302H
	DD	0bae07fffH
	DD	0528246e7H
	DD	08e57140eH
	DD	03373f7bfH
	DD	08c9f8188H
	DD	0a6fc4ee8H
	DD	0c982b5a5H
	DD	0a8c01db7H
	DD	0579fc264H
	DD	067094f31H
	DD	0f2bd3f5fH
	DD	040fff7c1H
	DD	01fb78dfcH
	DD	08e6bd2c1H
	DD	0437be59bH
	DD	099b03dbfH
	DD	0b5dbc64bH
	DD	0638dc0e6H
	DD	055819d99H
	DD	0a197c81cH
	DD	04a012d6eH
	DD	0c5884a28H
	DD	0ccc36f71H
	DD	0b843c213H
	DD	06c0743f1H
	DD	08309893cH
	DD	0feddd5fH
	DD	02f7fe850H
	DD	0d7c07f7eH
	DD	02507fbfH
	DD	05afb9a04H
	DD	0a747d2d0H
	DD	01651192eH
	DD	0af70bf3eH
	DD	058c31380H
	DD	05f98302eH
	DD	0727cc3c4H
	DD	0a0fb402H
	DD	0f7fef82H
	DD	08c96fdadH
	DD	05d2c2aaeH
	DD	08ee99a49H
	DD	050da88b8H
	DD	08427f4a0H
	DD	01eac5790H
	DD	0796fb449H
	DD	08252dc15H
	DD	0efbd7d9bH
	DD	0a672597dH
	DD	0ada840d8H
	DD	045f54504H
	DD	0fa5d7403H
	DD	0e83ec305H
	DD	04f91751aH
	DD	0925669c2H
	DD	023efe941H
	DD	0a903f12eH
	DD	060270df2H
	DD	0276e4b6H
	DD	094fd6574H
	DD	0927985b2H
	DD	08276dbcbH
	DD	02778176H
	DD	0f8af918dH
	DD	04e48f79eH
	DD	08f616ddfH
	DD	0e29d840eH
	DD	0842f7d83H
	DD	0340ce5c8H
	DD	096bbb682H
	DD	093b4b148H
	DD	0ef303cabH
	DD	0984faf28H
	DD	0779faf9bH
	DD	092dc560dH
	DD	0224d1e20H
	DD	08437aa88H
	DD	07d29dc96H
	DD	02756d3dcH
	DD	08b907ceeH
	DD	0b51fd240H
	DD	0e7c07ce3H
	DD	0e566b4a1H
	DD	0c3e9615eH
	DD	03cf8209dH
	DD	06094d1e3H
	DD	0cd9ca341H
	DD	05c76460eH
	DD	0ea983bH
	DD	0d4d67881H
	DD	0fd47572cH
	DD	0f76cedd9H
	DD	0bda8229cH
	DD	0127dadaaH
	DD	0438a074eH
	DD	01f97c090H
	DD	081bdb8aH
	DD	093a07ebeH
	DD	0b938ca15H
	DD	097b03cffH
	DD	03dc2c0f8H
	DD	08d1ab2ecH
	DD	064380e51H
	DD	068cc7bfbH
	DD	0d90f2788H
	DD	012490181H
	DD	05de5ffd4H
	DD	0dd7ef86aH
	DD	076a2e214H
	DD	0b9a40368H
	DD	0925d958fH
	DD	04b39fffaH
	DD	0ba39aee9H
	DD	0a4ffd30bH
	DD	0faf7933bH
	DD	06d498623H
	DD	0193cbcfaH
	DD	027627545H
	DD	0825cf47aH
	DD	061bd8ba0H
	DD	0d11e42d1H
	DD	0cead04f4H
	DD	0127ea392H
	DD	010428db7H
	DD	08272a972H
	DD	09270c4a8H
	DD	0127de50bH
	DD	0285ba1c8H
	DD	03c62f44fH
	DD	035c0eaa5H
	DD	0e805d231H
	DD	0428929fbH
	DD	0b4fcdf82H
	DD	04fb66a53H
	DD	0e7dc15bH
	DD	01f081fabH
	DD	0108618aeH
	DD	0fcfd086dH
	DD	0f9ff2889H
	DD	0694bcc11H
	DD	0236a5caeH
	DD	012deca4dH
	DD	02c3f8cc5H
	DD	0d2d02dfeH
	DD	0f8ef5896H
	DD	0e4cf52daH
	DD	095155b67H
	DD	0494a488cH
	DD	0b9b6a80cH
	DD	05c8f82bcH
	DD	089d36b45H
	DD	03a609437H
	DD	0ec00c9a9H
	DD	044715253H
	DD	0a874b49H
	DD	0d773bc40H
	DD	07c34671cH
	DD	02717ef6H
	DD	04feb5536H
	DD	0a2d02fffH
	DD	0d2bf60c4H
	DD	0d43f03c0H
	DD	050b4ef6dH
	DD	07478cd1H
	DD	06e1888H
	DD	0a2e53f55H
	DD	0b9e6d4bcH
	DD	0a2048016H
	DD	097573833H
	DD	0d7207d67H
	DD	0de0f8f3dH
	DD	072f87b33H
	DD	0abcc4f33H
	DD	07688c55dH
	DD	07b00a6b0H
	DD	0947b0001H
	DD	0570075d2H
	DD	0f9bb88f8H
	DD	08942019eH
	DD	04264a5ffH
	DD	0856302e0H
	DD	072dbd92bH
	DD	0ee971b69H
	DD	06ea22fdeH
	DD	05f08ae2bH
	DD	0af7a616dH
	DD	0e5c98767H
	DD	0cf1febd2H
	DD	061efc8c2H
	DD	0f1ac2571H
	DD	0cc8239c2H
	DD	067214cb8H
	DD	0b1e583d1H
	DD	0b7dc3e62H
	DD	07f10bdceH
	DD	0f90a5c38H
	DD	0ff0443dH
	DD	0606e6dc6H
	DD	060543a49H
	DD	05727c148H
	DD	02be98a1dH
	DD	08ab41738H
	DD	020e1be24H
	DD	0af96da0fH
	DD	068458425H
	DD	099833be5H
	DD	0600d457dH
	DD	0282f9350H
	DD	08334b362H
	DD	0d91d1120H
	DD	02b6d8da0H
	DD	0642b1e31H
	DD	09c305a00H
	DD	052bce688H
	DD	01b03588aH
	DD	0f7baefd5H
	DD	04142ed9cH
	DD	0a4315c11H
	DD	083323ec5H
	DD	0dfef4636H
	DD	0a133c501H
	DD	0e9d3531cH
	DD	0ee353783H
	DD	09db30420H
	DD	01fb6e9deH
	DD	0a7be7befH
	DD	0d273a298H
	DD	04a4f7bdbH
	DD	064ad8c57H
	DD	085510443H
	DD	0fa020ed1H
	DD	07e287affH
	DD	0e60fb663H
	DD	095f35a1H
	DD	079ebf120H
	DD	0fd059d43H
	DD	06497b7b1H
	DD	0f3641f63H
	DD	0241e4adfH
	DD	028147f5fH
	DD	04fa2b8cdH
	DD	0c9430040H
	DD	0cc32220H
	DD	0fdd30b30H
	DD	0c0a5374fH
	DD	01d2d00d9H
	DD	024147b15H
	DD	0ee4d111aH
	DD	0fca5167H
	DD	071ff904cH
	DD	02d195ffeH
	DD	01a05645fH
	DD	0c13fefeH
	DD	081b08caH
	DD	05170121H
	DD	080530100H
	DD	0e83e5efeH
	DD	0ac9af4f8H
	DD	07fe72701H
	DD	0d2b8ee5fH
	DD	06df4261H
	DD	0bb9e9b8aH
	DD	07293ea25H
	DD	0ce84ffdfH
	DD	0f5718801H
	DD	03dd64b04H
	DD	0a26f263bH
	DD	07ed48400H
	DD	0547eebe6H
	DD	0446d4ca0H
	DD	06cf3d6f5H
	DD	02649abdfH
	DD	0aea0c7f5H
	DD	036338cc1H
	DD	0503f7e93H
	DD	0d3772061H
	DD	011b638e1H
	DD	072500e03H
	DD	0f80eb2bbH
	DD	0abe0502eH
	DD	0ec8d77deH
	DD	057971e81H
	DD	0e14f6746H
	DD	0c9335400H
	DD	06920318fH
	DD	081dbb99H
	DD	0ffc304a5H
	DD	04d351805H
	DD	07f3d5ce3H
	DD	0a6c866c6H
	DD	05d5bcca9H
	DD	0daec6feaH
	DD	09f926f91H
	DD	09f46222fH
	DD	03991467dH
	DD	0a5bf6d8eH
	DD	01143c44fH
	DD	043958302H
	DD	0d0214eebH
	DD	022083b8H
	DD	03fb6180cH
	DD	018f8931eH
	DD	0281658e6H
	DD	026486e3eH
	DD	08bd78a70H
	DD	07477e4c1H
	DD	0b506e07cH
	DD	0f32d0a25H
	DD	079098b02H
	DD	0e4eabb81H
	DD	028123b23H
	DD	069dead38H
	DD	01574ca16H
	DD	0df871b62H
	DD	0211c40b7H
	DD	0a51a9ef9H
	DD	014377bH
	DD	041e8ac8H
	DD	09114003H
	DD	0bd59e4d2H
	DD	0e3d156d5H
	DD	04fe876d5H
	DD	02f91a340H
	DD	0557be8deH
	DD	0eae4a7H
	DD	0ce5c2ecH
	DD	04db4bba6H
	DD	0e756bdffH
	DD	0dd3369acH
	DD	0ec17b035H
	DD	06572327H
	DD	099afc8b0H
	DD	056c8c391H
	DD	06b65811cH
	DD	05e146119H
	DD	06e85cb75H
	DD	0be07c002H
	DD	0c2325577H
	DD	0893ff4ecH
	DD	05bbfc92dH
	DD	0d0ec3b25H
	DD	0b7801ab7H
	DD	08d6d3b24H
	DD	020c763efH
	DD	0c366a5fcH
	DD	09c382880H
	DD	0ace3205H
	DD	0aac9548aH
	DD	0eca1d7c7H
	DD	041afa32H
	DD	01d16625aH
	DD	06701902cH
	DD	09b757a54H
	DD	031d477f7H
	DD	09126b031H
	DD	036cc6fdbH
	DD	0c70b8b46H
	DD	0d9e66a48H
	DD	056e55a79H
	DD	026a4cebH
	DD	052437effH
	DD	02f8f76b4H
	DD	0df980a5H
	DD	08674cde3H
	DD	0edda04ebH
	DD	017a9be04H
	DD	02c18f4dfH
	DD	0b7747f9dH
	DD	0ab2af7b4H
	DD	0efc34d20H
	DD	02e096b7cH
	DD	01741a254H
	DD	0e5b6a035H
	DD	0213d42f6H
	DD	02c1c7c26H
	DD	061c2f50fH
	DD	06552daf9H
	DD	0d2c231f8H
	DD	025130f69H
	DD	0d8167fa2H
	DD	0418f2c8H
	DD	01a96a6H
	DD	0d1526abH
	DD	063315c21H
	DD	05e0a72ecH
	DD	049bafefdH
	DD	0187908d9H
	DD	08d0dbd86H
	DD	0311170a7H
	DD	03e9b640cH
	DD	0cc3e10d7H
	DD	0d5cad3b6H
	DD	0caec388H
	DD	0f73001e1H
	DD	06c728affH
	DD	071eae2a1H
	DD	01f9af36eH
	DD	0cfcbd12fH
	DD	0c1de8417H
	DD	0ac07be6bH
	DD	0cb44a1d8H
	DD	08b9b0f56H
	DD	013988c3H
	DD	0b1c52fcaH
	DD	0b4be31cdH
	DD	0d8782806H
	DD	012a3a4e2H
	DD	06f7de532H
	DD	058fd7eb6H
	DD	0d01ee900H
	DD	024adffc2H
	DD	0f4990fc5H
	DD	09711aac5H
	DD	01d7b95H
	DD	082e5e7d2H
	DD	0109873f6H
	DD	0613096H
	DD	0c32d9521H
	DD	0ada121ffH
	DD	029908415H
	DD	07fbb977fH
	DD	0af9eb3dbH
	DD	029c9ed2aH
	DD	05ce2a465H
	DD	0a730f32cH
	DD	0d0aa3fe8H
	DD	08a5cc091H
	DD	0d49e2ce7H
	DD	0ce454a9H
	DD	0d60acd86H
	DD	015f1919H
	DD	077079103H
	DD	0dea03af6H
	DD	078a8565eH
	DD	0dee356dfH
	DD	021f05cbeH
	DD	08b75e387H
	DD	0b3c50651H
	DD	0b8a5c3efH
	DD	0d8eeb6d2H
	DD	0e523be77H
	DD	0c2154529H
	DD	02f69efdfH
	DD	0afe67afbH
	DD	0f470c4b2H
	DD	0f3e0eb5bH
	DD	0d6cc9876H
	DD	039e4460cH
	DD	01fda8538H
	DD	01987832fH
	DD	0ca007367H
	DD	0a99144f8H
	DD	0296b299eH
	DD	0492fc295H
	DD	09266beabH
	DD	0b5676e69H
	DD	09bd3dddaH
	DD	0df7e052fH
	DD	0db25701cH
	DD	01b5e51eeH
	DD	0f65324e6H
	DD	06afce36cH
	DD	0316cc04H
	DD	08644213eH
	DD	0b7dc59d0H
	DD	07965291fH
	DD	0ccd6fd43H
	DD	041823979H
	DD	0932bcdf6H
	DD	0b657c34dH
	DD	04edfd282H
	DD	07ae5290cH
	DD	03cb9536bH
	DD	0851e20feH
	DD	09833557eH
	DD	013ecf0b0H
	DD	0d3ffb372H
	DD	03f85c5c1H
	DD	0aef7ed2H
	DD	07ec90c04H
	DD	02c6e74b9H
	DD	09b0e66dfH
	DD	0a6337911H
	DD	0b86a7fffH
	DD	01dd358f5H
	DD	044dd9d44H
	DD	01731167fH
	DD	08fbf1faH
	DD	0e7f511ccH
	DD	0d2051b00H
	DD	0735aba00H
	DD	02ab722d8H
	DD	0386381cbH
	DD	0acf6243aH
	DD	069befd7aH
	DD	0e6a2e77fH
	DD	0f0c720cdH
	DD	0c4494816H
	DD	0ccf5c180H
	DD	038851640H
	DD	015b0a848H
	DD	0e68b18cbH
	DD	04caadeffH
	DD	05f480a01H
	DD	0412b2aaH
	DD	0259814fcH
	DD	041d0efe2H
	DD	04e40b48dH
	DD	0248eb6fbH
	DD	08dba1cfeH
	DD	041a99b02H
	DD	01a550a04H
	DD	0ba8f65cbH
	DD	07251f4e7H
	DD	095a51725H
	DD	0c106ecd7H
	DD	097a5980aH
	DD	0c539b9aaH
	DD	04d79fe6aH
	DD	0f2f3f763H
	DD	068af8040H
	DD	0ed0c9e56H
	DD	011b4958bH
	DD	0e1eb5a88H
	DD	08709e6b0H
	DD	0d7e07156H
	DD	04e29fea7H
	DD	06366e52dH
	DD	02d1c000H
	DD	0c4ac8e05H
	DD	09377f571H
	DD	0c05372aH
	DD	0578535f2H
	DD	02261be02H
	DD	0d642a0c9H
	DD	0df13a280H
	DD	074b55bd2H
	DD	0682199c0H
	DD	0d421e5ecH
	DD	053fb3ce8H
	DD	0c8adedb3H
	DD	028a87fc9H
	DD	03d959981H
	DD	05c1ff900H
	DD	0fe38d399H
	DD	0c4eff0bH
	DD	062407eaH
	DD	0aa2f4fb1H
	DD	04fb96976H
	DD	090c79505H
	DD	0b0a8a774H
	DD	0ef55a1ffH
	DD	0e59ca2c2H
	DD	0a6b62d27H
	DD	0e66a4263H
	DD	0df65001fH
	DD	0ec50966H
	DD	0dfdd55bcH
	DD	029de0655H
	DD	0911e739aH
	DD	017af8975H
	DD	032c7911cH
	DD	089f89468H
	DD	0d01e980H
	DD	0524755f4H
	DD	03b63cc9H
	DD	0cc844b2H
	DD	0bcf3f0aaH
	DD	087ac36e9H
	DD	0e53a7426H
	DD	01b3d82bH
	DD	01a9e7449H
	DD	064ee2d7eH
	DD	0cddbb1daH
	DD	01c94910H
	DD	0b868bf80H
	DD	0d26f3fdH
	DD	09342ede7H
	DD	04a5c284H
	DD	0636737b6H
	DD	050f5b616H
	DD	0f24766e3H
	DD	08eca36c1H
	DD	0136e05dbH
	DD	0fef18391H
	DD	0fb887a37H
	DD	0d6e7f7d4H
	DD	0c7fb7dc9H
	DD	03063fcdfH
	DD	0b6f589deH
	DD	0ec2941daH
	DD	026e46695H
	DD	0b7566419H
	DD	0f654efc5H
	DD	0d08d58b7H
	DD	048925401H
	DD	0c1bacb7fH
	DD	0e5ff550fH
	DD	0b6083049H
	DD	05bb5d0e8H
	DD	087d72e5aH
	DD	0ab6a6ee1H
	DD	0223a66ceH
	DD	0c62bf3cdH
	DD	09e0885f9H
	DD	068cb3e47H
	DD	086c010fH
	DD	0a21de820H
	DD	0d18b69deH
	DD	0f3f65777H
	DD	0fa02c3f6H
	DD	0407edac3H
	DD	0cbb3d550H
	DD	01793084dH
	DD	0b0d70ebaH
	DD	0ab378d5H
	DD	0d951fb0cH
	DD	0ded7da56H
	DD	04124bbe4H
	DD	094ca0b56H
	DD	0f5755d1H
	DD	0e0e1e56eH
	DD	06184b5beH
	DD	0580a249fH
	DD	094f74bc0H
	DD	0e327888eH
	DD	09f7b5561H
	DD	0c3dc0280H
	DD	05687715H
	DD	0646c6bd7H
	DD	044904db3H
	DD	066b4f0a3H
	DD	0c0f1648aH
	DD	0697ed5afH
	DD	049e92ff6H
	DD	0309e374fH
	DD	02cb6356aH
	DD	085808573H
	DD	04991f840H
	DD	076f0ae02H
	DD	083be84dH
	DD	028421c9aH
	DD	044489406H
	DD	0736e4cb8H
	DD	0c1092910H
	DD	08bc95fc6H
	DD	07d869cf4H
	DD	0134f616fH
	DD	02e77118dH
	DD	0b31b2be1H
	DD	0aa90b472H
	DD	03ca5d717H
	DD	07d161bbaH
	DD	09cad9010H
	DD	0af462ba2H
	DD	09fe459d2H
	DD	045d34559H
	DD	0d9f2da13H
	DD	0dbc65487H
	DD	0f3e4f94eH
	DD	0176d486fH
	DD	097c13eaH
	DD	0631da5c7H
	DD	0445f7382H
	DD	0175683f4H
	DD	0cdc66a97H
	DD	070be0288H
	DD	0b3cdcf72H
	DD	06e5dd2f3H
	DD	020936079H
	DD	0459b80a5H
	DD	0be60e2dbH
	DD	0a9c23101H
	DD	0eba5315cH
	DD	0224e42f2H
	DD	01c5c1572H
	DD	0f6721b2cH
	DD	01ad2fff3H
	DD	08c25404eH
	DD	0324ed72fH
	DD	04067b7fdH
	DD	0523138eH
	DD	05ca3bc78H
	DD	0dc0fd66eH
	DD	075922283H
	DD	0784d6b17H
	DD	058ebb16eH
	DD	044094f85H
	DD	03f481d87H
	DD	0fcfeae7bH
	DD	077b5ff76H
	DD	08c2302bfH
	DD	0aaf47556H
	DD	05f46b02aH
	DD	02b092801H
	DD	03d38f5f7H
	DD	0ca81f36H
	DD	052af4a8aH
	DD	066d5e7c0H
	DD	0df3b0874H
	DD	095055110H
	DD	01b5ad7a8H
	DD	0f61ed5adH
	DD	06cf6e479H
	DD	020758184H
	DD	0d0cefa65H
	DD	088f7be58H
	DD	04a046826H
	DD	0ff6f8f3H
	DD	0a09c7f70H
	DD	05346aba0H
	DD	05ce96c28H
	DD	0e176eda3H
	DD	06bac307fH
	DD	0376829d2H
	DD	085360fa9H
	DD	017e3fe2aH
	DD	024b79767H
	DD	0f5a96b20H
	DD	0d6cd2595H
	DD	068ff1ebfH
	DD	07555442cH
	DD	0f19f06beH
	DD	0f9e0659aH
	DD	0eeb9491dH
	DD	034010718H
	DD	0bb30cab8H
	DD	0e822fe15H
	DD	088570983H
	DD	0750e6249H
	DD	0da627e55H
	DD	05e76ffa8H
	DD	0b1534546H
	DD	06d47de08H
	DD	0efe9e7d4H
	DD	0f6fa8f9dH
	DD	02cac6ce1H
	DD	04ca34867H
	DD	0e2337f7cH
	DD	095db08e7H
	DD	016843b4H
	DD	0eced5cbcH
	DD	0325553acH
	DD	0bf9f0960H
	DD	0dfa1e2edH
	DD	083f0579dH
	DD	063ed86b9H
	DD	01ab6a6b8H
	DD	0de5ebe39H
	DD	0f38ff732H
	DD	08989b138H
	DD	033f14961H
	DD	0c01937bdH
	DD	0f506c6daH
	DD	0e4625e7eH
	DD	0a308ea99H
	DD	04e23e33cH
	DD	079cbd7ccH
	DD	048a14367H
	DD	0a3149619H
	DD	0fec94bd5H
	DD	0a114174aH
	DD	0eaa01866H
	DD	0a084db2dH
	DD	09a8486fH
	DD	0a888614aH
	DD	02900af98H
	DD	01665991H
	DD	0e1992863H
	DD	0c8f30c60H
	DD	02e78ef3cH
	DD	0d0d51932H
	DD	0cf0fec14H
	DD	0f7ca07d2H
	DD	0d0a82072H
	DD	0fd41197eH
	DD	09305a6b0H
	DD	0e86be3daH
	DD	074bed3cdH
	DD	0372da53cH
	DD	04c7f4448H
	DD	0dab5d440H
	DD	06dba0ec3H
	DD	083919a7H
	DD	09fbaeed9H
	DD	049dbcfb0H
	DD	04e670c53H
	DD	05c3d9c01H
	DD	064bdb941H
	DD	02c0e636aH
	DD	0ba7dd9cdH
	DD	0ea6f7388H
	DD	0e70bc762H
	DD	035f29adbH
	DD	05c4cdd8dH
	DD	0f0d48d8cH
	DD	0b88153e2H
	DD	08a19866H
	DD	01ae2eac8H
	DD	0284caf89H
	DD	0aa928223H
	DD	09334be53H
	DD	03b3a21bfH
	DD	016434be3H
	DD	09aea3906H
	DD	0efe8c36eH
	DD	0f890cdd9H
	DD	080226daeH
	DD	0c340a4a3H
	DD	0df7e9c09H
	DD	0a694a807H
	DD	05b7c5eccH
	DD	0221db3a6H
	DD	09a69a02fH
	DD	068818a54H
	DD	0ceb2296fH
	DD	053c0843aH
	DD	0fe893655H
	DD	025bfe68aH
	DD	0b4628abcH
	DD	0cf222ebfH
	DD	025ac6f48H
	DD	0a9a99387H
	DD	053bddb65H
	DD	0e76ffbe7H
	DD	0e967fd78H
	DD	0ba93563H
	DD	08e342bc1H
	DD	0e8a11be9H
	DD	04980740dH
	DD	0c8087dfcH
	DD	08de4bf99H
	DD	0a11101a0H
	DD	07fd37975H
	DD	0da5a26c0H
	DD	0e81f994fH
	DD	09528cd89H
	DD	0fd339fedH
	DD	0b87834bfH
	DD	05f04456dH
	DD	022258698H
	DD	0c9c4c83bH
	DD	02dc156beH
	DD	04f628daaH
	DD	057f55ec5H
	DD	0e2220abeH
	DD	0d2916ebfH
	DD	04ec75b95H
	DD	024f2c3c0H
	DD	042d15d99H
	DD	0cd0d7fa0H
	DD	07b6e27ffH
	DD	0a8dc8af0H
	DD	07345c106H
	DD	0f41e232fH
	DD	035162386H
	DD	0e6ea8926H
	DD	03333b094H
	DD	0157ec6f2H
	DD	0372b74afH
	DD	0692573e4H
	DD	0e9a9d848H
	DD	0f3160289H
	DD	03a62ef1dH
	DD	0a787e238H
	DD	0f3a5f676H
	DD	074364853H
	DD	020951063H
	DD	04576698dH
	DD	0b6fad407H
	DD	0592af950H
	DD	036f73523H
	DD	04cfb6e87H
	DD	07da4cec0H
	DD	06c152daaH
	DD	0cb0396a8H
	DD	0c50dfe5dH
	DD	0fcd707abH
	DD	0921c42fH
	DD	089dff0bbH
	DD	05fe2be78H
	DD	0448f4f33H
	DD	0754613c9H
	DD	02b05d08dH
	DD	048b9d585H
	DD	0dc049441H
	DD	0c8098f9bH
	DD	07dede786H
	DD	0c39a3373H
	DD	042410005H
	DD	06a091751H
	DD	0ef3c8a6H
	DD	0890072d6H
	DD	028207682H
	DD	0a9a9f7beH
	DD	0bf32679dH
	DD	0d45b5b75H
	DD	0b353fd00H
	DD	0cbb0e358H
	DD	0830f220aH
	DD	01f8fb214H
	DD	0d372cf08H
	DD	0cc3c4a13H
	DD	08cf63166H
	DD	061c87beH
	DD	088c98f88H
	DD	06062e397H
	DD	047cf8e7aH
	DD	0b6c85283H
	DD	03cc2acfbH
	DD	03fc06976H
	DD	04e8f0252H
	DD	064d8314dH
	DD	0da3870e3H
	DD	01e665459H
	DD	0c10908f0H
	DD	0513021a5H
	DD	06c5b68b7H
	DD	0822f8aa0H
	DD	03007cd3eH
	DD	074719eefH
	DD	0dc872681H
	DD	073340d4H
	DD	07e432fd9H
	DD	0c5ec241H
	DD	08809286cH
	DD	0f592d891H
	DD	08a930f6H
	DD	0957ef305H
	DD	0b7fbffbdH
	DD	0c266e96fH
	DD	06fe4ac98H
	DD	0b173ecc0H
	DD	0bc60b42aH
	DD	0953498daH
	DD	0fba1ae12H
	DD	02d4bd736H
	DD	0f25faabH
	DD	0a4f3fcebH
	DD	0e2969123H
	DD	0257f0c3dH
	DD	09348af49H
	DD	0361400bcH
	DD	0e8816f4aH
	DD	03814f200H
	DD	0a3f94043H
	DD	09c7a54c2H
	DD	0bc704f57H
	DD	0da41e7f9H
	DD	0c25ad33aH
	DD	054f4a084H
	DD	0b17f5505H
	DD	059357cbeH
	DD	0edbd15c8H
	DD	07f97c5abH
	DD	0ba5ac7b5H
	DD	0b6f6deafH
	DD	03a479c3aH
	DD	05302da25H
	DD	0653d7e6aH
	DD	054268d49H
	DD	051a477eaH
	DD	05017d55bH
	DD	0d7d25d88H
	DD	044136c76H
	DD	0404a8c8H
	DD	0b8e5a121H
	DD	0b81a928aH
	DD	060ed5869H
	DD	097c55b96H
	DD	0eaec991bH
	DD	029935913H
	DD	01fdb7f1H
	DD	088e8dfaH
	DD	09ab6f6f5H
	DD	03b4cbf9fH
	DD	04a5de3abH
	DD	0e6051d35H
	DD	0a0e1d855H
	DD	0d36b4cf1H
	DD	0f544edebH
	DD	0b0e93524H
	DD	0bebb8fbdH
	DD	0a2d762cfH
	DD	049c92f54H
	DD	038b5f331H
	DD	07128a454H
	DD	048392905H
	DD	0a65b1db8H
	DD	0851c97bdH
	DD	0d675cf2fH
	DD	085e04019H
	DD	0332bf567H
	DD	0662dbfffH
	DD	0cfc65693H
	DD	02a8d7f6fH
	DD	0ab9bc912H
	DD	0de6008a1H
	DD	02028da1fH
	DD	0227bce7H
	DD	04d642916H
	DD	018fac300H
	DD	050f18b82H
	DD	02cb2cb11H
	DD	0b232e75cH
	DD	04b3695f2H
	DD	0b28707deH
	DD	0a05fbcf6H
	DD	0cd4181e9H
	DD	0e150210cH
	DD	0e24ef1bdH
	DD	0b168c381H
	DD	0fde4e789H
	DD	05c79b0d8H
	DD	01e8bfd43H
	DD	04d495001H
	DD	038be4341H
	DD	0913cee1dH
	DD	092a79c3fH
	DD	089766beH
	DD	0baeeadf4H
	DD	01286becfH
	DD	0b6eacb19H
	DD	02660c200H
	DD	07565bde4H
	DD	064241f7aH
	DD	08248dca9H
	DD	0c3b3ad66H
	DD	028136086H
	DD	0bd8dfa8H
	DD	0356d1cf2H
	DD	0107789beH
	DD	0b3b2e9ceH
	DD	0502aa8fH
	DD	0bc0351eH
	DD	0166bf52aH
	DD	0eb12ff82H
	DD	0e3486911H
	DD	0d34d7516H
	DD	04e7b3affH
	DD	05f43671bH
	DD	09cf6e037H
	DD	04981ac83H
	DD	0334266ceH
	DD	08c9341b7H
	DD	0d0d854c0H
	DD	0cb3a6c88H
	DD	047bc2829H
	DD	04725ba37H
	DD	0a66ad22bH
	DD	07ad61f1eH
	DD	0c5cbafaH
	DD	04437f107H
	DD	0b6e79962H
	DD	042d2d816H
	DD	0a961288H
	DD	0e1a5c06eH
	DD	013749e67H
	DD	072fc081aH
	DD	0b1d139f7H
	DD	0f9583745H
	DD	0cf19df58H
	DD	0bec3f756H
	DD	0c06eba30H
	DD	07211b24H
	DD	045c28829H
	DD	0c95e317fH
	DD	0bc8ec511H
	DD	038bc46e9H
	DD	0c6e6fa14H
	DD	0bae8584aH
	DD	0ad4ebc46H
	DD	0468f508bH
	DD	07829435fH
	DD	0f124183bH
	DD	0821dba9fH
	DD	0aff60ff4H
	DD	0ea2c4e6dH
	DD	016e39264H
	DD	092544a8bH
	DD	09b4fc3H
	DD	0aba68cedH
	DD	09ac96f78H
	DD	06a5b79aH
	DD	0b2856e6eH
	DD	01aec3ca9H
	DD	0be838688H
	DD	0e0804e9H
	DD	055f1be56H
	DD	0e7e5363bH
	DD	0b3a1f25dH
	DD	0f7debb85H
	DD	061fe033cH
	DD	016746233H
	DD	03c034c28H
	DD	0da6d0c74H
	DD	079aac56cH
	DD	03ce4e1adH
	DD	051f0c802H
	DD	098f8f35aH
	DD	01626a49fH
	DD	0eed82b29H
	DD	01d382fe3H
	DD	0c4fb99aH
	DD	0bb325778H
	DD	03ec6d97bH
	DD	06e77a6a9H
	DD	0cb658b5cH
	DD	0d45230c7H
	DD	02bd1408bH
	DD	060c03eb7H
	DD	0b9068d78H
	DD	0a33754f4H
	DD	0f430c87dH
	DD	0c8a71302H
	DD	0b96d8c32H
	DD	0ebd4e7beH
	DD	0be8b9d2dH
	DD	07979fb06H
	DD	0e7225308H
	DD	08b75cf77H
	DD	011ef8da4H
	DD	0e083c858H
	DD	08d6b786fH
	DD	05a6317a6H
	DD	0fa5cf7a0H
	DD	05dda0033H
	DD	0f28ebfb0H
	DD	0f5b9c310H
	DD	0a0eac280H
	DD	08b9767aH
	DD	0a3d9d2b0H
	DD	079d34217H
	DD	021a718dH
	DD	09ac6336aH
	DD	02711fd60H
	DD	0438050e3H
	DD	069908a8H
	DD	03d7fedc4H
	DD	0826d2befH
	DD	04eeb8476H
	DD	0488dcf25H
	DD	036c9d566H
	DD	028e74e41H
	DD	0c2610acaH
	DD	03d49a9cfH
	DD	0bae3b9dfH
	DD	0b65f8de6H
	DD	092aeaf64H
	DD	03ac7d5e6H
	DD	09ea80509H
	DD	0f22b017dH
	DD	0a4173f70H
	DD	0dd1e16c3H
	DD	015e0d7f9H
	DD	050b1b887H
	DD	02b9f4fd5H
	DD	0625aba82H
	DD	06a017962H
	DD	02ec01b9cH
	DD	015488aa9H
	DD	0d716e740H
	DD	040055a2cH
	DD	093d29a22H
	DD	0e32dbf9aH
	DD	058745b9H
	DD	03453dc1eH
	DD	0d699296eH
	DD	0496cff6fH
	DD	01c9f4986H
	DD	0dfe2ed07H
	DD	0b87242d1H
	DD	019de7eaeH
	DD	053e561aH
	DD	015ad6f8cH
	DD	066626c1cH
	DD	07154c24cH
	DD	0ea082b2aH
	DD	093eb2939H
	DD	017dcb0f0H
	DD	058d4f2aeH
	DD	09ea294fbH
	DD	052cf564cH
	DD	09883fe66H
	DD	02ec40581H
	DD	0763953c3H
	DD	01d6692eH
	DD	0d3a0c108H
	DD	0a1e7160eH
	DD	0e4f2dfa6H
	DD	0693ed285H
	DD	074904698H
	DD	04c2b0eddH
	DD	04f757656H
	DD	05d393378H
	DD	0a132234fH
	DD	03d321c5dH
	DD	0c3f5e194H
	DD	04b269301H
	DD	0c79f022fH
	DD	03c997e7eH
	DD	05e4f9504H
	DD	03ffafbbdH
	DD	076f7ad0eH
	DD	0296693f4H
	DD	03d1fce6fH
	DD	0c61e45beH
	DD	0d3b5ab34H
	DD	0f72bf9b7H
	DD	01b0434c0H
	DD	04e72b567H
	DD	05592a33dH
	DD	0b5229301H
	DD	0cfd2a87fH
	DD	060aeb767H
	DD	01814386bH
	DD	030bcc33dH
	DD	038a0c07dH
	DD	0fd1606f2H
	DD	0c363519bH
	DD	0589dd390H
	DD	05479f8e6H
	DD	01cb8d647H
	DD	097fd61a9H
	DD	0ea7759f4H
	DD	02d57539dH
	DD	0569a58cfH
	DD	0e84e63adH
	DD	0462e1b78H
	DD	06580f87eH
	DD	0f3817914H
	DD	091da55f4H
	DD	040a230f3H
	DD	0d1988f35H
	DD	0b6e318d2H
	DD	03ffa50bcH
	DD	03d40f021H
	DD	0c3c0bdaeH
	DD	04958c24cH
	DD	0518f36b2H
	DD	084b1d370H
	DD	0fedce83H
	DD	0878ddadaH
	DD	0f2a279c7H
	DD	094e01be8H
	DD	090716f4bH
	DD	0954b8aa3H
	DD	0e216300dH
	DD	0bbddfffcH
	DD	0a7ebdabdH
	DD	035648095H
	DD	07789f8b7H
	DD	0e6c1121bH
	DD	0e241600H
	DD	052ce8b5H
	DD	011a9cfb0H
	DD	0e5952f11H
	DD	0ece7990aH
	DD	09386d174H
	DD	02a42931cH
	DD	076e38111H
	DD	0b12def3aH
	DD	037ddddfcH
	DD	0de9adeb1H
	DD	0a0cc32cH
	DD	0be197029H
	DD	084a00940H
	DD	0bb243a0fH
	DD	0b4d137cfH
	DD	0b44e79f0H
	DD	049eedfdH
	DD	0b15a15dH
	DD	0480d3168H
	DD	08bbbde5aH
	DD	0669ded42H
	DD	0c7ece831H
	DD	03f8f95e7H
	DD	072df191bH
	DD	07580330dH
	DD	094074251H
	DD	05c7dcdfaH
	DD	0abbe6d63H
	DD	0aa402164H
	DD	0b301d40aH
	DD	02e7d1caH
	DD	053571daeH
	DD	07a3182a2H
	DD	012a8ddecH
	DD	0fdaa335dH
	DD	0176f43e8H
	DD	071fb46d4H
	DD	038129022H
	DD	0ce949ad4H
	DD	0b84769adH
	DD	0965bd862H
	DD	082f3d055H
	DD	066fb9767H
	DD	015b80b4eH
	DD	01d5b47a0H
	DD	04cfde06fH
	DD	0c28ec4b8H
	DD	057e8726eH
	DD	0647a78fcH
	DD	099865d44H
	DD	0608bd593H
	DD	06c200e03H
	DD	039dc5ff6H
	DD	05d0b00a3H
	DD	0ae63aff2H
	DD	07e8bd632H
	DD	070108c0cH
	DD	0bbd35049H
	DD	02998df04H
	DD	0980cf42aH
	DD	09b6df491H
	DD	09e7edd53H
	DD	06918548H
	DD	058cb7e07H
	DD	03b74ef2eH
	DD	0522fffb1H
	DD	0d24708ccH
	DD	01c7e27cdH
	DD	0a4eb215bH
	DD	03cf1d2e2H
	DD	019b47a38H
	DD	0424f7618H
	DD	035856039H
	DD	09d17dee7H
	DD	027eb35e6H
	DD	0c9aff67bH
	DD	036baf5b8H
	DD	09c467cdH
	DD	0c18910b1H
	DD	0e11dbf7bH
	DD	06cd1af8H
	DD	07170c608H
	DD	02d5e3354H
	DD	0d4de495aH
	DD	064c6d006H
	DD	0bcc0c62cH
	DD	03dd00db3H
	DD	0708f8f34H
	DD	077d51b42H
	DD	0264f620fH
	DD	024b8d2bfH
	DD	015c1b79eH
	DD	046a52564H
	DD	0f8d7e54eH
	DD	03e378160H
	DD	07895cda5H
	DD	0859c15a5H
	DD	0e6459788H
	DD	0c37bc75fH
	DD	0db07ba0cH
	DD	0676a3abH
	DD	07f229b1eH
	DD	031842e7bH
	DD	024259fd7H
	DD	0f8bef472H
	DD	0835ffcb8H
	DD	06df4c1f2H
	DD	096f5b195H
	DD	0fd0af0fcH
	DD	0b0fe134cH
	DD	0e2506d3dH
	DD	04f9b12eaH
	DD	0f215f225H
	DD	0a223736fH
	DD	09fb4c428H
	DD	025d04979H
	DD	034c713f8H
	DD	0c4618187H
	DD	0ea7a6e98H
	DD	07cd16efcH
	DD	01436876cH
	DD	0f1544107H
	DD	0bedeee14H
	DD	056e9af27H
	DD	0a04aa441H
	DD	03cf7c899H
	DD	092ecbae6H
	DD	0dd67016dH
	DD	0151682ebH
	DD	0a842eedfH
	DD	0fdba60b4H
	DD	0f1907b75H
	DD	020e3030fH
	DD	024d8c29eH
	DD	0e139673bH
	DD	0efa63fb8H
	DD	071873054H
	DD	0b6f2cf3bH
	DD	09f326442H
	DD	0cb15a4ccH
	DD	0b01a4504H
	DD	0f1e47d8dH
	DD	0844a1be5H
	DD	0bae7dfdcH
	DD	042cbda70H
	DD	0cd7dae0aH
	DD	057e85b7aH
	DD	0d53f5af6H
	DD	020cf4d8cH
	DD	0cea4d428H
	DD	079d130a4H
	DD	03486ebfbH
	DD	033d3cddcH
	DD	077853b53H
	DD	037effcb5H
	DD	0c5068778H
	DD	0e580b3e6H
	DD	04e68b8f4H
	DD	0c5c8b37eH
	DD	0d809ea2H
	DD	0398feb7cH
	DD	0132a4f94H
	DD	043b7950eH
	DD	02fee7d1cH
	DD	0223613bdH
	DD	0dd06caa2H
	DD	037df932bH
	DD	0c4248289H
	DD	0acf3ebc3H
	DD	05715f6b7H
	DD	0ef3478ddH
	DD	0f267616fH
	DD	0c148cbe4H
	DD	09052815eH
	DD	05e410fabH
	DD	0b48a2465H
	DD	02eda7fa4H
	DD	0e87b40e4H
	DD	0e98ea084H
	DD	05889e9e1H
	DD	0efd390fcH
	DD	0dd07d35bH
	DD	0db485694H
	DD	038d7e5b2H
	DD	057720101H
	DD	0730edebcH
	DD	05b643113H
	DD	094917e4fH
	DD	0503c2fbaH
	DD	0646f1282H
	DD	07523d24aH
	DD	0e0779695H
	DD	0f9c17a8fH
	DD	07a5b2121H
	DD	0d187b896H
	DD	029263a4dH
	DD	0ba510cdfH
	DD	081f47c9fH
	DD	0ad1163edH
	DD	0ea7b5965H
	DD	01a00726eH
	DD	011403092H
	DD	0da6d77H
	DD	04a0cdd61H
	DD	0ad1f4603H
	DD	0605bdfb0H
	DD	09eedc364H
	DD	022ebe6a8H
	DD	0cee7d28aH
	DD	0a0e736a0H
	DD	05564a6b9H
	DD	010853209H
	DD	0c7eb8f37H
	DD	02de705caH
	DD	08951570fH
	DD	0df09822bH
	DD	0bd691a6cH
	DD	0aa12e4f2H
	DD	087451c0fH
	DD	0e0f6a27aH
	DD	03ada4819H
	DD	04cf1764fH
	DD	0d771c2bH
	DD	067cdb156H
	DD	0350d8384H
	DD	05938fa0fH
	DD	042399ef3H
	DD	036997b07H
	DD	0e84093dH
	DD	04aa93e61H
	DD	08360d87bH
	DD	01fa98b0cH
	DD	01149382cH
	DD	0e97625a5H
	DD	0614d1b7H
	DD	0e25244bH
	DD	0c768347H
	DD	0589e8d82H
	DD	0d2059d1H
	DD	0a466bb1eH
	DD	0f8da0a82H
	DD	04f19130H
	DD	0ba6e4ec0H
	DD	099265164H
	DD	01ee7230dH
	DD	050b2ad80H
	DD	0eaee6801H
	DD	08db2a283H
	DD	0ea8bf59eH
; Function compile flags: /Ogtpy
; File c:\home\public\desktop\projects\ciphershed.build\src\crypto\cast.c
CONST	ENDS
;	COMDAT _rotlVariable
_TEXT	SEGMENT
_rotlVariable PROC					; COMDAT
; _x$ = eax
; _y$ = ecx

; 26   : 	return (word32)((x<<y) | (x>>(sizeof(word32)*8-y)));

  00000	d3 c0		 rol	 eax, cl

; 27   : }

  00002	c3		 ret	 0
_rotlVariable ENDP
_TEXT	ENDS
PUBLIC	_Cast5Encrypt
EXTRN	_MirrorBytes32:PROC
; Function compile flags: /Ogtpy
;	COMDAT _Cast5Encrypt
_TEXT	SEGMENT
_inBlock$ = 8						; size = 4
_outBlock$ = 12						; size = 4
_key$ = 16						; size = 4
_Cast5Encrypt PROC					; COMDAT

; 589  : {

  00000	53		 push	 ebx
  00001	56		 push	 esi
  00002	57		 push	 edi

; 590  : 	word32 l = BE32 (((word32 *)inBlock)[0]);

  00003	8b 7c 24 10	 mov	 edi, DWORD PTR _inBlock$[esp+8]
  00007	8b 07		 mov	 eax, DWORD PTR [edi]
  00009	50		 push	 eax
  0000a	e8 00 00 00 00	 call	 _MirrorBytes32

; 591  : 	word32 r = BE32 (((word32 *)inBlock)[1]);

  0000f	8b 4f 04	 mov	 ecx, DWORD PTR [edi+4]
  00012	51		 push	 ecx
  00013	8b f0		 mov	 esi, eax
  00015	e8 00 00 00 00	 call	 _MirrorBytes32

; 592  : 	word32 *K = key->K;
; 593  : 	word32 t;
; 594  : 
; 595  : 	/* Do the work */
; 596  : 	F1(l, r,  0, 16);

  0001a	8b 54 24 20	 mov	 edx, DWORD PTR _key$[esp+16]
  0001e	8b 4a 40	 mov	 ecx, DWORD PTR [edx+64]
  00021	8b f8		 mov	 edi, eax
  00023	8b 02		 mov	 eax, DWORD PTR [edx]
  00025	03 c7		 add	 eax, edi
  00027	d3 c0		 rol	 eax, cl
  00029	8b d8		 mov	 ebx, eax
  0002b	c1 eb 10	 shr	 ebx, 16			; 00000010H
  0002e	0f b6 db	 movzx	 ebx, bl
  00031	8b c8		 mov	 ecx, eax
  00033	c1 e9 18	 shr	 ecx, 24			; 00000018H
  00036	8b 0c 8d 00 00
	00 00		 mov	 ecx, DWORD PTR _S[ecx*4]
  0003d	33 0c 9d 00 04
	00 00		 xor	 ecx, DWORD PTR _S[ebx*4+1024]
  00044	8b d8		 mov	 ebx, eax
  00046	c1 eb 08	 shr	 ebx, 8
  00049	0f b6 db	 movzx	 ebx, bl
  0004c	2b 0c 9d 00 08
	00 00		 sub	 ecx, DWORD PTR _S[ebx*4+2048]
  00053	0f b6 c0	 movzx	 eax, al
  00056	03 0c 85 00 0c
	00 00		 add	 ecx, DWORD PTR _S[eax*4+3072]

; 597  : 	F2(r, l,  1, 16);

  0005d	8b 42 04	 mov	 eax, DWORD PTR [edx+4]
  00060	33 f1		 xor	 esi, ecx
  00062	8b 4a 44	 mov	 ecx, DWORD PTR [edx+68]
  00065	33 c6		 xor	 eax, esi
  00067	d3 c0		 rol	 eax, cl
  00069	8b d8		 mov	 ebx, eax
  0006b	c1 eb 10	 shr	 ebx, 16			; 00000010H
  0006e	0f b6 db	 movzx	 ebx, bl
  00071	8b c8		 mov	 ecx, eax
  00073	c1 e9 18	 shr	 ecx, 24			; 00000018H
  00076	8b 0c 8d 00 00
	00 00		 mov	 ecx, DWORD PTR _S[ecx*4]
  0007d	2b 0c 9d 00 04
	00 00		 sub	 ecx, DWORD PTR _S[ebx*4+1024]
  00084	8b d8		 mov	 ebx, eax
  00086	c1 eb 08	 shr	 ebx, 8
  00089	0f b6 db	 movzx	 ebx, bl
  0008c	03 0c 9d 00 08
	00 00		 add	 ecx, DWORD PTR _S[ebx*4+2048]
  00093	0f b6 c0	 movzx	 eax, al
  00096	33 0c 85 00 0c
	00 00		 xor	 ecx, DWORD PTR _S[eax*4+3072]

; 598  : 	F3(l, r,  2, 16);

  0009d	8b 42 08	 mov	 eax, DWORD PTR [edx+8]
  000a0	33 f9		 xor	 edi, ecx
  000a2	8b 4a 48	 mov	 ecx, DWORD PTR [edx+72]
  000a5	2b c7		 sub	 eax, edi
  000a7	d3 c0		 rol	 eax, cl
  000a9	8b d8		 mov	 ebx, eax
  000ab	c1 eb 10	 shr	 ebx, 16			; 00000010H
  000ae	0f b6 db	 movzx	 ebx, bl
  000b1	8b c8		 mov	 ecx, eax
  000b3	c1 e9 18	 shr	 ecx, 24			; 00000018H
  000b6	8b 0c 8d 00 00
	00 00		 mov	 ecx, DWORD PTR _S[ecx*4]
  000bd	03 0c 9d 00 04
	00 00		 add	 ecx, DWORD PTR _S[ebx*4+1024]
  000c4	8b d8		 mov	 ebx, eax
  000c6	c1 eb 08	 shr	 ebx, 8
  000c9	0f b6 db	 movzx	 ebx, bl
  000cc	33 0c 9d 00 08
	00 00		 xor	 ecx, DWORD PTR _S[ebx*4+2048]
  000d3	0f b6 c0	 movzx	 eax, al
  000d6	2b 0c 85 00 0c
	00 00		 sub	 ecx, DWORD PTR _S[eax*4+3072]

; 599  : 	F1(r, l,  3, 16);

  000dd	8b 42 0c	 mov	 eax, DWORD PTR [edx+12]
  000e0	33 f1		 xor	 esi, ecx
  000e2	8b 4a 4c	 mov	 ecx, DWORD PTR [edx+76]
  000e5	03 c6		 add	 eax, esi
  000e7	d3 c0		 rol	 eax, cl
  000e9	8b d8		 mov	 ebx, eax
  000eb	c1 eb 10	 shr	 ebx, 16			; 00000010H
  000ee	0f b6 db	 movzx	 ebx, bl
  000f1	8b c8		 mov	 ecx, eax
  000f3	c1 e9 18	 shr	 ecx, 24			; 00000018H
  000f6	8b 0c 8d 00 00
	00 00		 mov	 ecx, DWORD PTR _S[ecx*4]
  000fd	33 0c 9d 00 04
	00 00		 xor	 ecx, DWORD PTR _S[ebx*4+1024]
  00104	8b d8		 mov	 ebx, eax
  00106	c1 eb 08	 shr	 ebx, 8
  00109	0f b6 db	 movzx	 ebx, bl
  0010c	2b 0c 9d 00 08
	00 00		 sub	 ecx, DWORD PTR _S[ebx*4+2048]
  00113	0f b6 c0	 movzx	 eax, al
  00116	03 0c 85 00 0c
	00 00		 add	 ecx, DWORD PTR _S[eax*4+3072]

; 600  : 	F2(l, r,  4, 16);

  0011d	8b 42 10	 mov	 eax, DWORD PTR [edx+16]
  00120	33 f9		 xor	 edi, ecx
  00122	8b 4a 50	 mov	 ecx, DWORD PTR [edx+80]
  00125	33 c7		 xor	 eax, edi
  00127	d3 c0		 rol	 eax, cl
  00129	8b d8		 mov	 ebx, eax
  0012b	c1 eb 10	 shr	 ebx, 16			; 00000010H
  0012e	0f b6 db	 movzx	 ebx, bl
  00131	8b c8		 mov	 ecx, eax
  00133	c1 e9 18	 shr	 ecx, 24			; 00000018H
  00136	8b 0c 8d 00 00
	00 00		 mov	 ecx, DWORD PTR _S[ecx*4]
  0013d	2b 0c 9d 00 04
	00 00		 sub	 ecx, DWORD PTR _S[ebx*4+1024]
  00144	8b d8		 mov	 ebx, eax
  00146	c1 eb 08	 shr	 ebx, 8
  00149	0f b6 db	 movzx	 ebx, bl
  0014c	03 0c 9d 00 08
	00 00		 add	 ecx, DWORD PTR _S[ebx*4+2048]
  00153	0f b6 c0	 movzx	 eax, al
  00156	33 0c 85 00 0c
	00 00		 xor	 ecx, DWORD PTR _S[eax*4+3072]

; 601  : 	F3(r, l,  5, 16);

  0015d	8b 42 14	 mov	 eax, DWORD PTR [edx+20]
  00160	33 f1		 xor	 esi, ecx
  00162	8b 4a 54	 mov	 ecx, DWORD PTR [edx+84]
  00165	2b c6		 sub	 eax, esi
  00167	d3 c0		 rol	 eax, cl
  00169	8b d8		 mov	 ebx, eax
  0016b	c1 eb 10	 shr	 ebx, 16			; 00000010H
  0016e	0f b6 db	 movzx	 ebx, bl
  00171	8b c8		 mov	 ecx, eax
  00173	c1 e9 18	 shr	 ecx, 24			; 00000018H
  00176	8b 0c 8d 00 00
	00 00		 mov	 ecx, DWORD PTR _S[ecx*4]
  0017d	03 0c 9d 00 04
	00 00		 add	 ecx, DWORD PTR _S[ebx*4+1024]
  00184	8b d8		 mov	 ebx, eax
  00186	c1 eb 08	 shr	 ebx, 8
  00189	0f b6 db	 movzx	 ebx, bl
  0018c	33 0c 9d 00 08
	00 00		 xor	 ecx, DWORD PTR _S[ebx*4+2048]
  00193	0f b6 c0	 movzx	 eax, al
  00196	2b 0c 85 00 0c
	00 00		 sub	 ecx, DWORD PTR _S[eax*4+3072]

; 602  : 	F1(l, r,  6, 16);

  0019d	8b 42 18	 mov	 eax, DWORD PTR [edx+24]
  001a0	33 f9		 xor	 edi, ecx
  001a2	8b 4a 58	 mov	 ecx, DWORD PTR [edx+88]
  001a5	03 c7		 add	 eax, edi
  001a7	d3 c0		 rol	 eax, cl
  001a9	8b d8		 mov	 ebx, eax
  001ab	c1 eb 10	 shr	 ebx, 16			; 00000010H
  001ae	8b c8		 mov	 ecx, eax
  001b0	c1 e9 18	 shr	 ecx, 24			; 00000018H
  001b3	8b 0c 8d 00 00
	00 00		 mov	 ecx, DWORD PTR _S[ecx*4]
  001ba	0f b6 db	 movzx	 ebx, bl
  001bd	33 0c 9d 00 04
	00 00		 xor	 ecx, DWORD PTR _S[ebx*4+1024]
  001c4	8b d8		 mov	 ebx, eax
  001c6	c1 eb 08	 shr	 ebx, 8
  001c9	0f b6 db	 movzx	 ebx, bl
  001cc	2b 0c 9d 00 08
	00 00		 sub	 ecx, DWORD PTR _S[ebx*4+2048]
  001d3	0f b6 c0	 movzx	 eax, al
  001d6	03 0c 85 00 0c
	00 00		 add	 ecx, DWORD PTR _S[eax*4+3072]

; 603  : 	F2(r, l,  7, 16);

  001dd	8b 42 1c	 mov	 eax, DWORD PTR [edx+28]
  001e0	33 f1		 xor	 esi, ecx
  001e2	8b 4a 5c	 mov	 ecx, DWORD PTR [edx+92]
  001e5	33 c6		 xor	 eax, esi
  001e7	d3 c0		 rol	 eax, cl
  001e9	8b d8		 mov	 ebx, eax
  001eb	8b c8		 mov	 ecx, eax
  001ed	c1 e9 18	 shr	 ecx, 24			; 00000018H
  001f0	8b 0c 8d 00 00
	00 00		 mov	 ecx, DWORD PTR _S[ecx*4]
  001f7	c1 eb 10	 shr	 ebx, 16			; 00000010H
  001fa	0f b6 db	 movzx	 ebx, bl
  001fd	2b 0c 9d 00 04
	00 00		 sub	 ecx, DWORD PTR _S[ebx*4+1024]
  00204	8b d8		 mov	 ebx, eax
  00206	c1 eb 08	 shr	 ebx, 8
  00209	0f b6 db	 movzx	 ebx, bl
  0020c	03 0c 9d 00 08
	00 00		 add	 ecx, DWORD PTR _S[ebx*4+2048]
  00213	0f b6 c0	 movzx	 eax, al
  00216	33 0c 85 00 0c
	00 00		 xor	 ecx, DWORD PTR _S[eax*4+3072]

; 604  : 	F3(l, r,  8, 16);

  0021d	8b 42 20	 mov	 eax, DWORD PTR [edx+32]
  00220	33 f9		 xor	 edi, ecx
  00222	8b 4a 60	 mov	 ecx, DWORD PTR [edx+96]
  00225	2b c7		 sub	 eax, edi
  00227	d3 c0		 rol	 eax, cl
  00229	8b c8		 mov	 ecx, eax
  0022b	c1 e9 18	 shr	 ecx, 24			; 00000018H
  0022e	8b 0c 8d 00 00
	00 00		 mov	 ecx, DWORD PTR _S[ecx*4]
  00235	8b d8		 mov	 ebx, eax
  00237	c1 eb 10	 shr	 ebx, 16			; 00000010H
  0023a	0f b6 db	 movzx	 ebx, bl
  0023d	03 0c 9d 00 04
	00 00		 add	 ecx, DWORD PTR _S[ebx*4+1024]
  00244	8b d8		 mov	 ebx, eax
  00246	c1 eb 08	 shr	 ebx, 8
  00249	0f b6 db	 movzx	 ebx, bl
  0024c	33 0c 9d 00 08
	00 00		 xor	 ecx, DWORD PTR _S[ebx*4+2048]
  00253	0f b6 c0	 movzx	 eax, al
  00256	2b 0c 85 00 0c
	00 00		 sub	 ecx, DWORD PTR _S[eax*4+3072]

; 605  : 	F1(r, l,  9, 16);

  0025d	8b 42 24	 mov	 eax, DWORD PTR [edx+36]
  00260	33 f1		 xor	 esi, ecx
  00262	8b 4a 64	 mov	 ecx, DWORD PTR [edx+100]
  00265	03 c6		 add	 eax, esi
  00267	d3 c0		 rol	 eax, cl
  00269	8b d8		 mov	 ebx, eax
  0026b	c1 eb 10	 shr	 ebx, 16			; 00000010H
  0026e	0f b6 db	 movzx	 ebx, bl
  00271	8b c8		 mov	 ecx, eax
  00273	c1 e9 18	 shr	 ecx, 24			; 00000018H
  00276	8b 0c 8d 00 00
	00 00		 mov	 ecx, DWORD PTR _S[ecx*4]
  0027d	33 0c 9d 00 04
	00 00		 xor	 ecx, DWORD PTR _S[ebx*4+1024]
  00284	8b d8		 mov	 ebx, eax
  00286	c1 eb 08	 shr	 ebx, 8
  00289	0f b6 db	 movzx	 ebx, bl
  0028c	2b 0c 9d 00 08
	00 00		 sub	 ecx, DWORD PTR _S[ebx*4+2048]
  00293	0f b6 c0	 movzx	 eax, al
  00296	03 0c 85 00 0c
	00 00		 add	 ecx, DWORD PTR _S[eax*4+3072]

; 606  : 	F2(l, r, 10, 16);

  0029d	8b 42 28	 mov	 eax, DWORD PTR [edx+40]
  002a0	33 f9		 xor	 edi, ecx
  002a2	8b 4a 68	 mov	 ecx, DWORD PTR [edx+104]
  002a5	33 c7		 xor	 eax, edi
  002a7	d3 c0		 rol	 eax, cl
  002a9	8b d8		 mov	 ebx, eax
  002ab	c1 eb 10	 shr	 ebx, 16			; 00000010H
  002ae	0f b6 db	 movzx	 ebx, bl
  002b1	8b c8		 mov	 ecx, eax
  002b3	c1 e9 18	 shr	 ecx, 24			; 00000018H
  002b6	8b 0c 8d 00 00
	00 00		 mov	 ecx, DWORD PTR _S[ecx*4]
  002bd	2b 0c 9d 00 04
	00 00		 sub	 ecx, DWORD PTR _S[ebx*4+1024]
  002c4	8b d8		 mov	 ebx, eax
  002c6	c1 eb 08	 shr	 ebx, 8
  002c9	0f b6 db	 movzx	 ebx, bl
  002cc	03 0c 9d 00 08
	00 00		 add	 ecx, DWORD PTR _S[ebx*4+2048]
  002d3	0f b6 c0	 movzx	 eax, al
  002d6	33 0c 85 00 0c
	00 00		 xor	 ecx, DWORD PTR _S[eax*4+3072]

; 607  : 	F3(r, l, 11, 16);

  002dd	8b 42 2c	 mov	 eax, DWORD PTR [edx+44]
  002e0	33 f1		 xor	 esi, ecx
  002e2	8b 4a 6c	 mov	 ecx, DWORD PTR [edx+108]
  002e5	2b c6		 sub	 eax, esi
  002e7	d3 c0		 rol	 eax, cl
  002e9	8b d8		 mov	 ebx, eax
  002eb	c1 eb 10	 shr	 ebx, 16			; 00000010H
  002ee	0f b6 db	 movzx	 ebx, bl
  002f1	8b c8		 mov	 ecx, eax
  002f3	c1 e9 18	 shr	 ecx, 24			; 00000018H
  002f6	8b 0c 8d 00 00
	00 00		 mov	 ecx, DWORD PTR _S[ecx*4]
  002fd	03 0c 9d 00 04
	00 00		 add	 ecx, DWORD PTR _S[ebx*4+1024]
  00304	8b d8		 mov	 ebx, eax
  00306	c1 eb 08	 shr	 ebx, 8
  00309	0f b6 db	 movzx	 ebx, bl
  0030c	33 0c 9d 00 08
	00 00		 xor	 ecx, DWORD PTR _S[ebx*4+2048]
  00313	0f b6 c0	 movzx	 eax, al
  00316	2b 0c 85 00 0c
	00 00		 sub	 ecx, DWORD PTR _S[eax*4+3072]

; 608  : 	F1(l, r, 12, 16);

  0031d	8b 42 30	 mov	 eax, DWORD PTR [edx+48]
  00320	33 f9		 xor	 edi, ecx
  00322	8b 4a 70	 mov	 ecx, DWORD PTR [edx+112]
  00325	03 c7		 add	 eax, edi
  00327	d3 c0		 rol	 eax, cl
  00329	8b d8		 mov	 ebx, eax
  0032b	c1 eb 10	 shr	 ebx, 16			; 00000010H
  0032e	0f b6 db	 movzx	 ebx, bl
  00331	8b c8		 mov	 ecx, eax
  00333	c1 e9 18	 shr	 ecx, 24			; 00000018H
  00336	8b 0c 8d 00 00
	00 00		 mov	 ecx, DWORD PTR _S[ecx*4]
  0033d	33 0c 9d 00 04
	00 00		 xor	 ecx, DWORD PTR _S[ebx*4+1024]
  00344	8b d8		 mov	 ebx, eax
  00346	c1 eb 08	 shr	 ebx, 8
  00349	0f b6 db	 movzx	 ebx, bl
  0034c	2b 0c 9d 00 08
	00 00		 sub	 ecx, DWORD PTR _S[ebx*4+2048]
  00353	0f b6 c0	 movzx	 eax, al
  00356	03 0c 85 00 0c
	00 00		 add	 ecx, DWORD PTR _S[eax*4+3072]

; 609  : 	F2(r, l, 13, 16);

  0035d	8b 42 34	 mov	 eax, DWORD PTR [edx+52]
  00360	33 f1		 xor	 esi, ecx
  00362	8b 4a 74	 mov	 ecx, DWORD PTR [edx+116]
  00365	33 c6		 xor	 eax, esi
  00367	d3 c0		 rol	 eax, cl
  00369	8b d8		 mov	 ebx, eax
  0036b	c1 eb 10	 shr	 ebx, 16			; 00000010H
  0036e	8b c8		 mov	 ecx, eax
  00370	c1 e9 18	 shr	 ecx, 24			; 00000018H
  00373	8b 0c 8d 00 00
	00 00		 mov	 ecx, DWORD PTR _S[ecx*4]
  0037a	0f b6 db	 movzx	 ebx, bl
  0037d	2b 0c 9d 00 04
	00 00		 sub	 ecx, DWORD PTR _S[ebx*4+1024]
  00384	8b d8		 mov	 ebx, eax
  00386	c1 eb 08	 shr	 ebx, 8
  00389	0f b6 db	 movzx	 ebx, bl
  0038c	03 0c 9d 00 08
	00 00		 add	 ecx, DWORD PTR _S[ebx*4+2048]
  00393	0f b6 c0	 movzx	 eax, al
  00396	33 0c 85 00 0c
	00 00		 xor	 ecx, DWORD PTR _S[eax*4+3072]

; 610  : 	F3(l, r, 14, 16);

  0039d	8b 42 38	 mov	 eax, DWORD PTR [edx+56]
  003a0	33 f9		 xor	 edi, ecx
  003a2	8b 4a 78	 mov	 ecx, DWORD PTR [edx+120]
  003a5	2b c7		 sub	 eax, edi
  003a7	d3 c0		 rol	 eax, cl
  003a9	8b d8		 mov	 ebx, eax
  003ab	8b c8		 mov	 ecx, eax
  003ad	c1 e9 18	 shr	 ecx, 24			; 00000018H
  003b0	8b 0c 8d 00 00
	00 00		 mov	 ecx, DWORD PTR _S[ecx*4]
  003b7	c1 eb 10	 shr	 ebx, 16			; 00000010H
  003ba	0f b6 db	 movzx	 ebx, bl
  003bd	03 0c 9d 00 04
	00 00		 add	 ecx, DWORD PTR _S[ebx*4+1024]
  003c4	8b d8		 mov	 ebx, eax
  003c6	c1 eb 08	 shr	 ebx, 8
  003c9	0f b6 c0	 movzx	 eax, al
  003cc	0f b6 db	 movzx	 ebx, bl
  003cf	33 0c 9d 00 08
	00 00		 xor	 ecx, DWORD PTR _S[ebx*4+2048]
  003d6	2b 0c 85 00 0c
	00 00		 sub	 ecx, DWORD PTR _S[eax*4+3072]

; 611  : 	F1(r, l, 15, 16);

  003dd	8b 42 3c	 mov	 eax, DWORD PTR [edx+60]
  003e0	33 f1		 xor	 esi, ecx
  003e2	8b 4a 7c	 mov	 ecx, DWORD PTR [edx+124]
  003e5	03 c6		 add	 eax, esi
  003e7	d3 c0		 rol	 eax, cl
  003e9	8b d0		 mov	 edx, eax
  003eb	c1 ea 10	 shr	 edx, 16			; 00000010H
  003ee	8b c8		 mov	 ecx, eax
  003f0	c1 e9 18	 shr	 ecx, 24			; 00000018H
  003f3	8b 0c 8d 00 00
	00 00		 mov	 ecx, DWORD PTR _S[ecx*4]
  003fa	0f b6 d2	 movzx	 edx, dl
  003fd	33 0c 95 00 04
	00 00		 xor	 ecx, DWORD PTR _S[edx*4+1024]
  00404	8b d0		 mov	 edx, eax
  00406	c1 ea 08	 shr	 edx, 8
  00409	0f b6 d2	 movzx	 edx, dl
  0040c	2b 0c 95 00 08
	00 00		 sub	 ecx, DWORD PTR _S[edx*4+2048]
  00413	0f b6 c0	 movzx	 eax, al
  00416	03 0c 85 00 0c
	00 00		 add	 ecx, DWORD PTR _S[eax*4+3072]
  0041d	33 f9		 xor	 edi, ecx

; 612  : 
; 613  : 	/* Put l,r into outblock */
; 614  : 	((word32 *)outBlock)[0] = BE32 (r);

  0041f	57		 push	 edi
  00420	e8 00 00 00 00	 call	 _MirrorBytes32
  00425	8b 7c 24 20	 mov	 edi, DWORD PTR _outBlock$[esp+20]

; 615  : 	((word32 *)outBlock)[1] = BE32 (l);

  00429	56		 push	 esi
  0042a	89 07		 mov	 DWORD PTR [edi], eax
  0042c	e8 00 00 00 00	 call	 _MirrorBytes32
  00431	83 c4 10	 add	 esp, 16			; 00000010H
  00434	89 47 04	 mov	 DWORD PTR [edi+4], eax
  00437	5f		 pop	 edi
  00438	5e		 pop	 esi
  00439	5b		 pop	 ebx

; 616  : }

  0043a	c3		 ret	 0
_Cast5Encrypt ENDP
_TEXT	ENDS
PUBLIC	_Cast5Decrypt
; Function compile flags: /Ogtpy
;	COMDAT _Cast5Decrypt
_TEXT	SEGMENT
_inBlock$ = 8						; size = 4
_outBlock$ = 12						; size = 4
_key$ = 16						; size = 4
_Cast5Decrypt PROC					; COMDAT

; 620  : {

  00000	53		 push	 ebx
  00001	56		 push	 esi
  00002	57		 push	 edi

; 621  : 	word32 r = BE32 (((word32 *)inBlock)[0]);

  00003	8b 7c 24 10	 mov	 edi, DWORD PTR _inBlock$[esp+8]
  00007	8b 07		 mov	 eax, DWORD PTR [edi]
  00009	50		 push	 eax
  0000a	e8 00 00 00 00	 call	 _MirrorBytes32

; 622  : 	word32 l = BE32 (((word32 *)inBlock)[1]);

  0000f	8b 4f 04	 mov	 ecx, DWORD PTR [edi+4]
  00012	51		 push	 ecx
  00013	8b f0		 mov	 esi, eax
  00015	e8 00 00 00 00	 call	 _MirrorBytes32

; 623  : 	word32 *K = key->K;
; 624  : 	word32 t;
; 625  : 
; 626  : 	/* Only do full 16 rounds if key length > 80 bits */
; 627  : 	F1(r, l, 15, 16);

  0001a	8b 54 24 20	 mov	 edx, DWORD PTR _key$[esp+16]
  0001e	8b 4a 7c	 mov	 ecx, DWORD PTR [edx+124]
  00021	8b f8		 mov	 edi, eax
  00023	8b 42 3c	 mov	 eax, DWORD PTR [edx+60]
  00026	03 c7		 add	 eax, edi
  00028	d3 c0		 rol	 eax, cl
  0002a	8b d8		 mov	 ebx, eax
  0002c	c1 eb 10	 shr	 ebx, 16			; 00000010H
  0002f	0f b6 db	 movzx	 ebx, bl
  00032	8b c8		 mov	 ecx, eax
  00034	c1 e9 18	 shr	 ecx, 24			; 00000018H
  00037	8b 0c 8d 00 00
	00 00		 mov	 ecx, DWORD PTR _S[ecx*4]
  0003e	33 0c 9d 00 04
	00 00		 xor	 ecx, DWORD PTR _S[ebx*4+1024]
  00045	8b d8		 mov	 ebx, eax
  00047	c1 eb 08	 shr	 ebx, 8
  0004a	0f b6 db	 movzx	 ebx, bl
  0004d	2b 0c 9d 00 08
	00 00		 sub	 ecx, DWORD PTR _S[ebx*4+2048]
  00054	0f b6 c0	 movzx	 eax, al
  00057	03 0c 85 00 0c
	00 00		 add	 ecx, DWORD PTR _S[eax*4+3072]

; 628  : 	F3(l, r, 14, 16);

  0005e	8b 42 38	 mov	 eax, DWORD PTR [edx+56]
  00061	33 f1		 xor	 esi, ecx
  00063	8b 4a 78	 mov	 ecx, DWORD PTR [edx+120]
  00066	2b c6		 sub	 eax, esi
  00068	d3 c0		 rol	 eax, cl
  0006a	8b d8		 mov	 ebx, eax
  0006c	c1 eb 10	 shr	 ebx, 16			; 00000010H
  0006f	0f b6 db	 movzx	 ebx, bl
  00072	8b c8		 mov	 ecx, eax
  00074	c1 e9 18	 shr	 ecx, 24			; 00000018H
  00077	8b 0c 8d 00 00
	00 00		 mov	 ecx, DWORD PTR _S[ecx*4]
  0007e	03 0c 9d 00 04
	00 00		 add	 ecx, DWORD PTR _S[ebx*4+1024]
  00085	8b d8		 mov	 ebx, eax
  00087	c1 eb 08	 shr	 ebx, 8
  0008a	0f b6 db	 movzx	 ebx, bl
  0008d	33 0c 9d 00 08
	00 00		 xor	 ecx, DWORD PTR _S[ebx*4+2048]
  00094	0f b6 c0	 movzx	 eax, al
  00097	2b 0c 85 00 0c
	00 00		 sub	 ecx, DWORD PTR _S[eax*4+3072]

; 629  : 	F2(r, l, 13, 16);

  0009e	8b 42 34	 mov	 eax, DWORD PTR [edx+52]
  000a1	33 f9		 xor	 edi, ecx
  000a3	8b 4a 74	 mov	 ecx, DWORD PTR [edx+116]
  000a6	33 c7		 xor	 eax, edi
  000a8	d3 c0		 rol	 eax, cl
  000aa	8b d8		 mov	 ebx, eax
  000ac	c1 eb 10	 shr	 ebx, 16			; 00000010H
  000af	0f b6 db	 movzx	 ebx, bl
  000b2	8b c8		 mov	 ecx, eax
  000b4	c1 e9 18	 shr	 ecx, 24			; 00000018H
  000b7	8b 0c 8d 00 00
	00 00		 mov	 ecx, DWORD PTR _S[ecx*4]
  000be	2b 0c 9d 00 04
	00 00		 sub	 ecx, DWORD PTR _S[ebx*4+1024]
  000c5	8b d8		 mov	 ebx, eax
  000c7	c1 eb 08	 shr	 ebx, 8
  000ca	0f b6 db	 movzx	 ebx, bl
  000cd	03 0c 9d 00 08
	00 00		 add	 ecx, DWORD PTR _S[ebx*4+2048]
  000d4	0f b6 c0	 movzx	 eax, al
  000d7	33 0c 85 00 0c
	00 00		 xor	 ecx, DWORD PTR _S[eax*4+3072]

; 630  : 	F1(l, r, 12, 16);

  000de	8b 42 30	 mov	 eax, DWORD PTR [edx+48]
  000e1	33 f1		 xor	 esi, ecx
  000e3	8b 4a 70	 mov	 ecx, DWORD PTR [edx+112]
  000e6	03 c6		 add	 eax, esi
  000e8	d3 c0		 rol	 eax, cl
  000ea	8b d8		 mov	 ebx, eax
  000ec	c1 eb 10	 shr	 ebx, 16			; 00000010H
  000ef	0f b6 db	 movzx	 ebx, bl
  000f2	8b c8		 mov	 ecx, eax
  000f4	c1 e9 18	 shr	 ecx, 24			; 00000018H
  000f7	8b 0c 8d 00 00
	00 00		 mov	 ecx, DWORD PTR _S[ecx*4]
  000fe	33 0c 9d 00 04
	00 00		 xor	 ecx, DWORD PTR _S[ebx*4+1024]
  00105	8b d8		 mov	 ebx, eax
  00107	c1 eb 08	 shr	 ebx, 8
  0010a	0f b6 db	 movzx	 ebx, bl
  0010d	2b 0c 9d 00 08
	00 00		 sub	 ecx, DWORD PTR _S[ebx*4+2048]
  00114	0f b6 c0	 movzx	 eax, al
  00117	03 0c 85 00 0c
	00 00		 add	 ecx, DWORD PTR _S[eax*4+3072]

; 631  : 	F3(r, l, 11, 16);

  0011e	8b 42 2c	 mov	 eax, DWORD PTR [edx+44]
  00121	33 f9		 xor	 edi, ecx
  00123	8b 4a 6c	 mov	 ecx, DWORD PTR [edx+108]
  00126	2b c7		 sub	 eax, edi
  00128	d3 c0		 rol	 eax, cl
  0012a	8b d8		 mov	 ebx, eax
  0012c	c1 eb 10	 shr	 ebx, 16			; 00000010H
  0012f	0f b6 db	 movzx	 ebx, bl
  00132	8b c8		 mov	 ecx, eax
  00134	c1 e9 18	 shr	 ecx, 24			; 00000018H
  00137	8b 0c 8d 00 00
	00 00		 mov	 ecx, DWORD PTR _S[ecx*4]
  0013e	03 0c 9d 00 04
	00 00		 add	 ecx, DWORD PTR _S[ebx*4+1024]
  00145	8b d8		 mov	 ebx, eax
  00147	c1 eb 08	 shr	 ebx, 8
  0014a	0f b6 db	 movzx	 ebx, bl
  0014d	33 0c 9d 00 08
	00 00		 xor	 ecx, DWORD PTR _S[ebx*4+2048]
  00154	0f b6 c0	 movzx	 eax, al
  00157	2b 0c 85 00 0c
	00 00		 sub	 ecx, DWORD PTR _S[eax*4+3072]

; 632  : 	F2(l, r, 10, 16);

  0015e	8b 42 28	 mov	 eax, DWORD PTR [edx+40]
  00161	33 f1		 xor	 esi, ecx
  00163	8b 4a 68	 mov	 ecx, DWORD PTR [edx+104]
  00166	33 c6		 xor	 eax, esi
  00168	d3 c0		 rol	 eax, cl
  0016a	8b d8		 mov	 ebx, eax
  0016c	c1 eb 10	 shr	 ebx, 16			; 00000010H
  0016f	0f b6 db	 movzx	 ebx, bl
  00172	8b c8		 mov	 ecx, eax
  00174	c1 e9 18	 shr	 ecx, 24			; 00000018H
  00177	8b 0c 8d 00 00
	00 00		 mov	 ecx, DWORD PTR _S[ecx*4]
  0017e	2b 0c 9d 00 04
	00 00		 sub	 ecx, DWORD PTR _S[ebx*4+1024]
  00185	8b d8		 mov	 ebx, eax
  00187	c1 eb 08	 shr	 ebx, 8
  0018a	0f b6 db	 movzx	 ebx, bl
  0018d	03 0c 9d 00 08
	00 00		 add	 ecx, DWORD PTR _S[ebx*4+2048]
  00194	0f b6 c0	 movzx	 eax, al
  00197	33 0c 85 00 0c
	00 00		 xor	 ecx, DWORD PTR _S[eax*4+3072]

; 633  : 	F1(r, l,  9, 16);

  0019e	8b 42 24	 mov	 eax, DWORD PTR [edx+36]
  001a1	33 f9		 xor	 edi, ecx
  001a3	8b 4a 64	 mov	 ecx, DWORD PTR [edx+100]
  001a6	03 c7		 add	 eax, edi
  001a8	d3 c0		 rol	 eax, cl
  001aa	8b d8		 mov	 ebx, eax
  001ac	c1 eb 10	 shr	 ebx, 16			; 00000010H
  001af	8b c8		 mov	 ecx, eax
  001b1	c1 e9 18	 shr	 ecx, 24			; 00000018H
  001b4	8b 0c 8d 00 00
	00 00		 mov	 ecx, DWORD PTR _S[ecx*4]
  001bb	0f b6 db	 movzx	 ebx, bl
  001be	33 0c 9d 00 04
	00 00		 xor	 ecx, DWORD PTR _S[ebx*4+1024]
  001c5	8b d8		 mov	 ebx, eax
  001c7	c1 eb 08	 shr	 ebx, 8
  001ca	0f b6 db	 movzx	 ebx, bl
  001cd	2b 0c 9d 00 08
	00 00		 sub	 ecx, DWORD PTR _S[ebx*4+2048]
  001d4	0f b6 c0	 movzx	 eax, al
  001d7	03 0c 85 00 0c
	00 00		 add	 ecx, DWORD PTR _S[eax*4+3072]

; 634  : 	F3(l, r,  8, 16);

  001de	8b 42 20	 mov	 eax, DWORD PTR [edx+32]
  001e1	33 f1		 xor	 esi, ecx
  001e3	8b 4a 60	 mov	 ecx, DWORD PTR [edx+96]
  001e6	2b c6		 sub	 eax, esi
  001e8	d3 c0		 rol	 eax, cl
  001ea	8b d8		 mov	 ebx, eax
  001ec	8b c8		 mov	 ecx, eax
  001ee	c1 e9 18	 shr	 ecx, 24			; 00000018H
  001f1	8b 0c 8d 00 00
	00 00		 mov	 ecx, DWORD PTR _S[ecx*4]
  001f8	c1 eb 10	 shr	 ebx, 16			; 00000010H
  001fb	0f b6 db	 movzx	 ebx, bl
  001fe	03 0c 9d 00 04
	00 00		 add	 ecx, DWORD PTR _S[ebx*4+1024]
  00205	8b d8		 mov	 ebx, eax
  00207	c1 eb 08	 shr	 ebx, 8
  0020a	0f b6 db	 movzx	 ebx, bl
  0020d	33 0c 9d 00 08
	00 00		 xor	 ecx, DWORD PTR _S[ebx*4+2048]
  00214	0f b6 c0	 movzx	 eax, al
  00217	2b 0c 85 00 0c
	00 00		 sub	 ecx, DWORD PTR _S[eax*4+3072]

; 635  : 	F2(r, l,  7, 16);

  0021e	8b 42 1c	 mov	 eax, DWORD PTR [edx+28]
  00221	33 f9		 xor	 edi, ecx
  00223	8b 4a 5c	 mov	 ecx, DWORD PTR [edx+92]
  00226	33 c7		 xor	 eax, edi
  00228	d3 c0		 rol	 eax, cl
  0022a	8b c8		 mov	 ecx, eax
  0022c	c1 e9 18	 shr	 ecx, 24			; 00000018H
  0022f	8b 0c 8d 00 00
	00 00		 mov	 ecx, DWORD PTR _S[ecx*4]
  00236	8b d8		 mov	 ebx, eax
  00238	c1 eb 10	 shr	 ebx, 16			; 00000010H
  0023b	0f b6 db	 movzx	 ebx, bl
  0023e	2b 0c 9d 00 04
	00 00		 sub	 ecx, DWORD PTR _S[ebx*4+1024]
  00245	8b d8		 mov	 ebx, eax
  00247	c1 eb 08	 shr	 ebx, 8
  0024a	0f b6 db	 movzx	 ebx, bl
  0024d	03 0c 9d 00 08
	00 00		 add	 ecx, DWORD PTR _S[ebx*4+2048]
  00254	0f b6 c0	 movzx	 eax, al
  00257	33 0c 85 00 0c
	00 00		 xor	 ecx, DWORD PTR _S[eax*4+3072]

; 636  : 	F1(l, r,  6, 16);

  0025e	8b 42 18	 mov	 eax, DWORD PTR [edx+24]
  00261	33 f1		 xor	 esi, ecx
  00263	8b 4a 58	 mov	 ecx, DWORD PTR [edx+88]
  00266	03 c6		 add	 eax, esi
  00268	d3 c0		 rol	 eax, cl
  0026a	8b d8		 mov	 ebx, eax
  0026c	c1 eb 10	 shr	 ebx, 16			; 00000010H
  0026f	0f b6 db	 movzx	 ebx, bl
  00272	8b c8		 mov	 ecx, eax
  00274	c1 e9 18	 shr	 ecx, 24			; 00000018H
  00277	8b 0c 8d 00 00
	00 00		 mov	 ecx, DWORD PTR _S[ecx*4]
  0027e	33 0c 9d 00 04
	00 00		 xor	 ecx, DWORD PTR _S[ebx*4+1024]
  00285	8b d8		 mov	 ebx, eax
  00287	c1 eb 08	 shr	 ebx, 8
  0028a	0f b6 db	 movzx	 ebx, bl
  0028d	2b 0c 9d 00 08
	00 00		 sub	 ecx, DWORD PTR _S[ebx*4+2048]
  00294	0f b6 c0	 movzx	 eax, al
  00297	03 0c 85 00 0c
	00 00		 add	 ecx, DWORD PTR _S[eax*4+3072]

; 637  : 	F3(r, l,  5, 16);

  0029e	8b 42 14	 mov	 eax, DWORD PTR [edx+20]
  002a1	33 f9		 xor	 edi, ecx
  002a3	8b 4a 54	 mov	 ecx, DWORD PTR [edx+84]
  002a6	2b c7		 sub	 eax, edi
  002a8	d3 c0		 rol	 eax, cl
  002aa	8b d8		 mov	 ebx, eax
  002ac	c1 eb 10	 shr	 ebx, 16			; 00000010H
  002af	0f b6 db	 movzx	 ebx, bl
  002b2	8b c8		 mov	 ecx, eax
  002b4	c1 e9 18	 shr	 ecx, 24			; 00000018H
  002b7	8b 0c 8d 00 00
	00 00		 mov	 ecx, DWORD PTR _S[ecx*4]
  002be	03 0c 9d 00 04
	00 00		 add	 ecx, DWORD PTR _S[ebx*4+1024]
  002c5	8b d8		 mov	 ebx, eax
  002c7	c1 eb 08	 shr	 ebx, 8
  002ca	0f b6 db	 movzx	 ebx, bl
  002cd	33 0c 9d 00 08
	00 00		 xor	 ecx, DWORD PTR _S[ebx*4+2048]
  002d4	0f b6 c0	 movzx	 eax, al
  002d7	2b 0c 85 00 0c
	00 00		 sub	 ecx, DWORD PTR _S[eax*4+3072]

; 638  : 	F2(l, r,  4, 16);

  002de	8b 42 10	 mov	 eax, DWORD PTR [edx+16]
  002e1	33 f1		 xor	 esi, ecx
  002e3	8b 4a 50	 mov	 ecx, DWORD PTR [edx+80]
  002e6	33 c6		 xor	 eax, esi
  002e8	d3 c0		 rol	 eax, cl
  002ea	8b d8		 mov	 ebx, eax
  002ec	c1 eb 10	 shr	 ebx, 16			; 00000010H
  002ef	0f b6 db	 movzx	 ebx, bl
  002f2	8b c8		 mov	 ecx, eax
  002f4	c1 e9 18	 shr	 ecx, 24			; 00000018H
  002f7	8b 0c 8d 00 00
	00 00		 mov	 ecx, DWORD PTR _S[ecx*4]
  002fe	2b 0c 9d 00 04
	00 00		 sub	 ecx, DWORD PTR _S[ebx*4+1024]
  00305	8b d8		 mov	 ebx, eax
  00307	c1 eb 08	 shr	 ebx, 8
  0030a	0f b6 db	 movzx	 ebx, bl
  0030d	03 0c 9d 00 08
	00 00		 add	 ecx, DWORD PTR _S[ebx*4+2048]
  00314	0f b6 c0	 movzx	 eax, al
  00317	33 0c 85 00 0c
	00 00		 xor	 ecx, DWORD PTR _S[eax*4+3072]

; 639  : 	F1(r, l,  3, 16);

  0031e	8b 42 0c	 mov	 eax, DWORD PTR [edx+12]
  00321	33 f9		 xor	 edi, ecx
  00323	8b 4a 4c	 mov	 ecx, DWORD PTR [edx+76]
  00326	03 c7		 add	 eax, edi
  00328	d3 c0		 rol	 eax, cl
  0032a	8b d8		 mov	 ebx, eax
  0032c	c1 eb 10	 shr	 ebx, 16			; 00000010H
  0032f	0f b6 db	 movzx	 ebx, bl
  00332	8b c8		 mov	 ecx, eax
  00334	c1 e9 18	 shr	 ecx, 24			; 00000018H
  00337	8b 0c 8d 00 00
	00 00		 mov	 ecx, DWORD PTR _S[ecx*4]
  0033e	33 0c 9d 00 04
	00 00		 xor	 ecx, DWORD PTR _S[ebx*4+1024]
  00345	8b d8		 mov	 ebx, eax
  00347	c1 eb 08	 shr	 ebx, 8
  0034a	0f b6 db	 movzx	 ebx, bl
  0034d	2b 0c 9d 00 08
	00 00		 sub	 ecx, DWORD PTR _S[ebx*4+2048]
  00354	0f b6 c0	 movzx	 eax, al
  00357	03 0c 85 00 0c
	00 00		 add	 ecx, DWORD PTR _S[eax*4+3072]

; 640  : 	F3(l, r,  2, 16);

  0035e	8b 42 08	 mov	 eax, DWORD PTR [edx+8]
  00361	33 f1		 xor	 esi, ecx
  00363	8b 4a 48	 mov	 ecx, DWORD PTR [edx+72]
  00366	2b c6		 sub	 eax, esi
  00368	d3 c0		 rol	 eax, cl
  0036a	8b d8		 mov	 ebx, eax
  0036c	c1 eb 10	 shr	 ebx, 16			; 00000010H
  0036f	8b c8		 mov	 ecx, eax
  00371	c1 e9 18	 shr	 ecx, 24			; 00000018H
  00374	8b 0c 8d 00 00
	00 00		 mov	 ecx, DWORD PTR _S[ecx*4]
  0037b	0f b6 db	 movzx	 ebx, bl
  0037e	03 0c 9d 00 04
	00 00		 add	 ecx, DWORD PTR _S[ebx*4+1024]
  00385	8b d8		 mov	 ebx, eax
  00387	c1 eb 08	 shr	 ebx, 8
  0038a	0f b6 db	 movzx	 ebx, bl
  0038d	33 0c 9d 00 08
	00 00		 xor	 ecx, DWORD PTR _S[ebx*4+2048]
  00394	0f b6 c0	 movzx	 eax, al
  00397	2b 0c 85 00 0c
	00 00		 sub	 ecx, DWORD PTR _S[eax*4+3072]

; 641  : 	F2(r, l,  1, 16);

  0039e	8b 42 04	 mov	 eax, DWORD PTR [edx+4]
  003a1	33 f9		 xor	 edi, ecx
  003a3	8b 4a 44	 mov	 ecx, DWORD PTR [edx+68]
  003a6	33 c7		 xor	 eax, edi
  003a8	d3 c0		 rol	 eax, cl
  003aa	8b d8		 mov	 ebx, eax
  003ac	8b c8		 mov	 ecx, eax
  003ae	c1 e9 18	 shr	 ecx, 24			; 00000018H
  003b1	8b 0c 8d 00 00
	00 00		 mov	 ecx, DWORD PTR _S[ecx*4]
  003b8	c1 eb 10	 shr	 ebx, 16			; 00000010H
  003bb	0f b6 db	 movzx	 ebx, bl
  003be	2b 0c 9d 00 04
	00 00		 sub	 ecx, DWORD PTR _S[ebx*4+1024]
  003c5	8b d8		 mov	 ebx, eax
  003c7	c1 eb 08	 shr	 ebx, 8
  003ca	0f b6 c0	 movzx	 eax, al
  003cd	0f b6 db	 movzx	 ebx, bl
  003d0	03 0c 9d 00 08
	00 00		 add	 ecx, DWORD PTR _S[ebx*4+2048]
  003d7	33 0c 85 00 0c
	00 00		 xor	 ecx, DWORD PTR _S[eax*4+3072]

; 642  : 	F1(l, r,  0, 16);

  003de	8b 02		 mov	 eax, DWORD PTR [edx]
  003e0	33 f1		 xor	 esi, ecx
  003e2	8b 4a 40	 mov	 ecx, DWORD PTR [edx+64]
  003e5	03 c6		 add	 eax, esi
  003e7	d3 c0		 rol	 eax, cl
  003e9	8b d0		 mov	 edx, eax
  003eb	c1 ea 10	 shr	 edx, 16			; 00000010H
  003ee	8b c8		 mov	 ecx, eax
  003f0	c1 e9 18	 shr	 ecx, 24			; 00000018H
  003f3	8b 0c 8d 00 00
	00 00		 mov	 ecx, DWORD PTR _S[ecx*4]
  003fa	0f b6 d2	 movzx	 edx, dl
  003fd	33 0c 95 00 04
	00 00		 xor	 ecx, DWORD PTR _S[edx*4+1024]
  00404	8b d0		 mov	 edx, eax
  00406	c1 ea 08	 shr	 edx, 8
  00409	0f b6 d2	 movzx	 edx, dl
  0040c	2b 0c 95 00 08
	00 00		 sub	 ecx, DWORD PTR _S[edx*4+2048]
  00413	0f b6 c0	 movzx	 eax, al
  00416	03 0c 85 00 0c
	00 00		 add	 ecx, DWORD PTR _S[eax*4+3072]
  0041d	33 f9		 xor	 edi, ecx

; 643  : 	/* Put l,r into outblock */
; 644  : 	((word32 *)outBlock)[0] = BE32 (l);

  0041f	57		 push	 edi
  00420	e8 00 00 00 00	 call	 _MirrorBytes32
  00425	8b 7c 24 20	 mov	 edi, DWORD PTR _outBlock$[esp+20]

; 645  : 	((word32 *)outBlock)[1] = BE32 (r);

  00429	56		 push	 esi
  0042a	89 07		 mov	 DWORD PTR [edi], eax
  0042c	e8 00 00 00 00	 call	 _MirrorBytes32
  00431	83 c4 10	 add	 esp, 16			; 00000010H
  00434	89 47 04	 mov	 DWORD PTR [edi+4], eax
  00437	5f		 pop	 edi
  00438	5e		 pop	 esi
  00439	5b		 pop	 ebx

; 646  : 	/* Wipe clean */
; 647  : 	t = l = r = 0;
; 648  : }

  0043a	c3		 ret	 0
_Cast5Decrypt ENDP
_TEXT	ENDS
PUBLIC	_Cast5SetKey
; Function compile flags: /Ogtpy
;	COMDAT _Cast5SetKey
_TEXT	SEGMENT
tv2718 = -88						; size = 4
tv2540 = -88						; size = 4
tv1912 = -88						; size = 4
tv2710 = -84						; size = 4
tv2514 = -84						; size = 4
tv2447 = -84						; size = 4
tv2552 = -80						; size = 4
tv1658 = -80						; size = 4
tv821 = -80						; size = 4
tv2484 = -76						; size = 4
tv2450 = -76						; size = 4
tv1940 = -76						; size = 4
tv2506 = -72						; size = 4
tv2459 = -72						; size = 4
tv2567 = -68						; size = 4
tv2527 = -68						; size = 4
tv2742 = -64						; size = 4
tv2680 = -64						; size = 4
tv2609 = -64						; size = 4
tv2568 = -64						; size = 4
tv2687 = -60						; size = 4
tv2573 = -60						; size = 4
tv2498 = -60						; size = 4
tv2697 = -56						; size = 4
tv2557 = -56						; size = 4
tv2532 = -56						; size = 4
tv2493 = -56						; size = 4
tv2472 = -56						; size = 4
tv2561 = -52						; size = 4
tv2534 = -52						; size = 4
tv2464 = -52						; size = 4
tv332 = -52						; size = 4
tv2054 = -48						; size = 4
tv2709 = -44						; size = 4
tv2694 = -40						; size = 4
tv2548 = -40						; size = 4
tv2500 = -40						; size = 4
tv2725 = -36						; size = 4
tv2496 = -36						; size = 4
tv2466 = -36						; size = 4
tv2448 = -36						; size = 4
_X$ = -32						; size = 16
_Z$ = -16						; size = 16
_key$ = 8						; size = 4
_keylength$ = 12					; size = 4
tv2731 = 16						; size = 4
tv2518 = 16						; size = 4
tv2444 = 16						; size = 4
_userKey$ = 16						; size = 4
_Cast5SetKey PROC					; COMDAT

; 651  : {

  00000	83 ec 58	 sub	 esp, 88			; 00000058H
  00003	53		 push	 ebx
  00004	55		 push	 ebp
  00005	56		 push	 esi
  00006	57		 push	 edi

; 652  : 	unsigned int i;
; 653  : 	word32 *K = key->K;
; 654  : 	word32 X[4], Z[4];
; 655  : 
; 656  : 	X[0] = BE32 (((word32 *)userKey)[0]);

  00007	8b 7c 24 74	 mov	 edi, DWORD PTR _userKey$[esp+100]
  0000b	8b 07		 mov	 eax, DWORD PTR [edi]
  0000d	50		 push	 eax
  0000e	e8 00 00 00 00	 call	 _MirrorBytes32

; 657  : 	X[1] = BE32 (((word32 *)userKey)[1]);

  00013	8b 4f 04	 mov	 ecx, DWORD PTR [edi+4]
  00016	51		 push	 ecx
  00017	8b f0		 mov	 esi, eax
  00019	e8 00 00 00 00	 call	 _MirrorBytes32

; 658  : 	X[2] = BE32 (((word32 *)userKey)[2]);

  0001e	8b 57 08	 mov	 edx, DWORD PTR [edi+8]
  00021	52		 push	 edx
  00022	89 44 24 58	 mov	 DWORD PTR _X$[esp+120], eax
  00026	e8 00 00 00 00	 call	 _MirrorBytes32
  0002b	89 44 24 5c	 mov	 DWORD PTR _X$[esp+124], eax

; 659  : 	X[3] = BE32 (((word32 *)userKey)[3]);

  0002f	8b 47 0c	 mov	 eax, DWORD PTR [edi+12]
  00032	50		 push	 eax
  00033	e8 00 00 00 00	 call	 _MirrorBytes32
  00038	8b 7c 24 60	 mov	 edi, DWORD PTR _X$[esp+128]

; 699  : 	}
; 700  : 
; 701  : 	for (i=16; i<32; i++)

  0003c	8b 6c 24 60	 mov	 ebp, DWORD PTR _X$[esp+128]
  00040	8b d8		 mov	 ebx, eax
  00042	89 5c 24 64	 mov	 DWORD PTR _X$[esp+132], ebx
  00046	0f b6 4c 24 64	 movzx	 ecx, BYTE PTR _X$[esp+132]
  0004b	c1 ef 18	 shr	 edi, 24			; 00000018H
  0004e	89 7c 24 44	 mov	 DWORD PTR tv2464[esp+120], edi
  00052	8d 3c 8d 00 14
	00 00		 lea	 edi, DWORD PTR _S[ecx*4+5120]
  00059	8b 4c 24 60	 mov	 ecx, DWORD PTR _X$[esp+128]
  0005d	c1 e9 10	 shr	 ecx, 16			; 00000010H
  00060	89 4c 24 40	 mov	 DWORD PTR tv2532[esp+120], ecx
  00064	0f b6 4c 24 60	 movzx	 ecx, BYTE PTR _X$[esp+128]
  00069	8d 0c 8d 00 14
	00 00		 lea	 ecx, DWORD PTR _S[ecx*4+5120]
  00070	8b d3		 mov	 edx, ebx
  00072	89 4c 24 38	 mov	 DWORD PTR tv2568[esp+120], ecx
  00076	8b 4c 24 7c	 mov	 ecx, DWORD PTR _key$[esp+116]
  0007a	c1 ed 08	 shr	 ebp, 8
  0007d	83 c4 10	 add	 esp, 16			; 00000010H
  00080	c1 ea 18	 shr	 edx, 24			; 00000018H
  00083	c1 e8 10	 shr	 eax, 16			; 00000010H
  00086	c1 eb 08	 shr	 ebx, 8
  00089	89 6c 24 2c	 mov	 DWORD PTR tv2498[esp+104], ebp
  0008d	83 c1 08	 add	 ecx, 8
  00090	c7 44 24 38 02
	00 00 00	 mov	 DWORD PTR tv2054[esp+104], 2
  00098	eb 12		 jmp	 SHORT $LN6@Cast5SetKe
  0009a	8d 9b 00 00 00
	00		 npad	 6
$LL13@Cast5SetKe:

; 652  : 	unsigned int i;
; 653  : 	word32 *K = key->K;
; 654  : 	word32 X[4], Z[4];
; 655  : 
; 656  : 	X[0] = BE32 (((word32 *)userKey)[0]);

  000a0	8b 74 24 48	 mov	 esi, DWORD PTR _X$[esp+104]
  000a4	8b 44 24 44	 mov	 eax, DWORD PTR tv2448[esp+104]
  000a8	8b 54 24 74	 mov	 edx, DWORD PTR tv2444[esp+100]
$LN6@Cast5SetKe:

; 660  : 
; 661  : #define x(i) GETBYTE(X[i/4], 3-i%4)
; 662  : #define z(i) GETBYTE(Z[i/4], 3-i%4)
; 663  : 
; 664  : 	for (i=0; i<=16; i+=16)
; 665  : 	{
; 666  : 		// this part is copied directly from RFC 2144 (with some search and replace) by Wei Dai
; 667  : 		Z[0] = X[0] ^ S[4][x(0xD)] ^ S[5][x(0xF)] ^ S[6][x(0xC)] ^ S[7][x(0xE)] ^ S[6][x(0x8)];

  000ac	0f b6 6c 24 34	 movzx	 ebp, BYTE PTR tv2464[esp+104]
  000b1	0f b6 db	 movzx	 ebx, bl
  000b4	0f b6 c0	 movzx	 eax, al
  000b7	0f b6 d2	 movzx	 edx, dl
  000ba	8b 14 95 00 18
	00 00		 mov	 edx, DWORD PTR _S[edx*4+6144]
  000c1	33 14 ad 00 18
	00 00		 xor	 edx, DWORD PTR _S[ebp*4+6144]
  000c8	33 14 9d 00 1c
	00 00		 xor	 edx, DWORD PTR _S[ebx*4+7168]
  000cf	33 14 85 00 10
	00 00		 xor	 edx, DWORD PTR _S[eax*4+4096]
  000d6	33 17		 xor	 edx, DWORD PTR [edi]
  000d8	33 d6		 xor	 edx, esi

; 668  : 		Z[1] = X[2] ^ S[4][z(0x0)] ^ S[5][z(0x2)] ^ S[6][z(0x1)] ^ S[7][z(0x3)] ^ S[7][x(0xA)];

  000da	8b c2		 mov	 eax, edx
  000dc	c1 e8 10	 shr	 eax, 16			; 00000010H
  000df	0f b6 e8	 movzx	 ebp, al
  000e2	8b c2		 mov	 eax, edx
  000e4	c1 e8 08	 shr	 eax, 8
  000e7	0f b6 f8	 movzx	 edi, al
  000ea	0f b6 44 24 2c	 movzx	 eax, BYTE PTR tv2498[esp+104]
  000ef	8b 04 85 00 1c
	00 00		 mov	 eax, DWORD PTR _S[eax*4+7168]
  000f6	0f b6 da	 movzx	 ebx, dl
  000f9	03 db		 add	 ebx, ebx
  000fb	33 84 1b 00 1c
	00 00		 xor	 eax, DWORD PTR _S[ebx+ebx+7168]
  00102	03 db		 add	 ebx, ebx
  00104	89 5c 24 20	 mov	 DWORD PTR tv2506[esp+104], ebx
  00108	03 ed		 add	 ebp, ebp
  0010a	03 ed		 add	 ebp, ebp
  0010c	8b f2		 mov	 esi, edx
  0010e	c1 ee 18	 shr	 esi, 24			; 00000018H
  00111	03 ff		 add	 edi, edi
  00113	33 84 3f 00 14
	00 00		 xor	 eax, DWORD PTR _S[edi+edi+5120]
  0011a	03 ff		 add	 edi, edi
  0011c	03 f6		 add	 esi, esi
  0011e	33 84 36 00 10
	00 00		 xor	 eax, DWORD PTR _S[esi+esi+4096]
  00125	03 f6		 add	 esi, esi
  00127	33 85 00 18 00
	00		 xor	 eax, DWORD PTR _S[ebp+6144]
  0012d	89 6c 24 1c	 mov	 DWORD PTR tv2484[esp+104], ebp
  00131	33 44 24 50	 xor	 eax, DWORD PTR _X$[esp+112]

; 669  : 		Z[2] = X[3] ^ S[4][z(0x7)] ^ S[5][z(0x6)] ^ S[6][z(0x5)] ^ S[7][z(0x4)] ^ S[4][x(0x9)];

  00135	8b d8		 mov	 ebx, eax
  00137	c1 eb 10	 shr	 ebx, 16			; 00000010H
  0013a	0f b6 db	 movzx	 ebx, bl
  0013d	03 db		 add	 ebx, ebx
  0013f	03 db		 add	 ebx, ebx
  00141	89 5c 24 74	 mov	 DWORD PTR tv2518[esp+100], ebx
  00145	8b d8		 mov	 ebx, eax
  00147	c1 eb 08	 shr	 ebx, 8
  0014a	0f b6 db	 movzx	 ebx, bl
  0014d	03 db		 add	 ebx, ebx
  0014f	03 db		 add	 ebx, ebx
  00151	89 5c 24 24	 mov	 DWORD PTR tv2527[esp+104], ebx
  00155	0f b6 d8	 movzx	 ebx, al
  00158	8b e8		 mov	 ebp, eax
  0015a	89 44 24 5c	 mov	 DWORD PTR _Z$[esp+108], eax
  0015e	0f b6 44 24 30	 movzx	 eax, BYTE PTR tv2532[esp+104]
  00163	8b 04 85 00 10
	00 00		 mov	 eax, DWORD PTR _S[eax*4+4096]
  0016a	03 db		 add	 ebx, ebx
  0016c	33 84 1b 00 10
	00 00		 xor	 eax, DWORD PTR _S[ebx+ebx+4096]
  00173	03 db		 add	 ebx, ebx
  00175	c1 ed 18	 shr	 ebp, 24			; 00000018H
  00178	03 ed		 add	 ebp, ebp
  0017a	33 84 2d 00 1c
	00 00		 xor	 eax, DWORD PTR _S[ebp+ebp+7168]
  00181	03 ed		 add	 ebp, ebp
  00183	89 5c 24 10	 mov	 DWORD PTR tv2540[esp+104], ebx
  00187	8b 5c 24 74	 mov	 ebx, DWORD PTR tv2518[esp+100]
  0018b	33 83 00 18 00
	00		 xor	 eax, DWORD PTR _S[ebx+6144]
  00191	8b 5c 24 24	 mov	 ebx, DWORD PTR tv2527[esp+104]
  00195	33 44 24 54	 xor	 eax, DWORD PTR _X$[esp+116]
  00199	89 6c 24 14	 mov	 DWORD PTR tv2514[esp+104], ebp
  0019d	33 83 00 14 00
	00		 xor	 eax, DWORD PTR _S[ebx+5120]

; 670  : 		Z[3] = X[1] ^ S[4][z(0xA)] ^ S[5][z(0x9)] ^ S[6][z(0xB)] ^ S[7][z(0x8)] ^ S[5][x(0xB)];

  001a3	8b d8		 mov	 ebx, eax
  001a5	c1 eb 10	 shr	 ebx, 16			; 00000010H
  001a8	0f b6 db	 movzx	 ebx, bl
  001ab	8b e8		 mov	 ebp, eax
  001ad	c1 ed 18	 shr	 ebp, 24			; 00000018H
  001b0	03 ed		 add	 ebp, ebp
  001b2	03 db		 add	 ebx, ebx
  001b4	03 ed		 add	 ebp, ebp
  001b6	03 db		 add	 ebx, ebx
  001b8	89 5c 24 18	 mov	 DWORD PTR tv2552[esp+104], ebx
  001bc	8b 9b 00 14 00
	00		 mov	 ebx, DWORD PTR _S[ebx+5120]
  001c2	89 5c 24 30	 mov	 DWORD PTR tv2557[esp+104], ebx
  001c6	89 44 24 60	 mov	 DWORD PTR _Z$[esp+112], eax
  001ca	8b d8		 mov	 ebx, eax
  001cc	c1 eb 08	 shr	 ebx, 8
  001cf	0f b6 db	 movzx	 ebx, bl
  001d2	0f b6 c0	 movzx	 eax, al
  001d5	03 c0		 add	 eax, eax
  001d7	89 5c 24 34	 mov	 DWORD PTR tv332[esp+104], ebx
  001db	03 c0		 add	 eax, eax
  001dd	89 44 24 2c	 mov	 DWORD PTR tv2573[esp+104], eax
  001e1	8b 80 00 18 00
	00		 mov	 eax, DWORD PTR _S[eax+6144]
  001e7	33 85 00 1c 00
	00		 xor	 eax, DWORD PTR _S[ebp+7168]
  001ed	33 04 9d 00 10
	00 00		 xor	 eax, DWORD PTR _S[ebx*4+4096]
  001f4	8b 5c 24 28	 mov	 ebx, DWORD PTR tv2568[esp+104]
  001f8	33 44 24 30	 xor	 eax, DWORD PTR tv2557[esp+104]
  001fc	33 44 24 4c	 xor	 eax, DWORD PTR _X$[esp+108]
  00200	33 03		 xor	 eax, DWORD PTR [ebx]

; 671  : 		K[i+0] = S[4][z(0x8)] ^ S[5][z(0x9)] ^ S[6][z(0x7)] ^ S[7][z(0x6)] ^ S[4][z(0x2)];

  00202	8b 9d 00 10 00
	00		 mov	 ebx, DWORD PTR _S[ebp+4096]
  00208	8b 6c 24 10	 mov	 ebp, DWORD PTR tv2540[esp+104]
  0020c	33 9d 00 18 00
	00		 xor	 ebx, DWORD PTR _S[ebp+6144]
  00212	8b 6c 24 24	 mov	 ebp, DWORD PTR tv2527[esp+104]
  00216	33 9f 00 10 00
	00		 xor	 ebx, DWORD PTR _S[edi+4096]
  0021c	89 44 24 64	 mov	 DWORD PTR _Z$[esp+116], eax
  00220	33 9d 00 1c 00
	00		 xor	 ebx, DWORD PTR _S[ebp+7168]

; 672  : 		K[i+1] = S[4][z(0xA)] ^ S[5][z(0xB)] ^ S[6][z(0x5)] ^ S[7][z(0x4)] ^ S[5][z(0x6)];

  00226	8b 6c 24 14	 mov	 ebp, DWORD PTR tv2514[esp+104]
  0022a	33 5c 24 30	 xor	 ebx, DWORD PTR tv2557[esp+104]
  0022e	89 59 f8	 mov	 DWORD PTR [ecx-8], ebx
  00231	8b 5c 24 2c	 mov	 ebx, DWORD PTR tv2573[esp+104]
  00235	8b 9b 00 14 00
	00		 mov	 ebx, DWORD PTR _S[ebx+5120]
  0023b	33 9d 00 1c 00
	00		 xor	 ebx, DWORD PTR _S[ebp+7168]
  00241	8b 6c 24 74	 mov	 ebp, DWORD PTR tv2518[esp+100]
  00245	33 9d 00 18 00
	00		 xor	 ebx, DWORD PTR _S[ebp+6144]
  0024b	8b 6c 24 34	 mov	 ebp, DWORD PTR tv332[esp+104]
  0024f	33 1c ad 00 10
	00 00		 xor	 ebx, DWORD PTR _S[ebp*4+4096]
  00256	8b 6c 24 24	 mov	 ebp, DWORD PTR tv2527[esp+104]
  0025a	33 9d 00 14 00
	00		 xor	 ebx, DWORD PTR _S[ebp+5120]

; 673  : 		K[i+2] = S[4][z(0xC)] ^ S[5][z(0xD)] ^ S[6][z(0x3)] ^ S[7][z(0x2)] ^ S[6][z(0x9)];

  00260	8b e8		 mov	 ebp, eax
  00262	89 59 fc	 mov	 DWORD PTR [ecx-4], ebx
  00265	8b d8		 mov	 ebx, eax
  00267	c1 eb 10	 shr	 ebx, 16			; 00000010H
  0026a	0f b6 db	 movzx	 ebx, bl
  0026d	8b 1c 9d 00 14
	00 00		 mov	 ebx, DWORD PTR _S[ebx*4+5120]
  00274	c1 ed 18	 shr	 ebp, 24			; 00000018H
  00277	03 ed		 add	 ebp, ebp
  00279	33 9c 2d 00 10
	00 00		 xor	 ebx, DWORD PTR _S[ebp+ebp+4096]
  00280	03 ed		 add	 ebp, ebp
  00282	89 6c 24 28	 mov	 DWORD PTR tv2609[esp+104], ebp
  00286	8b 6c 24 18	 mov	 ebp, DWORD PTR tv2552[esp+104]
  0028a	33 9d 00 18 00
	00		 xor	 ebx, DWORD PTR _S[ebp+6144]
  00290	8b 6c 24 20	 mov	 ebp, DWORD PTR tv2506[esp+104]
  00294	33 9d 00 18 00
	00		 xor	 ebx, DWORD PTR _S[ebp+6144]
  0029a	33 9f 00 1c 00
	00		 xor	 ebx, DWORD PTR _S[edi+7168]
  002a0	89 19		 mov	 DWORD PTR [ecx], ebx

; 674  : 		K[i+3] = S[4][z(0xE)] ^ S[5][z(0xF)] ^ S[6][z(0x1)] ^ S[7][z(0x0)] ^ S[7][z(0xC)];

  002a2	8b d8		 mov	 ebx, eax
  002a4	c1 eb 08	 shr	 ebx, 8
  002a7	0f b6 db	 movzx	 ebx, bl
  002aa	8b 1c 9d 00 10
	00 00		 mov	 ebx, DWORD PTR _S[ebx*4+4096]
  002b1	0f b6 c0	 movzx	 eax, al
  002b4	33 1c 85 00 14
	00 00		 xor	 ebx, DWORD PTR _S[eax*4+5120]
  002bb	8b 44 24 28	 mov	 eax, DWORD PTR tv2609[esp+104]
  002bf	33 98 00 1c 00
	00		 xor	 ebx, DWORD PTR _S[eax+7168]
  002c5	8b 44 24 1c	 mov	 eax, DWORD PTR tv2484[esp+104]
  002c9	33 9e 00 1c 00
	00		 xor	 ebx, DWORD PTR _S[esi+7168]
  002cf	33 98 00 18 00
	00		 xor	 ebx, DWORD PTR _S[eax+6144]

; 675  : 		X[0] = Z[2] ^ S[4][z(0x5)] ^ S[5][z(0x7)] ^ S[6][z(0x4)] ^ S[7][z(0x6)] ^ S[6][z(0x0)];

  002d5	8b 44 24 10	 mov	 eax, DWORD PTR tv2540[esp+104]
  002d9	89 59 04	 mov	 DWORD PTR [ecx+4], ebx
  002dc	8b 80 00 14 00
	00		 mov	 eax, DWORD PTR _S[eax+5120]
  002e2	8b 5c 24 74	 mov	 ebx, DWORD PTR tv2518[esp+100]
  002e6	33 83 00 10 00
	00		 xor	 eax, DWORD PTR _S[ebx+4096]
  002ec	8b 5c 24 14	 mov	 ebx, DWORD PTR tv2514[esp+104]
  002f0	33 83 00 18 00
	00		 xor	 eax, DWORD PTR _S[ebx+6144]
  002f6	33 86 00 18 00
	00		 xor	 eax, DWORD PTR _S[esi+6144]
  002fc	8b 74 24 24	 mov	 esi, DWORD PTR tv2527[esp+104]
  00300	33 86 00 1c 00
	00		 xor	 eax, DWORD PTR _S[esi+7168]
  00306	33 44 24 60	 xor	 eax, DWORD PTR _Z$[esp+112]

; 676  : 		X[1] = Z[0] ^ S[4][x(0x0)] ^ S[5][x(0x2)] ^ S[6][x(0x1)] ^ S[7][x(0x3)] ^ S[7][z(0x2)];

  0030a	8b f0		 mov	 esi, eax
  0030c	c1 ee 18	 shr	 esi, 24			; 00000018H
  0030f	03 f6		 add	 esi, esi
  00311	03 f6		 add	 esi, esi
  00313	8b d8		 mov	 ebx, eax
  00315	c1 eb 10	 shr	 ebx, 16			; 00000010H
  00318	89 74 24 28	 mov	 DWORD PTR tv2680[esp+104], esi
  0031c	0f b6 f3	 movzx	 esi, bl
  0031f	03 f6		 add	 esi, esi
  00321	03 f6		 add	 esi, esi
  00323	89 74 24 2c	 mov	 DWORD PTR tv2687[esp+104], esi
  00327	8b d8		 mov	 ebx, eax
  00329	c1 eb 08	 shr	 ebx, 8
  0032c	0f b6 f3	 movzx	 esi, bl
  0032f	8b 34 b5 00 14
	00 00		 mov	 esi, DWORD PTR _S[esi*4+5120]
  00336	89 74 24 30	 mov	 DWORD PTR tv2697[esp+104], esi
  0033a	8b 74 24 2c	 mov	 esi, DWORD PTR tv2687[esp+104]
  0033e	0f b6 e8	 movzx	 ebp, al
  00341	03 ed		 add	 ebp, ebp
  00343	8b 9c 2d 00 1c
	00 00		 mov	 ebx, DWORD PTR _S[ebp+ebp+7168]
  0034a	33 9e 00 18 00
	00		 xor	 ebx, DWORD PTR _S[esi+6144]
  00350	8b 74 24 28	 mov	 esi, DWORD PTR tv2680[esp+104]
  00354	33 9e 00 10 00
	00		 xor	 ebx, DWORD PTR _S[esi+4096]
  0035a	03 ed		 add	 ebp, ebp
  0035c	33 5c 24 30	 xor	 ebx, DWORD PTR tv2697[esp+104]
  00360	33 da		 xor	 ebx, edx
  00362	33 9f 00 1c 00
	00		 xor	 ebx, DWORD PTR _S[edi+7168]

; 677  : 		X[2] = Z[1] ^ S[4][x(0x7)] ^ S[5][x(0x6)] ^ S[6][x(0x5)] ^ S[7][x(0x4)] ^ S[4][z(0x1)];

  00368	8b d3		 mov	 edx, ebx
  0036a	c1 ea 10	 shr	 edx, 16			; 00000010H
  0036d	0f b6 fa	 movzx	 edi, dl
  00370	8b d3		 mov	 edx, ebx
  00372	c1 ea 08	 shr	 edx, 8
  00375	0f b6 d2	 movzx	 edx, dl
  00378	8b f3		 mov	 esi, ebx
  0037a	89 54 24 18	 mov	 DWORD PTR tv1658[esp+104], edx
  0037e	c1 ee 18	 shr	 esi, 24			; 00000018H
  00381	03 ff		 add	 edi, edi
  00383	8b 94 3f 00 18
	00 00		 mov	 edx, DWORD PTR _S[edi+edi+6144]
  0038a	03 ff		 add	 edi, edi
  0038c	03 f6		 add	 esi, esi
  0038e	33 94 36 00 1c
	00 00		 xor	 edx, DWORD PTR _S[esi+esi+7168]
  00395	03 f6		 add	 esi, esi
  00397	89 5c 24 4c	 mov	 DWORD PTR _X$[esp+108], ebx
  0039b	0f b6 db	 movzx	 ebx, bl
  0039e	89 74 24 3c	 mov	 DWORD PTR tv2709[esp+104], esi
  003a2	8b 74 24 1c	 mov	 esi, DWORD PTR tv2484[esp+104]
  003a6	33 96 00 10 00
	00		 xor	 edx, DWORD PTR _S[esi+4096]
  003ac	8b 74 24 18	 mov	 esi, DWORD PTR tv1658[esp+104]
  003b0	33 14 b5 00 14
	00 00		 xor	 edx, DWORD PTR _S[esi*4+5120]
  003b7	03 db		 add	 ebx, ebx
  003b9	33 54 24 5c	 xor	 edx, DWORD PTR _Z$[esp+108]
  003bd	03 db		 add	 ebx, ebx
  003bf	33 93 00 10 00
	00		 xor	 edx, DWORD PTR _S[ebx+4096]
  003c5	89 5c 24 74	 mov	 DWORD PTR tv2731[esp+100], ebx

; 678  : 		X[3] = Z[3] ^ S[4][x(0xA)] ^ S[5][x(0x9)] ^ S[6][x(0xB)] ^ S[7][x(0x8)] ^ S[5][z(0x3)];

  003c9	8b da		 mov	 ebx, edx
  003cb	c1 eb 10	 shr	 ebx, 16			; 00000010H
  003ce	8b f2		 mov	 esi, edx
  003d0	89 7c 24 10	 mov	 DWORD PTR tv2718[esp+104], edi
  003d4	89 54 24 50	 mov	 DWORD PTR _X$[esp+112], edx
  003d8	0f b6 fb	 movzx	 edi, bl
  003db	8b da		 mov	 ebx, edx
  003dd	0f b6 d2	 movzx	 edx, dl
  003e0	03 d2		 add	 edx, edx
  003e2	03 d2		 add	 edx, edx
  003e4	03 ff		 add	 edi, edi
  003e6	03 ff		 add	 edi, edi
  003e8	c1 eb 08	 shr	 ebx, 8
  003eb	89 54 24 24	 mov	 DWORD PTR tv2567[esp+104], edx
  003ef	8b 92 00 18 00
	00		 mov	 edx, DWORD PTR _S[edx+6144]
  003f5	33 97 00 14 00
	00		 xor	 edx, DWORD PTR _S[edi+5120]
  003fb	0f b6 db	 movzx	 ebx, bl
  003fe	89 7c 24 34	 mov	 DWORD PTR tv2534[esp+104], edi
  00402	8b 7c 24 20	 mov	 edi, DWORD PTR tv2506[esp+104]
  00406	33 97 00 14 00
	00		 xor	 edx, DWORD PTR _S[edi+5120]
  0040c	03 db		 add	 ebx, ebx
  0040e	33 94 1b 00 10
	00 00		 xor	 edx, DWORD PTR _S[ebx+ebx+4096]
  00415	c1 ee 18	 shr	 esi, 24			; 00000018H
  00418	03 db		 add	 ebx, ebx
  0041a	03 f6		 add	 esi, esi
  0041c	33 94 36 00 1c
	00 00		 xor	 edx, DWORD PTR _S[esi+esi+7168]
  00423	03 f6		 add	 esi, esi
  00425	33 54 24 64	 xor	 edx, DWORD PTR _Z$[esp+116]
  00429	89 5c 24 40	 mov	 DWORD PTR tv2500[esp+104], ebx

; 679  : 		K[i+4] = S[4][x(0x3)] ^ S[5][x(0x2)] ^ S[6][x(0xC)] ^ S[7][x(0xD)] ^ S[4][x(0x8)];

  0042d	8b fa		 mov	 edi, edx
  0042f	c1 ef 18	 shr	 edi, 24			; 00000018H
  00432	8d 3c bd 00 18
	00 00		 lea	 edi, DWORD PTR _S[edi*4+6144]
  00439	8b da		 mov	 ebx, edx
  0043b	89 74 24 44	 mov	 DWORD PTR tv2466[esp+104], esi
  0043f	89 7c 24 14	 mov	 DWORD PTR tv2447[esp+104], edi
  00443	c1 eb 10	 shr	 ebx, 16			; 00000010H
  00446	0f b6 fb	 movzx	 edi, bl
  00449	8b 9d 00 10 00
	00		 mov	 ebx, DWORD PTR _S[ebp+4096]
  0044f	33 9e 00 10 00
	00		 xor	 ebx, DWORD PTR _S[esi+4096]
  00455	03 ff		 add	 edi, edi
  00457	33 9c 3f 00 1c
	00 00		 xor	 ebx, DWORD PTR _S[edi+edi+7168]
  0045e	03 ff		 add	 edi, edi
  00460	89 7c 24 1c	 mov	 DWORD PTR tv2450[esp+104], edi
  00464	8b 7c 24 14	 mov	 edi, DWORD PTR tv2447[esp+104]
  00468	33 1f		 xor	 ebx, DWORD PTR [edi]
  0046a	33 5c 24 30	 xor	 ebx, DWORD PTR tv2697[esp+104]
  0046e	89 59 08	 mov	 DWORD PTR [ecx+8], ebx

; 680  : 		K[i+5] = S[4][x(0x1)] ^ S[5][x(0x0)] ^ S[6][x(0xE)] ^ S[7][x(0xF)] ^ S[5][x(0xD)];

  00471	8b da		 mov	 ebx, edx
  00473	c1 eb 08	 shr	 ebx, 8
  00476	0f b6 fb	 movzx	 edi, bl
  00479	03 ff		 add	 edi, edi
  0047b	03 ff		 add	 edi, edi
  0047d	89 7c 24 20	 mov	 DWORD PTR tv2459[esp+104], edi
  00481	8b 5c 24 28	 mov	 ebx, DWORD PTR tv2680[esp+104]
  00485	0f b6 fa	 movzx	 edi, dl
  00488	03 ff		 add	 edi, edi
  0048a	03 ff		 add	 edi, edi
  0048c	89 7c 24 30	 mov	 DWORD PTR tv2472[esp+104], edi
  00490	8b 7c 24 2c	 mov	 edi, DWORD PTR tv2687[esp+104]
  00494	8b bf 00 10 00
	00		 mov	 edi, DWORD PTR _S[edi+4096]
  0049a	33 bb 00 14 00
	00		 xor	 edi, DWORD PTR _S[ebx+5120]
  004a0	8b 5c 24 30	 mov	 ebx, DWORD PTR tv2472[esp+104]
  004a4	33 bb 00 1c 00
	00		 xor	 edi, DWORD PTR _S[ebx+7168]
  004aa	8b 5c 24 20	 mov	 ebx, DWORD PTR tv2459[esp+104]
  004ae	33 bb 00 18 00
	00		 xor	 edi, DWORD PTR _S[ebx+6144]
  004b4	8b 5c 24 1c	 mov	 ebx, DWORD PTR tv2450[esp+104]
  004b8	33 bb 00 14 00
	00		 xor	 edi, DWORD PTR _S[ebx+5120]

; 681  : 		K[i+6] = S[4][x(0x7)] ^ S[5][x(0x6)] ^ S[6][x(0x8)] ^ S[7][x(0x9)] ^ S[6][x(0x3)];

  004be	8b 5c 24 34	 mov	 ebx, DWORD PTR tv2534[esp+104]
  004c2	89 79 0c	 mov	 DWORD PTR [ecx+12], edi
  004c5	8b bd 00 18 00
	00		 mov	 edi, DWORD PTR _S[ebp+6144]
  004cb	33 bb 00 1c 00
	00		 xor	 edi, DWORD PTR _S[ebx+7168]

; 682  : 		K[i+7] = S[4][x(0x5)] ^ S[5][x(0x4)] ^ S[6][x(0xA)] ^ S[7][x(0xB)] ^ S[7][x(0x7)];

  004d1	8b 6c 24 40	 mov	 ebp, DWORD PTR tv2500[esp+104]
  004d5	33 be 00 18 00
	00		 xor	 edi, DWORD PTR _S[esi+6144]
  004db	8b 74 24 18	 mov	 esi, DWORD PTR tv1658[esp+104]
  004df	33 3c b5 00 14
	00 00		 xor	 edi, DWORD PTR _S[esi*4+5120]
  004e6	8b 74 24 74	 mov	 esi, DWORD PTR tv2731[esp+100]
  004ea	33 be 00 10 00
	00		 xor	 edi, DWORD PTR _S[esi+4096]
  004f0	89 79 10	 mov	 DWORD PTR [ecx+16], edi
  004f3	8b b6 00 1c 00
	00		 mov	 esi, DWORD PTR _S[esi+7168]
  004f9	8b 7c 24 10	 mov	 edi, DWORD PTR tv2718[esp+104]
  004fd	33 b7 00 10 00
	00		 xor	 esi, DWORD PTR _S[edi+4096]
  00503	8b 7c 24 3c	 mov	 edi, DWORD PTR tv2709[esp+104]
  00507	33 b7 00 14 00
	00		 xor	 esi, DWORD PTR _S[edi+5120]
  0050d	8b 7c 24 24	 mov	 edi, DWORD PTR tv2567[esp+104]
  00511	33 b7 00 1c 00
	00		 xor	 esi, DWORD PTR _S[edi+7168]
  00517	33 b5 00 18 00
	00		 xor	 esi, DWORD PTR _S[ebp+6144]
  0051d	89 71 14	 mov	 DWORD PTR [ecx+20], esi

; 683  : 		Z[0] = X[0] ^ S[4][x(0xD)] ^ S[5][x(0xF)] ^ S[6][x(0xC)] ^ S[7][x(0xE)] ^ S[6][x(0x8)];

  00520	8b 74 24 30	 mov	 esi, DWORD PTR tv2472[esp+104]
  00524	8b 9e 00 14 00
	00		 mov	 ebx, DWORD PTR _S[esi+5120]
  0052a	8b 74 24 20	 mov	 esi, DWORD PTR tv2459[esp+104]
  0052e	33 9e 00 1c 00
	00		 xor	 ebx, DWORD PTR _S[esi+7168]
  00534	8b 74 24 1c	 mov	 esi, DWORD PTR tv2450[esp+104]
  00538	33 9e 00 10 00
	00		 xor	 ebx, DWORD PTR _S[esi+4096]
  0053e	8b 74 24 14	 mov	 esi, DWORD PTR tv2447[esp+104]
  00542	33 1e		 xor	 ebx, DWORD PTR [esi]
  00544	8b 74 24 44	 mov	 esi, DWORD PTR tv2466[esp+104]
  00548	33 9e 00 18 00
	00		 xor	 ebx, DWORD PTR _S[esi+6144]
  0054e	33 d8		 xor	 ebx, eax

; 684  : 		Z[1] = X[2] ^ S[4][z(0x0)] ^ S[5][z(0x2)] ^ S[6][z(0x1)] ^ S[7][z(0x3)] ^ S[7][x(0xA)];

  00550	8b c3		 mov	 eax, ebx
  00552	c1 e8 10	 shr	 eax, 16			; 00000010H
  00555	0f b6 f8	 movzx	 edi, al
  00558	8b c3		 mov	 eax, ebx
  0055a	c1 e8 08	 shr	 eax, 8
  0055d	0f b6 c0	 movzx	 eax, al
  00560	8b f3		 mov	 esi, ebx
  00562	c1 ee 18	 shr	 esi, 24			; 00000018H
  00565	03 f6		 add	 esi, esi
  00567	03 ff		 add	 edi, edi
  00569	03 c0		 add	 eax, eax
  0056b	03 ff		 add	 edi, edi
  0056d	03 f6		 add	 esi, esi
  0056f	03 c0		 add	 eax, eax
  00571	89 44 24 30	 mov	 DWORD PTR tv2493[esp+104], eax
  00575	8b 80 00 14 00
	00		 mov	 eax, DWORD PTR _S[eax+5120]
  0057b	89 5c 24 58	 mov	 DWORD PTR _Z$[esp+104], ebx
  0057f	89 7c 24 1c	 mov	 DWORD PTR tv2484[esp+104], edi
  00583	89 44 24 44	 mov	 DWORD PTR tv2496[esp+104], eax
  00587	0f b6 db	 movzx	 ebx, bl
  0058a	03 db		 add	 ebx, ebx
  0058c	03 db		 add	 ebx, ebx
  0058e	89 5c 24 20	 mov	 DWORD PTR tv2506[esp+104], ebx
  00592	8b 9b 00 1c 00
	00		 mov	 ebx, DWORD PTR _S[ebx+7168]
  00598	33 9d 00 1c 00
	00		 xor	 ebx, DWORD PTR _S[ebp+7168]
  0059e	33 9f 00 18 00
	00		 xor	 ebx, DWORD PTR _S[edi+6144]
  005a4	33 9e 00 10 00
	00		 xor	 ebx, DWORD PTR _S[esi+4096]
  005aa	33 d8		 xor	 ebx, eax
  005ac	33 5c 24 50	 xor	 ebx, DWORD PTR _X$[esp+112]

; 685  : 		Z[2] = X[3] ^ S[4][z(0x7)] ^ S[5][z(0x6)] ^ S[6][z(0x5)] ^ S[7][z(0x4)] ^ S[4][x(0x9)];

  005b0	8b c3		 mov	 eax, ebx
  005b2	c1 e8 18	 shr	 eax, 24			; 00000018H
  005b5	03 c0		 add	 eax, eax
  005b7	03 c0		 add	 eax, eax
  005b9	89 44 24 14	 mov	 DWORD PTR tv2514[esp+104], eax
  005bd	8b c3		 mov	 eax, ebx
  005bf	c1 e8 10	 shr	 eax, 16			; 00000010H
  005c2	0f b6 c0	 movzx	 eax, al
  005c5	03 c0		 add	 eax, eax
  005c7	03 c0		 add	 eax, eax
  005c9	89 44 24 74	 mov	 DWORD PTR tv2518[esp+100], eax
  005cd	8b e8		 mov	 ebp, eax
  005cf	8b c3		 mov	 eax, ebx
  005d1	c1 e8 08	 shr	 eax, 8
  005d4	0f b6 f8	 movzx	 edi, al
  005d7	0f b6 c3	 movzx	 eax, bl
  005da	03 c0		 add	 eax, eax
  005dc	03 c0		 add	 eax, eax
  005de	89 44 24 10	 mov	 DWORD PTR tv2540[esp+104], eax
  005e2	8b 44 24 34	 mov	 eax, DWORD PTR tv2534[esp+104]
  005e6	8b 80 00 10 00
	00		 mov	 eax, DWORD PTR _S[eax+4096]
  005ec	33 85 00 18 00
	00		 xor	 eax, DWORD PTR _S[ebp+6144]
  005f2	8b 6c 24 14	 mov	 ebp, DWORD PTR tv2514[esp+104]
  005f6	33 85 00 1c 00
	00		 xor	 eax, DWORD PTR _S[ebp+7168]
  005fc	8b 6c 24 10	 mov	 ebp, DWORD PTR tv2540[esp+104]
  00600	33 85 00 10 00
	00		 xor	 eax, DWORD PTR _S[ebp+4096]
  00606	03 ff		 add	 edi, edi
  00608	33 c2		 xor	 eax, edx
  0060a	33 84 3f 00 14
	00 00		 xor	 eax, DWORD PTR _S[edi+edi+5120]
  00611	03 ff		 add	 edi, edi

; 686  : 		Z[3] = X[1] ^ S[4][z(0xA)] ^ S[5][z(0x9)] ^ S[6][z(0xB)] ^ S[7][z(0x8)] ^ S[5][x(0xB)];

  00613	8b d0		 mov	 edx, eax
  00615	c1 ea 10	 shr	 edx, 16			; 00000010H
  00618	0f b6 d2	 movzx	 edx, dl
  0061b	03 d2		 add	 edx, edx
  0061d	03 d2		 add	 edx, edx
  0061f	89 54 24 18	 mov	 DWORD PTR tv2552[esp+104], edx
  00623	8b d0		 mov	 edx, eax
  00625	c1 ea 08	 shr	 edx, 8
  00628	8b e8		 mov	 ebp, eax
  0062a	89 44 24 60	 mov	 DWORD PTR _Z$[esp+112], eax
  0062e	0f b6 d2	 movzx	 edx, dl
  00631	0f b6 c0	 movzx	 eax, al
  00634	03 d2		 add	 edx, edx
  00636	03 c0		 add	 eax, eax
  00638	03 d2		 add	 edx, edx
  0063a	03 c0		 add	 eax, eax
  0063c	89 54 24 34	 mov	 DWORD PTR tv2561[esp+104], edx
  00640	8b 54 24 24	 mov	 edx, DWORD PTR tv2567[esp+104]
  00644	89 44 24 2c	 mov	 DWORD PTR tv2573[esp+104], eax
  00648	8b 80 00 18 00
	00		 mov	 eax, DWORD PTR _S[eax+6144]
  0064e	33 82 00 14 00
	00		 xor	 eax, DWORD PTR _S[edx+5120]
  00654	8b 54 24 34	 mov	 edx, DWORD PTR tv2561[esp+104]
  00658	33 82 00 10 00
	00		 xor	 eax, DWORD PTR _S[edx+4096]
  0065e	8b 54 24 18	 mov	 edx, DWORD PTR tv2552[esp+104]
  00662	33 82 00 14 00
	00		 xor	 eax, DWORD PTR _S[edx+5120]
  00668	c1 ed 18	 shr	 ebp, 24			; 00000018H
  0066b	03 ed		 add	 ebp, ebp
  0066d	33 84 2d 00 1c
	00 00		 xor	 eax, DWORD PTR _S[ebp+ebp+7168]
  00674	03 ed		 add	 ebp, ebp
  00676	33 44 24 4c	 xor	 eax, DWORD PTR _X$[esp+108]
  0067a	89 6c 24 40	 mov	 DWORD PTR tv2548[esp+104], ebp

; 687  : 		K[i+8] = S[4][z(0x3)] ^ S[5][z(0x2)] ^ S[6][z(0xC)] ^ S[7][z(0xD)] ^ S[4][z(0x9)];

  0067e	8b d0		 mov	 edx, eax
  00680	c1 ea 10	 shr	 edx, 16			; 00000010H
  00683	8b e8		 mov	 ebp, eax
  00685	c1 ed 18	 shr	 ebp, 24			; 00000018H
  00688	0f b6 d2	 movzx	 edx, dl
  0068b	8b 14 95 00 1c
	00 00		 mov	 edx, DWORD PTR _S[edx*4+7168]
  00692	03 ed		 add	 ebp, ebp
  00694	03 ed		 add	 ebp, ebp
  00696	33 95 00 18 00
	00		 xor	 edx, DWORD PTR _S[ebp+6144]
  0069c	89 6c 24 28	 mov	 DWORD PTR tv2609[esp+104], ebp
  006a0	8b 6c 24 18	 mov	 ebp, DWORD PTR tv2552[esp+104]
  006a4	33 95 00 10 00
	00		 xor	 edx, DWORD PTR _S[ebp+4096]
  006aa	8b 6c 24 20	 mov	 ebp, DWORD PTR tv2506[esp+104]
  006ae	33 95 00 10 00
	00		 xor	 edx, DWORD PTR _S[ebp+4096]

; 688  : 		K[i+9] = S[4][z(0x1)] ^ S[5][z(0x0)] ^ S[6][z(0xE)] ^ S[7][z(0xF)] ^ S[5][z(0xC)];

  006b4	0f b6 e8	 movzx	 ebp, al
  006b7	33 54 24 44	 xor	 edx, DWORD PTR tv2496[esp+104]
  006bb	89 51 18	 mov	 DWORD PTR [ecx+24], edx
  006be	8b d0		 mov	 edx, eax
  006c0	c1 ea 08	 shr	 edx, 8
  006c3	0f b6 d2	 movzx	 edx, dl
  006c6	8b 14 95 00 18
	00 00		 mov	 edx, DWORD PTR _S[edx*4+6144]
  006cd	33 14 ad 00 1c
	00 00		 xor	 edx, DWORD PTR _S[ebp*4+7168]
  006d4	8b 6c 24 28	 mov	 ebp, DWORD PTR tv2609[esp+104]
  006d8	33 95 00 14 00
	00		 xor	 edx, DWORD PTR _S[ebp+5120]
  006de	8b 6c 24 1c	 mov	 ebp, DWORD PTR tv2484[esp+104]
  006e2	33 96 00 14 00
	00		 xor	 edx, DWORD PTR _S[esi+5120]
  006e8	33 95 00 10 00
	00		 xor	 edx, DWORD PTR _S[ebp+4096]

; 689  : 		K[i+10] = S[4][z(0x7)] ^ S[5][z(0x6)] ^ S[6][z(0x8)] ^ S[7][z(0x9)] ^ S[6][z(0x2)];

  006ee	8b 6c 24 40	 mov	 ebp, DWORD PTR tv2548[esp+104]
  006f2	89 51 1c	 mov	 DWORD PTR [ecx+28], edx
  006f5	8b 54 24 18	 mov	 edx, DWORD PTR tv2552[esp+104]
  006f9	8b 92 00 1c 00
	00		 mov	 edx, DWORD PTR _S[edx+7168]
  006ff	33 95 00 18 00
	00		 xor	 edx, DWORD PTR _S[ebp+6144]
  00705	8b 6c 24 30	 mov	 ebp, DWORD PTR tv2493[esp+104]
  00709	33 95 00 18 00
	00		 xor	 edx, DWORD PTR _S[ebp+6144]
  0070f	8b 6c 24 10	 mov	 ebp, DWORD PTR tv2540[esp+104]
  00713	33 95 00 10 00
	00		 xor	 edx, DWORD PTR _S[ebp+4096]

; 690  : 		K[i+11] = S[4][z(0x5)] ^ S[5][z(0x4)] ^ S[6][z(0xA)] ^ S[7][z(0xB)] ^ S[7][z(0x6)];

  00719	8b 6c 24 34	 mov	 ebp, DWORD PTR tv2561[esp+104]
  0071d	33 97 00 14 00
	00		 xor	 edx, DWORD PTR _S[edi+5120]
  00723	89 51 20	 mov	 DWORD PTR [ecx+32], edx
  00726	8b 54 24 2c	 mov	 edx, DWORD PTR tv2573[esp+104]
  0072a	8b 92 00 1c 00
	00		 mov	 edx, DWORD PTR _S[edx+7168]
  00730	33 95 00 18 00
	00		 xor	 edx, DWORD PTR _S[ebp+6144]
  00736	8b 6c 24 14	 mov	 ebp, DWORD PTR tv2514[esp+104]
  0073a	33 95 00 14 00
	00		 xor	 edx, DWORD PTR _S[ebp+5120]
  00740	8b 6c 24 74	 mov	 ebp, DWORD PTR tv2518[esp+100]
  00744	33 97 00 1c 00
	00		 xor	 edx, DWORD PTR _S[edi+7168]
  0074a	33 95 00 10 00
	00		 xor	 edx, DWORD PTR _S[ebp+4096]

; 691  : 		X[0] = Z[2] ^ S[4][z(0x5)] ^ S[5][z(0x7)] ^ S[6][z(0x4)] ^ S[7][z(0x6)] ^ S[6][z(0x0)];

  00750	8b 6c 24 14	 mov	 ebp, DWORD PTR tv2514[esp+104]
  00754	89 51 24	 mov	 DWORD PTR [ecx+36], edx
  00757	8b 54 24 10	 mov	 edx, DWORD PTR tv2540[esp+104]
  0075b	8b 92 00 14 00
	00		 mov	 edx, DWORD PTR _S[edx+5120]
  00761	33 95 00 18 00
	00		 xor	 edx, DWORD PTR _S[ebp+6144]
  00767	33 96 00 18 00
	00		 xor	 edx, DWORD PTR _S[esi+6144]
  0076d	8b 74 24 74	 mov	 esi, DWORD PTR tv2518[esp+100]
  00771	33 97 00 1c 00
	00		 xor	 edx, DWORD PTR _S[edi+7168]
  00777	33 96 00 10 00
	00		 xor	 edx, DWORD PTR _S[esi+4096]
  0077d	33 54 24 60	 xor	 edx, DWORD PTR _Z$[esp+112]
  00781	8b f2		 mov	 esi, edx

; 692  : 		X[1] = Z[0] ^ S[4][x(0x0)] ^ S[5][x(0x2)] ^ S[6][x(0x1)] ^ S[7][x(0x3)] ^ S[7][z(0x2)];

  00783	c1 ea 10	 shr	 edx, 16			; 00000010H
  00786	0f b6 d2	 movzx	 edx, dl
  00789	89 54 24 10	 mov	 DWORD PTR tv1912[esp+104], edx
  0078d	89 74 24 48	 mov	 DWORD PTR _X$[esp+104], esi
  00791	8b 54 24 48	 mov	 edx, DWORD PTR _X$[esp+104]
  00795	0f b6 7c 24 48	 movzx	 edi, BYTE PTR _X$[esp+104]
  0079a	c1 ea 08	 shr	 edx, 8
  0079d	0f b6 ea	 movzx	 ebp, dl
  007a0	03 ed		 add	 ebp, ebp
  007a2	03 ff		 add	 edi, edi
  007a4	8b 94 3f 00 1c
	00 00		 mov	 edx, DWORD PTR _S[edi+edi+7168]
  007ab	33 94 2d 00 14
	00 00		 xor	 edx, DWORD PTR _S[ebp+ebp+5120]
  007b2	03 ed		 add	 ebp, ebp
  007b4	c1 ee 18	 shr	 esi, 24			; 00000018H
  007b7	03 ff		 add	 edi, edi
  007b9	03 f6		 add	 esi, esi
  007bb	33 94 36 00 10
	00 00		 xor	 edx, DWORD PTR _S[esi+esi+4096]
  007c2	03 f6		 add	 esi, esi
  007c4	89 6c 24 40	 mov	 DWORD PTR tv2694[esp+104], ebp
  007c8	8b 6c 24 30	 mov	 ebp, DWORD PTR tv2493[esp+104]
  007cc	33 95 00 1c 00
	00		 xor	 edx, DWORD PTR _S[ebp+7168]
  007d2	8b 6c 24 10	 mov	 ebp, DWORD PTR tv1912[esp+104]
  007d6	33 54 24 58	 xor	 edx, DWORD PTR _Z$[esp+104]
  007da	33 14 ad 00 18
	00 00		 xor	 edx, DWORD PTR _S[ebp*4+6144]
  007e1	89 54 24 4c	 mov	 DWORD PTR _X$[esp+108], edx

; 693  : 		X[2] = Z[1] ^ S[4][x(0x7)] ^ S[5][x(0x6)] ^ S[6][x(0x5)] ^ S[7][x(0x4)] ^ S[4][z(0x1)];

  007e5	c1 ea 18	 shr	 edx, 24			; 00000018H
  007e8	8d 14 95 00 1c
	00 00		 lea	 edx, DWORD PTR _S[edx*4+7168]
  007ef	89 54 24 14	 mov	 DWORD PTR tv2710[esp+104], edx
  007f3	8b 54 24 4c	 mov	 edx, DWORD PTR _X$[esp+108]
  007f7	c1 ea 10	 shr	 edx, 16			; 00000010H
  007fa	0f b6 d2	 movzx	 edx, dl
  007fd	89 54 24 18	 mov	 DWORD PTR tv821[esp+104], edx
  00801	8b 54 24 4c	 mov	 edx, DWORD PTR _X$[esp+108]
  00805	c1 ea 08	 shr	 edx, 8
  00808	0f b6 ea	 movzx	 ebp, dl
  0080b	0f b6 54 24 4c	 movzx	 edx, BYTE PTR _X$[esp+108]
  00810	03 d2		 add	 edx, edx
  00812	03 d2		 add	 edx, edx
  00814	89 54 24 74	 mov	 DWORD PTR tv2731[esp+100], edx
  00818	8b 92 00 10 00
	00		 mov	 edx, DWORD PTR _S[edx+4096]
  0081e	03 ed		 add	 ebp, ebp
  00820	33 94 2d 00 14
	00 00		 xor	 edx, DWORD PTR _S[ebp+ebp+5120]
  00827	03 ed		 add	 ebp, ebp
  00829	89 6c 24 44	 mov	 DWORD PTR tv2725[esp+104], ebp
  0082d	8b 6c 24 18	 mov	 ebp, DWORD PTR tv821[esp+104]
  00831	33 14 ad 00 18
	00 00		 xor	 edx, DWORD PTR _S[ebp*4+6144]
  00838	8b 6c 24 1c	 mov	 ebp, DWORD PTR tv2484[esp+104]
  0083c	33 95 00 10 00
	00		 xor	 edx, DWORD PTR _S[ebp+4096]
  00842	8b 6c 24 14	 mov	 ebp, DWORD PTR tv2710[esp+104]
  00846	33 55 00	 xor	 edx, DWORD PTR [ebp]
  00849	33 d3		 xor	 edx, ebx

; 694  : 		X[3] = Z[3] ^ S[4][x(0xA)] ^ S[5][x(0x9)] ^ S[6][x(0xB)] ^ S[7][x(0x8)] ^ S[5][z(0x3)];

  0084b	8b da		 mov	 ebx, edx
  0084d	c1 eb 18	 shr	 ebx, 24			; 00000018H
  00850	0f b6 eb	 movzx	 ebp, bl
  00853	89 5c 24 34	 mov	 DWORD PTR tv2464[esp+104], ebx
  00857	8b da		 mov	 ebx, edx
  00859	c1 eb 10	 shr	 ebx, 16			; 00000010H
  0085c	89 5c 24 30	 mov	 DWORD PTR tv2532[esp+104], ebx
  00860	0f b6 db	 movzx	 ebx, bl
  00863	8b 1c 9d 00 14
	00 00		 mov	 ebx, DWORD PTR _S[ebx*4+5120]
  0086a	89 5c 24 28	 mov	 DWORD PTR tv2742[esp+104], ebx
  0086e	8b da		 mov	 ebx, edx
  00870	c1 eb 08	 shr	 ebx, 8
  00873	89 54 24 50	 mov	 DWORD PTR _X$[esp+112], edx
  00877	0f b6 d2	 movzx	 edx, dl
  0087a	89 5c 24 2c	 mov	 DWORD PTR tv2498[esp+104], ebx
  0087e	0f b6 db	 movzx	 ebx, bl
  00881	03 d2		 add	 edx, edx
  00883	89 5c 24 1c	 mov	 DWORD PTR tv1940[esp+104], ebx
  00887	8b 5c 24 20	 mov	 ebx, DWORD PTR tv2506[esp+104]
  0088b	03 d2		 add	 edx, edx
  0088d	89 54 24 24	 mov	 DWORD PTR tv2567[esp+104], edx
  00891	8b 92 00 18 00
	00		 mov	 edx, DWORD PTR _S[edx+6144]
  00897	33 93 00 14 00
	00		 xor	 edx, DWORD PTR _S[ebx+5120]

; 695  : 		K[i+12] = S[4][x(0x8)] ^ S[5][x(0x9)] ^ S[6][x(0x7)] ^ S[7][x(0x6)] ^ S[4][x(0x3)];

  0089d	8b 5c 24 44	 mov	 ebx, DWORD PTR tv2725[esp+104]
  008a1	03 ed		 add	 ebp, ebp
  008a3	33 94 2d 00 1c
	00 00		 xor	 edx, DWORD PTR _S[ebp+ebp+7168]
  008aa	03 ed		 add	 ebp, ebp
  008ac	33 54 24 28	 xor	 edx, DWORD PTR tv2742[esp+104]
  008b0	33 d0		 xor	 edx, eax
  008b2	8b 44 24 1c	 mov	 eax, DWORD PTR tv1940[esp+104]
  008b6	33 14 85 00 10
	00 00		 xor	 edx, DWORD PTR _S[eax*4+4096]
  008bd	8b 44 24 74	 mov	 eax, DWORD PTR tv2731[esp+100]
  008c1	8b 80 00 18 00
	00		 mov	 eax, DWORD PTR _S[eax+6144]
  008c7	33 83 00 1c 00
	00		 xor	 eax, DWORD PTR _S[ebx+7168]

; 696  : 		K[i+13] = S[4][x(0xA)] ^ S[5][x(0xB)] ^ S[6][x(0x5)] ^ S[7][x(0x4)] ^ S[5][x(0x7)];

  008cd	8b 5c 24 18	 mov	 ebx, DWORD PTR tv821[esp+104]
  008d1	33 87 00 10 00
	00		 xor	 eax, DWORD PTR _S[edi+4096]
  008d7	89 54 24 54	 mov	 DWORD PTR _X$[esp+116], edx
  008db	33 85 00 10 00
	00		 xor	 eax, DWORD PTR _S[ebp+4096]
  008e1	33 44 24 28	 xor	 eax, DWORD PTR tv2742[esp+104]
  008e5	89 41 28	 mov	 DWORD PTR [ecx+40], eax
  008e8	8b 44 24 24	 mov	 eax, DWORD PTR tv2567[esp+104]
  008ec	8d 80 00 14 00
	00		 lea	 eax, DWORD PTR _S[eax+5120]
  008f2	89 44 24 28	 mov	 DWORD PTR tv2568[esp+104], eax
  008f6	8b 44 24 74	 mov	 eax, DWORD PTR tv2731[esp+100]
  008fa	8b 80 00 14 00
	00		 mov	 eax, DWORD PTR _S[eax+5120]
  00900	33 04 9d 00 18
	00 00		 xor	 eax, DWORD PTR _S[ebx*4+6144]
  00907	8b 5c 24 14	 mov	 ebx, DWORD PTR tv2710[esp+104]
  0090b	33 03		 xor	 eax, DWORD PTR [ebx]
  0090d	8b 5c 24 1c	 mov	 ebx, DWORD PTR tv1940[esp+104]
  00911	33 04 9d 00 10
	00 00		 xor	 eax, DWORD PTR _S[ebx*4+4096]
  00918	8b 5c 24 28	 mov	 ebx, DWORD PTR tv2568[esp+104]
  0091c	33 03		 xor	 eax, DWORD PTR [ebx]

; 697  : 		K[i+14] = S[4][x(0xC)] ^ S[5][x(0xD)] ^ S[6][x(0x3)] ^ S[7][x(0x2)] ^ S[6][x(0x8)];

  0091e	8b da		 mov	 ebx, edx
  00920	89 41 2c	 mov	 DWORD PTR [ecx+44], eax
  00923	8b c2		 mov	 eax, edx
  00925	c1 e8 10	 shr	 eax, 16			; 00000010H
  00928	89 44 24 44	 mov	 DWORD PTR tv2448[esp+104], eax
  0092c	0f b6 c0	 movzx	 eax, al
  0092f	c1 eb 18	 shr	 ebx, 24			; 00000018H
  00932	03 c0		 add	 eax, eax
  00934	89 5c 24 74	 mov	 DWORD PTR tv2444[esp+100], ebx
  00938	03 c0		 add	 eax, eax
  0093a	0f b6 db	 movzx	 ebx, bl
  0093d	8b 1c 9d 00 10
	00 00		 mov	 ebx, DWORD PTR _S[ebx*4+4096]
  00944	33 9f 00 18 00
	00		 xor	 ebx, DWORD PTR _S[edi+6144]
  0094a	8b 7c 24 40	 mov	 edi, DWORD PTR tv2694[esp+104]
  0094e	33 9f 00 1c 00
	00		 xor	 ebx, DWORD PTR _S[edi+7168]
  00954	83 c1 40	 add	 ecx, 64			; 00000040H
  00957	33 9d 00 18 00
	00		 xor	 ebx, DWORD PTR _S[ebp+6144]
  0095d	33 98 00 14 00
	00		 xor	 ebx, DWORD PTR _S[eax+5120]
  00963	89 59 f0	 mov	 DWORD PTR [ecx-16], ebx

; 698  : 		K[i+15] = S[4][x(0xE)] ^ S[5][x(0xF)] ^ S[6][x(0x1)] ^ S[7][x(0x0)] ^ S[7][x(0xD)];

  00966	8b da		 mov	 ebx, edx
  00968	0f b6 d2	 movzx	 edx, dl
  0096b	8d 3c 95 00 14
	00 00		 lea	 edi, DWORD PTR _S[edx*4+5120]
  00972	c1 eb 08	 shr	 ebx, 8
  00975	0f b6 d3	 movzx	 edx, bl
  00978	8b 14 95 00 10
	00 00		 mov	 edx, DWORD PTR _S[edx*4+4096]
  0097f	33 96 00 1c 00
	00		 xor	 edx, DWORD PTR _S[esi+7168]
  00985	33 90 00 1c 00
	00		 xor	 edx, DWORD PTR _S[eax+7168]
  0098b	8b 44 24 10	 mov	 eax, DWORD PTR tv1912[esp+104]
  0098f	33 17		 xor	 edx, DWORD PTR [edi]
  00991	33 14 85 00 18
	00 00		 xor	 edx, DWORD PTR _S[eax*4+6144]
  00998	83 6c 24 38 01	 sub	 DWORD PTR tv2054[esp+104], 1
  0099d	89 51 f4	 mov	 DWORD PTR [ecx-12], edx
  009a0	0f 85 fa f6 ff
	ff		 jne	 $LL13@Cast5SetKe

; 699  : 	}
; 700  : 
; 701  : 	for (i=16; i<32; i++)

  009a6	8b 4c 24 6c	 mov	 ecx, DWORD PTR _key$[esp+100]
  009aa	5f		 pop	 edi
  009ab	5e		 pop	 esi
  009ac	5d		 pop	 ebp
  009ad	b8 10 00 00 00	 mov	 eax, 16			; 00000010H
  009b2	5b		 pop	 ebx
$LL3@Cast5SetKe:

; 702  : 		K[i] &= 0x1f;

  009b3	83 24 81 1f	 and	 DWORD PTR [ecx+eax*4], 31 ; 0000001fH
  009b7	40		 inc	 eax
  009b8	83 f8 20	 cmp	 eax, 32			; 00000020H
  009bb	72 f6		 jb	 SHORT $LL3@Cast5SetKe

; 703  : }

  009bd	83 c4 58	 add	 esp, 88			; 00000058H
  009c0	c3		 ret	 0
_Cast5SetKey ENDP
_TEXT	ENDS
END
