 truecrypt

 Timestamp is 5679eb1d (Wed Dec 23 00:30:21 2015)

 Preferred load address is 00010000

 Start         Length     Name                   Class
 0001:00000000 00031b5aH .text                   CODE
 0001:00031b60 00003b65H .text$s                 CODE
 0002:00000000 000001c8H .idata$5                DATA
 0002:000001e0 0000e168H .rdata                  DATA
 0002:0000e348 00000073H .rdata$debug            DATA
 0002:0000e3c0 00000008H .rdata$sxdata           DATA
 0002:0000e3c8 0000001cH .xdata$x                DATA
 0003:00000000 000023f0H .data                   DATA
 0003:00002400 00005100H .bss                    DATA
 0004:00000000 00000146H .edata                  DATA
 0005:00000000 00000409H INIT                    CODE
 0005:00000410 000001c0H INIT$s                  CODE
 0005:000005d0 00000028H .idata$2                CODE
 0005:000005f8 00000014H .idata$3                CODE
 0005:0000060c 000001c8H .idata$4                CODE
 0005:000007d4 00000936H .idata$6                CODE
 0006:00000000 00000058H .rsrc$01                DATA
 0006:00000060 00000290H .rsrc$02                DATA

  Address         Publics by Value              Rva+Base       Lib:Object

 0000:00000002       ___safe_se_handler_count   00000002     <absolute>
 0001:00000010       _LoadBootArguments@0       00010510 f   drivefilter.obj
 0001:00000340       _DriveFilterAddDevice@8    00010840 f   drivefilter.obj
 0001:00000520       _DriveFilterDispatchIrp@8  00010a20 f   drivefilter.obj
 0001:000006b0       _IoGetCurrentIrpStackLocation@4 00010bb0 f i drivefilter.obj
 0001:00000740       _IoSkipCurrentIrpStackLocation@4 00010c40 f i drivefilter.obj
 0001:00000b10       _IoSetCompletionRoutine@24 00011010 f i drivefilter.obj
 0001:00000bf0       _IoGetNextIrpStackLocation@4 000110f0 f i drivefilter.obj
 0001:00000c40       _IoCopyCurrentIrpStackLocationToNext@4 00011140 f i drivefilter.obj
 0001:00000c90       _IoMarkIrpPending@4        00011190 f i drivefilter.obj
 0001:000017b0       _RtlSecureZeroMemory@8     00011cb0 f i drivefilter.obj
 0001:00001a10       _ReopenBootVolumeHeader@8  00011f10 f   drivefilter.obj
 0001:00001cb0       _PsGetCurrentThread@0      000121b0 f i drivefilter.obj
 0001:00001cd0       _StartLegacyHibernationDriverFilter@0 000121d0 f   drivefilter.obj
 0001:00002640       _StartBootEncryptionSetup@12 00012b40 f   drivefilter.obj
 0001:00002770       _KeInitializeSpinLock@4    00012c70 f i drivefilter.obj
 0001:00003880       _GetBootDriveVolumeProperties@8 00013d80 f   drivefilter.obj
 0001:00003a00       _GetBootEncryptionStatus@8 00013f00 f   drivefilter.obj
 0001:00003c30       _GetBootLoaderVersion@8    00014130 f   drivefilter.obj
 0001:00003ca0       _GetBootEncryptionAlgorithmName@8 000141a0 f   drivefilter.obj
 0001:00003d30       _GetSetupResult@0          00014230 f   drivefilter.obj
 0001:00003d50       _IsBootDriveMounted@0      00014250 f   drivefilter.obj
 0001:00003d90       _IsHiddenSystemRunning@0   00014290 f   drivefilter.obj
 0001:00003dd0       _GetBootDriveFilterExtension@0 000142d0 f   drivefilter.obj
 0001:00003df0       _GetSystemDriveCryptoInfo@0 000142f0 f   drivefilter.obj
 0001:00003e10       _AbortBootEncryptionSetup@0 00014310 f   drivefilter.obj
 0001:00003e70       _StartDecoySystemWipe@12   00014370 f   drivefilter.obj
 0001:000043f0       _GetDecoySystemWipeStatus@8 000148f0 f   drivefilter.obj
 0001:000044c0       _GetDecoySystemWipeResult@0 000149c0 f   drivefilter.obj
 0001:000044e0       _AbortDecoySystemWipe@0    000149e0 f   drivefilter.obj
 0001:00004540       _GetBootDriveLength@0      00014a40 f   drivefilter.obj
 0001:00004560       _WriteBootDriveSector@8    00014a60 f   drivefilter.obj
 0001:000045d0       _DumpFilterEntry@8         00014ad0 f   dumpfilter.obj
 0001:00004cd0       _EncryptedIoQueueAddIrp@8  000151d0 f   encryptedioqueue.obj
 0001:00004df0       _EncryptedIoQueueHoldWhenIdle@12 000152f0 f   encryptedioqueue.obj
 0001:00004f90       _EncryptedIoQueueIsSuspended@4 00015490 f   encryptedioqueue.obj
 0001:00004fb0       _EncryptedIoQueueIsRunning@4 000154b0 f   encryptedioqueue.obj
 0001:00004fd0       _EncryptedIoQueueResumeFromHold@4 000154d0 f   encryptedioqueue.obj
 0001:00005040       _EncryptedIoQueueStart@4   00015540 f   encryptedioqueue.obj
 0001:00005420       _InitializeListHead@4      00015920 f i encryptedioqueue.obj
 0001:00006ec0       _EncryptedIoQueueStop@4    000173c0 f   encryptedioqueue.obj
 0001:00007010       _DriverAddDevice@8         00017510 f   ntdriver.obj
 0001:00007140       _DumpMemory@8              00017640 f   ntdriver.obj
 0001:00007260       _ValidateIOBufferSize@12   00017760 f   ntdriver.obj
 0001:00007370       _GetVirtualVolumeDeviceObject@4 00017870 f   ntdriver.obj
 0001:000073a0       _TCDispatchQueueIRP@8      000178a0 f   ntdriver.obj
 0001:00007870       _TCCreateDeviceObject@12   00017d70 f   ntdriver.obj
 0001:00007ae0       _RootDeviceControlMutexAcquireNoWait@0 00017fe0 f   ntdriver.obj
 0001:00007b40       _RootDeviceControlMutexRelease@0 00018040 f   ntdriver.obj
 0001:00007b60       _ProcessVolumeDeviceControlIrp@12 00018060 f   ntdriver.obj
 0001:000087a0       _ProcessMainDeviceControlIrp@12 00018ca0 f   ntdriver.obj
 0001:0000a270       _TCStartThread@12          0001a770 f   ntdriver.obj
 0001:0000a2a0       _TCStartThreadInProcess@16 0001a7a0 f   ntdriver.obj
 0001:0000a3a0       _TCStopThread@8            0001a8a0 f   ntdriver.obj
 0001:0000a3e0       _TCStartVolumeThread@12    0001a8e0 f   ntdriver.obj
 0001:0000a580       _TCStopVolumeThread@8      0001aa80 f   ntdriver.obj
 0001:0000a630       _TCSleep@4                 0001ab30 f   ntdriver.obj
 0001:0000a6c0       _VolumeThreadProc@4        0001abc0 f   ntdriver.obj
 0001:0000aa30       _TCGetNTNameFromNumber@8   0001af30 f   ntdriver.obj
 0001:0000aad0       _TCGetDosNameFromNumber@8  0001afd0 f   ntdriver.obj
 0001:0000abd0       _TCTranslateCode@4         0001b0d0 f   ntdriver.obj
 0001:0000b3a0       _TCDeleteDeviceObject@8    0001b8a0 f   ntdriver.obj
 0001:0000b500       _TCUnloadDriver@4          0001ba00 f   ntdriver.obj
 0001:0000b570       _OnShutdownPending@0       0001ba70 f   ntdriver.obj
 0001:0000b5f0       _TCDeviceIoControl@24      0001baf0 f   ntdriver.obj
 0001:0000b6e0       _SendDeviceIoControlRequest@24 0001bbe0 f   ntdriver.obj
 0001:0000b880       _ProbeRealDriveSize@8      0001bd80 f   ntdriver.obj
 0001:0000ba20       _TCOpenFsVolume@12         0001bf20 f   ntdriver.obj
 0001:0000bb40       _TCCloseFsVolume@8         0001c040 f   ntdriver.obj
 0001:0000bb70       _TCReadDevice@20           0001c070 f   ntdriver.obj
 0001:0000bc80       _TCWriteDevice@20          0001c180 f   ntdriver.obj
 0001:0000bcb0       _TCFsctlCall@24            0001c1b0 f   ntdriver.obj
 0001:0000bd70       _CreateDriveLink@4         0001c270 f   ntdriver.obj
 0001:0000be10       _RemoveDriveLink@4         0001c310 f   ntdriver.obj
 0001:0000be80       _MountManagerMount@4       0001c380 f   ntdriver.obj
 0001:0000c1c0       _MountManagerUnmount@4     0001c6c0 f   ntdriver.obj
 0001:0000c2d0       _getToken@4                0001c7d0 f   ntdriver.obj
 0001:0000c310       _MountDevice@8             0001c810 f   ntdriver.obj
 0001:0000c680       _UnmountDevice@12          0001cb80 f   ntdriver.obj
 0001:0000c900       _UnmountAllDevices@8       0001ce00 f   ntdriver.obj
 0001:0000ca50       _SymbolicLinkToTarget@12   0001cf50 f   ntdriver.obj
 0001:0000cb00       _RegionsOverlap@32         0001d000 f   ntdriver.obj
 0001:0000cb80       _GetIntersection@36        0001d080 f   ntdriver.obj
 0001:0000cc90       _IsAccessibleByUser@8      0001d190 f   ntdriver.obj
 0001:0000cd60       _UserCanAccessDriveDevice@0 0001d260 f   ntdriver.obj
 0001:0000cd90       _IsDriveLetterAvailable@4  0001d290 f   ntdriver.obj
 0001:0000ce50       _TCCompleteIrp@12          0001d350 f   ntdriver.obj
 0001:0000ce80       _TCCompleteDiskIrp@12      0001d380 f   ntdriver.obj
 0001:0000cec0       _GetCpuCount@0             0001d3c0 f   ntdriver.obj
 0001:0000cf30       _EnsureNullTerminatedString@8 0001d430 f   ntdriver.obj
 0001:0000cf80       _TCReadRegistryKey@12      0001d480 f   ntdriver.obj
 0001:0000d0b0       _IsVolumeClassFilterRegistered@0 0001d5b0 f   ntdriver.obj
 0001:0000d170       _ReadRegistryConfigFlags@4 0001d670 f   ntdriver.obj
 0001:0000d270       _GetDeviceSectorSize@8     0001d770 f   ntdriver.obj
 0001:0000d2c0       _ZeroUnreadableSectors@20  0001d7c0 f   ntdriver.obj
 0001:0000d410       _ReadDeviceSkipUnreadableSectors@24 0001d910 f   ntdriver.obj
 0001:0000d4f0       _IsVolumeAccessibleByCurrentUser@4 0001d9f0 f   ntdriver.obj
 0001:0000d5f0       _IsOSAtLeast@4             0001daf0 f   ntdriver.obj
 0001:0000d750       _TCOpenVolume@20           0001dc50 f   ntvol.obj
 0001:0000edd0       _TCCloseVolume@8           0001f2d0 f   ntvol.obj
 0001:0000eef0       _COMPLETE_IRP@16           0001f3f0 f   ntvol.obj
 0001:0000f030       _VolumeFilterAddDevice@8   0001f530 f   volumefilter.obj
 0001:0000f180       _VolumeFilterDispatchIrp@8 0001f680 f   volumefilter.obj
 0001:0000f84b       @__security_check_cookie@4 0001fd4b f   BufferOverflowK:secchk.obj
 0001:0000f860       ___report_gsfailure        0001fd60 f   BufferOverflowK:gs_report.obj
 0001:0000f88c       _DbgPrint                  0001fd8c f   ntoskrnl:ntoskrnl.exe
 0001:0000f898       _memset                    0001fd98 f   ntoskrnl:ntoskrnl.exe
 0001:0000f8a4       __alldiv                   0001fda4 f   ntoskrnl:ntoskrnl.exe
 0001:0000f8b0       __aulldiv                  0001fdb0 f   ntoskrnl:ntoskrnl.exe
 0001:0000f8bc       _memcpy                    0001fdbc f   ntoskrnl:ntoskrnl.exe
 0001:0000f8c8       __aullshr                  0001fdc8 f   ntoskrnl:ntoskrnl.exe
 0001:0000f8d4       __allmul                   0001fdd4 f   ntoskrnl:ntoskrnl.exe
 0001:0000f8e0       __aullrem                  0001fde0 f   ntoskrnl:ntoskrnl.exe
 0001:0000f8f0       _ReadVolumeHeaderWCache@20 0001fdf0 f   Common:cache.obj
 0001:0000fa30       _AddPasswordToCache@4      0001ff30 f   Common:cache.obj
 0001:0000fac0       _WipeCache@0               0001ffc0 f   Common:cache.obj
 0001:0000fb30       _crc32int@4                00020030 f   Common:crc.obj
 0001:0000fbf0       _crc32_selfTestLarge@0     000200f0 f   Common:crc.obj
 0001:0000fcf0       _GetCrc32@8                000201f0 f   Common:crc.obj
 0001:0000fd10       _crc32_selftests@0         00020210 f   Common:crc.obj
 0001:0000fd30       _CipherInit@12             00020230 f   Common:crypto.obj
 0001:0000fee0       _EncipherBlock@12          000203e0 f   Common:crypto.obj
 0001:0000ffc0       _EncipherBlocks@16         000204c0 f   Common:crypto.obj
 0001:00010070       _DecipherBlock@12          00020570 f   Common:crypto.obj
 0001:00010150       _DecipherBlocks@16         00020650 f   Common:crypto.obj
 0001:00010210       _CipherGet@4               00020710 f   Common:crypto.obj
 0001:00010270       _CipherGetName@4           00020770 f   Common:crypto.obj
 0001:00010290       _CipherGetBlockSize@4      00020790 f   Common:crypto.obj
 0001:000102b0       _CipherGetKeySize@4        000207b0 f   Common:crypto.obj
 0001:000102d0       _CipherGetKeyScheduleSize@4 000207d0 f   Common:crypto.obj
 0001:000102f0       _CipherSupportsIntraDataUnitParallelization@4 000207f0 f   Common:crypto.obj
 0001:00010330       _EAGetFirst@0              00020830 f   Common:crypto.obj
 0001:00010350       _EAGetNext@4               00020850 f   Common:crypto.obj
 0001:00010380       _EAInit@12                 00020880 f   Common:crypto.obj
 0001:00010420       _EAInitMode@4              00020920 f   Common:crypto.obj
 0001:00010530       _EAGetName@8               00020a30 f   Common:crypto.obj
 0001:00010660       _EAGetByName@4             00020b60 f   Common:crypto.obj
 0001:00010770       _EAGetKeySize@4            00020c70 f   Common:crypto.obj
 0001:000107d0       _EAGetFirstMode@4          00020cd0 f   Common:crypto.obj
 0001:000107f0       _EAGetNextMode@8           00020cf0 f   Common:crypto.obj
 0001:00010850       _EAGetKeyScheduleSize@4    00020d50 f   Common:crypto.obj
 0001:000108b0       _EAGetLargestKeyForMode@4  00020db0 f   Common:crypto.obj
 0001:00010920       _EAGetCipherCount@4        00020e20 f   Common:crypto.obj
 0001:00010960       _EAGetFirstCipher@4        00020e60 f   Common:crypto.obj
 0001:00010980       _EAGetLastCipher@4         00020e80 f   Common:crypto.obj
 0001:000109d0       _EAGetNextCipher@8         00020ed0 f   Common:crypto.obj
 0001:00010a30       _EAGetPreviousCipher@8     00020f30 f   Common:crypto.obj
 0001:00010ab0       _EAIsModeSupported@8       00020fb0 f   Common:crypto.obj
 0001:00010b00       _crypto_open@0             00021000 f   Common:crypto.obj
 0001:00010b50       _crypto_loadkey@12         00021050 f   Common:crypto.obj
 0001:00010bd0       _crypto_close@4            000210d0 f   Common:crypto.obj
 0001:00010c40       _Xor128@8                  00021140 f   Common:crypto.obj
 0001:00010c90       _Xor64@8                   00021190 f   Common:crypto.obj
 0001:00010cc0       _EncryptBufferLRW128@24    000211c0 f   Common:crypto.obj
 0001:00010ed0       _EncryptBufferLRW64@24     000213d0 f   Common:crypto.obj
 0001:00011070       _DecryptBufferLRW128@24    00021570 f   Common:crypto.obj
 0001:00011290       _DecryptBufferLRW64@24     00021790 f   Common:crypto.obj
 0001:00011430       _EncryptBuffer@16          00021930 f   Common:crypto.obj
 0001:00011850       _DataUnit2LRWIndex@16      00021d50 f   Common:crypto.obj
 0001:00011900       _EncryptDataUnits@16       00021e00 f   Common:crypto.obj
 0001:00011930       _EncryptDataUnitsCurrentThread@20 00021e30 f   Common:crypto.obj
 0001:00011dd0       _DecryptBuffer@16          000222d0 f   Common:crypto.obj
 0001:00012230       _DecryptDataUnits@16       00022730 f   Common:crypto.obj
 0001:00012260       _DecryptDataUnitsCurrentThread@20 00022760 f   Common:crypto.obj
 0001:000125c0       _GetMaxPkcs5OutSize@0      00022ac0 f   Common:crypto.obj
 0001:000126b0       _IsAesHwCpuSupported@0     00022bb0 f   Common:crypto.obj
 0001:00012710       _EnableHwEncryption@4      00022c10 f   Common:crypto.obj
 0001:00012730       _IsHwEncryptionEnabled@0   00022c30 f   Common:crypto.obj
 0001:00012750       _GetHeaderField16@8        00022c50 f   Common:volumes.obj
 0001:00012770       _GetHeaderField32@8        00022c70 f   Common:volumes.obj
 0001:00012790       _GetHeaderField64@8        00022c90 f   Common:volumes.obj
 0001:000127d0       _ReadVolumeHeader@20       00022cd0 f   Common:volumes.obj
 0001:00013520       _GetWipePassCount@4        00023a20 f   Common:wipe.obj
 0001:000135a0       _WipeBuffer@20             00023aa0 f   Common:wipe.obj
 0001:000138d0       _XTSAesTest@4              00023dd0 f   Common:tests.obj
 0001:00013a70       _CipherInit2@16            00023f70 f   Common:tests.obj
 0001:00013b50       _LRWAesTest@4              00024050 f   Common:tests.obj
 0001:00013ca0       _TestSectorBufEncryption@4 000241a0 f   Common:tests.obj
 0001:000150d0       _TestLegacySectorBufEncryption@4 000255d0 f   Common:tests.obj
 0001:00016ef0       _AutoTestAlgorithms@0      000273f0 f   Common:tests.obj
 0001:00017670       _test_hmac_sha512@0        00027b70 f   Common:tests.obj
 0001:00017780       _test_hmac_sha1@0          00027c80 f   Common:tests.obj
 0001:00017890       _test_hmac_ripemd160@0     00027d90 f   Common:tests.obj
 0001:00017970       _test_hmac_whirlpool@0     00027e70 f   Common:tests.obj
 0001:00017a10       _test_pkcs5@0              00027f10 f   Common:tests.obj
 0001:00017c40       _EncryptionThreadPoolStart@4 00028140 f   Common:encryptionthreadpool.obj
 0001:00017db0       _ExInitializeFastMutex@4   000282b0 f i Common:encryptionthreadpool.obj
 0001:00018140       _EncryptionThreadPoolStop@0 00028640 f   Common:encryptionthreadpool.obj
 0001:000181c0       _EncryptionThreadPoolBeginKeyDerivation@40 000286c0 f   Common:encryptionthreadpool.obj
 0001:00018300       _EncryptionThreadPoolDoWork@20 00028800 f   Common:encryptionthreadpool.obj
 0001:00018580       _GetEncryptionThreadCount@0 00028a80 f   Common:encryptionthreadpool.obj
 0001:000185a0       _IsEncryptionThreadPoolRunning@0 00028aa0 f   Common:encryptionthreadpool.obj
 0001:000185c0       _MirrorBytes16@4           00028ac0 f   Common:endian.obj
 0001:000185e0       _MirrorBytes32@4           00028ae0 f   Common:endian.obj
 0001:00018640       _MirrorBytes64@8           00028b40 f   Common:endian.obj
 0001:000187b0       _bsw_32@8                  00028cb0 f i Common:gfmul.obj
 0001:00018830       _move_block_aligned@8      00028d30 f i Common:gfmul.obj
 0001:00018870       _xor_block_aligned@8       00028d70 f i Common:gfmul.obj
 0001:000188d0       _compile_8k_table@8        00028dd0 f   Common:gfmul.obj
 0001:00018bb0       _mul_x@4                   000290b0 f i Common:gfmul.obj
 0001:00018c50       _mul_lex8@4                00029150 f i Common:gfmul.obj
 0001:00018ce0       _compile_4k_table64@8      000291e0 f   Common:gfmul.obj
 0001:00018fa0       _mul_x64@4                 000294a0 f i Common:gfmul.obj
 0001:00019010       _mul_lex8_64@4             00029510 f i Common:gfmul.obj
 0001:00019060       _MirrorBits128@4           00029560 f   Common:gfmul.obj
 0001:000191c0       _MirrorBits64@4            000296c0 f   Common:gfmul.obj
 0001:00019310       _Gf128Tab64Init@8          00029810 f   Common:gfmul.obj
 0001:00019500       _Gf64TabInit@8             00029a00 f   Common:gfmul.obj
 0001:000196e0       _Gf128MulBy64Tab@12        00029be0 f   Common:gfmul.obj
 0001:00019920       _Gf64MulTab@12             00029e20 f   Common:gfmul.obj
 0001:00019b40       _move_block_aligned64@8    0002a040 f i Common:gfmul.obj
 0001:00019b70       _xor_block_aligned64@8     0002a070 f i Common:gfmul.obj
 0001:00019ba0       _EncryptBufferXTS@32       0002a0a0 f   Common:xts.obj
 0001:0001a540       _DecryptBufferXTS@32       0002aa40 f   Common:xts.obj
 0001:0001aee0       _hmac_truncate@12          0002b3e0 f   Common:pkcs5.obj
 0001:0001af20       _hmac_sha512@24            0002b420 f   Common:pkcs5.obj
 0001:0001b3a0       _derive_u_sha512@28        0002b8a0 f   Common:pkcs5.obj
 0001:0001b590       _derive_key_sha512@28      0002ba90 f   Common:pkcs5.obj
 0001:0001b6d0       _hmac_sha1@24              0002bbd0 f   Common:pkcs5.obj
 0001:0001bb20       _derive_u_sha1@28          0002c020 f   Common:pkcs5.obj
 0001:0001bd30       _derive_key_sha1@28        0002c230 f   Common:pkcs5.obj
 0001:0001be70       _hmac_ripemd160@20         0002c370 f   Common:pkcs5.obj
 0001:0001c1a0       _derive_u_ripemd160@28     0002c6a0 f   Common:pkcs5.obj
 0001:0001c3a0       _derive_key_ripemd160@28   0002c8a0 f   Common:pkcs5.obj
 0001:0001c4e0       _hmac_whirlpool@24         0002c9e0 f   Common:pkcs5.obj
 0001:0001c960       _derive_u_whirlpool@28     0002ce60 f   Common:pkcs5.obj
 0001:0001cb50       _derive_key_whirlpool@28   0002d050 f   Common:pkcs5.obj
 0001:0001cc90       _get_pkcs5_iteration_count@8 0002d190 f   Common:pkcs5.obj
 0001:0001cd20       _TripleDesSetKey@12        0002d220 f   Crypto:des.obj
 0001:0001d110       _TripleDesEncrypt@16       0002d610 f   Crypto:des.obj
 0001:0001d5a0       _Cast5Encrypt@12           0002daa0 f   Crypto:cast.obj
 0001:0001dbd0       _Cast5Decrypt@12           0002e0d0 f   Crypto:cast.obj
 0001:0001e1e0       _Cast5SetKey@12            0002e6e0 f   Crypto:cast.obj
 0001:0001ecc0       _BlowfishSetKey@12         0002f1c0 f   Crypto:blowfish.obj
 0001:0001ef90       _BlowfishEncryptLE@16      0002f490 f   Crypto:blowfish.obj
 0001:0001f0d0       _twofish_set_key@12        0002f5d0 f   Crypto:twofish.obj
 0001:0001fc80       _twofish_encrypt@12        00030180 f   Crypto:twofish.obj
 0001:00020930       _twofish_decrypt@12        00030e30 f   Crypto:twofish.obj
 0001:000215e0       _serpent_set_key@12        00031ae0 f   Crypto:serpent.obj
 0001:00021fa0       _serpent_encrypt@12        000324a0 f   Crypto:serpent.obj
 0001:00022c70       _serpent_decrypt@12        00033170 f   Crypto:serpent.obj
 0001:000238c0       _aes_encrypt_key256@8      00033dc0 f   Crypto:aeskey.obj
 0001:00024080       _aes_decrypt_key256@8      00034580 f   Crypto:aeskey.obj
 0001:00025020       _aes_encrypt@12            00035520     Crypto:aes_x86.obj
 0001:00025c20       _aes_decrypt@12            00036120     Crypto:aes_x86.obj
 0001:00026830       _aes_hw_cpu_enable_sse@0   00036d30     Crypto:aes_hw_cpu.obj
 0001:0002683b       _is_aes_hw_cpu_supported@0 00036d3b     Crypto:aes_hw_cpu.obj
 0001:0002684d       _aes_hw_cpu_decrypt@8      00036d4d     Crypto:aes_hw_cpu.obj
 0001:00026909       _aes_hw_cpu_decrypt_32_blocks@8 00036e09     Crypto:aes_hw_cpu.obj
 0001:00026d79       _aes_hw_cpu_encrypt@8      00037279     Crypto:aes_hw_cpu.obj
 0001:00026e35       _aes_hw_cpu_encrypt_32_blocks@8 00037335     Crypto:aes_hw_cpu.obj
 0001:000272b0       _sha512_compile@4          000377b0 f   Crypto:sha2.obj
 0001:0002a790       _sha512_hash@12            0003ac90 f   Crypto:sha2.obj
 0001:0002ac50       _sha512_begin@4            0003b150 f   Crypto:sha2.obj
 0001:0002aca0       _sha512_end@8              0003b1a0 f   Crypto:sha2.obj
 0001:0002acc0       _sha1_compile@4            0003b1c0 f   Crypto:sha1.obj
 0001:0002d060       _sha1_begin@4              0003d560 f   Crypto:sha1.obj
 0001:0002d0c0       _sha1_hash@12              0003d5c0 f   Crypto:sha1.obj
 0001:0002d1f0       _sha1_end@8                0003d6f0 f   Crypto:sha1.obj
 0001:0002d3a0       _RMD160Init@4              0003d8a0 f   Crypto:rmd160.obj
 0001:0002d400       _RMD160Update@12           0003d900 f   Crypto:rmd160.obj
 0001:0002d540       _RMD160Final@8             0003da40 f   Crypto:rmd160.obj
 0001:0002d700       _RMD160Transform@8         0003dc00 f   Crypto:rmd160.obj
 0001:0002fd00       _WHIRLPOOL_init@4          00040200 f   Crypto:whirlpool.obj
 0001:0002fd80       _WHIRLPOOL_add@12          00040280 f   Crypto:whirlpool.obj
 0001:000316b0       _WHIRLPOOL_finalize@8      00041bb0 f   Crypto:whirlpool.obj
 0001:000318a0       __except_handler4          00041da0 f   sehupd:chandler4.obj
 0001:000319fc       __local_unwind4            00041efc f   sehupd:exsup4.obj
 0001:00031ac5       __seh_longjmp_unwind4@4    00041fc5 f   sehupd:exsup4.obj
 0001:00031ae1       @_EH4_CallFilterFunc@8     00041fe1 f   sehupd:exsup4.obj
 0001:00031af8       @_EH4_TransferToHandler@8  00041ff8 f   sehupd:exsup4.obj
 0001:00031b0a       @_EH4_GlobalUnwind@4       0004200a f   sehupd:exsup4.obj
 0001:00031b24       @_EH4_LocalUnwind@16       00042024 f   sehupd:exsup4.obj
 0001:00031b40       __NLG_Call                 00042040 f   sehupd:_nlgsupp.obj
 0001:00031b48       __allshl                   00042048 f   ntoskrnl:ntoskrnl.exe
 0001:00031b54       _RtlUnwind@16              00042054 f   ntoskrnl:ntoskrnl.exe
 0001:00031b60       ??_C@_0BJ@FBGGCCGI@BootArgumentsCrc32?5?$DN?5?$CFx?6?$AA@FNODOBFM@ 00042060     drivefilter.obj
 0001:00031b80       ??_C@_0BJ@DENLEODJ@BootDriveSignature?5?$DN?5?$CFx?6?$AA@FNODOBFM@ 00042080     drivefilter.obj
 0001:00031ba0       ??_C@_0M@KEDLLGKK@Flags?5?$DN?5?$CFx?6?$AA@FNODOBFM@ 000420a0     drivefilter.obj
 0001:00031bb0       ??_C@_0CD@BAEBNNNN@DecoySystemPartitionStart?5?$DN?5?$CFI64@FNODOBFM@ 000420b0     drivefilter.obj
 0001:00031be0       ??_C@_0CE@JLLKOMJD@HiddenSystemPartitionStart?5?$DN?5?$CFI6@FNODOBFM@ 000420e0     drivefilter.obj
 0001:00031c10       ??_C@_0BH@OFNGPMHI@CryptoInfoLength?5?$DN?5?$CFd?6?$AA@FNODOBFM@ 00042110     drivefilter.obj
 0001:00031c30       ??_C@_0BH@DOJHKKND@CryptoInfoOffset?5?$DN?5?$CFx?6?$AA@FNODOBFM@ 00042130     drivefilter.obj
 0001:00031c50       ??_C@_0BG@PNJAPAAK@HeaderSaltCrc32?5?$DN?5?$CFx?6?$AA@FNODOBFM@ 00042150     drivefilter.obj
 0001:00031c70       ??_C@_0BI@NEHGCDJA@BootLoaderVersion?5?$DN?5?$CFx?6?$AA@FNODOBFM@ 00042170     drivefilter.obj
 0001:00031c90       ??_C@_0BN@NBHIKKLK@BootArguments?5CRC?5incorrect?6?$AA@FNODOBFM@ 00042190     drivefilter.obj
 0001:00031cb0       ??_C@_0BN@JFNHMJPM@BootArguments?5found?5at?50x?$CFx?6?$AA@FNODOBFM@ 000421b0     drivefilter.obj
 0001:00031cd0       ??_C@_0CA@ILBJGGPO@Checking?5BootArguments?5at?50x?$CFx?6?$AA@FNODOBFM@ 000421d0     drivefilter.obj
 0001:00031cf0       ??_C@_0BN@FJJFAJFG@DriveFilterAddDevice?5pdo?$DN?$CFp?6?$AA@FNODOBFM@ 000421f0     drivefilter.obj
 0001:00031d10       ??_C@_0DK@ECCPCMLD@?$CBExtension?9?$DObRootDevice?5?$CG?$CG?5Exten@FNODOBFM@ 00042210     drivefilter.obj
 0001:00031d50       ??_C@_0EF@GDHJGIB@c?3?2users?2public?2desktop?2projects@FNODOBFM@ 00042250     drivefilter.obj
 0001:00031da0       ??_C@_0CM@LOONDNKF@Irp?9?$DOCurrentLocation?5?$DM?$DN?5Irp?9?$DOSta@FNODOBFM@ 000422a0     drivefilter.obj
 0001:00031dd0       ??_C@_0CF@LIHGPBLF@c?3?2winddk?27600?416385?41?2inc?2ddk?2w@FNODOBFM@ 000422d0     drivefilter.obj
 0001:00031e00       ??_C@_0CI@HDMHMCGD@Irp?9?$DOCurrentLocation?5?$DM?$DN?5Irp?9?$DOSta@FNODOBFM@ 00042300     drivefilter.obj
 0001:00031e30       ??_C@_0BN@GINPCIAN@IRP_MN_REMOVE_DEVICE?5pdo?$DN?$CFp?6?$AA@FNODOBFM@ 00042330     drivefilter.obj
 0001:00031e50       ??_C@_0BJ@ECOGMEFG@Preventing?5dump?5type?$DN?$CFd?6?$AA@FNODOBFM@ 00042350     drivefilter.obj
 0001:00031e70       ??_C@_0CK@HDNODHHC@IRP_MN_DEVICE_USAGE_NOTIFICATION@FNODOBFM@ 00042370     drivefilter.obj
 0001:00031ea0       ??_C@_0BM@EOGIDBIC@IRP_MN_START_DEVICE?5pdo?$DN?$CFp?6?$AA@FNODOBFM@ 000423a0     drivefilter.obj
 0001:00031ec0       ??_C@_0BI@ONACDOIC@Extension?9?$DODriveMounted?$AA@FNODOBFM@ 000423c0     drivefilter.obj
 0001:00031ee0       ??_C@_0BD@EAAMLHLJ@Dismounting?5drive?6?$AA@FNODOBFM@ 000423e0     drivefilter.obj
 0001:00031f00       ??_C@_0FK@JAEDPCKJ@?$CIInvokeOnSuccess?5?$HM?$HM?5InvokeOnErro@FNODOBFM@ 00042400     drivefilter.obj
 0001:00031f60       ??_C@_0BJ@HKMILGM@Irp?9?$DOCurrentLocation?5?$DO?50?$AA@FNODOBFM@ 00042460     drivefilter.obj
 0001:00031f80       ??_C@_0BP@NOBPEAIN@Drive?5and?5volume?5merged?5pdo?$DN?$CFp?$AA@FNODOBFM@ 00042480     drivefilter.obj
 0001:00031fa0       ??_C@_0BG@CKLJIMPP@Header?5not?5decrypted?6?$AA@FNODOBFM@ 000424a0     drivefilter.obj
 0001:00031fc0       ??_C@_0CH@IHPMFJGA@Failed?5to?5get?5drive?5length?5?9?5err@FNODOBFM@ 000424c0     drivefilter.obj
 0001:00031ff0       ??_C@_0CH@LNDECHEL@Failed?5to?5get?5drive?5number?5?9?5err@FNODOBFM@ 000424f0     drivefilter.obj
 0001:00032020       ??_C@_0BF@DFBDNCBE@Wiping?5memory?5?$CFx?5?$CFd?6?$AA@FNODOBFM@ 00042520     drivefilter.obj
 0001:00032040       ??_C@_0EK@PHFABMCK@Loaded?3?5EncryptedAreaStart?$DN?$CFI64d@FNODOBFM@ 00042540     drivefilter.obj
 0001:00032090       ??_C@_0FO@PAPPJPK@Loaded?3?5ConfiguredEncryptedAreaS@FNODOBFM@ 00042590     drivefilter.obj
 0001:000320f0       ??_C@_0CE@NLPFMAEC@RemappedAreaDataUnitOffset?5?$DN?5?$CFI6@FNODOBFM@ 000425f0     drivefilter.obj
 0001:00032120       ??_C@_0BM@GBKCGBDB@RemappedAreaOffset?5?$DN?5?$CFI64d?6?$AA@FNODOBFM@ 00042620     drivefilter.obj
 0001:00032140       ??_C@_0CE@ONLIABPH@Hidden?5volume?5start?5offset?5?$DN?5?$CFI6@FNODOBFM@ 00042640     drivefilter.obj
 0001:00032170       ??_C@_0BC@LMOOMJMK@Header?5decrypted?6?$AA@FNODOBFM@ 00042670     drivefilter.obj
 0001:00032190       ??_C@_0BH@FBDKNNGH@TCReadDevice?5error?5?$CFx?6?$AA@FNODOBFM@ 00042690     drivefilter.obj
 0001:000321b0       ??_C@_0CA@JLOPIPKN@Reading?5volume?5header?5at?5?$CFI64u?6?$AA@FNODOBFM@ 000426b0     drivefilter.obj
 0001:000321d0       ??_C@_0CE@KKOENIAD@KeGetCurrentIrql?$CI?$CJ?5?$DN?$DN?5PASSIVE_LE@FNODOBFM@ 000426d0     drivefilter.obj
 0001:00032200       ??_C@_0BD@JFDPBFDA@MountDrive?5pdo?$DN?$CFp?6?$AA@FNODOBFM@ 00042700     drivefilter.obj
 0001:00032220       ??_C@_0CL@JHMIFAKG@IRP_MJ_POWER?5minor?$DN?$CFd?5type?$DN?$CFd?5sh@FNODOBFM@ 00042720     drivefilter.obj
 0001:00032250       ??_C@_0BF@GFCPIAML@Header?5not?5reopened?6?$AA@FNODOBFM@ 00042750     drivefilter.obj
 0001:00032270       ??_C@_0BB@DLMCDLIB@Header?5reopened?6?$AA@FNODOBFM@ 00042770     drivefilter.obj
 0001:00032290       ??_C@_0BJ@CFHEDMMF@?$CBIsOSAtLeast?5?$CIWIN_VISTA?$CJ?$AA@FNODOBFM@ 00042790     drivefilter.obj
 0001:000322b0       ??_C@_1M@IFMDENJC@?$AAH?$AAI?$AAB?$AAE?$AAR?$AA?$AA@FNODOBFM@ 000427b0     drivefilter.obj
 0001:000322c0       ??_C@_1M@JEHGIGBM@?$AAH?$AAi?$AAb?$AAe?$AAr?$AA?$AA@FNODOBFM@ 000427c0     drivefilter.obj
 0001:000322d0       ??_C@_1M@IMEHFNOE@?$AAh?$AAi?$AAb?$AAe?$AAr?$AA?$AA@FNODOBFM@ 000427d0     drivefilter.obj
 0001:000322e0       ??_C@_0BN@MGBGIHJM@Filtering?5WriteFunctionB?5?$CFd?6?$AA@FNODOBFM@ 000427e0     drivefilter.obj
 0001:00032300       ??_C@_0BN@EAICPFDC@Filtering?5WriteFunctionA?5?$CFd?6?$AA@FNODOBFM@ 00042800     drivefilter.obj
 0001:00032320       ??_C@_0FE@OKPCPDJI@Setup?5completed?3?5?5EncryptedAreaS@FNODOBFM@ 00042820     drivefilter.obj
 0001:00032380       ??_C@_0BE@IDPHHPHP@NT_SUCCESS?5?$CIstatus?$CJ?$AA@FNODOBFM@ 00042880     drivefilter.obj
 0001:000323a0       ??_C@_0BI@LEBDPHBF@TCWriteDevice?5error?5?$CFx?6?$AA@FNODOBFM@ 000428a0     drivefilter.obj
 0001:000323c0       ??_C@_0CF@CKMJEIIB@TCReadDevice?5error?5?$CFx?5?5offset?$DN?$CFI@FNODOBFM@ 000428c0     drivefilter.obj
 0001:000323f0       ??_C@_0DK@GDPNMFEK@EncryptedAreaStart?$DN?$CFI64d?5?$CI?$CFI64d?$CJ@FNODOBFM@ 000428f0     drivefilter.obj
 0001:00032430       ??_C@_0O@CPDGLKAG@offset?$DN?$CFI64d?6?$AA@FNODOBFM@ 00042930     drivefilter.obj
 0001:00032440       ??_C@_0CC@FCINBIJC@ConfiguredEncryptedAreaEnd?$DN?$CFI64d@FNODOBFM@ 00042940     drivefilter.obj
 0001:00032470       ??_C@_0CE@PHJPGEOK@ConfiguredEncryptedAreaStart?$DN?$CFI6@FNODOBFM@ 00042970     drivefilter.obj
 0001:000324a0       ??_C@_0BI@NGOBDECI@EncryptedAreaEnd?$DN?$CFI64d?6?$AA@FNODOBFM@ 000429a0     drivefilter.obj
 0001:000324c0       ??_C@_0BK@NLGNMKFH@EncryptedAreaStart?$DN?$CFI64d?6?$AA@FNODOBFM@ 000429c0     drivefilter.obj
 0001:000324e0       ??_C@_0P@DCAIKIEM@Decrypting?4?4?4?6?$AA@FNODOBFM@ 000429e0     drivefilter.obj
 0001:000324f0       ??_C@_0P@MEMLEIEJ@Encrypting?4?4?4?6?$AA@FNODOBFM@ 000429f0     drivefilter.obj
 0001:00032500       ??_C@_0BH@PIJMMLOC@TCWriteDevice?5error?5?$CFx?$AA@FNODOBFM@ 00042a00     drivefilter.obj
 0001:00032520       ??_C@_0BF@DGHCICOF@Header?5not?5decrypted?$AA@FNODOBFM@ 00042a20     drivefilter.obj
 0001:00032540       ??_C@_0EK@MOIFFFBD@Saving?3?5EncryptedAreaStart?$DN?$CFI64d@FNODOBFM@ 00042a40     drivefilter.obj
 0001:00032590       ??_C@_0FO@BIDJBKJB@Saving?3?5ConfiguredEncryptedAreaS@FNODOBFM@ 00042a90     drivefilter.obj
 0001:000325f0       ??_C@_0BG@EAILECP@TCReadDevice?5error?5?$CFx?$AA@FNODOBFM@ 00042af0     drivefilter.obj
 0001:00032610       ??_C@_0DB@OHMKNOCN@Wipe?5end?3?5DecoySystemWipedAreaEn@FNODOBFM@ 00042b10     drivefilter.obj
 0001:00032650       ??_C@_0CM@PJEGGJLG@Wiping?5decoy?5system?3?5?5start?5offs@FNODOBFM@ 00042b50     drivefilter.obj
 0001:00032680       ??_C@_0BK@MPDBPBLL@DumpFilterEntry?5error?5?$CFx?6?$AA@FNODOBFM@ 00042b80     dumpfilter.obj
 0001:000326a0       ??_C@_0BM@NIHDEFIH@Dump?5filter?5loaded?5type?$DN?$CFd?6?$AA@FNODOBFM@ 00042ba0     dumpfilter.obj
 0001:000326c0       ??_C@_1CE@IPABBIFA@?$AA?2?$AAD?$AAe?$AAv?$AAi?$AAc?$AAe?$AA?2?$AAT?$AAr?$AAu?$AAe?$AAC?$AAr?$AAy?$AAp?$AAt?$AA?$AA@FNODOBFM@ 00042bc0     dumpfilter.obj
 0001:000326f0       ??_C@_0BJ@DKEIHACK@DumpFilterEntry?5type?$DN?$CFd?6?$AA@FNODOBFM@ 00042bf0     dumpfilter.obj
 0001:00032710       ??_C@_0BJ@IKOJIFKO@DumpFilterStart?5type?$DN?$CFd?6?$AA@FNODOBFM@ 00042c10     dumpfilter.obj
 0001:00032730       ??_C@_0BK@EIOFNLAN@DumpFilterFinish?5type?$DN?$CFd?6?$AA@FNODOBFM@ 00042c30     dumpfilter.obj
 0001:00032750       ??_C@_0BK@LHLJKEKP@DumpFilterUnload?5type?$DN?$CFd?6?$AA@FNODOBFM@ 00042c50     dumpfilter.obj
 0001:00032770       ??_C@_0EK@OJKOJEAN@c?3?2users?2public?2desktop?2projects@FNODOBFM@ 00042c70     encryptedioqueue.obj
 0001:000327c0       ??_C@_0CB@JMNJFHBF@STATUS_DEVICE_NOT_READY?5?5out?$DN?$CFd?6@FNODOBFM@ 00042cc0     encryptedioqueue.obj
 0001:000327f0       ??_C@_0BC@DPKEMNCN@?$CBqueue?9?$DOSuspended?$AA@FNODOBFM@ 00042cf0     encryptedioqueue.obj
 0001:00032810       ??_C@_0BB@CDEEPNAM@queue?9?$DOSuspended?$AA@FNODOBFM@ 00042d10     encryptedioqueue.obj
 0001:00032830       ??_C@_0P@IPONPJEA@Queue?5started?6?$AA@FNODOBFM@ 00042d30     encryptedioqueue.obj
 0001:00032840       ??_C@_0CG@COCFEEEN@?$CBbuffer?9?$DOInUse?5?$HM?$HM?5queue?9?$DOStartPe@FNODOBFM@ 00042d40     encryptedioqueue.obj
 0001:00032870       ??_C@_0GC@JKEACOCL@request?9?$DOEncryptedOffset?5?$CL?5reque@FNODOBFM@ 00042d70     encryptedioqueue.obj
 0001:000328e0       ??_C@_0O@FECNDOKE@buffer?9?$DOInUse?$AA@FNODOBFM@ 00042de0     encryptedioqueue.obj
 0001:000328f0       ??_C@_0DI@GBCOIBFH@Preventing?5write?5to?5boot?5loader?5@FNODOBFM@ 00042df0     encryptedioqueue.obj
 0001:00032930       ??_C@_0DJ@KOLNOKOK@Preventing?5write?5to?5the?5system?5e@FNODOBFM@ 00042e30     encryptedioqueue.obj
 0001:00032970       ??_C@_0EP@IGAPPBIF@Hidden?5volume?5protection?5trigger@FNODOBFM@ 00042e70     encryptedioqueue.obj
 0001:000329c0       ??_C@_0BH@LHJJPAN@Queue?5stopped?5?5out?$DN?$CFd?6?$AA@FNODOBFM@ 00042ec0     encryptedioqueue.obj
 0001:000329e0       ??_C@_0BI@FIKKAEEK@Queue?5stopping?5?5out?$DN?$CFd?6?$AA@FNODOBFM@ 00042ee0     encryptedioqueue.obj
 0001:00032a00       ??_C@_0BE@PAKNKFEC@?$CBqueue?9?$DOStopPending?$AA@FNODOBFM@ 00042f00     encryptedioqueue.obj
 0001:00032a20       ??_C@_0BN@PIELMKDH@Volume?5pdo?$DN?$CFp?5interface?$DN?$CFws?6?$AA@FNODOBFM@ 00042f20     ntdriver.obj
 0001:00032a40       ??_C@_0CD@FCIMJPEM@AddDevice?5pdo?$DN?$CFp?5type?$DN?$CFx?5name?$DN?$CFw@FNODOBFM@ 00042f40     ntdriver.obj
 0001:00032a70       ??_C@_13HGPDMIBE@?$AA?$DP?$AA?$AA@FNODOBFM@ 00042f70     ntdriver.obj
 0001:00032a80       ??_C@_0DF@IHIBAGEA@0x?$CF08p?5?5?$CF02x?5?$CF02x?5?$CF02x?5?$CF02x?5?$CF02x@FNODOBFM@ 00042f80     ntdriver.obj
 0001:00032ac0       ??_C@_0FE@HIDEPCAO@STATUS_BUFFER_TOO_SMALL?5ioctl?$DN0x@FNODOBFM@ 00042fc0     ntdriver.obj
 0001:00032b20       ??_C@_0EC@PIHBGAHH@c?3?2users?2public?2desktop?2projects@FNODOBFM@ 00043020     ntdriver.obj
 0001:00032b70       ??_C@_0EI@NJLFEPKD@Removable?5device?5?$CFd?5has?5DO_VERIF@FNODOBFM@ 00043070     ntdriver.obj
 0001:00032bc0       ??_C@_0DA@HGPNLENJ@Device?5?$CFd?5shutting?5down?3?5STATUS_@FNODOBFM@ 000430c0     ntdriver.obj
 0001:00032bf0       ??_C@_0BG@JHFMBFJC@Driver?5shutting?5down?6?$AA@FNODOBFM@ 000430f0     ntdriver.obj
 0001:00032c10       ??_C@_0P@CMDFIGFB@?$CFls?5?$CI0x?$CFx?5?$CFd?$CJ?6?$AA@FNODOBFM@ 00043110     ntdriver.obj
 0001:00032c20       ??_C@_0CJ@CAANMOOG@TCCreateDeviceObject?5STATUS_SUCC@FNODOBFM@ 00043120     ntdriver.obj
 0001:00032c50       ??_C@_0CM@DAAJFNOI@TCCreateDeviceObject?5NTSTATUS?5?$DN?5@FNODOBFM@ 00043150     ntdriver.obj
 0001:00032c80       ??_C@_0CA@MBKOBJGH@Creating?5device?5nt?$DN?$CFls?5dos?$DN?$CFls?6?$AA@FNODOBFM@ 00043180     ntdriver.obj
 0001:00032ca0       ??_C@_0BM@HAIECJHN@TCCreateDeviceObject?5BEGIN?6?$AA@FNODOBFM@ 000431a0     ntdriver.obj
 0001:00032cc0       ??_C@_0BO@BEMMNDOD@IOCTL?5error?50x?$CF08x?5?$CI0x?$CFx?5?$CFd?$CJ?6?$AA@FNODOBFM@ 000431c0     ntdriver.obj
 0001:00032ce0       ??_C@_0M@HABEOOKA@link?5?$DN?5?$CFls?6?$AA@FNODOBFM@ 000431e0     ntdriver.obj
 0001:00032cf0       ??_C@_08DALLBBIL@id?5?$DN?5?$CFs?6?$AA@FNODOBFM@ 000431f0     ntdriver.obj
 0001:00032d00       ??_C@_0BA@OLBPPLP@TrueCryptVolume?$AA@FNODOBFM@ 00043200     ntdriver.obj
 0001:00032d10       ??_C@_0M@FBJPBOL@name?5?$DN?5?$CFls?6?$AA@FNODOBFM@ 00043210     ntdriver.obj
 0001:00032d20       ??_C@_0BE@MLCKFMJI@IOCTL?5error?50x?$CF08x?6?$AA@FNODOBFM@ 00043220     ntdriver.obj
 0001:00032d40       ??_C@_0BH@GFMHOPFN@Setting?5portable?5mode?6?$AA@FNODOBFM@ 00043240     ntdriver.obj
 0001:00032d60       ??_C@_0CA@FCHCHJKN@Open?5test?5on?5file?5?$CFls?5success?4?6?$AA@FNODOBFM@ 00043260     ntdriver.obj
 0001:00032d80       ??_C@_09EMKKFGIH@TrueCrypt?$AA@FNODOBFM@ 00043280     ntdriver.obj
 0001:00032d90       ??_C@_0L@FEEFGEIL@CipherShed?$AA@FNODOBFM@ 00043290     ntdriver.obj
 0001:00032da0       ??_C@_0CK@KIOPBGEO@Waiting?5completed?$CB?5Thread?5return@FNODOBFM@ 000432a0     ntdriver.obj
 0001:00032dd0       ??_C@_0CF@DMBFEFC@Waiting?5for?5thread?5to?5initialize@FNODOBFM@ 000432d0     ntdriver.obj
 0001:00032e00       ??_C@_0CB@DGOAIPAC@PsCreateSystemThread?5Failed?5END?6@FNODOBFM@ 00043300     ntdriver.obj
 0001:00032e30       ??_C@_0BE@DCPHDOHD@Starting?5thread?4?4?4?6?$AA@FNODOBFM@ 00043330     ntdriver.obj
 0001:00032e50       ??_C@_0P@OPFPPFJJ@Thread?5exited?6?$AA@FNODOBFM@ 00043350     ntdriver.obj
 0001:00032e60       ??_C@_0BG@MEOILBFO@NT_SUCCESS?5?$CIntStatus?$CJ?$AA@FNODOBFM@ 00043360     ntdriver.obj
 0001:00032e80       ??_C@_0BO@IDJGLOL@Signalling?5thread?5to?5quit?4?4?4?6?$AA@FNODOBFM@ 00043380     ntdriver.obj
 0001:00032ea0       ??_C@_0BA@OMKHINCH@Closing?5volume?6?$AA@FNODOBFM@ 000433a0     ntdriver.obj
 0001:00032eb0       ??_C@_0CO@PADHEFHE@irpSp?9?$DOMajorFunction?5?$DN?$DN?5IRP_MJ_D@FNODOBFM@ 000433b0     ntdriver.obj
 0001:00032ee0       ??_C@_0DO@GJJNBBEG@Mount?5THREAD?5request?5for?5File?5?$CFl@FNODOBFM@ 000433e0     ntdriver.obj
 0001:00032f20       ??_C@_19JHEHLFPM@?$AA?2?$AA?$DP?$AA?$DP?$AA?2?$AA?$AA@FNODOBFM@ 00043420     ntdriver.obj
 0001:00032f30       ??_C@_1BA@CCLAPIHO@?$AA?2?$AAD?$AAe?$AAv?$AAi?$AAc?$AAe?$AA?$AA@FNODOBFM@ 00043430     ntdriver.obj
 0001:00032f40       ??_C@_0CD@LOGBEHKH@Mount?5THREAD?5OPENING?5VOLUME?5BEGI@FNODOBFM@ 00043440     ntdriver.obj
 0001:00032f70       ??_C@_1DA@GMJGMIMP@?$AA?2?$AAD?$AAe?$AAv?$AAi?$AAc?$AAe?$AA?2?$AAT?$AAr?$AAu?$AAe?$AAC?$AAr?$AAy?$AAp?$AAt?$AAV?$AAo?$AAl?$AAu?$AAm?$AAe?$AA?$AA@FNODOBFM@ 00043470     ntdriver.obj
 0001:00032fa0       ??_C@_1BK@LABJKOM@?$AA?2?$AAD?$AAo?$AAs?$AAD?$AAe?$AAv?$AAi?$AAc?$AAe?$AAs?$AA?2?$AA?$AA@FNODOBFM@ 000434a0     ntdriver.obj
 0001:00032fc0       ??_C@_1M@KHJOIALG@?$AAI?$AAO?$AAC?$AAT?$AAL?$AA?$AA@FNODOBFM@ 000434c0     ntdriver.obj
 0001:00032fd0       ??_C@_1CM@DKLAEDLO@?$AAI?$AAR?$AAP?$AA_?$AAM?$AAJ?$AA_?$AAD?$AAE?$AAV?$AAI?$AAC?$AAE?$AA_?$AAC?$AAO?$AAN?$AAT?$AAR?$AAO?$AAL?$AA?$AA@FNODOBFM@ 000434d0     ntdriver.obj
 0001:00033000       ??_C@_1CA@FOECGGNC@?$AAI?$AAR?$AAP?$AA_?$AAM?$AAJ?$AA_?$AAS?$AAH?$AAU?$AAT?$AAD?$AAO?$AAW?$AAN?$AA?$AA@FNODOBFM@ 00043500     ntdriver.obj
 0001:00033020       ??_C@_1CK@MCKHKFDD@?$AAI?$AAR?$AAP?$AA_?$AAM?$AAJ?$AA_?$AAF?$AAL?$AAU?$AAS?$AAH?$AA_?$AAB?$AAU?$AAF?$AAF?$AAE?$AAR?$AAS?$AA?$AA@FNODOBFM@ 00043520     ntdriver.obj
 0001:00033050       ??_C@_1BO@GEGOKABG@?$AAI?$AAR?$AAP?$AA_?$AAM?$AAJ?$AA_?$AAC?$AAL?$AAE?$AAA?$AAN?$AAU?$AAP?$AA?$AA@FNODOBFM@ 00043550     ntdriver.obj
 0001:00033070       ??_C@_1BK@JLALPKNJ@?$AAI?$AAR?$AAP?$AA_?$AAM?$AAJ?$AA_?$AAC?$AAL?$AAO?$AAS?$AAE?$AA?$AA@FNODOBFM@ 00043570     ntdriver.obj
 0001:00033090       ??_C@_1BM@KFEHBPBD@?$AAI?$AAR?$AAP?$AA_?$AAM?$AAJ?$AA_?$AAC?$AAR?$AAE?$AAA?$AAT?$AAE?$AA?$AA@FNODOBFM@ 00043590     ntdriver.obj
 0001:000330b0       ??_C@_1BK@HGBIKEDO@?$AAI?$AAR?$AAP?$AA_?$AAM?$AAJ?$AA_?$AAW?$AAR?$AAI?$AAT?$AAE?$AA?$AA@FNODOBFM@ 000435b0     ntdriver.obj
 0001:000330d0       ??_C@_1BI@CFPHGFDN@?$AAI?$AAR?$AAP?$AA_?$AAM?$AAJ?$AA_?$AAR?$AAE?$AAA?$AAD?$AA?$AA@FNODOBFM@ 000435d0     ntdriver.obj
 0001:000330f0       ??_C@_1DO@MEELNMKF@?$AAI?$AAO?$AAC?$AAT?$AAL?$AA_?$AAS?$AAT?$AAO?$AAR?$AAA?$AAG?$AAE?$AA_?$AAS?$AAE?$AAT?$AA_?$AAH?$AAO?$AAT?$AAP?$AAL?$AAU?$AAG?$AA_?$AAI?$AAN?$AAF?$AAO?$AA?$AA@FNODOBFM@ 000435f0     ntdriver.obj
 0001:00033130       ??_C@_1DG@MIHPHMPG@?$AAI?$AAO?$AAC?$AAT?$AAL?$AA_?$AAD?$AAI?$AAS?$AAK?$AA_?$AAG?$AAE?$AAT?$AA_?$AAM?$AAE?$AAD?$AAI?$AAA?$AA_?$AAT?$AAY?$AAP?$AAE?$AAS?$AA?$AA@FNODOBFM@ 00043630     ntdriver.obj
 0001:00033170       ??_C@_1DI@EBJJOMKC@?$AAI?$AAO?$AAC?$AAT?$AAL?$AA_?$AAD?$AAI?$AAS?$AAK?$AA_?$AAF?$AAI?$AAN?$AAD?$AA_?$AAN?$AAE?$AAW?$AA_?$AAD?$AAE?$AAV?$AAI?$AAC?$AAE?$AAS?$AA?$AA@FNODOBFM@ 00043670     ntdriver.obj
 0001:000331b0       ??_C@_1CG@BFEEHHEK@?$AAI?$AAO?$AAC?$AAT?$AAL?$AA_?$AAD?$AAI?$AAS?$AAK?$AA_?$AAR?$AAE?$AAL?$AAE?$AAA?$AAS?$AAE?$AA?$AA@FNODOBFM@ 000436b0     ntdriver.obj
 0001:000331e0       ??_C@_1CG@MJDBKCLM@?$AAI?$AAO?$AAC?$AAT?$AAL?$AA_?$AAD?$AAI?$AAS?$AAK?$AA_?$AAR?$AAE?$AAS?$AAE?$AAR?$AAV?$AAE?$AA?$AA@FNODOBFM@ 000436e0     ntdriver.obj
 0001:00033210       ??_C@_1CM@GNBBIMEE@?$AAI?$AAO?$AAC?$AAT?$AAL?$AA_?$AAD?$AAI?$AAS?$AAK?$AA_?$AAL?$AAO?$AAA?$AAD?$AA_?$AAM?$AAE?$AAD?$AAI?$AAA?$AA?$AA@FNODOBFM@ 00043710     ntdriver.obj
 0001:00033240       ??_C@_1CO@KHEOABCH@?$AAI?$AAO?$AAC?$AAT?$AAL?$AA_?$AAD?$AAI?$AAS?$AAK?$AA_?$AAE?$AAJ?$AAE?$AAC?$AAT?$AA_?$AAM?$AAE?$AAD?$AAI?$AAA?$AA?$AA@FNODOBFM@ 00043740     ntdriver.obj
 0001:00033270       ??_C@_1DC@NMJCPDJD@?$AAI?$AAO?$AAC?$AAT?$AAL?$AA_?$AAD?$AAI?$AAS?$AAK?$AA_?$AAM?$AAE?$AAD?$AAI?$AAA?$AA_?$AAR?$AAE?$AAM?$AAO?$AAV?$AAA?$AAL?$AA?$AA@FNODOBFM@ 00043770     ntdriver.obj
 0001:000332b0       ??_C@_1DA@DLMBEKMN@?$AAI?$AAO?$AAC?$AAT?$AAL?$AA_?$AAD?$AAI?$AAS?$AAK?$AA_?$AAC?$AAH?$AAE?$AAC?$AAK?$AA_?$AAV?$AAE?$AAR?$AAI?$AAF?$AAY?$AA?$AA@FNODOBFM@ 000437b0     ntdriver.obj
 0001:000332e0       ??_C@_1EC@JFOBAPGC@?$AAI?$AAO?$AAC?$AAT?$AAL?$AA_?$AAD?$AAI?$AAS?$AAK?$AA_?$AAI?$AAN?$AAT?$AAE?$AAR?$AAN?$AAA?$AAL?$AA_?$AAC?$AAL?$AAE?$AAA?$AAR?$AA_?$AAV?$AAE?$AAR?$AAI?$AAF?$AAY@FNODOBFM@ 000437e0     ntdriver.obj
 0001:00033330       ??_C@_1DO@JKPDDEIN@?$AAI?$AAO?$AAC?$AAT?$AAL?$AA_?$AAD?$AAI?$AAS?$AAK?$AA_?$AAI?$AAN?$AAT?$AAE?$AAR?$AAN?$AAA?$AAL?$AA_?$AAS?$AAE?$AAT?$AA_?$AAV?$AAE?$AAR?$AAI?$AAF?$AAY?$AA?$AA@FNODOBFM@ 00043830     ntdriver.obj
 0001:00033370       ??_C@_1CK@JCHEBCIE@?$AAS?$AAM?$AAA?$AAR?$AAT?$AA_?$AAR?$AAC?$AAV?$AA_?$AAD?$AAR?$AAI?$AAV?$AAE?$AA_?$AAD?$AAA?$AAT?$AAA?$AA?$AA@FNODOBFM@ 00043870     ntdriver.obj
 0001:000333a0       ??_C@_1DC@MGFPICHJ@?$AAS?$AAM?$AAA?$AAR?$AAT?$AA_?$AAS?$AAE?$AAN?$AAD?$AA_?$AAD?$AAR?$AAI?$AAV?$AAE?$AA_?$AAC?$AAO?$AAM?$AAM?$AAA?$AAN?$AAD?$AA?$AA@FNODOBFM@ 000438a0     ntdriver.obj
 0001:000333e0       ??_C@_1CE@PLNOGJJD@?$AAS?$AAM?$AAA?$AAR?$AAT?$AA_?$AAG?$AAE?$AAT?$AA_?$AAV?$AAE?$AAR?$AAS?$AAI?$AAO?$AAN?$AA?$AA@FNODOBFM@ 000438e0     ntdriver.obj
 0001:00033410       ??_C@_1DK@NNJOEKIN@?$AAI?$AAO?$AAC?$AAT?$AAL?$AA_?$AAD?$AAI?$AAS?$AAK?$AA_?$AAC?$AAO?$AAN?$AAT?$AAR?$AAO?$AAL?$AAL?$AAE?$AAR?$AA_?$AAN?$AAU?$AAM?$AAB?$AAE?$AAR?$AA?$AA@FNODOBFM@ 00043910     ntdriver.obj
 0001:00033450       ??_C@_1DA@EGLLKJNO@?$AAI?$AAO?$AAC?$AAT?$AAL?$AA_?$AAD?$AAI?$AAS?$AAK?$AA_?$AAR?$AAE?$AAQ?$AAU?$AAE?$AAS?$AAT?$AA_?$AAD?$AAA?$AAT?$AAA?$AA?$AA@FNODOBFM@ 00043950     ntdriver.obj
 0001:00033480       ??_C@_1DK@EFIEFEEG@?$AAI?$AAO?$AAC?$AAT?$AAL?$AA_?$AAD?$AAI?$AAS?$AAK?$AA_?$AAR?$AAE?$AAQ?$AAU?$AAE?$AAS?$AAT?$AA_?$AAS?$AAT?$AAR?$AAU?$AAC?$AAT?$AAU?$AAR?$AAE?$AA?$AA@FNODOBFM@ 00043980     ntdriver.obj
 0001:000334c0       ??_C@_1DG@BLHGEOGG@?$AAI?$AAO?$AAC?$AAT?$AAL?$AA_?$AAD?$AAI?$AAS?$AAK?$AA_?$AAH?$AAI?$AAS?$AAT?$AAO?$AAG?$AAR?$AAA?$AAM?$AA_?$AAR?$AAE?$AAS?$AAE?$AAT?$AA?$AA@FNODOBFM@ 000439c0     ntdriver.obj
 0001:00033500       ??_C@_1DE@OGHADOL@?$AAI?$AAO?$AAC?$AAT?$AAL?$AA_?$AAD?$AAI?$AAS?$AAK?$AA_?$AAH?$AAI?$AAS?$AAT?$AAO?$AAG?$AAR?$AAA?$AAM?$AA_?$AAD?$AAA?$AAT?$AAA?$AA?$AA@FNODOBFM@ 00043a00     ntdriver.obj
 0001:00033540       ??_C@_1DO@JMICENAF@?$AAI?$AAO?$AAC?$AAT?$AAL?$AA_?$AAD?$AAI?$AAS?$AAK?$AA_?$AAH?$AAI?$AAS?$AAT?$AAO?$AAG?$AAR?$AAA?$AAM?$AA_?$AAS?$AAT?$AAR?$AAU?$AAC?$AAT?$AAU?$AAR?$AAE?$AA?$AA@FNODOBFM@ 00043a40     ntdriver.obj
 0001:00033580       ??_C@_1DI@LHHOILKE@?$AAI?$AAO?$AAC?$AAT?$AAL?$AA_?$AAD?$AAI?$AAS?$AAK?$AA_?$AAF?$AAO?$AAR?$AAM?$AAA?$AAT?$AA_?$AAT?$AAR?$AAA?$AAC?$AAK?$AAS?$AA_?$AAE?$AAX?$AA?$AA@FNODOBFM@ 00043a80     ntdriver.obj
 0001:000335c0       ??_C@_1CG@LCBFNDKM@?$AAI?$AAO?$AAC?$AAT?$AAL?$AA_?$AAD?$AAI?$AAS?$AAK?$AA_?$AAL?$AAO?$AAG?$AAG?$AAI?$AAN?$AAG?$AA?$AA@FNODOBFM@ 00043ac0     ntdriver.obj
 0001:000335f0       ??_C@_1CO@MFHKENAI@?$AAI?$AAO?$AAC?$AAT?$AAL?$AA_?$AAD?$AAI?$AAS?$AAK?$AA_?$AAI?$AAS?$AA_?$AAW?$AAR?$AAI?$AAT?$AAA?$AAB?$AAL?$AAE?$AA?$AA@FNODOBFM@ 00043af0     ntdriver.obj
 0001:00033620       ??_C@_1CO@LEDAJMII@?$AAI?$AAO?$AAC?$AAT?$AAL?$AA_?$AAD?$AAI?$AAS?$AAK?$AA_?$AAP?$AAE?$AAR?$AAF?$AAO?$AAR?$AAM?$AAA?$AAN?$AAC?$AAE?$AA?$AA@FNODOBFM@ 00043b20     ntdriver.obj
 0001:00033650       ??_C@_1DG@HPLPDECO@?$AAI?$AAO?$AAC?$AAT?$AAL?$AA_?$AAD?$AAI?$AAS?$AAK?$AA_?$AAR?$AAE?$AAA?$AAS?$AAS?$AAI?$AAG?$AAN?$AA_?$AAB?$AAL?$AAO?$AAC?$AAK?$AAS?$AA?$AA@FNODOBFM@ 00043b50     ntdriver.obj
 0001:00033690       ??_C@_1DC@PCKIDBBB@?$AAI?$AAO?$AAC?$AAT?$AAL?$AA_?$AAD?$AAI?$AAS?$AAK?$AA_?$AAF?$AAO?$AAR?$AAM?$AAA?$AAT?$AA_?$AAT?$AAR?$AAA?$AAC?$AAK?$AAS?$AA?$AA@FNODOBFM@ 00043b90     ntdriver.obj
 0001:000336d0       ??_C@_1CE@LGEELOJE@?$AAI?$AAO?$AAC?$AAT?$AAL?$AA_?$AAD?$AAI?$AAS?$AAK?$AA_?$AAV?$AAE?$AAR?$AAI?$AAF?$AAY?$AA?$AA@FNODOBFM@ 00043bd0     ntdriver.obj
 0001:00033700       ??_C@_1DO@EPIDKIKJ@?$AAI?$AAO?$AAC?$AAT?$AAL?$AA_?$AAD?$AAI?$AAS?$AAK?$AA_?$AAS?$AAE?$AAT?$AA_?$AAD?$AAR?$AAI?$AAV?$AAE?$AA_?$AAL?$AAA?$AAY?$AAO?$AAU?$AAT?$AA_?$AAE?$AAX?$AA?$AA@FNODOBFM@ 00043c00     ntdriver.obj
 0001:00033740       ??_C@_1DI@CCDFFIEC@?$AAI?$AAO?$AAC?$AAT?$AAL?$AA_?$AAD?$AAI?$AAS?$AAK?$AA_?$AAG?$AAE?$AAT?$AA_?$AAD?$AAR?$AAI?$AAV?$AAE?$AA_?$AAL?$AAA?$AAY?$AAO?$AAU?$AAT?$AA?$AA@FNODOBFM@ 00043c40     ntdriver.obj
 0001:00033780       ??_C@_1DM@FAAIHMNH@?$AAI?$AAO?$AAC?$AAT?$AAL?$AA_?$AAD?$AAI?$AAS?$AAK?$AA_?$AAS?$AAE?$AAT?$AA_?$AAP?$AAA?$AAR?$AAT?$AAI?$AAT?$AAI?$AAO?$AAN?$AA_?$AAI?$AAN?$AAF?$AAO?$AA?$AA@FNODOBFM@ 00043c80     ntdriver.obj
 0001:000337c0       ??_C@_1EC@CAILBHJF@?$AAI?$AAO?$AAC?$AAT?$AAL?$AA_?$AAD?$AAI?$AAS?$AAK?$AA_?$AAG?$AAE?$AAT?$AA_?$AAP?$AAA?$AAR?$AAT?$AAI?$AAT?$AAI?$AAO?$AAN?$AA_?$AAI?$AAN?$AAF?$AAO?$AA_?$AAE?$AAX@FNODOBFM@ 00043cc0     ntdriver.obj
 0001:00033810       ??_C@_1DM@LOAKHCPB@?$AAI?$AAO?$AAC?$AAT?$AAL?$AA_?$AAD?$AAI?$AAS?$AAK?$AA_?$AAG?$AAE?$AAT?$AA_?$AAP?$AAA?$AAR?$AAT?$AAI?$AAT?$AAI?$AAO?$AAN?$AA_?$AAI?$AAN?$AAF?$AAO?$AA?$AA@FNODOBFM@ 00043d10     ntdriver.obj
 0001:00033850       ??_C@_1EA@IKPNDHCL@?$AAI?$AAO?$AAC?$AAT?$AAL?$AA_?$AAS?$AAT?$AAO?$AAR?$AAA?$AAG?$AAE?$AA_?$AAG?$AAE?$AAT?$AA_?$AAD?$AAE?$AAV?$AAI?$AAC?$AAE?$AA_?$AAN?$AAU?$AAM?$AAB?$AAE?$AAR?$AA?$AA@FNODOBFM@ 00043d50     ntdriver.obj
 0001:00033890       ??_C@_1DG@DLDFECDE@?$AAI?$AAO?$AAC?$AAT?$AAL?$AA_?$AAD?$AAI?$AAS?$AAK?$AA_?$AAG?$AAE?$AAT?$AA_?$AAL?$AAE?$AAN?$AAG?$AAT?$AAH?$AA_?$AAI?$AAN?$AAF?$AAO?$AA?$AA@FNODOBFM@ 00043d90     ntdriver.obj
 0001:000338d0       ??_C@_1FE@EBMKFIFJ@?$AAI?$AAO?$AAC?$AAT?$AAL?$AA_?$AAM?$AAO?$AAU?$AAN?$AAT?$AAM?$AAG?$AAR?$AA_?$AAV?$AAO?$AAL?$AAU?$AAM?$AAE?$AA_?$AAM?$AAO?$AAU?$AAN?$AAT?$AA_?$AAP?$AAO?$AAI?$AAN@FNODOBFM@ 00043dd0     ntdriver.obj
 0001:00033930       ??_C@_1FE@CLAOKMGL@?$AAI?$AAO?$AAC?$AAT?$AAL?$AA_?$AAM?$AAO?$AAU?$AAN?$AAT?$AAM?$AAG?$AAR?$AA_?$AAV?$AAO?$AAL?$AAU?$AAM?$AAE?$AA_?$AAM?$AAO?$AAU?$AAN?$AAT?$AA_?$AAP?$AAO?$AAI?$AAN@FNODOBFM@ 00043e30     ntdriver.obj
 0001:00033990       ??_C@_1DI@LFNEEBHO@?$AAI?$AAO?$AAC?$AAT?$AAL?$AA_?$AAM?$AAO?$AAU?$AAN?$AAT?$AAM?$AAG?$AAR?$AA_?$AAQ?$AAU?$AAE?$AAR?$AAY?$AA_?$AAP?$AAO?$AAI?$AAN?$AAT?$AAS?$AA?$AA@FNODOBFM@ 00043e90     ntdriver.obj
 0001:000339d0       ??_C@_1DI@BMKMBCGO@?$AAI?$AAO?$AAC?$AAT?$AAL?$AA_?$AAM?$AAO?$AAU?$AAN?$AAT?$AAD?$AAE?$AAV?$AA_?$AAL?$AAI?$AAN?$AAK?$AA_?$AAD?$AAE?$AAL?$AAE?$AAT?$AAE?$AAD?$AA?$AA@FNODOBFM@ 00043ed0     ntdriver.obj
 0001:00033a10       ??_C@_1DI@HGGIOGFM@?$AAI?$AAO?$AAC?$AAT?$AAL?$AA_?$AAM?$AAO?$AAU?$AAN?$AAT?$AAD?$AAE?$AAV?$AA_?$AAL?$AAI?$AAN?$AAK?$AA_?$AAC?$AAR?$AAE?$AAA?$AAT?$AAE?$AAD?$AA?$AA@FNODOBFM@ 00043f10     ntdriver.obj
 0001:00033a50       ??_C@_1CI@DJEMJCBH@?$AAI?$AAO?$AAC?$AAT?$AAL?$AA_?$AAV?$AAO?$AAL?$AAU?$AAM?$AAE?$AA_?$AAO?$AAN?$AAL?$AAI?$AAN?$AAE?$AA?$AA@FNODOBFM@ 00043f50     ntdriver.obj
 0001:00033a80       ??_C@_1DO@OGNDJPNH@?$AAI?$AAO?$AAC?$AAT?$AAL?$AA_?$AAM?$AAO?$AAU?$AAN?$AAT?$AAD?$AAE?$AAV?$AA_?$AAQ?$AAU?$AAE?$AAR?$AAY?$AA_?$AAU?$AAN?$AAI?$AAQ?$AAU?$AAE?$AA_?$AAI?$AAD?$AA?$AA@FNODOBFM@ 00043f80     ntdriver.obj
 0001:00033ac0       ??_C@_1FC@MNMCPAAJ@?$AAI?$AAO?$AAC?$AAT?$AAL?$AA_?$AAM?$AAO?$AAU?$AAN?$AAT?$AAD?$AAE?$AAV?$AA_?$AAQ?$AAU?$AAE?$AAR?$AAY?$AA_?$AAS?$AAU?$AAG?$AAG?$AAE?$AAS?$AAT?$AAE?$AAD?$AA_?$AAL@FNODOBFM@ 00043fc0     ntdriver.obj
 0001:00033b20       ??_C@_1EC@HFOIOEOM@?$AAI?$AAO?$AAC?$AAT?$AAL?$AA_?$AAM?$AAO?$AAU?$AAN?$AAT?$AAD?$AAE?$AAV?$AA_?$AAQ?$AAU?$AAE?$AAR?$AAY?$AA_?$AAD?$AAE?$AAV?$AAI?$AAC?$AAE?$AA_?$AAN?$AAA?$AAM?$AAE@FNODOBFM@ 00044020     ntdriver.obj
 0001:00033b70       ??_C@_1EC@NPAFBAMN@?$AAI?$AAO?$AAC?$AAT?$AAL?$AA_?$AAD?$AAI?$AAS?$AAK?$AA_?$AAG?$AAE?$AAT?$AA_?$AAD?$AAR?$AAI?$AAV?$AAE?$AA_?$AAG?$AAE?$AAO?$AAM?$AAE?$AAT?$AAR?$AAY?$AA_?$AAE?$AAX@FNODOBFM@ 00044070     ntdriver.obj
 0001:00033bc0       ??_C@_1DM@KPKDNCHM@?$AAI?$AAO?$AAC?$AAT?$AAL?$AA_?$AAD?$AAI?$AAS?$AAK?$AA_?$AAG?$AAE?$AAT?$AA_?$AAD?$AAR?$AAI?$AAV?$AAE?$AA_?$AAG?$AAE?$AAO?$AAM?$AAE?$AAT?$AAR?$AAY?$AA?$AA@FNODOBFM@ 000440c0     ntdriver.obj
 0001:00033c00       ??_C@_1EK@FDCJEFAP@?$AAI?$AAO?$AAC?$AAT?$AAL?$AA_?$AAV?$AAO?$AAL?$AAU?$AAM?$AAE?$AA_?$AAG?$AAE?$AAT?$AA_?$AAV?$AAO?$AAL?$AAU?$AAM?$AAE?$AA_?$AAD?$AAI?$AAS?$AAK?$AA_?$AAE?$AAX?$AAT@FNODOBFM@ 00044100     ntdriver.obj
 0001:00033c50       ??_C@_1EC@FOOPNHFI@?$AAT?$AAC?$AA_?$AAI?$AAO?$AAC?$AAT?$AAL?$AA_?$AAW?$AAR?$AAI?$AAT?$AAE?$AA_?$AAB?$AAO?$AAO?$AAT?$AA_?$AAD?$AAR?$AAI?$AAV?$AAE?$AA_?$AAS?$AAE?$AAC?$AAT?$AAO?$AAR@FNODOBFM@ 00044150     ntdriver.obj
 0001:00033ca0       ??_C@_1DK@BNKDMLAM@?$AAT?$AAC?$AA_?$AAI?$AAO?$AAC?$AAT?$AAL?$AA_?$AAW?$AAI?$AAP?$AAE?$AA_?$AAP?$AAA?$AAS?$AAS?$AAW?$AAO?$AAR?$AAD?$AA_?$AAC?$AAA?$AAC?$AAH?$AAE?$AA?$AA@FNODOBFM@ 000441a0     ntdriver.obj
 0001:00033ce0       ??_C@_1EC@FGBEDIDI@?$AAT?$AAC?$AA_?$AAI?$AAO?$AAC?$AAT?$AAL?$AA_?$AAS?$AAT?$AAA?$AAR?$AAT?$AA_?$AAD?$AAE?$AAC?$AAO?$AAY?$AA_?$AAS?$AAY?$AAS?$AAT?$AAE?$AAM?$AA_?$AAW?$AAI?$AAP?$AAE@FNODOBFM@ 000441e0     ntdriver.obj
 0001:00033d30       ??_C@_1FE@EBAIHKDI@?$AAT?$AAC?$AA_?$AAI?$AAO?$AAC?$AAT?$AAL?$AA_?$AAS?$AAE?$AAT?$AA_?$AAS?$AAY?$AAS?$AAT?$AAE?$AAM?$AA_?$AAF?$AAA?$AAV?$AAO?$AAR?$AAI?$AAT?$AAE?$AA_?$AAV?$AAO?$AAL@FNODOBFM@ 00044230     ntdriver.obj
 0001:00033d90       ??_C@_1DM@JFJLBNLP@?$AAT?$AAC?$AA_?$AAI?$AAO?$AAC?$AAT?$AAL?$AA_?$AAR?$AAE?$AAR?$AAE?$AAA?$AAD?$AA_?$AAD?$AAR?$AAI?$AAV?$AAE?$AAR?$AA_?$AAC?$AAO?$AAN?$AAF?$AAI?$AAG?$AA?$AA@FNODOBFM@ 00044290     ntdriver.obj
 0001:00033dd0       ??_C@_1EG@GGODONFK@?$AAT?$AAC?$AA_?$AAI?$AAO?$AAC?$AAT?$AAL?$AA_?$AAR?$AAE?$AAO?$AAP?$AAE?$AAN?$AA_?$AAB?$AAO?$AAO?$AAT?$AA_?$AAV?$AAO?$AAL?$AAU?$AAM?$AAE?$AA_?$AAH?$AAE?$AAA?$AAD@FNODOBFM@ 000442d0     ntdriver.obj
 0001:00033e20       ??_C@_1DO@BKHLMLHN@?$AAT?$AAC?$AA_?$AAI?$AAO?$AAC?$AAT?$AAL?$AA_?$AAP?$AAR?$AAO?$AAB?$AAE?$AA_?$AAR?$AAE?$AAA?$AAL?$AA_?$AAD?$AAR?$AAI?$AAV?$AAE?$AA_?$AAS?$AAI?$AAZ?$AAE?$AA?$AA@FNODOBFM@ 00044320     ntdriver.obj
 0001:00033e60       ??_C@_1CG@HPPKKEKP@?$AAT?$AAC?$AA_?$AAI?$AAO?$AAC?$AAT?$AAL?$AA_?$AAO?$AAP?$AAE?$AAN?$AA_?$AAT?$AAE?$AAS?$AAT?$AA?$AA@FNODOBFM@ 00044360     ntdriver.obj
 0001:00033e90       ??_C@_1CM@HJCGFKAD@?$AAT?$AAC?$AA_?$AAI?$AAO?$AAC?$AAT?$AAL?$AA_?$AAM?$AAO?$AAU?$AAN?$AAT?$AA_?$AAV?$AAO?$AAL?$AAU?$AAM?$AAE?$AA?$AA@FNODOBFM@ 00044390     ntdriver.obj
 0001:00033ec0       ??_C@_1EE@HPDOLCKH@?$AAT?$AAC?$AA_?$AAI?$AAO?$AAC?$AAT?$AAL?$AA_?$AAI?$AAS?$AA_?$AAH?$AAI?$AAD?$AAD?$AAE?$AAN?$AA_?$AAS?$AAY?$AAS?$AAT?$AAE?$AAM?$AA_?$AAR?$AAU?$AAN?$AAN?$AAI?$AAN@FNODOBFM@ 000443c0     ntdriver.obj
 0001:00033f10       ??_C@_1EG@HPLFHOOO@?$AAT?$AAC?$AA_?$AAI?$AAO?$AAC?$AAT?$AAL?$AA_?$AAI?$AAS?$AA_?$AAD?$AAR?$AAI?$AAV?$AAE?$AAR?$AA_?$AAU?$AAN?$AAL?$AAO?$AAA?$AAD?$AA_?$AAD?$AAI?$AAS?$AAA?$AAB?$AAL@FNODOBFM@ 00044410     ntdriver.obj
 0001:00033f60       ??_C@_1DO@ICDMEENM@?$AAT?$AAC?$AA_?$AAI?$AAO?$AAC?$AAT?$AAL?$AA_?$AAI?$AAS?$AA_?$AAA?$AAN?$AAY?$AA_?$AAV?$AAO?$AAL?$AAU?$AAM?$AAE?$AA_?$AAM?$AAO?$AAU?$AAN?$AAT?$AAE?$AAD?$AA?$AA@FNODOBFM@ 00044460     ntdriver.obj
 0001:00033fa0       ??_C@_1DE@JNPINMHP@?$AAT?$AAC?$AA_?$AAI?$AAO?$AAC?$AAT?$AAL?$AA_?$AAD?$AAI?$AAS?$AAK?$AA_?$AAI?$AAS?$AA_?$AAW?$AAR?$AAI?$AAT?$AAA?$AAB?$AAL?$AAE?$AA?$AA@FNODOBFM@ 000444a0     ntdriver.obj
 0001:00033fe0       ??_C@_1DG@LBDEDPBA@?$AAT?$AAC?$AA_?$AAI?$AAO?$AAC?$AAT?$AAL?$AA_?$AAG?$AAE?$AAT?$AA_?$AAW?$AAA?$AAR?$AAN?$AAI?$AAN?$AAG?$AA_?$AAF?$AAL?$AAA?$AAG?$AAS?$AA?$AA@FNODOBFM@ 000444e0     ntdriver.obj
 0001:00034020       ??_C@_1DO@DMIHGGIB@?$AAT?$AAC?$AA_?$AAI?$AAO?$AAC?$AAT?$AAL?$AA_?$AAG?$AAE?$AAT?$AA_?$AAV?$AAO?$AAL?$AAU?$AAM?$AAE?$AA_?$AAP?$AAR?$AAO?$AAP?$AAE?$AAR?$AAT?$AAI?$AAE?$AAS?$AA?$AA@FNODOBFM@ 00044520     ntdriver.obj
 0001:00034060       ??_C@_1EM@GFDNBFC@?$AAT?$AAC?$AA_?$AAI?$AAO?$AAC?$AAT?$AAL?$AA_?$AAG?$AAE?$AAT?$AA_?$AAS?$AAY?$AAS?$AAT?$AAE?$AAM?$AA_?$AAD?$AAR?$AAI?$AAV?$AAE?$AA_?$AAD?$AAU?$AAM?$AAP?$AA_?$AAC@FNODOBFM@ 00044560     ntdriver.obj
 0001:000340b0       ??_C@_1DM@GFCMCNDC@?$AAT?$AAC?$AA_?$AAI?$AAO?$AAC?$AAT?$AAL?$AA_?$AAG?$AAE?$AAT?$AA_?$AAR?$AAE?$AAS?$AAO?$AAL?$AAV?$AAE?$AAD?$AA_?$AAS?$AAY?$AAM?$AAL?$AAI?$AAN?$AAK?$AA?$AA@FNODOBFM@ 000445b0     ntdriver.obj
 0001:000340f0       ??_C@_1EE@NMKCMMBM@?$AAT?$AAC?$AA_?$AAI?$AAO?$AAC?$AAT?$AAL?$AA_?$AAS?$AAE?$AAT?$AA_?$AAP?$AAO?$AAR?$AAT?$AAA?$AAB?$AAL?$AAE?$AA_?$AAM?$AAO?$AAD?$AAE?$AA_?$AAS?$AAT?$AAA?$AAT?$AAU@FNODOBFM@ 000445f0     ntdriver.obj
 0001:00034140       ??_C@_1EE@IPNJBDEG@?$AAT?$AAC?$AA_?$AAI?$AAO?$AAC?$AAT?$AAL?$AA_?$AAG?$AAE?$AAT?$AA_?$AAP?$AAO?$AAR?$AAT?$AAA?$AAB?$AAL?$AAE?$AA_?$AAM?$AAO?$AAD?$AAE?$AA_?$AAS?$AAT?$AAA?$AAT?$AAU@FNODOBFM@ 00044640     ntdriver.obj
 0001:00034190       ??_C@_1EC@FADHDJPK@?$AAT?$AAC?$AA_?$AAI?$AAO?$AAC?$AAT?$AAL?$AA_?$AAG?$AAE?$AAT?$AA_?$AAS?$AAY?$AAS?$AAT?$AAE?$AAM?$AA_?$AAD?$AAR?$AAI?$AAV?$AAE?$AA_?$AAC?$AAO?$AAN?$AAF?$AAI?$AAG@FNODOBFM@ 00044690     ntdriver.obj
 0001:000341e0       ??_C@_1EG@LLJHBPJF@?$AAT?$AAC?$AA_?$AAI?$AAO?$AAC?$AAT?$AAL?$AA_?$AAG?$AAE?$AAT?$AA_?$AAP?$AAA?$AAS?$AAS?$AAW?$AAO?$AAR?$AAD?$AA_?$AAC?$AAA?$AAC?$AAH?$AAE?$AA_?$AAS?$AAT?$AAA?$AAT@FNODOBFM@ 000446e0     ntdriver.obj
 0001:00034230       ??_C@_1DK@KJKOFIJA@?$AAT?$AAC?$AA_?$AAI?$AAO?$AAC?$AAT?$AAL?$AA_?$AAG?$AAE?$AAT?$AA_?$AAM?$AAO?$AAU?$AAN?$AAT?$AAE?$AAD?$AA_?$AAV?$AAO?$AAL?$AAU?$AAM?$AAE?$AAS?$AA?$AA@FNODOBFM@ 00044730     ntdriver.obj
 0001:00034270       ??_C@_1DI@ODPPPDDO@?$AAT?$AAC?$AA_?$AAI?$AAO?$AAC?$AAT?$AAL?$AA_?$AAG?$AAE?$AAT?$AA_?$AAD?$AAR?$AAI?$AAV?$AAE?$AAR?$AA_?$AAV?$AAE?$AAR?$AAS?$AAI?$AAO?$AAN?$AA?$AA@FNODOBFM@ 00044770     ntdriver.obj
 0001:000342b0       ??_C@_1EE@HEELFNND@?$AAT?$AAC?$AA_?$AAI?$AAO?$AAC?$AAT?$AAL?$AA_?$AAG?$AAE?$AAT?$AA_?$AAD?$AAR?$AAI?$AAV?$AAE?$AA_?$AAP?$AAA?$AAR?$AAT?$AAI?$AAT?$AAI?$AAO?$AAN?$AA_?$AAI?$AAN?$AAF@FNODOBFM@ 000447b0     ntdriver.obj
 0001:00034300       ??_C@_1DI@LAIAIOML@?$AAT?$AAC?$AA_?$AAI?$AAO?$AAC?$AAT?$AAL?$AA_?$AAG?$AAE?$AAT?$AA_?$AAD?$AAR?$AAI?$AAV?$AAE?$AA_?$AAG?$AAE?$AAO?$AAM?$AAE?$AAT?$AAR?$AAY?$AA?$AA@FNODOBFM@ 00044800     ntdriver.obj
 0001:00034340       ??_C@_1DK@DFEJGDBK@?$AAT?$AAC?$AA_?$AAI?$AAO?$AAC?$AAT?$AAL?$AA_?$AAG?$AAE?$AAT?$AA_?$AAD?$AAE?$AAV?$AAI?$AAC?$AAE?$AA_?$AAR?$AAE?$AAF?$AAC?$AAO?$AAU?$AAN?$AAT?$AA?$AA@FNODOBFM@ 00044840     ntdriver.obj
 0001:00034380       ??_C@_1EM@LMAMOKGA@?$AAT?$AAC?$AA_?$AAI?$AAO?$AAC?$AAT?$AAL?$AA_?$AAG?$AAE?$AAT?$AA_?$AAD?$AAE?$AAC?$AAO?$AAY?$AA_?$AAS?$AAY?$AAS?$AAT?$AAE?$AAM?$AA_?$AAW?$AAI?$AAP?$AAE?$AA_?$AAS@FNODOBFM@ 00044880     ntdriver.obj
 0001:000343d0       ??_C@_1EM@OAEBJACE@?$AAT?$AAC?$AA_?$AAI?$AAO?$AAC?$AAT?$AAL?$AA_?$AAG?$AAE?$AAT?$AA_?$AAD?$AAE?$AAC?$AAO?$AAY?$AA_?$AAS?$AAY?$AAS?$AAT?$AAE?$AAM?$AA_?$AAW?$AAI?$AAP?$AAE?$AA_?$AAR@FNODOBFM@ 000448d0     ntdriver.obj
 0001:00034420       ??_C@_1EC@OPCJHCIG@?$AAT?$AAC?$AA_?$AAI?$AAO?$AAC?$AAT?$AAL?$AA_?$AAG?$AAE?$AAT?$AA_?$AAB?$AAO?$AAO?$AAT?$AA_?$AAL?$AAO?$AAA?$AAD?$AAE?$AAR?$AA_?$AAV?$AAE?$AAR?$AAS?$AAI?$AAO?$AAN@FNODOBFM@ 00044920     ntdriver.obj
 0001:00034470       ??_C@_1EI@GAKLFLAF@?$AAT?$AAC?$AA_?$AAI?$AAO?$AAC?$AAT?$AAL?$AA_?$AAG?$AAE?$AAT?$AA_?$AAB?$AAO?$AAO?$AAT?$AA_?$AAE?$AAN?$AAC?$AAR?$AAY?$AAP?$AAT?$AAI?$AAO?$AAN?$AA_?$AAS?$AAT?$AAA@FNODOBFM@ 00044970     ntdriver.obj
 0001:000344c0       ??_C@_1FE@OJNNCONL@?$AAT?$AAC?$AA_?$AAI?$AAO?$AAC?$AAT?$AAL?$AA_?$AAG?$AAE?$AAT?$AA_?$AAB?$AAO?$AAO?$AAT?$AA_?$AAE?$AAN?$AAC?$AAR?$AAY?$AAP?$AAT?$AAI?$AAO?$AAN?$AA_?$AAS?$AAE?$AAT@FNODOBFM@ 000449c0     ntdriver.obj
 0001:00034520       ??_C@_1FI@CDJGLMPJ@?$AAT?$AAC?$AA_?$AAI?$AAO?$AAC?$AAT?$AAL?$AA_?$AAG?$AAE?$AAT?$AA_?$AAB?$AAO?$AAO?$AAT?$AA_?$AAE?$AAN?$AAC?$AAR?$AAY?$AAP?$AAT?$AAI?$AAO?$AAN?$AA_?$AAA?$AAL?$AAG@FNODOBFM@ 00044a20     ntdriver.obj
 0001:00034580       ??_C@_1FE@BEJBLKBA@?$AAT?$AAC?$AA_?$AAI?$AAO?$AAC?$AAT?$AAL?$AA_?$AAG?$AAE?$AAT?$AA_?$AAB?$AAO?$AAO?$AAT?$AA_?$AAD?$AAR?$AAI?$AAV?$AAE?$AA_?$AAV?$AAO?$AAL?$AAU?$AAM?$AAE?$AA_?$AAP@FNODOBFM@ 00044a80     ntdriver.obj
 0001:000345e0       ??_C@_1DC@CLEBJPLG@?$AAT?$AAC?$AA_?$AAI?$AAO?$AAC?$AAT?$AAL?$AA_?$AAD?$AAI?$AAS?$AAM?$AAO?$AAU?$AAN?$AAT?$AA_?$AAV?$AAO?$AAL?$AAU?$AAM?$AAE?$AA?$AA@FNODOBFM@ 00044ae0     ntdriver.obj
 0001:00034620       ??_C@_1DM@OLONGNGL@?$AAT?$AAC?$AA_?$AAI?$AAO?$AAC?$AAT?$AAL?$AA_?$AAD?$AAI?$AAS?$AAM?$AAO?$AAU?$AAN?$AAT?$AA_?$AAA?$AAL?$AAL?$AA_?$AAV?$AAO?$AAL?$AAU?$AAM?$AAE?$AAS?$AA?$AA@FNODOBFM@ 00044b20     ntdriver.obj
 0001:00034660       ??_C@_1DO@JPMJPMCJ@?$AAT?$AAC?$AA_?$AAI?$AAO?$AAC?$AAT?$AAL?$AA_?$AAB?$AAO?$AAO?$AAT?$AA_?$AAE?$AAN?$AAC?$AAR?$AAY?$AAP?$AAT?$AAI?$AAO?$AAN?$AA_?$AAS?$AAE?$AAT?$AAU?$AAP?$AA?$AA@FNODOBFM@ 00044b60     ntdriver.obj
 0001:000346a0       ??_C@_1EC@HMNCILMA@?$AAT?$AAC?$AA_?$AAI?$AAO?$AAC?$AAT?$AAL?$AA_?$AAA?$AAB?$AAO?$AAR?$AAT?$AA_?$AAD?$AAE?$AAC?$AAO?$AAY?$AA_?$AAS?$AAY?$AAS?$AAT?$AAE?$AAM?$AA_?$AAW?$AAI?$AAP?$AAE@FNODOBFM@ 00044ba0     ntdriver.obj
 0001:000346f0       ??_C@_1EK@CMLLEBIK@?$AAT?$AAC?$AA_?$AAI?$AAO?$AAC?$AAT?$AAL?$AA_?$AAA?$AAB?$AAO?$AAR?$AAT?$AA_?$AAB?$AAO?$AAO?$AAT?$AA_?$AAE?$AAN?$AAC?$AAR?$AAY?$AAP?$AAT?$AAI?$AAO?$AAN?$AA_?$AAS@FNODOBFM@ 00044bf0     ntdriver.obj
 0001:00034740       ??_C@_0BK@EIFNDPP@TCDeleteDeviceObject?5END?6?$AA@FNODOBFM@ 00044c40     ntdriver.obj
 0001:00034760       ??_C@_1EA@FPAPEGHJ@?$AAP?$AAs?$AAD?$AAe?$AAr?$AAe?$AAf?$AAe?$AAr?$AAe?$AAn?$AAc?$AAe?$AAI?$AAm?$AAp?$AAe?$AAr?$AAs?$AAo?$AAn?$AAa?$AAt?$AAi?$AAo?$AAn?$AAT?$AAo?$AAk?$AAe?$AAn?$AA?$AA@FNODOBFM@ 00044c60     ntdriver.obj
 0001:000347a0       ??_C@_0CP@NIIDLADO@IoDeleteSymbolicLink?5failed?5ntSt@FNODOBFM@ 00044ca0     ntdriver.obj
 0001:000347d0       ??_C@_1CM@KJDLPNIG@?$AA?2?$AAD?$AAo?$AAs?$AAD?$AAe?$AAv?$AAi?$AAc?$AAe?$AAs?$AA?2?$AAT?$AAr?$AAu?$AAe?$AAC?$AAr?$AAy?$AAp?$AAt?$AA?$AA@FNODOBFM@ 00044cd0     ntdriver.obj
 0001:00034800       ??_C@_0BM@GNHEHBJH@TCDeleteDeviceObject?5BEGIN?6?$AA@FNODOBFM@ 00044d00     ntdriver.obj
 0001:00034820       ??_C@_0BE@CJGLKHCK@TCUnloadDriver?5END?6?$AA@FNODOBFM@ 00044d20     ntdriver.obj
 0001:00034840       ??_C@_0BG@MGFDNIAG@TCUnloadDriver?5BEGIN?6?$AA@FNODOBFM@ 00044d40     ntdriver.obj
 0001:00034860       ??_C@_0BH@BPCEMJJB@IRP?5allocation?5failed?6?$AA@FNODOBFM@ 00044d60     ntdriver.obj
 0001:00034880       ??_C@_0CO@FHHNLLNJ@Real?5drive?5size?5?$DN?5?$CFI64d?5bytes?5?$CI?$CF@FNODOBFM@ 00044d80     ntdriver.obj
 0001:000348b0       ??_C@_0CF@BFNPLHIK@Failed?5to?5get?5drive?5size?5?9?5error@FNODOBFM@ 00044db0     ntdriver.obj
 0001:000348e0       ??_C@_0CB@JIDCFMLM@Volume?5?$CFls?5open?5NTSTATUS?50x?$CF08x?6@FNODOBFM@ 00044de0     ntdriver.obj
 0001:00034910       ??_C@_0CA@MOHACMBH@KeGetCurrentIrql?$CI?$CJ?5?$DM?$DN?5APC_LEVEL?$AA@FNODOBFM@ 00044e10     ntdriver.obj
 0001:00034930       ??_C@_0CC@INHNDJGI@IoCreateSymbolicLink?5returned?5?$CFX@FNODOBFM@ 00044e30     ntdriver.obj
 0001:00034960       ??_C@_0CC@KAFJKDAC@IoDeleteSymbolicLink?5returned?5?$CFX@FNODOBFM@ 00044e60     ntdriver.obj
 0001:00034990       ??_C@_1DE@MJJBHHAG@?$AA?2?$AAD?$AAe?$AAv?$AAi?$AAc?$AAe?$AA?2?$AAM?$AAo?$AAu?$AAn?$AAt?$AAP?$AAo?$AAi?$AAn?$AAt?$AAM?$AAa?$AAn?$AAa?$AAg?$AAe?$AAr?$AA?$AA@FNODOBFM@ 00044e90     ntdriver.obj
 0001:000349d0       ??_C@_0CO@FHIENMIJ@IOCTL_MOUNTMGR_DELETE_POINTS?5ret@FNODOBFM@ 00044ed0     ntdriver.obj
 0001:00034a00       ??_C@_0CA@IJMBHFOD@Mount?5FAILURE?5TC?5code?5?$DN?50x?$CF08x?6?$AA@FNODOBFM@ 00044f00     ntdriver.obj
 0001:00034a20       ??_C@_0CP@DBOFILAH@Mount?5SUCCESS?5TC?5code?5?$DN?50x?$CF08x?5R@FNODOBFM@ 00044f20     ntdriver.obj
 0001:00034a50       ??_C@_0CL@KIIHMHE@Mount?5FAILURE?5NT?5ERROR?0?5ntStatus@FNODOBFM@ 00044f50     ntdriver.obj
 0001:00034a80       ??_C@_0CO@NNHGPFIJ@Mount?5CREATE?5DEVICE?5ERROR?0?5ntSta@FNODOBFM@ 00044f80     ntdriver.obj
 0001:00034ab0       ??_C@_0CF@CGPMKDKJ@WARNING?3?5MOUNT?5DRIVE?5LETTER?5INVA@FNODOBFM@ 00044fb0     ntdriver.obj
 0001:00034ae0       ??_C@_0BL@PIKDDHEP@Mount?5request?5looks?5valid?6?$AA@FNODOBFM@ 00044fe0     ntdriver.obj
 0001:00034b00       ??_C@_0CD@FFMFJFAI@FSCTL_DISMOUNT_VOLUME?5returned?5?$CF@FNODOBFM@ 00045000     ntdriver.obj
 0001:00034b30       ??_C@_0BP@EOHNIHMK@FSCTL_LOCK_VOLUME?5returned?5?$CFX?6?$AA@FNODOBFM@ 00045030     ntdriver.obj
 0001:00034b50       ??_C@_0BC@FNOALNCB@UnmountDevice?5?$CFd?6?$AA@FNODOBFM@ 00045050     ntdriver.obj
 0001:00034b70       ??_C@_0BI@OJEECLJN@Unmounting?5all?5volumes?6?$AA@FNODOBFM@ 00045070     ntdriver.obj
 0001:00034b90       ??_C@_0CJ@KBGIGBCB@?$CBIoIsSystemThread?5?$CIPsGetCurrentT@FNODOBFM@ 00045090     ntdriver.obj
 0001:00034bc0       ??_C@_0BK@BGEEJMHD@?$CImaxSizeInBytes?5?$CG?51?$CJ?5?$DN?$DN?50?$AA@FNODOBFM@ 000450c0     ntdriver.obj
 0001:00034be0       ??_C@_0BM@GOBMMLHF@Volume?5class?5filter?5active?6?$AA@FNODOBFM@ 000450e0     ntdriver.obj
 0001:00034c00       ??_C@_1BE@OBOIPPHP@?$AAt?$AAr?$AAu?$AAe?$AAc?$AAr?$AAy?$AAp?$AAt?$AA?$AA@FNODOBFM@ 00045100     ntdriver.obj
 0001:00034c20       ??_C@_1BK@FNJCPENK@?$AAU?$AAp?$AAp?$AAe?$AAr?$AAF?$AAi?$AAl?$AAt?$AAe?$AAr?$AAs?$AA?$AA@FNODOBFM@ 00045120     ntdriver.obj
 0001:00034c40       ??_C@_1MA@BNNNAGDA@?$AA?2?$AAR?$AAE?$AAG?$AAI?$AAS?$AAT?$AAR?$AAY?$AA?2?$AAM?$AAA?$AAC?$AAH?$AAI?$AAN?$AAE?$AA?2?$AAS?$AAY?$AAS?$AAT?$AAE?$AAM?$AA?2?$AAC?$AAu?$AAr?$AAr?$AAe?$AAn?$AAt@FNODOBFM@ 00045140     ntdriver.obj
 0001:00034d00       ??_C@_1EA@CEOJFLPD@?$AAT?$AAr?$AAu?$AAe?$AAC?$AAr?$AAy?$AAp?$AAt?$AAE?$AAn?$AAc?$AAr?$AAy?$AAp?$AAt?$AAi?$AAo?$AAn?$AAF?$AAr?$AAe?$AAe?$AAC?$AAp?$AAu?$AAC?$AAo?$AAu?$AAn?$AAt?$AA?$AA@FNODOBFM@ 00045200     ntdriver.obj
 0001:00034d40       ??_C@_0BM@LHOAOPML@Configuration?5flags?5?$DN?50x?$CFx?6?$AA@FNODOBFM@ 00045240     ntdriver.obj
 0001:00034d60       ??_C@_1CA@LGEHFLCO@?$AAT?$AAr?$AAu?$AAe?$AAC?$AAr?$AAy?$AAp?$AAt?$AAC?$AAo?$AAn?$AAf?$AAi?$AAg?$AA?$AA@FNODOBFM@ 00045260     ntdriver.obj
 0001:00034d80       ??_C@_1HM@GLBNDPGI@?$AA?2?$AAR?$AAE?$AAG?$AAI?$AAS?$AAT?$AAR?$AAY?$AA?2?$AAM?$AAA?$AAC?$AAH?$AAI?$AAN?$AAE?$AA?2?$AAS?$AAY?$AAS?$AAT?$AAE?$AAM?$AA?2?$AAC?$AAu?$AAr?$AAr?$AAe?$AAn?$AAt@FNODOBFM@ 00045280     ntdriver.obj
 0001:00034e00       ??_C@_0BJ@BHMICMIC@Zeroing?5sector?5at?5?$CFI64d?6?$AA@FNODOBFM@ 00045300     ntdriver.obj
 0001:00034e20       ??_C@_0BO@NFNIJFEK@Skipping?5bad?5sector?5at?5?$CFI64d?6?$AA@FNODOBFM@ 00045320     ntdriver.obj
 0001:00034e40       ??_C@_0BE@JBJOLBIB@OsMajorVersion?5?$CB?$DN?50?$AA@FNODOBFM@ 00045340     ntdriver.obj
 0001:00034e60       ??_C@_1BA@GIIKONIJ@?$AA?2?$AA?$DP?$AA?$DP?$AA?2?$AA?2?$AA?$CF?$AAs?$AA?$AA@FNODOBFM@ 00045360     ntvol.obj
 0001:00034e70       ??_C@_1BC@MAMPPFNN@?$AA?2?$AA?$DP?$AA?$DP?$AA?2?$AAU?$AAN?$AAC?$AA?2?$AA?$AA@FNODOBFM@ 00045370     ntvol.obj
 0001:00034e90       ??_C@_0BH@JONGPBLO@Incorrect?5volume?5size?6?$AA@FNODOBFM@ 00045390     ntvol.obj
 0001:00034eb0       ??_C@_0BJ@MEKDGODO@Volume?5data?5end?5?$DN?5?$CFI64d?6?$AA@FNODOBFM@ 000453b0     ntvol.obj
 0001:00034ed0       ??_C@_0BK@BIKGCOPF@Volume?5data?5size?5?$DN?5?$CFI64d?6?$AA@FNODOBFM@ 000453d0     ntvol.obj
 0001:00034ef0       ??_C@_0BM@CDNAEGGM@Volume?5data?5offset?5?$DN?5?$CFI64d?6?$AA@FNODOBFM@ 000453f0     ntvol.obj
 0001:00034f10       ??_C@_0DG@NLAOEFNO@Hidden?5volume?5protection?5active?3@FNODOBFM@ 00045410     ntvol.obj
 0001:00034f50       ??_C@_0BL@DBKGLLJI@Hidden?5volume?5end?5?$DN?5?$CFI64d?6?$AA@FNODOBFM@ 00045450     ntvol.obj
 0001:00034f70       ??_C@_0BM@CHOGCNPN@Hidden?5volume?5size?5?$DN?5?$CFI64d?6?$AA@FNODOBFM@ 00045470     ntvol.obj
 0001:00034f90       ??_C@_0BO@HCAAKCJO@Hidden?5volume?5offset?5?$DN?5?$CFI64d?6?$AA@FNODOBFM@ 00045490     ntvol.obj
 0001:00034fb0       ??_C@_0BE@LHJMDIKA@Legacy?5volume?5?$DN?5?$CFd?6?$AA@FNODOBFM@ 000454b0     ntvol.obj
 0001:00034fd0       ??_C@_0BP@GNIOJEAD@Required?5program?5version?5?$DN?5?$CFx?6?$AA@FNODOBFM@ 000454d0     ntvol.obj
 0001:00034ff0       ??_C@_0BJ@JCBFCEPL@Volume?5header?5decrypted?6?$AA@FNODOBFM@ 000454f0     ntvol.obj
 0001:00035010       ??_C@_0BO@DBKGEMGK@Read?5didn?8t?5read?5enough?5data?6?$AA@FNODOBFM@ 00045510     ntvol.obj
 0001:00035030       ??_C@_0BO@FHFPMFGI@Read?5failed?3?5NTSTATUS?50x?$CF08x?6?$AA@FNODOBFM@ 00045530     ntvol.obj
 0001:00035050       ??_C@_0BB@IPFFEHBJ@Cannot?5open?5?$CFls?6?$AA@FNODOBFM@ 00045550     ntvol.obj
 0001:00035070       ??_C@_0FD@BKFNIFNN@Mounting?5partition?5within?5scope?5@FNODOBFM@ 00045570     ntvol.obj
 0001:000350d0       ??_C@_1DM@FMJIKGBL@?$AA?2?$AAD?$AAe?$AAv?$AAi?$AAc?$AAe?$AA?2?$AAH?$AAa?$AAr?$AAd?$AAd?$AAi?$AAs?$AAk?$AA?$CF?$AAd?$AA?2?$AAP?$AAa?$AAr?$AAt?$AAi?$AAt?$AAi?$AAo?$AAn?$AA0?$AA?$AA@FNODOBFM@ 000455d0     ntvol.obj
 0001:00035110       ??_C@_0CA@IGALEGOK@Reading?5volume?5header?5at?5?$CFI64d?6?$AA@FNODOBFM@ 00045610     ntvol.obj
 0001:00035130       ??_C@_0BP@BKDGGJEA@Trying?5to?5open?5volume?5type?5?$CFd?6?$AA@FNODOBFM@ 00045630     ntvol.obj
 0001:00035150       ??_C@_0DF@LEPAODFF@File?5?$CC?$CFls?$CC?5is?5marked?5as?5compress@FNODOBFM@ 00045650     ntvol.obj
 0001:00035190       ??_C@_0ED@EAABHCEJ@ZwQueryInformationFile?5failed?5wh@FNODOBFM@ 00045690     ntvol.obj
 0001:000351e0       ??_C@_0EC@JFODFBAB@ZwSetInformationFile?5failed?5in?5R@FNODOBFM@ 000456e0     ntvol.obj
 0001:00035230       ??_C@_0EE@JIJFFNGM@ZwQueryInformationFile?5failed?5in@FNODOBFM@ 00045730     ntvol.obj
 0001:00035280       ??_C@_0BO@INEJHKOL@VolumeFilterAddDevice?5pdo?$DN?$CFp?6?$AA@FNODOBFM@ 00045780     volumefilter.obj
 0001:000352a0       ??_C@_0DL@GNELLIFI@?$CBExtension?9?$DObRootDevice?5?$CG?$CG?5Exten@FNODOBFM@ 000457a0     volumefilter.obj
 0001:000352e0       ??_C@_0EG@PCDLMCDB@c?3?2users?2public?2desktop?2projects@FNODOBFM@ 000457e0     volumefilter.obj
 0001:00035330       ??_C@_0CC@FPKIEKIL@TC_IOCTL_DISK_IS_WRITABLE?5pdo?$DN?$CFp@FNODOBFM@ 00045830     volumefilter.obj
 0001:00035360       ??_C@_0CE@GJODMOBD@IRP_MN_REMOVE_DEVICE?5volume?5pdo?$DN@FNODOBFM@ 00045860     volumefilter.obj
 0001:00035390       ??_C@_0CD@BENKCDLN@IRP_MN_START_DEVICE?5volume?5pdo?$DN?$CF@FNODOBFM@ 00045890     volumefilter.obj
 0001:000353c0       ??_C@_01JOAMLHOP@?9?$AA@FNODOBFM@ 000458c0     Common:crypto.obj
 0001:000353d0       ??_C@_01OGPIMHDM@?$DP?$AA@FNODOBFM@ 000458d0     Common:crypto.obj
 0001:000353e0       ??_C@_0L@NEGMAKNF@Triple?5DES?$AA@FNODOBFM@ 000458e0     Common:crypto.obj
 0001:000353f0       ??_C@_03BKNEFOAH@AES?$AA@FNODOBFM@ 000458f0     Common:tests.obj
 0001:00035400       ??_C@_0BA@DNGGBODD@Twofish?9Serpent?$AA@FNODOBFM@ 00045900     Common:tests.obj
 0001:00035410       ??_C@_0BE@HADLPGPH@Serpent?9Twofish?9AES?$AA@FNODOBFM@ 00045910     Common:tests.obj
 0001:00035430       ??_C@_0M@MCFMFOIH@Serpent?9AES?$AA@FNODOBFM@ 00045930     Common:tests.obj
 0001:00035440       ??_C@_0BE@LPKAFENL@AES?9Twofish?9Serpent?$AA@FNODOBFM@ 00045940     Common:tests.obj
 0001:00035460       ??_C@_0M@DKAIMMJ@AES?9Twofish?$AA@FNODOBFM@ 00045960     Common:tests.obj
 0001:00035470       ??_C@_07DABDIDEC@Twofish?$AA@FNODOBFM@ 00045970     Common:tests.obj
 0001:00035480       ??_C@_07CCCAKGBN@Serpent?$AA@FNODOBFM@ 00045980     Common:tests.obj
 0001:00035490       ??_C@_0BF@GDBAFGNG@AES?9Blowfish?9Serpent?$AA@FNODOBFM@ 00045990     Common:tests.obj
 0001:000354b0       ??_C@_0N@NEJJJADE@AES?9Blowfish?$AA@FNODOBFM@ 000459b0     Common:tests.obj
 0001:000354c0       ??_C@_05LCFOLDPB@CAST5?$AA@FNODOBFM@ 000459c0     Common:tests.obj
 0001:000354d0       ??_C@_08KOMAHJJD@Blowfish?$AA@FNODOBFM@ 000459d0     Common:tests.obj
 0001:000354e0       ??_C@_0GB@BHABHNEI@P?$HM6o?n?$BA?4?$JK?b?$IK?U?$ICr?$HN?8?$AP?hM?$HPhz?O?$LF?gCg?$KK?$JI?$JDR?$CL?7@FNODOBFM@ 000459e0     Common:tests.obj
 0001:00035550       ??_C@_04OCKEDGEH@P?$HM6o?$AA@FNODOBFM@ 00045a50     Common:tests.obj
 0001:00035560       ??_C@_0DB@KJBGHKFA@z?$DN?$HM?$AD?g?$CGk?x?$DNx?$PL?$CJ?Rd?$BPV?j?p?e?u?L?D?31?$KI?$IEp?$LP?$LNo?$IOx@FNODOBFM@ 00045a60     Common:tests.obj
 0001:000355a0       ??_C@_04PODIBCAH@z?$DN?$HM?$AD?$AA@FNODOBFM@ 00045aa0     Common:tests.obj
 0001:000355b0       ??_C@_04BHFCCAHB@?2u?N?p?$AA@FNODOBFM@ 00045ab0     Common:tests.obj
 0001:000355c0       ??_C@_0DB@MAMEFANK@?2u?N?p?$BK?$JG?$AN?wL?$LG?$LE?$JL?$JO8?f?$LF?$DL?$BB?$IA?c?1?w?$OA?$NN?$KK?J?$IP?$IB?8?v?$JPO@FNODOBFM@ 00045ac0     Common:tests.obj
 0001:00035600       ??_C@_0JB@EEHAMOLN@?$BDd?$KO?x?$AN?uWl0?UqL?$KHu?$DP?$PN?$AA?e?$CF?$IL9?GD?$HP?N?$CD?$DN?$AIu?$OA?1H@FNODOBFM@ 00045b00     Common:tests.obj
 0001:000356a0       ??_C@_04KFFKJODL@?$BDd?$KO?x?$AA@FNODOBFM@ 00045ba0     Common:tests.obj
 0001:000356b0       ??_C@_08NLHBPEGP@password?$AA@FNODOBFM@ 00045bb0     Common:tests.obj
 0001:000356c0       ??_C@_04NDGDACAK@?$BC4Vx?$AA@FNODOBFM@ 00045bc0     Common:tests.obj
 0002:00000000       __imp_@ExAcquireFastMutex@4 00045c00     hal:HAL.dll
 0002:00000004       __imp_@KfAcquireSpinLock@4 00045c04     hal:HAL.dll
 0002:00000008       __imp_@KfReleaseSpinLock@8 00045c08     hal:HAL.dll
 0002:0000000c       __imp__KeRaiseIrqlToDpcLevel@0 00045c0c     hal:HAL.dll
 0002:00000010       __imp_@KfLowerIrql@4       00045c10     hal:HAL.dll
 0002:00000014       __imp__KeGetCurrentIrql@0  00045c14     hal:HAL.dll
 0002:00000018       __imp_@ExReleaseFastMutex@4 00045c18     hal:HAL.dll
 0002:0000001c       \177HAL_NULL_THUNK_DATA    00045c1c     hal:HAL.dll
 0002:00000020       __imp__IoAttachDeviceToDeviceStack@8 00045c20     ntoskrnl:ntoskrnl.exe
 0002:00000024       __imp_@ObfDereferenceObject@4 00045c24     ntoskrnl:ntoskrnl.exe
 0002:00000028       __imp__IoCreateDevice@28   00045c28     ntoskrnl:ntoskrnl.exe
 0002:0000002c       __imp__IoGetAttachedDeviceReference@4 00045c2c     ntoskrnl:ntoskrnl.exe
 0002:00000030       __imp__IoReleaseRemoveLockEx@12 00045c30     ntoskrnl:ntoskrnl.exe
 0002:00000034       __imp__IoAcquireRemoveLockEx@20 00045c34     ntoskrnl:ntoskrnl.exe
 0002:00000038       __imp__RtlAssert@16        00045c38     ntoskrnl:ntoskrnl.exe
 0002:0000003c       __imp_@IofCallDriver@8     00045c3c     ntoskrnl:ntoskrnl.exe
 0002:00000040       __imp__IoReleaseRemoveLockAndWaitEx@12 00045c40     ntoskrnl:ntoskrnl.exe
 0002:00000044       __imp__IoFreeWorkItem@4    00045c44     ntoskrnl:ntoskrnl.exe
 0002:00000048       __imp__KeWaitForSingleObject@20 00045c48     ntoskrnl:ntoskrnl.exe
 0002:0000004c       __imp__IoQueueWorkItem@16  00045c4c     ntoskrnl:ntoskrnl.exe
 0002:00000050       __imp__KeInitializeEvent@12 00045c50     ntoskrnl:ntoskrnl.exe
 0002:00000054       __imp__IoAllocateWorkItem@4 00045c54     ntoskrnl:ntoskrnl.exe
 0002:00000058       __imp__KeReleaseMutex@8    00045c58     ntoskrnl:ntoskrnl.exe
 0002:0000005c       __imp__ExFreePoolWithTag@8 00045c5c     ntoskrnl:ntoskrnl.exe
 0002:00000060       __imp__ExAllocatePoolWithTag@12 00045c60     ntoskrnl:ntoskrnl.exe
 0002:00000064       __imp___alldiv             00045c64     ntoskrnl:ntoskrnl.exe
 0002:00000068       __imp___aulldiv            00045c68     ntoskrnl:ntoskrnl.exe
 0002:0000006c       __imp__KeSetEvent@12       00045c6c     ntoskrnl:ntoskrnl.exe
 0002:00000070       __imp__PoCallDriver@8      00045c70     ntoskrnl:ntoskrnl.exe
 0002:00000074       __imp__PoStartNextPowerIrp@4 00045c74     ntoskrnl:ntoskrnl.exe
 0002:00000078       __imp__IoIsSystemThread@4  00045c78     ntoskrnl:ntoskrnl.exe
 0002:0000007c       __imp__KeGetCurrentThread@0 00045c7c     ntoskrnl:ntoskrnl.exe
 0002:00000080       __imp__MmFreeContiguousMemory@4 00045c80     ntoskrnl:ntoskrnl.exe
 0002:00000084       __imp__IoFreeMdl@4         00045c84     ntoskrnl:ntoskrnl.exe
 0002:00000088       __imp__PsSetLoadImageNotifyRoutine@4 00045c88     ntoskrnl:ntoskrnl.exe
 0002:0000008c       __imp__MmBuildMdlForNonPagedPool@4 00045c8c     ntoskrnl:ntoskrnl.exe
 0002:00000090       __imp__IoAllocateMdl@20    00045c90     ntoskrnl:ntoskrnl.exe
 0002:00000094       __imp__MmAllocateContiguousMemory@12 00045c94     ntoskrnl:ntoskrnl.exe
 0002:00000098       __imp__memcpy              00045c98     ntoskrnl:ntoskrnl.exe
 0002:0000009c       __imp__PsTerminateSystemThread@4 00045c9c     ntoskrnl:ntoskrnl.exe
 0002:000000a0       __imp___aullshr            00045ca0     ntoskrnl:ntoskrnl.exe
 0002:000000a4       __imp__MmMapLockedPagesSpecifyCache@24 00045ca4     ntoskrnl:ntoskrnl.exe
 0002:000000a8       __imp_@ExfInterlockedInsertTailList@12 00045ca8     ntoskrnl:ntoskrnl.exe
 0002:000000ac       __imp__KeClearEvent@4      00045cac     ntoskrnl:ntoskrnl.exe
 0002:000000b0       __imp___allmul             00045cb0     ntoskrnl:ntoskrnl.exe
 0002:000000b4       __imp_@ExfInterlockedRemoveHeadList@8 00045cb4     ntoskrnl:ntoskrnl.exe
 0002:000000b8       __imp__KeSetPriorityThread@8 00045cb8     ntoskrnl:ntoskrnl.exe
 0002:000000bc       __imp__ZwReadFile@36       00045cbc     ntoskrnl:ntoskrnl.exe
 0002:000000c0       __imp__ZwWriteFile@36      00045cc0     ntoskrnl:ntoskrnl.exe
 0002:000000c4       __imp__SeImpersonateClientEx@8 00045cc4     ntoskrnl:ntoskrnl.exe
 0002:000000c8       __imp__PsGetVersion@16     00045cc8     ntoskrnl:ntoskrnl.exe
 0002:000000cc       __imp__IoGetDeviceInterfaces@16 00045ccc     ntoskrnl:ntoskrnl.exe
 0002:000000d0       __imp__ObQueryNameString@16 00045cd0     ntoskrnl:ntoskrnl.exe
 0002:000000d4       __imp__KeReleaseSemaphore@16 00045cd4     ntoskrnl:ntoskrnl.exe
 0002:000000d8       __imp__IoRegisterShutdownNotification@4 00045cd8     ntoskrnl:ntoskrnl.exe
 0002:000000dc       __imp__IoCreateSymbolicLink@8 00045cdc     ntoskrnl:ntoskrnl.exe
 0002:000000e0       __imp__RtlInitUnicodeString@8 00045ce0     ntoskrnl:ntoskrnl.exe
 0002:000000e4       __imp__IoInitializeRemoveLockEx@20 00045ce4     ntoskrnl:ntoskrnl.exe
 0002:000000e8       __imp__IoGetDeviceObjectPointer@16 00045ce8     ntoskrnl:ntoskrnl.exe
 0002:000000ec       __imp__ZwClose@4           00045cec     ntoskrnl:ntoskrnl.exe
 0002:000000f0       __imp__ZwCreateFile@44     00045cf0     ntoskrnl:ntoskrnl.exe
 0002:000000f4       __imp__IoEnumerateDeviceObjectList@16 00045cf4     ntoskrnl:ntoskrnl.exe
 0002:000000f8       __imp__ObReferenceObjectByHandle@24 00045cf8     ntoskrnl:ntoskrnl.exe
 0002:000000fc       __imp__PsCreateSystemThread@28 00045cfc     ntoskrnl:ntoskrnl.exe
 0002:00000100       __imp__ObOpenObjectByPointer@28 00045d00     ntoskrnl:ntoskrnl.exe
 0002:00000104       __imp__SeCreateClientSecurity@16 00045d04     ntoskrnl:ntoskrnl.exe
 0002:00000108       __imp__KeSetTimerEx@20     00045d08     ntoskrnl:ntoskrnl.exe
 0002:0000010c       __imp__KeInitializeTimerEx@8 00045d0c     ntoskrnl:ntoskrnl.exe
 0002:00000110       __imp__wcsncat             00045d10     ntoskrnl:ntoskrnl.exe
 0002:00000114       __imp__SeTokenType@4       00045d14     ntoskrnl:ntoskrnl.exe
 0002:00000118       __imp__MmGetSystemRoutineAddress@4 00045d18     ntoskrnl:ntoskrnl.exe
 0002:0000011c       __imp__IoDeleteSymbolicLink@4 00045d1c     ntoskrnl:ntoskrnl.exe
 0002:00000120       __imp__IoBuildDeviceIoControlRequest@36 00045d20     ntoskrnl:ntoskrnl.exe
 0002:00000124       __imp_@ObfReferenceObject@4 00045d24     ntoskrnl:ntoskrnl.exe
 0002:00000128       __imp__KeQueryInterruptTime@0 00045d28     ntoskrnl:ntoskrnl.exe
 0002:0000012c       __imp__IoBuildSynchronousFsdRequest@28 00045d2c     ntoskrnl:ntoskrnl.exe
 0002:00000130       __imp__IoGetRelatedDeviceObject@4 00045d30     ntoskrnl:ntoskrnl.exe
 0002:00000134       __imp__SeReleaseSubjectContext@4 00045d34     ntoskrnl:ntoskrnl.exe
 0002:00000138       __imp__SeUnlockSubjectContext@4 00045d38     ntoskrnl:ntoskrnl.exe
 0002:0000013c       __imp__RtlCopySid@12       00045d3c     ntoskrnl:ntoskrnl.exe
 0002:00000140       __imp__RtlLengthSid@4      00045d40     ntoskrnl:ntoskrnl.exe
 0002:00000144       __imp__SeQueryInformationToken@12 00045d44     ntoskrnl:ntoskrnl.exe
 0002:00000148       __imp__SeLockSubjectContext@4 00045d48     ntoskrnl:ntoskrnl.exe
 0002:0000014c       __imp__SeCaptureSubjectContext@4 00045d4c     ntoskrnl:ntoskrnl.exe
 0002:00000150       __imp__ZwQuerySymbolicLinkObject@12 00045d50     ntoskrnl:ntoskrnl.exe
 0002:00000154       __imp__ZwOpenSymbolicLinkObject@12 00045d54     ntoskrnl:ntoskrnl.exe
 0002:00000158       __imp_@IofCompleteRequest@8 00045d58     ntoskrnl:ntoskrnl.exe
 0002:0000015c       __imp__KeQueryActiveProcessors@0 00045d5c     ntoskrnl:ntoskrnl.exe
 0002:00000160       __imp__ZwQueryValueKey@24  00045d60     ntoskrnl:ntoskrnl.exe
 0002:00000164       __imp__ZwOpenKey@12        00045d64     ntoskrnl:ntoskrnl.exe
 0002:00000168       __imp__RtlEqualSid@8       00045d68     ntoskrnl:ntoskrnl.exe
 0002:0000016c       __imp__SeTokenIsAdmin@4    00045d6c     ntoskrnl:ntoskrnl.exe
 0002:00000170       __imp__wcsncpy             00045d70     ntoskrnl:ntoskrnl.exe
 0002:00000174       __imp__wcsstr              00045d74     ntoskrnl:ntoskrnl.exe
 0002:00000178       __imp___snwprintf          00045d78     ntoskrnl:ntoskrnl.exe
 0002:0000017c       _IoFileObjectType          00045d7c     ntoskrnl:ntoskrnl.exe
 0002:0000017c       __imp__IoFileObjectType    00045d7c     ntoskrnl:ntoskrnl.exe
 0002:00000180       __imp__ZwQueryInformationFile@20 00045d80     ntoskrnl:ntoskrnl.exe
 0002:00000184       __imp___aullrem            00045d84     ntoskrnl:ntoskrnl.exe
 0002:00000188       __imp__ZwSetInformationFile@20 00045d88     ntoskrnl:ntoskrnl.exe
 0002:0000018c       __imp__KeTickCount         00045d8c     ntoskrnl:ntoskrnl.exe
 0002:0000018c       _KeTickCount               00045d8c     ntoskrnl:ntoskrnl.exe
 0002:00000190       __imp__IoDetachDevice@4    00045d90     ntoskrnl:ntoskrnl.exe
 0002:00000194       __imp__IoDeleteDevice@4    00045d94     ntoskrnl:ntoskrnl.exe
 0002:00000198       __imp__memset              00045d98     ntoskrnl:ntoskrnl.exe
 0002:0000019c       __imp__KeInitializeMutex@8 00045d9c     ntoskrnl:ntoskrnl.exe
 0002:000001a0       __imp__DbgPrint            00045da0     ntoskrnl:ntoskrnl.exe
 0002:000001a4       __imp__MmMapIoSpace@16     00045da4     ntoskrnl:ntoskrnl.exe
 0002:000001a8       __imp__KeBugCheckEx@20     00045da8     ntoskrnl:ntoskrnl.exe
 0002:000001ac       __imp__KeRestoreFloatingPointState@4 00045dac     ntoskrnl:ntoskrnl.exe
 0002:000001b0       __imp__KeSaveFloatingPointState@4 00045db0     ntoskrnl:ntoskrnl.exe
 0002:000001b4       __imp___allshl             00045db4     ntoskrnl:ntoskrnl.exe
 0002:000001b8       __imp__RtlUnwind@16        00045db8     ntoskrnl:ntoskrnl.exe
 0002:000001bc       __imp__KeInitializeSemaphore@12 00045dbc     ntoskrnl:ntoskrnl.exe
 0002:000001c0       __imp__MmUnmapIoSpace@8    00045dc0     ntoskrnl:ntoskrnl.exe
 0002:000001c4       \177ntoskrnl_NULL_THUNK_DATA 00045dc4     ntoskrnl:ntoskrnl.exe
 0002:000001fc       _GUID_DEVINTERFACE_VOLUME  00045dfc     uuid:cguid_i.obj
 0002:0000020c       ??_C@_05HJMENKNE@SHA?91?$AA@ 00045e0c     Common:crypto.obj
 0002:00000214       ??_C@_09HLDHDDJL@Whirlpool?$AA@ 00045e14     Common:crypto.obj
 0002:00000220       ??_C@_07MEOJAOJE@SHA?9512?$AA@ 00045e20     Common:crypto.obj
 0002:00000228       ??_C@_0L@PKFJAMAA@RIPEMD?9160?$AA@ 00045e28     Common:crypto.obj
 0002:00000234       ??_C@_0L@NEGMAKNF@Triple?5DES?$AA@ 00045e34     Common:crypto.obj
 0002:00000240       ??_C@_05LCFOLDPB@CAST5?$AA@ 00045e40     Common:crypto.obj
 0002:00000248       ??_C@_08KOMAHJJD@Blowfish?$AA@ 00045e48     Common:crypto.obj
 0002:00000254       ??_C@_07DABDIDEC@Twofish?$AA@ 00045e54     Common:crypto.obj
 0002:0000025c       ??_C@_07CCCAKGBN@Serpent?$AA@ 00045e5c     Common:crypto.obj
 0002:00000264       ??_C@_03BKNEFOAH@AES?$AA@  00045e64     Common:crypto.obj
 0002:00000268       ??_C@_0EB@PHFBDMAI@?$AD?$JB?R?$IA?$AA?$LGb?$LL?$LI?f?$CD?$DO?hl?r?$LC?$IEtLs?$ILX?$AA?$LK?$CI?$BC?mRo?c?$BF?3@ 00045e68     Common:tests.obj
 0002:000002ac       ??_C@_0DJ@NGDOEGCI@abcdbcdecdefdefgefghfghighijhijk@ 00045eac     Common:tests.obj
 0002:000002e8       ??_C@_0EB@DIMDKBBC@?$AA?$BB?$CC3DUfw?$II?$JJ?$KK?$LL?L?$NN?n?$PP?$AB?$CDEg?$IJ?$KL?M?o?$AA?$BB?$CC3DUfw@ 00045ee8     Common:tests.obj
 0002:0000032c       ??_C@_0BF@PFENIDMG@?$IF?qdp?$DOa?$KG11?$LO?$HOE?$JF?$IO?$AH?$JE?$BC9?$AE?y?$AA@ 00045f2c     Common:tests.obj
 0002:00000344       ??_C@_0BF@HFFLEHPC@?x6b?L?$IN3?$JM?$CC?$HO?$GA?$AP?MclW?RW?$BL?$BM4?$AA@ 00045f44     Common:tests.obj
 0002:00000360       ??_C@_0FB@JDIKKJCI@12345678901234567890123456789012@ 00045f60     Common:tests.obj
 0002:000003b4       ??_C@_0P@ONGHGJEC@message?5digest?$AA@ 00045fb4     Common:tests.obj
 0002:000003c4       ??_C@_0BF@JFBGCNOI@?$AB?$CDEg?$IJ?$KL?M?o?$PO?$NM?$LK?$JIvT2?$BA?$AA?$BB?$CC3?$AA@ 00045fc4     Common:tests.obj
 0002:000003dc       ??_C@_0BF@EKEAJOKM@?$AA?$BB?$CC3DUfw?$II?$JJ?$KK?$LL?L?$NN?n?$PP?$AB?$CDEg?$AA@ 00045fdc     Common:tests.obj
 0002:000003f4       ??_C@_0BF@OJOCDNBL@?$BC?$FNsB?$LJ?$KM?$BB?M?$JB?$KD?$JK?t?$IK?$KB?$HLOc?qu?S?$AA@ 00045ff4     Common:tests.obj
 0002:0000040c       ??_C@_0BF@NPPNDLAN@?o?$PM?$NPj?e?k?1?$KC?Rt?$BG?U?q?$IE?$NP?$JM?$CF?$JK?$HMy?$AA@ 0004600c     Common:tests.obj
 0002:00000424       ??_C@_0BF@BDDOKADE@?$LG?$BH1?$IGU?$AFrd?b?$IL?$MA?$LG?$PL7?$IM?$IO?qF?$LO?$AA?$AA@ 00046024     Common:tests.obj
 0002:0000043c       ??_C@_0BF@KOBLBFLL@?$LM?t?$BO?$KL?$IL?$LC?X?$AC?s?P?2?$KP?$HM?$LA?$JC?l?x?Q?$KD?$KK?$AA@ 0004603c     Common:tests.obj
 0002:00000454       ??_C@_09OCHOFPMP@Sample?5?$CD3?$AA@ 00046054     Common:tests.obj
 0002:00000460       ??_C@_0GF@PEHFLIKL@PQRSTUVWXYZ?$FL?2?$FN?$FO_?$GAabcdefghijklmno@ 00046060     Common:tests.obj
 0002:000004c8       ??_C@_0EB@IAGJFOJI@?c?$HLjw?$FN?H?$HN?$LK?$KE?$NP?$KJ?yn?$FO?$DP?$PN?$NO?$LNq?x?$IGr?$IJ?$IG?$FN?u?$KD?9?5?M?ID@ 000460c8     Common:tests.obj
 0002:00000510       ??_C@_0EB@HIMJOCNA@?$IA?$LCBc?G?A?$KD?k?$LH?$BE?$JD?A?$NN?$HL?h?$LE?$JLF?Q?t?$BLJ?n?A?$BC?$BL?$AB7?$ID?x?sR@ 00046110     Common:tests.obj
 0002:00000558       ??_C@_0EB@LPCMCIMB@?$LA?$LKFV7E?$IMi?$JA?e?$KI?E?v?$BNJ?w?ev?Y?$HP?yK?$IH?9?go?$IAP6?$BO?c?$NL@ 00046158     Common:tests.obj
 0002:000005a0       ??_C@_0EB@KHIOOKPP@?zs?$LA?$AI?$JNV?$KC?$IE?o?$LA?pul?$IJ?$AL?i?$LB?$LF?$NL?$NN?$IO?h?$BK6U?x?$DO3?$LC?8?$JN9@ 000461a0     Common:tests.obj
 0002:000005e8       ??_C@_0EB@OCCGLAFJ@?$BGKz?$HL?$PM?x?$BJ?b?c?$JF?$PL?g?$DLV?$OA?$KD?$IH?$LNd?$CC?4?$ID?$BP?V?$BA?8?$AM?W?j?$CF?$AFT@ 000461e8     Common:tests.obj
 0002:00000630       ??_C@_0EB@NPCMCGAL@?$IH?$KK?$HM?$NO?$KF?oa?$JNO?p?$LE$?$BK?$BNl?$LA?$CDy?t?b?NN?Bxz?P?$LD?$AFE?a?$HM?$NO@ 00046230     Common:tests.obj
 0002:00000678       ??_C@_0JJ@PIHOAKB@This?5is?5a?5test?5using?5a?5larger?5th@ 00046278     Common:tests.obj
 0002:00000714       ??_C@_0DH@HELOGHDO@Test?5Using?5Larger?5Than?5Block?9Siz@ 00046314     Common:tests.obj
 0002:0000074c       ??_C@_0DD@JCGDPDJ@?M?M?M?M?M?M?M?M?M?M?M?M?M?M?M?M?M?M?M?M?M?M?M?M?M?M?M?M?M?M?M?M@ 0004634c     Common:tests.obj
 0002:00000780       ??_C@_0DD@ODBBAMCC@?$NN?$NN?$NN?$NN?$NN?$NN?$NN?$NN?$NN?$NN?$NN?$NN?$NN?$NN?$NN?$NN?$NN?$NN?$NN?$NN?$NN?$NN?$NN?$NN?$NN?$NN?$NN?$NN?$NN?$NN?$NN?$NN@ 00046380     Common:tests.obj
 0002:000007b4       ??_C@_0BN@GJJCPKAL@what?5do?5ya?5want?5for?5nothing?$DP?$AA@ 000463b4     Common:tests.obj
 0002:000007d4       ??_C@_08BPPJKMC@Hi?5There?$AA@ 000463d4     Common:tests.obj
 0002:000007e0       ??_C@_0IE@FDPIKKAI@?$KK?$KK?$KK?$KK?$KK?$KK?$KK?$KK?$KK?$KK?$KK?$KK?$KK?$KK?$KK?$KK?$KK?$KK?$KK?$KK?$KK?$KK?$KK?$KK?$KK?$KK?$KK?$KK?$KK?$KK?$KK?$KK@ 000463e0     Common:tests.obj
 0002:00000864       ??_C@_0BK@LNLLCJNI@?$AB?$AC?$AD?$AE?$AF?$AG?$AH?$AI?7?6?$AL?$AM?$AN?$AO?$AP?$BA?$BB?$BC?$BD?$BE?$BF?$BG?$BH?$BI?$BJ?$AA@ 00046464     Common:tests.obj
 0002:00000880       ??_C@_0BF@GHKGHDBL@?$KK?$KK?$KK?$KK?$KK?$KK?$KK?$KK?$KK?$KK?$KK?$KK?$KK?$KK?$KK?$KK?$KK?$KK?$KK?$KK?$AA@ 00046480     Common:tests.obj
 0002:00000898       ??_C@_04HDLGGHEL@Jefe?$AA@ 00046498     Common:tests.obj
 0002:000008a0       ??_C@_0BF@EOMNKBPJ@?$AL?$AL?$AL?$AL?$AL?$AL?$AL?$AL?$AL?$AL?$AL?$AL?$AL?$AL?$AL?$AL?$AL?$AL?$AL?$AL?$AA@ 000464a0     Common:tests.obj
 0002:00004998       _k256                      0004a598     Crypto:sha2.obj
 0002:00004a98       _i224                      0004a698     Crypto:sha2.obj
 0002:00004ab8       _i256                      0004a6b8     Crypto:sha2.obj
 0002:00004ad8       _k512                      0004a6d8     Crypto:sha2.obj
 0002:00004d58       _i384                      0004a958     Crypto:sha2.obj
 0002:00004fd8       _i512                      0004abd8     Crypto:sha2.obj
 0002:000092c0       _t_rc                      0004eec0     Crypto:aestab.obj
 0002:00009300       _t_fn                      0004ef00     Crypto:aestab.obj
 0002:0000a300       _t_fl                      0004ff00     Crypto:aestab.obj
 0002:0000b300       _t_in                      00050f00     Crypto:aestab.obj
 0002:0000c300       _t_il                      00051f00     Crypto:aestab.obj
 0002:0000d300       _t_im                      00052f00     Crypto:aestab.obj
 0002:0000e300       __load_config_used         00053f00     ntoskrnl:loadcfg.obj
 0002:0000e3c0       ___safe_se_handler_table   00053fc0     <linker-defined>
 0003:00000000       ___security_cookie         00054000     BufferOverflowK:gs_support.obj
 0003:00000004       ___security_cookie_complement 00054004     BufferOverflowK:gs_support.obj
 0003:00000008       _cacheEmpty                00054008     Common:cache.obj
 0003:00000010       _crc_32_tab                00054010     Common:crc.obj
 0003:00000788       _XTS_vectors               00054788     Common:tests.obj
 0003:00001d04       _hmac_whirlpool_test_key   00055d04     Common:tests.obj
 0003:00001d08       _bf_ecb_vectors            00055d08     Common:tests.obj
 0003:00002038       _tripledes_vectors         00056038     Common:tests.obj
 0003:00002060       _cast_ecb_vectors          00056060     Common:tests.obj
 0003:00002080       _aes_ecb_vectors           00056080     Common:tests.obj
 0003:000020c0       _serpent_vectors           000560c0     Common:tests.obj
 0003:00002100       _twofish_vectors           00056100     Common:tests.obj
 0003:00002140       _hmac_sha512_test_keys     00056140     Common:tests.obj
 0003:00002158       _hmac_sha512_test_data     00056158     Common:tests.obj
 0003:00002170       _hmac_sha512_test_vectors  00056170     Common:tests.obj
 0003:00002188       _hmac_sha1_test_keys       00056188     Common:tests.obj
 0003:00002198       _hmac_sha1_test_data       00056198     Common:tests.obj
 0003:000021a8       _hmac_sha1_test_vectors    000561a8     Common:tests.obj
 0003:000021b8       _hmac_ripemd160_test_keys  000561b8     Common:tests.obj
 0003:000021c0       _hmac_ripemd160_test_data  000561c0     Common:tests.obj
 0003:000021c8       _hmac_ripemd160_test_vectors 000561c8     Common:tests.obj
 0003:000021d0       _hmac_whirlpool_test_data  000561d0     Common:tests.obj
 0003:000021d4       _hmac_whirlpool_test_vectors 000561d4     Common:tests.obj
 0003:000021d8       _lrw_vectors               000561d8     Common:tests.obj
 0003:0000259c       _BootArgsValid             0005659c     drivefilter.obj
 0003:000025c8       _EncryptionSetupThread     000565c8     drivefilter.obj
 0003:000025d0       _DecoySystemWipeThread     000565d0     drivefilter.obj
 0003:00002610       _RootDeviceObject          00056610     ntdriver.obj
 0003:00002614       _DriverShuttingDown        00056614     ntdriver.obj
 0003:00002618       _OsMajorVersion            00056618     ntdriver.obj
 0003:0000261c       _DriverUnloadDisabled      0005661c     ntdriver.obj
 0003:00002620       _PortableMode              00056620     ntdriver.obj
 0003:00002624       _VolumeClassFilterRegistered 00056624     ntdriver.obj
 0003:00002628       _CacheBootPassword         00056628     ntdriver.obj
 0003:0000262c       _NonAdminSystemFavoritesAccessDisabled 0005662c     ntdriver.obj
 0003:0000263c       _ProbingHostDeviceForWrite 0005663c     ntvol.obj
 0003:00002640       _HiddenSysLeakProtectionCount 00056640     volumefilter.obj
 0003:00002654       _ReadVolumeHeaderRecoveryMode 00056654     Common:volumes.obj
 0003:00005dd8       _SelfTestsPassed           00059dd8     <common>
 0003:00005ddc       _OsMinorVersion            00059ddc     <common>
 0003:00005de0       _LastUniqueVolumeId        00059de0     <common>
 0003:00005de4       _TCDriverObject            00059de4     <common>
 0003:00005e00       _VirtualVolumeDeviceObjects 00059e00     <common>
 0003:00005e80       _BootArgs                  00059e80     <common>
 0003:00005f00       _ks_tmp                    00059f00     <common>
 0003:000073e0       _CachedPasswords           0005b3e0     <common>
 0005:00000010       _DriverEntry@8             0005b690 f   ntdriver.obj
 0005:00000160       _TCCreateRootDeviceObject@4 0005b7e0 f   ntdriver.obj
 0005:000003c0       ___security_init_cookie    0005ba40 f   BufferOverflowK:gs_support.obj
 0005:000003f9       _GsDriverEntry@8           0005ba79 f   BufferOverflowK:gs_support.obj
 0005:00000410       ??_C@_1M@IOJLKPKK@?$AAS?$AAt?$AAa?$AAr?$AAt?$AA?$AA@PBOPGDP@ 0005ba90     ntdriver.obj
 0005:00000420       ??_C@_1CE@IPABBIFA@?$AA?2?$AAD?$AAe?$AAv?$AAi?$AAc?$AAe?$AA?2?$AAT?$AAr?$AAu?$AAe?$AAC?$AAr?$AAy?$AAp?$AAt?$AA?$AA@PBOPGDP@ 0005baa0     ntdriver.obj
 0005:00000450       ??_C@_0BO@OAMALJLL@DriverEntry?5CipherShed?50?47?43?6?$AA@PBOPGDP@ 0005bad0     ntdriver.obj
 0005:00000470       ??_C@_0CN@PMFMKKNC@TCCreateRootDeviceObject?5STATUS_@PBOPGDP@ 0005baf0     ntdriver.obj
 0005:000004a0       ??_C@_0DA@OJGNPLJ@TCCreateRootDeviceObject?5NTSTATU@PBOPGDP@ 0005bb20     ntdriver.obj
 0005:000004d0       ??_C@_0CF@KMOPKHLE@Creating?5root?5device?5nt?$DN?$CFls?5dos?$DN@PBOPGDP@ 0005bb50     ntdriver.obj
 0005:00000500       ??_C@_1CM@KJDLPNIG@?$AA?2?$AAD?$AAo?$AAs?$AAD?$AAe?$AAv?$AAi?$AAc?$AAe?$AAs?$AA?2?$AAT?$AAr?$AAu?$AAe?$AAC?$AAr?$AAy?$AAp?$AAt?$AA?$AA@PBOPGDP@ 0005bb80     ntdriver.obj
 0005:00000530       ??_C@_0CE@KKOENIAD@KeGetCurrentIrql?$CI?$CJ?5?$DN?$DN?5PASSIVE_LE@PBOPGDP@ 0005bbb0     ntdriver.obj
 0005:00000560       ??_C@_0EC@PIHBGAHH@c?3?2users?2public?2desktop?2projects@PBOPGDP@ 0005bbe0     ntdriver.obj
 0005:000005b0       ??_C@_0CA@NGANHIBM@TCCreateRootDeviceObject?5BEGIN?6?$AA@PBOPGDP@ 0005bc30     ntdriver.obj
 0005:000005d0       __IMPORT_DESCRIPTOR_ntoskrnl 0005bc50     ntoskrnl:ntoskrnl.exe
 0005:000005e4       __IMPORT_DESCRIPTOR_HAL    0005bc64     hal:HAL.dll
 0005:000005f8       __NULL_IMPORT_DESCRIPTOR   0005bc78     ntoskrnl:ntoskrnl.exe

 entry point at        0005:000003f9

 Static symbols

 0001:00000710       _PassIrp@8                 00010c10 f   drivefilter.obj
 0001:00000710       _PassIrp@8                 00010c10 f   drivefilter.obj
 0001:000007b0       _DispatchPnp@16            00010cb0 f   drivefilter.obj
 0001:00000a10       _DismountDrive@8           00010f10 f   drivefilter.obj
 0001:00000ad0       _PassFilteredIrp@16        00010fd0 f   drivefilter.obj
 0001:00000ad0       _PassFilteredIrp@16        00010fd0 f   drivefilter.obj
 0001:00000cc0       _OnStartDeviceCompleted@12 000111c0 f   drivefilter.obj
 0001:00000db0       _CheckDeviceTypeAndMount@4 000112b0 f   drivefilter.obj
 0001:00000e80       _MountDrive@12             00011380 f   drivefilter.obj
 0001:000017f0       _IsVolumeDevice@4          00011cf0 f   drivefilter.obj
 0001:000018f0       _MountDriveWorkItemRoutine@8 00011df0 f   drivefilter.obj
 0001:00001920       _DispatchPower@16          00011e20 f   drivefilter.obj
 0001:00001e60       _LoadImageNotifyRoutine@12 00012360 f   drivefilter.obj
 0001:00002030       _HiberDriverEntryFilter0@8 00012530 f   drivefilter.obj
 0001:00002050       _HiberDriverEntryFilter@12 00012550 f   drivefilter.obj
 0001:00002240       _HiberDriverWriteFunctionAFilter0@16 00012740 f   drivefilter.obj
 0001:00002270       _HiberDriverWriteFunctionFilter@24 00012770 f   drivefilter.obj
 0001:00002510       _HiberDriverWriteFunctionAFilter1@16 00012a10 f   drivefilter.obj
 0001:00002540       _HiberDriverWriteFunctionAFilter2@16 00012a40 f   drivefilter.obj
 0001:00002570       _HiberDriverWriteFunctionBFilter0@8 00012a70 f   drivefilter.obj
 0001:000025a0       _HiberDriverWriteFunctionBFilter1@8 00012aa0 f   drivefilter.obj
 0001:000025d0       _HiberDriverWriteFunctionBFilter2@8 00012ad0 f   drivefilter.obj
 0001:00002600       _HiberDriverEntryFilter1@8 00012b00 f   drivefilter.obj
 0001:00002620       _HiberDriverEntryFilter2@8 00012b20 f   drivefilter.obj
 0001:00002790       _SetupThreadProc@4         00012c90 f   drivefilter.obj
 0001:000033e0       _SaveDriveVolumeHeader@4   000138e0 f   drivefilter.obj
 0001:00003fa0       _DecoySystemWipeThreadProc@4 000144a0 f   drivefilter.obj
 0001:00004880       _DumpFilterStart@4         00014d80 f   dumpfilter.obj
 0001:00004900       _DumpFilterWrite@12        00014e00 f   dumpfilter.obj
 0001:00004c40       _DumpFilterFinish@4        00015140 f   dumpfilter.obj
 0001:00004c70       _DumpFilterUnload@4        00015170 f   dumpfilter.obj
 0001:00004da0       _DecrementOutstandingIoCount@4 000152a0 f   encryptedioqueue.obj
 0001:00005440       _GetPoolBuffer@8           00015940 f   encryptedioqueue.obj
 0001:000055c0       _AcquireBufferPoolMutex@4  00015ac0 f   encryptedioqueue.obj
 0001:00005610       _ReleaseBufferPoolMutex@4  00015b10 f   encryptedioqueue.obj
 0001:00005630       _FreePoolBuffers@4         00015b30 f   encryptedioqueue.obj
 0001:000056e0       _CompletionThreadProc@4    00015be0 f   encryptedioqueue.obj
 0001:00005910       _ReleasePoolBuffer@8       00015e10 f   encryptedioqueue.obj
 0001:000059b0       _CompleteOriginalIrp@12    00015eb0 f   encryptedioqueue.obj
 0001:000059f0       _OnItemCompleted@8         00015ef0 f   encryptedioqueue.obj
 0001:00005ab0       _IoThreadProc@4            00015fb0 f   encryptedioqueue.obj
 0001:00006140       _ReleaseFragmentBuffer@8   00016640 f   encryptedioqueue.obj
 0001:000061b0       _TCCachedRead@24           000166b0 f   encryptedioqueue.obj
 0001:000062b0       _MainThreadProc@4          000167b0 f   encryptedioqueue.obj
 0001:00006e30       _AcquireFragmentBuffer@8   00017330 f   encryptedioqueue.obj
 0001:0000b820       _SendDeviceIoControlRequestWorkItemRoutine@8 0001bd20 f   ntdriver.obj
 0001:0000bba0       _TCReadWriteDevice@24      0001c0a0 f   ntdriver.obj
 0001:0000c9d0       _FindVolumeWithHighestUniqueId@4 0001ced0 f   ntdriver.obj
 0001:0000ee30       _TCSendHostDeviceIoControlRequest@20 0001f330 f   ntvol.obj
 0001:0000ef20       _RestoreTimeStamp@4        0001f420 f   ntvol.obj
 0001:0000f2b0       _DispatchControl@16        0001f7b0 f   volumefilter.obj
 0001:0000f570       _DispatchPnp@16            0001fa70 f   volumefilter.obj
 0001:0000f700       _OnDeviceUsageNotificationCompleted@12 0001fc00 f   volumefilter.obj
 0001:0000f700       _OnDeviceUsageNotificationCompleted@12 0001fc00 f   volumefilter.obj
 0001:0000f760       _OnStartDeviceCompleted@12 0001fc60 f   volumefilter.obj
 0001:0000f7c0       _DispatchPower@16          0001fcc0 f   volumefilter.obj
 0001:0000fc90       _GetCrc32Large@8           00020190 f   Common:crc.obj
 0001:00011640       _EncryptBufferCBC@28       00021b40 f   Common:crypto.obj
 0001:00011c70       _InitSectorIVAndWhitening@24 00022170 f   Common:crypto.obj
 0001:00012010       _DecryptBufferCBC@28       00022510 f   Common:crypto.obj
 0001:00013650       _Wipe1PseudoRandom@12      00023b50 f   Common:wipe.obj
 0001:00013660       _Wipe3Dod5220@12           00023b60 f   Common:wipe.obj
 0001:000136c0       _Wipe7Dod5220@16           00023bc0 f   Common:wipe.obj
 0001:00013770       _Wipe35Gutmann@12          00023c70 f   Common:wipe.obj
 0001:00016f50       _DoAutoTestAlgorithms@0    00027450 f   Common:tests.obj
 0001:00017df0       _EncryptionThreadProc@4    000282f0 f   Common:encryptionthreadpool.obj
 0001:00018100       _GetWorkItemState@4        00028600 f   Common:encryptionthreadpool.obj
 0001:00018120       _SetWorkItemState@8        00028620 f   Common:encryptionthreadpool.obj
 0001:00019130       _IsBitSet128@8             00029630 f   Common:gfmul.obj
 0001:00019170       _SetBit128@8               00029670 f   Common:gfmul.obj
 0001:00019280       _IsBitSet64@8              00029780 f   Common:gfmul.obj
 0001:000192c0       _SetBit64@8                000297c0 f   Common:gfmul.obj
 0001:00019c10       _EncryptBufferXTSParallel@32 0002a110 f   Common:xts.obj
 0001:0001a210       _EncryptBufferXTSNonParallel@32 0002a710 f   Common:xts.obj
 0001:0001a5b0       _DecryptBufferXTSParallel@32 0002aab0 f   Common:xts.obj
 0001:0001abb0       _DecryptBufferXTSNonParallel@32 0002b0b0 f   Common:xts.obj
 0001:0001cdc0       _RawSetKey@12              0002d2c0 f   Crypto:des.obj
 0001:0001d3a0       _rotrFixed@8               0002d8a0 f   Crypto:des.obj
 0001:0001d3d0       _RawProcessBlock@12        0002d8d0 f   Crypto:des.obj
 0001:0001dba0       _rotlVariable@8            0002e0a0 f   Crypto:cast.obj
 0001:0001dba0       _rotlFixed@8               0002e0a0 f   Crypto:cast.obj
 0001:0001dba0       _rotlFixed@8               0002e0a0 f   Crypto:cast.obj
 0001:0001ee60       _crypt_block@12            0002f360 f   Crypto:blowfish.obj
 0001:0001f240       _gen_qtab@0                0002f740 f   Crypto:twofish.obj
 0001:0001f2a0       _qp@8                      0002f7a0 f   Crypto:twofish.obj
 0001:0001f380       _gen_mtab@0                0002f880 f   Crypto:twofish.obj
 0001:0001f4e0       _h_fun@12                  0002f9e0 f   Crypto:twofish.obj
 0001:0001f710       _gen_mk_tab@8              0002fc10 f   Crypto:twofish.obj
 0001:0001fbc0       _mds_rem@8                 000300c0 f   Crypto:twofish.obj
 0001:0002a9a0       _sha_end2@12               0003aea0 f   Crypto:sha2.obj
 0001:0002d5f0       _RMD160Pad@4               0003daf0 f   Crypto:rmd160.obj
 0001:0002fff0       _processBuffer@4           000404f0 f   Crypto:whirlpool.obj
 0001:00031a7f       __unwind_handler4          00041f7f f   sehupd:exsup4.obj
