; Listing generated by Microsoft (R) Optimizing Compiler Version 15.00.30729.01 

	TITLE	c:\home\public\Desktop\projects\cipherShed\src\Crypto\Aestab.c
	.686P
	.XMM
	include listing.inc
	.model	flat

INCLUDELIB LIBCMT
INCLUDELIB OLDNAMES

PUBLIC	_t_rc
PUBLIC	_t_fn
PUBLIC	_t_fl
PUBLIC	_t_in
PUBLIC	_t_il
PUBLIC	_t_im
CONST	SEGMENT
_t_rc	DD	01H
	DD	02H
	DD	04H
	DD	08H
	DD	010H
	DD	020H
	DD	040H
	DD	080H
	DD	01bH
	DD	036H
	ORG $+24
_t_fn	DD	0a56363c6H
	DD	0847c7cf8H
	DD	0997777eeH
	DD	08d7b7bf6H
	DD	0df2f2ffH
	DD	0bd6b6bd6H
	DD	0b16f6fdeH
	DD	054c5c591H
	DD	050303060H
	DD	03010102H
	DD	0a96767ceH
	DD	07d2b2b56H
	DD	019fefee7H
	DD	062d7d7b5H
	DD	0e6abab4dH
	DD	09a7676ecH
	DD	045caca8fH
	DD	09d82821fH
	DD	040c9c989H
	DD	0877d7dfaH
	DD	015fafaefH
	DD	0eb5959b2H
	DD	0c947478eH
	DD	0bf0f0fbH
	DD	0ecadad41H
	DD	067d4d4b3H
	DD	0fda2a25fH
	DD	0eaafaf45H
	DD	0bf9c9c23H
	DD	0f7a4a453H
	DD	0967272e4H
	DD	05bc0c09bH
	DD	0c2b7b775H
	DD	01cfdfde1H
	DD	0ae93933dH
	DD	06a26264cH
	DD	05a36366cH
	DD	0413f3f7eH
	DD	02f7f7f5H
	DD	04fcccc83H
	DD	05c343468H
	DD	0f4a5a551H
	DD	034e5e5d1H
	DD	08f1f1f9H
	DD	0937171e2H
	DD	073d8d8abH
	DD	053313162H
	DD	03f15152aH
	DD	0c040408H
	DD	052c7c795H
	DD	065232346H
	DD	05ec3c39dH
	DD	028181830H
	DD	0a1969637H
	DD	0f05050aH
	DD	0b59a9a2fH
	DD	0907070eH
	DD	036121224H
	DD	09b80801bH
	DD	03de2e2dfH
	DD	026ebebcdH
	DD	06927274eH
	DD	0cdb2b27fH
	DD	09f7575eaH
	DD	01b090912H
	DD	09e83831dH
	DD	0742c2c58H
	DD	02e1a1a34H
	DD	02d1b1b36H
	DD	0b26e6edcH
	DD	0ee5a5ab4H
	DD	0fba0a05bH
	DD	0f65252a4H
	DD	04d3b3b76H
	DD	061d6d6b7H
	DD	0ceb3b37dH
	DD	07b292952H
	DD	03ee3e3ddH
	DD	0712f2f5eH
	DD	097848413H
	DD	0f55353a6H
	DD	068d1d1b9H
	DD	00H
	DD	02cededc1H
	DD	060202040H
	DD	01ffcfce3H
	DD	0c8b1b179H
	DD	0ed5b5bb6H
	DD	0be6a6ad4H
	DD	046cbcb8dH
	DD	0d9bebe67H
	DD	04b393972H
	DD	0de4a4a94H
	DD	0d44c4c98H
	DD	0e85858b0H
	DD	04acfcf85H
	DD	06bd0d0bbH
	DD	02aefefc5H
	DD	0e5aaaa4fH
	DD	016fbfbedH
	DD	0c5434386H
	DD	0d74d4d9aH
	DD	055333366H
	DD	094858511H
	DD	0cf45458aH
	DD	010f9f9e9H
	DD	06020204H
	DD	0817f7ffeH
	DD	0f05050a0H
	DD	0443c3c78H
	DD	0ba9f9f25H
	DD	0e3a8a84bH
	DD	0f35151a2H
	DD	0fea3a35dH
	DD	0c0404080H
	DD	08a8f8f05H
	DD	0ad92923fH
	DD	0bc9d9d21H
	DD	048383870H
	DD	04f5f5f1H
	DD	0dfbcbc63H
	DD	0c1b6b677H
	DD	075dadaafH
	DD	063212142H
	DD	030101020H
	DD	01affffe5H
	DD	0ef3f3fdH
	DD	06dd2d2bfH
	DD	04ccdcd81H
	DD	0140c0c18H
	DD	035131326H
	DD	02fececc3H
	DD	0e15f5fbeH
	DD	0a2979735H
	DD	0cc444488H
	DD	03917172eH
	DD	057c4c493H
	DD	0f2a7a755H
	DD	0827e7efcH
	DD	0473d3d7aH
	DD	0ac6464c8H
	DD	0e75d5dbaH
	DD	02b191932H
	DD	0957373e6H
	DD	0a06060c0H
	DD	098818119H
	DD	0d14f4f9eH
	DD	07fdcdca3H
	DD	066222244H
	DD	07e2a2a54H
	DD	0ab90903bH
	DD	08388880bH
	DD	0ca46468cH
	DD	029eeeec7H
	DD	0d3b8b86bH
	DD	03c141428H
	DD	079dedea7H
	DD	0e25e5ebcH
	DD	01d0b0b16H
	DD	076dbdbadH
	DD	03be0e0dbH
	DD	056323264H
	DD	04e3a3a74H
	DD	01e0a0a14H
	DD	0db494992H
	DD	0a06060cH
	DD	06c242448H
	DD	0e45c5cb8H
	DD	05dc2c29fH
	DD	06ed3d3bdH
	DD	0efacac43H
	DD	0a66262c4H
	DD	0a8919139H
	DD	0a4959531H
	DD	037e4e4d3H
	DD	08b7979f2H
	DD	032e7e7d5H
	DD	043c8c88bH
	DD	05937376eH
	DD	0b76d6ddaH
	DD	08c8d8d01H
	DD	064d5d5b1H
	DD	0d24e4e9cH
	DD	0e0a9a949H
	DD	0b46c6cd8H
	DD	0fa5656acH
	DD	07f4f4f3H
	DD	025eaeacfH
	DD	0af6565caH
	DD	08e7a7af4H
	DD	0e9aeae47H
	DD	018080810H
	DD	0d5baba6fH
	DD	0887878f0H
	DD	06f25254aH
	DD	0722e2e5cH
	DD	0241c1c38H
	DD	0f1a6a657H
	DD	0c7b4b473H
	DD	051c6c697H
	DD	023e8e8cbH
	DD	07cdddda1H
	DD	09c7474e8H
	DD	0211f1f3eH
	DD	0dd4b4b96H
	DD	0dcbdbd61H
	DD	0868b8b0dH
	DD	0858a8a0fH
	DD	0907070e0H
	DD	0423e3e7cH
	DD	0c4b5b571H
	DD	0aa6666ccH
	DD	0d8484890H
	DD	05030306H
	DD	01f6f6f7H
	DD	0120e0e1cH
	DD	0a36161c2H
	DD	05f35356aH
	DD	0f95757aeH
	DD	0d0b9b969H
	DD	091868617H
	DD	058c1c199H
	DD	0271d1d3aH
	DD	0b99e9e27H
	DD	038e1e1d9H
	DD	013f8f8ebH
	DD	0b398982bH
	DD	033111122H
	DD	0bb6969d2H
	DD	070d9d9a9H
	DD	0898e8e07H
	DD	0a7949433H
	DD	0b69b9b2dH
	DD	0221e1e3cH
	DD	092878715H
	DD	020e9e9c9H
	DD	049cece87H
	DD	0ff5555aaH
	DD	078282850H
	DD	07adfdfa5H
	DD	08f8c8c03H
	DD	0f8a1a159H
	DD	080898909H
	DD	0170d0d1aH
	DD	0dabfbf65H
	DD	031e6e6d7H
	DD	0c6424284H
	DD	0b86868d0H
	DD	0c3414182H
	DD	0b0999929H
	DD	0772d2d5aH
	DD	0110f0f1eH
	DD	0cbb0b07bH
	DD	0fc5454a8H
	DD	0d6bbbb6dH
	DD	03a16162cH
	DD	06363c6a5H
	DD	07c7cf884H
	DD	07777ee99H
	DD	07b7bf68dH
	DD	0f2f2ff0dH
	DD	06b6bd6bdH
	DD	06f6fdeb1H
	DD	0c5c59154H
	DD	030306050H
	DD	01010203H
	DD	06767cea9H
	DD	02b2b567dH
	DD	0fefee719H
	DD	0d7d7b562H
	DD	0abab4de6H
	DD	07676ec9aH
	DD	0caca8f45H
	DD	082821f9dH
	DD	0c9c98940H
	DD	07d7dfa87H
	DD	0fafaef15H
	DD	05959b2ebH
	DD	047478ec9H
	DD	0f0f0fb0bH
	DD	0adad41ecH
	DD	0d4d4b367H
	DD	0a2a25ffdH
	DD	0afaf45eaH
	DD	09c9c23bfH
	DD	0a4a453f7H
	DD	07272e496H
	DD	0c0c09b5bH
	DD	0b7b775c2H
	DD	0fdfde11cH
	DD	093933daeH
	DD	026264c6aH
	DD	036366c5aH
	DD	03f3f7e41H
	DD	0f7f7f502H
	DD	0cccc834fH
	DD	03434685cH
	DD	0a5a551f4H
	DD	0e5e5d134H
	DD	0f1f1f908H
	DD	07171e293H
	DD	0d8d8ab73H
	DD	031316253H
	DD	015152a3fH
	DD	0404080cH
	DD	0c7c79552H
	DD	023234665H
	DD	0c3c39d5eH
	DD	018183028H
	DD	0969637a1H
	DD	05050a0fH
	DD	09a9a2fb5H
	DD	07070e09H
	DD	012122436H
	DD	080801b9bH
	DD	0e2e2df3dH
	DD	0ebebcd26H
	DD	027274e69H
	DD	0b2b27fcdH
	DD	07575ea9fH
	DD	0909121bH
	DD	083831d9eH
	DD	02c2c5874H
	DD	01a1a342eH
	DD	01b1b362dH
	DD	06e6edcb2H
	DD	05a5ab4eeH
	DD	0a0a05bfbH
	DD	05252a4f6H
	DD	03b3b764dH
	DD	0d6d6b761H
	DD	0b3b37dceH
	DD	02929527bH
	DD	0e3e3dd3eH
	DD	02f2f5e71H
	DD	084841397H
	DD	05353a6f5H
	DD	0d1d1b968H
	DD	00H
	DD	0ededc12cH
	DD	020204060H
	DD	0fcfce31fH
	DD	0b1b179c8H
	DD	05b5bb6edH
	DD	06a6ad4beH
	DD	0cbcb8d46H
	DD	0bebe67d9H
	DD	03939724bH
	DD	04a4a94deH
	DD	04c4c98d4H
	DD	05858b0e8H
	DD	0cfcf854aH
	DD	0d0d0bb6bH
	DD	0efefc52aH
	DD	0aaaa4fe5H
	DD	0fbfbed16H
	DD	0434386c5H
	DD	04d4d9ad7H
	DD	033336655H
	DD	085851194H
	DD	045458acfH
	DD	0f9f9e910H
	DD	02020406H
	DD	07f7ffe81H
	DD	05050a0f0H
	DD	03c3c7844H
	DD	09f9f25baH
	DD	0a8a84be3H
	DD	05151a2f3H
	DD	0a3a35dfeH
	DD	0404080c0H
	DD	08f8f058aH
	DD	092923fadH
	DD	09d9d21bcH
	DD	038387048H
	DD	0f5f5f104H
	DD	0bcbc63dfH
	DD	0b6b677c1H
	DD	0dadaaf75H
	DD	021214263H
	DD	010102030H
	DD	0ffffe51aH
	DD	0f3f3fd0eH
	DD	0d2d2bf6dH
	DD	0cdcd814cH
	DD	0c0c1814H
	DD	013132635H
	DD	0ececc32fH
	DD	05f5fbee1H
	DD	0979735a2H
	DD	0444488ccH
	DD	017172e39H
	DD	0c4c49357H
	DD	0a7a755f2H
	DD	07e7efc82H
	DD	03d3d7a47H
	DD	06464c8acH
	DD	05d5dbae7H
	DD	01919322bH
	DD	07373e695H
	DD	06060c0a0H
	DD	081811998H
	DD	04f4f9ed1H
	DD	0dcdca37fH
	DD	022224466H
	DD	02a2a547eH
	DD	090903babH
	DD	088880b83H
	DD	046468ccaH
	DD	0eeeec729H
	DD	0b8b86bd3H
	DD	01414283cH
	DD	0dedea779H
	DD	05e5ebce2H
	DD	0b0b161dH
	DD	0dbdbad76H
	DD	0e0e0db3bH
	DD	032326456H
	DD	03a3a744eH
	DD	0a0a141eH
	DD	0494992dbH
	DD	06060c0aH
	DD	02424486cH
	DD	05c5cb8e4H
	DD	0c2c29f5dH
	DD	0d3d3bd6eH
	DD	0acac43efH
	DD	06262c4a6H
	DD	0919139a8H
	DD	0959531a4H
	DD	0e4e4d337H
	DD	07979f28bH
	DD	0e7e7d532H
	DD	0c8c88b43H
	DD	037376e59H
	DD	06d6ddab7H
	DD	08d8d018cH
	DD	0d5d5b164H
	DD	04e4e9cd2H
	DD	0a9a949e0H
	DD	06c6cd8b4H
	DD	05656acfaH
	DD	0f4f4f307H
	DD	0eaeacf25H
	DD	06565caafH
	DD	07a7af48eH
	DD	0aeae47e9H
	DD	08081018H
	DD	0baba6fd5H
	DD	07878f088H
	DD	025254a6fH
	DD	02e2e5c72H
	DD	01c1c3824H
	DD	0a6a657f1H
	DD	0b4b473c7H
	DD	0c6c69751H
	DD	0e8e8cb23H
	DD	0dddda17cH
	DD	07474e89cH
	DD	01f1f3e21H
	DD	04b4b96ddH
	DD	0bdbd61dcH
	DD	08b8b0d86H
	DD	08a8a0f85H
	DD	07070e090H
	DD	03e3e7c42H
	DD	0b5b571c4H
	DD	06666ccaaH
	DD	0484890d8H
	DD	03030605H
	DD	0f6f6f701H
	DD	0e0e1c12H
	DD	06161c2a3H
	DD	035356a5fH
	DD	05757aef9H
	DD	0b9b969d0H
	DD	086861791H
	DD	0c1c19958H
	DD	01d1d3a27H
	DD	09e9e27b9H
	DD	0e1e1d938H
	DD	0f8f8eb13H
	DD	098982bb3H
	DD	011112233H
	DD	06969d2bbH
	DD	0d9d9a970H
	DD	08e8e0789H
	DD	0949433a7H
	DD	09b9b2db6H
	DD	01e1e3c22H
	DD	087871592H
	DD	0e9e9c920H
	DD	0cece8749H
	DD	05555aaffH
	DD	028285078H
	DD	0dfdfa57aH
	DD	08c8c038fH
	DD	0a1a159f8H
	DD	089890980H
	DD	0d0d1a17H
	DD	0bfbf65daH
	DD	0e6e6d731H
	DD	0424284c6H
	DD	06868d0b8H
	DD	0414182c3H
	DD	0999929b0H
	DD	02d2d5a77H
	DD	0f0f1e11H
	DD	0b0b07bcbH
	DD	05454a8fcH
	DD	0bbbb6dd6H
	DD	016162c3aH
	DD	063c6a563H
	DD	07cf8847cH
	DD	077ee9977H
	DD	07bf68d7bH
	DD	0f2ff0df2H
	DD	06bd6bd6bH
	DD	06fdeb16fH
	DD	0c59154c5H
	DD	030605030H
	DD	01020301H
	DD	067cea967H
	DD	02b567d2bH
	DD	0fee719feH
	DD	0d7b562d7H
	DD	0ab4de6abH
	DD	076ec9a76H
	DD	0ca8f45caH
	DD	0821f9d82H
	DD	0c98940c9H
	DD	07dfa877dH
	DD	0faef15faH
	DD	059b2eb59H
	DD	0478ec947H
	DD	0f0fb0bf0H
	DD	0ad41ecadH
	DD	0d4b367d4H
	DD	0a25ffda2H
	DD	0af45eaafH
	DD	09c23bf9cH
	DD	0a453f7a4H
	DD	072e49672H
	DD	0c09b5bc0H
	DD	0b775c2b7H
	DD	0fde11cfdH
	DD	0933dae93H
	DD	0264c6a26H
	DD	0366c5a36H
	DD	03f7e413fH
	DD	0f7f502f7H
	DD	0cc834fccH
	DD	034685c34H
	DD	0a551f4a5H
	DD	0e5d134e5H
	DD	0f1f908f1H
	DD	071e29371H
	DD	0d8ab73d8H
	DD	031625331H
	DD	0152a3f15H
	DD	04080c04H
	DD	0c79552c7H
	DD	023466523H
	DD	0c39d5ec3H
	DD	018302818H
	DD	09637a196H
	DD	050a0f05H
	DD	09a2fb59aH
	DD	070e0907H
	DD	012243612H
	DD	0801b9b80H
	DD	0e2df3de2H
	DD	0ebcd26ebH
	DD	0274e6927H
	DD	0b27fcdb2H
	DD	075ea9f75H
	DD	09121b09H
	DD	0831d9e83H
	DD	02c58742cH
	DD	01a342e1aH
	DD	01b362d1bH
	DD	06edcb26eH
	DD	05ab4ee5aH
	DD	0a05bfba0H
	DD	052a4f652H
	DD	03b764d3bH
	DD	0d6b761d6H
	DD	0b37dceb3H
	DD	029527b29H
	DD	0e3dd3ee3H
	DD	02f5e712fH
	DD	084139784H
	DD	053a6f553H
	DD	0d1b968d1H
	DD	00H
	DD	0edc12cedH
	DD	020406020H
	DD	0fce31ffcH
	DD	0b179c8b1H
	DD	05bb6ed5bH
	DD	06ad4be6aH
	DD	0cb8d46cbH
	DD	0be67d9beH
	DD	039724b39H
	DD	04a94de4aH
	DD	04c98d44cH
	DD	058b0e858H
	DD	0cf854acfH
	DD	0d0bb6bd0H
	DD	0efc52aefH
	DD	0aa4fe5aaH
	DD	0fbed16fbH
	DD	04386c543H
	DD	04d9ad74dH
	DD	033665533H
	DD	085119485H
	DD	0458acf45H
	DD	0f9e910f9H
	DD	02040602H
	DD	07ffe817fH
	DD	050a0f050H
	DD	03c78443cH
	DD	09f25ba9fH
	DD	0a84be3a8H
	DD	051a2f351H
	DD	0a35dfea3H
	DD	04080c040H
	DD	08f058a8fH
	DD	0923fad92H
	DD	09d21bc9dH
	DD	038704838H
	DD	0f5f104f5H
	DD	0bc63dfbcH
	DD	0b677c1b6H
	DD	0daaf75daH
	DD	021426321H
	DD	010203010H
	DD	0ffe51affH
	DD	0f3fd0ef3H
	DD	0d2bf6dd2H
	DD	0cd814ccdH
	DD	0c18140cH
	DD	013263513H
	DD	0ecc32fecH
	DD	05fbee15fH
	DD	09735a297H
	DD	04488cc44H
	DD	0172e3917H
	DD	0c49357c4H
	DD	0a755f2a7H
	DD	07efc827eH
	DD	03d7a473dH
	DD	064c8ac64H
	DD	05dbae75dH
	DD	019322b19H
	DD	073e69573H
	DD	060c0a060H
	DD	081199881H
	DD	04f9ed14fH
	DD	0dca37fdcH
	DD	022446622H
	DD	02a547e2aH
	DD	0903bab90H
	DD	0880b8388H
	DD	0468cca46H
	DD	0eec729eeH
	DD	0b86bd3b8H
	DD	014283c14H
	DD	0dea779deH
	DD	05ebce25eH
	DD	0b161d0bH
	DD	0dbad76dbH
	DD	0e0db3be0H
	DD	032645632H
	DD	03a744e3aH
	DD	0a141e0aH
	DD	04992db49H
	DD	060c0a06H
	DD	024486c24H
	DD	05cb8e45cH
	DD	0c29f5dc2H
	DD	0d3bd6ed3H
	DD	0ac43efacH
	DD	062c4a662H
	DD	09139a891H
	DD	09531a495H
	DD	0e4d337e4H
	DD	079f28b79H
	DD	0e7d532e7H
	DD	0c88b43c8H
	DD	0376e5937H
	DD	06ddab76dH
	DD	08d018c8dH
	DD	0d5b164d5H
	DD	04e9cd24eH
	DD	0a949e0a9H
	DD	06cd8b46cH
	DD	056acfa56H
	DD	0f4f307f4H
	DD	0eacf25eaH
	DD	065caaf65H
	DD	07af48e7aH
	DD	0ae47e9aeH
	DD	08101808H
	DD	0ba6fd5baH
	DD	078f08878H
	DD	0254a6f25H
	DD	02e5c722eH
	DD	01c38241cH
	DD	0a657f1a6H
	DD	0b473c7b4H
	DD	0c69751c6H
	DD	0e8cb23e8H
	DD	0dda17cddH
	DD	074e89c74H
	DD	01f3e211fH
	DD	04b96dd4bH
	DD	0bd61dcbdH
	DD	08b0d868bH
	DD	08a0f858aH
	DD	070e09070H
	DD	03e7c423eH
	DD	0b571c4b5H
	DD	066ccaa66H
	DD	04890d848H
	DD	03060503H
	DD	0f6f701f6H
	DD	0e1c120eH
	DD	061c2a361H
	DD	0356a5f35H
	DD	057aef957H
	DD	0b969d0b9H
	DD	086179186H
	DD	0c19958c1H
	DD	01d3a271dH
	DD	09e27b99eH
	DD	0e1d938e1H
	DD	0f8eb13f8H
	DD	0982bb398H
	DD	011223311H
	DD	069d2bb69H
	DD	0d9a970d9H
	DD	08e07898eH
	DD	09433a794H
	DD	09b2db69bH
	DD	01e3c221eH
	DD	087159287H
	DD	0e9c920e9H
	DD	0ce8749ceH
	DD	055aaff55H
	DD	028507828H
	DD	0dfa57adfH
	DD	08c038f8cH
	DD	0a159f8a1H
	DD	089098089H
	DD	0d1a170dH
	DD	0bf65dabfH
	DD	0e6d731e6H
	DD	04284c642H
	DD	068d0b868H
	DD	04182c341H
	DD	09929b099H
	DD	02d5a772dH
	DD	0f1e110fH
	DD	0b07bcbb0H
	DD	054a8fc54H
	DD	0bb6dd6bbH
	DD	0162c3a16H
	DD	0c6a56363H
	DD	0f8847c7cH
	DD	0ee997777H
	DD	0f68d7b7bH
	DD	0ff0df2f2H
	DD	0d6bd6b6bH
	DD	0deb16f6fH
	DD	09154c5c5H
	DD	060503030H
	DD	02030101H
	DD	0cea96767H
	DD	0567d2b2bH
	DD	0e719fefeH
	DD	0b562d7d7H
	DD	04de6ababH
	DD	0ec9a7676H
	DD	08f45cacaH
	DD	01f9d8282H
	DD	08940c9c9H
	DD	0fa877d7dH
	DD	0ef15fafaH
	DD	0b2eb5959H
	DD	08ec94747H
	DD	0fb0bf0f0H
	DD	041ecadadH
	DD	0b367d4d4H
	DD	05ffda2a2H
	DD	045eaafafH
	DD	023bf9c9cH
	DD	053f7a4a4H
	DD	0e4967272H
	DD	09b5bc0c0H
	DD	075c2b7b7H
	DD	0e11cfdfdH
	DD	03dae9393H
	DD	04c6a2626H
	DD	06c5a3636H
	DD	07e413f3fH
	DD	0f502f7f7H
	DD	0834fccccH
	DD	0685c3434H
	DD	051f4a5a5H
	DD	0d134e5e5H
	DD	0f908f1f1H
	DD	0e2937171H
	DD	0ab73d8d8H
	DD	062533131H
	DD	02a3f1515H
	DD	080c0404H
	DD	09552c7c7H
	DD	046652323H
	DD	09d5ec3c3H
	DD	030281818H
	DD	037a19696H
	DD	0a0f0505H
	DD	02fb59a9aH
	DD	0e090707H
	DD	024361212H
	DD	01b9b8080H
	DD	0df3de2e2H
	DD	0cd26ebebH
	DD	04e692727H
	DD	07fcdb2b2H
	DD	0ea9f7575H
	DD	0121b0909H
	DD	01d9e8383H
	DD	058742c2cH
	DD	0342e1a1aH
	DD	0362d1b1bH
	DD	0dcb26e6eH
	DD	0b4ee5a5aH
	DD	05bfba0a0H
	DD	0a4f65252H
	DD	0764d3b3bH
	DD	0b761d6d6H
	DD	07dceb3b3H
	DD	0527b2929H
	DD	0dd3ee3e3H
	DD	05e712f2fH
	DD	013978484H
	DD	0a6f55353H
	DD	0b968d1d1H
	DD	00H
	DD	0c12cededH
	DD	040602020H
	DD	0e31ffcfcH
	DD	079c8b1b1H
	DD	0b6ed5b5bH
	DD	0d4be6a6aH
	DD	08d46cbcbH
	DD	067d9bebeH
	DD	0724b3939H
	DD	094de4a4aH
	DD	098d44c4cH
	DD	0b0e85858H
	DD	0854acfcfH
	DD	0bb6bd0d0H
	DD	0c52aefefH
	DD	04fe5aaaaH
	DD	0ed16fbfbH
	DD	086c54343H
	DD	09ad74d4dH
	DD	066553333H
	DD	011948585H
	DD	08acf4545H
	DD	0e910f9f9H
	DD	04060202H
	DD	0fe817f7fH
	DD	0a0f05050H
	DD	078443c3cH
	DD	025ba9f9fH
	DD	04be3a8a8H
	DD	0a2f35151H
	DD	05dfea3a3H
	DD	080c04040H
	DD	058a8f8fH
	DD	03fad9292H
	DD	021bc9d9dH
	DD	070483838H
	DD	0f104f5f5H
	DD	063dfbcbcH
	DD	077c1b6b6H
	DD	0af75dadaH
	DD	042632121H
	DD	020301010H
	DD	0e51affffH
	DD	0fd0ef3f3H
	DD	0bf6dd2d2H
	DD	0814ccdcdH
	DD	018140c0cH
	DD	026351313H
	DD	0c32fececH
	DD	0bee15f5fH
	DD	035a29797H
	DD	088cc4444H
	DD	02e391717H
	DD	09357c4c4H
	DD	055f2a7a7H
	DD	0fc827e7eH
	DD	07a473d3dH
	DD	0c8ac6464H
	DD	0bae75d5dH
	DD	0322b1919H
	DD	0e6957373H
	DD	0c0a06060H
	DD	019988181H
	DD	09ed14f4fH
	DD	0a37fdcdcH
	DD	044662222H
	DD	0547e2a2aH
	DD	03bab9090H
	DD	0b838888H
	DD	08cca4646H
	DD	0c729eeeeH
	DD	06bd3b8b8H
	DD	0283c1414H
	DD	0a779dedeH
	DD	0bce25e5eH
	DD	0161d0b0bH
	DD	0ad76dbdbH
	DD	0db3be0e0H
	DD	064563232H
	DD	0744e3a3aH
	DD	0141e0a0aH
	DD	092db4949H
	DD	0c0a0606H
	DD	0486c2424H
	DD	0b8e45c5cH
	DD	09f5dc2c2H
	DD	0bd6ed3d3H
	DD	043efacacH
	DD	0c4a66262H
	DD	039a89191H
	DD	031a49595H
	DD	0d337e4e4H
	DD	0f28b7979H
	DD	0d532e7e7H
	DD	08b43c8c8H
	DD	06e593737H
	DD	0dab76d6dH
	DD	018c8d8dH
	DD	0b164d5d5H
	DD	09cd24e4eH
	DD	049e0a9a9H
	DD	0d8b46c6cH
	DD	0acfa5656H
	DD	0f307f4f4H
	DD	0cf25eaeaH
	DD	0caaf6565H
	DD	0f48e7a7aH
	DD	047e9aeaeH
	DD	010180808H
	DD	06fd5babaH
	DD	0f0887878H
	DD	04a6f2525H
	DD	05c722e2eH
	DD	038241c1cH
	DD	057f1a6a6H
	DD	073c7b4b4H
	DD	09751c6c6H
	DD	0cb23e8e8H
	DD	0a17cddddH
	DD	0e89c7474H
	DD	03e211f1fH
	DD	096dd4b4bH
	DD	061dcbdbdH
	DD	0d868b8bH
	DD	0f858a8aH
	DD	0e0907070H
	DD	07c423e3eH
	DD	071c4b5b5H
	DD	0ccaa6666H
	DD	090d84848H
	DD	06050303H
	DD	0f701f6f6H
	DD	01c120e0eH
	DD	0c2a36161H
	DD	06a5f3535H
	DD	0aef95757H
	DD	069d0b9b9H
	DD	017918686H
	DD	09958c1c1H
	DD	03a271d1dH
	DD	027b99e9eH
	DD	0d938e1e1H
	DD	0eb13f8f8H
	DD	02bb39898H
	DD	022331111H
	DD	0d2bb6969H
	DD	0a970d9d9H
	DD	07898e8eH
	DD	033a79494H
	DD	02db69b9bH
	DD	03c221e1eH
	DD	015928787H
	DD	0c920e9e9H
	DD	08749ceceH
	DD	0aaff5555H
	DD	050782828H
	DD	0a57adfdfH
	DD	038f8c8cH
	DD	059f8a1a1H
	DD	09808989H
	DD	01a170d0dH
	DD	065dabfbfH
	DD	0d731e6e6H
	DD	084c64242H
	DD	0d0b86868H
	DD	082c34141H
	DD	029b09999H
	DD	05a772d2dH
	DD	01e110f0fH
	DD	07bcbb0b0H
	DD	0a8fc5454H
	DD	06dd6bbbbH
	DD	02c3a1616H
_t_fl	DD	063H
	DD	07cH
	DD	077H
	DD	07bH
	DD	0f2H
	DD	06bH
	DD	06fH
	DD	0c5H
	DD	030H
	DD	01H
	DD	067H
	DD	02bH
	DD	0feH
	DD	0d7H
	DD	0abH
	DD	076H
	DD	0caH
	DD	082H
	DD	0c9H
	DD	07dH
	DD	0faH
	DD	059H
	DD	047H
	DD	0f0H
	DD	0adH
	DD	0d4H
	DD	0a2H
	DD	0afH
	DD	09cH
	DD	0a4H
	DD	072H
	DD	0c0H
	DD	0b7H
	DD	0fdH
	DD	093H
	DD	026H
	DD	036H
	DD	03fH
	DD	0f7H
	DD	0ccH
	DD	034H
	DD	0a5H
	DD	0e5H
	DD	0f1H
	DD	071H
	DD	0d8H
	DD	031H
	DD	015H
	DD	04H
	DD	0c7H
	DD	023H
	DD	0c3H
	DD	018H
	DD	096H
	DD	05H
	DD	09aH
	DD	07H
	DD	012H
	DD	080H
	DD	0e2H
	DD	0ebH
	DD	027H
	DD	0b2H
	DD	075H
	DD	09H
	DD	083H
	DD	02cH
	DD	01aH
	DD	01bH
	DD	06eH
	DD	05aH
	DD	0a0H
	DD	052H
	DD	03bH
	DD	0d6H
	DD	0b3H
	DD	029H
	DD	0e3H
	DD	02fH
	DD	084H
	DD	053H
	DD	0d1H
	DD	00H
	DD	0edH
	DD	020H
	DD	0fcH
	DD	0b1H
	DD	05bH
	DD	06aH
	DD	0cbH
	DD	0beH
	DD	039H
	DD	04aH
	DD	04cH
	DD	058H
	DD	0cfH
	DD	0d0H
	DD	0efH
	DD	0aaH
	DD	0fbH
	DD	043H
	DD	04dH
	DD	033H
	DD	085H
	DD	045H
	DD	0f9H
	DD	02H
	DD	07fH
	DD	050H
	DD	03cH
	DD	09fH
	DD	0a8H
	DD	051H
	DD	0a3H
	DD	040H
	DD	08fH
	DD	092H
	DD	09dH
	DD	038H
	DD	0f5H
	DD	0bcH
	DD	0b6H
	DD	0daH
	DD	021H
	DD	010H
	DD	0ffH
	DD	0f3H
	DD	0d2H
	DD	0cdH
	DD	0cH
	DD	013H
	DD	0ecH
	DD	05fH
	DD	097H
	DD	044H
	DD	017H
	DD	0c4H
	DD	0a7H
	DD	07eH
	DD	03dH
	DD	064H
	DD	05dH
	DD	019H
	DD	073H
	DD	060H
	DD	081H
	DD	04fH
	DD	0dcH
	DD	022H
	DD	02aH
	DD	090H
	DD	088H
	DD	046H
	DD	0eeH
	DD	0b8H
	DD	014H
	DD	0deH
	DD	05eH
	DD	0bH
	DD	0dbH
	DD	0e0H
	DD	032H
	DD	03aH
	DD	0aH
	DD	049H
	DD	06H
	DD	024H
	DD	05cH
	DD	0c2H
	DD	0d3H
	DD	0acH
	DD	062H
	DD	091H
	DD	095H
	DD	0e4H
	DD	079H
	DD	0e7H
	DD	0c8H
	DD	037H
	DD	06dH
	DD	08dH
	DD	0d5H
	DD	04eH
	DD	0a9H
	DD	06cH
	DD	056H
	DD	0f4H
	DD	0eaH
	DD	065H
	DD	07aH
	DD	0aeH
	DD	08H
	DD	0baH
	DD	078H
	DD	025H
	DD	02eH
	DD	01cH
	DD	0a6H
	DD	0b4H
	DD	0c6H
	DD	0e8H
	DD	0ddH
	DD	074H
	DD	01fH
	DD	04bH
	DD	0bdH
	DD	08bH
	DD	08aH
	DD	070H
	DD	03eH
	DD	0b5H
	DD	066H
	DD	048H
	DD	03H
	DD	0f6H
	DD	0eH
	DD	061H
	DD	035H
	DD	057H
	DD	0b9H
	DD	086H
	DD	0c1H
	DD	01dH
	DD	09eH
	DD	0e1H
	DD	0f8H
	DD	098H
	DD	011H
	DD	069H
	DD	0d9H
	DD	08eH
	DD	094H
	DD	09bH
	DD	01eH
	DD	087H
	DD	0e9H
	DD	0ceH
	DD	055H
	DD	028H
	DD	0dfH
	DD	08cH
	DD	0a1H
	DD	089H
	DD	0dH
	DD	0bfH
	DD	0e6H
	DD	042H
	DD	068H
	DD	041H
	DD	099H
	DD	02dH
	DD	0fH
	DD	0b0H
	DD	054H
	DD	0bbH
	DD	016H
	DD	06300H
	DD	07c00H
	DD	07700H
	DD	07b00H
	DD	0f200H
	DD	06b00H
	DD	06f00H
	DD	0c500H
	DD	03000H
	DD	0100H
	DD	06700H
	DD	02b00H
	DD	0fe00H
	DD	0d700H
	DD	0ab00H
	DD	07600H
	DD	0ca00H
	DD	08200H
	DD	0c900H
	DD	07d00H
	DD	0fa00H
	DD	05900H
	DD	04700H
	DD	0f000H
	DD	0ad00H
	DD	0d400H
	DD	0a200H
	DD	0af00H
	DD	09c00H
	DD	0a400H
	DD	07200H
	DD	0c000H
	DD	0b700H
	DD	0fd00H
	DD	09300H
	DD	02600H
	DD	03600H
	DD	03f00H
	DD	0f700H
	DD	0cc00H
	DD	03400H
	DD	0a500H
	DD	0e500H
	DD	0f100H
	DD	07100H
	DD	0d800H
	DD	03100H
	DD	01500H
	DD	0400H
	DD	0c700H
	DD	02300H
	DD	0c300H
	DD	01800H
	DD	09600H
	DD	0500H
	DD	09a00H
	DD	0700H
	DD	01200H
	DD	08000H
	DD	0e200H
	DD	0eb00H
	DD	02700H
	DD	0b200H
	DD	07500H
	DD	0900H
	DD	08300H
	DD	02c00H
	DD	01a00H
	DD	01b00H
	DD	06e00H
	DD	05a00H
	DD	0a000H
	DD	05200H
	DD	03b00H
	DD	0d600H
	DD	0b300H
	DD	02900H
	DD	0e300H
	DD	02f00H
	DD	08400H
	DD	05300H
	DD	0d100H
	DD	00H
	DD	0ed00H
	DD	02000H
	DD	0fc00H
	DD	0b100H
	DD	05b00H
	DD	06a00H
	DD	0cb00H
	DD	0be00H
	DD	03900H
	DD	04a00H
	DD	04c00H
	DD	05800H
	DD	0cf00H
	DD	0d000H
	DD	0ef00H
	DD	0aa00H
	DD	0fb00H
	DD	04300H
	DD	04d00H
	DD	03300H
	DD	08500H
	DD	04500H
	DD	0f900H
	DD	0200H
	DD	07f00H
	DD	05000H
	DD	03c00H
	DD	09f00H
	DD	0a800H
	DD	05100H
	DD	0a300H
	DD	04000H
	DD	08f00H
	DD	09200H
	DD	09d00H
	DD	03800H
	DD	0f500H
	DD	0bc00H
	DD	0b600H
	DD	0da00H
	DD	02100H
	DD	01000H
	DD	0ff00H
	DD	0f300H
	DD	0d200H
	DD	0cd00H
	DD	0c00H
	DD	01300H
	DD	0ec00H
	DD	05f00H
	DD	09700H
	DD	04400H
	DD	01700H
	DD	0c400H
	DD	0a700H
	DD	07e00H
	DD	03d00H
	DD	06400H
	DD	05d00H
	DD	01900H
	DD	07300H
	DD	06000H
	DD	08100H
	DD	04f00H
	DD	0dc00H
	DD	02200H
	DD	02a00H
	DD	09000H
	DD	08800H
	DD	04600H
	DD	0ee00H
	DD	0b800H
	DD	01400H
	DD	0de00H
	DD	05e00H
	DD	0b00H
	DD	0db00H
	DD	0e000H
	DD	03200H
	DD	03a00H
	DD	0a00H
	DD	04900H
	DD	0600H
	DD	02400H
	DD	05c00H
	DD	0c200H
	DD	0d300H
	DD	0ac00H
	DD	06200H
	DD	09100H
	DD	09500H
	DD	0e400H
	DD	07900H
	DD	0e700H
	DD	0c800H
	DD	03700H
	DD	06d00H
	DD	08d00H
	DD	0d500H
	DD	04e00H
	DD	0a900H
	DD	06c00H
	DD	05600H
	DD	0f400H
	DD	0ea00H
	DD	06500H
	DD	07a00H
	DD	0ae00H
	DD	0800H
	DD	0ba00H
	DD	07800H
	DD	02500H
	DD	02e00H
	DD	01c00H
	DD	0a600H
	DD	0b400H
	DD	0c600H
	DD	0e800H
	DD	0dd00H
	DD	07400H
	DD	01f00H
	DD	04b00H
	DD	0bd00H
	DD	08b00H
	DD	08a00H
	DD	07000H
	DD	03e00H
	DD	0b500H
	DD	06600H
	DD	04800H
	DD	0300H
	DD	0f600H
	DD	0e00H
	DD	06100H
	DD	03500H
	DD	05700H
	DD	0b900H
	DD	08600H
	DD	0c100H
	DD	01d00H
	DD	09e00H
	DD	0e100H
	DD	0f800H
	DD	09800H
	DD	01100H
	DD	06900H
	DD	0d900H
	DD	08e00H
	DD	09400H
	DD	09b00H
	DD	01e00H
	DD	08700H
	DD	0e900H
	DD	0ce00H
	DD	05500H
	DD	02800H
	DD	0df00H
	DD	08c00H
	DD	0a100H
	DD	08900H
	DD	0d00H
	DD	0bf00H
	DD	0e600H
	DD	04200H
	DD	06800H
	DD	04100H
	DD	09900H
	DD	02d00H
	DD	0f00H
	DD	0b000H
	DD	05400H
	DD	0bb00H
	DD	01600H
	DD	0630000H
	DD	07c0000H
	DD	0770000H
	DD	07b0000H
	DD	0f20000H
	DD	06b0000H
	DD	06f0000H
	DD	0c50000H
	DD	0300000H
	DD	010000H
	DD	0670000H
	DD	02b0000H
	DD	0fe0000H
	DD	0d70000H
	DD	0ab0000H
	DD	0760000H
	DD	0ca0000H
	DD	0820000H
	DD	0c90000H
	DD	07d0000H
	DD	0fa0000H
	DD	0590000H
	DD	0470000H
	DD	0f00000H
	DD	0ad0000H
	DD	0d40000H
	DD	0a20000H
	DD	0af0000H
	DD	09c0000H
	DD	0a40000H
	DD	0720000H
	DD	0c00000H
	DD	0b70000H
	DD	0fd0000H
	DD	0930000H
	DD	0260000H
	DD	0360000H
	DD	03f0000H
	DD	0f70000H
	DD	0cc0000H
	DD	0340000H
	DD	0a50000H
	DD	0e50000H
	DD	0f10000H
	DD	0710000H
	DD	0d80000H
	DD	0310000H
	DD	0150000H
	DD	040000H
	DD	0c70000H
	DD	0230000H
	DD	0c30000H
	DD	0180000H
	DD	0960000H
	DD	050000H
	DD	09a0000H
	DD	070000H
	DD	0120000H
	DD	0800000H
	DD	0e20000H
	DD	0eb0000H
	DD	0270000H
	DD	0b20000H
	DD	0750000H
	DD	090000H
	DD	0830000H
	DD	02c0000H
	DD	01a0000H
	DD	01b0000H
	DD	06e0000H
	DD	05a0000H
	DD	0a00000H
	DD	0520000H
	DD	03b0000H
	DD	0d60000H
	DD	0b30000H
	DD	0290000H
	DD	0e30000H
	DD	02f0000H
	DD	0840000H
	DD	0530000H
	DD	0d10000H
	DD	00H
	DD	0ed0000H
	DD	0200000H
	DD	0fc0000H
	DD	0b10000H
	DD	05b0000H
	DD	06a0000H
	DD	0cb0000H
	DD	0be0000H
	DD	0390000H
	DD	04a0000H
	DD	04c0000H
	DD	0580000H
	DD	0cf0000H
	DD	0d00000H
	DD	0ef0000H
	DD	0aa0000H
	DD	0fb0000H
	DD	0430000H
	DD	04d0000H
	DD	0330000H
	DD	0850000H
	DD	0450000H
	DD	0f90000H
	DD	020000H
	DD	07f0000H
	DD	0500000H
	DD	03c0000H
	DD	09f0000H
	DD	0a80000H
	DD	0510000H
	DD	0a30000H
	DD	0400000H
	DD	08f0000H
	DD	0920000H
	DD	09d0000H
	DD	0380000H
	DD	0f50000H
	DD	0bc0000H
	DD	0b60000H
	DD	0da0000H
	DD	0210000H
	DD	0100000H
	DD	0ff0000H
	DD	0f30000H
	DD	0d20000H
	DD	0cd0000H
	DD	0c0000H
	DD	0130000H
	DD	0ec0000H
	DD	05f0000H
	DD	0970000H
	DD	0440000H
	DD	0170000H
	DD	0c40000H
	DD	0a70000H
	DD	07e0000H
	DD	03d0000H
	DD	0640000H
	DD	05d0000H
	DD	0190000H
	DD	0730000H
	DD	0600000H
	DD	0810000H
	DD	04f0000H
	DD	0dc0000H
	DD	0220000H
	DD	02a0000H
	DD	0900000H
	DD	0880000H
	DD	0460000H
	DD	0ee0000H
	DD	0b80000H
	DD	0140000H
	DD	0de0000H
	DD	05e0000H
	DD	0b0000H
	DD	0db0000H
	DD	0e00000H
	DD	0320000H
	DD	03a0000H
	DD	0a0000H
	DD	0490000H
	DD	060000H
	DD	0240000H
	DD	05c0000H
	DD	0c20000H
	DD	0d30000H
	DD	0ac0000H
	DD	0620000H
	DD	0910000H
	DD	0950000H
	DD	0e40000H
	DD	0790000H
	DD	0e70000H
	DD	0c80000H
	DD	0370000H
	DD	06d0000H
	DD	08d0000H
	DD	0d50000H
	DD	04e0000H
	DD	0a90000H
	DD	06c0000H
	DD	0560000H
	DD	0f40000H
	DD	0ea0000H
	DD	0650000H
	DD	07a0000H
	DD	0ae0000H
	DD	080000H
	DD	0ba0000H
	DD	0780000H
	DD	0250000H
	DD	02e0000H
	DD	01c0000H
	DD	0a60000H
	DD	0b40000H
	DD	0c60000H
	DD	0e80000H
	DD	0dd0000H
	DD	0740000H
	DD	01f0000H
	DD	04b0000H
	DD	0bd0000H
	DD	08b0000H
	DD	08a0000H
	DD	0700000H
	DD	03e0000H
	DD	0b50000H
	DD	0660000H
	DD	0480000H
	DD	030000H
	DD	0f60000H
	DD	0e0000H
	DD	0610000H
	DD	0350000H
	DD	0570000H
	DD	0b90000H
	DD	0860000H
	DD	0c10000H
	DD	01d0000H
	DD	09e0000H
	DD	0e10000H
	DD	0f80000H
	DD	0980000H
	DD	0110000H
	DD	0690000H
	DD	0d90000H
	DD	08e0000H
	DD	0940000H
	DD	09b0000H
	DD	01e0000H
	DD	0870000H
	DD	0e90000H
	DD	0ce0000H
	DD	0550000H
	DD	0280000H
	DD	0df0000H
	DD	08c0000H
	DD	0a10000H
	DD	0890000H
	DD	0d0000H
	DD	0bf0000H
	DD	0e60000H
	DD	0420000H
	DD	0680000H
	DD	0410000H
	DD	0990000H
	DD	02d0000H
	DD	0f0000H
	DD	0b00000H
	DD	0540000H
	DD	0bb0000H
	DD	0160000H
	DD	063000000H
	DD	07c000000H
	DD	077000000H
	DD	07b000000H
	DD	0f2000000H
	DD	06b000000H
	DD	06f000000H
	DD	0c5000000H
	DD	030000000H
	DD	01000000H
	DD	067000000H
	DD	02b000000H
	DD	0fe000000H
	DD	0d7000000H
	DD	0ab000000H
	DD	076000000H
	DD	0ca000000H
	DD	082000000H
	DD	0c9000000H
	DD	07d000000H
	DD	0fa000000H
	DD	059000000H
	DD	047000000H
	DD	0f0000000H
	DD	0ad000000H
	DD	0d4000000H
	DD	0a2000000H
	DD	0af000000H
	DD	09c000000H
	DD	0a4000000H
	DD	072000000H
	DD	0c0000000H
	DD	0b7000000H
	DD	0fd000000H
	DD	093000000H
	DD	026000000H
	DD	036000000H
	DD	03f000000H
	DD	0f7000000H
	DD	0cc000000H
	DD	034000000H
	DD	0a5000000H
	DD	0e5000000H
	DD	0f1000000H
	DD	071000000H
	DD	0d8000000H
	DD	031000000H
	DD	015000000H
	DD	04000000H
	DD	0c7000000H
	DD	023000000H
	DD	0c3000000H
	DD	018000000H
	DD	096000000H
	DD	05000000H
	DD	09a000000H
	DD	07000000H
	DD	012000000H
	DD	080000000H
	DD	0e2000000H
	DD	0eb000000H
	DD	027000000H
	DD	0b2000000H
	DD	075000000H
	DD	09000000H
	DD	083000000H
	DD	02c000000H
	DD	01a000000H
	DD	01b000000H
	DD	06e000000H
	DD	05a000000H
	DD	0a0000000H
	DD	052000000H
	DD	03b000000H
	DD	0d6000000H
	DD	0b3000000H
	DD	029000000H
	DD	0e3000000H
	DD	02f000000H
	DD	084000000H
	DD	053000000H
	DD	0d1000000H
	DD	00H
	DD	0ed000000H
	DD	020000000H
	DD	0fc000000H
	DD	0b1000000H
	DD	05b000000H
	DD	06a000000H
	DD	0cb000000H
	DD	0be000000H
	DD	039000000H
	DD	04a000000H
	DD	04c000000H
	DD	058000000H
	DD	0cf000000H
	DD	0d0000000H
	DD	0ef000000H
	DD	0aa000000H
	DD	0fb000000H
	DD	043000000H
	DD	04d000000H
	DD	033000000H
	DD	085000000H
	DD	045000000H
	DD	0f9000000H
	DD	02000000H
	DD	07f000000H
	DD	050000000H
	DD	03c000000H
	DD	09f000000H
	DD	0a8000000H
	DD	051000000H
	DD	0a3000000H
	DD	040000000H
	DD	08f000000H
	DD	092000000H
	DD	09d000000H
	DD	038000000H
	DD	0f5000000H
	DD	0bc000000H
	DD	0b6000000H
	DD	0da000000H
	DD	021000000H
	DD	010000000H
	DD	0ff000000H
	DD	0f3000000H
	DD	0d2000000H
	DD	0cd000000H
	DD	0c000000H
	DD	013000000H
	DD	0ec000000H
	DD	05f000000H
	DD	097000000H
	DD	044000000H
	DD	017000000H
	DD	0c4000000H
	DD	0a7000000H
	DD	07e000000H
	DD	03d000000H
	DD	064000000H
	DD	05d000000H
	DD	019000000H
	DD	073000000H
	DD	060000000H
	DD	081000000H
	DD	04f000000H
	DD	0dc000000H
	DD	022000000H
	DD	02a000000H
	DD	090000000H
	DD	088000000H
	DD	046000000H
	DD	0ee000000H
	DD	0b8000000H
	DD	014000000H
	DD	0de000000H
	DD	05e000000H
	DD	0b000000H
	DD	0db000000H
	DD	0e0000000H
	DD	032000000H
	DD	03a000000H
	DD	0a000000H
	DD	049000000H
	DD	06000000H
	DD	024000000H
	DD	05c000000H
	DD	0c2000000H
	DD	0d3000000H
	DD	0ac000000H
	DD	062000000H
	DD	091000000H
	DD	095000000H
	DD	0e4000000H
	DD	079000000H
	DD	0e7000000H
	DD	0c8000000H
	DD	037000000H
	DD	06d000000H
	DD	08d000000H
	DD	0d5000000H
	DD	04e000000H
	DD	0a9000000H
	DD	06c000000H
	DD	056000000H
	DD	0f4000000H
	DD	0ea000000H
	DD	065000000H
	DD	07a000000H
	DD	0ae000000H
	DD	08000000H
	DD	0ba000000H
	DD	078000000H
	DD	025000000H
	DD	02e000000H
	DD	01c000000H
	DD	0a6000000H
	DD	0b4000000H
	DD	0c6000000H
	DD	0e8000000H
	DD	0dd000000H
	DD	074000000H
	DD	01f000000H
	DD	04b000000H
	DD	0bd000000H
	DD	08b000000H
	DD	08a000000H
	DD	070000000H
	DD	03e000000H
	DD	0b5000000H
	DD	066000000H
	DD	048000000H
	DD	03000000H
	DD	0f6000000H
	DD	0e000000H
	DD	061000000H
	DD	035000000H
	DD	057000000H
	DD	0b9000000H
	DD	086000000H
	DD	0c1000000H
	DD	01d000000H
	DD	09e000000H
	DD	0e1000000H
	DD	0f8000000H
	DD	098000000H
	DD	011000000H
	DD	069000000H
	DD	0d9000000H
	DD	08e000000H
	DD	094000000H
	DD	09b000000H
	DD	01e000000H
	DD	087000000H
	DD	0e9000000H
	DD	0ce000000H
	DD	055000000H
	DD	028000000H
	DD	0df000000H
	DD	08c000000H
	DD	0a1000000H
	DD	089000000H
	DD	0d000000H
	DD	0bf000000H
	DD	0e6000000H
	DD	042000000H
	DD	068000000H
	DD	041000000H
	DD	099000000H
	DD	02d000000H
	DD	0f000000H
	DD	0b0000000H
	DD	054000000H
	DD	0bb000000H
	DD	016000000H
_t_in	DD	050a7f451H
	DD	05365417eH
	DD	0c3a4171aH
	DD	0965e273aH
	DD	0cb6bab3bH
	DD	0f1459d1fH
	DD	0ab58faacH
	DD	09303e34bH
	DD	055fa3020H
	DD	0f66d76adH
	DD	09176cc88H
	DD	0254c02f5H
	DD	0fcd7e54fH
	DD	0d7cb2ac5H
	DD	080443526H
	DD	08fa362b5H
	DD	0495ab1deH
	DD	0671bba25H
	DD	0980eea45H
	DD	0e1c0fe5dH
	DD	02752fc3H
	DD	012f04c81H
	DD	0a397468dH
	DD	0c6f9d36bH
	DD	0e75f8f03H
	DD	0959c9215H
	DD	0eb7a6dbfH
	DD	0da595295H
	DD	02d83bed4H
	DD	0d3217458H
	DD	02969e049H
	DD	044c8c98eH
	DD	06a89c275H
	DD	078798ef4H
	DD	06b3e5899H
	DD	0dd71b927H
	DD	0b64fe1beH
	DD	017ad88f0H
	DD	066ac20c9H
	DD	0b43ace7dH
	DD	0184adf63H
	DD	082311ae5H
	DD	060335197H
	DD	0457f5362H
	DD	0e07764b1H
	DD	084ae6bbbH
	DD	01ca081feH
	DD	0942b08f9H
	DD	058684870H
	DD	019fd458fH
	DD	0876cde94H
	DD	0b7f87b52H
	DD	023d373abH
	DD	0e2024b72H
	DD	0578f1fe3H
	DD	02aab5566H
	DD	0728ebb2H
	DD	03c2b52fH
	DD	09a7bc586H
	DD	0a50837d3H
	DD	0f2872830H
	DD	0b2a5bf23H
	DD	0ba6a0302H
	DD	05c8216edH
	DD	02b1ccf8aH
	DD	092b479a7H
	DD	0f0f207f3H
	DD	0a1e2694eH
	DD	0cdf4da65H
	DD	0d5be0506H
	DD	01f6234d1H
	DD	08afea6c4H
	DD	09d532e34H
	DD	0a055f3a2H
	DD	032e18a05H
	DD	075ebf6a4H
	DD	039ec830bH
	DD	0aaef6040H
	DD	069f715eH
	DD	051106ebdH
	DD	0f98a213eH
	DD	03d06dd96H
	DD	0ae053eddH
	DD	046bde64dH
	DD	0b58d5491H
	DD	055dc471H
	DD	06fd40604H
	DD	0ff155060H
	DD	024fb9819H
	DD	097e9bdd6H
	DD	0cc434089H
	DD	0779ed967H
	DD	0bd42e8b0H
	DD	0888b8907H
	DD	0385b19e7H
	DD	0dbeec879H
	DD	0470a7ca1H
	DD	0e90f427cH
	DD	0c91e84f8H
	DD	00H
	DD	083868009H
	DD	048ed2b32H
	DD	0ac70111eH
	DD	04e725a6cH
	DD	0fbff0efdH
	DD	05638850fH
	DD	01ed5ae3dH
	DD	027392d36H
	DD	064d90f0aH
	DD	021a65c68H
	DD	0d1545b9bH
	DD	03a2e3624H
	DD	0b1670a0cH
	DD	0fe75793H
	DD	0d296eeb4H
	DD	09e919b1bH
	DD	04fc5c080H
	DD	0a220dc61H
	DD	0694b775aH
	DD	0161a121cH
	DD	0aba93e2H
	DD	0e52aa0c0H
	DD	043e0223cH
	DD	01d171b12H
	DD	0b0d090eH
	DD	0adc78bf2H
	DD	0b9a8b62dH
	DD	0c8a91e14H
	DD	08519f157H
	DD	04c0775afH
	DD	0bbdd99eeH
	DD	0fd607fa3H
	DD	09f2601f7H
	DD	0bcf5725cH
	DD	0c53b6644H
	DD	0347efb5bH
	DD	07629438bH
	DD	0dcc623cbH
	DD	068fcedb6H
	DD	063f1e4b8H
	DD	0cadc31d7H
	DD	010856342H
	DD	040229713H
	DD	02011c684H
	DD	07d244a85H
	DD	0f83dbbd2H
	DD	01132f9aeH
	DD	06da129c7H
	DD	04b2f9e1dH
	DD	0f330b2dcH
	DD	0ec52860dH
	DD	0d0e3c177H
	DD	06c16b32bH
	DD	099b970a9H
	DD	0fa489411H
	DD	02264e947H
	DD	0c48cfca8H
	DD	01a3ff0a0H
	DD	0d82c7d56H
	DD	0ef903322H
	DD	0c74e4987H
	DD	0c1d138d9H
	DD	0fea2ca8cH
	DD	0360bd498H
	DD	0cf81f5a6H
	DD	028de7aa5H
	DD	0268eb7daH
	DD	0a4bfad3fH
	DD	0e49d3a2cH
	DD	0d927850H
	DD	09bcc5f6aH
	DD	062467e54H
	DD	0c2138df6H
	DD	0e8b8d890H
	DD	05ef7392eH
	DD	0f5afc382H
	DD	0be805d9fH
	DD	07c93d069H
	DD	0a92dd56fH
	DD	0b31225cfH
	DD	03b99acc8H
	DD	0a77d1810H
	DD	06e639ce8H
	DD	07bbb3bdbH
	DD	097826cdH
	DD	0f418596eH
	DD	01b79aecH
	DD	0a89a4f83H
	DD	0656e95e6H
	DD	07ee6ffaaH
	DD	08cfbc21H
	DD	0e6e815efH
	DD	0d99be7baH
	DD	0ce366f4aH
	DD	0d4099feaH
	DD	0d67cb029H
	DD	0afb2a431H
	DD	031233f2aH
	DD	03094a5c6H
	DD	0c066a235H
	DD	037bc4e74H
	DD	0a6ca82fcH
	DD	0b0d090e0H
	DD	015d8a733H
	DD	04a9804f1H
	DD	0f7daec41H
	DD	0e50cd7fH
	DD	02ff69117H
	DD	08dd64d76H
	DD	04db0ef43H
	DD	0544daaccH
	DD	0df0496e4H
	DD	0e3b5d19eH
	DD	01b886a4cH
	DD	0b81f2cc1H
	DD	07f516546H
	DD	04ea5e9dH
	DD	05d358c01H
	DD	0737487faH
	DD	02e410bfbH
	DD	05a1d67b3H
	DD	052d2db92H
	DD	0335610e9H
	DD	01347d66dH
	DD	08c61d79aH
	DD	07a0ca137H
	DD	08e14f859H
	DD	0893c13ebH
	DD	0ee27a9ceH
	DD	035c961b7H
	DD	0ede51ce1H
	DD	03cb1477aH
	DD	059dfd29cH
	DD	03f73f255H
	DD	079ce1418H
	DD	0bf37c773H
	DD	0eacdf753H
	DD	05baafd5fH
	DD	0146f3ddfH
	DD	086db4478H
	DD	081f3afcaH
	DD	03ec468b9H
	DD	02c342438H
	DD	05f40a3c2H
	DD	072c31d16H
	DD	0c25e2bcH
	DD	08b493c28H
	DD	041950dffH
	DD	07101a839H
	DD	0deb30c08H
	DD	09ce4b4d8H
	DD	090c15664H
	DD	06184cb7bH
	DD	070b632d5H
	DD	0745c6c48H
	DD	04257b8d0H
	DD	0a7f45150H
	DD	065417e53H
	DD	0a4171ac3H
	DD	05e273a96H
	DD	06bab3bcbH
	DD	0459d1ff1H
	DD	058faacabH
	DD	03e34b93H
	DD	0fa302055H
	DD	06d76adf6H
	DD	076cc8891H
	DD	04c02f525H
	DD	0d7e54ffcH
	DD	0cb2ac5d7H
	DD	044352680H
	DD	0a362b58fH
	DD	05ab1de49H
	DD	01bba2567H
	DD	0eea4598H
	DD	0c0fe5de1H
	DD	0752fc302H
	DD	0f04c8112H
	DD	097468da3H
	DD	0f9d36bc6H
	DD	05f8f03e7H
	DD	09c921595H
	DD	07a6dbfebH
	DD	0595295daH
	DD	083bed42dH
	DD	0217458d3H
	DD	069e04929H
	DD	0c8c98e44H
	DD	089c2756aH
	DD	0798ef478H
	DD	03e58996bH
	DD	071b927ddH
	DD	04fe1beb6H
	DD	0ad88f017H
	DD	0ac20c966H
	DD	03ace7db4H
	DD	04adf6318H
	DD	0311ae582H
	DD	033519760H
	DD	07f536245H
	DD	07764b1e0H
	DD	0ae6bbb84H
	DD	0a081fe1cH
	DD	02b08f994H
	DD	068487058H
	DD	0fd458f19H
	DD	06cde9487H
	DD	0f87b52b7H
	DD	0d373ab23H
	DD	024b72e2H
	DD	08f1fe357H
	DD	0ab55662aH
	DD	028ebb207H
	DD	0c2b52f03H
	DD	07bc5869aH
	DD	0837d3a5H
	DD	0872830f2H
	DD	0a5bf23b2H
	DD	06a0302baH
	DD	08216ed5cH
	DD	01ccf8a2bH
	DD	0b479a792H
	DD	0f207f3f0H
	DD	0e2694ea1H
	DD	0f4da65cdH
	DD	0be0506d5H
	DD	06234d11fH
	DD	0fea6c48aH
	DD	0532e349dH
	DD	055f3a2a0H
	DD	0e18a0532H
	DD	0ebf6a475H
	DD	0ec830b39H
	DD	0ef6040aaH
	DD	09f715e06H
	DD	0106ebd51H
	DD	08a213ef9H
	DD	06dd963dH
	DD	053eddaeH
	DD	0bde64d46H
	DD	08d5491b5H
	DD	05dc47105H
	DD	0d406046fH
	DD	0155060ffH
	DD	0fb981924H
	DD	0e9bdd697H
	DD	0434089ccH
	DD	09ed96777H
	DD	042e8b0bdH
	DD	08b890788H
	DD	05b19e738H
	DD	0eec879dbH
	DD	0a7ca147H
	DD	0f427ce9H
	DD	01e84f8c9H
	DD	00H
	DD	086800983H
	DD	0ed2b3248H
	DD	070111eacH
	DD	0725a6c4eH
	DD	0ff0efdfbH
	DD	038850f56H
	DD	0d5ae3d1eH
	DD	0392d3627H
	DD	0d90f0a64H
	DD	0a65c6821H
	DD	0545b9bd1H
	DD	02e36243aH
	DD	0670a0cb1H
	DD	0e757930fH
	DD	096eeb4d2H
	DD	0919b1b9eH
	DD	0c5c0804fH
	DD	020dc61a2H
	DD	04b775a69H
	DD	01a121c16H
	DD	0ba93e20aH
	DD	02aa0c0e5H
	DD	0e0223c43H
	DD	0171b121dH
	DD	0d090e0bH
	DD	0c78bf2adH
	DD	0a8b62db9H
	DD	0a91e14c8H
	DD	019f15785H
	DD	0775af4cH
	DD	0dd99eebbH
	DD	0607fa3fdH
	DD	02601f79fH
	DD	0f5725cbcH
	DD	03b6644c5H
	DD	07efb5b34H
	DD	029438b76H
	DD	0c623cbdcH
	DD	0fcedb668H
	DD	0f1e4b863H
	DD	0dc31d7caH
	DD	085634210H
	DD	022971340H
	DD	011c68420H
	DD	0244a857dH
	DD	03dbbd2f8H
	DD	032f9ae11H
	DD	0a129c76dH
	DD	02f9e1d4bH
	DD	030b2dcf3H
	DD	052860decH
	DD	0e3c177d0H
	DD	016b32b6cH
	DD	0b970a999H
	DD	0489411faH
	DD	064e94722H
	DD	08cfca8c4H
	DD	03ff0a01aH
	DD	02c7d56d8H
	DD	0903322efH
	DD	04e4987c7H
	DD	0d138d9c1H
	DD	0a2ca8cfeH
	DD	0bd49836H
	DD	081f5a6cfH
	DD	0de7aa528H
	DD	08eb7da26H
	DD	0bfad3fa4H
	DD	09d3a2ce4H
	DD	09278500dH
	DD	0cc5f6a9bH
	DD	0467e5462H
	DD	0138df6c2H
	DD	0b8d890e8H
	DD	0f7392e5eH
	DD	0afc382f5H
	DD	0805d9fbeH
	DD	093d0697cH
	DD	02dd56fa9H
	DD	01225cfb3H
	DD	099acc83bH
	DD	07d1810a7H
	DD	0639ce86eH
	DD	0bb3bdb7bH
	DD	07826cd09H
	DD	018596ef4H
	DD	0b79aec01H
	DD	09a4f83a8H
	DD	06e95e665H
	DD	0e6ffaa7eH
	DD	0cfbc2108H
	DD	0e815efe6H
	DD	09be7bad9H
	DD	0366f4aceH
	DD	099fead4H
	DD	07cb029d6H
	DD	0b2a431afH
	DD	0233f2a31H
	DD	094a5c630H
	DD	066a235c0H
	DD	0bc4e7437H
	DD	0ca82fca6H
	DD	0d090e0b0H
	DD	0d8a73315H
	DD	09804f14aH
	DD	0daec41f7H
	DD	050cd7f0eH
	DD	0f691172fH
	DD	0d64d768dH
	DD	0b0ef434dH
	DD	04daacc54H
	DD	0496e4dfH
	DD	0b5d19ee3H
	DD	0886a4c1bH
	DD	01f2cc1b8H
	DD	05165467fH
	DD	0ea5e9d04H
	DD	0358c015dH
	DD	07487fa73H
	DD	0410bfb2eH
	DD	01d67b35aH
	DD	0d2db9252H
	DD	05610e933H
	DD	047d66d13H
	DD	061d79a8cH
	DD	0ca1377aH
	DD	014f8598eH
	DD	03c13eb89H
	DD	027a9ceeeH
	DD	0c961b735H
	DD	0e51ce1edH
	DD	0b1477a3cH
	DD	0dfd29c59H
	DD	073f2553fH
	DD	0ce141879H
	DD	037c773bfH
	DD	0cdf753eaH
	DD	0aafd5f5bH
	DD	06f3ddf14H
	DD	0db447886H
	DD	0f3afca81H
	DD	0c468b93eH
	DD	03424382cH
	DD	040a3c25fH
	DD	0c31d1672H
	DD	025e2bc0cH
	DD	0493c288bH
	DD	0950dff41H
	DD	01a83971H
	DD	0b30c08deH
	DD	0e4b4d89cH
	DD	0c1566490H
	DD	084cb7b61H
	DD	0b632d570H
	DD	05c6c4874H
	DD	057b8d042H
	DD	0f45150a7H
	DD	0417e5365H
	DD	0171ac3a4H
	DD	0273a965eH
	DD	0ab3bcb6bH
	DD	09d1ff145H
	DD	0faacab58H
	DD	0e34b9303H
	DD	0302055faH
	DD	076adf66dH
	DD	0cc889176H
	DD	02f5254cH
	DD	0e54ffcd7H
	DD	02ac5d7cbH
	DD	035268044H
	DD	062b58fa3H
	DD	0b1de495aH
	DD	0ba25671bH
	DD	0ea45980eH
	DD	0fe5de1c0H
	DD	02fc30275H
	DD	04c8112f0H
	DD	0468da397H
	DD	0d36bc6f9H
	DD	08f03e75fH
	DD	09215959cH
	DD	06dbfeb7aH
	DD	05295da59H
	DD	0bed42d83H
	DD	07458d321H
	DD	0e0492969H
	DD	0c98e44c8H
	DD	0c2756a89H
	DD	08ef47879H
	DD	058996b3eH
	DD	0b927dd71H
	DD	0e1beb64fH
	DD	088f017adH
	DD	020c966acH
	DD	0ce7db43aH
	DD	0df63184aH
	DD	01ae58231H
	DD	051976033H
	DD	05362457fH
	DD	064b1e077H
	DD	06bbb84aeH
	DD	081fe1ca0H
	DD	08f9942bH
	DD	048705868H
	DD	0458f19fdH
	DD	0de94876cH
	DD	07b52b7f8H
	DD	073ab23d3H
	DD	04b72e202H
	DD	01fe3578fH
	DD	055662aabH
	DD	0ebb20728H
	DD	0b52f03c2H
	DD	0c5869a7bH
	DD	037d3a508H
	DD	02830f287H
	DD	0bf23b2a5H
	DD	0302ba6aH
	DD	016ed5c82H
	DD	0cf8a2b1cH
	DD	079a792b4H
	DD	07f3f0f2H
	DD	0694ea1e2H
	DD	0da65cdf4H
	DD	0506d5beH
	DD	034d11f62H
	DD	0a6c48afeH
	DD	02e349d53H
	DD	0f3a2a055H
	DD	08a0532e1H
	DD	0f6a475ebH
	DD	0830b39ecH
	DD	06040aaefH
	DD	0715e069fH
	DD	06ebd5110H
	DD	0213ef98aH
	DD	0dd963d06H
	DD	03eddae05H
	DD	0e64d46bdH
	DD	05491b58dH
	DD	0c471055dH
	DD	06046fd4H
	DD	05060ff15H
	DD	0981924fbH
	DD	0bdd697e9H
	DD	04089cc43H
	DD	0d967779eH
	DD	0e8b0bd42H
	DD	08907888bH
	DD	019e7385bH
	DD	0c879dbeeH
	DD	07ca1470aH
	DD	0427ce90fH
	DD	084f8c91eH
	DD	00H
	DD	080098386H
	DD	02b3248edH
	DD	0111eac70H
	DD	05a6c4e72H
	DD	0efdfbffH
	DD	0850f5638H
	DD	0ae3d1ed5H
	DD	02d362739H
	DD	0f0a64d9H
	DD	05c6821a6H
	DD	05b9bd154H
	DD	036243a2eH
	DD	0a0cb167H
	DD	057930fe7H
	DD	0eeb4d296H
	DD	09b1b9e91H
	DD	0c0804fc5H
	DD	0dc61a220H
	DD	0775a694bH
	DD	0121c161aH
	DD	093e20abaH
	DD	0a0c0e52aH
	DD	0223c43e0H
	DD	01b121d17H
	DD	090e0b0dH
	DD	08bf2adc7H
	DD	0b62db9a8H
	DD	01e14c8a9H
	DD	0f1578519H
	DD	075af4c07H
	DD	099eebbddH
	DD	07fa3fd60H
	DD	01f79f26H
	DD	0725cbcf5H
	DD	06644c53bH
	DD	0fb5b347eH
	DD	0438b7629H
	DD	023cbdcc6H
	DD	0edb668fcH
	DD	0e4b863f1H
	DD	031d7cadcH
	DD	063421085H
	DD	097134022H
	DD	0c6842011H
	DD	04a857d24H
	DD	0bbd2f83dH
	DD	0f9ae1132H
	DD	029c76da1H
	DD	09e1d4b2fH
	DD	0b2dcf330H
	DD	0860dec52H
	DD	0c177d0e3H
	DD	0b32b6c16H
	DD	070a999b9H
	DD	09411fa48H
	DD	0e9472264H
	DD	0fca8c48cH
	DD	0f0a01a3fH
	DD	07d56d82cH
	DD	03322ef90H
	DD	04987c74eH
	DD	038d9c1d1H
	DD	0ca8cfea2H
	DD	0d498360bH
	DD	0f5a6cf81H
	DD	07aa528deH
	DD	0b7da268eH
	DD	0ad3fa4bfH
	DD	03a2ce49dH
	DD	078500d92H
	DD	05f6a9bccH
	DD	07e546246H
	DD	08df6c213H
	DD	0d890e8b8H
	DD	0392e5ef7H
	DD	0c382f5afH
	DD	05d9fbe80H
	DD	0d0697c93H
	DD	0d56fa92dH
	DD	025cfb312H
	DD	0acc83b99H
	DD	01810a77dH
	DD	09ce86e63H
	DD	03bdb7bbbH
	DD	026cd0978H
	DD	0596ef418H
	DD	09aec01b7H
	DD	04f83a89aH
	DD	095e6656eH
	DD	0ffaa7ee6H
	DD	0bc2108cfH
	DD	015efe6e8H
	DD	0e7bad99bH
	DD	06f4ace36H
	DD	09fead409H
	DD	0b029d67cH
	DD	0a431afb2H
	DD	03f2a3123H
	DD	0a5c63094H
	DD	0a235c066H
	DD	04e7437bcH
	DD	082fca6caH
	DD	090e0b0d0H
	DD	0a73315d8H
	DD	04f14a98H
	DD	0ec41f7daH
	DD	0cd7f0e50H
	DD	091172ff6H
	DD	04d768dd6H
	DD	0ef434db0H
	DD	0aacc544dH
	DD	096e4df04H
	DD	0d19ee3b5H
	DD	06a4c1b88H
	DD	02cc1b81fH
	DD	065467f51H
	DD	05e9d04eaH
	DD	08c015d35H
	DD	087fa7374H
	DD	0bfb2e41H
	DD	067b35a1dH
	DD	0db9252d2H
	DD	010e93356H
	DD	0d66d1347H
	DD	0d79a8c61H
	DD	0a1377a0cH
	DD	0f8598e14H
	DD	013eb893cH
	DD	0a9ceee27H
	DD	061b735c9H
	DD	01ce1ede5H
	DD	0477a3cb1H
	DD	0d29c59dfH
	DD	0f2553f73H
	DD	0141879ceH
	DD	0c773bf37H
	DD	0f753eacdH
	DD	0fd5f5baaH
	DD	03ddf146fH
	DD	0447886dbH
	DD	0afca81f3H
	DD	068b93ec4H
	DD	024382c34H
	DD	0a3c25f40H
	DD	01d1672c3H
	DD	0e2bc0c25H
	DD	03c288b49H
	DD	0dff4195H
	DD	0a8397101H
	DD	0c08deb3H
	DD	0b4d89ce4H
	DD	0566490c1H
	DD	0cb7b6184H
	DD	032d570b6H
	DD	06c48745cH
	DD	0b8d04257H
	DD	05150a7f4H
	DD	07e536541H
	DD	01ac3a417H
	DD	03a965e27H
	DD	03bcb6babH
	DD	01ff1459dH
	DD	0acab58faH
	DD	04b9303e3H
	DD	02055fa30H
	DD	0adf66d76H
	DD	0889176ccH
	DD	0f5254c02H
	DD	04ffcd7e5H
	DD	0c5d7cb2aH
	DD	026804435H
	DD	0b58fa362H
	DD	0de495ab1H
	DD	025671bbaH
	DD	045980eeaH
	DD	05de1c0feH
	DD	0c302752fH
	DD	08112f04cH
	DD	08da39746H
	DD	06bc6f9d3H
	DD	03e75f8fH
	DD	015959c92H
	DD	0bfeb7a6dH
	DD	095da5952H
	DD	0d42d83beH
	DD	058d32174H
	DD	0492969e0H
	DD	08e44c8c9H
	DD	0756a89c2H
	DD	0f478798eH
	DD	0996b3e58H
	DD	027dd71b9H
	DD	0beb64fe1H
	DD	0f017ad88H
	DD	0c966ac20H
	DD	07db43aceH
	DD	063184adfH
	DD	0e582311aH
	DD	097603351H
	DD	062457f53H
	DD	0b1e07764H
	DD	0bb84ae6bH
	DD	0fe1ca081H
	DD	0f9942b08H
	DD	070586848H
	DD	08f19fd45H
	DD	094876cdeH
	DD	052b7f87bH
	DD	0ab23d373H
	DD	072e2024bH
	DD	0e3578f1fH
	DD	0662aab55H
	DD	0b20728ebH
	DD	02f03c2b5H
	DD	0869a7bc5H
	DD	0d3a50837H
	DD	030f28728H
	DD	023b2a5bfH
	DD	02ba6a03H
	DD	0ed5c8216H
	DD	08a2b1ccfH
	DD	0a792b479H
	DD	0f3f0f207H
	DD	04ea1e269H
	DD	065cdf4daH
	DD	06d5be05H
	DD	0d11f6234H
	DD	0c48afea6H
	DD	0349d532eH
	DD	0a2a055f3H
	DD	0532e18aH
	DD	0a475ebf6H
	DD	0b39ec83H
	DD	040aaef60H
	DD	05e069f71H
	DD	0bd51106eH
	DD	03ef98a21H
	DD	0963d06ddH
	DD	0ddae053eH
	DD	04d46bde6H
	DD	091b58d54H
	DD	071055dc4H
	DD	046fd406H
	DD	060ff1550H
	DD	01924fb98H
	DD	0d697e9bdH
	DD	089cc4340H
	DD	067779ed9H
	DD	0b0bd42e8H
	DD	07888b89H
	DD	0e7385b19H
	DD	079dbeec8H
	DD	0a1470a7cH
	DD	07ce90f42H
	DD	0f8c91e84H
	DD	00H
	DD	09838680H
	DD	03248ed2bH
	DD	01eac7011H
	DD	06c4e725aH
	DD	0fdfbff0eH
	DD	0f563885H
	DD	03d1ed5aeH
	DD	03627392dH
	DD	0a64d90fH
	DD	06821a65cH
	DD	09bd1545bH
	DD	0243a2e36H
	DD	0cb1670aH
	DD	0930fe757H
	DD	0b4d296eeH
	DD	01b9e919bH
	DD	0804fc5c0H
	DD	061a220dcH
	DD	05a694b77H
	DD	01c161a12H
	DD	0e20aba93H
	DD	0c0e52aa0H
	DD	03c43e022H
	DD	0121d171bH
	DD	0e0b0d09H
	DD	0f2adc78bH
	DD	02db9a8b6H
	DD	014c8a91eH
	DD	0578519f1H
	DD	0af4c0775H
	DD	0eebbdd99H
	DD	0a3fd607fH
	DD	0f79f2601H
	DD	05cbcf572H
	DD	044c53b66H
	DD	05b347efbH
	DD	08b762943H
	DD	0cbdcc623H
	DD	0b668fcedH
	DD	0b863f1e4H
	DD	0d7cadc31H
	DD	042108563H
	DD	013402297H
	DD	0842011c6H
	DD	0857d244aH
	DD	0d2f83dbbH
	DD	0ae1132f9H
	DD	0c76da129H
	DD	01d4b2f9eH
	DD	0dcf330b2H
	DD	0dec5286H
	DD	077d0e3c1H
	DD	02b6c16b3H
	DD	0a999b970H
	DD	011fa4894H
	DD	0472264e9H
	DD	0a8c48cfcH
	DD	0a01a3ff0H
	DD	056d82c7dH
	DD	022ef9033H
	DD	087c74e49H
	DD	0d9c1d138H
	DD	08cfea2caH
	DD	098360bd4H
	DD	0a6cf81f5H
	DD	0a528de7aH
	DD	0da268eb7H
	DD	03fa4bfadH
	DD	02ce49d3aH
	DD	0500d9278H
	DD	06a9bcc5fH
	DD	05462467eH
	DD	0f6c2138dH
	DD	090e8b8d8H
	DD	02e5ef739H
	DD	082f5afc3H
	DD	09fbe805dH
	DD	0697c93d0H
	DD	06fa92dd5H
	DD	0cfb31225H
	DD	0c83b99acH
	DD	010a77d18H
	DD	0e86e639cH
	DD	0db7bbb3bH
	DD	0cd097826H
	DD	06ef41859H
	DD	0ec01b79aH
	DD	083a89a4fH
	DD	0e6656e95H
	DD	0aa7ee6ffH
	DD	02108cfbcH
	DD	0efe6e815H
	DD	0bad99be7H
	DD	04ace366fH
	DD	0ead4099fH
	DD	029d67cb0H
	DD	031afb2a4H
	DD	02a31233fH
	DD	0c63094a5H
	DD	035c066a2H
	DD	07437bc4eH
	DD	0fca6ca82H
	DD	0e0b0d090H
	DD	03315d8a7H
	DD	0f14a9804H
	DD	041f7daecH
	DD	07f0e50cdH
	DD	0172ff691H
	DD	0768dd64dH
	DD	0434db0efH
	DD	0cc544daaH
	DD	0e4df0496H
	DD	09ee3b5d1H
	DD	04c1b886aH
	DD	0c1b81f2cH
	DD	0467f5165H
	DD	09d04ea5eH
	DD	015d358cH
	DD	0fa737487H
	DD	0fb2e410bH
	DD	0b35a1d67H
	DD	09252d2dbH
	DD	0e9335610H
	DD	06d1347d6H
	DD	09a8c61d7H
	DD	0377a0ca1H
	DD	0598e14f8H
	DD	0eb893c13H
	DD	0ceee27a9H
	DD	0b735c961H
	DD	0e1ede51cH
	DD	07a3cb147H
	DD	09c59dfd2H
	DD	0553f73f2H
	DD	01879ce14H
	DD	073bf37c7H
	DD	053eacdf7H
	DD	05f5baafdH
	DD	0df146f3dH
	DD	07886db44H
	DD	0ca81f3afH
	DD	0b93ec468H
	DD	0382c3424H
	DD	0c25f40a3H
	DD	01672c31dH
	DD	0bc0c25e2H
	DD	0288b493cH
	DD	0ff41950dH
	DD	0397101a8H
	DD	08deb30cH
	DD	0d89ce4b4H
	DD	06490c156H
	DD	07b6184cbH
	DD	0d570b632H
	DD	048745c6cH
	DD	0d04257b8H
_t_il	DD	052H
	DD	09H
	DD	06aH
	DD	0d5H
	DD	030H
	DD	036H
	DD	0a5H
	DD	038H
	DD	0bfH
	DD	040H
	DD	0a3H
	DD	09eH
	DD	081H
	DD	0f3H
	DD	0d7H
	DD	0fbH
	DD	07cH
	DD	0e3H
	DD	039H
	DD	082H
	DD	09bH
	DD	02fH
	DD	0ffH
	DD	087H
	DD	034H
	DD	08eH
	DD	043H
	DD	044H
	DD	0c4H
	DD	0deH
	DD	0e9H
	DD	0cbH
	DD	054H
	DD	07bH
	DD	094H
	DD	032H
	DD	0a6H
	DD	0c2H
	DD	023H
	DD	03dH
	DD	0eeH
	DD	04cH
	DD	095H
	DD	0bH
	DD	042H
	DD	0faH
	DD	0c3H
	DD	04eH
	DD	08H
	DD	02eH
	DD	0a1H
	DD	066H
	DD	028H
	DD	0d9H
	DD	024H
	DD	0b2H
	DD	076H
	DD	05bH
	DD	0a2H
	DD	049H
	DD	06dH
	DD	08bH
	DD	0d1H
	DD	025H
	DD	072H
	DD	0f8H
	DD	0f6H
	DD	064H
	DD	086H
	DD	068H
	DD	098H
	DD	016H
	DD	0d4H
	DD	0a4H
	DD	05cH
	DD	0ccH
	DD	05dH
	DD	065H
	DD	0b6H
	DD	092H
	DD	06cH
	DD	070H
	DD	048H
	DD	050H
	DD	0fdH
	DD	0edH
	DD	0b9H
	DD	0daH
	DD	05eH
	DD	015H
	DD	046H
	DD	057H
	DD	0a7H
	DD	08dH
	DD	09dH
	DD	084H
	DD	090H
	DD	0d8H
	DD	0abH
	DD	00H
	DD	08cH
	DD	0bcH
	DD	0d3H
	DD	0aH
	DD	0f7H
	DD	0e4H
	DD	058H
	DD	05H
	DD	0b8H
	DD	0b3H
	DD	045H
	DD	06H
	DD	0d0H
	DD	02cH
	DD	01eH
	DD	08fH
	DD	0caH
	DD	03fH
	DD	0fH
	DD	02H
	DD	0c1H
	DD	0afH
	DD	0bdH
	DD	03H
	DD	01H
	DD	013H
	DD	08aH
	DD	06bH
	DD	03aH
	DD	091H
	DD	011H
	DD	041H
	DD	04fH
	DD	067H
	DD	0dcH
	DD	0eaH
	DD	097H
	DD	0f2H
	DD	0cfH
	DD	0ceH
	DD	0f0H
	DD	0b4H
	DD	0e6H
	DD	073H
	DD	096H
	DD	0acH
	DD	074H
	DD	022H
	DD	0e7H
	DD	0adH
	DD	035H
	DD	085H
	DD	0e2H
	DD	0f9H
	DD	037H
	DD	0e8H
	DD	01cH
	DD	075H
	DD	0dfH
	DD	06eH
	DD	047H
	DD	0f1H
	DD	01aH
	DD	071H
	DD	01dH
	DD	029H
	DD	0c5H
	DD	089H
	DD	06fH
	DD	0b7H
	DD	062H
	DD	0eH
	DD	0aaH
	DD	018H
	DD	0beH
	DD	01bH
	DD	0fcH
	DD	056H
	DD	03eH
	DD	04bH
	DD	0c6H
	DD	0d2H
	DD	079H
	DD	020H
	DD	09aH
	DD	0dbH
	DD	0c0H
	DD	0feH
	DD	078H
	DD	0cdH
	DD	05aH
	DD	0f4H
	DD	01fH
	DD	0ddH
	DD	0a8H
	DD	033H
	DD	088H
	DD	07H
	DD	0c7H
	DD	031H
	DD	0b1H
	DD	012H
	DD	010H
	DD	059H
	DD	027H
	DD	080H
	DD	0ecH
	DD	05fH
	DD	060H
	DD	051H
	DD	07fH
	DD	0a9H
	DD	019H
	DD	0b5H
	DD	04aH
	DD	0dH
	DD	02dH
	DD	0e5H
	DD	07aH
	DD	09fH
	DD	093H
	DD	0c9H
	DD	09cH
	DD	0efH
	DD	0a0H
	DD	0e0H
	DD	03bH
	DD	04dH
	DD	0aeH
	DD	02aH
	DD	0f5H
	DD	0b0H
	DD	0c8H
	DD	0ebH
	DD	0bbH
	DD	03cH
	DD	083H
	DD	053H
	DD	099H
	DD	061H
	DD	017H
	DD	02bH
	DD	04H
	DD	07eH
	DD	0baH
	DD	077H
	DD	0d6H
	DD	026H
	DD	0e1H
	DD	069H
	DD	014H
	DD	063H
	DD	055H
	DD	021H
	DD	0cH
	DD	07dH
	DD	05200H
	DD	0900H
	DD	06a00H
	DD	0d500H
	DD	03000H
	DD	03600H
	DD	0a500H
	DD	03800H
	DD	0bf00H
	DD	04000H
	DD	0a300H
	DD	09e00H
	DD	08100H
	DD	0f300H
	DD	0d700H
	DD	0fb00H
	DD	07c00H
	DD	0e300H
	DD	03900H
	DD	08200H
	DD	09b00H
	DD	02f00H
	DD	0ff00H
	DD	08700H
	DD	03400H
	DD	08e00H
	DD	04300H
	DD	04400H
	DD	0c400H
	DD	0de00H
	DD	0e900H
	DD	0cb00H
	DD	05400H
	DD	07b00H
	DD	09400H
	DD	03200H
	DD	0a600H
	DD	0c200H
	DD	02300H
	DD	03d00H
	DD	0ee00H
	DD	04c00H
	DD	09500H
	DD	0b00H
	DD	04200H
	DD	0fa00H
	DD	0c300H
	DD	04e00H
	DD	0800H
	DD	02e00H
	DD	0a100H
	DD	06600H
	DD	02800H
	DD	0d900H
	DD	02400H
	DD	0b200H
	DD	07600H
	DD	05b00H
	DD	0a200H
	DD	04900H
	DD	06d00H
	DD	08b00H
	DD	0d100H
	DD	02500H
	DD	07200H
	DD	0f800H
	DD	0f600H
	DD	06400H
	DD	08600H
	DD	06800H
	DD	09800H
	DD	01600H
	DD	0d400H
	DD	0a400H
	DD	05c00H
	DD	0cc00H
	DD	05d00H
	DD	06500H
	DD	0b600H
	DD	09200H
	DD	06c00H
	DD	07000H
	DD	04800H
	DD	05000H
	DD	0fd00H
	DD	0ed00H
	DD	0b900H
	DD	0da00H
	DD	05e00H
	DD	01500H
	DD	04600H
	DD	05700H
	DD	0a700H
	DD	08d00H
	DD	09d00H
	DD	08400H
	DD	09000H
	DD	0d800H
	DD	0ab00H
	DD	00H
	DD	08c00H
	DD	0bc00H
	DD	0d300H
	DD	0a00H
	DD	0f700H
	DD	0e400H
	DD	05800H
	DD	0500H
	DD	0b800H
	DD	0b300H
	DD	04500H
	DD	0600H
	DD	0d000H
	DD	02c00H
	DD	01e00H
	DD	08f00H
	DD	0ca00H
	DD	03f00H
	DD	0f00H
	DD	0200H
	DD	0c100H
	DD	0af00H
	DD	0bd00H
	DD	0300H
	DD	0100H
	DD	01300H
	DD	08a00H
	DD	06b00H
	DD	03a00H
	DD	09100H
	DD	01100H
	DD	04100H
	DD	04f00H
	DD	06700H
	DD	0dc00H
	DD	0ea00H
	DD	09700H
	DD	0f200H
	DD	0cf00H
	DD	0ce00H
	DD	0f000H
	DD	0b400H
	DD	0e600H
	DD	07300H
	DD	09600H
	DD	0ac00H
	DD	07400H
	DD	02200H
	DD	0e700H
	DD	0ad00H
	DD	03500H
	DD	08500H
	DD	0e200H
	DD	0f900H
	DD	03700H
	DD	0e800H
	DD	01c00H
	DD	07500H
	DD	0df00H
	DD	06e00H
	DD	04700H
	DD	0f100H
	DD	01a00H
	DD	07100H
	DD	01d00H
	DD	02900H
	DD	0c500H
	DD	08900H
	DD	06f00H
	DD	0b700H
	DD	06200H
	DD	0e00H
	DD	0aa00H
	DD	01800H
	DD	0be00H
	DD	01b00H
	DD	0fc00H
	DD	05600H
	DD	03e00H
	DD	04b00H
	DD	0c600H
	DD	0d200H
	DD	07900H
	DD	02000H
	DD	09a00H
	DD	0db00H
	DD	0c000H
	DD	0fe00H
	DD	07800H
	DD	0cd00H
	DD	05a00H
	DD	0f400H
	DD	01f00H
	DD	0dd00H
	DD	0a800H
	DD	03300H
	DD	08800H
	DD	0700H
	DD	0c700H
	DD	03100H
	DD	0b100H
	DD	01200H
	DD	01000H
	DD	05900H
	DD	02700H
	DD	08000H
	DD	0ec00H
	DD	05f00H
	DD	06000H
	DD	05100H
	DD	07f00H
	DD	0a900H
	DD	01900H
	DD	0b500H
	DD	04a00H
	DD	0d00H
	DD	02d00H
	DD	0e500H
	DD	07a00H
	DD	09f00H
	DD	09300H
	DD	0c900H
	DD	09c00H
	DD	0ef00H
	DD	0a000H
	DD	0e000H
	DD	03b00H
	DD	04d00H
	DD	0ae00H
	DD	02a00H
	DD	0f500H
	DD	0b000H
	DD	0c800H
	DD	0eb00H
	DD	0bb00H
	DD	03c00H
	DD	08300H
	DD	05300H
	DD	09900H
	DD	06100H
	DD	01700H
	DD	02b00H
	DD	0400H
	DD	07e00H
	DD	0ba00H
	DD	07700H
	DD	0d600H
	DD	02600H
	DD	0e100H
	DD	06900H
	DD	01400H
	DD	06300H
	DD	05500H
	DD	02100H
	DD	0c00H
	DD	07d00H
	DD	0520000H
	DD	090000H
	DD	06a0000H
	DD	0d50000H
	DD	0300000H
	DD	0360000H
	DD	0a50000H
	DD	0380000H
	DD	0bf0000H
	DD	0400000H
	DD	0a30000H
	DD	09e0000H
	DD	0810000H
	DD	0f30000H
	DD	0d70000H
	DD	0fb0000H
	DD	07c0000H
	DD	0e30000H
	DD	0390000H
	DD	0820000H
	DD	09b0000H
	DD	02f0000H
	DD	0ff0000H
	DD	0870000H
	DD	0340000H
	DD	08e0000H
	DD	0430000H
	DD	0440000H
	DD	0c40000H
	DD	0de0000H
	DD	0e90000H
	DD	0cb0000H
	DD	0540000H
	DD	07b0000H
	DD	0940000H
	DD	0320000H
	DD	0a60000H
	DD	0c20000H
	DD	0230000H
	DD	03d0000H
	DD	0ee0000H
	DD	04c0000H
	DD	0950000H
	DD	0b0000H
	DD	0420000H
	DD	0fa0000H
	DD	0c30000H
	DD	04e0000H
	DD	080000H
	DD	02e0000H
	DD	0a10000H
	DD	0660000H
	DD	0280000H
	DD	0d90000H
	DD	0240000H
	DD	0b20000H
	DD	0760000H
	DD	05b0000H
	DD	0a20000H
	DD	0490000H
	DD	06d0000H
	DD	08b0000H
	DD	0d10000H
	DD	0250000H
	DD	0720000H
	DD	0f80000H
	DD	0f60000H
	DD	0640000H
	DD	0860000H
	DD	0680000H
	DD	0980000H
	DD	0160000H
	DD	0d40000H
	DD	0a40000H
	DD	05c0000H
	DD	0cc0000H
	DD	05d0000H
	DD	0650000H
	DD	0b60000H
	DD	0920000H
	DD	06c0000H
	DD	0700000H
	DD	0480000H
	DD	0500000H
	DD	0fd0000H
	DD	0ed0000H
	DD	0b90000H
	DD	0da0000H
	DD	05e0000H
	DD	0150000H
	DD	0460000H
	DD	0570000H
	DD	0a70000H
	DD	08d0000H
	DD	09d0000H
	DD	0840000H
	DD	0900000H
	DD	0d80000H
	DD	0ab0000H
	DD	00H
	DD	08c0000H
	DD	0bc0000H
	DD	0d30000H
	DD	0a0000H
	DD	0f70000H
	DD	0e40000H
	DD	0580000H
	DD	050000H
	DD	0b80000H
	DD	0b30000H
	DD	0450000H
	DD	060000H
	DD	0d00000H
	DD	02c0000H
	DD	01e0000H
	DD	08f0000H
	DD	0ca0000H
	DD	03f0000H
	DD	0f0000H
	DD	020000H
	DD	0c10000H
	DD	0af0000H
	DD	0bd0000H
	DD	030000H
	DD	010000H
	DD	0130000H
	DD	08a0000H
	DD	06b0000H
	DD	03a0000H
	DD	0910000H
	DD	0110000H
	DD	0410000H
	DD	04f0000H
	DD	0670000H
	DD	0dc0000H
	DD	0ea0000H
	DD	0970000H
	DD	0f20000H
	DD	0cf0000H
	DD	0ce0000H
	DD	0f00000H
	DD	0b40000H
	DD	0e60000H
	DD	0730000H
	DD	0960000H
	DD	0ac0000H
	DD	0740000H
	DD	0220000H
	DD	0e70000H
	DD	0ad0000H
	DD	0350000H
	DD	0850000H
	DD	0e20000H
	DD	0f90000H
	DD	0370000H
	DD	0e80000H
	DD	01c0000H
	DD	0750000H
	DD	0df0000H
	DD	06e0000H
	DD	0470000H
	DD	0f10000H
	DD	01a0000H
	DD	0710000H
	DD	01d0000H
	DD	0290000H
	DD	0c50000H
	DD	0890000H
	DD	06f0000H
	DD	0b70000H
	DD	0620000H
	DD	0e0000H
	DD	0aa0000H
	DD	0180000H
	DD	0be0000H
	DD	01b0000H
	DD	0fc0000H
	DD	0560000H
	DD	03e0000H
	DD	04b0000H
	DD	0c60000H
	DD	0d20000H
	DD	0790000H
	DD	0200000H
	DD	09a0000H
	DD	0db0000H
	DD	0c00000H
	DD	0fe0000H
	DD	0780000H
	DD	0cd0000H
	DD	05a0000H
	DD	0f40000H
	DD	01f0000H
	DD	0dd0000H
	DD	0a80000H
	DD	0330000H
	DD	0880000H
	DD	070000H
	DD	0c70000H
	DD	0310000H
	DD	0b10000H
	DD	0120000H
	DD	0100000H
	DD	0590000H
	DD	0270000H
	DD	0800000H
	DD	0ec0000H
	DD	05f0000H
	DD	0600000H
	DD	0510000H
	DD	07f0000H
	DD	0a90000H
	DD	0190000H
	DD	0b50000H
	DD	04a0000H
	DD	0d0000H
	DD	02d0000H
	DD	0e50000H
	DD	07a0000H
	DD	09f0000H
	DD	0930000H
	DD	0c90000H
	DD	09c0000H
	DD	0ef0000H
	DD	0a00000H
	DD	0e00000H
	DD	03b0000H
	DD	04d0000H
	DD	0ae0000H
	DD	02a0000H
	DD	0f50000H
	DD	0b00000H
	DD	0c80000H
	DD	0eb0000H
	DD	0bb0000H
	DD	03c0000H
	DD	0830000H
	DD	0530000H
	DD	0990000H
	DD	0610000H
	DD	0170000H
	DD	02b0000H
	DD	040000H
	DD	07e0000H
	DD	0ba0000H
	DD	0770000H
	DD	0d60000H
	DD	0260000H
	DD	0e10000H
	DD	0690000H
	DD	0140000H
	DD	0630000H
	DD	0550000H
	DD	0210000H
	DD	0c0000H
	DD	07d0000H
	DD	052000000H
	DD	09000000H
	DD	06a000000H
	DD	0d5000000H
	DD	030000000H
	DD	036000000H
	DD	0a5000000H
	DD	038000000H
	DD	0bf000000H
	DD	040000000H
	DD	0a3000000H
	DD	09e000000H
	DD	081000000H
	DD	0f3000000H
	DD	0d7000000H
	DD	0fb000000H
	DD	07c000000H
	DD	0e3000000H
	DD	039000000H
	DD	082000000H
	DD	09b000000H
	DD	02f000000H
	DD	0ff000000H
	DD	087000000H
	DD	034000000H
	DD	08e000000H
	DD	043000000H
	DD	044000000H
	DD	0c4000000H
	DD	0de000000H
	DD	0e9000000H
	DD	0cb000000H
	DD	054000000H
	DD	07b000000H
	DD	094000000H
	DD	032000000H
	DD	0a6000000H
	DD	0c2000000H
	DD	023000000H
	DD	03d000000H
	DD	0ee000000H
	DD	04c000000H
	DD	095000000H
	DD	0b000000H
	DD	042000000H
	DD	0fa000000H
	DD	0c3000000H
	DD	04e000000H
	DD	08000000H
	DD	02e000000H
	DD	0a1000000H
	DD	066000000H
	DD	028000000H
	DD	0d9000000H
	DD	024000000H
	DD	0b2000000H
	DD	076000000H
	DD	05b000000H
	DD	0a2000000H
	DD	049000000H
	DD	06d000000H
	DD	08b000000H
	DD	0d1000000H
	DD	025000000H
	DD	072000000H
	DD	0f8000000H
	DD	0f6000000H
	DD	064000000H
	DD	086000000H
	DD	068000000H
	DD	098000000H
	DD	016000000H
	DD	0d4000000H
	DD	0a4000000H
	DD	05c000000H
	DD	0cc000000H
	DD	05d000000H
	DD	065000000H
	DD	0b6000000H
	DD	092000000H
	DD	06c000000H
	DD	070000000H
	DD	048000000H
	DD	050000000H
	DD	0fd000000H
	DD	0ed000000H
	DD	0b9000000H
	DD	0da000000H
	DD	05e000000H
	DD	015000000H
	DD	046000000H
	DD	057000000H
	DD	0a7000000H
	DD	08d000000H
	DD	09d000000H
	DD	084000000H
	DD	090000000H
	DD	0d8000000H
	DD	0ab000000H
	DD	00H
	DD	08c000000H
	DD	0bc000000H
	DD	0d3000000H
	DD	0a000000H
	DD	0f7000000H
	DD	0e4000000H
	DD	058000000H
	DD	05000000H
	DD	0b8000000H
	DD	0b3000000H
	DD	045000000H
	DD	06000000H
	DD	0d0000000H
	DD	02c000000H
	DD	01e000000H
	DD	08f000000H
	DD	0ca000000H
	DD	03f000000H
	DD	0f000000H
	DD	02000000H
	DD	0c1000000H
	DD	0af000000H
	DD	0bd000000H
	DD	03000000H
	DD	01000000H
	DD	013000000H
	DD	08a000000H
	DD	06b000000H
	DD	03a000000H
	DD	091000000H
	DD	011000000H
	DD	041000000H
	DD	04f000000H
	DD	067000000H
	DD	0dc000000H
	DD	0ea000000H
	DD	097000000H
	DD	0f2000000H
	DD	0cf000000H
	DD	0ce000000H
	DD	0f0000000H
	DD	0b4000000H
	DD	0e6000000H
	DD	073000000H
	DD	096000000H
	DD	0ac000000H
	DD	074000000H
	DD	022000000H
	DD	0e7000000H
	DD	0ad000000H
	DD	035000000H
	DD	085000000H
	DD	0e2000000H
	DD	0f9000000H
	DD	037000000H
	DD	0e8000000H
	DD	01c000000H
	DD	075000000H
	DD	0df000000H
	DD	06e000000H
	DD	047000000H
	DD	0f1000000H
	DD	01a000000H
	DD	071000000H
	DD	01d000000H
	DD	029000000H
	DD	0c5000000H
	DD	089000000H
	DD	06f000000H
	DD	0b7000000H
	DD	062000000H
	DD	0e000000H
	DD	0aa000000H
	DD	018000000H
	DD	0be000000H
	DD	01b000000H
	DD	0fc000000H
	DD	056000000H
	DD	03e000000H
	DD	04b000000H
	DD	0c6000000H
	DD	0d2000000H
	DD	079000000H
	DD	020000000H
	DD	09a000000H
	DD	0db000000H
	DD	0c0000000H
	DD	0fe000000H
	DD	078000000H
	DD	0cd000000H
	DD	05a000000H
	DD	0f4000000H
	DD	01f000000H
	DD	0dd000000H
	DD	0a8000000H
	DD	033000000H
	DD	088000000H
	DD	07000000H
	DD	0c7000000H
	DD	031000000H
	DD	0b1000000H
	DD	012000000H
	DD	010000000H
	DD	059000000H
	DD	027000000H
	DD	080000000H
	DD	0ec000000H
	DD	05f000000H
	DD	060000000H
	DD	051000000H
	DD	07f000000H
	DD	0a9000000H
	DD	019000000H
	DD	0b5000000H
	DD	04a000000H
	DD	0d000000H
	DD	02d000000H
	DD	0e5000000H
	DD	07a000000H
	DD	09f000000H
	DD	093000000H
	DD	0c9000000H
	DD	09c000000H
	DD	0ef000000H
	DD	0a0000000H
	DD	0e0000000H
	DD	03b000000H
	DD	04d000000H
	DD	0ae000000H
	DD	02a000000H
	DD	0f5000000H
	DD	0b0000000H
	DD	0c8000000H
	DD	0eb000000H
	DD	0bb000000H
	DD	03c000000H
	DD	083000000H
	DD	053000000H
	DD	099000000H
	DD	061000000H
	DD	017000000H
	DD	02b000000H
	DD	04000000H
	DD	07e000000H
	DD	0ba000000H
	DD	077000000H
	DD	0d6000000H
	DD	026000000H
	DD	0e1000000H
	DD	069000000H
	DD	014000000H
	DD	063000000H
	DD	055000000H
	DD	021000000H
	DD	0c000000H
	DD	07d000000H
_t_im	DD	00H
	DD	0b0d090eH
	DD	0161a121cH
	DD	01d171b12H
	DD	02c342438H
	DD	027392d36H
	DD	03a2e3624H
	DD	031233f2aH
	DD	058684870H
	DD	05365417eH
	DD	04e725a6cH
	DD	0457f5362H
	DD	0745c6c48H
	DD	07f516546H
	DD	062467e54H
	DD	0694b775aH
	DD	0b0d090e0H
	DD	0bbdd99eeH
	DD	0a6ca82fcH
	DD	0adc78bf2H
	DD	09ce4b4d8H
	DD	097e9bdd6H
	DD	08afea6c4H
	DD	081f3afcaH
	DD	0e8b8d890H
	DD	0e3b5d19eH
	DD	0fea2ca8cH
	DD	0f5afc382H
	DD	0c48cfca8H
	DD	0cf81f5a6H
	DD	0d296eeb4H
	DD	0d99be7baH
	DD	07bbb3bdbH
	DD	070b632d5H
	DD	06da129c7H
	DD	066ac20c9H
	DD	0578f1fe3H
	DD	05c8216edH
	DD	041950dffH
	DD	04a9804f1H
	DD	023d373abH
	DD	028de7aa5H
	DD	035c961b7H
	DD	03ec468b9H
	DD	0fe75793H
	DD	04ea5e9dH
	DD	019fd458fH
	DD	012f04c81H
	DD	0cb6bab3bH
	DD	0c066a235H
	DD	0dd71b927H
	DD	0d67cb029H
	DD	0e75f8f03H
	DD	0ec52860dH
	DD	0f1459d1fH
	DD	0fa489411H
	DD	09303e34bH
	DD	0980eea45H
	DD	08519f157H
	DD	08e14f859H
	DD	0bf37c773H
	DD	0b43ace7dH
	DD	0a92dd56fH
	DD	0a220dc61H
	DD	0f66d76adH
	DD	0fd607fa3H
	DD	0e07764b1H
	DD	0eb7a6dbfH
	DD	0da595295H
	DD	0d1545b9bH
	DD	0cc434089H
	DD	0c74e4987H
	DD	0ae053eddH
	DD	0a50837d3H
	DD	0b81f2cc1H
	DD	0b31225cfH
	DD	082311ae5H
	DD	0893c13ebH
	DD	0942b08f9H
	DD	09f2601f7H
	DD	046bde64dH
	DD	04db0ef43H
	DD	050a7f451H
	DD	05baafd5fH
	DD	06a89c275H
	DD	06184cb7bH
	DD	07c93d069H
	DD	0779ed967H
	DD	01ed5ae3dH
	DD	015d8a733H
	DD	08cfbc21H
	DD	03c2b52fH
	DD	032e18a05H
	DD	039ec830bH
	DD	024fb9819H
	DD	02ff69117H
	DD	08dd64d76H
	DD	086db4478H
	DD	09bcc5f6aH
	DD	090c15664H
	DD	0a1e2694eH
	DD	0aaef6040H
	DD	0b7f87b52H
	DD	0bcf5725cH
	DD	0d5be0506H
	DD	0deb30c08H
	DD	0c3a4171aH
	DD	0c8a91e14H
	DD	0f98a213eH
	DD	0f2872830H
	DD	0ef903322H
	DD	0e49d3a2cH
	DD	03d06dd96H
	DD	0360bd498H
	DD	02b1ccf8aH
	DD	02011c684H
	DD	01132f9aeH
	DD	01a3ff0a0H
	DD	0728ebb2H
	DD	0c25e2bcH
	DD	0656e95e6H
	DD	06e639ce8H
	DD	0737487faH
	DD	078798ef4H
	DD	0495ab1deH
	DD	04257b8d0H
	DD	05f40a3c2H
	DD	0544daaccH
	DD	0f7daec41H
	DD	0fcd7e54fH
	DD	0e1c0fe5dH
	DD	0eacdf753H
	DD	0dbeec879H
	DD	0d0e3c177H
	DD	0cdf4da65H
	DD	0c6f9d36bH
	DD	0afb2a431H
	DD	0a4bfad3fH
	DD	0b9a8b62dH
	DD	0b2a5bf23H
	DD	083868009H
	DD	0888b8907H
	DD	0959c9215H
	DD	09e919b1bH
	DD	0470a7ca1H
	DD	04c0775afH
	DD	051106ebdH
	DD	05a1d67b3H
	DD	06b3e5899H
	DD	060335197H
	DD	07d244a85H
	DD	07629438bH
	DD	01f6234d1H
	DD	0146f3ddfH
	DD	097826cdH
	DD	02752fc3H
	DD	0335610e9H
	DD	0385b19e7H
	DD	0254c02f5H
	DD	02e410bfbH
	DD	08c61d79aH
	DD	0876cde94H
	DD	09a7bc586H
	DD	09176cc88H
	DD	0a055f3a2H
	DD	0ab58faacH
	DD	0b64fe1beH
	DD	0bd42e8b0H
	DD	0d4099feaH
	DD	0df0496e4H
	DD	0c2138df6H
	DD	0c91e84f8H
	DD	0f83dbbd2H
	DD	0f330b2dcH
	DD	0ee27a9ceH
	DD	0e52aa0c0H
	DD	03cb1477aH
	DD	037bc4e74H
	DD	02aab5566H
	DD	021a65c68H
	DD	010856342H
	DD	01b886a4cH
	DD	069f715eH
	DD	0d927850H
	DD	064d90f0aH
	DD	06fd40604H
	DD	072c31d16H
	DD	079ce1418H
	DD	048ed2b32H
	DD	043e0223cH
	DD	05ef7392eH
	DD	055fa3020H
	DD	01b79aecH
	DD	0aba93e2H
	DD	017ad88f0H
	DD	01ca081feH
	DD	02d83bed4H
	DD	0268eb7daH
	DD	03b99acc8H
	DD	03094a5c6H
	DD	059dfd29cH
	DD	052d2db92H
	DD	04fc5c080H
	DD	044c8c98eH
	DD	075ebf6a4H
	DD	07ee6ffaaH
	DD	063f1e4b8H
	DD	068fcedb6H
	DD	0b1670a0cH
	DD	0ba6a0302H
	DD	0a77d1810H
	DD	0ac70111eH
	DD	09d532e34H
	DD	0965e273aH
	DD	08b493c28H
	DD	080443526H
	DD	0e90f427cH
	DD	0e2024b72H
	DD	0ff155060H
	DD	0f418596eH
	DD	0c53b6644H
	DD	0ce366f4aH
	DD	0d3217458H
	DD	0d82c7d56H
	DD	07a0ca137H
	DD	07101a839H
	DD	06c16b32bH
	DD	0671bba25H
	DD	05638850fH
	DD	05d358c01H
	DD	040229713H
	DD	04b2f9e1dH
	DD	02264e947H
	DD	02969e049H
	DD	0347efb5bH
	DD	03f73f255H
	DD	0e50cd7fH
	DD	055dc471H
	DD	0184adf63H
	DD	01347d66dH
	DD	0cadc31d7H
	DD	0c1d138d9H
	DD	0dcc623cbH
	DD	0d7cb2ac5H
	DD	0e6e815efH
	DD	0ede51ce1H
	DD	0f0f207f3H
	DD	0fbff0efdH
	DD	092b479a7H
	DD	099b970a9H
	DD	084ae6bbbH
	DD	08fa362b5H
	DD	0be805d9fH
	DD	0b58d5491H
	DD	0a89a4f83H
	DD	0a397468dH
	DD	00H
	DD	0d090e0bH
	DD	01a121c16H
	DD	0171b121dH
	DD	03424382cH
	DD	0392d3627H
	DD	02e36243aH
	DD	0233f2a31H
	DD	068487058H
	DD	065417e53H
	DD	0725a6c4eH
	DD	07f536245H
	DD	05c6c4874H
	DD	05165467fH
	DD	0467e5462H
	DD	04b775a69H
	DD	0d090e0b0H
	DD	0dd99eebbH
	DD	0ca82fca6H
	DD	0c78bf2adH
	DD	0e4b4d89cH
	DD	0e9bdd697H
	DD	0fea6c48aH
	DD	0f3afca81H
	DD	0b8d890e8H
	DD	0b5d19ee3H
	DD	0a2ca8cfeH
	DD	0afc382f5H
	DD	08cfca8c4H
	DD	081f5a6cfH
	DD	096eeb4d2H
	DD	09be7bad9H
	DD	0bb3bdb7bH
	DD	0b632d570H
	DD	0a129c76dH
	DD	0ac20c966H
	DD	08f1fe357H
	DD	08216ed5cH
	DD	0950dff41H
	DD	09804f14aH
	DD	0d373ab23H
	DD	0de7aa528H
	DD	0c961b735H
	DD	0c468b93eH
	DD	0e757930fH
	DD	0ea5e9d04H
	DD	0fd458f19H
	DD	0f04c8112H
	DD	06bab3bcbH
	DD	066a235c0H
	DD	071b927ddH
	DD	07cb029d6H
	DD	05f8f03e7H
	DD	052860decH
	DD	0459d1ff1H
	DD	0489411faH
	DD	03e34b93H
	DD	0eea4598H
	DD	019f15785H
	DD	014f8598eH
	DD	037c773bfH
	DD	03ace7db4H
	DD	02dd56fa9H
	DD	020dc61a2H
	DD	06d76adf6H
	DD	0607fa3fdH
	DD	07764b1e0H
	DD	07a6dbfebH
	DD	0595295daH
	DD	0545b9bd1H
	DD	0434089ccH
	DD	04e4987c7H
	DD	053eddaeH
	DD	0837d3a5H
	DD	01f2cc1b8H
	DD	01225cfb3H
	DD	0311ae582H
	DD	03c13eb89H
	DD	02b08f994H
	DD	02601f79fH
	DD	0bde64d46H
	DD	0b0ef434dH
	DD	0a7f45150H
	DD	0aafd5f5bH
	DD	089c2756aH
	DD	084cb7b61H
	DD	093d0697cH
	DD	09ed96777H
	DD	0d5ae3d1eH
	DD	0d8a73315H
	DD	0cfbc2108H
	DD	0c2b52f03H
	DD	0e18a0532H
	DD	0ec830b39H
	DD	0fb981924H
	DD	0f691172fH
	DD	0d64d768dH
	DD	0db447886H
	DD	0cc5f6a9bH
	DD	0c1566490H
	DD	0e2694ea1H
	DD	0ef6040aaH
	DD	0f87b52b7H
	DD	0f5725cbcH
	DD	0be0506d5H
	DD	0b30c08deH
	DD	0a4171ac3H
	DD	0a91e14c8H
	DD	08a213ef9H
	DD	0872830f2H
	DD	0903322efH
	DD	09d3a2ce4H
	DD	06dd963dH
	DD	0bd49836H
	DD	01ccf8a2bH
	DD	011c68420H
	DD	032f9ae11H
	DD	03ff0a01aH
	DD	028ebb207H
	DD	025e2bc0cH
	DD	06e95e665H
	DD	0639ce86eH
	DD	07487fa73H
	DD	0798ef478H
	DD	05ab1de49H
	DD	057b8d042H
	DD	040a3c25fH
	DD	04daacc54H
	DD	0daec41f7H
	DD	0d7e54ffcH
	DD	0c0fe5de1H
	DD	0cdf753eaH
	DD	0eec879dbH
	DD	0e3c177d0H
	DD	0f4da65cdH
	DD	0f9d36bc6H
	DD	0b2a431afH
	DD	0bfad3fa4H
	DD	0a8b62db9H
	DD	0a5bf23b2H
	DD	086800983H
	DD	08b890788H
	DD	09c921595H
	DD	0919b1b9eH
	DD	0a7ca147H
	DD	0775af4cH
	DD	0106ebd51H
	DD	01d67b35aH
	DD	03e58996bH
	DD	033519760H
	DD	0244a857dH
	DD	029438b76H
	DD	06234d11fH
	DD	06f3ddf14H
	DD	07826cd09H
	DD	0752fc302H
	DD	05610e933H
	DD	05b19e738H
	DD	04c02f525H
	DD	0410bfb2eH
	DD	061d79a8cH
	DD	06cde9487H
	DD	07bc5869aH
	DD	076cc8891H
	DD	055f3a2a0H
	DD	058faacabH
	DD	04fe1beb6H
	DD	042e8b0bdH
	DD	099fead4H
	DD	0496e4dfH
	DD	0138df6c2H
	DD	01e84f8c9H
	DD	03dbbd2f8H
	DD	030b2dcf3H
	DD	027a9ceeeH
	DD	02aa0c0e5H
	DD	0b1477a3cH
	DD	0bc4e7437H
	DD	0ab55662aH
	DD	0a65c6821H
	DD	085634210H
	DD	0886a4c1bH
	DD	09f715e06H
	DD	09278500dH
	DD	0d90f0a64H
	DD	0d406046fH
	DD	0c31d1672H
	DD	0ce141879H
	DD	0ed2b3248H
	DD	0e0223c43H
	DD	0f7392e5eH
	DD	0fa302055H
	DD	0b79aec01H
	DD	0ba93e20aH
	DD	0ad88f017H
	DD	0a081fe1cH
	DD	083bed42dH
	DD	08eb7da26H
	DD	099acc83bH
	DD	094a5c630H
	DD	0dfd29c59H
	DD	0d2db9252H
	DD	0c5c0804fH
	DD	0c8c98e44H
	DD	0ebf6a475H
	DD	0e6ffaa7eH
	DD	0f1e4b863H
	DD	0fcedb668H
	DD	0670a0cb1H
	DD	06a0302baH
	DD	07d1810a7H
	DD	070111eacH
	DD	0532e349dH
	DD	05e273a96H
	DD	0493c288bH
	DD	044352680H
	DD	0f427ce9H
	DD	024b72e2H
	DD	0155060ffH
	DD	018596ef4H
	DD	03b6644c5H
	DD	0366f4aceH
	DD	0217458d3H
	DD	02c7d56d8H
	DD	0ca1377aH
	DD	01a83971H
	DD	016b32b6cH
	DD	01bba2567H
	DD	038850f56H
	DD	0358c015dH
	DD	022971340H
	DD	02f9e1d4bH
	DD	064e94722H
	DD	069e04929H
	DD	07efb5b34H
	DD	073f2553fH
	DD	050cd7f0eH
	DD	05dc47105H
	DD	04adf6318H
	DD	047d66d13H
	DD	0dc31d7caH
	DD	0d138d9c1H
	DD	0c623cbdcH
	DD	0cb2ac5d7H
	DD	0e815efe6H
	DD	0e51ce1edH
	DD	0f207f3f0H
	DD	0ff0efdfbH
	DD	0b479a792H
	DD	0b970a999H
	DD	0ae6bbb84H
	DD	0a362b58fH
	DD	0805d9fbeH
	DD	08d5491b5H
	DD	09a4f83a8H
	DD	097468da3H
	DD	00H
	DD	090e0b0dH
	DD	0121c161aH
	DD	01b121d17H
	DD	024382c34H
	DD	02d362739H
	DD	036243a2eH
	DD	03f2a3123H
	DD	048705868H
	DD	0417e5365H
	DD	05a6c4e72H
	DD	05362457fH
	DD	06c48745cH
	DD	065467f51H
	DD	07e546246H
	DD	0775a694bH
	DD	090e0b0d0H
	DD	099eebbddH
	DD	082fca6caH
	DD	08bf2adc7H
	DD	0b4d89ce4H
	DD	0bdd697e9H
	DD	0a6c48afeH
	DD	0afca81f3H
	DD	0d890e8b8H
	DD	0d19ee3b5H
	DD	0ca8cfea2H
	DD	0c382f5afH
	DD	0fca8c48cH
	DD	0f5a6cf81H
	DD	0eeb4d296H
	DD	0e7bad99bH
	DD	03bdb7bbbH
	DD	032d570b6H
	DD	029c76da1H
	DD	020c966acH
	DD	01fe3578fH
	DD	016ed5c82H
	DD	0dff4195H
	DD	04f14a98H
	DD	073ab23d3H
	DD	07aa528deH
	DD	061b735c9H
	DD	068b93ec4H
	DD	057930fe7H
	DD	05e9d04eaH
	DD	0458f19fdH
	DD	04c8112f0H
	DD	0ab3bcb6bH
	DD	0a235c066H
	DD	0b927dd71H
	DD	0b029d67cH
	DD	08f03e75fH
	DD	0860dec52H
	DD	09d1ff145H
	DD	09411fa48H
	DD	0e34b9303H
	DD	0ea45980eH
	DD	0f1578519H
	DD	0f8598e14H
	DD	0c773bf37H
	DD	0ce7db43aH
	DD	0d56fa92dH
	DD	0dc61a220H
	DD	076adf66dH
	DD	07fa3fd60H
	DD	064b1e077H
	DD	06dbfeb7aH
	DD	05295da59H
	DD	05b9bd154H
	DD	04089cc43H
	DD	04987c74eH
	DD	03eddae05H
	DD	037d3a508H
	DD	02cc1b81fH
	DD	025cfb312H
	DD	01ae58231H
	DD	013eb893cH
	DD	08f9942bH
	DD	01f79f26H
	DD	0e64d46bdH
	DD	0ef434db0H
	DD	0f45150a7H
	DD	0fd5f5baaH
	DD	0c2756a89H
	DD	0cb7b6184H
	DD	0d0697c93H
	DD	0d967779eH
	DD	0ae3d1ed5H
	DD	0a73315d8H
	DD	0bc2108cfH
	DD	0b52f03c2H
	DD	08a0532e1H
	DD	0830b39ecH
	DD	0981924fbH
	DD	091172ff6H
	DD	04d768dd6H
	DD	0447886dbH
	DD	05f6a9bccH
	DD	0566490c1H
	DD	0694ea1e2H
	DD	06040aaefH
	DD	07b52b7f8H
	DD	0725cbcf5H
	DD	0506d5beH
	DD	0c08deb3H
	DD	0171ac3a4H
	DD	01e14c8a9H
	DD	0213ef98aH
	DD	02830f287H
	DD	03322ef90H
	DD	03a2ce49dH
	DD	0dd963d06H
	DD	0d498360bH
	DD	0cf8a2b1cH
	DD	0c6842011H
	DD	0f9ae1132H
	DD	0f0a01a3fH
	DD	0ebb20728H
	DD	0e2bc0c25H
	DD	095e6656eH
	DD	09ce86e63H
	DD	087fa7374H
	DD	08ef47879H
	DD	0b1de495aH
	DD	0b8d04257H
	DD	0a3c25f40H
	DD	0aacc544dH
	DD	0ec41f7daH
	DD	0e54ffcd7H
	DD	0fe5de1c0H
	DD	0f753eacdH
	DD	0c879dbeeH
	DD	0c177d0e3H
	DD	0da65cdf4H
	DD	0d36bc6f9H
	DD	0a431afb2H
	DD	0ad3fa4bfH
	DD	0b62db9a8H
	DD	0bf23b2a5H
	DD	080098386H
	DD	08907888bH
	DD	09215959cH
	DD	09b1b9e91H
	DD	07ca1470aH
	DD	075af4c07H
	DD	06ebd5110H
	DD	067b35a1dH
	DD	058996b3eH
	DD	051976033H
	DD	04a857d24H
	DD	0438b7629H
	DD	034d11f62H
	DD	03ddf146fH
	DD	026cd0978H
	DD	02fc30275H
	DD	010e93356H
	DD	019e7385bH
	DD	02f5254cH
	DD	0bfb2e41H
	DD	0d79a8c61H
	DD	0de94876cH
	DD	0c5869a7bH
	DD	0cc889176H
	DD	0f3a2a055H
	DD	0faacab58H
	DD	0e1beb64fH
	DD	0e8b0bd42H
	DD	09fead409H
	DD	096e4df04H
	DD	08df6c213H
	DD	084f8c91eH
	DD	0bbd2f83dH
	DD	0b2dcf330H
	DD	0a9ceee27H
	DD	0a0c0e52aH
	DD	0477a3cb1H
	DD	04e7437bcH
	DD	055662aabH
	DD	05c6821a6H
	DD	063421085H
	DD	06a4c1b88H
	DD	0715e069fH
	DD	078500d92H
	DD	0f0a64d9H
	DD	06046fd4H
	DD	01d1672c3H
	DD	0141879ceH
	DD	02b3248edH
	DD	0223c43e0H
	DD	0392e5ef7H
	DD	0302055faH
	DD	09aec01b7H
	DD	093e20abaH
	DD	088f017adH
	DD	081fe1ca0H
	DD	0bed42d83H
	DD	0b7da268eH
	DD	0acc83b99H
	DD	0a5c63094H
	DD	0d29c59dfH
	DD	0db9252d2H
	DD	0c0804fc5H
	DD	0c98e44c8H
	DD	0f6a475ebH
	DD	0ffaa7ee6H
	DD	0e4b863f1H
	DD	0edb668fcH
	DD	0a0cb167H
	DD	0302ba6aH
	DD	01810a77dH
	DD	0111eac70H
	DD	02e349d53H
	DD	0273a965eH
	DD	03c288b49H
	DD	035268044H
	DD	0427ce90fH
	DD	04b72e202H
	DD	05060ff15H
	DD	0596ef418H
	DD	06644c53bH
	DD	06f4ace36H
	DD	07458d321H
	DD	07d56d82cH
	DD	0a1377a0cH
	DD	0a8397101H
	DD	0b32b6c16H
	DD	0ba25671bH
	DD	0850f5638H
	DD	08c015d35H
	DD	097134022H
	DD	09e1d4b2fH
	DD	0e9472264H
	DD	0e0492969H
	DD	0fb5b347eH
	DD	0f2553f73H
	DD	0cd7f0e50H
	DD	0c471055dH
	DD	0df63184aH
	DD	0d66d1347H
	DD	031d7cadcH
	DD	038d9c1d1H
	DD	023cbdcc6H
	DD	02ac5d7cbH
	DD	015efe6e8H
	DD	01ce1ede5H
	DD	07f3f0f2H
	DD	0efdfbffH
	DD	079a792b4H
	DD	070a999b9H
	DD	06bbb84aeH
	DD	062b58fa3H
	DD	05d9fbe80H
	DD	05491b58dH
	DD	04f83a89aH
	DD	0468da397H
	DD	00H
	DD	0e0b0d09H
	DD	01c161a12H
	DD	0121d171bH
	DD	0382c3424H
	DD	03627392dH
	DD	0243a2e36H
	DD	02a31233fH
	DD	070586848H
	DD	07e536541H
	DD	06c4e725aH
	DD	062457f53H
	DD	048745c6cH
	DD	0467f5165H
	DD	05462467eH
	DD	05a694b77H
	DD	0e0b0d090H
	DD	0eebbdd99H
	DD	0fca6ca82H
	DD	0f2adc78bH
	DD	0d89ce4b4H
	DD	0d697e9bdH
	DD	0c48afea6H
	DD	0ca81f3afH
	DD	090e8b8d8H
	DD	09ee3b5d1H
	DD	08cfea2caH
	DD	082f5afc3H
	DD	0a8c48cfcH
	DD	0a6cf81f5H
	DD	0b4d296eeH
	DD	0bad99be7H
	DD	0db7bbb3bH
	DD	0d570b632H
	DD	0c76da129H
	DD	0c966ac20H
	DD	0e3578f1fH
	DD	0ed5c8216H
	DD	0ff41950dH
	DD	0f14a9804H
	DD	0ab23d373H
	DD	0a528de7aH
	DD	0b735c961H
	DD	0b93ec468H
	DD	0930fe757H
	DD	09d04ea5eH
	DD	08f19fd45H
	DD	08112f04cH
	DD	03bcb6babH
	DD	035c066a2H
	DD	027dd71b9H
	DD	029d67cb0H
	DD	03e75f8fH
	DD	0dec5286H
	DD	01ff1459dH
	DD	011fa4894H
	DD	04b9303e3H
	DD	045980eeaH
	DD	0578519f1H
	DD	0598e14f8H
	DD	073bf37c7H
	DD	07db43aceH
	DD	06fa92dd5H
	DD	061a220dcH
	DD	0adf66d76H
	DD	0a3fd607fH
	DD	0b1e07764H
	DD	0bfeb7a6dH
	DD	095da5952H
	DD	09bd1545bH
	DD	089cc4340H
	DD	087c74e49H
	DD	0ddae053eH
	DD	0d3a50837H
	DD	0c1b81f2cH
	DD	0cfb31225H
	DD	0e582311aH
	DD	0eb893c13H
	DD	0f9942b08H
	DD	0f79f2601H
	DD	04d46bde6H
	DD	0434db0efH
	DD	05150a7f4H
	DD	05f5baafdH
	DD	0756a89c2H
	DD	07b6184cbH
	DD	0697c93d0H
	DD	067779ed9H
	DD	03d1ed5aeH
	DD	03315d8a7H
	DD	02108cfbcH
	DD	02f03c2b5H
	DD	0532e18aH
	DD	0b39ec83H
	DD	01924fb98H
	DD	0172ff691H
	DD	0768dd64dH
	DD	07886db44H
	DD	06a9bcc5fH
	DD	06490c156H
	DD	04ea1e269H
	DD	040aaef60H
	DD	052b7f87bH
	DD	05cbcf572H
	DD	06d5be05H
	DD	08deb30cH
	DD	01ac3a417H
	DD	014c8a91eH
	DD	03ef98a21H
	DD	030f28728H
	DD	022ef9033H
	DD	02ce49d3aH
	DD	0963d06ddH
	DD	098360bd4H
	DD	08a2b1ccfH
	DD	0842011c6H
	DD	0ae1132f9H
	DD	0a01a3ff0H
	DD	0b20728ebH
	DD	0bc0c25e2H
	DD	0e6656e95H
	DD	0e86e639cH
	DD	0fa737487H
	DD	0f478798eH
	DD	0de495ab1H
	DD	0d04257b8H
	DD	0c25f40a3H
	DD	0cc544daaH
	DD	041f7daecH
	DD	04ffcd7e5H
	DD	05de1c0feH
	DD	053eacdf7H
	DD	079dbeec8H
	DD	077d0e3c1H
	DD	065cdf4daH
	DD	06bc6f9d3H
	DD	031afb2a4H
	DD	03fa4bfadH
	DD	02db9a8b6H
	DD	023b2a5bfH
	DD	09838680H
	DD	07888b89H
	DD	015959c92H
	DD	01b9e919bH
	DD	0a1470a7cH
	DD	0af4c0775H
	DD	0bd51106eH
	DD	0b35a1d67H
	DD	0996b3e58H
	DD	097603351H
	DD	0857d244aH
	DD	08b762943H
	DD	0d11f6234H
	DD	0df146f3dH
	DD	0cd097826H
	DD	0c302752fH
	DD	0e9335610H
	DD	0e7385b19H
	DD	0f5254c02H
	DD	0fb2e410bH
	DD	09a8c61d7H
	DD	094876cdeH
	DD	0869a7bc5H
	DD	0889176ccH
	DD	0a2a055f3H
	DD	0acab58faH
	DD	0beb64fe1H
	DD	0b0bd42e8H
	DD	0ead4099fH
	DD	0e4df0496H
	DD	0f6c2138dH
	DD	0f8c91e84H
	DD	0d2f83dbbH
	DD	0dcf330b2H
	DD	0ceee27a9H
	DD	0c0e52aa0H
	DD	07a3cb147H
	DD	07437bc4eH
	DD	0662aab55H
	DD	06821a65cH
	DD	042108563H
	DD	04c1b886aH
	DD	05e069f71H
	DD	0500d9278H
	DD	0a64d90fH
	DD	046fd406H
	DD	01672c31dH
	DD	01879ce14H
	DD	03248ed2bH
	DD	03c43e022H
	DD	02e5ef739H
	DD	02055fa30H
	DD	0ec01b79aH
	DD	0e20aba93H
	DD	0f017ad88H
	DD	0fe1ca081H
	DD	0d42d83beH
	DD	0da268eb7H
	DD	0c83b99acH
	DD	0c63094a5H
	DD	09c59dfd2H
	DD	09252d2dbH
	DD	0804fc5c0H
	DD	08e44c8c9H
	DD	0a475ebf6H
	DD	0aa7ee6ffH
	DD	0b863f1e4H
	DD	0b668fcedH
	DD	0cb1670aH
	DD	02ba6a03H
	DD	010a77d18H
	DD	01eac7011H
	DD	0349d532eH
	DD	03a965e27H
	DD	0288b493cH
	DD	026804435H
	DD	07ce90f42H
	DD	072e2024bH
	DD	060ff1550H
	DD	06ef41859H
	DD	044c53b66H
	DD	04ace366fH
	DD	058d32174H
	DD	056d82c7dH
	DD	0377a0ca1H
	DD	0397101a8H
	DD	02b6c16b3H
	DD	025671bbaH
	DD	0f563885H
	DD	015d358cH
	DD	013402297H
	DD	01d4b2f9eH
	DD	0472264e9H
	DD	0492969e0H
	DD	05b347efbH
	DD	0553f73f2H
	DD	07f0e50cdH
	DD	071055dc4H
	DD	063184adfH
	DD	06d1347d6H
	DD	0d7cadc31H
	DD	0d9c1d138H
	DD	0cbdcc623H
	DD	0c5d7cb2aH
	DD	0efe6e815H
	DD	0e1ede51cH
	DD	0f3f0f207H
	DD	0fdfbff0eH
	DD	0a792b479H
	DD	0a999b970H
	DD	0bb84ae6bH
	DD	0b58fa362H
	DD	09fbe805dH
	DD	091b58d54H
	DD	083a89a4fH
	DD	08da39746H
CONST	ENDS
PUBLIC	_aes_init
; Function compile flags: /Ogtpy
; File c:\home\public\desktop\projects\ciphershed\src\crypto\aestab.c
;	COMDAT _aes_init
_TEXT	SEGMENT
_aes_init PROC						; COMDAT

; 201  :     return EXIT_SUCCESS;

  00000	33 c0		 xor	 eax, eax

; 202  : }

  00002	c3		 ret	 0
_aes_init ENDP
_TEXT	ENDS
END
