; Listing generated by Microsoft (R) Optimizing Compiler Version 15.00.30729.207 

	TITLE	c:\users\public\desktop\projects\ciphershed\src\driver\ntdriver.c
	.686P
	.XMM
	include listing.inc
	.model	flat

INCLUDELIB LIBCMT
INCLUDELIB OLDNAMES

PUBLIC	_RootDeviceObject
PUBLIC	_DriverShuttingDown
PUBLIC	_OsMajorVersion
PUBLIC	_DriverUnloadDisabled
PUBLIC	_PortableMode
PUBLIC	_VolumeClassFilterRegistered
PUBLIC	_CacheBootPassword
PUBLIC	_NonAdminSystemFavoritesAccessDisabled
_DATA	SEGMENT
COMM	_VirtualVolumeDeviceObjects:DWORD:01aH
COMM	_TCDriverObject:DWORD
COMM	_LastUniqueVolumeId:DWORD
COMM	_OsMinorVersion:DWORD
COMM	_SelfTestsPassed:DWORD
_DATA	ENDS
_BSS	SEGMENT
_RootDeviceObject DD 01H DUP (?)
_DriverShuttingDown DD 01H DUP (?)
_OsMajorVersion DD 01H DUP (?)
_DriverUnloadDisabled DD 01H DUP (?)
_PortableMode DD 01H DUP (?)
_VolumeClassFilterRegistered DD 01H DUP (?)
_CacheBootPassword DD 01H DUP (?)
_NonAdminSystemFavoritesAccessDisabled DD 01H DUP (?)
_EncryptionThreadPoolFreeCpuCountLimit DD 01H DUP (?)
_SystemFavoriteVolumeDirty DD 01H DUP (?)
_PagingFileCreationPrevented DD 01H DUP (?)
_BSS	ENDS
PUBLIC	_TCCreateRootDeviceObject@4
PUBLIC	_TCUnloadDriver@4
PUBLIC	_TCDispatchQueueIRP@8
PUBLIC	_DriverAddDevice@8
PUBLIC	_IsVolumeClassFilterRegistered@0
PUBLIC	_TCReadRegistryKey@12
PUBLIC	??_C@_1M@IOJLKPKK@?$AAS?$AAt?$AAa?$AAr?$AAt?$AA?$AA@PBOPGDP@ ;  ?? ::PBOPGDP::`string'
PUBLIC	_ReadRegistryConfigFlags@4
PUBLIC	_TCDeviceIoControl@24
PUBLIC	??_C@_1CE@IPABBIFA@?$AA?2?$AAD?$AAe?$AAv?$AAi?$AAc?$AAe?$AA?2?$AAT?$AAr?$AAu?$AAe?$AAC?$AAr?$AAy?$AAp?$AAt?$AA?$AA@PBOPGDP@ ;  ?? ::PBOPGDP::`string'
PUBLIC	??_C@_0BO@OAMALJLL@DriverEntry?5CipherShed?50?47?43?6?$AA@PBOPGDP@ ;  ?? ::PBOPGDP::`string'
PUBLIC	_DriverEntry@8
EXTRN	__imp__ExFreePoolWithTag@8:PROC
EXTRN	_LoadBootArguments@0:PROC
EXTRN	__imp__KeBugCheckEx@20:PROC
EXTRN	_AutoTestAlgorithms@0:PROC
EXTRN	_EncryptionThreadPoolStart@4:PROC
EXTRN	_DumpFilterEntry@8:PROC
EXTRN	__imp__PsGetVersion@16:PROC
EXTRN	_DbgPrint:PROC
EXTRN	_memset:PROC
;	COMDAT ??_C@_1M@IOJLKPKK@?$AAS?$AAt?$AAa?$AAr?$AAt?$AA?$AA@PBOPGDP@
; File c:\users\public\desktop\projects\ciphershed\src\driver\ntdriver.c
INIT$s	SEGMENT
??_C@_1M@IOJLKPKK@?$AAS?$AAt?$AAa?$AAr?$AAt?$AA?$AA@PBOPGDP@ DB 'S', 00H, 't'
	DB	00H, 'a', 00H, 'r', 00H, 't', 00H, 00H, 00H	;  ?? ::PBOPGDP::`string'
INIT$s	ENDS
;	COMDAT ??_C@_1CE@IPABBIFA@?$AA?2?$AAD?$AAe?$AAv?$AAi?$AAc?$AAe?$AA?2?$AAT?$AAr?$AAu?$AAe?$AAC?$AAr?$AAy?$AAp?$AAt?$AA?$AA@PBOPGDP@
INIT$s	SEGMENT
??_C@_1CE@IPABBIFA@?$AA?2?$AAD?$AAe?$AAv?$AAi?$AAc?$AAe?$AA?2?$AAT?$AAr?$AAu?$AAe?$AAC?$AAr?$AAy?$AAp?$AAt?$AA?$AA@PBOPGDP@ DB '\'
	DB	00H, 'D', 00H, 'e', 00H, 'v', 00H, 'i', 00H, 'c', 00H, 'e', 00H
	DB	'\', 00H, 'T', 00H, 'r', 00H, 'u', 00H, 'e', 00H, 'C', 00H, 'r'
	DB	00H, 'y', 00H, 'p', 00H, 't', 00H, 00H, 00H	;  ?? ::PBOPGDP::`string'
INIT$s	ENDS
;	COMDAT ??_C@_0BO@OAMALJLL@DriverEntry?5CipherShed?50?47?43?6?$AA@PBOPGDP@
INIT$s	SEGMENT
??_C@_0BO@OAMALJLL@DriverEntry?5CipherShed?50?47?43?6?$AA@PBOPGDP@ DB 'Dr'
	DB	'iverEntry CipherShed 0.7.3', 0aH, 00H	;  ?? ::PBOPGDP::`string'
; Function compile flags: /Odtp
INIT$s	ENDS
;	COMDAT _DriverEntry@8
INIT	SEGMENT
_version$ = -12						; size = 4
_startKeyValue$ = -8					; size = 4
_i$ = -4						; size = 4
_DriverObject$ = 8					; size = 4
_RegistryPath$ = 12					; size = 4
_DriverEntry@8 PROC					; COMDAT

; 63   : {

  00000	8b ff		 npad	 2
  00002	55		 push	 ebp
  00003	8b ec		 mov	 ebp, esp
  00005	83 ec 0c	 sub	 esp, 12			; 0000000cH

; 64   : 	PKEY_VALUE_PARTIAL_INFORMATION startKeyValue;
; 65   : 	LONG version;
; 66   : 	int i;
; 67   : 
; 68   : 	Dump ("DriverEntry " TC_APP_NAME " " VERSION_STRING "\n");

  00008	68 00 00 00 00	 push	 OFFSET ??_C@_0BO@OAMALJLL@DriverEntry?5CipherShed?50?47?43?6?$AA@PBOPGDP@
  0000d	e8 00 00 00 00	 call	 _DbgPrint
  00012	83 c4 04	 add	 esp, 4

; 69   : 
; 70   : 	PsGetVersion (&OsMajorVersion, &OsMinorVersion, NULL, NULL);

  00015	6a 00		 push	 0
  00017	6a 00		 push	 0
  00019	68 00 00 00 00	 push	 OFFSET _OsMinorVersion
  0001e	68 00 00 00 00	 push	 OFFSET _OsMajorVersion
  00023	ff 15 00 00 00
	00		 call	 DWORD PTR __imp__PsGetVersion@16

; 71   : 
; 72   : 	// Load dump filter if the main driver is already loaded
; 73   : 	if (NT_SUCCESS (TCDeviceIoControl (NT_ROOT_PREFIX, TC_IOCTL_GET_DRIVER_VERSION, NULL, 0, &version, sizeof (version))))

  00029	6a 04		 push	 4
  0002b	8d 45 f4	 lea	 eax, DWORD PTR _version$[ebp]
  0002e	50		 push	 eax
  0002f	6a 00		 push	 0
  00031	6a 00		 push	 0
  00033	68 04 20 22 00	 push	 2236420			; 00222004H
  00038	68 00 00 00 00	 push	 OFFSET ??_C@_1CE@IPABBIFA@?$AA?2?$AAD?$AAe?$AAv?$AAi?$AAc?$AAe?$AA?2?$AAT?$AAr?$AAu?$AAe?$AAC?$AAr?$AAy?$AAp?$AAt?$AA?$AA@PBOPGDP@
  0003d	e8 00 00 00 00	 call	 _TCDeviceIoControl@24
  00042	85 c0		 test	 eax, eax
  00044	7c 12		 jl	 SHORT $LN7@DriverEntr

; 74   : 		return DumpFilterEntry ((PFILTER_EXTENSION) DriverObject, (PFILTER_INITIALIZATION_DATA) RegistryPath);

  00046	8b 4d 0c	 mov	 ecx, DWORD PTR _RegistryPath$[ebp]
  00049	51		 push	 ecx
  0004a	8b 55 08	 mov	 edx, DWORD PTR _DriverObject$[ebp]
  0004d	52		 push	 edx
  0004e	e8 00 00 00 00	 call	 _DumpFilterEntry@8
  00053	e9 e3 00 00 00	 jmp	 $LN9@DriverEntr
$LN7@DriverEntr:

; 75   : 
; 76   : 	TCDriverObject = DriverObject;

  00058	8b 45 08	 mov	 eax, DWORD PTR _DriverObject$[ebp]
  0005b	a3 00 00 00 00	 mov	 DWORD PTR _TCDriverObject, eax

; 77   : 	memset (VirtualVolumeDeviceObjects, 0, sizeof (VirtualVolumeDeviceObjects));

  00060	6a 68		 push	 104			; 00000068H
  00062	6a 00		 push	 0
  00064	68 00 00 00 00	 push	 OFFSET _VirtualVolumeDeviceObjects
  00069	e8 00 00 00 00	 call	 _memset
  0006e	83 c4 0c	 add	 esp, 12			; 0000000cH

; 78   : 
; 79   : 	ReadRegistryConfigFlags (TRUE);

  00071	6a 01		 push	 1
  00073	e8 00 00 00 00	 call	 _ReadRegistryConfigFlags@4

; 80   : 	EncryptionThreadPoolStart (EncryptionThreadPoolFreeCpuCountLimit);

  00078	8b 0d 00 00 00
	00		 mov	 ecx, DWORD PTR _EncryptionThreadPoolFreeCpuCountLimit
  0007e	51		 push	 ecx
  0007f	e8 00 00 00 00	 call	 _EncryptionThreadPoolStart@4

; 81   : 	SelfTestsPassed = AutoTestAlgorithms();

  00084	e8 00 00 00 00	 call	 _AutoTestAlgorithms@0
  00089	a3 00 00 00 00	 mov	 DWORD PTR _SelfTestsPassed, eax

; 82   : 
; 83   : 	// Enable device class filters and load boot arguments if the driver is set to start at system boot
; 84   : 		
; 85   : 	if (NT_SUCCESS (TCReadRegistryKey (RegistryPath, L"Start", &startKeyValue)))

  0008e	8d 55 f8	 lea	 edx, DWORD PTR _startKeyValue$[ebp]
  00091	52		 push	 edx
  00092	68 00 00 00 00	 push	 OFFSET ??_C@_1M@IOJLKPKK@?$AAS?$AAt?$AAa?$AAr?$AAt?$AA?$AA@PBOPGDP@
  00097	8b 45 0c	 mov	 eax, DWORD PTR _RegistryPath$[ebp]
  0009a	50		 push	 eax
  0009b	e8 00 00 00 00	 call	 _TCReadRegistryKey@12
  000a0	85 c0		 test	 eax, eax
  000a2	7c 5c		 jl	 SHORT $LN6@DriverEntr

; 86   : 	{
; 87   : 		if (startKeyValue->Type == REG_DWORD && *((uint32 *) startKeyValue->Data) == SERVICE_BOOT_START)

  000a4	8b 4d f8	 mov	 ecx, DWORD PTR _startKeyValue$[ebp]
  000a7	83 79 04 04	 cmp	 DWORD PTR [ecx+4], 4
  000ab	75 44		 jne	 SHORT $LN5@DriverEntr
  000ad	8b 55 f8	 mov	 edx, DWORD PTR _startKeyValue$[ebp]
  000b0	83 7a 0c 00	 cmp	 DWORD PTR [edx+12], 0
  000b4	75 3b		 jne	 SHORT $LN5@DriverEntr

; 88   : 		{
; 89   : 			if (!SelfTestsPassed)

  000b6	83 3d 00 00 00
	00 00		 cmp	 DWORD PTR _SelfTestsPassed, 0
  000bd	75 16		 jne	 SHORT $LN4@DriverEntr

; 90   : 				TC_BUG_CHECK (STATUS_INVALID_PARAMETER);

  000bf	68 43 54 00 00	 push	 21571			; 00005443H
  000c4	6a 00		 push	 0
  000c6	68 0d 00 00 c0	 push	 -1073741811		; c000000dH
  000cb	6a 5a		 push	 90			; 0000005aH
  000cd	6a 29		 push	 41			; 00000029H
  000cf	ff 15 00 00 00
	00		 call	 DWORD PTR __imp__KeBugCheckEx@20
$LN4@DriverEntr:

; 91   : 
; 92   : 			LoadBootArguments();

  000d5	e8 00 00 00 00	 call	 _LoadBootArguments@0

; 93   : 			VolumeClassFilterRegistered = IsVolumeClassFilterRegistered();

  000da	e8 00 00 00 00	 call	 _IsVolumeClassFilterRegistered@0
  000df	a3 00 00 00 00	 mov	 DWORD PTR _VolumeClassFilterRegistered, eax

; 94   : 
; 95   : 			DriverObject->DriverExtension->AddDevice = DriverAddDevice;

  000e4	8b 45 08	 mov	 eax, DWORD PTR _DriverObject$[ebp]
  000e7	8b 48 18	 mov	 ecx, DWORD PTR [eax+24]
  000ea	c7 41 04 00 00
	00 00		 mov	 DWORD PTR [ecx+4], OFFSET _DriverAddDevice@8
$LN5@DriverEntr:

; 96   : 		}
; 97   : 
; 98   : 		TCfree (startKeyValue);

  000f1	68 54 43 4d 4d	 push	 1296909140		; 4d4d4354H
  000f6	8b 55 f8	 mov	 edx, DWORD PTR _startKeyValue$[ebp]
  000f9	52		 push	 edx
  000fa	ff 15 00 00 00
	00		 call	 DWORD PTR __imp__ExFreePoolWithTag@8
$LN6@DriverEntr:

; 99   : 	}
; 100  : 
; 101  : 	for (i = 0; i <= IRP_MJ_MAXIMUM_FUNCTION; ++i)

  00100	c7 45 fc 00 00
	00 00		 mov	 DWORD PTR _i$[ebp], 0
  00107	eb 09		 jmp	 SHORT $LN3@DriverEntr
$LN2@DriverEntr:
  00109	8b 45 fc	 mov	 eax, DWORD PTR _i$[ebp]
  0010c	83 c0 01	 add	 eax, 1
  0010f	89 45 fc	 mov	 DWORD PTR _i$[ebp], eax
$LN3@DriverEntr:
  00112	83 7d fc 1b	 cmp	 DWORD PTR _i$[ebp], 27	; 0000001bH
  00116	7f 10		 jg	 SHORT $LN1@DriverEntr

; 102  : 	{
; 103  : 		DriverObject->MajorFunction[i] = TCDispatchQueueIRP;

  00118	8b 4d fc	 mov	 ecx, DWORD PTR _i$[ebp]
  0011b	8b 55 08	 mov	 edx, DWORD PTR _DriverObject$[ebp]
  0011e	c7 44 8a 38 00
	00 00 00	 mov	 DWORD PTR [edx+ecx*4+56], OFFSET _TCDispatchQueueIRP@8

; 104  : 	}

  00126	eb e1		 jmp	 SHORT $LN2@DriverEntr
$LN1@DriverEntr:

; 105  : 
; 106  : 	DriverObject->DriverUnload = TCUnloadDriver;

  00128	8b 45 08	 mov	 eax, DWORD PTR _DriverObject$[ebp]
  0012b	c7 40 34 00 00
	00 00		 mov	 DWORD PTR [eax+52], OFFSET _TCUnloadDriver@4

; 107  : 	return TCCreateRootDeviceObject (DriverObject);

  00132	8b 4d 08	 mov	 ecx, DWORD PTR _DriverObject$[ebp]
  00135	51		 push	 ecx
  00136	e8 00 00 00 00	 call	 _TCCreateRootDeviceObject@4
$LN9@DriverEntr:

; 108  : }

  0013b	8b e5		 mov	 esp, ebp
  0013d	5d		 pop	 ebp
  0013e	c2 08 00	 ret	 8
_DriverEntry@8 ENDP
INIT	ENDS
PUBLIC	??_C@_0BN@PIELMKDH@Volume?5pdo?$DN?$CFp?5interface?$DN?$CFws?6?$AA@FNODOBFM@ ;  ?? ::FNODOBFM::`string'
PUBLIC	??_C@_0CD@FCIMJPEM@AddDevice?5pdo?$DN?$CFp?5type?$DN?$CFx?5name?$DN?$CFw@FNODOBFM@ ;  ?? ::FNODOBFM::`string'
PUBLIC	??_C@_13HGPDMIBE@?$AA?$DP?$AA?$AA@FNODOBFM@	;  ?? ::FNODOBFM::`string'
PUBLIC	__$ArrayPad$
EXTRN	_DriveFilterAddDevice@8:PROC
EXTRN	_VolumeFilterAddDevice@8:PROC
EXTRN	__imp__IoGetDeviceInterfaces@16:PROC
EXTRN	_GUID_DEVINTERFACE_VOLUME:BYTE
EXTRN	_BootArgs:BYTE
EXTRN	_BootArgsValid:DWORD
EXTRN	__imp__ObQueryNameString@16:PROC
EXTRN	___security_cookie:DWORD
EXTRN	@__security_check_cookie@4:PROC
;	COMDAT ??_C@_0BN@PIELMKDH@Volume?5pdo?$DN?$CFp?5interface?$DN?$CFws?6?$AA@FNODOBFM@
text$s	SEGMENT
??_C@_0BN@PIELMKDH@Volume?5pdo?$DN?$CFp?5interface?$DN?$CFws?6?$AA@FNODOBFM@ DB 'V'
	DB	'olume pdo=%p interface=%ws', 0aH, 00H	;  ?? ::FNODOBFM::`string'
text$s	ENDS
;	COMDAT ??_C@_0CD@FCIMJPEM@AddDevice?5pdo?$DN?$CFp?5type?$DN?$CFx?5name?$DN?$CFw@FNODOBFM@
text$s	SEGMENT
??_C@_0CD@FCIMJPEM@AddDevice?5pdo?$DN?$CFp?5type?$DN?$CFx?5name?$DN?$CFw@FNODOBFM@ DB 'A'
	DB	'ddDevice pdo=%p type=%x name=%ws', 0aH, 00H	;  ?? ::FNODOBFM::`string'
text$s	ENDS
;	COMDAT ??_C@_13HGPDMIBE@?$AA?$DP?$AA?$AA@FNODOBFM@
text$s	SEGMENT
??_C@_13HGPDMIBE@?$AA?$DP?$AA?$AA@FNODOBFM@ DB '?', 00H, 00H, 00H ;  ?? ::FNODOBFM::`string'
; Function compile flags: /Odtp
text$s	ENDS
;	COMDAT _DriverAddDevice@8
_TEXT	SEGMENT
tv72 = -152						; size = 4
_interfaceLinks$29779 = -148				; size = 4
_nameInfo$ = -144					; size = 4
_nameInfoSize$ = -140					; size = 4
_nameInfoBuffer$ = -136					; size = 128
__$ArrayPad$ = -4					; size = 4
_driverObject$ = 8					; size = 4
_pdo$ = 12						; size = 4
_DriverAddDevice@8 PROC					; COMDAT

; 112  : {

  00000	8b ff		 npad	 2
  00002	55		 push	 ebp
  00003	8b ec		 mov	 ebp, esp
  00005	81 ec 98 00 00
	00		 sub	 esp, 152		; 00000098H
  0000b	a1 00 00 00 00	 mov	 eax, DWORD PTR ___security_cookie
  00010	33 c5		 xor	 eax, ebp
  00012	89 45 fc	 mov	 DWORD PTR __$ArrayPad$[ebp], eax

; 113  : #ifdef DEBUG
; 114  : 	char nameInfoBuffer[128];
; 115  : 	POBJECT_NAME_INFORMATION nameInfo = (POBJECT_NAME_INFORMATION) nameInfoBuffer;

  00015	8d 85 78 ff ff
	ff		 lea	 eax, DWORD PTR _nameInfoBuffer$[ebp]
  0001b	89 85 70 ff ff
	ff		 mov	 DWORD PTR _nameInfo$[ebp], eax

; 116  : 	ULONG nameInfoSize;
; 117  : 	Dump ("AddDevice pdo=%p type=%x name=%ws\n", pdo, pdo->DeviceType, NT_SUCCESS (ObQueryNameString (pdo, nameInfo, sizeof (nameInfoBuffer), &nameInfoSize)) ? nameInfo->Name.Buffer : L"?");

  00021	8d 8d 74 ff ff
	ff		 lea	 ecx, DWORD PTR _nameInfoSize$[ebp]
  00027	51		 push	 ecx
  00028	68 80 00 00 00	 push	 128			; 00000080H
  0002d	8b 95 70 ff ff
	ff		 mov	 edx, DWORD PTR _nameInfo$[ebp]
  00033	52		 push	 edx
  00034	8b 45 0c	 mov	 eax, DWORD PTR _pdo$[ebp]
  00037	50		 push	 eax
  00038	ff 15 00 00 00
	00		 call	 DWORD PTR __imp__ObQueryNameString@16
  0003e	85 c0		 test	 eax, eax
  00040	7c 11		 jl	 SHORT $LN6@DriverAddD
  00042	8b 8d 70 ff ff
	ff		 mov	 ecx, DWORD PTR _nameInfo$[ebp]
  00048	8b 51 04	 mov	 edx, DWORD PTR [ecx+4]
  0004b	89 95 68 ff ff
	ff		 mov	 DWORD PTR tv72[ebp], edx
  00051	eb 0a		 jmp	 SHORT $LN7@DriverAddD
$LN6@DriverAddD:
  00053	c7 85 68 ff ff
	ff 00 00 00 00	 mov	 DWORD PTR tv72[ebp], OFFSET ??_C@_13HGPDMIBE@?$AA?$DP?$AA?$AA@FNODOBFM@
$LN7@DriverAddD:
  0005d	8b 85 68 ff ff
	ff		 mov	 eax, DWORD PTR tv72[ebp]
  00063	50		 push	 eax
  00064	8b 4d 0c	 mov	 ecx, DWORD PTR _pdo$[ebp]
  00067	8b 51 2c	 mov	 edx, DWORD PTR [ecx+44]
  0006a	52		 push	 edx
  0006b	8b 45 0c	 mov	 eax, DWORD PTR _pdo$[ebp]
  0006e	50		 push	 eax
  0006f	68 00 00 00 00	 push	 OFFSET ??_C@_0CD@FCIMJPEM@AddDevice?5pdo?$DN?$CFp?5type?$DN?$CFx?5name?$DN?$CFw@FNODOBFM@
  00074	e8 00 00 00 00	 call	 _DbgPrint
  00079	83 c4 10	 add	 esp, 16			; 00000010H

; 118  : #endif
; 119  : 
; 120  : 	if (VolumeClassFilterRegistered && BootArgsValid && BootArgs.HiddenSystemPartitionStart != 0)

  0007c	83 3d 00 00 00
	00 00		 cmp	 DWORD PTR _VolumeClassFilterRegistered, 0
  00083	0f 84 85 00 00
	00		 je	 $LN3@DriverAddD
  00089	83 3d 00 00 00
	00 00		 cmp	 DWORD PTR _BootArgsValid, 0
  00090	74 7c		 je	 SHORT $LN3@DriverAddD
  00092	8b 0d 5a 00 00
	00		 mov	 ecx, DWORD PTR _BootArgs+90
  00098	0b 0d 5e 00 00
	00		 or	 ecx, DWORD PTR _BootArgs+94
  0009e	74 6e		 je	 SHORT $LN3@DriverAddD

; 121  : 	{
; 122  : 		PWSTR interfaceLinks;
; 123  : 		if (NT_SUCCESS (IoGetDeviceInterfaces (&GUID_DEVINTERFACE_VOLUME, pdo, DEVICE_INTERFACE_INCLUDE_NONACTIVE, &interfaceLinks)))

  000a0	8d 95 6c ff ff
	ff		 lea	 edx, DWORD PTR _interfaceLinks$29779[ebp]
  000a6	52		 push	 edx
  000a7	6a 01		 push	 1
  000a9	8b 45 0c	 mov	 eax, DWORD PTR _pdo$[ebp]
  000ac	50		 push	 eax
  000ad	68 00 00 00 00	 push	 OFFSET _GUID_DEVINTERFACE_VOLUME
  000b2	ff 15 00 00 00
	00		 call	 DWORD PTR __imp__IoGetDeviceInterfaces@16
  000b8	85 c0		 test	 eax, eax
  000ba	7c 52		 jl	 SHORT $LN3@DriverAddD

; 124  : 		{
; 125  : 			if (interfaceLinks[0] != UNICODE_NULL)

  000bc	8b 8d 6c ff ff
	ff		 mov	 ecx, DWORD PTR _interfaceLinks$29779[ebp]
  000c2	0f b7 11	 movzx	 edx, WORD PTR [ecx]
  000c5	85 d2		 test	 edx, edx
  000c7	74 36		 je	 SHORT $LN1@DriverAddD

; 126  : 			{
; 127  : 				Dump ("Volume pdo=%p interface=%ws\n", pdo, interfaceLinks);

  000c9	8b 85 6c ff ff
	ff		 mov	 eax, DWORD PTR _interfaceLinks$29779[ebp]
  000cf	50		 push	 eax
  000d0	8b 4d 0c	 mov	 ecx, DWORD PTR _pdo$[ebp]
  000d3	51		 push	 ecx
  000d4	68 00 00 00 00	 push	 OFFSET ??_C@_0BN@PIELMKDH@Volume?5pdo?$DN?$CFp?5interface?$DN?$CFws?6?$AA@FNODOBFM@
  000d9	e8 00 00 00 00	 call	 _DbgPrint
  000de	83 c4 0c	 add	 esp, 12			; 0000000cH

; 128  : 				ExFreePool (interfaceLinks);

  000e1	6a 00		 push	 0
  000e3	8b 95 6c ff ff
	ff		 mov	 edx, DWORD PTR _interfaceLinks$29779[ebp]
  000e9	52		 push	 edx
  000ea	ff 15 00 00 00
	00		 call	 DWORD PTR __imp__ExFreePoolWithTag@8

; 129  : 
; 130  : 				return VolumeFilterAddDevice (driverObject, pdo);

  000f0	8b 45 0c	 mov	 eax, DWORD PTR _pdo$[ebp]
  000f3	50		 push	 eax
  000f4	8b 4d 08	 mov	 ecx, DWORD PTR _driverObject$[ebp]
  000f7	51		 push	 ecx
  000f8	e8 00 00 00 00	 call	 _VolumeFilterAddDevice@8
  000fd	eb 1c		 jmp	 SHORT $LN4@DriverAddD
$LN1@DriverAddD:

; 131  : 			}
; 132  : 
; 133  : 			ExFreePool (interfaceLinks);

  000ff	6a 00		 push	 0
  00101	8b 95 6c ff ff
	ff		 mov	 edx, DWORD PTR _interfaceLinks$29779[ebp]
  00107	52		 push	 edx
  00108	ff 15 00 00 00
	00		 call	 DWORD PTR __imp__ExFreePoolWithTag@8
$LN3@DriverAddD:

; 134  : 		}
; 135  : 	}
; 136  : 
; 137  : 	return DriveFilterAddDevice (driverObject, pdo);

  0010e	8b 45 0c	 mov	 eax, DWORD PTR _pdo$[ebp]
  00111	50		 push	 eax
  00112	8b 4d 08	 mov	 ecx, DWORD PTR _driverObject$[ebp]
  00115	51		 push	 ecx
  00116	e8 00 00 00 00	 call	 _DriveFilterAddDevice@8
$LN4@DriverAddD:

; 138  : }

  0011b	8b 4d fc	 mov	 ecx, DWORD PTR __$ArrayPad$[ebp]
  0011e	33 cd		 xor	 ecx, ebp
  00120	e8 00 00 00 00	 call	 @__security_check_cookie@4
  00125	8b e5		 mov	 esp, ebp
  00127	5d		 pop	 ebp
  00128	c2 08 00	 ret	 8
_DriverAddDevice@8 ENDP
_TEXT	ENDS
PUBLIC	??_C@_0DF@IHIBAGEA@0x?$CF08p?5?5?$CF02x?5?$CF02x?5?$CF02x?5?$CF02x?5?$CF02x@FNODOBFM@ ;  ?? ::FNODOBFM::`string'
PUBLIC	__$ArrayPad$
PUBLIC	_DumpMemory@8
;	COMDAT ??_C@_0DF@IHIBAGEA@0x?$CF08p?5?5?$CF02x?5?$CF02x?5?$CF02x?5?$CF02x?5?$CF02x@FNODOBFM@
text$s	SEGMENT
??_C@_0DF@IHIBAGEA@0x?$CF08p?5?5?$CF02x?5?$CF02x?5?$CF02x?5?$CF02x?5?$CF02x@FNODOBFM@ DB '0'
	DB	'x%08p  %02x %02x %02x %02x %02x %02x %02x %02x  %s', 0aH, 00H ;  ?? ::FNODOBFM::`string'
; Function compile flags: /Odtp
text$s	ENDS
;	COMDAT _DumpMemory@8
_TEXT	SEGMENT
_str$ = -36						; size = 20
__$ArrayPad$ = -16					; size = 4
_m$ = -12						; size = 4
_j$ = -8						; size = 4
_i$ = -4						; size = 4
_mem$ = 8						; size = 4
_size$ = 12						; size = 4
_DumpMemory@8 PROC					; COMDAT

; 143  : {

  00000	8b ff		 npad	 2
  00002	55		 push	 ebp
  00003	8b ec		 mov	 ebp, esp
  00005	83 ec 24	 sub	 esp, 36			; 00000024H
  00008	a1 00 00 00 00	 mov	 eax, DWORD PTR ___security_cookie
  0000d	33 c5		 xor	 eax, ebp
  0000f	89 45 f0	 mov	 DWORD PTR __$ArrayPad$[ebp], eax

; 144  : 	unsigned char str[20];
; 145  : 	unsigned char *m = mem;

  00012	8b 45 08	 mov	 eax, DWORD PTR _mem$[ebp]
  00015	89 45 f4	 mov	 DWORD PTR _m$[ebp], eax

; 146  : 	int i,j;
; 147  : 
; 148  : 	for (j = 0; j < size / 8; j++)

  00018	c7 45 f8 00 00
	00 00		 mov	 DWORD PTR _j$[ebp], 0
  0001f	eb 09		 jmp	 SHORT $LN8@DumpMemory
$LN7@DumpMemory:
  00021	8b 4d f8	 mov	 ecx, DWORD PTR _j$[ebp]
  00024	83 c1 01	 add	 ecx, 1
  00027	89 4d f8	 mov	 DWORD PTR _j$[ebp], ecx
$LN8@DumpMemory:
  0002a	8b 45 0c	 mov	 eax, DWORD PTR _size$[ebp]
  0002d	99		 cdq
  0002e	83 e2 07	 and	 edx, 7
  00031	03 c2		 add	 eax, edx
  00033	c1 f8 03	 sar	 eax, 3
  00036	39 45 f8	 cmp	 DWORD PTR _j$[ebp], eax
  00039	0f 8d c2 00 00
	00		 jge	 $LN9@DumpMemory

; 149  : 	{
; 150  : 		memset (str,0,sizeof str);

  0003f	33 d2		 xor	 edx, edx
  00041	89 55 dc	 mov	 DWORD PTR _str$[ebp], edx
  00044	89 55 e0	 mov	 DWORD PTR _str$[ebp+4], edx
  00047	89 55 e4	 mov	 DWORD PTR _str$[ebp+8], edx
  0004a	89 55 e8	 mov	 DWORD PTR _str$[ebp+12], edx
  0004d	89 55 ec	 mov	 DWORD PTR _str$[ebp+16], edx

; 151  : 		for (i = 0; i < 8; i++) 

  00050	c7 45 fc 00 00
	00 00		 mov	 DWORD PTR _i$[ebp], 0
  00057	eb 09		 jmp	 SHORT $LN5@DumpMemory
$LN4@DumpMemory:
  00059	8b 45 fc	 mov	 eax, DWORD PTR _i$[ebp]
  0005c	83 c0 01	 add	 eax, 1
  0005f	89 45 fc	 mov	 DWORD PTR _i$[ebp], eax
$LN5@DumpMemory:
  00062	83 7d fc 08	 cmp	 DWORD PTR _i$[ebp], 8
  00066	7d 37		 jge	 SHORT $LN3@DumpMemory

; 152  : 		{
; 153  : 			if (m[i] > ' ' && m[i] <= '~')

  00068	8b 4d f4	 mov	 ecx, DWORD PTR _m$[ebp]
  0006b	03 4d fc	 add	 ecx, DWORD PTR _i$[ebp]
  0006e	0f b6 11	 movzx	 edx, BYTE PTR [ecx]
  00071	83 fa 20	 cmp	 edx, 32			; 00000020H
  00074	7e 1f		 jle	 SHORT $LN2@DumpMemory
  00076	8b 45 f4	 mov	 eax, DWORD PTR _m$[ebp]
  00079	03 45 fc	 add	 eax, DWORD PTR _i$[ebp]
  0007c	0f b6 08	 movzx	 ecx, BYTE PTR [eax]
  0007f	83 f9 7e	 cmp	 ecx, 126		; 0000007eH
  00082	7f 11		 jg	 SHORT $LN2@DumpMemory

; 154  : 				str[i]=m[i];

  00084	8b 55 f4	 mov	 edx, DWORD PTR _m$[ebp]
  00087	03 55 fc	 add	 edx, DWORD PTR _i$[ebp]
  0008a	8b 45 fc	 mov	 eax, DWORD PTR _i$[ebp]
  0008d	8a 0a		 mov	 cl, BYTE PTR [edx]
  0008f	88 4c 05 dc	 mov	 BYTE PTR _str$[ebp+eax], cl

; 155  : 			else

  00093	eb 08		 jmp	 SHORT $LN1@DumpMemory
$LN2@DumpMemory:

; 156  : 				str[i]='.';

  00095	8b 55 fc	 mov	 edx, DWORD PTR _i$[ebp]
  00098	c6 44 15 dc 2e	 mov	 BYTE PTR _str$[ebp+edx], 46 ; 0000002eH
$LN1@DumpMemory:

; 157  : 		}

  0009d	eb ba		 jmp	 SHORT $LN4@DumpMemory
$LN3@DumpMemory:

; 158  : 
; 159  : 		Dump ("0x%08p  %02x %02x %02x %02x %02x %02x %02x %02x  %s\n",
; 160  : 			m, m[0], m[1], m[2], m[3], m[4], m[5], m[6], m[7], str);

  0009f	8d 45 dc	 lea	 eax, DWORD PTR _str$[ebp]
  000a2	50		 push	 eax
  000a3	8b 4d f4	 mov	 ecx, DWORD PTR _m$[ebp]
  000a6	0f b6 51 07	 movzx	 edx, BYTE PTR [ecx+7]
  000aa	52		 push	 edx
  000ab	8b 45 f4	 mov	 eax, DWORD PTR _m$[ebp]
  000ae	0f b6 48 06	 movzx	 ecx, BYTE PTR [eax+6]
  000b2	51		 push	 ecx
  000b3	8b 55 f4	 mov	 edx, DWORD PTR _m$[ebp]
  000b6	0f b6 42 05	 movzx	 eax, BYTE PTR [edx+5]
  000ba	50		 push	 eax
  000bb	8b 4d f4	 mov	 ecx, DWORD PTR _m$[ebp]
  000be	0f b6 51 04	 movzx	 edx, BYTE PTR [ecx+4]
  000c2	52		 push	 edx
  000c3	8b 45 f4	 mov	 eax, DWORD PTR _m$[ebp]
  000c6	0f b6 48 03	 movzx	 ecx, BYTE PTR [eax+3]
  000ca	51		 push	 ecx
  000cb	8b 55 f4	 mov	 edx, DWORD PTR _m$[ebp]
  000ce	0f b6 42 02	 movzx	 eax, BYTE PTR [edx+2]
  000d2	50		 push	 eax
  000d3	8b 4d f4	 mov	 ecx, DWORD PTR _m$[ebp]
  000d6	0f b6 51 01	 movzx	 edx, BYTE PTR [ecx+1]
  000da	52		 push	 edx
  000db	8b 45 f4	 mov	 eax, DWORD PTR _m$[ebp]
  000de	0f b6 08	 movzx	 ecx, BYTE PTR [eax]
  000e1	51		 push	 ecx
  000e2	8b 55 f4	 mov	 edx, DWORD PTR _m$[ebp]
  000e5	52		 push	 edx
  000e6	68 00 00 00 00	 push	 OFFSET ??_C@_0DF@IHIBAGEA@0x?$CF08p?5?5?$CF02x?5?$CF02x?5?$CF02x?5?$CF02x?5?$CF02x@FNODOBFM@
  000eb	e8 00 00 00 00	 call	 _DbgPrint
  000f0	83 c4 2c	 add	 esp, 44			; 0000002cH

; 161  : 
; 162  : 		m+=8;

  000f3	8b 45 f4	 mov	 eax, DWORD PTR _m$[ebp]
  000f6	83 c0 08	 add	 eax, 8
  000f9	89 45 f4	 mov	 DWORD PTR _m$[ebp], eax

; 163  : 	}

  000fc	e9 20 ff ff ff	 jmp	 $LN7@DumpMemory
$LN9@DumpMemory:

; 164  : }

  00101	8b 4d f0	 mov	 ecx, DWORD PTR __$ArrayPad$[ebp]
  00104	33 cd		 xor	 ecx, ebp
  00106	e8 00 00 00 00	 call	 @__security_check_cookie@4
  0010b	8b e5		 mov	 esp, ebp
  0010d	5d		 pop	 ebp
  0010e	c2 08 00	 ret	 8
_DumpMemory@8 ENDP
_TEXT	ENDS
PUBLIC	??_C@_0FE@HIDEPCAO@STATUS_BUFFER_TOO_SMALL?5ioctl?$DN0x@FNODOBFM@ ;  ?? ::FNODOBFM::`string'
PUBLIC	_IoGetCurrentIrpStackLocation@4
PUBLIC	_ValidateIOBufferSize@12
;	COMDAT ??_C@_0FE@HIDEPCAO@STATUS_BUFFER_TOO_SMALL?5ioctl?$DN0x@FNODOBFM@
text$s	SEGMENT
??_C@_0FE@HIDEPCAO@STATUS_BUFFER_TOO_SMALL?5ioctl?$DN0x@FNODOBFM@ DB 'STA'
	DB	'TUS_BUFFER_TOO_SMALL ioctl=0x%x,%d in=%d out=%d reqsize=%d in'
	DB	'size=%d outsize=%d', 0aH, 00H		;  ?? ::FNODOBFM::`string'
; Function compile flags: /Odtp
text$s	ENDS
;	COMDAT _ValidateIOBufferSize@12
_TEXT	SEGMENT
tv71 = -20						; size = 4
tv68 = -16						; size = 4
_irpSp$ = -12						; size = 4
_input$ = -8						; size = 4
_output$ = -4						; size = 4
_irp$ = 8						; size = 4
_requiredBufferSize$ = 12				; size = 4
_type$ = 16						; size = 4
_ValidateIOBufferSize@12 PROC				; COMDAT

; 168  : {

  00000	8b ff		 npad	 2
  00002	55		 push	 ebp
  00003	8b ec		 mov	 ebp, esp
  00005	83 ec 14	 sub	 esp, 20			; 00000014H

; 169  : 	PIO_STACK_LOCATION irpSp = IoGetCurrentIrpStackLocation (irp);

  00008	8b 45 08	 mov	 eax, DWORD PTR _irp$[ebp]
  0000b	50		 push	 eax
  0000c	e8 00 00 00 00	 call	 _IoGetCurrentIrpStackLocation@4
  00011	89 45 f4	 mov	 DWORD PTR _irpSp$[ebp], eax

; 170  : 	BOOL input = (type == ValidateInput || type == ValidateInputOutput);

  00014	83 7d 10 00	 cmp	 DWORD PTR _type$[ebp], 0
  00018	74 0f		 je	 SHORT $LN7@ValidateIO
  0001a	83 7d 10 02	 cmp	 DWORD PTR _type$[ebp], 2
  0001e	74 09		 je	 SHORT $LN7@ValidateIO
  00020	c7 45 f0 00 00
	00 00		 mov	 DWORD PTR tv68[ebp], 0
  00027	eb 07		 jmp	 SHORT $LN8@ValidateIO
$LN7@ValidateIO:
  00029	c7 45 f0 01 00
	00 00		 mov	 DWORD PTR tv68[ebp], 1
$LN8@ValidateIO:
  00030	8b 4d f0	 mov	 ecx, DWORD PTR tv68[ebp]
  00033	89 4d f8	 mov	 DWORD PTR _input$[ebp], ecx

; 171  : 	BOOL output = (type == ValidateOutput || type == ValidateInputOutput);

  00036	83 7d 10 01	 cmp	 DWORD PTR _type$[ebp], 1
  0003a	74 0f		 je	 SHORT $LN9@ValidateIO
  0003c	83 7d 10 02	 cmp	 DWORD PTR _type$[ebp], 2
  00040	74 09		 je	 SHORT $LN9@ValidateIO
  00042	c7 45 ec 00 00
	00 00		 mov	 DWORD PTR tv71[ebp], 0
  00049	eb 07		 jmp	 SHORT $LN10@ValidateIO
$LN9@ValidateIO:
  0004b	c7 45 ec 01 00
	00 00		 mov	 DWORD PTR tv71[ebp], 1
$LN10@ValidateIO:
  00052	8b 55 ec	 mov	 edx, DWORD PTR tv71[ebp]
  00055	89 55 fc	 mov	 DWORD PTR _output$[ebp], edx

; 172  : 
; 173  : 	if ((input && irpSp->Parameters.DeviceIoControl.InputBufferLength < requiredBufferSize)
; 174  : 		|| (output && irpSp->Parameters.DeviceIoControl.OutputBufferLength < requiredBufferSize))

  00058	83 7d f8 00	 cmp	 DWORD PTR _input$[ebp], 0
  0005c	74 0b		 je	 SHORT $LN2@ValidateIO
  0005e	8b 45 f4	 mov	 eax, DWORD PTR _irpSp$[ebp]
  00061	8b 48 08	 mov	 ecx, DWORD PTR [eax+8]
  00064	3b 4d 0c	 cmp	 ecx, DWORD PTR _requiredBufferSize$[ebp]
  00067	72 11		 jb	 SHORT $LN3@ValidateIO
$LN2@ValidateIO:
  00069	83 7d fc 00	 cmp	 DWORD PTR _output$[ebp], 0
  0006d	74 63		 je	 SHORT $LN4@ValidateIO
  0006f	8b 55 f4	 mov	 edx, DWORD PTR _irpSp$[ebp]
  00072	8b 42 04	 mov	 eax, DWORD PTR [edx+4]
  00075	3b 45 0c	 cmp	 eax, DWORD PTR _requiredBufferSize$[ebp]
  00078	73 58		 jae	 SHORT $LN4@ValidateIO
$LN3@ValidateIO:

; 175  : 	{
; 176  : 		Dump ("STATUS_BUFFER_TOO_SMALL ioctl=0x%x,%d in=%d out=%d reqsize=%d insize=%d outsize=%d\n", (int) (irpSp->Parameters.DeviceIoControl.IoControlCode >> 16), (int) ((irpSp->Parameters.DeviceIoControl.IoControlCode & 0x1FFF) >> 2), input, output, requiredBufferSize, irpSp->Parameters.DeviceIoControl.InputBufferLength, irpSp->Parameters.DeviceIoControl.OutputBufferLength);

  0007a	8b 4d f4	 mov	 ecx, DWORD PTR _irpSp$[ebp]
  0007d	8b 51 04	 mov	 edx, DWORD PTR [ecx+4]
  00080	52		 push	 edx
  00081	8b 45 f4	 mov	 eax, DWORD PTR _irpSp$[ebp]
  00084	8b 48 08	 mov	 ecx, DWORD PTR [eax+8]
  00087	51		 push	 ecx
  00088	8b 55 0c	 mov	 edx, DWORD PTR _requiredBufferSize$[ebp]
  0008b	52		 push	 edx
  0008c	8b 45 fc	 mov	 eax, DWORD PTR _output$[ebp]
  0008f	50		 push	 eax
  00090	8b 4d f8	 mov	 ecx, DWORD PTR _input$[ebp]
  00093	51		 push	 ecx
  00094	8b 55 f4	 mov	 edx, DWORD PTR _irpSp$[ebp]
  00097	8b 42 0c	 mov	 eax, DWORD PTR [edx+12]
  0009a	25 ff 1f 00 00	 and	 eax, 8191		; 00001fffH
  0009f	c1 e8 02	 shr	 eax, 2
  000a2	50		 push	 eax
  000a3	8b 4d f4	 mov	 ecx, DWORD PTR _irpSp$[ebp]
  000a6	8b 51 0c	 mov	 edx, DWORD PTR [ecx+12]
  000a9	c1 ea 10	 shr	 edx, 16			; 00000010H
  000ac	52		 push	 edx
  000ad	68 00 00 00 00	 push	 OFFSET ??_C@_0FE@HIDEPCAO@STATUS_BUFFER_TOO_SMALL?5ioctl?$DN0x@FNODOBFM@
  000b2	e8 00 00 00 00	 call	 _DbgPrint
  000b7	83 c4 20	 add	 esp, 32			; 00000020H

; 177  : 
; 178  : 		irp->IoStatus.Status = STATUS_BUFFER_TOO_SMALL;

  000ba	8b 45 08	 mov	 eax, DWORD PTR _irp$[ebp]
  000bd	c7 40 18 23 00
	00 c0		 mov	 DWORD PTR [eax+24], -1073741789 ; c0000023H

; 179  : 		irp->IoStatus.Information = 0;

  000c4	8b 4d 08	 mov	 ecx, DWORD PTR _irp$[ebp]
  000c7	c7 41 1c 00 00
	00 00		 mov	 DWORD PTR [ecx+28], 0

; 180  : 		return FALSE;

  000ce	33 c0		 xor	 eax, eax
  000d0	eb 29		 jmp	 SHORT $LN5@ValidateIO
$LN4@ValidateIO:

; 181  : 	}
; 182  : 
; 183  : 	if (!input && output)

  000d2	83 7d f8 00	 cmp	 DWORD PTR _input$[ebp], 0
  000d6	75 1e		 jne	 SHORT $LN1@ValidateIO
  000d8	83 7d fc 00	 cmp	 DWORD PTR _output$[ebp], 0
  000dc	74 18		 je	 SHORT $LN1@ValidateIO

; 184  : 		memset (irp->AssociatedIrp.SystemBuffer, 0, irpSp->Parameters.DeviceIoControl.OutputBufferLength);

  000de	8b 55 f4	 mov	 edx, DWORD PTR _irpSp$[ebp]
  000e1	8b 42 04	 mov	 eax, DWORD PTR [edx+4]
  000e4	50		 push	 eax
  000e5	6a 00		 push	 0
  000e7	8b 4d 08	 mov	 ecx, DWORD PTR _irp$[ebp]
  000ea	8b 51 0c	 mov	 edx, DWORD PTR [ecx+12]
  000ed	52		 push	 edx
  000ee	e8 00 00 00 00	 call	 _memset
  000f3	83 c4 0c	 add	 esp, 12			; 0000000cH
$LN1@ValidateIO:

; 185  : 
; 186  : 	return TRUE;

  000f6	b8 01 00 00 00	 mov	 eax, 1
$LN5@ValidateIO:

; 187  : }

  000fb	8b e5		 mov	 esp, ebp
  000fd	5d		 pop	 ebp
  000fe	c2 0c 00	 ret	 12			; 0000000cH
_ValidateIOBufferSize@12 ENDP
_TEXT	ENDS
PUBLIC	??_C@_0CM@LOONDNKF@Irp?9?$DOCurrentLocation?5?$DM?$DN?5Irp?9?$DOSta@FNODOBFM@ ;  ?? ::FNODOBFM::`string'
PUBLIC	??_C@_0CF@LIHGPBLF@c?3?2winddk?27600?416385?41?2inc?2ddk?2w@FNODOBFM@ ;  ?? ::FNODOBFM::`string'
EXTRN	__imp__RtlAssert@16:PROC
;	COMDAT ??_C@_0CM@LOONDNKF@Irp?9?$DOCurrentLocation?5?$DM?$DN?5Irp?9?$DOSta@FNODOBFM@
; File c:\winddk\7600.16385.1\inc\ddk\wdm.h
text$s	SEGMENT
??_C@_0CM@LOONDNKF@Irp?9?$DOCurrentLocation?5?$DM?$DN?5Irp?9?$DOSta@FNODOBFM@ DB 'I'
	DB	'rp->CurrentLocation <= Irp->StackCount + 1', 00H ;  ?? ::FNODOBFM::`string'
text$s	ENDS
;	COMDAT ??_C@_0CF@LIHGPBLF@c?3?2winddk?27600?416385?41?2inc?2ddk?2w@FNODOBFM@
text$s	SEGMENT
??_C@_0CF@LIHGPBLF@c?3?2winddk?27600?416385?41?2inc?2ddk?2w@FNODOBFM@ DB 'c'
	DB	':\winddk\7600.16385.1\inc\ddk\wdm.h', 00H	;  ?? ::FNODOBFM::`string'
; Function compile flags: /Odtp
text$s	ENDS
;	COMDAT _IoGetCurrentIrpStackLocation@4
_TEXT	SEGMENT
tv74 = -4						; size = 4
_Irp$ = 8						; size = 4
_IoGetCurrentIrpStackLocation@4 PROC			; COMDAT

; 23316: {

  00000	8b ff		 npad	 2
  00002	55		 push	 ebp
  00003	8b ec		 mov	 ebp, esp
  00005	51		 push	 ecx

; 23317:     ASSERT(Irp->CurrentLocation <= Irp->StackCount + 1);

  00006	8b 45 08	 mov	 eax, DWORD PTR _Irp$[ebp]
  00009	0f be 48 23	 movsx	 ecx, BYTE PTR [eax+35]
  0000d	8b 55 08	 mov	 edx, DWORD PTR _Irp$[ebp]
  00010	0f be 42 22	 movsx	 eax, BYTE PTR [edx+34]
  00014	83 c0 01	 add	 eax, 1
  00017	3b c8		 cmp	 ecx, eax
  00019	7e 20		 jle	 SHORT $LN3@IoGetCurre
  0001b	6a 00		 push	 0
  0001d	68 15 5b 00 00	 push	 23317			; 00005b15H
  00022	68 00 00 00 00	 push	 OFFSET ??_C@_0CF@LIHGPBLF@c?3?2winddk?27600?416385?41?2inc?2ddk?2w@FNODOBFM@
  00027	68 00 00 00 00	 push	 OFFSET ??_C@_0CM@LOONDNKF@Irp?9?$DOCurrentLocation?5?$DM?$DN?5Irp?9?$DOSta@FNODOBFM@
  0002c	ff 15 00 00 00
	00		 call	 DWORD PTR __imp__RtlAssert@16
  00032	c7 45 fc 00 00
	00 00		 mov	 DWORD PTR tv74[ebp], 0
  00039	eb 07		 jmp	 SHORT $LN4@IoGetCurre
$LN3@IoGetCurre:
  0003b	c7 45 fc 01 00
	00 00		 mov	 DWORD PTR tv74[ebp], 1
$LN4@IoGetCurre:

; 23318:     return Irp->Tail.Overlay.CurrentStackLocation;

  00042	8b 4d 08	 mov	 ecx, DWORD PTR _Irp$[ebp]
  00045	8b 41 60	 mov	 eax, DWORD PTR [ecx+96]

; 23319: }

  00048	8b e5		 mov	 esp, ebp
  0004a	5d		 pop	 ebp
  0004b	c2 04 00	 ret	 4
_IoGetCurrentIrpStackLocation@4 ENDP
_TEXT	ENDS
PUBLIC	_GetVirtualVolumeDeviceObject@4
; Function compile flags: /Odtp
; File c:\users\public\desktop\projects\ciphershed\src\driver\ntdriver.c
;	COMDAT _GetVirtualVolumeDeviceObject@4
_TEXT	SEGMENT
_driveNumber$ = 8					; size = 4
_GetVirtualVolumeDeviceObject@4 PROC			; COMDAT

; 191  : {

  00000	8b ff		 npad	 2
  00002	55		 push	 ebp
  00003	8b ec		 mov	 ebp, esp

; 192  : 	if (driveNumber < MIN_MOUNTED_VOLUME_DRIVE_NUMBER || driveNumber > MAX_MOUNTED_VOLUME_DRIVE_NUMBER)

  00005	83 7d 08 00	 cmp	 DWORD PTR _driveNumber$[ebp], 0
  00009	7c 06		 jl	 SHORT $LN1@GetVirtual
  0000b	83 7d 08 19	 cmp	 DWORD PTR _driveNumber$[ebp], 25 ; 00000019H
  0000f	7e 04		 jle	 SHORT $LN2@GetVirtual
$LN1@GetVirtual:

; 193  : 		return NULL;

  00011	33 c0		 xor	 eax, eax
  00013	eb 0a		 jmp	 SHORT $LN3@GetVirtual
$LN2@GetVirtual:

; 194  : 
; 195  : 	return VirtualVolumeDeviceObjects[driveNumber];

  00015	8b 45 08	 mov	 eax, DWORD PTR _driveNumber$[ebp]
  00018	8b 04 85 00 00
	00 00		 mov	 eax, DWORD PTR _VirtualVolumeDeviceObjects[eax*4]
$LN3@GetVirtual:

; 196  : }

  0001f	5d		 pop	 ebp
  00020	c2 04 00	 ret	 4
_GetVirtualVolumeDeviceObject@4 ENDP
_TEXT	ENDS
PUBLIC	_IoMarkIrpPending@4
PUBLIC	_TCCompleteIrp@12
PUBLIC	??_C@_0EC@PIHBGAHH@c?3?2users?2public?2desktop?2projects@FNODOBFM@ ;  ?? ::FNODOBFM::`string'
PUBLIC	??_C@_0EI@NJLFEPKD@Removable?5device?5?$CFd?5has?5DO_VERIF@FNODOBFM@ ;  ?? ::FNODOBFM::`string'
PUBLIC	_TCCompleteDiskIrp@12
PUBLIC	??_C@_0DA@HGPNLENJ@Device?5?$CFd?5shutting?5down?3?5STATUS_@FNODOBFM@ ;  ?? ::FNODOBFM::`string'
PUBLIC	_ProcessMainDeviceControlIrp@12
PUBLIC	_OnShutdownPending@0
PUBLIC	_SendDeviceIoControlRequest@24
PUBLIC	??_C@_0BG@JHFMBFJC@Driver?5shutting?5down?6?$AA@FNODOBFM@ ;  ?? ::FNODOBFM::`string'
PUBLIC	??_C@_0P@CMDFIGFB@?$CFls?5?$CI0x?$CFx?5?$CFd?$CJ?6?$AA@FNODOBFM@ ;  ?? ::FNODOBFM::`string'
PUBLIC	_TCTranslateCode@4
EXTRN	__imp__KeReleaseSemaphore@16:PROC
EXTRN	__imp_@ExfInterlockedInsertTailList@12:PROC
EXTRN	__imp__IoAcquireRemoveLockEx@20:PROC
EXTRN	_EncryptedIoQueueAddIrp@8:PROC
EXTRN	__imp__KeReleaseMutex@8:PROC
EXTRN	__imp__KeWaitForSingleObject@20:PROC
EXTRN	_DecoySystemWipeThread:DWORD
EXTRN	_EncryptionSetupThread:DWORD
EXTRN	_COMPLETE_IRP@16:PROC
EXTRN	_VolumeFilterDispatchIrp@8:PROC
EXTRN	_DriveFilterDispatchIrp@8:PROC
_BSS	SEGMENT
_RootDeviceControlMutex DB 020H DUP (?)
_BSS	ENDS
;	COMDAT ??_C@_0EC@PIHBGAHH@c?3?2users?2public?2desktop?2projects@FNODOBFM@
text$s	SEGMENT
??_C@_0EC@PIHBGAHH@c?3?2users?2public?2desktop?2projects@FNODOBFM@ DB 'c:'
	DB	'\users\public\desktop\projects\ciphershed\src\driver\ntdriver'
	DB	'.c', 00H					;  ?? ::FNODOBFM::`string'
text$s	ENDS
;	COMDAT ??_C@_0EI@NJLFEPKD@Removable?5device?5?$CFd?5has?5DO_VERIF@FNODOBFM@
text$s	SEGMENT
??_C@_0EI@NJLFEPKD@Removable?5device?5?$CFd?5has?5DO_VERIF@FNODOBFM@ DB 'R'
	DB	'emovable device %d has DO_VERIFY_VOLUME flag: STATUS_DEVICE_N'
	DB	'OT_READY', 0aH, 00H				;  ?? ::FNODOBFM::`string'
text$s	ENDS
;	COMDAT ??_C@_0DA@HGPNLENJ@Device?5?$CFd?5shutting?5down?3?5STATUS_@FNODOBFM@
text$s	SEGMENT
??_C@_0DA@HGPNLENJ@Device?5?$CFd?5shutting?5down?3?5STATUS_@FNODOBFM@ DB 'D'
	DB	'evice %d shutting down: STATUS_DELETE_PENDING', 0aH, 00H ;  ?? ::FNODOBFM::`string'
text$s	ENDS
;	COMDAT ??_C@_0BG@JHFMBFJC@Driver?5shutting?5down?6?$AA@FNODOBFM@
text$s	SEGMENT
??_C@_0BG@JHFMBFJC@Driver?5shutting?5down?6?$AA@FNODOBFM@ DB 'Driver shut'
	DB	'ting down', 0aH, 00H			;  ?? ::FNODOBFM::`string'
text$s	ENDS
;	COMDAT ??_C@_0P@CMDFIGFB@?$CFls?5?$CI0x?$CFx?5?$CFd?$CJ?6?$AA@FNODOBFM@
text$s	SEGMENT
??_C@_0P@CMDFIGFB@?$CFls?5?$CI0x?$CFx?5?$CFd?$CJ?6?$AA@FNODOBFM@ DB '%ls '
	DB	'(0x%x %d)', 0aH, 00H			;  ?? ::FNODOBFM::`string'
; Function compile flags: /Odtp
text$s	ENDS
;	COMDAT _TCDispatchQueueIRP@8
_TEXT	SEGMENT
tv210 = -28						; size = 4
tv135 = -24						; size = 4
tv73 = -20						; size = 4
_status$29878 = -16					; size = 4
_irpSp$ = -12						; size = 4
_ntStatus$ = -8						; size = 4
_Extension$ = -4					; size = 4
_DeviceObject$ = 8					; size = 4
_Irp$ = 12						; size = 4
_TCDispatchQueueIRP@8 PROC				; COMDAT

; 202  : {

  00000	8b ff		 npad	 2
  00002	55		 push	 ebp
  00003	8b ec		 mov	 ebp, esp
  00005	83 ec 1c	 sub	 esp, 28			; 0000001cH

; 203  : 	PEXTENSION Extension = (PEXTENSION) DeviceObject->DeviceExtension;

  00008	8b 45 08	 mov	 eax, DWORD PTR _DeviceObject$[ebp]
  0000b	8b 48 28	 mov	 ecx, DWORD PTR [eax+40]
  0000e	89 4d fc	 mov	 DWORD PTR _Extension$[ebp], ecx

; 204  : 	PIO_STACK_LOCATION irpSp = IoGetCurrentIrpStackLocation (Irp);

  00011	8b 55 0c	 mov	 edx, DWORD PTR _Irp$[ebp]
  00014	52		 push	 edx
  00015	e8 00 00 00 00	 call	 _IoGetCurrentIrpStackLocation@4
  0001a	89 45 f4	 mov	 DWORD PTR _irpSp$[ebp], eax

; 205  : 	NTSTATUS ntStatus;
; 206  : 
; 207  : #ifdef _DEBUG
; 208  : 	if (irpSp->MajorFunction == IRP_MJ_DEVICE_CONTROL && (Extension->bRootDevice || Extension->IsVolumeDevice))

  0001d	8b 45 f4	 mov	 eax, DWORD PTR _irpSp$[ebp]
  00020	0f b6 08	 movzx	 ecx, BYTE PTR [eax]
  00023	83 f9 0e	 cmp	 ecx, 14			; 0000000eH
  00026	0f 85 8f 00 00
	00		 jne	 $LN35@TCDispatch
  0002c	8b 55 fc	 mov	 edx, DWORD PTR _Extension$[ebp]
  0002f	83 3a 00	 cmp	 DWORD PTR [edx], 0
  00032	75 09		 jne	 SHORT $LN34@TCDispatch
  00034	8b 45 fc	 mov	 eax, DWORD PTR _Extension$[ebp]
  00037	83 78 04 00	 cmp	 DWORD PTR [eax+4], 0
  0003b	74 7e		 je	 SHORT $LN35@TCDispatch
$LN34@TCDispatch:

; 209  : 	{
; 210  : 		switch (irpSp->Parameters.DeviceIoControl.IoControlCode)

  0003d	8b 4d f4	 mov	 ecx, DWORD PTR _irpSp$[ebp]
  00040	8b 51 0c	 mov	 edx, DWORD PTR [ecx+12]
  00043	89 55 ec	 mov	 DWORD PTR tv73[ebp], edx
  00046	81 7d ec 18 20
	22 00		 cmp	 DWORD PTR tv73[ebp], 2236440 ; 00222018H
  0004d	77 14		 ja	 SHORT $LN38@TCDispatch
  0004f	81 7d ec 18 20
	22 00		 cmp	 DWORD PTR tv73[ebp], 2236440 ; 00222018H
  00056	74 2d		 je	 SHORT $LN31@TCDispatch
  00058	81 7d ec 00 48
	07 00		 cmp	 DWORD PTR tv73[ebp], 477184 ; 00074800H
  0005f	74 24		 je	 SHORT $LN31@TCDispatch
  00061	eb 24		 jmp	 SHORT $LN30@TCDispatch
$LN38@TCDispatch:
  00063	8b 45 ec	 mov	 eax, DWORD PTR tv73[ebp]
  00066	2d 20 20 22 00	 sub	 eax, 2236448		; 00222020H
  0006b	89 45 ec	 mov	 DWORD PTR tv73[ebp], eax
  0006e	83 7d ec 6c	 cmp	 DWORD PTR tv73[ebp], 108 ; 0000006cH
  00072	77 13		 ja	 SHORT $LN30@TCDispatch
  00074	8b 4d ec	 mov	 ecx, DWORD PTR tv73[ebp]
  00077	0f b6 91 00 00
	00 00		 movzx	 edx, BYTE PTR $LN39@TCDispatch[ecx]
  0007e	ff 24 95 00 00
	00 00		 jmp	 DWORD PTR $LN42@TCDispatch[edx*4]
$LN31@TCDispatch:

; 211  : 		{
; 212  : 		case TC_IOCTL_GET_MOUNTED_VOLUMES:
; 213  : 		case TC_IOCTL_GET_PASSWORD_CACHE_STATUS:
; 214  : 		case TC_IOCTL_GET_PORTABLE_MODE_STATUS:
; 215  : 		case TC_IOCTL_SET_PORTABLE_MODE_STATUS:
; 216  : 		case TC_IOCTL_OPEN_TEST:
; 217  : 		case TC_IOCTL_GET_RESOLVED_SYMLINK:
; 218  : 		case TC_IOCTL_GET_DEVICE_REFCOUNT:
; 219  : 		case TC_IOCTL_GET_DRIVE_PARTITION_INFO:
; 220  : 		case TC_IOCTL_GET_BOOT_DRIVE_VOLUME_PROPERTIES:
; 221  : 		case TC_IOCTL_GET_BOOT_ENCRYPTION_STATUS:
; 222  : 		case TC_IOCTL_GET_DECOY_SYSTEM_WIPE_STATUS:
; 223  : 		case TC_IOCTL_GET_WARNING_FLAGS:
; 224  : 		case TC_IOCTL_IS_HIDDEN_SYSTEM_RUNNING:
; 225  : 		case IOCTL_DISK_CHECK_VERIFY:
; 226  : 			break;

  00085	eb 34		 jmp	 SHORT $LN35@TCDispatch
$LN30@TCDispatch:

; 227  : 
; 228  : 		default:
; 229  : 			Dump ("%ls (0x%x %d)\n",
; 230  : 				TCTranslateCode (irpSp->Parameters.DeviceIoControl.IoControlCode),
; 231  : 				(int) (irpSp->Parameters.DeviceIoControl.IoControlCode >> 16),
; 232  : 				(int) ((irpSp->Parameters.DeviceIoControl.IoControlCode & 0x1FFF) >> 2));

  00087	8b 45 f4	 mov	 eax, DWORD PTR _irpSp$[ebp]
  0008a	8b 48 0c	 mov	 ecx, DWORD PTR [eax+12]
  0008d	81 e1 ff 1f 00
	00		 and	 ecx, 8191		; 00001fffH
  00093	c1 e9 02	 shr	 ecx, 2
  00096	51		 push	 ecx
  00097	8b 55 f4	 mov	 edx, DWORD PTR _irpSp$[ebp]
  0009a	8b 42 0c	 mov	 eax, DWORD PTR [edx+12]
  0009d	c1 e8 10	 shr	 eax, 16			; 00000010H
  000a0	50		 push	 eax
  000a1	8b 4d f4	 mov	 ecx, DWORD PTR _irpSp$[ebp]
  000a4	8b 51 0c	 mov	 edx, DWORD PTR [ecx+12]
  000a7	52		 push	 edx
  000a8	e8 00 00 00 00	 call	 _TCTranslateCode@4
  000ad	50		 push	 eax
  000ae	68 00 00 00 00	 push	 OFFSET ??_C@_0P@CMDFIGFB@?$CFls?5?$CI0x?$CFx?5?$CFd?$CJ?6?$AA@FNODOBFM@
  000b3	e8 00 00 00 00	 call	 _DbgPrint
  000b8	83 c4 10	 add	 esp, 16			; 00000010H
$LN35@TCDispatch:

; 233  : 		}
; 234  : 	}
; 235  : #endif
; 236  : 
; 237  : 	if (!Extension->bRootDevice)

  000bb	8b 45 fc	 mov	 eax, DWORD PTR _Extension$[ebp]
  000be	83 38 00	 cmp	 DWORD PTR [eax], 0
  000c1	75 36		 jne	 SHORT $LN29@TCDispatch

; 238  : 	{
; 239  : 		// Drive filter IRP
; 240  : 		if (Extension->IsDriveFilterDevice)

  000c3	8b 4d fc	 mov	 ecx, DWORD PTR _Extension$[ebp]
  000c6	83 79 08 00	 cmp	 DWORD PTR [ecx+8], 0
  000ca	74 12		 je	 SHORT $LN28@TCDispatch

; 241  : 			return DriveFilterDispatchIrp (DeviceObject, Irp);

  000cc	8b 55 0c	 mov	 edx, DWORD PTR _Irp$[ebp]
  000cf	52		 push	 edx
  000d0	8b 45 08	 mov	 eax, DWORD PTR _DeviceObject$[ebp]
  000d3	50		 push	 eax
  000d4	e8 00 00 00 00	 call	 _DriveFilterDispatchIrp@8
  000d9	e9 1b 03 00 00	 jmp	 $LN36@TCDispatch
$LN28@TCDispatch:

; 242  : 
; 243  : 		// Volume filter IRP
; 244  : 		if (Extension->IsVolumeFilterDevice)

  000de	8b 4d fc	 mov	 ecx, DWORD PTR _Extension$[ebp]
  000e1	83 79 0c 00	 cmp	 DWORD PTR [ecx+12], 0
  000e5	74 12		 je	 SHORT $LN29@TCDispatch

; 245  : 			return VolumeFilterDispatchIrp (DeviceObject, Irp);

  000e7	8b 55 0c	 mov	 edx, DWORD PTR _Irp$[ebp]
  000ea	52		 push	 edx
  000eb	8b 45 08	 mov	 eax, DWORD PTR _DeviceObject$[ebp]
  000ee	50		 push	 eax
  000ef	e8 00 00 00 00	 call	 _VolumeFilterDispatchIrp@8
  000f4	e9 00 03 00 00	 jmp	 $LN36@TCDispatch
$LN29@TCDispatch:

; 246  : 	}
; 247  : 
; 248  : 	switch (irpSp->MajorFunction)

  000f9	8b 4d f4	 mov	 ecx, DWORD PTR _irpSp$[ebp]
  000fc	0f b6 11	 movzx	 edx, BYTE PTR [ecx]
  000ff	89 55 e8	 mov	 DWORD PTR tv135[ebp], edx
  00102	83 7d e8 1b	 cmp	 DWORD PTR tv135[ebp], 27 ; 0000001bH
  00106	0f 87 dd 02 00
	00		 ja	 $LN25@TCDispatch
  0010c	8b 45 e8	 mov	 eax, DWORD PTR tv135[ebp]
  0010f	0f b6 88 00 00
	00 00		 movzx	 ecx, BYTE PTR $LN40@TCDispatch[eax]
  00116	ff 24 8d 00 00
	00 00		 jmp	 DWORD PTR $LN43@TCDispatch[ecx*4]
$LN24@TCDispatch:

; 249  : 	{
; 250  : 	case IRP_MJ_CLOSE:
; 251  : 	case IRP_MJ_CREATE:
; 252  : 	case IRP_MJ_CLEANUP:
; 253  : 		return COMPLETE_IRP (DeviceObject, Irp, STATUS_SUCCESS, 0);

  0011d	6a 00		 push	 0
  0011f	6a 00		 push	 0
  00121	8b 55 0c	 mov	 edx, DWORD PTR _Irp$[ebp]
  00124	52		 push	 edx
  00125	8b 45 08	 mov	 eax, DWORD PTR _DeviceObject$[ebp]
  00128	50		 push	 eax
  00129	e8 00 00 00 00	 call	 _COMPLETE_IRP@16
  0012e	e9 c6 02 00 00	 jmp	 $LN36@TCDispatch
$LN23@TCDispatch:

; 254  : 
; 255  : 	case IRP_MJ_SHUTDOWN:
; 256  : 		if (Extension->bRootDevice)

  00133	8b 4d fc	 mov	 ecx, DWORD PTR _Extension$[ebp]
  00136	83 39 00	 cmp	 DWORD PTR [ecx], 0
  00139	74 71		 je	 SHORT $LN22@TCDispatch

; 257  : 		{
; 258  : 			Dump ("Driver shutting down\n");

  0013b	68 00 00 00 00	 push	 OFFSET ??_C@_0BG@JHFMBFJC@Driver?5shutting?5down?6?$AA@FNODOBFM@
  00140	e8 00 00 00 00	 call	 _DbgPrint
  00145	83 c4 04	 add	 esp, 4

; 259  : 			DriverShuttingDown = TRUE;

  00148	c7 05 00 00 00
	00 01 00 00 00	 mov	 DWORD PTR _DriverShuttingDown, 1

; 260  : 
; 261  : 			if (EncryptionSetupThread)

  00152	83 3d 00 00 00
	00 00		 cmp	 DWORD PTR _EncryptionSetupThread, 0
  00159	74 22		 je	 SHORT $LN21@TCDispatch
$LN20@TCDispatch:

; 262  : 				while (SendDeviceIoControlRequest (RootDeviceObject, TC_IOCTL_ABORT_BOOT_ENCRYPTION_SETUP, NULL, 0, NULL, 0) == STATUS_INSUFFICIENT_RESOURCES);

  0015b	6a 00		 push	 0
  0015d	6a 00		 push	 0
  0015f	6a 00		 push	 0
  00161	6a 00		 push	 0
  00163	68 50 20 22 00	 push	 2236496			; 00222050H
  00168	8b 15 00 00 00
	00		 mov	 edx, DWORD PTR _RootDeviceObject
  0016e	52		 push	 edx
  0016f	e8 00 00 00 00	 call	 _SendDeviceIoControlRequest@24
  00174	3d 9a 00 00 c0	 cmp	 eax, -1073741670	; c000009aH
  00179	75 02		 jne	 SHORT $LN21@TCDispatch
  0017b	eb de		 jmp	 SHORT $LN20@TCDispatch
$LN21@TCDispatch:

; 263  : 
; 264  : 			if (DecoySystemWipeThread)

  0017d	83 3d 00 00 00
	00 00		 cmp	 DWORD PTR _DecoySystemWipeThread, 0
  00184	74 21		 je	 SHORT $LN18@TCDispatch
$LN17@TCDispatch:

; 265  : 				while (SendDeviceIoControlRequest (RootDeviceObject, TC_IOCTL_ABORT_DECOY_SYSTEM_WIPE, NULL, 0, NULL, 0) == STATUS_INSUFFICIENT_RESOURCES);

  00186	6a 00		 push	 0
  00188	6a 00		 push	 0
  0018a	6a 00		 push	 0
  0018c	6a 00		 push	 0
  0018e	68 7c 20 22 00	 push	 2236540			; 0022207cH
  00193	a1 00 00 00 00	 mov	 eax, DWORD PTR _RootDeviceObject
  00198	50		 push	 eax
  00199	e8 00 00 00 00	 call	 _SendDeviceIoControlRequest@24
  0019e	3d 9a 00 00 c0	 cmp	 eax, -1073741670	; c000009aH
  001a3	75 02		 jne	 SHORT $LN18@TCDispatch
  001a5	eb df		 jmp	 SHORT $LN17@TCDispatch
$LN18@TCDispatch:

; 266  : 
; 267  : 			OnShutdownPending();

  001a7	e8 00 00 00 00	 call	 _OnShutdownPending@0
$LN22@TCDispatch:

; 268  : 		}
; 269  : 
; 270  : 		return COMPLETE_IRP (DeviceObject, Irp, STATUS_SUCCESS, 0);

  001ac	6a 00		 push	 0
  001ae	6a 00		 push	 0
  001b0	8b 4d 0c	 mov	 ecx, DWORD PTR _Irp$[ebp]
  001b3	51		 push	 ecx
  001b4	8b 55 08	 mov	 edx, DWORD PTR _DeviceObject$[ebp]
  001b7	52		 push	 edx
  001b8	e8 00 00 00 00	 call	 _COMPLETE_IRP@16
  001bd	e9 37 02 00 00	 jmp	 $LN36@TCDispatch
$LN15@TCDispatch:

; 271  : 
; 272  : 	case IRP_MJ_FLUSH_BUFFERS:
; 273  : 	case IRP_MJ_READ:
; 274  : 	case IRP_MJ_WRITE:
; 275  : 	case IRP_MJ_DEVICE_CONTROL:
; 276  : 
; 277  : 		if (Extension->bRootDevice)

  001c2	8b 45 fc	 mov	 eax, DWORD PTR _Extension$[ebp]
  001c5	83 38 00	 cmp	 DWORD PTR [eax], 0
  001c8	74 5d		 je	 SHORT $LN14@TCDispatch

; 278  : 		{
; 279  : 			if (irpSp->MajorFunction == IRP_MJ_DEVICE_CONTROL)

  001ca	8b 4d f4	 mov	 ecx, DWORD PTR _irpSp$[ebp]
  001cd	0f b6 11	 movzx	 edx, BYTE PTR [ecx]
  001d0	83 fa 0e	 cmp	 edx, 14			; 0000000eH
  001d3	75 4d		 jne	 SHORT $LN13@TCDispatch

; 280  : 			{
; 281  : 				NTSTATUS status = KeWaitForMutexObject (&RootDeviceControlMutex, Executive, KernelMode, FALSE, NULL);

  001d5	6a 00		 push	 0
  001d7	6a 00		 push	 0
  001d9	6a 00		 push	 0
  001db	6a 00		 push	 0
  001dd	68 00 00 00 00	 push	 OFFSET _RootDeviceControlMutex
  001e2	ff 15 00 00 00
	00		 call	 DWORD PTR __imp__KeWaitForSingleObject@20
  001e8	89 45 f0	 mov	 DWORD PTR _status$29878[ebp], eax

; 282  : 				if (!NT_SUCCESS (status))

  001eb	83 7d f0 00	 cmp	 DWORD PTR _status$29878[ebp], 0
  001ef	7d 08		 jge	 SHORT $LN12@TCDispatch

; 283  : 					return status;

  001f1	8b 45 f0	 mov	 eax, DWORD PTR _status$29878[ebp]
  001f4	e9 00 02 00 00	 jmp	 $LN36@TCDispatch
$LN12@TCDispatch:

; 284  : 
; 285  : 				status = ProcessMainDeviceControlIrp (DeviceObject, Extension, Irp);

  001f9	8b 45 0c	 mov	 eax, DWORD PTR _Irp$[ebp]
  001fc	50		 push	 eax
  001fd	8b 4d fc	 mov	 ecx, DWORD PTR _Extension$[ebp]
  00200	51		 push	 ecx
  00201	8b 55 08	 mov	 edx, DWORD PTR _DeviceObject$[ebp]
  00204	52		 push	 edx
  00205	e8 00 00 00 00	 call	 _ProcessMainDeviceControlIrp@12
  0020a	89 45 f0	 mov	 DWORD PTR _status$29878[ebp], eax

; 286  : 
; 287  : 				KeReleaseMutex (&RootDeviceControlMutex, FALSE);

  0020d	6a 00		 push	 0
  0020f	68 00 00 00 00	 push	 OFFSET _RootDeviceControlMutex
  00214	ff 15 00 00 00
	00		 call	 DWORD PTR __imp__KeReleaseMutex@8

; 288  : 				return status;

  0021a	8b 45 f0	 mov	 eax, DWORD PTR _status$29878[ebp]
  0021d	e9 d7 01 00 00	 jmp	 $LN36@TCDispatch
$LN13@TCDispatch:

; 289  : 			}
; 290  : 			break;

  00222	e9 c2 01 00 00	 jmp	 $LN25@TCDispatch
$LN14@TCDispatch:

; 291  : 		}
; 292  : 
; 293  : 		if (Extension->bShuttingDown)

  00227	8b 45 fc	 mov	 eax, DWORD PTR _Extension$[ebp]
  0022a	83 78 18 00	 cmp	 DWORD PTR [eax+24], 0
  0022e	74 29		 je	 SHORT $LN11@TCDispatch

; 294  : 		{
; 295  : 			Dump ("Device %d shutting down: STATUS_DELETE_PENDING\n", Extension->nDosDriveNo);

  00230	8b 4d fc	 mov	 ecx, DWORD PTR _Extension$[ebp]
  00233	8b 51 14	 mov	 edx, DWORD PTR [ecx+20]
  00236	52		 push	 edx
  00237	68 00 00 00 00	 push	 OFFSET ??_C@_0DA@HGPNLENJ@Device?5?$CFd?5shutting?5down?3?5STATUS_@FNODOBFM@
  0023c	e8 00 00 00 00	 call	 _DbgPrint
  00241	83 c4 08	 add	 esp, 8

; 296  : 			return TCCompleteDiskIrp (Irp, STATUS_DELETE_PENDING, 0);

  00244	6a 00		 push	 0
  00246	68 56 00 00 c0	 push	 -1073741738		; c0000056H
  0024b	8b 45 0c	 mov	 eax, DWORD PTR _Irp$[ebp]
  0024e	50		 push	 eax
  0024f	e8 00 00 00 00	 call	 _TCCompleteDiskIrp@12
  00254	e9 a0 01 00 00	 jmp	 $LN36@TCDispatch
$LN11@TCDispatch:

; 297  : 		}
; 298  : 
; 299  : 		if (Extension->bRemovable
; 300  : 			&& (DeviceObject->Flags & DO_VERIFY_VOLUME)
; 301  : 			&& !(irpSp->Flags & SL_OVERRIDE_VERIFY_VOLUME)
; 302  : 			&& irpSp->MajorFunction != IRP_MJ_FLUSH_BUFFERS)

  00259	8b 4d fc	 mov	 ecx, DWORD PTR _Extension$[ebp]
  0025c	83 b9 8c 02 00
	00 00		 cmp	 DWORD PTR [ecx+652], 0
  00263	74 4b		 je	 SHORT $LN10@TCDispatch
  00265	8b 55 08	 mov	 edx, DWORD PTR _DeviceObject$[ebp]
  00268	8b 42 1c	 mov	 eax, DWORD PTR [edx+28]
  0026b	83 e0 02	 and	 eax, 2
  0026e	74 40		 je	 SHORT $LN10@TCDispatch
  00270	8b 4d f4	 mov	 ecx, DWORD PTR _irpSp$[ebp]
  00273	0f b6 51 02	 movzx	 edx, BYTE PTR [ecx+2]
  00277	83 e2 02	 and	 edx, 2
  0027a	75 34		 jne	 SHORT $LN10@TCDispatch
  0027c	8b 45 f4	 mov	 eax, DWORD PTR _irpSp$[ebp]
  0027f	0f b6 08	 movzx	 ecx, BYTE PTR [eax]
  00282	83 f9 09	 cmp	 ecx, 9
  00285	74 29		 je	 SHORT $LN10@TCDispatch

; 303  : 		{
; 304  : 			Dump ("Removable device %d has DO_VERIFY_VOLUME flag: STATUS_DEVICE_NOT_READY\n", Extension->nDosDriveNo);

  00287	8b 55 fc	 mov	 edx, DWORD PTR _Extension$[ebp]
  0028a	8b 42 14	 mov	 eax, DWORD PTR [edx+20]
  0028d	50		 push	 eax
  0028e	68 00 00 00 00	 push	 OFFSET ??_C@_0EI@NJLFEPKD@Removable?5device?5?$CFd?5has?5DO_VERIF@FNODOBFM@
  00293	e8 00 00 00 00	 call	 _DbgPrint
  00298	83 c4 08	 add	 esp, 8

; 305  : 			return TCCompleteDiskIrp (Irp, STATUS_DEVICE_NOT_READY, 0);

  0029b	6a 00		 push	 0
  0029d	68 a3 00 00 c0	 push	 -1073741661		; c00000a3H
  002a2	8b 4d 0c	 mov	 ecx, DWORD PTR _Irp$[ebp]
  002a5	51		 push	 ecx
  002a6	e8 00 00 00 00	 call	 _TCCompleteDiskIrp@12
  002ab	e9 49 01 00 00	 jmp	 $LN36@TCDispatch
$LN10@TCDispatch:

; 306  : 		}
; 307  : 
; 308  : 		switch (irpSp->MajorFunction)

  002b0	8b 55 f4	 mov	 edx, DWORD PTR _irpSp$[ebp]
  002b3	0f b6 02	 movzx	 eax, BYTE PTR [edx]
  002b6	89 45 e4	 mov	 DWORD PTR tv210[ebp], eax
  002b9	8b 4d e4	 mov	 ecx, DWORD PTR tv210[ebp]
  002bc	83 e9 03	 sub	 ecx, 3
  002bf	89 4d e4	 mov	 DWORD PTR tv210[ebp], ecx
  002c2	83 7d e4 0b	 cmp	 DWORD PTR tv210[ebp], 11 ; 0000000bH
  002c6	0f 87 ce 00 00
	00		 ja	 $LN8@TCDispatch
  002cc	8b 55 e4	 mov	 edx, DWORD PTR tv210[ebp]
  002cf	0f b6 82 00 00
	00 00		 movzx	 eax, BYTE PTR $LN41@TCDispatch[edx]
  002d6	ff 24 85 00 00
	00 00		 jmp	 DWORD PTR $LN44@TCDispatch[eax*4]
$LN7@TCDispatch:

; 309  : 		{
; 310  : 		case IRP_MJ_READ:
; 311  : 		case IRP_MJ_WRITE:
; 312  : 			ntStatus = EncryptedIoQueueAddIrp (&Extension->Queue, Irp);

  002dd	8b 4d 0c	 mov	 ecx, DWORD PTR _Irp$[ebp]
  002e0	51		 push	 ecx
  002e1	8b 55 fc	 mov	 edx, DWORD PTR _Extension$[ebp]
  002e4	81 c2 a8 00 00
	00		 add	 edx, 168		; 000000a8H
  002ea	52		 push	 edx
  002eb	e8 00 00 00 00	 call	 _EncryptedIoQueueAddIrp@8
  002f0	89 45 f8	 mov	 DWORD PTR _ntStatus$[ebp], eax

; 313  : 
; 314  : 			if (ntStatus != STATUS_PENDING)

  002f3	81 7d f8 03 01
	00 00		 cmp	 DWORD PTR _ntStatus$[ebp], 259 ; 00000103H
  002fa	74 0f		 je	 SHORT $LN6@TCDispatch

; 315  : 				TCCompleteDiskIrp (Irp, ntStatus, 0);

  002fc	6a 00		 push	 0
  002fe	8b 45 f8	 mov	 eax, DWORD PTR _ntStatus$[ebp]
  00301	50		 push	 eax
  00302	8b 4d 0c	 mov	 ecx, DWORD PTR _Irp$[ebp]
  00305	51		 push	 ecx
  00306	e8 00 00 00 00	 call	 _TCCompleteDiskIrp@12
$LN6@TCDispatch:

; 316  : 
; 317  : 			return ntStatus;

  0030b	8b 45 f8	 mov	 eax, DWORD PTR _ntStatus$[ebp]
  0030e	e9 e6 00 00 00	 jmp	 $LN36@TCDispatch
$LN5@TCDispatch:

; 318  : 
; 319  : 		case IRP_MJ_DEVICE_CONTROL:
; 320  : 			ntStatus = IoAcquireRemoveLock (&Extension->Queue.RemoveLock, Irp);

  00313	6a 58		 push	 88			; 00000058H
  00315	68 40 01 00 00	 push	 320			; 00000140H
  0031a	68 00 00 00 00	 push	 OFFSET ??_C@_0EC@PIHBGAHH@c?3?2users?2public?2desktop?2projects@FNODOBFM@
  0031f	8b 55 0c	 mov	 edx, DWORD PTR _Irp$[ebp]
  00322	52		 push	 edx
  00323	8b 45 fc	 mov	 eax, DWORD PTR _Extension$[ebp]
  00326	05 18 01 00 00	 add	 eax, 280		; 00000118H
  0032b	50		 push	 eax
  0032c	ff 15 00 00 00
	00		 call	 DWORD PTR __imp__IoAcquireRemoveLockEx@20
  00332	89 45 f8	 mov	 DWORD PTR _ntStatus$[ebp], eax

; 321  : 			if (!NT_SUCCESS (ntStatus))

  00335	83 7d f8 00	 cmp	 DWORD PTR _ntStatus$[ebp], 0
  00339	7d 14		 jge	 SHORT $LN4@TCDispatch

; 322  : 				return TCCompleteIrp (Irp, ntStatus, 0);

  0033b	6a 00		 push	 0
  0033d	8b 4d f8	 mov	 ecx, DWORD PTR _ntStatus$[ebp]
  00340	51		 push	 ecx
  00341	8b 55 0c	 mov	 edx, DWORD PTR _Irp$[ebp]
  00344	52		 push	 edx
  00345	e8 00 00 00 00	 call	 _TCCompleteIrp@12
  0034a	e9 aa 00 00 00	 jmp	 $LN36@TCDispatch
$LN4@TCDispatch:

; 323  : 
; 324  : 			IoMarkIrpPending (Irp);

  0034f	8b 45 0c	 mov	 eax, DWORD PTR _Irp$[ebp]
  00352	50		 push	 eax
  00353	e8 00 00 00 00	 call	 _IoMarkIrpPending@4

; 325  : 			
; 326  : 			ExInterlockedInsertTailList (&Extension->ListEntry, &Irp->Tail.Overlay.ListEntry, &Extension->ListSpinLock);

  00358	8b 4d fc	 mov	 ecx, DWORD PTR _Extension$[ebp]
  0035b	83 c1 34	 add	 ecx, 52			; 00000034H
  0035e	51		 push	 ecx
  0035f	8b 55 0c	 mov	 edx, DWORD PTR _Irp$[ebp]
  00362	83 c2 58	 add	 edx, 88			; 00000058H
  00365	8b 4d fc	 mov	 ecx, DWORD PTR _Extension$[ebp]
  00368	83 c1 38	 add	 ecx, 56			; 00000038H
  0036b	ff 15 00 00 00
	00		 call	 DWORD PTR __imp_@ExfInterlockedInsertTailList@12

; 327  : 			KeReleaseSemaphore (&Extension->RequestSemaphore, IO_DISK_INCREMENT, 1, FALSE);

  00371	6a 00		 push	 0
  00373	6a 01		 push	 1
  00375	6a 01		 push	 1
  00377	8b 55 fc	 mov	 edx, DWORD PTR _Extension$[ebp]
  0037a	83 c2 40	 add	 edx, 64			; 00000040H
  0037d	52		 push	 edx
  0037e	ff 15 00 00 00
	00		 call	 DWORD PTR __imp__KeReleaseSemaphore@16

; 328  : 			
; 329  : 			return STATUS_PENDING;

  00384	b8 03 01 00 00	 mov	 eax, 259		; 00000103H
  00389	eb 6e		 jmp	 SHORT $LN36@TCDispatch
$LN3@TCDispatch:

; 330  : 
; 331  : 		case IRP_MJ_FLUSH_BUFFERS:
; 332  : 			return TCCompleteDiskIrp (Irp, STATUS_SUCCESS, 0);

  0038b	6a 00		 push	 0
  0038d	6a 00		 push	 0
  0038f	8b 45 0c	 mov	 eax, DWORD PTR _Irp$[ebp]
  00392	50		 push	 eax
  00393	e8 00 00 00 00	 call	 _TCCompleteDiskIrp@12
  00398	eb 5f		 jmp	 SHORT $LN36@TCDispatch
$LN8@TCDispatch:

; 333  : 		}
; 334  : 
; 335  : 		break;

  0039a	eb 4d		 jmp	 SHORT $LN25@TCDispatch
$LN2@TCDispatch:

; 336  : 
; 337  : 	case IRP_MJ_PNP:
; 338  : 		if (!Extension->bRootDevice
; 339  : 			&& Extension->IsVolumeDevice
; 340  : 			&& irpSp->MinorFunction == IRP_MN_DEVICE_USAGE_NOTIFICATION
; 341  : 			&& irpSp->Parameters.UsageNotification.Type == DeviceUsageTypePaging
; 342  : 			&& irpSp->Parameters.UsageNotification.InPath)

  0039c	8b 4d fc	 mov	 ecx, DWORD PTR _Extension$[ebp]
  0039f	83 39 00	 cmp	 DWORD PTR [ecx], 0
  003a2	75 45		 jne	 SHORT $LN25@TCDispatch
  003a4	8b 55 fc	 mov	 edx, DWORD PTR _Extension$[ebp]
  003a7	83 7a 04 00	 cmp	 DWORD PTR [edx+4], 0
  003ab	74 3c		 je	 SHORT $LN25@TCDispatch
  003ad	8b 45 f4	 mov	 eax, DWORD PTR _irpSp$[ebp]
  003b0	0f b6 48 01	 movzx	 ecx, BYTE PTR [eax+1]
  003b4	83 f9 16	 cmp	 ecx, 22			; 00000016H
  003b7	75 30		 jne	 SHORT $LN25@TCDispatch
  003b9	8b 55 f4	 mov	 edx, DWORD PTR _irpSp$[ebp]
  003bc	83 7a 08 01	 cmp	 DWORD PTR [edx+8], 1
  003c0	75 27		 jne	 SHORT $LN25@TCDispatch
  003c2	8b 45 f4	 mov	 eax, DWORD PTR _irpSp$[ebp]
  003c5	0f b6 48 04	 movzx	 ecx, BYTE PTR [eax+4]
  003c9	85 c9		 test	 ecx, ecx
  003cb	74 1c		 je	 SHORT $LN25@TCDispatch

; 343  : 		{
; 344  : 			PagingFileCreationPrevented = TRUE;

  003cd	c7 05 00 00 00
	00 01 00 00 00	 mov	 DWORD PTR _PagingFileCreationPrevented, 1

; 345  : 			return TCCompleteIrp (Irp, STATUS_UNSUCCESSFUL, 0);

  003d7	6a 00		 push	 0
  003d9	68 01 00 00 c0	 push	 -1073741823		; c0000001H
  003de	8b 55 0c	 mov	 edx, DWORD PTR _Irp$[ebp]
  003e1	52		 push	 edx
  003e2	e8 00 00 00 00	 call	 _TCCompleteIrp@12
  003e7	eb 10		 jmp	 SHORT $LN36@TCDispatch
$LN25@TCDispatch:

; 346  : 		}
; 347  : 		break;
; 348  : 	}
; 349  : 
; 350  : 	return TCCompleteIrp (Irp, STATUS_INVALID_DEVICE_REQUEST, 0);

  003e9	6a 00		 push	 0
  003eb	68 10 00 00 c0	 push	 -1073741808		; c0000010H
  003f0	8b 45 0c	 mov	 eax, DWORD PTR _Irp$[ebp]
  003f3	50		 push	 eax
  003f4	e8 00 00 00 00	 call	 _TCCompleteIrp@12
$LN36@TCDispatch:

; 351  : }

  003f9	8b e5		 mov	 esp, ebp
  003fb	5d		 pop	 ebp
  003fc	c2 08 00	 ret	 8
  003ff	90		 npad	 1
$LN42@TCDispatch:
  00400	00 00 00 00	 DD	 $LN31@TCDispatch
  00404	00 00 00 00	 DD	 $LN30@TCDispatch
$LN39@TCDispatch:
  00408	00		 DB	 0
  00409	01		 DB	 1
  0040a	01		 DB	 1
  0040b	01		 DB	 1
  0040c	01		 DB	 1
  0040d	01		 DB	 1
  0040e	01		 DB	 1
  0040f	01		 DB	 1
  00410	01		 DB	 1
  00411	01		 DB	 1
  00412	01		 DB	 1
  00413	01		 DB	 1
  00414	00		 DB	 0
  00415	01		 DB	 1
  00416	01		 DB	 1
  00417	01		 DB	 1
  00418	01		 DB	 1
  00419	01		 DB	 1
  0041a	01		 DB	 1
  0041b	01		 DB	 1
  0041c	00		 DB	 0
  0041d	01		 DB	 1
  0041e	01		 DB	 1
  0041f	01		 DB	 1
  00420	00		 DB	 0
  00421	01		 DB	 1
  00422	01		 DB	 1
  00423	01		 DB	 1
  00424	01		 DB	 1
  00425	01		 DB	 1
  00426	01		 DB	 1
  00427	01		 DB	 1
  00428	01		 DB	 1
  00429	01		 DB	 1
  0042a	01		 DB	 1
  0042b	01		 DB	 1
  0042c	00		 DB	 0
  0042d	01		 DB	 1
  0042e	01		 DB	 1
  0042f	01		 DB	 1
  00430	00		 DB	 0
  00431	01		 DB	 1
  00432	01		 DB	 1
  00433	01		 DB	 1
  00434	01		 DB	 1
  00435	01		 DB	 1
  00436	01		 DB	 1
  00437	01		 DB	 1
  00438	01		 DB	 1
  00439	01		 DB	 1
  0043a	01		 DB	 1
  0043b	01		 DB	 1
  0043c	01		 DB	 1
  0043d	01		 DB	 1
  0043e	01		 DB	 1
  0043f	01		 DB	 1
  00440	00		 DB	 0
  00441	01		 DB	 1
  00442	01		 DB	 1
  00443	01		 DB	 1
  00444	01		 DB	 1
  00445	01		 DB	 1
  00446	01		 DB	 1
  00447	01		 DB	 1
  00448	01		 DB	 1
  00449	01		 DB	 1
  0044a	01		 DB	 1
  0044b	01		 DB	 1
  0044c	00		 DB	 0
  0044d	01		 DB	 1
  0044e	01		 DB	 1
  0044f	01		 DB	 1
  00450	00		 DB	 0
  00451	01		 DB	 1
  00452	01		 DB	 1
  00453	01		 DB	 1
  00454	00		 DB	 0
  00455	01		 DB	 1
  00456	01		 DB	 1
  00457	01		 DB	 1
  00458	01		 DB	 1
  00459	01		 DB	 1
  0045a	01		 DB	 1
  0045b	01		 DB	 1
  0045c	01		 DB	 1
  0045d	01		 DB	 1
  0045e	01		 DB	 1
  0045f	01		 DB	 1
  00460	01		 DB	 1
  00461	01		 DB	 1
  00462	01		 DB	 1
  00463	01		 DB	 1
  00464	01		 DB	 1
  00465	01		 DB	 1
  00466	01		 DB	 1
  00467	01		 DB	 1
  00468	00		 DB	 0
  00469	01		 DB	 1
  0046a	01		 DB	 1
  0046b	01		 DB	 1
  0046c	01		 DB	 1
  0046d	01		 DB	 1
  0046e	01		 DB	 1
  0046f	01		 DB	 1
  00470	01		 DB	 1
  00471	01		 DB	 1
  00472	01		 DB	 1
  00473	01		 DB	 1
  00474	00		 DB	 0
  00475	8d 49 00	 npad	 3
$LN43@TCDispatch:
  00478	00 00 00 00	 DD	 $LN24@TCDispatch
  0047c	00 00 00 00	 DD	 $LN15@TCDispatch
  00480	00 00 00 00	 DD	 $LN23@TCDispatch
  00484	00 00 00 00	 DD	 $LN2@TCDispatch
  00488	00 00 00 00	 DD	 $LN25@TCDispatch
$LN40@TCDispatch:
  0048c	00		 DB	 0
  0048d	04		 DB	 4
  0048e	00		 DB	 0
  0048f	01		 DB	 1
  00490	01		 DB	 1
  00491	04		 DB	 4
  00492	04		 DB	 4
  00493	04		 DB	 4
  00494	04		 DB	 4
  00495	01		 DB	 1
  00496	04		 DB	 4
  00497	04		 DB	 4
  00498	04		 DB	 4
  00499	04		 DB	 4
  0049a	01		 DB	 1
  0049b	04		 DB	 4
  0049c	02		 DB	 2
  0049d	04		 DB	 4
  0049e	00		 DB	 0
  0049f	04		 DB	 4
  004a0	04		 DB	 4
  004a1	04		 DB	 4
  004a2	04		 DB	 4
  004a3	04		 DB	 4
  004a4	04		 DB	 4
  004a5	04		 DB	 4
  004a6	04		 DB	 4
  004a7	03		 DB	 3
$LN44@TCDispatch:
  004a8	00 00 00 00	 DD	 $LN7@TCDispatch
  004ac	00 00 00 00	 DD	 $LN3@TCDispatch
  004b0	00 00 00 00	 DD	 $LN5@TCDispatch
  004b4	00 00 00 00	 DD	 $LN8@TCDispatch
$LN41@TCDispatch:
  004b8	00		 DB	 0
  004b9	00		 DB	 0
  004ba	03		 DB	 3
  004bb	03		 DB	 3
  004bc	03		 DB	 3
  004bd	03		 DB	 3
  004be	01		 DB	 1
  004bf	03		 DB	 3
  004c0	03		 DB	 3
  004c1	03		 DB	 3
  004c2	03		 DB	 3
  004c3	02		 DB	 2
_TCDispatchQueueIRP@8 ENDP
; Function compile flags: /Odtp
; File c:\winddk\7600.16385.1\inc\ddk\wdm.h
_TEXT	ENDS
;	COMDAT _IoMarkIrpPending@4
_TEXT	SEGMENT
tv67 = -4						; size = 4
_Irp$ = 8						; size = 4
_IoMarkIrpPending@4 PROC				; COMDAT

; 23667: {

  00000	8b ff		 npad	 2
  00002	55		 push	 ebp
  00003	8b ec		 mov	 ebp, esp
  00005	51		 push	 ecx

; 23668:     IoGetCurrentIrpStackLocation( (Irp) )->Control |= SL_PENDING_RETURNED;

  00006	8b 45 08	 mov	 eax, DWORD PTR _Irp$[ebp]
  00009	50		 push	 eax
  0000a	e8 00 00 00 00	 call	 _IoGetCurrentIrpStackLocation@4
  0000f	83 c0 03	 add	 eax, 3
  00012	89 45 fc	 mov	 DWORD PTR tv67[ebp], eax
  00015	8b 4d fc	 mov	 ecx, DWORD PTR tv67[ebp]
  00018	0f b6 11	 movzx	 edx, BYTE PTR [ecx]
  0001b	83 ca 01	 or	 edx, 1
  0001e	8b 45 fc	 mov	 eax, DWORD PTR tv67[ebp]
  00021	88 10		 mov	 BYTE PTR [eax], dl

; 23669: }

  00023	8b e5		 mov	 esp, ebp
  00025	5d		 pop	 ebp
  00026	c2 04 00	 ret	 4
_IoMarkIrpPending@4 ENDP
_TEXT	ENDS
PUBLIC	??_C@_0CN@PMFMKKNC@TCCreateRootDeviceObject?5STATUS_@PBOPGDP@ ;  ?? ::PBOPGDP::`string'
PUBLIC	??_C@_0DA@OJGNPLJ@TCCreateRootDeviceObject?5NTSTATU@PBOPGDP@ ;  ?? ::PBOPGDP::`string'
PUBLIC	??_C@_0CF@KMOPKHLE@Creating?5root?5device?5nt?$DN?$CFls?5dos?$DN@PBOPGDP@ ;  ?? ::PBOPGDP::`string'
PUBLIC	??_C@_1CM@KJDLPNIG@?$AA?2?$AAD?$AAo?$AAs?$AAD?$AAe?$AAv?$AAi?$AAc?$AAe?$AAs?$AA?2?$AAT?$AAr?$AAu?$AAe?$AAC?$AAr?$AAy?$AAp?$AAt?$AA?$AA@PBOPGDP@ ;  ?? ::PBOPGDP::`string'
PUBLIC	??_C@_0CE@KKOENIAD@KeGetCurrentIrql?$CI?$CJ?5?$DN?$DN?5PASSIVE_LE@PBOPGDP@ ;  ?? ::PBOPGDP::`string'
PUBLIC	??_C@_0EC@PIHBGAHH@c?3?2users?2public?2desktop?2projects@PBOPGDP@ ;  ?? ::PBOPGDP::`string'
PUBLIC	??_C@_0CA@NGANHIBM@TCCreateRootDeviceObject?5BEGIN?6?$AA@PBOPGDP@ ;  ?? ::PBOPGDP::`string'
PUBLIC	__$ArrayPad$
EXTRN	__imp__IoRegisterShutdownNotification@4:PROC
EXTRN	__imp__IoDeleteDevice@4:PROC
EXTRN	__imp__IoCreateSymbolicLink@8:PROC
EXTRN	__imp__KeInitializeMutex@8:PROC
EXTRN	__imp__IoCreateDevice@28:PROC
EXTRN	__imp__RtlInitUnicodeString@8:PROC
EXTRN	__imp__KeGetCurrentIrql@0:PROC
;	COMDAT ??_C@_0CN@PMFMKKNC@TCCreateRootDeviceObject?5STATUS_@PBOPGDP@
; File c:\users\public\desktop\projects\ciphershed\src\driver\ntdriver.c
INIT$s	SEGMENT
??_C@_0CN@PMFMKKNC@TCCreateRootDeviceObject?5STATUS_@PBOPGDP@ DB 'TCCreat'
	DB	'eRootDeviceObject STATUS_SUCCESS END', 0aH, 00H ;  ?? ::PBOPGDP::`string'
INIT$s	ENDS
;	COMDAT ??_C@_0DA@OJGNPLJ@TCCreateRootDeviceObject?5NTSTATU@PBOPGDP@
INIT$s	SEGMENT
??_C@_0DA@OJGNPLJ@TCCreateRootDeviceObject?5NTSTATU@PBOPGDP@ DB 'TCCreate'
	DB	'RootDeviceObject NTSTATUS = 0x%08x END', 0aH, 00H ;  ?? ::PBOPGDP::`string'
INIT$s	ENDS
;	COMDAT ??_C@_0CF@KMOPKHLE@Creating?5root?5device?5nt?$DN?$CFls?5dos?$DN@PBOPGDP@
INIT$s	SEGMENT
??_C@_0CF@KMOPKHLE@Creating?5root?5device?5nt?$DN?$CFls?5dos?$DN@PBOPGDP@ DB 'C'
	DB	'reating root device nt=%ls dos=%ls', 0aH, 00H ;  ?? ::PBOPGDP::`string'
INIT$s	ENDS
;	COMDAT ??_C@_1CM@KJDLPNIG@?$AA?2?$AAD?$AAo?$AAs?$AAD?$AAe?$AAv?$AAi?$AAc?$AAe?$AAs?$AA?2?$AAT?$AAr?$AAu?$AAe?$AAC?$AAr?$AAy?$AAp?$AAt?$AA?$AA@PBOPGDP@
INIT$s	SEGMENT
??_C@_1CM@KJDLPNIG@?$AA?2?$AAD?$AAo?$AAs?$AAD?$AAe?$AAv?$AAi?$AAc?$AAe?$AAs?$AA?2?$AAT?$AAr?$AAu?$AAe?$AAC?$AAr?$AAy?$AAp?$AAt?$AA?$AA@PBOPGDP@ DB '\'
	DB	00H, 'D', 00H, 'o', 00H, 's', 00H, 'D', 00H, 'e', 00H, 'v', 00H
	DB	'i', 00H, 'c', 00H, 'e', 00H, 's', 00H, '\', 00H, 'T', 00H, 'r'
	DB	00H, 'u', 00H, 'e', 00H, 'C', 00H, 'r', 00H, 'y', 00H, 'p', 00H
	DB	't', 00H, 00H, 00H				;  ?? ::PBOPGDP::`string'
INIT$s	ENDS
;	COMDAT ??_C@_0CE@KKOENIAD@KeGetCurrentIrql?$CI?$CJ?5?$DN?$DN?5PASSIVE_LE@PBOPGDP@
INIT$s	SEGMENT
??_C@_0CE@KKOENIAD@KeGetCurrentIrql?$CI?$CJ?5?$DN?$DN?5PASSIVE_LE@PBOPGDP@ DB 'K'
	DB	'eGetCurrentIrql() == PASSIVE_LEVEL', 00H	;  ?? ::PBOPGDP::`string'
INIT$s	ENDS
;	COMDAT ??_C@_0EC@PIHBGAHH@c?3?2users?2public?2desktop?2projects@PBOPGDP@
INIT$s	SEGMENT
??_C@_0EC@PIHBGAHH@c?3?2users?2public?2desktop?2projects@PBOPGDP@ DB 'c:\'
	DB	'users\public\desktop\projects\ciphershed\src\driver\ntdriver.'
	DB	'c', 00H					;  ?? ::PBOPGDP::`string'
INIT$s	ENDS
;	COMDAT ??_C@_0CA@NGANHIBM@TCCreateRootDeviceObject?5BEGIN?6?$AA@PBOPGDP@
INIT$s	SEGMENT
??_C@_0CA@NGANHIBM@TCCreateRootDeviceObject?5BEGIN?6?$AA@PBOPGDP@ DB 'TCC'
	DB	'reateRootDeviceObject BEGIN', 0aH, 00H	;  ?? ::PBOPGDP::`string'
; Function compile flags: /Odtp
INIT$s	ENDS
;	COMDAT _TCCreateRootDeviceObject@4
INIT	SEGMENT
tv85 = -198						; size = 2
tv84 = -196						; size = 4
tv83 = -192						; size = 4
tv82 = -188						; size = 4
tv77 = -182						; size = 2
tv76 = -180						; size = 4
tv75 = -176						; size = 4
tv74 = -172						; size = 4
tv72 = -168						; size = 4
_ntStatus$ = -164					; size = 4
_dosname$ = -160					; size = 64
_DeviceObject$ = -96					; size = 4
_Win32NameString$ = -92					; size = 8
_bRootExtension$ = -84					; size = 4
_ntname$ = -80						; size = 64
__$ArrayPad$ = -12					; size = 4
_ntUnicodeString$ = -8					; size = 8
_DriverObject$ = 8					; size = 4
_TCCreateRootDeviceObject@4 PROC			; COMDAT

; 354  : {

  00000	8b ff		 npad	 2
  00002	55		 push	 ebp
  00003	8b ec		 mov	 ebp, esp
  00005	81 ec c8 00 00
	00		 sub	 esp, 200		; 000000c8H
  0000b	a1 00 00 00 00	 mov	 eax, DWORD PTR ___security_cookie
  00010	33 c5		 xor	 eax, ebp
  00012	89 45 f4	 mov	 DWORD PTR __$ArrayPad$[ebp], eax

; 355  : 	UNICODE_STRING Win32NameString, ntUnicodeString;
; 356  : 	WCHAR dosname[32], ntname[32];
; 357  : 	PDEVICE_OBJECT DeviceObject;
; 358  : 	NTSTATUS ntStatus;
; 359  : 	BOOL *bRootExtension;
; 360  : 
; 361  : 	Dump ("TCCreateRootDeviceObject BEGIN\n");

  00015	68 00 00 00 00	 push	 OFFSET ??_C@_0CA@NGANHIBM@TCCreateRootDeviceObject?5BEGIN?6?$AA@PBOPGDP@
  0001a	e8 00 00 00 00	 call	 _DbgPrint
  0001f	83 c4 04	 add	 esp, 4

; 362  : 	ASSERT (KeGetCurrentIrql() == PASSIVE_LEVEL);

  00022	ff 15 00 00 00
	00		 call	 DWORD PTR __imp__KeGetCurrentIrql@0
  00028	0f b6 c0	 movzx	 eax, al
  0002b	85 c0		 test	 eax, eax
  0002d	74 23		 je	 SHORT $LN5@TCCreateRo
  0002f	6a 00		 push	 0
  00031	68 6a 01 00 00	 push	 362			; 0000016aH
  00036	68 00 00 00 00	 push	 OFFSET ??_C@_0EC@PIHBGAHH@c?3?2users?2public?2desktop?2projects@PBOPGDP@
  0003b	68 00 00 00 00	 push	 OFFSET ??_C@_0CE@KKOENIAD@KeGetCurrentIrql?$CI?$CJ?5?$DN?$DN?5PASSIVE_LE@PBOPGDP@
  00040	ff 15 00 00 00
	00		 call	 DWORD PTR __imp__RtlAssert@16
  00046	c7 85 58 ff ff
	ff 00 00 00 00	 mov	 DWORD PTR tv72[ebp], 0
  00050	eb 0a		 jmp	 SHORT $LN6@TCCreateRo
$LN5@TCCreateRo:
  00052	c7 85 58 ff ff
	ff 01 00 00 00	 mov	 DWORD PTR tv72[ebp], 1
$LN6@TCCreateRo:

; 363  : 
; 364  : 	wcscpy (dosname, (LPWSTR) DOS_ROOT_PREFIX);

  0005c	c7 85 54 ff ff
	ff 00 00 00 00	 mov	 DWORD PTR tv74[ebp], OFFSET ??_C@_1CM@KJDLPNIG@?$AA?2?$AAD?$AAo?$AAs?$AAD?$AAe?$AAv?$AAi?$AAc?$AAe?$AAs?$AA?2?$AAT?$AAr?$AAu?$AAe?$AAC?$AAr?$AAy?$AAp?$AAt?$AA?$AA@PBOPGDP@
  00066	8d 8d 60 ff ff
	ff		 lea	 ecx, DWORD PTR _dosname$[ebp]
  0006c	89 8d 50 ff ff
	ff		 mov	 DWORD PTR tv75[ebp], ecx
  00072	8b 95 50 ff ff
	ff		 mov	 edx, DWORD PTR tv75[ebp]
  00078	89 95 4c ff ff
	ff		 mov	 DWORD PTR tv76[ebp], edx
$LN7@TCCreateRo:
  0007e	8b 85 54 ff ff
	ff		 mov	 eax, DWORD PTR tv74[ebp]
  00084	66 8b 08	 mov	 cx, WORD PTR [eax]
  00087	66 89 8d 4a ff
	ff ff		 mov	 WORD PTR tv77[ebp], cx
  0008e	8b 95 50 ff ff
	ff		 mov	 edx, DWORD PTR tv75[ebp]
  00094	66 8b 85 4a ff
	ff ff		 mov	 ax, WORD PTR tv77[ebp]
  0009b	66 89 02	 mov	 WORD PTR [edx], ax
  0009e	8b 8d 54 ff ff
	ff		 mov	 ecx, DWORD PTR tv74[ebp]
  000a4	83 c1 02	 add	 ecx, 2
  000a7	89 8d 54 ff ff
	ff		 mov	 DWORD PTR tv74[ebp], ecx
  000ad	8b 95 50 ff ff
	ff		 mov	 edx, DWORD PTR tv75[ebp]
  000b3	83 c2 02	 add	 edx, 2
  000b6	89 95 50 ff ff
	ff		 mov	 DWORD PTR tv75[ebp], edx
  000bc	66 83 bd 4a ff
	ff ff 00	 cmp	 WORD PTR tv77[ebp], 0
  000c4	75 b8		 jne	 SHORT $LN7@TCCreateRo

; 365  : 	wcscpy (ntname, (LPWSTR) NT_ROOT_PREFIX);

  000c6	c7 85 44 ff ff
	ff 00 00 00 00	 mov	 DWORD PTR tv82[ebp], OFFSET ??_C@_1CE@IPABBIFA@?$AA?2?$AAD?$AAe?$AAv?$AAi?$AAc?$AAe?$AA?2?$AAT?$AAr?$AAu?$AAe?$AAC?$AAr?$AAy?$AAp?$AAt?$AA?$AA@PBOPGDP@
  000d0	8d 45 b0	 lea	 eax, DWORD PTR _ntname$[ebp]
  000d3	89 85 40 ff ff
	ff		 mov	 DWORD PTR tv83[ebp], eax
  000d9	8b 8d 40 ff ff
	ff		 mov	 ecx, DWORD PTR tv83[ebp]
  000df	89 8d 3c ff ff
	ff		 mov	 DWORD PTR tv84[ebp], ecx
$LN8@TCCreateRo:
  000e5	8b 95 44 ff ff
	ff		 mov	 edx, DWORD PTR tv82[ebp]
  000eb	66 8b 02	 mov	 ax, WORD PTR [edx]
  000ee	66 89 85 3a ff
	ff ff		 mov	 WORD PTR tv85[ebp], ax
  000f5	8b 8d 40 ff ff
	ff		 mov	 ecx, DWORD PTR tv83[ebp]
  000fb	66 8b 95 3a ff
	ff ff		 mov	 dx, WORD PTR tv85[ebp]
  00102	66 89 11	 mov	 WORD PTR [ecx], dx
  00105	8b 85 44 ff ff
	ff		 mov	 eax, DWORD PTR tv82[ebp]
  0010b	83 c0 02	 add	 eax, 2
  0010e	89 85 44 ff ff
	ff		 mov	 DWORD PTR tv82[ebp], eax
  00114	8b 8d 40 ff ff
	ff		 mov	 ecx, DWORD PTR tv83[ebp]
  0011a	83 c1 02	 add	 ecx, 2
  0011d	89 8d 40 ff ff
	ff		 mov	 DWORD PTR tv83[ebp], ecx
  00123	66 83 bd 3a ff
	ff ff 00	 cmp	 WORD PTR tv85[ebp], 0
  0012b	75 b8		 jne	 SHORT $LN8@TCCreateRo

; 366  : 	RtlInitUnicodeString (&ntUnicodeString, ntname);

  0012d	8d 55 b0	 lea	 edx, DWORD PTR _ntname$[ebp]
  00130	52		 push	 edx
  00131	8d 45 f8	 lea	 eax, DWORD PTR _ntUnicodeString$[ebp]
  00134	50		 push	 eax
  00135	ff 15 00 00 00
	00		 call	 DWORD PTR __imp__RtlInitUnicodeString@8

; 367  : 	RtlInitUnicodeString (&Win32NameString, dosname);

  0013b	8d 8d 60 ff ff
	ff		 lea	 ecx, DWORD PTR _dosname$[ebp]
  00141	51		 push	 ecx
  00142	8d 55 a4	 lea	 edx, DWORD PTR _Win32NameString$[ebp]
  00145	52		 push	 edx
  00146	ff 15 00 00 00
	00		 call	 DWORD PTR __imp__RtlInitUnicodeString@8

; 368  : 
; 369  : 	Dump ("Creating root device nt=%ls dos=%ls\n", ntname, dosname);

  0014c	8d 85 60 ff ff
	ff		 lea	 eax, DWORD PTR _dosname$[ebp]
  00152	50		 push	 eax
  00153	8d 4d b0	 lea	 ecx, DWORD PTR _ntname$[ebp]
  00156	51		 push	 ecx
  00157	68 00 00 00 00	 push	 OFFSET ??_C@_0CF@KMOPKHLE@Creating?5root?5device?5nt?$DN?$CFls?5dos?$DN@PBOPGDP@
  0015c	e8 00 00 00 00	 call	 _DbgPrint
  00161	83 c4 0c	 add	 esp, 12			; 0000000cH

; 370  : 	
; 371  : 	ntStatus = IoCreateDevice (
; 372  : 					  DriverObject,
; 373  : 					  sizeof (BOOL),
; 374  : 					  &ntUnicodeString,
; 375  : 					  FILE_DEVICE_UNKNOWN,
; 376  : 					  FILE_DEVICE_SECURE_OPEN,
; 377  : 					  FALSE,
; 378  : 					  &DeviceObject);

  00164	8d 55 a0	 lea	 edx, DWORD PTR _DeviceObject$[ebp]
  00167	52		 push	 edx
  00168	6a 00		 push	 0
  0016a	68 00 01 00 00	 push	 256			; 00000100H
  0016f	6a 22		 push	 34			; 00000022H
  00171	8d 45 f8	 lea	 eax, DWORD PTR _ntUnicodeString$[ebp]
  00174	50		 push	 eax
  00175	6a 04		 push	 4
  00177	8b 4d 08	 mov	 ecx, DWORD PTR _DriverObject$[ebp]
  0017a	51		 push	 ecx
  0017b	ff 15 00 00 00
	00		 call	 DWORD PTR __imp__IoCreateDevice@28
  00181	89 85 5c ff ff
	ff		 mov	 DWORD PTR _ntStatus$[ebp], eax

; 379  : 
; 380  : 	if (!NT_SUCCESS (ntStatus))

  00187	83 bd 5c ff ff
	ff 00		 cmp	 DWORD PTR _ntStatus$[ebp], 0
  0018e	7d 1f		 jge	 SHORT $LN2@TCCreateRo

; 381  : 	{
; 382  : 		Dump ("TCCreateRootDeviceObject NTSTATUS = 0x%08x END\n", ntStatus);

  00190	8b 95 5c ff ff
	ff		 mov	 edx, DWORD PTR _ntStatus$[ebp]
  00196	52		 push	 edx
  00197	68 00 00 00 00	 push	 OFFSET ??_C@_0DA@OJGNPLJ@TCCreateRootDeviceObject?5NTSTATU@PBOPGDP@
  0019c	e8 00 00 00 00	 call	 _DbgPrint
  001a1	83 c4 08	 add	 esp, 8

; 383  : 		return ntStatus;/* Failed to create DeviceObject */

  001a4	8b 85 5c ff ff
	ff		 mov	 eax, DWORD PTR _ntStatus$[ebp]
  001aa	e9 9c 00 00 00	 jmp	 $LN3@TCCreateRo
$LN2@TCCreateRo:

; 384  : 	}
; 385  : 
; 386  : 	DeviceObject->Flags |= DO_DIRECT_IO;

  001af	8b 45 a0	 mov	 eax, DWORD PTR _DeviceObject$[ebp]
  001b2	8b 48 1c	 mov	 ecx, DWORD PTR [eax+28]
  001b5	83 c9 10	 or	 ecx, 16			; 00000010H
  001b8	8b 55 a0	 mov	 edx, DWORD PTR _DeviceObject$[ebp]
  001bb	89 4a 1c	 mov	 DWORD PTR [edx+28], ecx

; 387  : 	DeviceObject->AlignmentRequirement = FILE_WORD_ALIGNMENT;

  001be	8b 45 a0	 mov	 eax, DWORD PTR _DeviceObject$[ebp]
  001c1	c7 40 5c 01 00
	00 00		 mov	 DWORD PTR [eax+92], 1

; 388  : 
; 389  : 	/* Setup the device extension */
; 390  : 	bRootExtension = (BOOL *) DeviceObject->DeviceExtension;

  001c8	8b 4d a0	 mov	 ecx, DWORD PTR _DeviceObject$[ebp]
  001cb	8b 51 28	 mov	 edx, DWORD PTR [ecx+40]
  001ce	89 55 ac	 mov	 DWORD PTR _bRootExtension$[ebp], edx

; 391  : 	*bRootExtension = TRUE;

  001d1	8b 45 ac	 mov	 eax, DWORD PTR _bRootExtension$[ebp]
  001d4	c7 00 01 00 00
	00		 mov	 DWORD PTR [eax], 1

; 392  : 
; 393  : 	KeInitializeMutex (&RootDeviceControlMutex, 0);

  001da	6a 00		 push	 0
  001dc	68 00 00 00 00	 push	 OFFSET _RootDeviceControlMutex
  001e1	ff 15 00 00 00
	00		 call	 DWORD PTR __imp__KeInitializeMutex@8

; 394  : 
; 395  : 	ntStatus = IoCreateSymbolicLink (&Win32NameString, &ntUnicodeString);

  001e7	8d 4d f8	 lea	 ecx, DWORD PTR _ntUnicodeString$[ebp]
  001ea	51		 push	 ecx
  001eb	8d 55 a4	 lea	 edx, DWORD PTR _Win32NameString$[ebp]
  001ee	52		 push	 edx
  001ef	ff 15 00 00 00
	00		 call	 DWORD PTR __imp__IoCreateSymbolicLink@8
  001f5	89 85 5c ff ff
	ff		 mov	 DWORD PTR _ntStatus$[ebp], eax

; 396  : 
; 397  : 	if (!NT_SUCCESS (ntStatus))

  001fb	83 bd 5c ff ff
	ff 00		 cmp	 DWORD PTR _ntStatus$[ebp], 0
  00202	7d 26		 jge	 SHORT $LN1@TCCreateRo

; 398  : 	{
; 399  : 		Dump ("TCCreateRootDeviceObject NTSTATUS = 0x%08x END\n", ntStatus);

  00204	8b 85 5c ff ff
	ff		 mov	 eax, DWORD PTR _ntStatus$[ebp]
  0020a	50		 push	 eax
  0020b	68 00 00 00 00	 push	 OFFSET ??_C@_0DA@OJGNPLJ@TCCreateRootDeviceObject?5NTSTATU@PBOPGDP@
  00210	e8 00 00 00 00	 call	 _DbgPrint
  00215	83 c4 08	 add	 esp, 8

; 400  : 		IoDeleteDevice (DeviceObject);

  00218	8b 4d a0	 mov	 ecx, DWORD PTR _DeviceObject$[ebp]
  0021b	51		 push	 ecx
  0021c	ff 15 00 00 00
	00		 call	 DWORD PTR __imp__IoDeleteDevice@4

; 401  : 		return ntStatus;

  00222	8b 85 5c ff ff
	ff		 mov	 eax, DWORD PTR _ntStatus$[ebp]
  00228	eb 21		 jmp	 SHORT $LN3@TCCreateRo
$LN1@TCCreateRo:

; 402  : 	}
; 403  : 
; 404  : 	IoRegisterShutdownNotification (DeviceObject);

  0022a	8b 55 a0	 mov	 edx, DWORD PTR _DeviceObject$[ebp]
  0022d	52		 push	 edx
  0022e	ff 15 00 00 00
	00		 call	 DWORD PTR __imp__IoRegisterShutdownNotification@4

; 405  : 	RootDeviceObject = DeviceObject;

  00234	8b 45 a0	 mov	 eax, DWORD PTR _DeviceObject$[ebp]
  00237	a3 00 00 00 00	 mov	 DWORD PTR _RootDeviceObject, eax

; 406  : 
; 407  : 	Dump ("TCCreateRootDeviceObject STATUS_SUCCESS END\n");

  0023c	68 00 00 00 00	 push	 OFFSET ??_C@_0CN@PMFMKKNC@TCCreateRootDeviceObject?5STATUS_@PBOPGDP@
  00241	e8 00 00 00 00	 call	 _DbgPrint
  00246	83 c4 04	 add	 esp, 4

; 408  : 	return STATUS_SUCCESS;

  00249	33 c0		 xor	 eax, eax
$LN3@TCCreateRo:

; 409  : }

  0024b	8b 4d f4	 mov	 ecx, DWORD PTR __$ArrayPad$[ebp]
  0024e	33 cd		 xor	 ecx, ebp
  00250	e8 00 00 00 00	 call	 @__security_check_cookie@4
  00255	8b e5		 mov	 esp, ebp
  00257	5d		 pop	 ebp
  00258	c2 04 00	 ret	 4
_TCCreateRootDeviceObject@4 ENDP
INIT	ENDS
PUBLIC	??_C@_0CJ@CAANMOOG@TCCreateDeviceObject?5STATUS_SUCC@FNODOBFM@ ;  ?? ::FNODOBFM::`string'
PUBLIC	_InitializeListHead@4
PUBLIC	_KeInitializeSpinLock@4
PUBLIC	??_C@_0CM@DAAJFNOI@TCCreateDeviceObject?5NTSTATUS?5?$DN?5@FNODOBFM@ ;  ?? ::FNODOBFM::`string'
PUBLIC	??_C@_0CA@MBKOBJGH@Creating?5device?5nt?$DN?$CFls?5dos?$DN?$CFls?6?$AA@FNODOBFM@ ;  ?? ::FNODOBFM::`string'
PUBLIC	_TCGetNTNameFromNumber@8
PUBLIC	_TCGetDosNameFromNumber@8
PUBLIC	??_C@_0CE@KKOENIAD@KeGetCurrentIrql?$CI?$CJ?5?$DN?$DN?5PASSIVE_LE@FNODOBFM@ ;  ?? ::FNODOBFM::`string'
PUBLIC	??_C@_0BM@HAIECJHN@TCCreateDeviceObject?5BEGIN?6?$AA@FNODOBFM@ ;  ?? ::FNODOBFM::`string'
PUBLIC	__$ArrayPad$
PUBLIC	_TCCreateDeviceObject@12
EXTRN	__imp__IoInitializeRemoveLockEx@20:PROC
EXTRN	__imp__KeInitializeSemaphore@12:PROC
EXTRN	__imp__KeInitializeEvent@12:PROC
;	COMDAT ??_C@_0CJ@CAANMOOG@TCCreateDeviceObject?5STATUS_SUCC@FNODOBFM@
text$s	SEGMENT
??_C@_0CJ@CAANMOOG@TCCreateDeviceObject?5STATUS_SUCC@FNODOBFM@ DB 'TCCrea'
	DB	'teDeviceObject STATUS_SUCCESS END', 0aH, 00H ;  ?? ::FNODOBFM::`string'
text$s	ENDS
;	COMDAT ??_C@_0CM@DAAJFNOI@TCCreateDeviceObject?5NTSTATUS?5?$DN?5@FNODOBFM@
text$s	SEGMENT
??_C@_0CM@DAAJFNOI@TCCreateDeviceObject?5NTSTATUS?5?$DN?5@FNODOBFM@ DB 'T'
	DB	'CCreateDeviceObject NTSTATUS = 0x%08x END', 0aH, 00H ;  ?? ::FNODOBFM::`string'
text$s	ENDS
;	COMDAT ??_C@_0CA@MBKOBJGH@Creating?5device?5nt?$DN?$CFls?5dos?$DN?$CFls?6?$AA@FNODOBFM@
text$s	SEGMENT
??_C@_0CA@MBKOBJGH@Creating?5device?5nt?$DN?$CFls?5dos?$DN?$CFls?6?$AA@FNODOBFM@ DB 'C'
	DB	'reating device nt=%ls dos=%ls', 0aH, 00H	;  ?? ::FNODOBFM::`string'
text$s	ENDS
;	COMDAT ??_C@_0CE@KKOENIAD@KeGetCurrentIrql?$CI?$CJ?5?$DN?$DN?5PASSIVE_LE@FNODOBFM@
text$s	SEGMENT
??_C@_0CE@KKOENIAD@KeGetCurrentIrql?$CI?$CJ?5?$DN?$DN?5PASSIVE_LE@FNODOBFM@ DB 'K'
	DB	'eGetCurrentIrql() == PASSIVE_LEVEL', 00H	;  ?? ::FNODOBFM::`string'
text$s	ENDS
;	COMDAT ??_C@_0BM@HAIECJHN@TCCreateDeviceObject?5BEGIN?6?$AA@FNODOBFM@
text$s	SEGMENT
??_C@_0BM@HAIECJHN@TCCreateDeviceObject?5BEGIN?6?$AA@FNODOBFM@ DB 'TCCrea'
	DB	'teDeviceObject BEGIN', 0aH, 00H		;  ?? ::FNODOBFM::`string'
; Function compile flags: /Odtp
text$s	ENDS
;	COMDAT _TCCreateDeviceObject@12
_TEXT	SEGMENT
tv72 = -168						; size = 4
_ntStatus$ = -164					; size = 4
_dosname$ = -160					; size = 64
_Win32NameString$ = -92					; size = 8
_Extension$ = -84					; size = 4
_ntname$ = -80						; size = 64
__$ArrayPad$ = -16					; size = 4
_ntUnicodeString$ = -12					; size = 8
_devChars$ = -4						; size = 4
_DriverObject$ = 8					; size = 4
_ppDeviceObject$ = 12					; size = 4
_mount$ = 16						; size = 4
_TCCreateDeviceObject@12 PROC				; COMDAT

; 414  : {

  00000	8b ff		 npad	 2
  00002	55		 push	 ebp
  00003	8b ec		 mov	 ebp, esp
  00005	81 ec a8 00 00
	00		 sub	 esp, 168		; 000000a8H
  0000b	a1 00 00 00 00	 mov	 eax, DWORD PTR ___security_cookie
  00010	33 c5		 xor	 eax, ebp
  00012	89 45 f0	 mov	 DWORD PTR __$ArrayPad$[ebp], eax

; 415  : 	UNICODE_STRING Win32NameString, ntUnicodeString;
; 416  : 	WCHAR dosname[32], ntname[32];
; 417  : 	PEXTENSION Extension;
; 418  : 	NTSTATUS ntStatus;
; 419  : 	ULONG devChars = 0;

  00015	c7 45 fc 00 00
	00 00		 mov	 DWORD PTR _devChars$[ebp], 0

; 420  : 
; 421  : 	Dump ("TCCreateDeviceObject BEGIN\n");

  0001c	68 00 00 00 00	 push	 OFFSET ??_C@_0BM@HAIECJHN@TCCreateDeviceObject?5BEGIN?6?$AA@FNODOBFM@
  00021	e8 00 00 00 00	 call	 _DbgPrint
  00026	83 c4 04	 add	 esp, 4

; 422  : 	ASSERT (KeGetCurrentIrql() == PASSIVE_LEVEL);

  00029	ff 15 00 00 00
	00		 call	 DWORD PTR __imp__KeGetCurrentIrql@0
  0002f	0f b6 c0	 movzx	 eax, al
  00032	85 c0		 test	 eax, eax
  00034	74 23		 je	 SHORT $LN4@TCCreateDe
  00036	6a 00		 push	 0
  00038	68 a6 01 00 00	 push	 422			; 000001a6H
  0003d	68 00 00 00 00	 push	 OFFSET ??_C@_0EC@PIHBGAHH@c?3?2users?2public?2desktop?2projects@FNODOBFM@
  00042	68 00 00 00 00	 push	 OFFSET ??_C@_0CE@KKOENIAD@KeGetCurrentIrql?$CI?$CJ?5?$DN?$DN?5PASSIVE_LE@FNODOBFM@
  00047	ff 15 00 00 00
	00		 call	 DWORD PTR __imp__RtlAssert@16
  0004d	c7 85 58 ff ff
	ff 00 00 00 00	 mov	 DWORD PTR tv72[ebp], 0
  00057	eb 0a		 jmp	 SHORT $LN5@TCCreateDe
$LN4@TCCreateDe:
  00059	c7 85 58 ff ff
	ff 01 00 00 00	 mov	 DWORD PTR tv72[ebp], 1
$LN5@TCCreateDe:

; 423  : 
; 424  : 	TCGetDosNameFromNumber (dosname, mount->nDosDriveNo);

  00063	8b 4d 10	 mov	 ecx, DWORD PTR _mount$[ebp]
  00066	8b 91 64 02 00
	00		 mov	 edx, DWORD PTR [ecx+612]
  0006c	52		 push	 edx
  0006d	8d 85 60 ff ff
	ff		 lea	 eax, DWORD PTR _dosname$[ebp]
  00073	50		 push	 eax
  00074	e8 00 00 00 00	 call	 _TCGetDosNameFromNumber@8

; 425  : 	TCGetNTNameFromNumber (ntname, mount->nDosDriveNo);

  00079	8b 4d 10	 mov	 ecx, DWORD PTR _mount$[ebp]
  0007c	8b 91 64 02 00
	00		 mov	 edx, DWORD PTR [ecx+612]
  00082	52		 push	 edx
  00083	8d 45 b0	 lea	 eax, DWORD PTR _ntname$[ebp]
  00086	50		 push	 eax
  00087	e8 00 00 00 00	 call	 _TCGetNTNameFromNumber@8

; 426  : 	RtlInitUnicodeString (&ntUnicodeString, ntname);

  0008c	8d 4d b0	 lea	 ecx, DWORD PTR _ntname$[ebp]
  0008f	51		 push	 ecx
  00090	8d 55 f4	 lea	 edx, DWORD PTR _ntUnicodeString$[ebp]
  00093	52		 push	 edx
  00094	ff 15 00 00 00
	00		 call	 DWORD PTR __imp__RtlInitUnicodeString@8

; 427  : 	RtlInitUnicodeString (&Win32NameString, dosname);

  0009a	8d 85 60 ff ff
	ff		 lea	 eax, DWORD PTR _dosname$[ebp]
  000a0	50		 push	 eax
  000a1	8d 4d a4	 lea	 ecx, DWORD PTR _Win32NameString$[ebp]
  000a4	51		 push	 ecx
  000a5	ff 15 00 00 00
	00		 call	 DWORD PTR __imp__RtlInitUnicodeString@8

; 428  : 
; 429  : 	devChars = FILE_DEVICE_SECURE_OPEN;

  000ab	c7 45 fc 00 01
	00 00		 mov	 DWORD PTR _devChars$[ebp], 256 ; 00000100H

; 430  : 	devChars |= mount->bMountReadOnly ? FILE_READ_ONLY_DEVICE : 0;

  000b2	8b 55 10	 mov	 edx, DWORD PTR _mount$[ebp]
  000b5	8b 82 6c 02 00
	00		 mov	 eax, DWORD PTR [edx+620]
  000bb	f7 d8		 neg	 eax
  000bd	1b c0		 sbb	 eax, eax
  000bf	83 e0 02	 and	 eax, 2
  000c2	0b 45 fc	 or	 eax, DWORD PTR _devChars$[ebp]
  000c5	89 45 fc	 mov	 DWORD PTR _devChars$[ebp], eax

; 431  : 	devChars |= mount->bMountRemovable ? FILE_REMOVABLE_MEDIA : 0;

  000c8	8b 4d 10	 mov	 ecx, DWORD PTR _mount$[ebp]
  000cb	33 d2		 xor	 edx, edx
  000cd	83 b9 70 02 00
	00 00		 cmp	 DWORD PTR [ecx+624], 0
  000d4	0f 95 c2	 setne	 dl
  000d7	0b 55 fc	 or	 edx, DWORD PTR _devChars$[ebp]
  000da	89 55 fc	 mov	 DWORD PTR _devChars$[ebp], edx

; 432  : 
; 433  : 	Dump ("Creating device nt=%ls dos=%ls\n", ntname, dosname);

  000dd	8d 85 60 ff ff
	ff		 lea	 eax, DWORD PTR _dosname$[ebp]
  000e3	50		 push	 eax
  000e4	8d 4d b0	 lea	 ecx, DWORD PTR _ntname$[ebp]
  000e7	51		 push	 ecx
  000e8	68 00 00 00 00	 push	 OFFSET ??_C@_0CA@MBKOBJGH@Creating?5device?5nt?$DN?$CFls?5dos?$DN?$CFls?6?$AA@FNODOBFM@
  000ed	e8 00 00 00 00	 call	 _DbgPrint
  000f2	83 c4 0c	 add	 esp, 12			; 0000000cH

; 434  : 
; 435  : 	ntStatus = IoCreateDevice (
; 436  : 					  DriverObject,			/* Our Driver Object */
; 437  : 					  sizeof (EXTENSION),	/* Size of state information */
; 438  : 					  &ntUnicodeString,		/* Device name "\Device\Name" */
; 439  : 					  FILE_DEVICE_DISK,		/* Device type */
; 440  : 					  devChars,				/* Device characteristics */
; 441  : 					  FALSE,				/* Exclusive device */
; 442  : 					  ppDeviceObject);		/* Returned ptr to Device Object */

  000f5	8b 55 0c	 mov	 edx, DWORD PTR _ppDeviceObject$[ebp]
  000f8	52		 push	 edx
  000f9	6a 00		 push	 0
  000fb	8b 45 fc	 mov	 eax, DWORD PTR _devChars$[ebp]
  000fe	50		 push	 eax
  000ff	6a 07		 push	 7
  00101	8d 4d f4	 lea	 ecx, DWORD PTR _ntUnicodeString$[ebp]
  00104	51		 push	 ecx
  00105	68 10 05 00 00	 push	 1296			; 00000510H
  0010a	8b 55 08	 mov	 edx, DWORD PTR _DriverObject$[ebp]
  0010d	52		 push	 edx
  0010e	ff 15 00 00 00
	00		 call	 DWORD PTR __imp__IoCreateDevice@28
  00114	89 85 5c ff ff
	ff		 mov	 DWORD PTR _ntStatus$[ebp], eax

; 443  : 
; 444  : 	if (!NT_SUCCESS (ntStatus))

  0011a	83 bd 5c ff ff
	ff 00		 cmp	 DWORD PTR _ntStatus$[ebp], 0
  00121	7d 1f		 jge	 SHORT $LN1@TCCreateDe

; 445  : 	{
; 446  : 		Dump ("TCCreateDeviceObject NTSTATUS = 0x%08x END\n", ntStatus);

  00123	8b 85 5c ff ff
	ff		 mov	 eax, DWORD PTR _ntStatus$[ebp]
  00129	50		 push	 eax
  0012a	68 00 00 00 00	 push	 OFFSET ??_C@_0CM@DAAJFNOI@TCCreateDeviceObject?5NTSTATUS?5?$DN?5@FNODOBFM@
  0012f	e8 00 00 00 00	 call	 _DbgPrint
  00134	83 c4 08	 add	 esp, 8

; 447  : 		return ntStatus;/* Failed to create DeviceObject */

  00137	8b 85 5c ff ff
	ff		 mov	 eax, DWORD PTR _ntStatus$[ebp]
  0013d	e9 10 01 00 00	 jmp	 $LN2@TCCreateDe
$LN1@TCCreateDe:

; 448  : 	}
; 449  : 	/* Initialize device object and extension. */
; 450  : 
; 451  : 	(*ppDeviceObject)->Flags |= DO_DIRECT_IO;

  00142	8b 4d 0c	 mov	 ecx, DWORD PTR _ppDeviceObject$[ebp]
  00145	8b 11		 mov	 edx, DWORD PTR [ecx]
  00147	8b 42 1c	 mov	 eax, DWORD PTR [edx+28]
  0014a	83 c8 10	 or	 eax, 16			; 00000010H
  0014d	8b 4d 0c	 mov	 ecx, DWORD PTR _ppDeviceObject$[ebp]
  00150	8b 11		 mov	 edx, DWORD PTR [ecx]
  00152	89 42 1c	 mov	 DWORD PTR [edx+28], eax

; 452  : 	(*ppDeviceObject)->StackSize += 6;		// Reduce occurrence of NO_MORE_IRP_STACK_LOCATIONS bug check caused by buggy drivers

  00155	8b 45 0c	 mov	 eax, DWORD PTR _ppDeviceObject$[ebp]
  00158	8b 08		 mov	 ecx, DWORD PTR [eax]
  0015a	0f be 51 30	 movsx	 edx, BYTE PTR [ecx+48]
  0015e	83 c2 06	 add	 edx, 6
  00161	8b 45 0c	 mov	 eax, DWORD PTR _ppDeviceObject$[ebp]
  00164	8b 08		 mov	 ecx, DWORD PTR [eax]
  00166	88 51 30	 mov	 BYTE PTR [ecx+48], dl

; 453  : 
; 454  : 	/* Setup the device extension */
; 455  : 	Extension = (PEXTENSION) (*ppDeviceObject)->DeviceExtension;

  00169	8b 55 0c	 mov	 edx, DWORD PTR _ppDeviceObject$[ebp]
  0016c	8b 02		 mov	 eax, DWORD PTR [edx]
  0016e	8b 48 28	 mov	 ecx, DWORD PTR [eax+40]
  00171	89 4d ac	 mov	 DWORD PTR _Extension$[ebp], ecx

; 456  : 	memset (Extension, 0, sizeof (EXTENSION));

  00174	68 10 05 00 00	 push	 1296			; 00000510H
  00179	6a 00		 push	 0
  0017b	8b 55 ac	 mov	 edx, DWORD PTR _Extension$[ebp]
  0017e	52		 push	 edx
  0017f	e8 00 00 00 00	 call	 _memset
  00184	83 c4 0c	 add	 esp, 12			; 0000000cH

; 457  : 
; 458  : 	Extension->IsVolumeDevice = TRUE;

  00187	8b 45 ac	 mov	 eax, DWORD PTR _Extension$[ebp]
  0018a	c7 40 04 01 00
	00 00		 mov	 DWORD PTR [eax+4], 1

; 459  : 	Extension->nDosDriveNo = mount->nDosDriveNo;

  00191	8b 4d ac	 mov	 ecx, DWORD PTR _Extension$[ebp]
  00194	8b 55 10	 mov	 edx, DWORD PTR _mount$[ebp]
  00197	8b 82 64 02 00
	00		 mov	 eax, DWORD PTR [edx+612]
  0019d	89 41 14	 mov	 DWORD PTR [ecx+20], eax

; 460  : 	Extension->bRemovable = mount->bMountRemovable;

  001a0	8b 4d ac	 mov	 ecx, DWORD PTR _Extension$[ebp]
  001a3	8b 55 10	 mov	 edx, DWORD PTR _mount$[ebp]
  001a6	8b 82 70 02 00
	00		 mov	 eax, DWORD PTR [edx+624]
  001ac	89 81 8c 02 00
	00		 mov	 DWORD PTR [ecx+652], eax

; 461  : 	Extension->PartitionInInactiveSysEncScope = mount->bPartitionInInactiveSysEncScope;

  001b2	8b 4d ac	 mov	 ecx, DWORD PTR _Extension$[ebp]
  001b5	8b 55 10	 mov	 edx, DWORD PTR _mount$[ebp]
  001b8	8b 82 80 02 00
	00		 mov	 eax, DWORD PTR [edx+640]
  001be	89 81 90 02 00
	00		 mov	 DWORD PTR [ecx+656], eax

; 462  : 	Extension->SystemFavorite = mount->SystemFavorite;

  001c4	8b 4d ac	 mov	 ecx, DWORD PTR _Extension$[ebp]
  001c7	8b 55 10	 mov	 edx, DWORD PTR _mount$[ebp]
  001ca	8b 82 88 02 00
	00		 mov	 eax, DWORD PTR [edx+648]
  001d0	89 81 9c 02 00
	00		 mov	 DWORD PTR [ecx+668], eax

; 463  : 
; 464  : 	KeInitializeEvent (&Extension->keCreateEvent, SynchronizationEvent, FALSE);

  001d6	6a 00		 push	 0
  001d8	6a 01		 push	 1
  001da	8b 4d ac	 mov	 ecx, DWORD PTR _Extension$[ebp]
  001dd	83 c1 24	 add	 ecx, 36			; 00000024H
  001e0	51		 push	 ecx
  001e1	ff 15 00 00 00
	00		 call	 DWORD PTR __imp__KeInitializeEvent@12

; 465  : 	KeInitializeSemaphore (&Extension->RequestSemaphore, 0L, MAXLONG);

  001e7	68 ff ff ff 7f	 push	 2147483647		; 7fffffffH
  001ec	6a 00		 push	 0
  001ee	8b 55 ac	 mov	 edx, DWORD PTR _Extension$[ebp]
  001f1	83 c2 40	 add	 edx, 64			; 00000040H
  001f4	52		 push	 edx
  001f5	ff 15 00 00 00
	00		 call	 DWORD PTR __imp__KeInitializeSemaphore@12

; 466  : 	KeInitializeSpinLock (&Extension->ListSpinLock);

  001fb	8b 45 ac	 mov	 eax, DWORD PTR _Extension$[ebp]
  001fe	83 c0 34	 add	 eax, 52			; 00000034H
  00201	50		 push	 eax
  00202	e8 00 00 00 00	 call	 _KeInitializeSpinLock@4

; 467  : 	InitializeListHead (&Extension->ListEntry);

  00207	8b 4d ac	 mov	 ecx, DWORD PTR _Extension$[ebp]
  0020a	83 c1 38	 add	 ecx, 56			; 00000038H
  0020d	51		 push	 ecx
  0020e	e8 00 00 00 00	 call	 _InitializeListHead@4

; 468  : 	IoInitializeRemoveLock (&Extension->Queue.RemoveLock, 'LRCT', 0, 0);

  00213	6a 58		 push	 88			; 00000058H
  00215	6a 00		 push	 0
  00217	6a 00		 push	 0
  00219	68 54 43 52 4c	 push	 1280459604		; 4c524354H
  0021e	8b 55 ac	 mov	 edx, DWORD PTR _Extension$[ebp]
  00221	81 c2 18 01 00
	00		 add	 edx, 280		; 00000118H
  00227	52		 push	 edx
  00228	ff 15 00 00 00
	00		 call	 DWORD PTR __imp__IoInitializeRemoveLockEx@20

; 469  : 
; 470  : 	VirtualVolumeDeviceObjects[mount->nDosDriveNo] = *ppDeviceObject;

  0022e	8b 45 10	 mov	 eax, DWORD PTR _mount$[ebp]
  00231	8b 88 64 02 00
	00		 mov	 ecx, DWORD PTR [eax+612]
  00237	8b 55 0c	 mov	 edx, DWORD PTR _ppDeviceObject$[ebp]
  0023a	8b 02		 mov	 eax, DWORD PTR [edx]
  0023c	89 04 8d 00 00
	00 00		 mov	 DWORD PTR _VirtualVolumeDeviceObjects[ecx*4], eax

; 471  : 
; 472  : 	Dump ("TCCreateDeviceObject STATUS_SUCCESS END\n");

  00243	68 00 00 00 00	 push	 OFFSET ??_C@_0CJ@CAANMOOG@TCCreateDeviceObject?5STATUS_SUCC@FNODOBFM@
  00248	e8 00 00 00 00	 call	 _DbgPrint
  0024d	83 c4 04	 add	 esp, 4

; 473  : 
; 474  : 	return STATUS_SUCCESS;

  00250	33 c0		 xor	 eax, eax
$LN2@TCCreateDe:

; 475  : }

  00252	8b 4d f0	 mov	 ecx, DWORD PTR __$ArrayPad$[ebp]
  00255	33 cd		 xor	 ecx, ebp
  00257	e8 00 00 00 00	 call	 @__security_check_cookie@4
  0025c	8b e5		 mov	 esp, ebp
  0025e	5d		 pop	 ebp
  0025f	c2 0c 00	 ret	 12			; 0000000cH
_TCCreateDeviceObject@12 ENDP
; Function compile flags: /Odtp
; File c:\winddk\7600.16385.1\inc\ddk\wdm.h
_TEXT	ENDS
;	COMDAT _InitializeListHead@4
_TEXT	SEGMENT
_ListHead$ = 8						; size = 4
_InitializeListHead@4 PROC				; COMDAT

; 7550 : {

  00000	8b ff		 npad	 2
  00002	55		 push	 ebp
  00003	8b ec		 mov	 ebp, esp

; 7551 :     ListHead->Flink = ListHead->Blink = ListHead;

  00005	8b 45 08	 mov	 eax, DWORD PTR _ListHead$[ebp]
  00008	8b 4d 08	 mov	 ecx, DWORD PTR _ListHead$[ebp]
  0000b	89 48 04	 mov	 DWORD PTR [eax+4], ecx
  0000e	8b 55 08	 mov	 edx, DWORD PTR _ListHead$[ebp]
  00011	8b 45 08	 mov	 eax, DWORD PTR _ListHead$[ebp]
  00014	89 02		 mov	 DWORD PTR [edx], eax

; 7552 : }

  00016	5d		 pop	 ebp
  00017	c2 04 00	 ret	 4
_InitializeListHead@4 ENDP
; Function compile flags: /Odtp
_TEXT	ENDS
;	COMDAT _KeInitializeSpinLock@4
_TEXT	SEGMENT
_SpinLock$ = 8						; size = 4
_KeInitializeSpinLock@4 PROC				; COMDAT

; 15095: {

  00000	8b ff		 npad	 2
  00002	55		 push	 ebp
  00003	8b ec		 mov	 ebp, esp

; 15096: 
; 15097:     *SpinLock = 0;

  00005	8b 45 08	 mov	 eax, DWORD PTR _SpinLock$[ebp]
  00008	c7 00 00 00 00
	00		 mov	 DWORD PTR [eax], 0

; 15098:     return;
; 15099: }

  0000e	5d		 pop	 ebp
  0000f	c2 04 00	 ret	 4
_KeInitializeSpinLock@4 ENDP
_TEXT	ENDS
PUBLIC	_RootDeviceControlMutexAcquireNoWait@0
; Function compile flags: /Odtp
; File c:\users\public\desktop\projects\ciphershed\src\driver\ntdriver.c
;	COMDAT _RootDeviceControlMutexAcquireNoWait@0
_TEXT	SEGMENT
tv72 = -20						; size = 4
_timeout$ = -16						; size = 8
_status$ = -4						; size = 4
_RootDeviceControlMutexAcquireNoWait@0 PROC		; COMDAT

; 479  : {

  00000	8b ff		 npad	 2
  00002	55		 push	 ebp
  00003	8b ec		 mov	 ebp, esp
  00005	83 ec 14	 sub	 esp, 20			; 00000014H

; 480  : 	NTSTATUS status;
; 481  : 	LARGE_INTEGER timeout;
; 482  : 	timeout.QuadPart = 0;

  00008	c7 45 f0 00 00
	00 00		 mov	 DWORD PTR _timeout$[ebp], 0
  0000f	c7 45 f4 00 00
	00 00		 mov	 DWORD PTR _timeout$[ebp+4], 0

; 483  : 
; 484  : 	status = KeWaitForMutexObject (&RootDeviceControlMutex, Executive, KernelMode, FALSE, &timeout);

  00016	8d 45 f0	 lea	 eax, DWORD PTR _timeout$[ebp]
  00019	50		 push	 eax
  0001a	6a 00		 push	 0
  0001c	6a 00		 push	 0
  0001e	6a 00		 push	 0
  00020	68 00 00 00 00	 push	 OFFSET _RootDeviceControlMutex
  00025	ff 15 00 00 00
	00		 call	 DWORD PTR __imp__KeWaitForSingleObject@20
  0002b	89 45 fc	 mov	 DWORD PTR _status$[ebp], eax

; 485  : 	return NT_SUCCESS (status) && status != STATUS_TIMEOUT;

  0002e	83 7d fc 00	 cmp	 DWORD PTR _status$[ebp], 0
  00032	7c 12		 jl	 SHORT $LN3@RootDevice
  00034	81 7d fc 02 01
	00 00		 cmp	 DWORD PTR _status$[ebp], 258 ; 00000102H
  0003b	74 09		 je	 SHORT $LN3@RootDevice
  0003d	c7 45 ec 01 00
	00 00		 mov	 DWORD PTR tv72[ebp], 1
  00044	eb 07		 jmp	 SHORT $LN4@RootDevice
$LN3@RootDevice:
  00046	c7 45 ec 00 00
	00 00		 mov	 DWORD PTR tv72[ebp], 0
$LN4@RootDevice:
  0004d	8b 45 ec	 mov	 eax, DWORD PTR tv72[ebp]

; 486  : }

  00050	8b e5		 mov	 esp, ebp
  00052	5d		 pop	 ebp
  00053	c3		 ret	 0
_RootDeviceControlMutexAcquireNoWait@0 ENDP
_TEXT	ENDS
PUBLIC	_RootDeviceControlMutexRelease@0
; Function compile flags: /Odtp
;	COMDAT _RootDeviceControlMutexRelease@0
_TEXT	SEGMENT
_RootDeviceControlMutexRelease@0 PROC			; COMDAT

; 490  : {

  00000	8b ff		 npad	 2
  00002	55		 push	 ebp
  00003	8b ec		 mov	 ebp, esp

; 491  : 	KeReleaseMutex (&RootDeviceControlMutex, FALSE);

  00005	6a 00		 push	 0
  00007	68 00 00 00 00	 push	 OFFSET _RootDeviceControlMutex
  0000c	ff 15 00 00 00
	00		 call	 DWORD PTR __imp__KeReleaseMutex@8

; 492  : }

  00012	5d		 pop	 ebp
  00013	c3		 ret	 0
_RootDeviceControlMutexRelease@0 ENDP
_TEXT	ENDS
PUBLIC	??_C@_0BO@BEMMNDOD@IOCTL?5error?50x?$CF08x?5?$CI0x?$CFx?5?$CFd?$CJ?6?$AA@FNODOBFM@ ;  ?? ::FNODOBFM::`string'
PUBLIC	??_C@_0M@HABEOOKA@link?5?$DN?5?$CFls?6?$AA@FNODOBFM@ ;  ?? ::FNODOBFM::`string'
PUBLIC	??_C@_08DALLBBIL@id?5?$DN?5?$CFs?6?$AA@FNODOBFM@ ;  ?? ::FNODOBFM::`string'
PUBLIC	??_C@_0BA@OLBPPLP@TrueCryptVolume?$AA@FNODOBFM@	;  ?? ::FNODOBFM::`string'
PUBLIC	??_C@_0M@FBJPBOL@name?5?$DN?5?$CFls?6?$AA@FNODOBFM@ ;  ?? ::FNODOBFM::`string'
PUBLIC	__$ArrayPad$
PUBLIC	_ProcessVolumeDeviceControlIrp@12
EXTRN	__imp__ZwReadFile@36:PROC
EXTRN	__imp__ExAllocatePoolWithTag@12:PROC
EXTRN	_memcpy:PROC
;	COMDAT ??_C@_0BO@BEMMNDOD@IOCTL?5error?50x?$CF08x?5?$CI0x?$CFx?5?$CFd?$CJ?6?$AA@FNODOBFM@
text$s	SEGMENT
??_C@_0BO@BEMMNDOD@IOCTL?5error?50x?$CF08x?5?$CI0x?$CFx?5?$CFd?$CJ?6?$AA@FNODOBFM@ DB 'I'
	DB	'OCTL error 0x%08x (0x%x %d)', 0aH, 00H	;  ?? ::FNODOBFM::`string'
text$s	ENDS
;	COMDAT ??_C@_0M@HABEOOKA@link?5?$DN?5?$CFls?6?$AA@FNODOBFM@
text$s	SEGMENT
??_C@_0M@HABEOOKA@link?5?$DN?5?$CFls?6?$AA@FNODOBFM@ DB 'link = %ls', 0aH
	DB	00H						;  ?? ::FNODOBFM::`string'
text$s	ENDS
;	COMDAT ??_C@_08DALLBBIL@id?5?$DN?5?$CFs?6?$AA@FNODOBFM@
text$s	SEGMENT
??_C@_08DALLBBIL@id?5?$DN?5?$CFs?6?$AA@FNODOBFM@ DB 'id = %s', 0aH, 00H ;  ?? ::FNODOBFM::`string'
text$s	ENDS
;	COMDAT ??_C@_0BA@OLBPPLP@TrueCryptVolume?$AA@FNODOBFM@
text$s	SEGMENT
??_C@_0BA@OLBPPLP@TrueCryptVolume?$AA@FNODOBFM@ DB 'TrueCryptVolume', 00H ;  ?? ::FNODOBFM::`string'
text$s	ENDS
;	COMDAT ??_C@_0M@FBJPBOL@name?5?$DN?5?$CFls?6?$AA@FNODOBFM@
text$s	SEGMENT
??_C@_0M@FBJPBOL@name?5?$DN?5?$CFls?6?$AA@FNODOBFM@ DB 'name = %ls', 0aH, 00H ;  ?? ::FNODOBFM::`string'
; Function compile flags: /Odtp
text$s	ENDS
;	COMDAT _ProcessVolumeDeviceControlIrp@12
_TEXT	SEGMENT
tv350 = -1364						; size = 8
tv337 = -1356						; size = 4
tv721 = -1352						; size = 4
tv718 = -1348						; size = 8
tv164 = -1340						; size = 4
tv554 = -1333						; size = 1
tv551 = -1332						; size = 4
tv548 = -1328						; size = 4
tv155 = -1324						; size = 4
tv538 = -1317						; size = 1
tv535 = -1316						; size = 4
tv532 = -1312						; size = 4
tv151 = -1308						; size = 4
tv525 = -1301						; size = 1
tv522 = -1300						; size = 4
tv519 = -1296						; size = 4
tv504 = -1289						; size = 1
tv501 = -1288						; size = 4
tv498 = -1284						; size = 4
tv497 = -1280						; size = 4
tv492 = -1273						; size = 1
tv489 = -1272						; size = 4
tv487 = -1268						; size = 4
tv67 = -1264						; size = 4
_extents$30119 = -1260					; size = 4
_offset$30091 = -1256					; size = 8
_ioStatus$30085 = -1248					; size = 8
_buffer$30086 = -1240					; size = 4
_pVerifyInformation$30080 = -1236			; size = 4
_outputBuffer$30073 = -1232				; size = 4
_outputBuffer$30063 = -1228				; size = 4
_outputBuffer$30056 = -1224				; size = 4
_outputBuffer$30049 = -1220				; size = 4
_outputBuffer$30042 = -1216				; size = 4
_outLength$30022 = -1212				; size = 4
_ntName$30024 = -1208					; size = 512
_outputBuffer$30025 = -696				; size = 4
_ntUnicodeString$30023 = -692				; size = 8
_outLength$30005 = -684					; size = 4
_volId$30006 = -680					; size = 128
_tmp$30007 = -548					; size = 2
_outputBuffer$30008 = -544				; size = 4
_outLength$29987 = -540					; size = 4
_ntName$29989 = -536					; size = 512
__$ArrayPad$ = -20					; size = 4
_outputBuffer$29990 = -16				; size = 4
_ntUnicodeString$29988 = -12				; size = 8
_irpSp$ = -4						; size = 4
_DeviceObject$ = 8					; size = 4
_Extension$ = 12					; size = 4
_Irp$ = 16						; size = 4
_ProcessVolumeDeviceControlIrp@12 PROC			; COMDAT

; 496  : {

  00000	8b ff		 npad	 2
  00002	55		 push	 ebp
  00003	8b ec		 mov	 ebp, esp
  00005	81 ec 54 05 00
	00		 sub	 esp, 1364		; 00000554H
  0000b	a1 00 00 00 00	 mov	 eax, DWORD PTR ___security_cookie
  00010	33 c5		 xor	 eax, ebp
  00012	89 45 ec	 mov	 DWORD PTR __$ArrayPad$[ebp], eax
  00015	56		 push	 esi
  00016	57		 push	 edi

; 497  : 	PIO_STACK_LOCATION irpSp = IoGetCurrentIrpStackLocation (Irp);

  00017	8b 45 10	 mov	 eax, DWORD PTR _Irp$[ebp]
  0001a	50		 push	 eax
  0001b	e8 00 00 00 00	 call	 _IoGetCurrentIrpStackLocation@4
  00020	89 45 fc	 mov	 DWORD PTR _irpSp$[ebp], eax

; 498  : 
; 499  : 	switch (irpSp->Parameters.DeviceIoControl.IoControlCode)

  00023	8b 4d fc	 mov	 ecx, DWORD PTR _irpSp$[ebp]
  00026	8b 51 0c	 mov	 edx, DWORD PTR [ecx+12]
  00029	89 95 10 fb ff
	ff		 mov	 DWORD PTR tv67[ebp], edx
  0002f	81 bd 10 fb ff
	ff 5c 40 07 00	 cmp	 DWORD PTR tv67[ebp], 475228 ; 0007405cH
  00039	0f 87 96 00 00
	00		 ja	 $LN51@ProcessVol
  0003f	81 bd 10 fb ff
	ff 5c 40 07 00	 cmp	 DWORD PTR tv67[ebp], 475228 ; 0007405cH
  00049	0f 84 2a 08 00
	00		 je	 $LN23@ProcessVol
  0004f	81 bd 10 fb ff
	ff 48 00 07 00	 cmp	 DWORD PTR tv67[ebp], 458824 ; 00070048H
  00059	77 45		 ja	 SHORT $LN52@ProcessVol
  0005b	81 bd 10 fb ff
	ff 48 00 07 00	 cmp	 DWORD PTR tv67[ebp], 458824 ; 00070048H
  00065	0f 84 a0 06 00
	00		 je	 $LN27@ProcessVol
  0006b	81 bd 10 fb ff
	ff 00 00 07 00	 cmp	 DWORD PTR tv67[ebp], 458752 ; 00070000H
  00075	0f 84 51 05 00
	00		 je	 $LN31@ProcessVol
  0007b	81 bd 10 fb ff
	ff 14 00 07 00	 cmp	 DWORD PTR tv67[ebp], 458772 ; 00070014H
  00085	0f 84 4e 08 00
	00		 je	 $LN20@ProcessVol
  0008b	81 bd 10 fb ff
	ff 24 00 07 00	 cmp	 DWORD PTR tv67[ebp], 458788 ; 00070024H
  00095	0f 84 5a 0a 00
	00		 je	 $LN11@ProcessVol
  0009b	e9 25 0b 00 00	 jmp	 $LN2@ProcessVol
$LN52@ProcessVol:
  000a0	81 bd 10 fb ff
	ff 00 0c 07 00	 cmp	 DWORD PTR tv67[ebp], 461824 ; 00070c00H
  000aa	0f 84 1c 05 00
	00		 je	 $LN31@ProcessVol
  000b0	81 bd 10 fb ff
	ff 04 40 07 00	 cmp	 DWORD PTR tv67[ebp], 475140 ; 00074004H
  000ba	0f 84 a9 05 00
	00		 je	 $LN29@ProcessVol
  000c0	81 bd 10 fb ff
	ff 0c 40 07 00	 cmp	 DWORD PTR tv67[ebp], 475148 ; 0007400cH
  000ca	0f 84 ed 06 00
	00		 je	 $LN25@ProcessVol
  000d0	e9 f0 0a 00 00	 jmp	 $LN2@ProcessVol
$LN51@ProcessVol:
  000d5	81 bd 10 fb ff
	ff 08 00 4d 00	 cmp	 DWORD PTR tv67[ebp], 5046280 ; 004d0008H
  000df	77 41		 ja	 SHORT $LN53@ProcessVol
  000e1	81 bd 10 fb ff
	ff 08 00 4d 00	 cmp	 DWORD PTR tv67[ebp], 5046280 ; 004d0008H
  000eb	74 6a		 je	 SHORT $LN42@ProcessVol
  000ed	81 bd 10 fb ff
	ff 00 48 07 00	 cmp	 DWORD PTR tv67[ebp], 477184 ; 00074800H
  000f7	0f 84 c0 09 00
	00		 je	 $LN13@ProcessVol
  000fd	81 bd 10 fb ff
	ff 00 48 2d 00	 cmp	 DWORD PTR tv67[ebp], 2967552 ; 002d4800H
  00107	0f 84 b0 09 00
	00		 je	 $LN13@ProcessVol
  0010d	81 bd 10 fb ff
	ff 00 00 4d 00	 cmp	 DWORD PTR tv67[ebp], 5046272 ; 004d0000H
  00117	0f 84 16 01 00
	00		 je	 $LN38@ProcessVol
  0011d	e9 a3 0a 00 00	 jmp	 $LN2@ProcessVol
$LN53@ProcessVol:
  00122	81 bd 10 fb ff
	ff 0c 00 4d 00	 cmp	 DWORD PTR tv67[ebp], 5046284 ; 004d000cH
  0012c	0f 84 9c 03 00
	00		 je	 $LN34@ProcessVol
  00132	81 bd 10 fb ff
	ff 00 00 56 00	 cmp	 DWORD PTR tv67[ebp], 5636096 ; 00560000H
  0013c	0f 84 fd 09 00
	00		 je	 $LN7@ProcessVol
  00142	81 bd 10 fb ff
	ff 08 c0 56 00	 cmp	 DWORD PTR tv67[ebp], 5685256 ; 0056c008H
  0014c	0f 84 d4 09 00
	00		 je	 $LN8@ProcessVol
  00152	e9 6e 0a 00 00	 jmp	 $LN2@ProcessVol
$LN42@ProcessVol:

; 500  : 	{
; 501  : 
; 502  : 	case IOCTL_MOUNTDEV_QUERY_DEVICE_NAME:
; 503  : 		if (!ValidateIOBufferSize (Irp, sizeof (MOUNTDEV_NAME), ValidateOutput))

  00157	6a 01		 push	 1
  00159	6a 04		 push	 4
  0015b	8b 45 10	 mov	 eax, DWORD PTR _Irp$[ebp]
  0015e	50		 push	 eax
  0015f	e8 00 00 00 00	 call	 _ValidateIOBufferSize@12
  00164	85 c0		 test	 eax, eax
  00166	75 19		 jne	 SHORT $LN41@ProcessVol

; 504  : 		{
; 505  : 			Irp->IoStatus.Information = sizeof (MOUNTDEV_NAME);

  00168	8b 4d 10	 mov	 ecx, DWORD PTR _Irp$[ebp]
  0016b	c7 41 1c 04 00
	00 00		 mov	 DWORD PTR [ecx+28], 4

; 506  : 			Irp->IoStatus.Status = STATUS_BUFFER_OVERFLOW;

  00172	8b 55 10	 mov	 edx, DWORD PTR _Irp$[ebp]
  00175	c7 42 18 05 00
	00 80		 mov	 DWORD PTR [edx+24], -2147483643 ; 80000005H

; 507  : 		}
; 508  : 		else

  0017c	e9 ad 00 00 00	 jmp	 $LN40@ProcessVol
$LN41@ProcessVol:

; 509  : 		{
; 510  : 			ULONG outLength;
; 511  : 			UNICODE_STRING ntUnicodeString;
; 512  : 			WCHAR ntName[256];
; 513  : 			PMOUNTDEV_NAME outputBuffer = (PMOUNTDEV_NAME) Irp->AssociatedIrp.SystemBuffer;

  00181	8b 45 10	 mov	 eax, DWORD PTR _Irp$[ebp]
  00184	8b 48 0c	 mov	 ecx, DWORD PTR [eax+12]
  00187	89 4d f0	 mov	 DWORD PTR _outputBuffer$29990[ebp], ecx

; 514  : 
; 515  : 			TCGetNTNameFromNumber (ntName, Extension->nDosDriveNo);

  0018a	8b 55 0c	 mov	 edx, DWORD PTR _Extension$[ebp]
  0018d	8b 42 14	 mov	 eax, DWORD PTR [edx+20]
  00190	50		 push	 eax
  00191	8d 8d e8 fd ff
	ff		 lea	 ecx, DWORD PTR _ntName$29989[ebp]
  00197	51		 push	 ecx
  00198	e8 00 00 00 00	 call	 _TCGetNTNameFromNumber@8

; 516  : 			RtlInitUnicodeString (&ntUnicodeString, ntName);

  0019d	8d 95 e8 fd ff
	ff		 lea	 edx, DWORD PTR _ntName$29989[ebp]
  001a3	52		 push	 edx
  001a4	8d 45 f4	 lea	 eax, DWORD PTR _ntUnicodeString$29988[ebp]
  001a7	50		 push	 eax
  001a8	ff 15 00 00 00
	00		 call	 DWORD PTR __imp__RtlInitUnicodeString@8

; 517  : 
; 518  : 			outputBuffer->NameLength = ntUnicodeString.Length;

  001ae	8b 4d f0	 mov	 ecx, DWORD PTR _outputBuffer$29990[ebp]
  001b1	66 8b 55 f4	 mov	 dx, WORD PTR _ntUnicodeString$29988[ebp]
  001b5	66 89 11	 mov	 WORD PTR [ecx], dx

; 519  : 			outLength = ntUnicodeString.Length + sizeof(USHORT);

  001b8	0f b7 45 f4	 movzx	 eax, WORD PTR _ntUnicodeString$29988[ebp]
  001bc	83 c0 02	 add	 eax, 2
  001bf	89 85 e4 fd ff
	ff		 mov	 DWORD PTR _outLength$29987[ebp], eax

; 520  : 
; 521  : 			if (irpSp->Parameters.DeviceIoControl.OutputBufferLength < outLength)

  001c5	8b 4d fc	 mov	 ecx, DWORD PTR _irpSp$[ebp]
  001c8	8b 51 04	 mov	 edx, DWORD PTR [ecx+4]
  001cb	3b 95 e4 fd ff
	ff		 cmp	 edx, DWORD PTR _outLength$29987[ebp]
  001d1	73 19		 jae	 SHORT $LN39@ProcessVol

; 522  : 			{
; 523  : 				Irp->IoStatus.Information = sizeof (MOUNTDEV_NAME);

  001d3	8b 45 10	 mov	 eax, DWORD PTR _Irp$[ebp]
  001d6	c7 40 1c 04 00
	00 00		 mov	 DWORD PTR [eax+28], 4

; 524  : 				Irp->IoStatus.Status = STATUS_BUFFER_OVERFLOW;

  001dd	8b 4d 10	 mov	 ecx, DWORD PTR _Irp$[ebp]
  001e0	c7 41 18 05 00
	00 80		 mov	 DWORD PTR [ecx+24], -2147483643 ; 80000005H

; 525  : 
; 526  : 				break;

  001e7	e9 eb 09 00 00	 jmp	 $LN43@ProcessVol
$LN39@ProcessVol:

; 527  : 			}
; 528  : 
; 529  : 			RtlCopyMemory ((PCHAR)outputBuffer->Name,ntUnicodeString.Buffer, ntUnicodeString.Length);

  001ec	0f b7 55 f4	 movzx	 edx, WORD PTR _ntUnicodeString$29988[ebp]
  001f0	52		 push	 edx
  001f1	8b 45 f8	 mov	 eax, DWORD PTR _ntUnicodeString$29988[ebp+4]
  001f4	50		 push	 eax
  001f5	8b 4d f0	 mov	 ecx, DWORD PTR _outputBuffer$29990[ebp]
  001f8	83 c1 02	 add	 ecx, 2
  001fb	51		 push	 ecx
  001fc	e8 00 00 00 00	 call	 _memcpy
  00201	83 c4 0c	 add	 esp, 12			; 0000000cH

; 530  : 
; 531  : 			Irp->IoStatus.Status = STATUS_SUCCESS;

  00204	8b 55 10	 mov	 edx, DWORD PTR _Irp$[ebp]
  00207	c7 42 18 00 00
	00 00		 mov	 DWORD PTR [edx+24], 0

; 532  : 			Irp->IoStatus.Information = outLength;

  0020e	8b 45 10	 mov	 eax, DWORD PTR _Irp$[ebp]
  00211	8b 8d e4 fd ff
	ff		 mov	 ecx, DWORD PTR _outLength$29987[ebp]
  00217	89 48 1c	 mov	 DWORD PTR [eax+28], ecx

; 533  : 
; 534  : 			Dump ("name = %ls\n",ntName);

  0021a	8d 95 e8 fd ff
	ff		 lea	 edx, DWORD PTR _ntName$29989[ebp]
  00220	52		 push	 edx
  00221	68 00 00 00 00	 push	 OFFSET ??_C@_0M@FBJPBOL@name?5?$DN?5?$CFls?6?$AA@FNODOBFM@
  00226	e8 00 00 00 00	 call	 _DbgPrint
  0022b	83 c4 08	 add	 esp, 8
$LN40@ProcessVol:

; 535  : 		}
; 536  : 		break;

  0022e	e9 a4 09 00 00	 jmp	 $LN43@ProcessVol
$LN38@ProcessVol:

; 537  : 
; 538  : 	case IOCTL_MOUNTDEV_QUERY_UNIQUE_ID:
; 539  : 		if (!ValidateIOBufferSize (Irp, sizeof (MOUNTDEV_UNIQUE_ID), ValidateOutput))

  00233	6a 01		 push	 1
  00235	6a 04		 push	 4
  00237	8b 45 10	 mov	 eax, DWORD PTR _Irp$[ebp]
  0023a	50		 push	 eax
  0023b	e8 00 00 00 00	 call	 _ValidateIOBufferSize@12
  00240	85 c0		 test	 eax, eax
  00242	75 19		 jne	 SHORT $LN37@ProcessVol

; 540  : 		{
; 541  : 			Irp->IoStatus.Information = sizeof (MOUNTDEV_UNIQUE_ID);

  00244	8b 4d 10	 mov	 ecx, DWORD PTR _Irp$[ebp]
  00247	c7 41 1c 04 00
	00 00		 mov	 DWORD PTR [ecx+28], 4

; 542  : 			Irp->IoStatus.Status = STATUS_BUFFER_OVERFLOW;

  0024e	8b 55 10	 mov	 edx, DWORD PTR _Irp$[ebp]
  00251	c7 42 18 05 00
	00 80		 mov	 DWORD PTR [edx+24], -2147483643 ; 80000005H

; 543  : 		}
; 544  : 		else

  00258	e9 6c 02 00 00	 jmp	 $LN36@ProcessVol
$LN37@ProcessVol:

; 545  : 		{
; 546  : 			ULONG outLength;
; 547  : 			UCHAR volId[128], tmp[] = { 0,0 };

  0025d	c6 85 dc fd ff
	ff 00		 mov	 BYTE PTR _tmp$30007[ebp], 0
  00264	c6 85 dd fd ff
	ff 00		 mov	 BYTE PTR _tmp$30007[ebp+1], 0

; 548  : 			PMOUNTDEV_UNIQUE_ID outputBuffer = (PMOUNTDEV_UNIQUE_ID) Irp->AssociatedIrp.SystemBuffer;

  0026b	8b 45 10	 mov	 eax, DWORD PTR _Irp$[ebp]
  0026e	8b 48 0c	 mov	 ecx, DWORD PTR [eax+12]
  00271	89 8d e0 fd ff
	ff		 mov	 DWORD PTR _outputBuffer$30008[ebp], ecx

; 549  : 
; 550  : 			strcpy (volId, TC_UNIQUE_ID_PREFIX); 

  00277	8b 15 00 00 00
	00		 mov	 edx, DWORD PTR ??_C@_0BA@OLBPPLP@TrueCryptVolume?$AA@FNODOBFM@
  0027d	89 95 58 fd ff
	ff		 mov	 DWORD PTR _volId$30006[ebp], edx
  00283	a1 04 00 00 00	 mov	 eax, DWORD PTR ??_C@_0BA@OLBPPLP@TrueCryptVolume?$AA@FNODOBFM@+4
  00288	89 85 5c fd ff
	ff		 mov	 DWORD PTR _volId$30006[ebp+4], eax
  0028e	8b 0d 08 00 00
	00		 mov	 ecx, DWORD PTR ??_C@_0BA@OLBPPLP@TrueCryptVolume?$AA@FNODOBFM@+8
  00294	89 8d 60 fd ff
	ff		 mov	 DWORD PTR _volId$30006[ebp+8], ecx
  0029a	8b 15 0c 00 00
	00		 mov	 edx, DWORD PTR ??_C@_0BA@OLBPPLP@TrueCryptVolume?$AA@FNODOBFM@+12
  002a0	89 95 64 fd ff
	ff		 mov	 DWORD PTR _volId$30006[ebp+12], edx

; 551  : 			tmp[0] = 'A' + (UCHAR) Extension->nDosDriveNo;

  002a6	8b 45 0c	 mov	 eax, DWORD PTR _Extension$[ebp]
  002a9	0f b6 48 14	 movzx	 ecx, BYTE PTR [eax+20]
  002ad	83 c1 41	 add	 ecx, 65			; 00000041H
  002b0	88 8d dc fd ff
	ff		 mov	 BYTE PTR _tmp$30007[ebp], cl

; 552  : 			strcat (volId, tmp);

  002b6	8d 95 dc fd ff
	ff		 lea	 edx, DWORD PTR _tmp$30007[ebp]
  002bc	89 95 0c fb ff
	ff		 mov	 DWORD PTR tv487[ebp], edx
  002c2	8b 85 0c fb ff
	ff		 mov	 eax, DWORD PTR tv487[ebp]
  002c8	89 85 08 fb ff
	ff		 mov	 DWORD PTR tv489[ebp], eax
$LL54@ProcessVol:
  002ce	8b 8d 0c fb ff
	ff		 mov	 ecx, DWORD PTR tv487[ebp]
  002d4	8a 11		 mov	 dl, BYTE PTR [ecx]
  002d6	88 95 07 fb ff
	ff		 mov	 BYTE PTR tv492[ebp], dl
  002dc	83 85 0c fb ff
	ff 01		 add	 DWORD PTR tv487[ebp], 1
  002e3	80 bd 07 fb ff
	ff 00		 cmp	 BYTE PTR tv492[ebp], 0
  002ea	75 e2		 jne	 SHORT $LL54@ProcessVol
  002ec	8b 85 0c fb ff
	ff		 mov	 eax, DWORD PTR tv487[ebp]
  002f2	2b 85 08 fb ff
	ff		 sub	 eax, DWORD PTR tv489[ebp]
  002f8	8b 8d 08 fb ff
	ff		 mov	 ecx, DWORD PTR tv489[ebp]
  002fe	89 8d 00 fb ff
	ff		 mov	 DWORD PTR tv497[ebp], ecx
  00304	89 85 fc fa ff
	ff		 mov	 DWORD PTR tv498[ebp], eax
  0030a	8d 95 58 fd ff
	ff		 lea	 edx, DWORD PTR _volId$30006[ebp]
  00310	83 c2 ff	 add	 edx, -1
  00313	89 95 f8 fa ff
	ff		 mov	 DWORD PTR tv501[ebp], edx
$LL55@ProcessVol:
  00319	8b 85 f8 fa ff
	ff		 mov	 eax, DWORD PTR tv501[ebp]
  0031f	8a 48 01	 mov	 cl, BYTE PTR [eax+1]
  00322	88 8d f7 fa ff
	ff		 mov	 BYTE PTR tv504[ebp], cl
  00328	83 85 f8 fa ff
	ff 01		 add	 DWORD PTR tv501[ebp], 1
  0032f	80 bd f7 fa ff
	ff 00		 cmp	 BYTE PTR tv504[ebp], 0
  00336	75 e1		 jne	 SHORT $LL55@ProcessVol
  00338	8b bd f8 fa ff
	ff		 mov	 edi, DWORD PTR tv501[ebp]
  0033e	8b b5 00 fb ff
	ff		 mov	 esi, DWORD PTR tv497[ebp]
  00344	8b 95 fc fa ff
	ff		 mov	 edx, DWORD PTR tv498[ebp]
  0034a	8b ca		 mov	 ecx, edx
  0034c	c1 e9 02	 shr	 ecx, 2
  0034f	f3 a5		 rep movsd
  00351	8b ca		 mov	 ecx, edx
  00353	83 e1 03	 and	 ecx, 3
  00356	f3 a4		 rep movsb

; 553  : 			
; 554  : 			outputBuffer->UniqueIdLength = (USHORT) strlen (volId);

  00358	8d 85 58 fd ff
	ff		 lea	 eax, DWORD PTR _volId$30006[ebp]
  0035e	89 85 f0 fa ff
	ff		 mov	 DWORD PTR tv519[ebp], eax
  00364	8b 8d f0 fa ff
	ff		 mov	 ecx, DWORD PTR tv519[ebp]
  0036a	83 c1 01	 add	 ecx, 1
  0036d	89 8d ec fa ff
	ff		 mov	 DWORD PTR tv522[ebp], ecx
$LL56@ProcessVol:
  00373	8b 95 f0 fa ff
	ff		 mov	 edx, DWORD PTR tv519[ebp]
  00379	8a 02		 mov	 al, BYTE PTR [edx]
  0037b	88 85 eb fa ff
	ff		 mov	 BYTE PTR tv525[ebp], al
  00381	83 85 f0 fa ff
	ff 01		 add	 DWORD PTR tv519[ebp], 1
  00388	80 bd eb fa ff
	ff 00		 cmp	 BYTE PTR tv525[ebp], 0
  0038f	75 e2		 jne	 SHORT $LL56@ProcessVol
  00391	8b 8d f0 fa ff
	ff		 mov	 ecx, DWORD PTR tv519[ebp]
  00397	2b 8d ec fa ff
	ff		 sub	 ecx, DWORD PTR tv522[ebp]
  0039d	89 8d e4 fa ff
	ff		 mov	 DWORD PTR tv151[ebp], ecx
  003a3	8b 95 e0 fd ff
	ff		 mov	 edx, DWORD PTR _outputBuffer$30008[ebp]
  003a9	66 8b 85 e4 fa
	ff ff		 mov	 ax, WORD PTR tv151[ebp]
  003b0	66 89 02	 mov	 WORD PTR [edx], ax

; 555  : 			outLength = (ULONG) (strlen (volId) + sizeof (USHORT));

  003b3	8d 8d 58 fd ff
	ff		 lea	 ecx, DWORD PTR _volId$30006[ebp]
  003b9	89 8d e0 fa ff
	ff		 mov	 DWORD PTR tv532[ebp], ecx
  003bf	8b 95 e0 fa ff
	ff		 mov	 edx, DWORD PTR tv532[ebp]
  003c5	83 c2 01	 add	 edx, 1
  003c8	89 95 dc fa ff
	ff		 mov	 DWORD PTR tv535[ebp], edx
$LL57@ProcessVol:
  003ce	8b 85 e0 fa ff
	ff		 mov	 eax, DWORD PTR tv532[ebp]
  003d4	8a 08		 mov	 cl, BYTE PTR [eax]
  003d6	88 8d db fa ff
	ff		 mov	 BYTE PTR tv538[ebp], cl
  003dc	83 85 e0 fa ff
	ff 01		 add	 DWORD PTR tv532[ebp], 1
  003e3	80 bd db fa ff
	ff 00		 cmp	 BYTE PTR tv538[ebp], 0
  003ea	75 e2		 jne	 SHORT $LL57@ProcessVol
  003ec	8b 95 e0 fa ff
	ff		 mov	 edx, DWORD PTR tv532[ebp]
  003f2	2b 95 dc fa ff
	ff		 sub	 edx, DWORD PTR tv535[ebp]
  003f8	89 95 d4 fa ff
	ff		 mov	 DWORD PTR tv155[ebp], edx
  003fe	8b 85 d4 fa ff
	ff		 mov	 eax, DWORD PTR tv155[ebp]
  00404	83 c0 02	 add	 eax, 2
  00407	89 85 54 fd ff
	ff		 mov	 DWORD PTR _outLength$30005[ebp], eax

; 556  : 
; 557  : 			if (irpSp->Parameters.DeviceIoControl.OutputBufferLength < outLength)

  0040d	8b 4d fc	 mov	 ecx, DWORD PTR _irpSp$[ebp]
  00410	8b 51 04	 mov	 edx, DWORD PTR [ecx+4]
  00413	3b 95 54 fd ff
	ff		 cmp	 edx, DWORD PTR _outLength$30005[ebp]
  00419	73 19		 jae	 SHORT $LN35@ProcessVol

; 558  : 			{
; 559  : 				Irp->IoStatus.Information = sizeof (MOUNTDEV_UNIQUE_ID);

  0041b	8b 45 10	 mov	 eax, DWORD PTR _Irp$[ebp]
  0041e	c7 40 1c 04 00
	00 00		 mov	 DWORD PTR [eax+28], 4

; 560  : 				Irp->IoStatus.Status = STATUS_BUFFER_OVERFLOW;

  00425	8b 4d 10	 mov	 ecx, DWORD PTR _Irp$[ebp]
  00428	c7 41 18 05 00
	00 80		 mov	 DWORD PTR [ecx+24], -2147483643 ; 80000005H

; 561  : 				break;

  0042f	e9 a3 07 00 00	 jmp	 $LN43@ProcessVol
$LN35@ProcessVol:

; 562  : 			}
; 563  : 
; 564  : 			RtlCopyMemory ((PCHAR)outputBuffer->UniqueId, volId, strlen (volId));

  00434	8d 95 58 fd ff
	ff		 lea	 edx, DWORD PTR _volId$30006[ebp]
  0043a	89 95 d0 fa ff
	ff		 mov	 DWORD PTR tv548[ebp], edx
  00440	8b 85 d0 fa ff
	ff		 mov	 eax, DWORD PTR tv548[ebp]
  00446	83 c0 01	 add	 eax, 1
  00449	89 85 cc fa ff
	ff		 mov	 DWORD PTR tv551[ebp], eax
$LL58@ProcessVol:
  0044f	8b 8d d0 fa ff
	ff		 mov	 ecx, DWORD PTR tv548[ebp]
  00455	8a 11		 mov	 dl, BYTE PTR [ecx]
  00457	88 95 cb fa ff
	ff		 mov	 BYTE PTR tv554[ebp], dl
  0045d	83 85 d0 fa ff
	ff 01		 add	 DWORD PTR tv548[ebp], 1
  00464	80 bd cb fa ff
	ff 00		 cmp	 BYTE PTR tv554[ebp], 0
  0046b	75 e2		 jne	 SHORT $LL58@ProcessVol
  0046d	8b 85 d0 fa ff
	ff		 mov	 eax, DWORD PTR tv548[ebp]
  00473	2b 85 cc fa ff
	ff		 sub	 eax, DWORD PTR tv551[ebp]
  00479	89 85 c4 fa ff
	ff		 mov	 DWORD PTR tv164[ebp], eax
  0047f	8b 8d c4 fa ff
	ff		 mov	 ecx, DWORD PTR tv164[ebp]
  00485	51		 push	 ecx
  00486	8d 95 58 fd ff
	ff		 lea	 edx, DWORD PTR _volId$30006[ebp]
  0048c	52		 push	 edx
  0048d	8b 85 e0 fd ff
	ff		 mov	 eax, DWORD PTR _outputBuffer$30008[ebp]
  00493	83 c0 02	 add	 eax, 2
  00496	50		 push	 eax
  00497	e8 00 00 00 00	 call	 _memcpy
  0049c	83 c4 0c	 add	 esp, 12			; 0000000cH

; 565  : 
; 566  : 			Irp->IoStatus.Status = STATUS_SUCCESS;

  0049f	8b 4d 10	 mov	 ecx, DWORD PTR _Irp$[ebp]
  004a2	c7 41 18 00 00
	00 00		 mov	 DWORD PTR [ecx+24], 0

; 567  : 			Irp->IoStatus.Information = outLength;

  004a9	8b 55 10	 mov	 edx, DWORD PTR _Irp$[ebp]
  004ac	8b 85 54 fd ff
	ff		 mov	 eax, DWORD PTR _outLength$30005[ebp]
  004b2	89 42 1c	 mov	 DWORD PTR [edx+28], eax

; 568  : 
; 569  : 			Dump ("id = %s\n",volId);

  004b5	8d 8d 58 fd ff
	ff		 lea	 ecx, DWORD PTR _volId$30006[ebp]
  004bb	51		 push	 ecx
  004bc	68 00 00 00 00	 push	 OFFSET ??_C@_08DALLBBIL@id?5?$DN?5?$CFs?6?$AA@FNODOBFM@
  004c1	e8 00 00 00 00	 call	 _DbgPrint
  004c6	83 c4 08	 add	 esp, 8
$LN36@ProcessVol:

; 570  : 		}
; 571  : 		break;

  004c9	e9 09 07 00 00	 jmp	 $LN43@ProcessVol
$LN34@ProcessVol:

; 572  : 
; 573  : 	case IOCTL_MOUNTDEV_QUERY_SUGGESTED_LINK_NAME:
; 574  : 		{
; 575  : 			ULONG outLength;
; 576  : 			UNICODE_STRING ntUnicodeString;
; 577  : 			WCHAR ntName[256];
; 578  : 			PMOUNTDEV_SUGGESTED_LINK_NAME outputBuffer = (PMOUNTDEV_SUGGESTED_LINK_NAME) Irp->AssociatedIrp.SystemBuffer;

  004ce	8b 55 10	 mov	 edx, DWORD PTR _Irp$[ebp]
  004d1	8b 42 0c	 mov	 eax, DWORD PTR [edx+12]
  004d4	89 85 48 fd ff
	ff		 mov	 DWORD PTR _outputBuffer$30025[ebp], eax

; 579  : 
; 580  : 			if (!ValidateIOBufferSize (Irp, sizeof (MOUNTDEV_SUGGESTED_LINK_NAME), ValidateOutput))

  004da	6a 01		 push	 1
  004dc	6a 06		 push	 6
  004de	8b 4d 10	 mov	 ecx, DWORD PTR _Irp$[ebp]
  004e1	51		 push	 ecx
  004e2	e8 00 00 00 00	 call	 _ValidateIOBufferSize@12
  004e7	85 c0		 test	 eax, eax
  004e9	75 19		 jne	 SHORT $LN33@ProcessVol

; 581  : 			{
; 582  : 				Irp->IoStatus.Status = STATUS_INVALID_PARAMETER;

  004eb	8b 55 10	 mov	 edx, DWORD PTR _Irp$[ebp]
  004ee	c7 42 18 0d 00
	00 c0		 mov	 DWORD PTR [edx+24], -1073741811 ; c000000dH

; 583  : 				Irp->IoStatus.Information = 0;

  004f5	8b 45 10	 mov	 eax, DWORD PTR _Irp$[ebp]
  004f8	c7 40 1c 00 00
	00 00		 mov	 DWORD PTR [eax+28], 0

; 584  : 				break; 

  004ff	e9 d3 06 00 00	 jmp	 $LN43@ProcessVol
$LN33@ProcessVol:

; 585  : 			}
; 586  : 
; 587  : 			TCGetDosNameFromNumber (ntName, Extension->nDosDriveNo);

  00504	8b 4d 0c	 mov	 ecx, DWORD PTR _Extension$[ebp]
  00507	8b 51 14	 mov	 edx, DWORD PTR [ecx+20]
  0050a	52		 push	 edx
  0050b	8d 85 48 fb ff
	ff		 lea	 eax, DWORD PTR _ntName$30024[ebp]
  00511	50		 push	 eax
  00512	e8 00 00 00 00	 call	 _TCGetDosNameFromNumber@8

; 588  : 			RtlInitUnicodeString (&ntUnicodeString, ntName);

  00517	8d 8d 48 fb ff
	ff		 lea	 ecx, DWORD PTR _ntName$30024[ebp]
  0051d	51		 push	 ecx
  0051e	8d 95 4c fd ff
	ff		 lea	 edx, DWORD PTR _ntUnicodeString$30023[ebp]
  00524	52		 push	 edx
  00525	ff 15 00 00 00
	00		 call	 DWORD PTR __imp__RtlInitUnicodeString@8

; 589  : 
; 590  : 			outLength = FIELD_OFFSET(MOUNTDEV_SUGGESTED_LINK_NAME,Name) + ntUnicodeString.Length;

  0052b	0f b7 85 4c fd
	ff ff		 movzx	 eax, WORD PTR _ntUnicodeString$30023[ebp]
  00532	83 c0 04	 add	 eax, 4
  00535	89 85 44 fb ff
	ff		 mov	 DWORD PTR _outLength$30022[ebp], eax

; 591  : 
; 592  : 			outputBuffer->UseOnlyIfThereAreNoOtherLinks = FALSE;

  0053b	8b 8d 48 fd ff
	ff		 mov	 ecx, DWORD PTR _outputBuffer$30025[ebp]
  00541	c6 01 00	 mov	 BYTE PTR [ecx], 0

; 593  : 			outputBuffer->NameLength = ntUnicodeString.Length;

  00544	8b 95 48 fd ff
	ff		 mov	 edx, DWORD PTR _outputBuffer$30025[ebp]
  0054a	66 8b 85 4c fd
	ff ff		 mov	 ax, WORD PTR _ntUnicodeString$30023[ebp]
  00551	66 89 42 02	 mov	 WORD PTR [edx+2], ax

; 594  : 
; 595  : 			if(irpSp->Parameters.DeviceIoControl.OutputBufferLength < outLength)

  00555	8b 4d fc	 mov	 ecx, DWORD PTR _irpSp$[ebp]
  00558	8b 51 04	 mov	 edx, DWORD PTR [ecx+4]
  0055b	3b 95 44 fb ff
	ff		 cmp	 edx, DWORD PTR _outLength$30022[ebp]
  00561	73 19		 jae	 SHORT $LN32@ProcessVol

; 596  : 			{
; 597  : 				Irp->IoStatus.Information = sizeof (MOUNTDEV_SUGGESTED_LINK_NAME);

  00563	8b 45 10	 mov	 eax, DWORD PTR _Irp$[ebp]
  00566	c7 40 1c 06 00
	00 00		 mov	 DWORD PTR [eax+28], 6

; 598  : 				Irp->IoStatus.Status = STATUS_BUFFER_OVERFLOW;

  0056d	8b 4d 10	 mov	 ecx, DWORD PTR _Irp$[ebp]
  00570	c7 41 18 05 00
	00 80		 mov	 DWORD PTR [ecx+24], -2147483643 ; 80000005H

; 599  : 				break;

  00577	e9 5b 06 00 00	 jmp	 $LN43@ProcessVol
$LN32@ProcessVol:

; 600  : 			}
; 601  : 
; 602  : 			RtlCopyMemory ((PCHAR)outputBuffer->Name,ntUnicodeString.Buffer, ntUnicodeString.Length);

  0057c	0f b7 95 4c fd
	ff ff		 movzx	 edx, WORD PTR _ntUnicodeString$30023[ebp]
  00583	52		 push	 edx
  00584	8b 85 50 fd ff
	ff		 mov	 eax, DWORD PTR _ntUnicodeString$30023[ebp+4]
  0058a	50		 push	 eax
  0058b	8b 8d 48 fd ff
	ff		 mov	 ecx, DWORD PTR _outputBuffer$30025[ebp]
  00591	83 c1 04	 add	 ecx, 4
  00594	51		 push	 ecx
  00595	e8 00 00 00 00	 call	 _memcpy
  0059a	83 c4 0c	 add	 esp, 12			; 0000000cH

; 603  : 		
; 604  : 			Irp->IoStatus.Status = STATUS_SUCCESS;

  0059d	8b 55 10	 mov	 edx, DWORD PTR _Irp$[ebp]
  005a0	c7 42 18 00 00
	00 00		 mov	 DWORD PTR [edx+24], 0

; 605  : 			Irp->IoStatus.Information = outLength;

  005a7	8b 45 10	 mov	 eax, DWORD PTR _Irp$[ebp]
  005aa	8b 8d 44 fb ff
	ff		 mov	 ecx, DWORD PTR _outLength$30022[ebp]
  005b0	89 48 1c	 mov	 DWORD PTR [eax+28], ecx

; 606  : 
; 607  : 			Dump ("link = %ls\n",ntName);

  005b3	8d 95 48 fb ff
	ff		 lea	 edx, DWORD PTR _ntName$30024[ebp]
  005b9	52		 push	 edx
  005ba	68 00 00 00 00	 push	 OFFSET ??_C@_0M@HABEOOKA@link?5?$DN?5?$CFls?6?$AA@FNODOBFM@
  005bf	e8 00 00 00 00	 call	 _DbgPrint
  005c4	83 c4 08	 add	 esp, 8

; 608  : 		}
; 609  : 		break;

  005c7	e9 0b 06 00 00	 jmp	 $LN43@ProcessVol
$LN31@ProcessVol:

; 610  : 
; 611  : 	case IOCTL_DISK_GET_MEDIA_TYPES:
; 612  : 	case IOCTL_DISK_GET_DRIVE_GEOMETRY:
; 613  : 		/* Return the drive geometry for the disk.  Note that we
; 614  : 		   return values which were made up to suit the disk size.  */
; 615  : 		if (ValidateIOBufferSize (Irp, sizeof (DISK_GEOMETRY), ValidateOutput))

  005cc	6a 01		 push	 1
  005ce	6a 18		 push	 24			; 00000018H
  005d0	8b 45 10	 mov	 eax, DWORD PTR _Irp$[ebp]
  005d3	50		 push	 eax
  005d4	e8 00 00 00 00	 call	 _ValidateIOBufferSize@12
  005d9	85 c0		 test	 eax, eax
  005db	0f 84 83 00 00
	00		 je	 $LN30@ProcessVol

; 616  : 		{
; 617  : 			PDISK_GEOMETRY outputBuffer = (PDISK_GEOMETRY)
; 618  : 			Irp->AssociatedIrp.SystemBuffer;

  005e1	8b 4d 10	 mov	 ecx, DWORD PTR _Irp$[ebp]
  005e4	8b 51 0c	 mov	 edx, DWORD PTR [ecx+12]
  005e7	89 95 40 fb ff
	ff		 mov	 DWORD PTR _outputBuffer$30042[ebp], edx

; 619  : 
; 620  : 			outputBuffer->MediaType = Extension->bRemovable ? RemovableMedia : FixedMedia;

  005ed	8b 45 0c	 mov	 eax, DWORD PTR _Extension$[ebp]
  005f0	8b 88 8c 02 00
	00		 mov	 ecx, DWORD PTR [eax+652]
  005f6	f7 d9		 neg	 ecx
  005f8	1b c9		 sbb	 ecx, ecx
  005fa	83 c1 0c	 add	 ecx, 12			; 0000000cH
  005fd	8b 95 40 fb ff
	ff		 mov	 edx, DWORD PTR _outputBuffer$30042[ebp]
  00603	89 4a 08	 mov	 DWORD PTR [edx+8], ecx

; 621  : 			outputBuffer->Cylinders.QuadPart = Extension->NumberOfCylinders;

  00606	8b 85 40 fb ff
	ff		 mov	 eax, DWORD PTR _outputBuffer$30042[ebp]
  0060c	8b 4d 0c	 mov	 ecx, DWORD PTR _Extension$[ebp]
  0060f	8b 51 78	 mov	 edx, DWORD PTR [ecx+120]
  00612	89 10		 mov	 DWORD PTR [eax], edx
  00614	8b 49 7c	 mov	 ecx, DWORD PTR [ecx+124]
  00617	89 48 04	 mov	 DWORD PTR [eax+4], ecx

; 622  : 			outputBuffer->TracksPerCylinder = Extension->TracksPerCylinder;

  0061a	8b 95 40 fb ff
	ff		 mov	 edx, DWORD PTR _outputBuffer$30042[ebp]
  00620	8b 45 0c	 mov	 eax, DWORD PTR _Extension$[ebp]
  00623	8b 88 80 00 00
	00		 mov	 ecx, DWORD PTR [eax+128]
  00629	89 4a 0c	 mov	 DWORD PTR [edx+12], ecx

; 623  : 			outputBuffer->SectorsPerTrack = Extension->SectorsPerTrack;

  0062c	8b 95 40 fb ff
	ff		 mov	 edx, DWORD PTR _outputBuffer$30042[ebp]
  00632	8b 45 0c	 mov	 eax, DWORD PTR _Extension$[ebp]
  00635	8b 88 84 00 00
	00		 mov	 ecx, DWORD PTR [eax+132]
  0063b	89 4a 10	 mov	 DWORD PTR [edx+16], ecx

; 624  : 			outputBuffer->BytesPerSector = Extension->BytesPerSector;

  0063e	8b 95 40 fb ff
	ff		 mov	 edx, DWORD PTR _outputBuffer$30042[ebp]
  00644	8b 45 0c	 mov	 eax, DWORD PTR _Extension$[ebp]
  00647	8b 88 88 00 00
	00		 mov	 ecx, DWORD PTR [eax+136]
  0064d	89 4a 14	 mov	 DWORD PTR [edx+20], ecx

; 625  : 			Irp->IoStatus.Status = STATUS_SUCCESS;

  00650	8b 55 10	 mov	 edx, DWORD PTR _Irp$[ebp]
  00653	c7 42 18 00 00
	00 00		 mov	 DWORD PTR [edx+24], 0

; 626  : 			Irp->IoStatus.Information = sizeof (DISK_GEOMETRY);

  0065a	8b 45 10	 mov	 eax, DWORD PTR _Irp$[ebp]
  0065d	c7 40 1c 18 00
	00 00		 mov	 DWORD PTR [eax+28], 24	; 00000018H
$LN30@ProcessVol:

; 627  : 		}
; 628  : 		break;

  00664	e9 6e 05 00 00	 jmp	 $LN43@ProcessVol
$LN29@ProcessVol:

; 629  : 
; 630  : 	case IOCTL_DISK_GET_PARTITION_INFO:
; 631  : 		if (ValidateIOBufferSize (Irp, sizeof (PARTITION_INFORMATION), ValidateOutput))

  00669	6a 01		 push	 1
  0066b	6a 20		 push	 32			; 00000020H
  0066d	8b 4d 10	 mov	 ecx, DWORD PTR _Irp$[ebp]
  00670	51		 push	 ecx
  00671	e8 00 00 00 00	 call	 _ValidateIOBufferSize@12
  00676	85 c0		 test	 eax, eax
  00678	0f 84 88 00 00
	00		 je	 $LN28@ProcessVol

; 632  : 		{
; 633  : 			PPARTITION_INFORMATION outputBuffer = (PPARTITION_INFORMATION)
; 634  : 			Irp->AssociatedIrp.SystemBuffer;

  0067e	8b 55 10	 mov	 edx, DWORD PTR _Irp$[ebp]
  00681	8b 42 0c	 mov	 eax, DWORD PTR [edx+12]
  00684	89 85 3c fb ff
	ff		 mov	 DWORD PTR _outputBuffer$30049[ebp], eax

; 635  : 
; 636  : 			outputBuffer->PartitionType = Extension->PartitionType;

  0068a	8b 8d 3c fb ff
	ff		 mov	 ecx, DWORD PTR _outputBuffer$30049[ebp]
  00690	8b 55 0c	 mov	 edx, DWORD PTR _Extension$[ebp]
  00693	8a 82 8c 00 00
	00		 mov	 al, BYTE PTR [edx+140]
  00699	88 41 18	 mov	 BYTE PTR [ecx+24], al

; 637  : 			outputBuffer->BootIndicator = FALSE;

  0069c	8b 8d 3c fb ff
	ff		 mov	 ecx, DWORD PTR _outputBuffer$30049[ebp]
  006a2	c6 41 19 00	 mov	 BYTE PTR [ecx+25], 0

; 638  : 			outputBuffer->RecognizedPartition = TRUE;

  006a6	8b 95 3c fb ff
	ff		 mov	 edx, DWORD PTR _outputBuffer$30049[ebp]
  006ac	c6 42 1a 01	 mov	 BYTE PTR [edx+26], 1

; 639  : 			outputBuffer->RewritePartition = FALSE;

  006b0	8b 85 3c fb ff
	ff		 mov	 eax, DWORD PTR _outputBuffer$30049[ebp]
  006b6	c6 40 1b 00	 mov	 BYTE PTR [eax+27], 0

; 640  : 			outputBuffer->StartingOffset.QuadPart = Extension->BytesPerSector;

  006ba	8b 4d 0c	 mov	 ecx, DWORD PTR _Extension$[ebp]
  006bd	8b 91 88 00 00
	00		 mov	 edx, DWORD PTR [ecx+136]
  006c3	33 c0		 xor	 eax, eax
  006c5	8b 8d 3c fb ff
	ff		 mov	 ecx, DWORD PTR _outputBuffer$30049[ebp]
  006cb	89 11		 mov	 DWORD PTR [ecx], edx
  006cd	89 41 04	 mov	 DWORD PTR [ecx+4], eax

; 641  : 			outputBuffer->PartitionLength.QuadPart= Extension->DiskLength;

  006d0	8b 95 3c fb ff
	ff		 mov	 edx, DWORD PTR _outputBuffer$30049[ebp]
  006d6	8b 45 0c	 mov	 eax, DWORD PTR _Extension$[ebp]
  006d9	8b 48 70	 mov	 ecx, DWORD PTR [eax+112]
  006dc	89 4a 08	 mov	 DWORD PTR [edx+8], ecx
  006df	8b 40 74	 mov	 eax, DWORD PTR [eax+116]
  006e2	89 42 0c	 mov	 DWORD PTR [edx+12], eax

; 642  : 			outputBuffer->HiddenSectors = 0;

  006e5	8b 8d 3c fb ff
	ff		 mov	 ecx, DWORD PTR _outputBuffer$30049[ebp]
  006eb	c7 41 10 00 00
	00 00		 mov	 DWORD PTR [ecx+16], 0

; 643  : 			Irp->IoStatus.Status = STATUS_SUCCESS;

  006f2	8b 55 10	 mov	 edx, DWORD PTR _Irp$[ebp]
  006f5	c7 42 18 00 00
	00 00		 mov	 DWORD PTR [edx+24], 0

; 644  : 			Irp->IoStatus.Information = sizeof (PARTITION_INFORMATION);

  006fc	8b 45 10	 mov	 eax, DWORD PTR _Irp$[ebp]
  006ff	c7 40 1c 20 00
	00 00		 mov	 DWORD PTR [eax+28], 32	; 00000020H
$LN28@ProcessVol:

; 645  : 		}
; 646  : 		break;

  00706	e9 cc 04 00 00	 jmp	 $LN43@ProcessVol
$LN27@ProcessVol:

; 647  : 
; 648  : 	case IOCTL_DISK_GET_PARTITION_INFO_EX:
; 649  : 		if (ValidateIOBufferSize (Irp, sizeof (PARTITION_INFORMATION_EX), ValidateOutput))

  0070b	6a 01		 push	 1
  0070d	68 90 00 00 00	 push	 144			; 00000090H
  00712	8b 4d 10	 mov	 ecx, DWORD PTR _Irp$[ebp]
  00715	51		 push	 ecx
  00716	e8 00 00 00 00	 call	 _ValidateIOBufferSize@12
  0071b	85 c0		 test	 eax, eax
  0071d	0f 84 95 00 00
	00		 je	 $LN26@ProcessVol

; 650  : 		{
; 651  : 			PPARTITION_INFORMATION_EX outputBuffer = (PPARTITION_INFORMATION_EX) Irp->AssociatedIrp.SystemBuffer;

  00723	8b 55 10	 mov	 edx, DWORD PTR _Irp$[ebp]
  00726	8b 42 0c	 mov	 eax, DWORD PTR [edx+12]
  00729	89 85 38 fb ff
	ff		 mov	 DWORD PTR _outputBuffer$30056[ebp], eax

; 652  : 
; 653  : 			outputBuffer->PartitionStyle = PARTITION_STYLE_MBR;

  0072f	8b 8d 38 fb ff
	ff		 mov	 ecx, DWORD PTR _outputBuffer$30056[ebp]
  00735	c7 01 00 00 00
	00		 mov	 DWORD PTR [ecx], 0

; 654  : 			outputBuffer->RewritePartition = FALSE;

  0073b	8b 95 38 fb ff
	ff		 mov	 edx, DWORD PTR _outputBuffer$30056[ebp]
  00741	c6 42 1c 00	 mov	 BYTE PTR [edx+28], 0

; 655  : 			outputBuffer->StartingOffset.QuadPart = Extension->BytesPerSector;

  00745	8b 45 0c	 mov	 eax, DWORD PTR _Extension$[ebp]
  00748	8b 88 88 00 00
	00		 mov	 ecx, DWORD PTR [eax+136]
  0074e	33 d2		 xor	 edx, edx
  00750	8b 85 38 fb ff
	ff		 mov	 eax, DWORD PTR _outputBuffer$30056[ebp]
  00756	89 48 08	 mov	 DWORD PTR [eax+8], ecx
  00759	89 50 0c	 mov	 DWORD PTR [eax+12], edx

; 656  : 			outputBuffer->PartitionLength.QuadPart= Extension->DiskLength;

  0075c	8b 8d 38 fb ff
	ff		 mov	 ecx, DWORD PTR _outputBuffer$30056[ebp]
  00762	8b 55 0c	 mov	 edx, DWORD PTR _Extension$[ebp]
  00765	8b 42 70	 mov	 eax, DWORD PTR [edx+112]
  00768	89 41 10	 mov	 DWORD PTR [ecx+16], eax
  0076b	8b 52 74	 mov	 edx, DWORD PTR [edx+116]
  0076e	89 51 14	 mov	 DWORD PTR [ecx+20], edx

; 657  : 			outputBuffer->Mbr.PartitionType = Extension->PartitionType;

  00771	8b 85 38 fb ff
	ff		 mov	 eax, DWORD PTR _outputBuffer$30056[ebp]
  00777	8b 4d 0c	 mov	 ecx, DWORD PTR _Extension$[ebp]
  0077a	8a 91 8c 00 00
	00		 mov	 dl, BYTE PTR [ecx+140]
  00780	88 50 20	 mov	 BYTE PTR [eax+32], dl

; 658  : 			outputBuffer->Mbr.BootIndicator = FALSE;

  00783	8b 85 38 fb ff
	ff		 mov	 eax, DWORD PTR _outputBuffer$30056[ebp]
  00789	c6 40 21 00	 mov	 BYTE PTR [eax+33], 0

; 659  : 			outputBuffer->Mbr.RecognizedPartition = TRUE;

  0078d	8b 8d 38 fb ff
	ff		 mov	 ecx, DWORD PTR _outputBuffer$30056[ebp]
  00793	c6 41 22 01	 mov	 BYTE PTR [ecx+34], 1

; 660  : 			outputBuffer->Mbr.HiddenSectors = 0;

  00797	8b 95 38 fb ff
	ff		 mov	 edx, DWORD PTR _outputBuffer$30056[ebp]
  0079d	c7 42 24 00 00
	00 00		 mov	 DWORD PTR [edx+36], 0

; 661  : 			Irp->IoStatus.Status = STATUS_SUCCESS;

  007a4	8b 45 10	 mov	 eax, DWORD PTR _Irp$[ebp]
  007a7	c7 40 18 00 00
	00 00		 mov	 DWORD PTR [eax+24], 0

; 662  : 			Irp->IoStatus.Information = sizeof (PARTITION_INFORMATION_EX);

  007ae	8b 4d 10	 mov	 ecx, DWORD PTR _Irp$[ebp]
  007b1	c7 41 1c 90 00
	00 00		 mov	 DWORD PTR [ecx+28], 144	; 00000090H
$LN26@ProcessVol:

; 663  : 		}
; 664  : 		break;

  007b8	e9 1a 04 00 00	 jmp	 $LN43@ProcessVol
$LN25@ProcessVol:

; 665  : 
; 666  : 	case IOCTL_DISK_GET_DRIVE_LAYOUT:
; 667  : 		if (ValidateIOBufferSize (Irp, sizeof (DRIVE_LAYOUT_INFORMATION), ValidateOutput))

  007bd	6a 01		 push	 1
  007bf	6a 28		 push	 40			; 00000028H
  007c1	8b 55 10	 mov	 edx, DWORD PTR _Irp$[ebp]
  007c4	52		 push	 edx
  007c5	e8 00 00 00 00	 call	 _ValidateIOBufferSize@12
  007ca	85 c0		 test	 eax, eax
  007cc	0f 84 a2 00 00
	00		 je	 $LN24@ProcessVol

; 668  : 		{
; 669  : 			PDRIVE_LAYOUT_INFORMATION outputBuffer = (PDRIVE_LAYOUT_INFORMATION)
; 670  : 			Irp->AssociatedIrp.SystemBuffer;

  007d2	8b 45 10	 mov	 eax, DWORD PTR _Irp$[ebp]
  007d5	8b 48 0c	 mov	 ecx, DWORD PTR [eax+12]
  007d8	89 8d 34 fb ff
	ff		 mov	 DWORD PTR _outputBuffer$30063[ebp], ecx

; 671  : 
; 672  : 			outputBuffer->PartitionCount = 1;

  007de	8b 95 34 fb ff
	ff		 mov	 edx, DWORD PTR _outputBuffer$30063[ebp]
  007e4	c7 02 01 00 00
	00		 mov	 DWORD PTR [edx], 1

; 673  : 			outputBuffer->Signature = 0;

  007ea	8b 85 34 fb ff
	ff		 mov	 eax, DWORD PTR _outputBuffer$30063[ebp]
  007f0	c7 40 04 00 00
	00 00		 mov	 DWORD PTR [eax+4], 0

; 674  : 
; 675  : 			outputBuffer->PartitionEntry->PartitionType = Extension->PartitionType;

  007f7	8b 8d 34 fb ff
	ff		 mov	 ecx, DWORD PTR _outputBuffer$30063[ebp]
  007fd	8b 55 0c	 mov	 edx, DWORD PTR _Extension$[ebp]
  00800	8a 82 8c 00 00
	00		 mov	 al, BYTE PTR [edx+140]
  00806	88 41 20	 mov	 BYTE PTR [ecx+32], al

; 676  : 			outputBuffer->PartitionEntry->BootIndicator = FALSE;

  00809	8b 8d 34 fb ff
	ff		 mov	 ecx, DWORD PTR _outputBuffer$30063[ebp]
  0080f	c6 41 21 00	 mov	 BYTE PTR [ecx+33], 0

; 677  : 			outputBuffer->PartitionEntry->RecognizedPartition = TRUE;

  00813	8b 95 34 fb ff
	ff		 mov	 edx, DWORD PTR _outputBuffer$30063[ebp]
  00819	c6 42 22 01	 mov	 BYTE PTR [edx+34], 1

; 678  : 			outputBuffer->PartitionEntry->RewritePartition = FALSE;

  0081d	8b 85 34 fb ff
	ff		 mov	 eax, DWORD PTR _outputBuffer$30063[ebp]
  00823	c6 40 23 00	 mov	 BYTE PTR [eax+35], 0

; 679  : 			outputBuffer->PartitionEntry->StartingOffset.QuadPart = Extension->BytesPerSector;

  00827	8b 4d 0c	 mov	 ecx, DWORD PTR _Extension$[ebp]
  0082a	8b 91 88 00 00
	00		 mov	 edx, DWORD PTR [ecx+136]
  00830	33 c0		 xor	 eax, eax
  00832	8b 8d 34 fb ff
	ff		 mov	 ecx, DWORD PTR _outputBuffer$30063[ebp]
  00838	89 51 08	 mov	 DWORD PTR [ecx+8], edx
  0083b	89 41 0c	 mov	 DWORD PTR [ecx+12], eax

; 680  : 			outputBuffer->PartitionEntry->PartitionLength.QuadPart = Extension->DiskLength;

  0083e	8b 95 34 fb ff
	ff		 mov	 edx, DWORD PTR _outputBuffer$30063[ebp]
  00844	8b 45 0c	 mov	 eax, DWORD PTR _Extension$[ebp]
  00847	8b 48 70	 mov	 ecx, DWORD PTR [eax+112]
  0084a	89 4a 10	 mov	 DWORD PTR [edx+16], ecx
  0084d	8b 40 74	 mov	 eax, DWORD PTR [eax+116]
  00850	89 42 14	 mov	 DWORD PTR [edx+20], eax

; 681  : 			outputBuffer->PartitionEntry->HiddenSectors = 0;

  00853	8b 8d 34 fb ff
	ff		 mov	 ecx, DWORD PTR _outputBuffer$30063[ebp]
  00859	c7 41 18 00 00
	00 00		 mov	 DWORD PTR [ecx+24], 0

; 682  : 
; 683  : 			Irp->IoStatus.Status = STATUS_SUCCESS;

  00860	8b 55 10	 mov	 edx, DWORD PTR _Irp$[ebp]
  00863	c7 42 18 00 00
	00 00		 mov	 DWORD PTR [edx+24], 0

; 684  : 			Irp->IoStatus.Information = sizeof (PARTITION_INFORMATION);

  0086a	8b 45 10	 mov	 eax, DWORD PTR _Irp$[ebp]
  0086d	c7 40 1c 20 00
	00 00		 mov	 DWORD PTR [eax+28], 32	; 00000020H
$LN24@ProcessVol:

; 685  : 		}
; 686  : 		break;

  00874	e9 5e 03 00 00	 jmp	 $LN43@ProcessVol
$LN23@ProcessVol:

; 687  : 
; 688  : 	case IOCTL_DISK_GET_LENGTH_INFO:
; 689  : 		if (!ValidateIOBufferSize (Irp, sizeof (GET_LENGTH_INFORMATION), ValidateOutput))

  00879	6a 01		 push	 1
  0087b	6a 08		 push	 8
  0087d	8b 4d 10	 mov	 ecx, DWORD PTR _Irp$[ebp]
  00880	51		 push	 ecx
  00881	e8 00 00 00 00	 call	 _ValidateIOBufferSize@12
  00886	85 c0		 test	 eax, eax
  00888	75 16		 jne	 SHORT $LN22@ProcessVol

; 690  : 		{
; 691  : 			Irp->IoStatus.Status = STATUS_BUFFER_OVERFLOW;

  0088a	8b 55 10	 mov	 edx, DWORD PTR _Irp$[ebp]
  0088d	c7 42 18 05 00
	00 80		 mov	 DWORD PTR [edx+24], -2147483643 ; 80000005H

; 692  : 			Irp->IoStatus.Information = sizeof (GET_LENGTH_INFORMATION);

  00894	8b 45 10	 mov	 eax, DWORD PTR _Irp$[ebp]
  00897	c7 40 1c 08 00
	00 00		 mov	 DWORD PTR [eax+28], 8

; 693  : 		}
; 694  : 		else

  0089e	eb 34		 jmp	 SHORT $LN21@ProcessVol
$LN22@ProcessVol:

; 695  : 		{
; 696  : 			PGET_LENGTH_INFORMATION outputBuffer = (PGET_LENGTH_INFORMATION) Irp->AssociatedIrp.SystemBuffer;

  008a0	8b 4d 10	 mov	 ecx, DWORD PTR _Irp$[ebp]
  008a3	8b 51 0c	 mov	 edx, DWORD PTR [ecx+12]
  008a6	89 95 30 fb ff
	ff		 mov	 DWORD PTR _outputBuffer$30073[ebp], edx

; 697  : 
; 698  : 			outputBuffer->Length.QuadPart = Extension->DiskLength;

  008ac	8b 85 30 fb ff
	ff		 mov	 eax, DWORD PTR _outputBuffer$30073[ebp]
  008b2	8b 4d 0c	 mov	 ecx, DWORD PTR _Extension$[ebp]
  008b5	8b 51 70	 mov	 edx, DWORD PTR [ecx+112]
  008b8	89 10		 mov	 DWORD PTR [eax], edx
  008ba	8b 49 74	 mov	 ecx, DWORD PTR [ecx+116]
  008bd	89 48 04	 mov	 DWORD PTR [eax+4], ecx

; 699  : 			Irp->IoStatus.Status = STATUS_SUCCESS;

  008c0	8b 55 10	 mov	 edx, DWORD PTR _Irp$[ebp]
  008c3	c7 42 18 00 00
	00 00		 mov	 DWORD PTR [edx+24], 0

; 700  : 			Irp->IoStatus.Information = sizeof (GET_LENGTH_INFORMATION);

  008ca	8b 45 10	 mov	 eax, DWORD PTR _Irp$[ebp]
  008cd	c7 40 1c 08 00
	00 00		 mov	 DWORD PTR [eax+28], 8
$LN21@ProcessVol:

; 701  : 		}
; 702  : 		break;

  008d4	e9 fe 02 00 00	 jmp	 $LN43@ProcessVol
$LN20@ProcessVol:

; 703  : 
; 704  : 	case IOCTL_DISK_VERIFY:
; 705  : 		if (ValidateIOBufferSize (Irp, sizeof (VERIFY_INFORMATION), ValidateInput))

  008d9	6a 00		 push	 0
  008db	6a 10		 push	 16			; 00000010H
  008dd	8b 4d 10	 mov	 ecx, DWORD PTR _Irp$[ebp]
  008e0	51		 push	 ecx
  008e1	e8 00 00 00 00	 call	 _ValidateIOBufferSize@12
  008e6	85 c0		 test	 eax, eax
  008e8	0f 84 ca 01 00
	00		 je	 $LN19@ProcessVol

; 706  : 		{
; 707  : 			PVERIFY_INFORMATION pVerifyInformation;
; 708  : 			pVerifyInformation = (PVERIFY_INFORMATION) Irp->AssociatedIrp.SystemBuffer;

  008ee	8b 55 10	 mov	 edx, DWORD PTR _Irp$[ebp]
  008f1	8b 42 0c	 mov	 eax, DWORD PTR [edx+12]
  008f4	89 85 2c fb ff
	ff		 mov	 DWORD PTR _pVerifyInformation$30080[ebp], eax

; 709  : 
; 710  : 			if (pVerifyInformation->StartingOffset.QuadPart + pVerifyInformation->Length > Extension->DiskLength)

  008fa	8b 8d 2c fb ff
	ff		 mov	 ecx, DWORD PTR _pVerifyInformation$30080[ebp]
  00900	8b 51 08	 mov	 edx, DWORD PTR [ecx+8]
  00903	33 c0		 xor	 eax, eax
  00905	8b 8d 2c fb ff
	ff		 mov	 ecx, DWORD PTR _pVerifyInformation$30080[ebp]
  0090b	03 11		 add	 edx, DWORD PTR [ecx]
  0090d	8b 49 04	 mov	 ecx, DWORD PTR [ecx+4]
  00910	13 c8		 adc	 ecx, eax
  00912	8b 45 0c	 mov	 eax, DWORD PTR _Extension$[ebp]
  00915	89 95 bc fa ff
	ff		 mov	 DWORD PTR tv718[ebp], edx
  0091b	89 8d c0 fa ff
	ff		 mov	 DWORD PTR tv718[ebp+4], ecx
  00921	89 85 b8 fa ff
	ff		 mov	 DWORD PTR tv721[ebp], eax
  00927	8b 8d b8 fa ff
	ff		 mov	 ecx, DWORD PTR tv721[ebp]
  0092d	8b 95 c0 fa ff
	ff		 mov	 edx, DWORD PTR tv718[ebp+4]
  00933	3b 51 74	 cmp	 edx, DWORD PTR [ecx+116]
  00936	7c 22		 jl	 SHORT $LN18@ProcessVol
  00938	7f 11		 jg	 SHORT $LN59@ProcessVol
  0093a	8b 85 b8 fa ff
	ff		 mov	 eax, DWORD PTR tv721[ebp]
  00940	8b 8d bc fa ff
	ff		 mov	 ecx, DWORD PTR tv718[ebp]
  00946	3b 48 70	 cmp	 ecx, DWORD PTR [eax+112]
  00949	76 0f		 jbe	 SHORT $LN18@ProcessVol
$LN59@ProcessVol:

; 711  : 				Irp->IoStatus.Status = STATUS_INVALID_PARAMETER;

  0094b	8b 55 10	 mov	 edx, DWORD PTR _Irp$[ebp]
  0094e	c7 42 18 0d 00
	00 c0		 mov	 DWORD PTR [edx+24], -1073741811 ; c000000dH

; 712  : 			else

  00955	e9 54 01 00 00	 jmp	 $LN17@ProcessVol
$LN18@ProcessVol:

; 713  : 			{
; 714  : 				IO_STATUS_BLOCK ioStatus;
; 715  : 				PVOID buffer = TCalloc (max (pVerifyInformation->Length, PAGE_SIZE));

  0095a	8b 85 2c fb ff
	ff		 mov	 eax, DWORD PTR _pVerifyInformation$30080[ebp]
  00960	81 78 08 00 10
	00 00		 cmp	 DWORD PTR [eax+8], 4096	; 00001000H
  00967	76 11		 jbe	 SHORT $LN47@ProcessVol
  00969	8b 8d 2c fb ff
	ff		 mov	 ecx, DWORD PTR _pVerifyInformation$30080[ebp]
  0096f	8b 51 08	 mov	 edx, DWORD PTR [ecx+8]
  00972	89 95 b4 fa ff
	ff		 mov	 DWORD PTR tv337[ebp], edx
  00978	eb 0a		 jmp	 SHORT $LN48@ProcessVol
$LN47@ProcessVol:
  0097a	c7 85 b4 fa ff
	ff 00 10 00 00	 mov	 DWORD PTR tv337[ebp], 4096 ; 00001000H
$LN48@ProcessVol:
  00984	68 54 43 4d 4d	 push	 1296909140		; 4d4d4354H
  00989	8b 85 b4 fa ff
	ff		 mov	 eax, DWORD PTR tv337[ebp]
  0098f	50		 push	 eax
  00990	6a 00		 push	 0
  00992	ff 15 00 00 00
	00		 call	 DWORD PTR __imp__ExAllocatePoolWithTag@12
  00998	89 85 28 fb ff
	ff		 mov	 DWORD PTR _buffer$30086[ebp], eax

; 716  : 				
; 717  : 				if (!buffer)

  0099e	83 bd 28 fb ff
	ff 00		 cmp	 DWORD PTR _buffer$30086[ebp], 0
  009a5	75 0f		 jne	 SHORT $LN16@ProcessVol

; 718  : 				{
; 719  : 					Irp->IoStatus.Status = STATUS_INSUFFICIENT_RESOURCES;

  009a7	8b 4d 10	 mov	 ecx, DWORD PTR _Irp$[ebp]
  009aa	c7 41 18 9a 00
	00 c0		 mov	 DWORD PTR [ecx+24], -1073741670 ; c000009aH

; 720  : 				}
; 721  : 				else

  009b1	e9 f8 00 00 00	 jmp	 $LN17@ProcessVol
$LN16@ProcessVol:

; 722  : 				{
; 723  : 					LARGE_INTEGER offset = pVerifyInformation->StartingOffset;

  009b6	8b 95 2c fb ff
	ff		 mov	 edx, DWORD PTR _pVerifyInformation$30080[ebp]
  009bc	8b 02		 mov	 eax, DWORD PTR [edx]
  009be	8b 4a 04	 mov	 ecx, DWORD PTR [edx+4]
  009c1	89 85 18 fb ff
	ff		 mov	 DWORD PTR _offset$30091[ebp], eax
  009c7	89 8d 1c fb ff
	ff		 mov	 DWORD PTR _offset$30091[ebp+4], ecx

; 724  : 					offset.QuadPart += Extension->cryptoInfo->hiddenVolume ? Extension->cryptoInfo->hiddenVolumeOffset : Extension->cryptoInfo->volDataAreaOffset;

  009cd	8b 55 0c	 mov	 edx, DWORD PTR _Extension$[ebp]
  009d0	8b 42 60	 mov	 eax, DWORD PTR [edx+96]
  009d3	83 b8 a0 29 00
	00 00		 cmp	 DWORD PTR [eax+10656], 0
  009da	74 20		 je	 SHORT $LN49@ProcessVol
  009dc	8b 4d 0c	 mov	 ecx, DWORD PTR _Extension$[ebp]
  009df	8b 51 60	 mov	 edx, DWORD PTR [ecx+96]
  009e2	8b 82 18 44 00
	00		 mov	 eax, DWORD PTR [edx+17432]
  009e8	89 85 ac fa ff
	ff		 mov	 DWORD PTR tv350[ebp], eax
  009ee	8b 8a 1c 44 00
	00		 mov	 ecx, DWORD PTR [edx+17436]
  009f4	89 8d b0 fa ff
	ff		 mov	 DWORD PTR tv350[ebp+4], ecx
  009fa	eb 1e		 jmp	 SHORT $LN50@ProcessVol
$LN49@ProcessVol:
  009fc	8b 55 0c	 mov	 edx, DWORD PTR _Extension$[ebp]
  009ff	8b 42 60	 mov	 eax, DWORD PTR [edx+96]
  00a02	8b 88 08 44 00
	00		 mov	 ecx, DWORD PTR [eax+17416]
  00a08	89 8d ac fa ff
	ff		 mov	 DWORD PTR tv350[ebp], ecx
  00a0e	8b 90 0c 44 00
	00		 mov	 edx, DWORD PTR [eax+17420]
  00a14	89 95 b0 fa ff
	ff		 mov	 DWORD PTR tv350[ebp+4], edx
$LN50@ProcessVol:
  00a1a	8b 85 18 fb ff
	ff		 mov	 eax, DWORD PTR _offset$30091[ebp]
  00a20	03 85 ac fa ff
	ff		 add	 eax, DWORD PTR tv350[ebp]
  00a26	8b 8d 1c fb ff
	ff		 mov	 ecx, DWORD PTR _offset$30091[ebp+4]
  00a2c	13 8d b0 fa ff
	ff		 adc	 ecx, DWORD PTR tv350[ebp+4]
  00a32	89 85 18 fb ff
	ff		 mov	 DWORD PTR _offset$30091[ebp], eax
  00a38	89 8d 1c fb ff
	ff		 mov	 DWORD PTR _offset$30091[ebp+4], ecx

; 725  : 
; 726  : 					Irp->IoStatus.Status = ZwReadFile (Extension->hDeviceFile, NULL, NULL, NULL, &ioStatus, buffer, pVerifyInformation->Length, &offset, NULL);

  00a3e	6a 00		 push	 0
  00a40	8d 95 18 fb ff
	ff		 lea	 edx, DWORD PTR _offset$30091[ebp]
  00a46	52		 push	 edx
  00a47	8b 85 2c fb ff
	ff		 mov	 eax, DWORD PTR _pVerifyInformation$30080[ebp]
  00a4d	8b 48 08	 mov	 ecx, DWORD PTR [eax+8]
  00a50	51		 push	 ecx
  00a51	8b 95 28 fb ff
	ff		 mov	 edx, DWORD PTR _buffer$30086[ebp]
  00a57	52		 push	 edx
  00a58	8d 85 20 fb ff
	ff		 lea	 eax, DWORD PTR _ioStatus$30085[ebp]
  00a5e	50		 push	 eax
  00a5f	6a 00		 push	 0
  00a61	6a 00		 push	 0
  00a63	6a 00		 push	 0
  00a65	8b 4d 0c	 mov	 ecx, DWORD PTR _Extension$[ebp]
  00a68	8b 51 54	 mov	 edx, DWORD PTR [ecx+84]
  00a6b	52		 push	 edx
  00a6c	ff 15 00 00 00
	00		 call	 DWORD PTR __imp__ZwReadFile@36
  00a72	8b 4d 10	 mov	 ecx, DWORD PTR _Irp$[ebp]
  00a75	89 41 18	 mov	 DWORD PTR [ecx+24], eax

; 727  : 					TCfree (buffer);

  00a78	68 54 43 4d 4d	 push	 1296909140		; 4d4d4354H
  00a7d	8b 95 28 fb ff
	ff		 mov	 edx, DWORD PTR _buffer$30086[ebp]
  00a83	52		 push	 edx
  00a84	ff 15 00 00 00
	00		 call	 DWORD PTR __imp__ExFreePoolWithTag@8

; 728  : 
; 729  : 					if (NT_SUCCESS (Irp->IoStatus.Status) && ioStatus.Information != pVerifyInformation->Length)

  00a8a	8b 45 10	 mov	 eax, DWORD PTR _Irp$[ebp]
  00a8d	83 78 18 00	 cmp	 DWORD PTR [eax+24], 0
  00a91	7c 1b		 jl	 SHORT $LN17@ProcessVol
  00a93	8b 8d 2c fb ff
	ff		 mov	 ecx, DWORD PTR _pVerifyInformation$30080[ebp]
  00a99	8b 95 24 fb ff
	ff		 mov	 edx, DWORD PTR _ioStatus$30085[ebp+4]
  00a9f	3b 51 08	 cmp	 edx, DWORD PTR [ecx+8]
  00aa2	74 0a		 je	 SHORT $LN17@ProcessVol

; 730  : 						Irp->IoStatus.Status = STATUS_INVALID_PARAMETER;

  00aa4	8b 45 10	 mov	 eax, DWORD PTR _Irp$[ebp]
  00aa7	c7 40 18 0d 00
	00 c0		 mov	 DWORD PTR [eax+24], -1073741811 ; c000000dH
$LN17@ProcessVol:

; 731  : 				}
; 732  : 			}
; 733  : 
; 734  : 			Irp->IoStatus.Information = 0;

  00aae	8b 4d 10	 mov	 ecx, DWORD PTR _Irp$[ebp]
  00ab1	c7 41 1c 00 00
	00 00		 mov	 DWORD PTR [ecx+28], 0
$LN19@ProcessVol:

; 735  : 		}
; 736  : 		break;

  00ab8	e9 1a 01 00 00	 jmp	 $LN43@ProcessVol
$LN13@ProcessVol:

; 737  : 
; 738  : 	case IOCTL_DISK_CHECK_VERIFY:
; 739  : 	case IOCTL_STORAGE_CHECK_VERIFY:
; 740  : 		{
; 741  : 			Irp->IoStatus.Status = STATUS_SUCCESS;

  00abd	8b 55 10	 mov	 edx, DWORD PTR _Irp$[ebp]
  00ac0	c7 42 18 00 00
	00 00		 mov	 DWORD PTR [edx+24], 0

; 742  : 			Irp->IoStatus.Information = 0;

  00ac7	8b 45 10	 mov	 eax, DWORD PTR _Irp$[ebp]
  00aca	c7 40 1c 00 00
	00 00		 mov	 DWORD PTR [eax+28], 0

; 743  : 
; 744  : 			if (irpSp->Parameters.DeviceIoControl.OutputBufferLength >= sizeof (ULONG))

  00ad1	8b 4d fc	 mov	 ecx, DWORD PTR _irpSp$[ebp]
  00ad4	83 79 04 04	 cmp	 DWORD PTR [ecx+4], 4
  00ad8	72 16		 jb	 SHORT $LN12@ProcessVol

; 745  : 			{
; 746  : 				*((ULONG *) Irp->AssociatedIrp.SystemBuffer) = 0;

  00ada	8b 55 10	 mov	 edx, DWORD PTR _Irp$[ebp]
  00add	8b 42 0c	 mov	 eax, DWORD PTR [edx+12]
  00ae0	c7 00 00 00 00
	00		 mov	 DWORD PTR [eax], 0

; 747  : 				Irp->IoStatus.Information = sizeof (ULONG);

  00ae6	8b 4d 10	 mov	 ecx, DWORD PTR _Irp$[ebp]
  00ae9	c7 41 1c 04 00
	00 00		 mov	 DWORD PTR [ecx+28], 4
$LN12@ProcessVol:

; 748  : 			}
; 749  : 		}
; 750  : 		break;

  00af0	e9 e2 00 00 00	 jmp	 $LN43@ProcessVol
$LN11@ProcessVol:

; 751  : 
; 752  : 	case IOCTL_DISK_IS_WRITABLE:
; 753  : 		{
; 754  : 			if (Extension->bReadOnly)

  00af5	8b 55 0c	 mov	 edx, DWORD PTR _Extension$[ebp]
  00af8	83 ba 88 02 00
	00 00		 cmp	 DWORD PTR [edx+648], 0
  00aff	74 0c		 je	 SHORT $LN10@ProcessVol

; 755  : 				Irp->IoStatus.Status = STATUS_MEDIA_WRITE_PROTECTED;

  00b01	8b 45 10	 mov	 eax, DWORD PTR _Irp$[ebp]
  00b04	c7 40 18 a2 00
	00 c0		 mov	 DWORD PTR [eax+24], -1073741662 ; c00000a2H

; 756  : 			else

  00b0b	eb 0a		 jmp	 SHORT $LN9@ProcessVol
$LN10@ProcessVol:

; 757  : 				Irp->IoStatus.Status = STATUS_SUCCESS;

  00b0d	8b 4d 10	 mov	 ecx, DWORD PTR _Irp$[ebp]
  00b10	c7 41 18 00 00
	00 00		 mov	 DWORD PTR [ecx+24], 0
$LN9@ProcessVol:

; 758  : 			Irp->IoStatus.Information = 0;

  00b17	8b 55 10	 mov	 edx, DWORD PTR _Irp$[ebp]
  00b1a	c7 42 1c 00 00
	00 00		 mov	 DWORD PTR [edx+28], 0

; 759  : 
; 760  : 		}
; 761  : 		break;

  00b21	e9 b1 00 00 00	 jmp	 $LN43@ProcessVol
$LN8@ProcessVol:

; 762  : 		
; 763  : 	case IOCTL_VOLUME_ONLINE:
; 764  : 		Irp->IoStatus.Status = STATUS_SUCCESS;

  00b26	8b 45 10	 mov	 eax, DWORD PTR _Irp$[ebp]
  00b29	c7 40 18 00 00
	00 00		 mov	 DWORD PTR [eax+24], 0

; 765  : 		Irp->IoStatus.Information = 0;

  00b30	8b 4d 10	 mov	 ecx, DWORD PTR _Irp$[ebp]
  00b33	c7 41 1c 00 00
	00 00		 mov	 DWORD PTR [ecx+28], 0

; 766  : 		break;

  00b3a	e9 98 00 00 00	 jmp	 $LN43@ProcessVol
$LN7@ProcessVol:

; 767  : 
; 768  : 	case IOCTL_VOLUME_GET_VOLUME_DISK_EXTENTS:
; 769  : 
; 770  : 		// Vista's filesystem defragmenter fails if IOCTL_VOLUME_GET_VOLUME_DISK_EXTENTS does not succeed.
; 771  : 		if (!(OsMajorVersion == 6 && OsMinorVersion == 0))

  00b3f	83 3d 00 00 00
	00 06		 cmp	 DWORD PTR _OsMajorVersion, 6
  00b46	75 09		 jne	 SHORT $LN5@ProcessVol
  00b48	83 3d 00 00 00
	00 00		 cmp	 DWORD PTR _OsMinorVersion, 0
  00b4f	74 16		 je	 SHORT $LN6@ProcessVol
$LN5@ProcessVol:

; 772  : 		{
; 773  : 			Irp->IoStatus.Status = STATUS_INVALID_DEVICE_REQUEST;

  00b51	8b 55 10	 mov	 edx, DWORD PTR _Irp$[ebp]
  00b54	c7 42 18 10 00
	00 c0		 mov	 DWORD PTR [edx+24], -1073741808 ; c0000010H

; 774  : 			Irp->IoStatus.Information = 0;

  00b5b	8b 45 10	 mov	 eax, DWORD PTR _Irp$[ebp]
  00b5e	c7 40 1c 00 00
	00 00		 mov	 DWORD PTR [eax+28], 0
  00b65	eb 5c		 jmp	 SHORT $LN4@ProcessVol
$LN6@ProcessVol:

; 775  : 		}
; 776  : 		else if (ValidateIOBufferSize (Irp, sizeof (VOLUME_DISK_EXTENTS), ValidateOutput))

  00b67	6a 01		 push	 1
  00b69	6a 20		 push	 32			; 00000020H
  00b6b	8b 4d 10	 mov	 ecx, DWORD PTR _Irp$[ebp]
  00b6e	51		 push	 ecx
  00b6f	e8 00 00 00 00	 call	 _ValidateIOBufferSize@12
  00b74	85 c0		 test	 eax, eax
  00b76	74 4b		 je	 SHORT $LN4@ProcessVol

; 777  : 		{
; 778  : 			VOLUME_DISK_EXTENTS *extents = (VOLUME_DISK_EXTENTS *) Irp->AssociatedIrp.SystemBuffer;

  00b78	8b 55 10	 mov	 edx, DWORD PTR _Irp$[ebp]
  00b7b	8b 42 0c	 mov	 eax, DWORD PTR [edx+12]
  00b7e	89 85 14 fb ff
	ff		 mov	 DWORD PTR _extents$30119[ebp], eax

; 779  : 
; 780  : 			// No extent data can be returned as this is not a physical drive.
; 781  : 			memset (extents, 0, sizeof (*extents));

  00b84	33 c9		 xor	 ecx, ecx
  00b86	8b 95 14 fb ff
	ff		 mov	 edx, DWORD PTR _extents$30119[ebp]
  00b8c	89 0a		 mov	 DWORD PTR [edx], ecx
  00b8e	89 4a 04	 mov	 DWORD PTR [edx+4], ecx
  00b91	89 4a 08	 mov	 DWORD PTR [edx+8], ecx
  00b94	89 4a 0c	 mov	 DWORD PTR [edx+12], ecx
  00b97	89 4a 10	 mov	 DWORD PTR [edx+16], ecx
  00b9a	89 4a 14	 mov	 DWORD PTR [edx+20], ecx
  00b9d	89 4a 18	 mov	 DWORD PTR [edx+24], ecx
  00ba0	89 4a 1c	 mov	 DWORD PTR [edx+28], ecx

; 782  : 			extents->NumberOfDiskExtents = 0;

  00ba3	8b 85 14 fb ff
	ff		 mov	 eax, DWORD PTR _extents$30119[ebp]
  00ba9	c7 00 00 00 00
	00		 mov	 DWORD PTR [eax], 0

; 783  : 
; 784  : 			Irp->IoStatus.Status = STATUS_SUCCESS;

  00baf	8b 4d 10	 mov	 ecx, DWORD PTR _Irp$[ebp]
  00bb2	c7 41 18 00 00
	00 00		 mov	 DWORD PTR [ecx+24], 0

; 785  : 			Irp->IoStatus.Information = sizeof (*extents);

  00bb9	8b 55 10	 mov	 edx, DWORD PTR _Irp$[ebp]
  00bbc	c7 42 1c 20 00
	00 00		 mov	 DWORD PTR [edx+28], 32	; 00000020H
$LN4@ProcessVol:

; 786  : 		}
; 787  : 		break;

  00bc3	eb 12		 jmp	 SHORT $LN43@ProcessVol
$LN2@ProcessVol:

; 788  : 
; 789  : 	default:
; 790  : 		return TCCompleteIrp (Irp, STATUS_INVALID_DEVICE_REQUEST, 0);

  00bc5	6a 00		 push	 0
  00bc7	68 10 00 00 c0	 push	 -1073741808		; c0000010H
  00bcc	8b 45 10	 mov	 eax, DWORD PTR _Irp$[ebp]
  00bcf	50		 push	 eax
  00bd0	e8 00 00 00 00	 call	 _TCCompleteIrp@12
  00bd5	eb 4d		 jmp	 SHORT $LN45@ProcessVol
$LN43@ProcessVol:

; 791  : 	}
; 792  : 
; 793  : #ifdef DEBUG
; 794  : 	if (!NT_SUCCESS (Irp->IoStatus.Status))

  00bd7	8b 4d 10	 mov	 ecx, DWORD PTR _Irp$[ebp]
  00bda	83 79 18 00	 cmp	 DWORD PTR [ecx+24], 0
  00bde	7d 2d		 jge	 SHORT $LN1@ProcessVol

; 795  : 	{
; 796  : 		Dump ("IOCTL error 0x%08x (0x%x %d)\n",
; 797  : 			Irp->IoStatus.Status,
; 798  : 			(int) (irpSp->Parameters.DeviceIoControl.IoControlCode >> 16),
; 799  : 			(int) ((irpSp->Parameters.DeviceIoControl.IoControlCode & 0x1FFF) >> 2));

  00be0	8b 55 fc	 mov	 edx, DWORD PTR _irpSp$[ebp]
  00be3	8b 42 0c	 mov	 eax, DWORD PTR [edx+12]
  00be6	25 ff 1f 00 00	 and	 eax, 8191		; 00001fffH
  00beb	c1 e8 02	 shr	 eax, 2
  00bee	50		 push	 eax
  00bef	8b 4d fc	 mov	 ecx, DWORD PTR _irpSp$[ebp]
  00bf2	8b 51 0c	 mov	 edx, DWORD PTR [ecx+12]
  00bf5	c1 ea 10	 shr	 edx, 16			; 00000010H
  00bf8	52		 push	 edx
  00bf9	8b 45 10	 mov	 eax, DWORD PTR _Irp$[ebp]
  00bfc	8b 48 18	 mov	 ecx, DWORD PTR [eax+24]
  00bff	51		 push	 ecx
  00c00	68 00 00 00 00	 push	 OFFSET ??_C@_0BO@BEMMNDOD@IOCTL?5error?50x?$CF08x?5?$CI0x?$CFx?5?$CFd?$CJ?6?$AA@FNODOBFM@
  00c05	e8 00 00 00 00	 call	 _DbgPrint
  00c0a	83 c4 10	 add	 esp, 16			; 00000010H
$LN1@ProcessVol:

; 800  : 	}
; 801  : #endif
; 802  : 
; 803  : 	return TCCompleteDiskIrp (Irp, Irp->IoStatus.Status, Irp->IoStatus.Information);

  00c0d	8b 55 10	 mov	 edx, DWORD PTR _Irp$[ebp]
  00c10	8b 42 1c	 mov	 eax, DWORD PTR [edx+28]
  00c13	50		 push	 eax
  00c14	8b 4d 10	 mov	 ecx, DWORD PTR _Irp$[ebp]
  00c17	8b 51 18	 mov	 edx, DWORD PTR [ecx+24]
  00c1a	52		 push	 edx
  00c1b	8b 45 10	 mov	 eax, DWORD PTR _Irp$[ebp]
  00c1e	50		 push	 eax
  00c1f	e8 00 00 00 00	 call	 _TCCompleteDiskIrp@12
$LN45@ProcessVol:

; 804  : }

  00c24	5f		 pop	 edi
  00c25	5e		 pop	 esi
  00c26	8b 4d ec	 mov	 ecx, DWORD PTR __$ArrayPad$[ebp]
  00c29	33 cd		 xor	 ecx, ebp
  00c2b	e8 00 00 00 00	 call	 @__security_check_cookie@4
  00c30	8b e5		 mov	 esp, ebp
  00c32	5d		 pop	 ebp
  00c33	c2 0c 00	 ret	 12			; 0000000cH
_ProcessVolumeDeviceControlIrp@12 ENDP
_TEXT	ENDS
PUBLIC	??_C@_0BE@MLCKFMJI@IOCTL?5error?50x?$CF08x?6?$AA@FNODOBFM@ ;  ?? ::FNODOBFM::`string'
PUBLIC	_UnmountAllDevices@8
PUBLIC	_UnmountDevice@12
PUBLIC	_RtlSecureZeroMemory@8
PUBLIC	_MountDevice@8
PUBLIC	_ProbeRealDriveSize@8
PUBLIC	_SymbolicLinkToTarget@12
PUBLIC	_IsVolumeAccessibleByCurrentUser@4
PUBLIC	??_C@_0BH@GFMHOPFN@Setting?5portable?5mode?6?$AA@FNODOBFM@ ;  ?? ::FNODOBFM::`string'
PUBLIC	_UserCanAccessDriveDevice@0
PUBLIC	??_C@_0CA@FCHCHJKN@Open?5test?5on?5file?5?$CFls?5success?4?6?$AA@FNODOBFM@ ;  ?? ::FNODOBFM::`string'
PUBLIC	??_C@_09EMKKFGIH@TrueCrypt?$AA@FNODOBFM@	;  ?? ::FNODOBFM::`string'
PUBLIC	??_C@_0L@FEEFGEIL@CipherShed?$AA@FNODOBFM@	;  ?? ::FNODOBFM::`string'
PUBLIC	_EnsureNullTerminatedString@8
PUBLIC	__$ArrayPad$
EXTRN	_IsHwEncryptionEnabled@0:PROC
EXTRN	_GetBootDriveFilterExtension@0:PROC
EXTRN	_WriteBootDriveSector@8:PROC
EXTRN	_GetDecoySystemWipeStatus@8:PROC
EXTRN	_GetDecoySystemWipeResult@0:PROC
EXTRN	_AbortDecoySystemWipe@0:PROC
EXTRN	_StartDecoySystemWipe@12:PROC
EXTRN	_IsHiddenSystemRunning@0:PROC
EXTRN	_GetBootEncryptionAlgorithmName@8:PROC
EXTRN	_ReopenBootVolumeHeader@8:PROC
EXTRN	_GetBootLoaderVersion@8:PROC
EXTRN	_GetBootDriveVolumeProperties@8:PROC
EXTRN	_GetSetupResult@0:PROC
EXTRN	_GetBootEncryptionStatus@8:PROC
EXTRN	_AbortBootEncryptionSetup@0:PROC
EXTRN	_StartBootEncryptionSetup@12:PROC
EXTRN	__imp_@ObfDereferenceObject@4:PROC
EXTRN	__imp__IoGetDeviceObjectPointer@16:PROC
EXTRN	_cacheEmpty:DWORD
EXTRN	_WipeCache@0:PROC
EXTRN	_MirrorBytes16@4:PROC
EXTRN	__imp__ZwClose@4:PROC
EXTRN	_MirrorBytes64@8:PROC
EXTRN	__imp__ZwCreateFile@44:PROC
EXTRN	_IsBootDriveMounted@0:PROC
EXTRN	__imp__IoEnumerateDeviceObjectList@16:PROC
;	COMDAT ??_C@_0BE@MLCKFMJI@IOCTL?5error?50x?$CF08x?6?$AA@FNODOBFM@
text$s	SEGMENT
??_C@_0BE@MLCKFMJI@IOCTL?5error?50x?$CF08x?6?$AA@FNODOBFM@ DB 'IOCTL erro'
	DB	'r 0x%08x', 0aH, 00H				;  ?? ::FNODOBFM::`string'
text$s	ENDS
;	COMDAT ??_C@_0BH@GFMHOPFN@Setting?5portable?5mode?6?$AA@FNODOBFM@
text$s	SEGMENT
??_C@_0BH@GFMHOPFN@Setting?5portable?5mode?6?$AA@FNODOBFM@ DB 'Setting po'
	DB	'rtable mode', 0aH, 00H			;  ?? ::FNODOBFM::`string'
text$s	ENDS
;	COMDAT ??_C@_0CA@FCHCHJKN@Open?5test?5on?5file?5?$CFls?5success?4?6?$AA@FNODOBFM@
text$s	SEGMENT
??_C@_0CA@FCHCHJKN@Open?5test?5on?5file?5?$CFls?5success?4?6?$AA@FNODOBFM@ DB 'O'
	DB	'pen test on file %ls success.', 0aH, 00H	;  ?? ::FNODOBFM::`string'
text$s	ENDS
;	COMDAT ??_C@_09EMKKFGIH@TrueCrypt?$AA@FNODOBFM@
text$s	SEGMENT
??_C@_09EMKKFGIH@TrueCrypt?$AA@FNODOBFM@ DB 'TrueCrypt', 00H ;  ?? ::FNODOBFM::`string'
text$s	ENDS
;	COMDAT ??_C@_0L@FEEFGEIL@CipherShed?$AA@FNODOBFM@
text$s	SEGMENT
??_C@_0L@FEEFGEIL@CipherShed?$AA@FNODOBFM@ DB 'CipherShed', 00H ;  ?? ::FNODOBFM::`string'
; Function compile flags: /Odtp
text$s	ENDS
;	COMDAT _ProcessMainDeviceControlIrp@12
_TEXT	SEGMENT
tv960 = -996						; size = 4
tv542 = -990						; size = 2
tv541 = -988						; size = 4
tv540 = -984						; size = 4
tv538 = -980						; size = 4
tv462 = -974						; size = 2
tv461 = -972						; size = 4
tv460 = -968						; size = 4
tv455 = -964						; size = 4
tv245 = -960						; size = 8
tv67 = -952						; size = 4
_request$30482 = -948					; size = 4
_flags$30469 = -944					; size = 4
_unmount$30443 = -940					; size = 4
_ListExtension$30435 = -936				; size = 4
_ListDevice$30433 = -932				; size = 4
_unmount$30431 = -928					; size = 4
_burnm$30422 = -924					; size = 4
_burnc$30424 = -920					; size = 4
_burnm$30413 = -916					; size = 4
_burnc$30415 = -912					; size = 4
_mount$30404 = -908					; size = 4
_status$30386 = -904					; size = 4
_request$30384 = -900					; size = 4
_name$30387 = -896					; size = 8
_fileObject$30388 = -888				; size = 4
_deviceObject$30389 = -884				; size = 4
_ntStatus$30378 = -880					; size = 4
_g$30376 = -876						; size = 4
_lengthInfo$30363 = -872				; size = 8
_ntStatus$30354 = -860					; size = 4
_pi$30353 = -856					; size = 144
_info$30351 = -712					; size = 4
_ntStatus$30346 = -708					; size = 4
_resolve$30344 = -704					; size = 4
_ListExtension$30334 = -700				; size = 4
_prop$30329 = -696					; size = 4
_ListDevice$30331 = -692				; size = 4
_ListExtension$30309 = -688				; size = 4
_ListDevice$30304 = -684				; size = 4
_drive$30305 = -680					; size = 4
_list$30302 = -676					; size = 4
_i$30265 = -672						; size = 4
_i$30263 = -668						; size = 4
_NtFileHandle$30242 = -664				; size = 4
_IoStatus$30244 = -660					; size = 8
_request$30239 = -652					; size = 4
_ObjectAttributes$30241 = -648				; size = 24
_offset$30245 = -624					; size = 8
_readBuffer$30246 = -616				; size = 512
__$ArrayPad$ = -100					; size = 4
_FullFileName$30243 = -96				; size = 8
_i$30213 = -88						; size = 4
_readBuffer$30202 = -84					; size = 4
_NtFileHandle$30183 = -80				; size = 4
_IoStatus$30185 = -76					; size = 8
_ObjectAttributes$30182 = -68				; size = 24
_opentest$30180 = -44					; size = 4
_offset$30186 = -40					; size = 8
_access$30187 = -32					; size = 4
_FullFileName$30184 = -28				; size = 8
_drive$30168 = -20					; size = 4
_deviceObjectCount$30157 = -16				; size = 4
_tmp$30145 = -12					; size = 4
_irpSp$ = -8						; size = 4
_ntStatus$ = -4						; size = 4
_DeviceObject$ = 8					; size = 4
_Extension$ = 12					; size = 4
_Irp$ = 16						; size = 4
_ProcessMainDeviceControlIrp@12 PROC			; COMDAT

; 808  : {

  00000	8b ff		 npad	 2
  00002	55		 push	 ebp
  00003	8b ec		 mov	 ebp, esp
  00005	81 ec e4 03 00
	00		 sub	 esp, 996		; 000003e4H
  0000b	a1 00 00 00 00	 mov	 eax, DWORD PTR ___security_cookie
  00010	33 c5		 xor	 eax, ebp
  00012	89 45 9c	 mov	 DWORD PTR __$ArrayPad$[ebp], eax
  00015	56		 push	 esi
  00016	57		 push	 edi

; 809  : 	PIO_STACK_LOCATION irpSp = IoGetCurrentIrpStackLocation (Irp);

  00017	8b 45 10	 mov	 eax, DWORD PTR _Irp$[ebp]
  0001a	50		 push	 eax
  0001b	e8 00 00 00 00	 call	 _IoGetCurrentIrpStackLocation@4
  00020	89 45 f8	 mov	 DWORD PTR _irpSp$[ebp], eax

; 810  : 	NTSTATUS ntStatus;
; 811  : 
; 812  : 	switch (irpSp->Parameters.DeviceIoControl.IoControlCode)

  00023	8b 4d f8	 mov	 ecx, DWORD PTR _irpSp$[ebp]
  00026	8b 51 0c	 mov	 edx, DWORD PTR [ecx+12]
  00029	89 95 48 fc ff
	ff		 mov	 DWORD PTR tv67[ebp], edx
  0002f	81 bd 48 fc ff
	ff 04 20 22 00	 cmp	 DWORD PTR tv67[ebp], 2236420 ; 00222004H
  00039	77 2d		 ja	 SHORT $LN167@ProcessMai
  0003b	81 bd 48 fc ff
	ff 04 20 22 00	 cmp	 DWORD PTR tv67[ebp], 2236420 ; 00222004H
  00045	74 56		 je	 SHORT $LN159@ProcessMai
  00047	81 bd 48 fc ff
	ff 04 20 07 00	 cmp	 DWORD PTR tv67[ebp], 466948 ; 00072004H
  00051	0f 84 bc 0b 00
	00		 je	 $LN79@ProcessMai
  00057	81 bd 48 fc ff
	ff 18 20 07 00	 cmp	 DWORD PTR tv67[ebp], 466968 ; 00072018H
  00061	74 3a		 je	 SHORT $LN159@ProcessMai
  00063	e9 41 18 00 00	 jmp	 $LN6@ProcessMai
$LN167@ProcessMai:
  00068	8b 85 48 fc ff
	ff		 mov	 eax, DWORD PTR tv67[ebp]
  0006e	2d 08 20 22 00	 sub	 eax, 2236424		; 00222008H
  00073	89 85 48 fc ff
	ff		 mov	 DWORD PTR tv67[ebp], eax
  00079	81 bd 48 fc ff
	ff 90 00 00 00	 cmp	 DWORD PTR tv67[ebp], 144 ; 00000090H
  00083	0f 87 20 18 00
	00		 ja	 $LN6@ProcessMai
  00089	8b 8d 48 fc ff
	ff		 mov	 ecx, DWORD PTR tv67[ebp]
  0008f	0f b6 91 00 00
	00 00		 movzx	 edx, BYTE PTR $LN168@ProcessMai[ecx]
  00096	ff 24 95 00 00
	00 00		 jmp	 DWORD PTR $LN179@ProcessMai[edx*4]
$LN159@ProcessMai:

; 813  : 	{
; 814  : 	case TC_IOCTL_GET_DRIVER_VERSION:
; 815  : 	case TC_IOCTL_LEGACY_GET_DRIVER_VERSION:
; 816  : 		if (ValidateIOBufferSize (Irp, sizeof (LONG), ValidateOutput))

  0009d	6a 01		 push	 1
  0009f	6a 04		 push	 4
  000a1	8b 45 10	 mov	 eax, DWORD PTR _Irp$[ebp]
  000a4	50		 push	 eax
  000a5	e8 00 00 00 00	 call	 _ValidateIOBufferSize@12
  000aa	85 c0		 test	 eax, eax
  000ac	74 26		 je	 SHORT $LN158@ProcessMai

; 817  : 		{
; 818  : 			LONG tmp = VERSION_NUM;

  000ae	c7 45 f4 30 07
	00 00		 mov	 DWORD PTR _tmp$30145[ebp], 1840 ; 00000730H

; 819  : 			memcpy (Irp->AssociatedIrp.SystemBuffer, &tmp, 4);

  000b5	8b 4d 10	 mov	 ecx, DWORD PTR _Irp$[ebp]
  000b8	8b 51 0c	 mov	 edx, DWORD PTR [ecx+12]
  000bb	8b 45 f4	 mov	 eax, DWORD PTR _tmp$30145[ebp]
  000be	89 02		 mov	 DWORD PTR [edx], eax

; 820  : 			Irp->IoStatus.Information = sizeof (LONG);

  000c0	8b 4d 10	 mov	 ecx, DWORD PTR _Irp$[ebp]
  000c3	c7 41 1c 04 00
	00 00		 mov	 DWORD PTR [ecx+28], 4

; 821  : 			Irp->IoStatus.Status = STATUS_SUCCESS;

  000ca	8b 55 10	 mov	 edx, DWORD PTR _Irp$[ebp]
  000cd	c7 42 18 00 00
	00 00		 mov	 DWORD PTR [edx+24], 0
$LN158@ProcessMai:

; 822  : 		}
; 823  : 		break;

  000d4	e9 e2 17 00 00	 jmp	 $LN160@ProcessMai
$LN157@ProcessMai:

; 824  : 
; 825  : 	case TC_IOCTL_GET_DEVICE_REFCOUNT:
; 826  : 		if (ValidateIOBufferSize (Irp, sizeof (int), ValidateOutput))

  000d9	6a 01		 push	 1
  000db	6a 04		 push	 4
  000dd	8b 45 10	 mov	 eax, DWORD PTR _Irp$[ebp]
  000e0	50		 push	 eax
  000e1	e8 00 00 00 00	 call	 _ValidateIOBufferSize@12
  000e6	85 c0		 test	 eax, eax
  000e8	74 22		 je	 SHORT $LN156@ProcessMai

; 827  : 		{
; 828  : 			*(int *) Irp->AssociatedIrp.SystemBuffer = DeviceObject->ReferenceCount;

  000ea	8b 4d 10	 mov	 ecx, DWORD PTR _Irp$[ebp]
  000ed	8b 51 0c	 mov	 edx, DWORD PTR [ecx+12]
  000f0	8b 45 08	 mov	 eax, DWORD PTR _DeviceObject$[ebp]
  000f3	8b 48 04	 mov	 ecx, DWORD PTR [eax+4]
  000f6	89 0a		 mov	 DWORD PTR [edx], ecx

; 829  : 			Irp->IoStatus.Information = sizeof (int);

  000f8	8b 55 10	 mov	 edx, DWORD PTR _Irp$[ebp]
  000fb	c7 42 1c 04 00
	00 00		 mov	 DWORD PTR [edx+28], 4

; 830  : 			Irp->IoStatus.Status = STATUS_SUCCESS;

  00102	8b 45 10	 mov	 eax, DWORD PTR _Irp$[ebp]
  00105	c7 40 18 00 00
	00 00		 mov	 DWORD PTR [eax+24], 0
$LN156@ProcessMai:

; 831  : 		}
; 832  : 		break;

  0010c	e9 aa 17 00 00	 jmp	 $LN160@ProcessMai
$LN155@ProcessMai:

; 833  : 
; 834  : 	case TC_IOCTL_IS_DRIVER_UNLOAD_DISABLED:
; 835  : 		if (ValidateIOBufferSize (Irp, sizeof (int), ValidateOutput))

  00111	6a 01		 push	 1
  00113	6a 04		 push	 4
  00115	8b 4d 10	 mov	 ecx, DWORD PTR _Irp$[ebp]
  00118	51		 push	 ecx
  00119	e8 00 00 00 00	 call	 _ValidateIOBufferSize@12
  0011e	85 c0		 test	 eax, eax
  00120	74 56		 je	 SHORT $LN154@ProcessMai

; 836  : 		{
; 837  : 			LONG deviceObjectCount = 0;

  00122	c7 45 f0 00 00
	00 00		 mov	 DWORD PTR _deviceObjectCount$30157[ebp], 0

; 838  : 
; 839  : 			*(int *) Irp->AssociatedIrp.SystemBuffer = DriverUnloadDisabled;

  00129	8b 55 10	 mov	 edx, DWORD PTR _Irp$[ebp]
  0012c	8b 42 0c	 mov	 eax, DWORD PTR [edx+12]
  0012f	8b 0d 00 00 00
	00		 mov	 ecx, DWORD PTR _DriverUnloadDisabled
  00135	89 08		 mov	 DWORD PTR [eax], ecx

; 840  : 
; 841  : 			if (IoEnumerateDeviceObjectList (TCDriverObject, NULL, 0, &deviceObjectCount) == STATUS_BUFFER_TOO_SMALL && deviceObjectCount > 1)

  00137	8d 55 f0	 lea	 edx, DWORD PTR _deviceObjectCount$30157[ebp]
  0013a	52		 push	 edx
  0013b	6a 00		 push	 0
  0013d	6a 00		 push	 0
  0013f	a1 00 00 00 00	 mov	 eax, DWORD PTR _TCDriverObject
  00144	50		 push	 eax
  00145	ff 15 00 00 00
	00		 call	 DWORD PTR __imp__IoEnumerateDeviceObjectList@16
  0014b	3d 23 00 00 c0	 cmp	 eax, -1073741789	; c0000023H
  00150	75 12		 jne	 SHORT $LN153@ProcessMai
  00152	83 7d f0 01	 cmp	 DWORD PTR _deviceObjectCount$30157[ebp], 1
  00156	7e 0c		 jle	 SHORT $LN153@ProcessMai

; 842  : 				*(int *) Irp->AssociatedIrp.SystemBuffer = TRUE;

  00158	8b 4d 10	 mov	 ecx, DWORD PTR _Irp$[ebp]
  0015b	8b 51 0c	 mov	 edx, DWORD PTR [ecx+12]
  0015e	c7 02 01 00 00
	00		 mov	 DWORD PTR [edx], 1
$LN153@ProcessMai:

; 843  : 
; 844  : 			Irp->IoStatus.Information = sizeof (int);

  00164	8b 45 10	 mov	 eax, DWORD PTR _Irp$[ebp]
  00167	c7 40 1c 04 00
	00 00		 mov	 DWORD PTR [eax+28], 4

; 845  : 			Irp->IoStatus.Status = STATUS_SUCCESS;

  0016e	8b 4d 10	 mov	 ecx, DWORD PTR _Irp$[ebp]
  00171	c7 41 18 00 00
	00 00		 mov	 DWORD PTR [ecx+24], 0
$LN154@ProcessMai:

; 846  : 		}
; 847  : 		break;

  00178	e9 3e 17 00 00	 jmp	 $LN160@ProcessMai
$LN152@ProcessMai:

; 848  : 
; 849  : 	case TC_IOCTL_IS_ANY_VOLUME_MOUNTED:
; 850  : 		if (ValidateIOBufferSize (Irp, sizeof (int), ValidateOutput))

  0017d	6a 01		 push	 1
  0017f	6a 04		 push	 4
  00181	8b 55 10	 mov	 edx, DWORD PTR _Irp$[ebp]
  00184	52		 push	 edx
  00185	e8 00 00 00 00	 call	 _ValidateIOBufferSize@12
  0018a	85 c0		 test	 eax, eax
  0018c	74 6a		 je	 SHORT $LN151@ProcessMai

; 851  : 		{
; 852  : 			int drive;
; 853  : 			*(int *) Irp->AssociatedIrp.SystemBuffer = 0;

  0018e	8b 45 10	 mov	 eax, DWORD PTR _Irp$[ebp]
  00191	8b 48 0c	 mov	 ecx, DWORD PTR [eax+12]
  00194	c7 01 00 00 00
	00		 mov	 DWORD PTR [ecx], 0

; 854  : 
; 855  : 			for (drive = MIN_MOUNTED_VOLUME_DRIVE_NUMBER; drive <= MAX_MOUNTED_VOLUME_DRIVE_NUMBER; ++drive)

  0019a	c7 45 ec 00 00
	00 00		 mov	 DWORD PTR _drive$30168[ebp], 0
  001a1	eb 09		 jmp	 SHORT $LN150@ProcessMai
$LN149@ProcessMai:
  001a3	8b 55 ec	 mov	 edx, DWORD PTR _drive$30168[ebp]
  001a6	83 c2 01	 add	 edx, 1
  001a9	89 55 ec	 mov	 DWORD PTR _drive$30168[ebp], edx
$LN150@ProcessMai:
  001ac	83 7d ec 19	 cmp	 DWORD PTR _drive$30168[ebp], 25 ; 00000019H
  001b0	7f 1d		 jg	 SHORT $LN148@ProcessMai

; 856  : 			{
; 857  : 				if (GetVirtualVolumeDeviceObject (drive))

  001b2	8b 45 ec	 mov	 eax, DWORD PTR _drive$30168[ebp]
  001b5	50		 push	 eax
  001b6	e8 00 00 00 00	 call	 _GetVirtualVolumeDeviceObject@4
  001bb	85 c0		 test	 eax, eax
  001bd	74 0e		 je	 SHORT $LN147@ProcessMai

; 858  : 				{
; 859  : 					*(int *) Irp->AssociatedIrp.SystemBuffer = 1;

  001bf	8b 4d 10	 mov	 ecx, DWORD PTR _Irp$[ebp]
  001c2	8b 51 0c	 mov	 edx, DWORD PTR [ecx+12]
  001c5	c7 02 01 00 00
	00		 mov	 DWORD PTR [edx], 1

; 860  : 					break;

  001cb	eb 02		 jmp	 SHORT $LN148@ProcessMai
$LN147@ProcessMai:

; 861  : 				}
; 862  : 			}

  001cd	eb d4		 jmp	 SHORT $LN149@ProcessMai
$LN148@ProcessMai:

; 863  : 
; 864  : 			if (IsBootDriveMounted())

  001cf	e8 00 00 00 00	 call	 _IsBootDriveMounted@0
  001d4	85 c0		 test	 eax, eax
  001d6	74 0c		 je	 SHORT $LN146@ProcessMai

; 865  : 				*(int *) Irp->AssociatedIrp.SystemBuffer = 1;

  001d8	8b 45 10	 mov	 eax, DWORD PTR _Irp$[ebp]
  001db	8b 48 0c	 mov	 ecx, DWORD PTR [eax+12]
  001de	c7 01 01 00 00
	00		 mov	 DWORD PTR [ecx], 1
$LN146@ProcessMai:

; 866  : 
; 867  : 			Irp->IoStatus.Information = sizeof (int);

  001e4	8b 55 10	 mov	 edx, DWORD PTR _Irp$[ebp]
  001e7	c7 42 1c 04 00
	00 00		 mov	 DWORD PTR [edx+28], 4

; 868  : 			Irp->IoStatus.Status = STATUS_SUCCESS;

  001ee	8b 45 10	 mov	 eax, DWORD PTR _Irp$[ebp]
  001f1	c7 40 18 00 00
	00 00		 mov	 DWORD PTR [eax+24], 0
$LN151@ProcessMai:

; 869  : 		}
; 870  : 		break;

  001f8	e9 be 16 00 00	 jmp	 $LN160@ProcessMai
$LN145@ProcessMai:

; 871  : 
; 872  : 	case TC_IOCTL_OPEN_TEST:
; 873  : 		{
; 874  : 			OPEN_TEST_STRUCT *opentest = (OPEN_TEST_STRUCT *) Irp->AssociatedIrp.SystemBuffer;

  001fd	8b 4d 10	 mov	 ecx, DWORD PTR _Irp$[ebp]
  00200	8b 51 0c	 mov	 edx, DWORD PTR [ecx+12]
  00203	89 55 d4	 mov	 DWORD PTR _opentest$30180[ebp], edx

; 875  : 			OBJECT_ATTRIBUTES ObjectAttributes;
; 876  : 			HANDLE NtFileHandle;
; 877  : 			UNICODE_STRING FullFileName;
; 878  : 			IO_STATUS_BLOCK IoStatus;
; 879  : 			LARGE_INTEGER offset;
; 880  : 			ACCESS_MASK access = FILE_READ_ATTRIBUTES;

  00206	c7 45 e0 80 00
	00 00		 mov	 DWORD PTR _access$30187[ebp], 128 ; 00000080H

; 881  : 
; 882  : 			if (!ValidateIOBufferSize (Irp, sizeof (OPEN_TEST_STRUCT), ValidateInputOutput))

  0020d	6a 02		 push	 2
  0020f	68 18 02 00 00	 push	 536			; 00000218H
  00214	8b 45 10	 mov	 eax, DWORD PTR _Irp$[ebp]
  00217	50		 push	 eax
  00218	e8 00 00 00 00	 call	 _ValidateIOBufferSize@12
  0021d	85 c0		 test	 eax, eax
  0021f	75 05		 jne	 SHORT $LN144@ProcessMai

; 883  : 				break;

  00221	e9 95 16 00 00	 jmp	 $LN160@ProcessMai
$LN144@ProcessMai:

; 884  : 
; 885  : 			EnsureNullTerminatedString (opentest->wszFileName, sizeof (opentest->wszFileName));

  00226	68 08 02 00 00	 push	 520			; 00000208H
  0022b	8b 4d d4	 mov	 ecx, DWORD PTR _opentest$30180[ebp]
  0022e	51		 push	 ecx
  0022f	e8 00 00 00 00	 call	 _EnsureNullTerminatedString@8

; 886  : 			RtlInitUnicodeString (&FullFileName, opentest->wszFileName);

  00234	8b 55 d4	 mov	 edx, DWORD PTR _opentest$30180[ebp]
  00237	52		 push	 edx
  00238	8d 45 e4	 lea	 eax, DWORD PTR _FullFileName$30184[ebp]
  0023b	50		 push	 eax
  0023c	ff 15 00 00 00
	00		 call	 DWORD PTR __imp__RtlInitUnicodeString@8

; 887  : 
; 888  : 			InitializeObjectAttributes (&ObjectAttributes, &FullFileName, OBJ_CASE_INSENSITIVE | OBJ_KERNEL_HANDLE, NULL, NULL);

  00242	c7 45 bc 18 00
	00 00		 mov	 DWORD PTR _ObjectAttributes$30182[ebp], 24 ; 00000018H
  00249	c7 45 c0 00 00
	00 00		 mov	 DWORD PTR _ObjectAttributes$30182[ebp+4], 0
  00250	c7 45 c8 40 02
	00 00		 mov	 DWORD PTR _ObjectAttributes$30182[ebp+12], 576 ; 00000240H
  00257	8d 4d e4	 lea	 ecx, DWORD PTR _FullFileName$30184[ebp]
  0025a	89 4d c4	 mov	 DWORD PTR _ObjectAttributes$30182[ebp+8], ecx
  0025d	c7 45 cc 00 00
	00 00		 mov	 DWORD PTR _ObjectAttributes$30182[ebp+16], 0
  00264	c7 45 d0 00 00
	00 00		 mov	 DWORD PTR _ObjectAttributes$30182[ebp+20], 0

; 889  : 
; 890  : 			if (opentest->bDetectTCBootLoader || opentest->DetectFilesystem)

  0026b	8b 55 d4	 mov	 edx, DWORD PTR _opentest$30180[ebp]
  0026e	83 ba 08 02 00
	00 00		 cmp	 DWORD PTR [edx+520], 0
  00275	75 0c		 jne	 SHORT $LN142@ProcessMai
  00277	8b 45 d4	 mov	 eax, DWORD PTR _opentest$30180[ebp]
  0027a	83 b8 10 02 00
	00 00		 cmp	 DWORD PTR [eax+528], 0
  00281	74 09		 je	 SHORT $LN143@ProcessMai
$LN142@ProcessMai:

; 891  : 				access |= FILE_READ_DATA;

  00283	8b 4d e0	 mov	 ecx, DWORD PTR _access$30187[ebp]
  00286	83 c9 01	 or	 ecx, 1
  00289	89 4d e0	 mov	 DWORD PTR _access$30187[ebp], ecx
$LN143@ProcessMai:

; 892  : 
; 893  : 			ntStatus = ZwCreateFile (&NtFileHandle,
; 894  : 						 SYNCHRONIZE | access, &ObjectAttributes, &IoStatus, NULL,
; 895  : 						 0, FILE_SHARE_READ | FILE_SHARE_WRITE, FILE_OPEN, FILE_SYNCHRONOUS_IO_NONALERT, NULL, 0);

  0028c	6a 00		 push	 0
  0028e	6a 00		 push	 0
  00290	6a 20		 push	 32			; 00000020H
  00292	6a 01		 push	 1
  00294	6a 03		 push	 3
  00296	6a 00		 push	 0
  00298	6a 00		 push	 0
  0029a	8d 55 b4	 lea	 edx, DWORD PTR _IoStatus$30185[ebp]
  0029d	52		 push	 edx
  0029e	8d 45 bc	 lea	 eax, DWORD PTR _ObjectAttributes$30182[ebp]
  002a1	50		 push	 eax
  002a2	8b 4d e0	 mov	 ecx, DWORD PTR _access$30187[ebp]
  002a5	81 c9 00 00 10
	00		 or	 ecx, 1048576		; 00100000H
  002ab	51		 push	 ecx
  002ac	8d 55 b0	 lea	 edx, DWORD PTR _NtFileHandle$30183[ebp]
  002af	52		 push	 edx
  002b0	ff 15 00 00 00
	00		 call	 DWORD PTR __imp__ZwCreateFile@44
  002b6	89 45 fc	 mov	 DWORD PTR _ntStatus$[ebp], eax

; 896  : 
; 897  : 			if (NT_SUCCESS (ntStatus))

  002b9	83 7d fc 00	 cmp	 DWORD PTR _ntStatus$[ebp], 0
  002bd	0f 8c 3b 02 00
	00		 jl	 $LN121@ProcessMai

; 898  : 			{
; 899  : 				opentest->TCBootLoaderDetected = FALSE;

  002c3	8b 45 d4	 mov	 eax, DWORD PTR _opentest$30180[ebp]
  002c6	c7 80 0c 02 00
	00 00 00 00 00	 mov	 DWORD PTR [eax+524], 0

; 900  : 				opentest->FilesystemDetected = FALSE;

  002d0	8b 4d d4	 mov	 ecx, DWORD PTR _opentest$30180[ebp]
  002d3	c7 81 14 02 00
	00 00 00 00 00	 mov	 DWORD PTR [ecx+532], 0

; 901  : 
; 902  : 				if (opentest->bDetectTCBootLoader || opentest->DetectFilesystem)

  002dd	8b 55 d4	 mov	 edx, DWORD PTR _opentest$30180[ebp]
  002e0	83 ba 08 02 00
	00 00		 cmp	 DWORD PTR [edx+520], 0
  002e7	75 10		 jne	 SHORT $LN139@ProcessMai
  002e9	8b 45 d4	 mov	 eax, DWORD PTR _opentest$30180[ebp]
  002ec	83 b8 10 02 00
	00 00		 cmp	 DWORD PTR [eax+528], 0
  002f3	0f 84 ea 01 00
	00		 je	 $LN140@ProcessMai
$LN139@ProcessMai:

; 903  : 				{
; 904  : 					byte *readBuffer = TCalloc (TC_MAX_VOLUME_SECTOR_SIZE);

  002f9	68 54 43 4d 4d	 push	 1296909140		; 4d4d4354H
  002fe	68 00 10 00 00	 push	 4096			; 00001000H
  00303	6a 00		 push	 0
  00305	ff 15 00 00 00
	00		 call	 DWORD PTR __imp__ExAllocatePoolWithTag@12
  0030b	89 45 ac	 mov	 DWORD PTR _readBuffer$30202[ebp], eax

; 905  : 					if (!readBuffer)

  0030e	83 7d ac 00	 cmp	 DWORD PTR _readBuffer$30202[ebp], 0
  00312	75 0c		 jne	 SHORT $LN138@ProcessMai

; 906  : 					{
; 907  : 						ntStatus = STATUS_INSUFFICIENT_RESOURCES;

  00314	c7 45 fc 9a 00
	00 c0		 mov	 DWORD PTR _ntStatus$[ebp], -1073741670 ; c000009aH

; 908  : 					}
; 909  : 					else

  0031b	e9 c3 01 00 00	 jmp	 $LN140@ProcessMai
$LN138@ProcessMai:

; 910  : 					{
; 911  : 						// Determine if the first sector contains a portion of the TrueCrypt Boot Loader
; 912  : 
; 913  : 						offset.QuadPart = 0;

  00320	c7 45 d8 00 00
	00 00		 mov	 DWORD PTR _offset$30186[ebp], 0
  00327	c7 45 dc 00 00
	00 00		 mov	 DWORD PTR _offset$30186[ebp+4], 0

; 914  : 
; 915  : 						ntStatus = ZwReadFile (NtFileHandle,
; 916  : 							NULL,
; 917  : 							NULL,
; 918  : 							NULL,
; 919  : 							&IoStatus,
; 920  : 							readBuffer,
; 921  : 							TC_MAX_VOLUME_SECTOR_SIZE,
; 922  : 							&offset,
; 923  : 							NULL);

  0032e	6a 00		 push	 0
  00330	8d 4d d8	 lea	 ecx, DWORD PTR _offset$30186[ebp]
  00333	51		 push	 ecx
  00334	68 00 10 00 00	 push	 4096			; 00001000H
  00339	8b 55 ac	 mov	 edx, DWORD PTR _readBuffer$30202[ebp]
  0033c	52		 push	 edx
  0033d	8d 45 b4	 lea	 eax, DWORD PTR _IoStatus$30185[ebp]
  00340	50		 push	 eax
  00341	6a 00		 push	 0
  00343	6a 00		 push	 0
  00345	6a 00		 push	 0
  00347	8b 4d b0	 mov	 ecx, DWORD PTR _NtFileHandle$30183[ebp]
  0034a	51		 push	 ecx
  0034b	ff 15 00 00 00
	00		 call	 DWORD PTR __imp__ZwReadFile@36
  00351	89 45 fc	 mov	 DWORD PTR _ntStatus$[ebp], eax

; 924  : 
; 925  : 						if (NT_SUCCESS (ntStatus))

  00354	83 7d fc 00	 cmp	 DWORD PTR _ntStatus$[ebp], 0
  00358	0f 8c 76 01 00
	00		 jl	 $LN136@ProcessMai

; 926  : 						{
; 927  : 							size_t i;
; 928  : 
; 929  : 							if (opentest->bDetectTCBootLoader && IoStatus.Information >= TC_SECTOR_SIZE_BIOS)

  0035e	8b 55 d4	 mov	 edx, DWORD PTR _opentest$30180[ebp]
  00361	83 ba 08 02 00
	00 00		 cmp	 DWORD PTR [edx+520], 0
  00368	0f 84 a6 00 00
	00		 je	 $LN135@ProcessMai
  0036e	81 7d b8 00 02
	00 00		 cmp	 DWORD PTR _IoStatus$30185[ebp+4], 512 ; 00000200H
  00375	0f 82 99 00 00
	00		 jb	 $LN135@ProcessMai

; 930  : 							{
; 931  : 								// Search for the string "CipherShed"
; 932  : 								for (i = 0; i < TC_SECTOR_SIZE_BIOS - strlen (TC_APP_NAME); ++i)

  0037b	c7 45 a8 00 00
	00 00		 mov	 DWORD PTR _i$30213[ebp], 0
  00382	eb 09		 jmp	 SHORT $LN134@ProcessMai
$LN133@ProcessMai:
  00384	8b 45 a8	 mov	 eax, DWORD PTR _i$30213[ebp]
  00387	83 c0 01	 add	 eax, 1
  0038a	89 45 a8	 mov	 DWORD PTR _i$30213[ebp], eax
$LN134@ProcessMai:
  0038d	b9 00 02 00 00	 mov	 ecx, 512		; 00000200H
  00392	83 e9 0a	 sub	 ecx, 10			; 0000000aH
  00395	39 4d a8	 cmp	 DWORD PTR _i$30213[ebp], ecx
  00398	73 28		 jae	 SHORT $LN132@ProcessMai

; 933  : 								{
; 934  : 									if (memcmp (readBuffer + i, TC_APP_NAME, strlen (TC_APP_NAME)) == 0)

  0039a	b9 05 00 00 00	 mov	 ecx, 5
  0039f	bf 00 00 00 00	 mov	 edi, OFFSET ??_C@_0L@FEEFGEIL@CipherShed?$AA@FNODOBFM@
  003a4	8b 75 ac	 mov	 esi, DWORD PTR _readBuffer$30202[ebp]
  003a7	03 75 a8	 add	 esi, DWORD PTR _i$30213[ebp]
  003aa	33 d2		 xor	 edx, edx
  003ac	66 f3 a7	 repe cmpsw
  003af	75 0f		 jne	 SHORT $LN131@ProcessMai

; 935  : 									{
; 936  : 										opentest->TCBootLoaderDetected = TRUE;

  003b1	8b 45 d4	 mov	 eax, DWORD PTR _opentest$30180[ebp]
  003b4	c7 80 0c 02 00
	00 01 00 00 00	 mov	 DWORD PTR [eax+524], 1

; 937  : 										break;

  003be	eb 02		 jmp	 SHORT $LN132@ProcessMai
$LN131@ProcessMai:

; 938  : 									}
; 939  : 								}

  003c0	eb c2		 jmp	 SHORT $LN133@ProcessMai
$LN132@ProcessMai:

; 940  : 
; 941  : 								// Search for the string "TrueCrypt"
; 942  : 								if (!(opentest->TCBootLoaderDetected))

  003c2	8b 4d d4	 mov	 ecx, DWORD PTR _opentest$30180[ebp]
  003c5	83 b9 0c 02 00
	00 00		 cmp	 DWORD PTR [ecx+524], 0
  003cc	75 46		 jne	 SHORT $LN135@ProcessMai

; 943  : 								for (i = 0; i < TC_SECTOR_SIZE_BIOS - strlen (TC_APP_NAME_LEGACY); ++i)

  003ce	c7 45 a8 00 00
	00 00		 mov	 DWORD PTR _i$30213[ebp], 0
  003d5	eb 09		 jmp	 SHORT $LN129@ProcessMai
$LN128@ProcessMai:
  003d7	8b 55 a8	 mov	 edx, DWORD PTR _i$30213[ebp]
  003da	83 c2 01	 add	 edx, 1
  003dd	89 55 a8	 mov	 DWORD PTR _i$30213[ebp], edx
$LN129@ProcessMai:
  003e0	b8 00 02 00 00	 mov	 eax, 512		; 00000200H
  003e5	83 e8 09	 sub	 eax, 9
  003e8	39 45 a8	 cmp	 DWORD PTR _i$30213[ebp], eax
  003eb	73 27		 jae	 SHORT $LN135@ProcessMai

; 944  : 								{
; 945  : 									if (memcmp (readBuffer + i, TC_APP_NAME_LEGACY, strlen (TC_APP_NAME_LEGACY)) == 0)

  003ed	b9 09 00 00 00	 mov	 ecx, 9
  003f2	bf 00 00 00 00	 mov	 edi, OFFSET ??_C@_09EMKKFGIH@TrueCrypt?$AA@FNODOBFM@
  003f7	8b 75 ac	 mov	 esi, DWORD PTR _readBuffer$30202[ebp]
  003fa	03 75 a8	 add	 esi, DWORD PTR _i$30213[ebp]
  003fd	33 d2		 xor	 edx, edx
  003ff	f3 a6		 repe cmpsb
  00401	75 0f		 jne	 SHORT $LN126@ProcessMai

; 946  : 									{
; 947  : 										opentest->TCBootLoaderDetected = TRUE;

  00403	8b 45 d4	 mov	 eax, DWORD PTR _opentest$30180[ebp]
  00406	c7 80 0c 02 00
	00 01 00 00 00	 mov	 DWORD PTR [eax+524], 1

; 948  : 										break;

  00410	eb 02		 jmp	 SHORT $LN135@ProcessMai
$LN126@ProcessMai:

; 949  : 									}
; 950  : 								}

  00412	eb c3		 jmp	 SHORT $LN128@ProcessMai
$LN135@ProcessMai:

; 951  : 							}
; 952  : 
; 953  : 							if (opentest->DetectFilesystem && IoStatus.Information >= sizeof (int64))

  00414	8b 4d d4	 mov	 ecx, DWORD PTR _opentest$30180[ebp]
  00417	83 b9 10 02 00
	00 00		 cmp	 DWORD PTR [ecx+528], 0
  0041e	0f 84 b0 00 00
	00		 je	 $LN136@ProcessMai
  00424	83 7d b8 08	 cmp	 DWORD PTR _IoStatus$30185[ebp+4], 8
  00428	0f 82 a6 00 00
	00		 jb	 $LN136@ProcessMai

; 954  : 							{
; 955  : 								switch (BE64 (*(uint64 *) readBuffer))

  0042e	8b 55 ac	 mov	 edx, DWORD PTR _readBuffer$30202[ebp]
  00431	8b 42 04	 mov	 eax, DWORD PTR [edx+4]
  00434	50		 push	 eax
  00435	8b 0a		 mov	 ecx, DWORD PTR [edx]
  00437	51		 push	 ecx
  00438	e8 00 00 00 00	 call	 _MirrorBytes64@8
  0043d	89 85 40 fc ff
	ff		 mov	 DWORD PTR tv245[ebp], eax
  00443	89 95 44 fc ff
	ff		 mov	 DWORD PTR tv245[ebp+4], edx
  00449	81 bd 44 fc ff
	ff 4d 90 58 eb	 cmp	 DWORD PTR tv245[ebp+4], -346517427 ; eb58904dH
  00453	77 58		 ja	 SHORT $LN164@ProcessMai
  00455	72 0c		 jb	 SHORT $LN171@ProcessMai
  00457	81 bd 40 fc ff
	ff 53 4f 44 53	 cmp	 DWORD PTR tv245[ebp], 1396985683 ; 53444f53H
  00461	77 4a		 ja	 SHORT $LN164@ProcessMai
$LN171@ProcessMai:
  00463	81 bd 40 fc ff
	ff 53 4f 44 53	 cmp	 DWORD PTR tv245[ebp], 1396985683 ; 53444f53H
  0046d	75 0c		 jne	 SHORT $LN172@ProcessMai
  0046f	81 bd 44 fc ff
	ff 4d 90 58 eb	 cmp	 DWORD PTR tv245[ebp+4], -346517427 ; eb58904dH
  00479	74 4c		 je	 SHORT $LN122@ProcessMai
$LN172@ProcessMai:
  0047b	81 bd 40 fc ff
	ff 53 4f 44 53	 cmp	 DWORD PTR tv245[ebp], 1396985683 ; 53444f53H
  00485	75 0c		 jne	 SHORT $LN173@ProcessMai
  00487	81 bd 44 fc ff
	ff 4d 90 3c eb	 cmp	 DWORD PTR tv245[ebp+4], -348352435 ; eb3c904dH
  00491	74 34		 je	 SHORT $LN122@ProcessMai
$LN173@ProcessMai:
  00493	81 bd 40 fc ff
	ff 20 53 46 54	 cmp	 DWORD PTR tv245[ebp], 1413894944 ; 54465320H
  0049d	75 0c		 jne	 SHORT $LN174@ProcessMai
  0049f	81 bd 44 fc ff
	ff 4e 90 52 eb	 cmp	 DWORD PTR tv245[ebp+4], -346910642 ; eb52904eH
  004a9	74 1c		 je	 SHORT $LN122@ProcessMai
$LN174@ProcessMai:
  004ab	eb 27		 jmp	 SHORT $LN136@ProcessMai
$LN164@ProcessMai:
  004ad	81 bd 40 fc ff
	ff 54 41 46 58	 cmp	 DWORD PTR tv245[ebp], 1480999252 ; 58464154H
  004b7	75 0c		 jne	 SHORT $LN175@ProcessMai
  004b9	81 bd 44 fc ff
	ff 45 90 76 eb	 cmp	 DWORD PTR tv245[ebp+4], -344551355 ; eb769045H
  004c3	74 02		 je	 SHORT $LN122@ProcessMai
$LN175@ProcessMai:
  004c5	eb 0d		 jmp	 SHORT $LN136@ProcessMai
$LN122@ProcessMai:

; 956  : 								{
; 957  : 								case 0xEB52904E54465320: // NTFS
; 958  : 								case 0xEB3C904D53444F53: // FAT16
; 959  : 								case 0xEB58904D53444F53: // FAT32
; 960  : 								case 0xEB76904558464154: // exFAT
; 961  : 
; 962  : 									opentest->FilesystemDetected = TRUE;

  004c7	8b 55 d4	 mov	 edx, DWORD PTR _opentest$30180[ebp]
  004ca	c7 82 14 02 00
	00 01 00 00 00	 mov	 DWORD PTR [edx+532], 1
$LN136@ProcessMai:

; 963  : 									break;
; 964  : 								}
; 965  : 							}
; 966  : 						}
; 967  : 
; 968  : 						TCfree (readBuffer);

  004d4	68 54 43 4d 4d	 push	 1296909140		; 4d4d4354H
  004d9	8b 45 ac	 mov	 eax, DWORD PTR _readBuffer$30202[ebp]
  004dc	50		 push	 eax
  004dd	ff 15 00 00 00
	00		 call	 DWORD PTR __imp__ExFreePoolWithTag@8
$LN140@ProcessMai:

; 969  : 					}
; 970  : 				}
; 971  : 
; 972  : 				ZwClose (NtFileHandle);

  004e3	8b 4d b0	 mov	 ecx, DWORD PTR _NtFileHandle$30183[ebp]
  004e6	51		 push	 ecx
  004e7	ff 15 00 00 00
	00		 call	 DWORD PTR __imp__ZwClose@4

; 973  : 				Dump ("Open test on file %ls success.\n", opentest->wszFileName);

  004ed	8b 55 d4	 mov	 edx, DWORD PTR _opentest$30180[ebp]
  004f0	52		 push	 edx
  004f1	68 00 00 00 00	 push	 OFFSET ??_C@_0CA@FCHCHJKN@Open?5test?5on?5file?5?$CFls?5success?4?6?$AA@FNODOBFM@
  004f6	e8 00 00 00 00	 call	 _DbgPrint
  004fb	83 c4 08	 add	 esp, 8
$LN121@ProcessMai:

; 974  : 			}
; 975  : 			else
; 976  : 			{
; 977  : #if 0
; 978  : 				Dump ("Open test on file %ls failed NTSTATUS 0x%08x\n", opentest->wszFileName, ntStatus);
; 979  : #endif
; 980  : 			}
; 981  : 
; 982  : 			Irp->IoStatus.Information = NT_SUCCESS (ntStatus) ? sizeof (OPEN_TEST_STRUCT) : 0;

  004fe	33 c0		 xor	 eax, eax
  00500	83 7d fc 00	 cmp	 DWORD PTR _ntStatus$[ebp], 0
  00504	0f 9c c0	 setl	 al
  00507	83 e8 01	 sub	 eax, 1
  0050a	25 18 02 00 00	 and	 eax, 536		; 00000218H
  0050f	8b 4d 10	 mov	 ecx, DWORD PTR _Irp$[ebp]
  00512	89 41 1c	 mov	 DWORD PTR [ecx+28], eax

; 983  : 			Irp->IoStatus.Status = ntStatus;

  00515	8b 55 10	 mov	 edx, DWORD PTR _Irp$[ebp]
  00518	8b 45 fc	 mov	 eax, DWORD PTR _ntStatus$[ebp]
  0051b	89 42 18	 mov	 DWORD PTR [edx+24], eax

; 984  : 		}
; 985  : 		break;

  0051e	e9 98 13 00 00	 jmp	 $LN160@ProcessMai
$LN120@ProcessMai:

; 986  : 
; 987  : 	case TC_IOCTL_GET_SYSTEM_DRIVE_CONFIG:
; 988  : 		{
; 989  : 			GetSystemDriveConfigurationRequest *request = (GetSystemDriveConfigurationRequest *) Irp->AssociatedIrp.SystemBuffer;

  00523	8b 4d 10	 mov	 ecx, DWORD PTR _Irp$[ebp]
  00526	8b 51 0c	 mov	 edx, DWORD PTR [ecx+12]
  00529	89 95 74 fd ff
	ff		 mov	 DWORD PTR _request$30239[ebp], edx

; 990  : 			OBJECT_ATTRIBUTES ObjectAttributes;
; 991  : 			HANDLE NtFileHandle;
; 992  : 			UNICODE_STRING FullFileName;
; 993  : 			IO_STATUS_BLOCK IoStatus;
; 994  : 			LARGE_INTEGER offset;
; 995  : 			byte readBuffer [TC_SECTOR_SIZE_BIOS];
; 996  : 
; 997  : 			if (!ValidateIOBufferSize (Irp, sizeof (GetSystemDriveConfigurationRequest), ValidateInputOutput))

  0052f	6a 02		 push	 2
  00531	68 29 02 00 00	 push	 553			; 00000229H
  00536	8b 45 10	 mov	 eax, DWORD PTR _Irp$[ebp]
  00539	50		 push	 eax
  0053a	e8 00 00 00 00	 call	 _ValidateIOBufferSize@12
  0053f	85 c0		 test	 eax, eax
  00541	75 05		 jne	 SHORT $LN119@ProcessMai

; 998  : 				break;

  00543	e9 73 13 00 00	 jmp	 $LN160@ProcessMai
$LN119@ProcessMai:

; 999  : 
; 1000 : 			EnsureNullTerminatedString (request->DevicePath, sizeof (request->DevicePath));

  00548	68 08 02 00 00	 push	 520			; 00000208H
  0054d	8b 8d 74 fd ff
	ff		 mov	 ecx, DWORD PTR _request$30239[ebp]
  00553	51		 push	 ecx
  00554	e8 00 00 00 00	 call	 _EnsureNullTerminatedString@8

; 1001 : 			RtlInitUnicodeString (&FullFileName, request->DevicePath);

  00559	8b 95 74 fd ff
	ff		 mov	 edx, DWORD PTR _request$30239[ebp]
  0055f	52		 push	 edx
  00560	8d 45 a0	 lea	 eax, DWORD PTR _FullFileName$30243[ebp]
  00563	50		 push	 eax
  00564	ff 15 00 00 00
	00		 call	 DWORD PTR __imp__RtlInitUnicodeString@8

; 1002 : 
; 1003 : 			InitializeObjectAttributes (&ObjectAttributes, &FullFileName, OBJ_CASE_INSENSITIVE | OBJ_KERNEL_HANDLE, NULL, NULL);

  0056a	c7 85 78 fd ff
	ff 18 00 00 00	 mov	 DWORD PTR _ObjectAttributes$30241[ebp], 24 ; 00000018H
  00574	c7 85 7c fd ff
	ff 00 00 00 00	 mov	 DWORD PTR _ObjectAttributes$30241[ebp+4], 0
  0057e	c7 85 84 fd ff
	ff 40 02 00 00	 mov	 DWORD PTR _ObjectAttributes$30241[ebp+12], 576 ; 00000240H
  00588	8d 4d a0	 lea	 ecx, DWORD PTR _FullFileName$30243[ebp]
  0058b	89 8d 80 fd ff
	ff		 mov	 DWORD PTR _ObjectAttributes$30241[ebp+8], ecx
  00591	c7 85 88 fd ff
	ff 00 00 00 00	 mov	 DWORD PTR _ObjectAttributes$30241[ebp+16], 0
  0059b	c7 85 8c fd ff
	ff 00 00 00 00	 mov	 DWORD PTR _ObjectAttributes$30241[ebp+20], 0

; 1004 : 
; 1005 : 			ntStatus = ZwCreateFile (&NtFileHandle,
; 1006 : 				SYNCHRONIZE | GENERIC_READ, &ObjectAttributes, &IoStatus, NULL,
; 1007 : 				FILE_ATTRIBUTE_NORMAL, FILE_SHARE_READ | FILE_SHARE_WRITE, FILE_OPEN, FILE_SYNCHRONOUS_IO_NONALERT | FILE_RANDOM_ACCESS, NULL, 0);

  005a5	6a 00		 push	 0
  005a7	6a 00		 push	 0
  005a9	68 20 08 00 00	 push	 2080			; 00000820H
  005ae	6a 01		 push	 1
  005b0	6a 03		 push	 3
  005b2	68 80 00 00 00	 push	 128			; 00000080H
  005b7	6a 00		 push	 0
  005b9	8d 95 6c fd ff
	ff		 lea	 edx, DWORD PTR _IoStatus$30244[ebp]
  005bf	52		 push	 edx
  005c0	8d 85 78 fd ff
	ff		 lea	 eax, DWORD PTR _ObjectAttributes$30241[ebp]
  005c6	50		 push	 eax
  005c7	68 00 00 10 80	 push	 -2146435072		; 80100000H
  005cc	8d 8d 68 fd ff
	ff		 lea	 ecx, DWORD PTR _NtFileHandle$30242[ebp]
  005d2	51		 push	 ecx
  005d3	ff 15 00 00 00
	00		 call	 DWORD PTR __imp__ZwCreateFile@44
  005d9	89 45 fc	 mov	 DWORD PTR _ntStatus$[ebp], eax

; 1008 : 
; 1009 : 			if (NT_SUCCESS (ntStatus))

  005dc	83 7d fc 00	 cmp	 DWORD PTR _ntStatus$[ebp], 0
  005e0	0f 8c 23 03 00
	00		 jl	 $LN118@ProcessMai

; 1010 : 			{
; 1011 : 				// Determine if the first sector contains a portion of the TrueCrypt Boot Loader
; 1012 : 				offset.QuadPart = 0;	// MBR

  005e6	c7 85 90 fd ff
	ff 00 00 00 00	 mov	 DWORD PTR _offset$30245[ebp], 0
  005f0	c7 85 94 fd ff
	ff 00 00 00 00	 mov	 DWORD PTR _offset$30245[ebp+4], 0

; 1013 : 
; 1014 : 				ntStatus = ZwReadFile (NtFileHandle,
; 1015 : 					NULL,
; 1016 : 					NULL,
; 1017 : 					NULL,
; 1018 : 					&IoStatus,
; 1019 : 					readBuffer,
; 1020 : 					sizeof(readBuffer),
; 1021 : 					&offset,
; 1022 : 					NULL);

  005fa	6a 00		 push	 0
  005fc	8d 95 90 fd ff
	ff		 lea	 edx, DWORD PTR _offset$30245[ebp]
  00602	52		 push	 edx
  00603	68 00 02 00 00	 push	 512			; 00000200H
  00608	8d 85 98 fd ff
	ff		 lea	 eax, DWORD PTR _readBuffer$30246[ebp]
  0060e	50		 push	 eax
  0060f	8d 8d 6c fd ff
	ff		 lea	 ecx, DWORD PTR _IoStatus$30244[ebp]
  00615	51		 push	 ecx
  00616	6a 00		 push	 0
  00618	6a 00		 push	 0
  0061a	6a 00		 push	 0
  0061c	8b 95 68 fd ff
	ff		 mov	 edx, DWORD PTR _NtFileHandle$30242[ebp]
  00622	52		 push	 edx
  00623	ff 15 00 00 00
	00		 call	 DWORD PTR __imp__ZwReadFile@36
  00629	89 45 fc	 mov	 DWORD PTR _ntStatus$[ebp], eax

; 1023 : 
; 1024 : 				if (NT_SUCCESS (ntStatus))

  0062c	83 7d fc 00	 cmp	 DWORD PTR _ntStatus$[ebp], 0
  00630	0f 8c b1 02 00
	00		 jl	 $LN117@ProcessMai

; 1025 : 				{
; 1026 : 					size_t i;
; 1027 : 
; 1028 : 					// Check for dynamic drive
; 1029 : 					request->DriveIsDynamic = FALSE;

  00636	8b 85 74 fd ff
	ff		 mov	 eax, DWORD PTR _request$30239[ebp]
  0063c	c7 80 09 02 00
	00 00 00 00 00	 mov	 DWORD PTR [eax+521], 0

; 1030 : 
; 1031 : 					if (readBuffer[510] == 0x55 && readBuffer[511] == 0xaa)

  00646	0f b6 4d 96	 movzx	 ecx, BYTE PTR _readBuffer$30246[ebp+510]
  0064a	83 f9 55	 cmp	 ecx, 85			; 00000055H
  0064d	75 5a		 jne	 SHORT $LN116@ProcessMai
  0064f	0f b6 55 97	 movzx	 edx, BYTE PTR _readBuffer$30246[ebp+511]
  00653	81 fa aa 00 00
	00		 cmp	 edx, 170		; 000000aaH
  00659	75 4e		 jne	 SHORT $LN116@ProcessMai

; 1032 : 					{
; 1033 : 						int i;
; 1034 : 						for (i = 0; i < 4; ++i)

  0065b	c7 85 60 fd ff
	ff 00 00 00 00	 mov	 DWORD PTR _i$30265[ebp], 0
  00665	eb 0f		 jmp	 SHORT $LN115@ProcessMai
$LN114@ProcessMai:
  00667	8b 85 60 fd ff
	ff		 mov	 eax, DWORD PTR _i$30265[ebp]
  0066d	83 c0 01	 add	 eax, 1
  00670	89 85 60 fd ff
	ff		 mov	 DWORD PTR _i$30265[ebp], eax
$LN115@ProcessMai:
  00676	83 bd 60 fd ff
	ff 04		 cmp	 DWORD PTR _i$30265[ebp], 4
  0067d	7d 2a		 jge	 SHORT $LN116@ProcessMai

; 1035 : 						{
; 1036 : 							if (readBuffer[446 + i * 16 + 4] == PARTITION_LDM)

  0067f	8b 8d 60 fd ff
	ff		 mov	 ecx, DWORD PTR _i$30265[ebp]
  00685	c1 e1 04	 shl	 ecx, 4
  00688	0f b6 94 0d 5a
	ff ff ff	 movzx	 edx, BYTE PTR _readBuffer$30246[ebp+ecx+450]
  00690	83 fa 42	 cmp	 edx, 66			; 00000042H
  00693	75 12		 jne	 SHORT $LN112@ProcessMai

; 1037 : 							{
; 1038 : 								request->DriveIsDynamic = TRUE;

  00695	8b 85 74 fd ff
	ff		 mov	 eax, DWORD PTR _request$30239[ebp]
  0069b	c7 80 09 02 00
	00 01 00 00 00	 mov	 DWORD PTR [eax+521], 1

; 1039 : 								break;

  006a5	eb 02		 jmp	 SHORT $LN116@ProcessMai
$LN112@ProcessMai:

; 1040 : 							}
; 1041 : 						}

  006a7	eb be		 jmp	 SHORT $LN114@ProcessMai
$LN116@ProcessMai:

; 1042 : 					}
; 1043 : 
; 1044 : 					request->BootLoaderVersion = 0;

  006a9	33 c9		 xor	 ecx, ecx
  006ab	8b 95 74 fd ff
	ff		 mov	 edx, DWORD PTR _request$30239[ebp]
  006b1	66 89 8a 0d 02
	00 00		 mov	 WORD PTR [edx+525], cx

; 1045 : 					request->Configuration = 0;

  006b8	8b 85 74 fd ff
	ff		 mov	 eax, DWORD PTR _request$30239[ebp]
  006be	c6 80 08 02 00
	00 00		 mov	 BYTE PTR [eax+520], 0

; 1046 : 					request->UserConfiguration = 0;

  006c5	8b 8d 74 fd ff
	ff		 mov	 ecx, DWORD PTR _request$30239[ebp]
  006cb	c6 81 0f 02 00
	00 00		 mov	 BYTE PTR [ecx+527], 0

; 1047 : 					request->CustomUserMessage[0] = 0;

  006d2	8b 95 74 fd ff
	ff		 mov	 edx, DWORD PTR _request$30239[ebp]
  006d8	c6 82 10 02 00
	00 00		 mov	 BYTE PTR [edx+528], 0

; 1048 : 
; 1049 : 					// Search for the string "CipherShed"
; 1050 : 					for (i = 0; i < sizeof (readBuffer) - strlen (TC_APP_NAME); ++i)

  006df	c7 85 64 fd ff
	ff 00 00 00 00	 mov	 DWORD PTR _i$30263[ebp], 0
  006e9	eb 0f		 jmp	 SHORT $LN111@ProcessMai
$LN110@ProcessMai:
  006eb	8b 85 64 fd ff
	ff		 mov	 eax, DWORD PTR _i$30263[ebp]
  006f1	83 c0 01	 add	 eax, 1
  006f4	89 85 64 fd ff
	ff		 mov	 DWORD PTR _i$30263[ebp], eax
$LN111@ProcessMai:
  006fa	b9 00 02 00 00	 mov	 ecx, 512		; 00000200H
  006ff	83 e9 0a	 sub	 ecx, 10			; 0000000aH
  00702	39 8d 64 fd ff
	ff		 cmp	 DWORD PTR _i$30263[ebp], ecx
  00708	0f 83 c0 00 00
	00		 jae	 $LN109@ProcessMai

; 1051 : 					{
; 1052 : 						if (memcmp (readBuffer + i, TC_APP_NAME, strlen (TC_APP_NAME)) == 0)

  0070e	b9 05 00 00 00	 mov	 ecx, 5
  00713	bf 00 00 00 00	 mov	 edi, OFFSET ??_C@_0L@FEEFGEIL@CipherShed?$AA@FNODOBFM@
  00718	8b 95 64 fd ff
	ff		 mov	 edx, DWORD PTR _i$30263[ebp]
  0071e	8d b4 15 98 fd
	ff ff		 lea	 esi, DWORD PTR _readBuffer$30246[ebp+edx]
  00725	33 c0		 xor	 eax, eax
  00727	66 f3 a7	 repe cmpsw
  0072a	0f 85 99 00 00
	00		 jne	 $LN108@ProcessMai

; 1053 : 						{
; 1054 : 							request->BootLoaderVersion = BE16 (*(uint16 *) (readBuffer + TC_BOOT_SECTOR_VERSION_OFFSET));

  00730	0f b7 8d 46 ff
	ff ff		 movzx	 ecx, WORD PTR _readBuffer$30246[ebp+430]
  00737	51		 push	 ecx
  00738	e8 00 00 00 00	 call	 _MirrorBytes16@4
  0073d	8b 95 74 fd ff
	ff		 mov	 edx, DWORD PTR _request$30239[ebp]
  00743	66 89 82 0d 02
	00 00		 mov	 WORD PTR [edx+525], ax

; 1055 : 							request->Configuration = readBuffer[TC_BOOT_SECTOR_CONFIG_OFFSET];

  0074a	8b 85 74 fd ff
	ff		 mov	 eax, DWORD PTR _request$30239[ebp]
  00750	8a 8d 4f ff ff
	ff		 mov	 cl, BYTE PTR _readBuffer$30246[ebp+439]
  00756	88 88 08 02 00
	00		 mov	 BYTE PTR [eax+520], cl

; 1056 : 
; 1057 : 							if (request->BootLoaderVersion != 0 && request->BootLoaderVersion <= VERSION_NUM)

  0075c	8b 95 74 fd ff
	ff		 mov	 edx, DWORD PTR _request$30239[ebp]
  00762	0f b7 82 0d 02
	00 00		 movzx	 eax, WORD PTR [edx+525]
  00769	85 c0		 test	 eax, eax
  0076b	74 5a		 je	 SHORT $LN107@ProcessMai
  0076d	8b 8d 74 fd ff
	ff		 mov	 ecx, DWORD PTR _request$30239[ebp]
  00773	0f b7 91 0d 02
	00 00		 movzx	 edx, WORD PTR [ecx+525]
  0077a	81 fa 30 07 00
	00		 cmp	 edx, 1840		; 00000730H
  00780	7f 45		 jg	 SHORT $LN107@ProcessMai

; 1058 : 							{
; 1059 : 								request->UserConfiguration = readBuffer[TC_BOOT_SECTOR_USER_CONFIG_OFFSET];

  00782	8b 85 74 fd ff
	ff		 mov	 eax, DWORD PTR _request$30239[ebp]
  00788	8a 8d 4e ff ff
	ff		 mov	 cl, BYTE PTR _readBuffer$30246[ebp+438]
  0078e	88 88 0f 02 00
	00		 mov	 BYTE PTR [eax+527], cl

; 1060 : 								memcpy (request->CustomUserMessage, readBuffer + TC_BOOT_SECTOR_USER_MESSAGE_OFFSET, TC_BOOT_SECTOR_USER_MESSAGE_MAX_LENGTH);

  00794	8d 95 2e ff ff
	ff		 lea	 edx, DWORD PTR _readBuffer$30246[ebp+406]
  0079a	8b 85 74 fd ff
	ff		 mov	 eax, DWORD PTR _request$30239[ebp]
  007a0	05 10 02 00 00	 add	 eax, 528		; 00000210H
  007a5	8b 0a		 mov	 ecx, DWORD PTR [edx]
  007a7	89 08		 mov	 DWORD PTR [eax], ecx
  007a9	8b 4a 04	 mov	 ecx, DWORD PTR [edx+4]
  007ac	89 48 04	 mov	 DWORD PTR [eax+4], ecx
  007af	8b 4a 08	 mov	 ecx, DWORD PTR [edx+8]
  007b2	89 48 08	 mov	 DWORD PTR [eax+8], ecx
  007b5	8b 4a 0c	 mov	 ecx, DWORD PTR [edx+12]
  007b8	89 48 0c	 mov	 DWORD PTR [eax+12], ecx
  007bb	8b 4a 10	 mov	 ecx, DWORD PTR [edx+16]
  007be	89 48 10	 mov	 DWORD PTR [eax+16], ecx
  007c1	8b 52 14	 mov	 edx, DWORD PTR [edx+20]
  007c4	89 50 14	 mov	 DWORD PTR [eax+20], edx
$LN107@ProcessMai:

; 1061 : 							}
; 1062 : 							break;

  007c7	eb 05		 jmp	 SHORT $LN109@ProcessMai
$LN108@ProcessMai:

; 1063 : 						}
; 1064 : 					}

  007c9	e9 1d ff ff ff	 jmp	 $LN110@ProcessMai
$LN109@ProcessMai:

; 1065 : 
; 1066 : 					// Search for the string "TrueCrypt"
; 1067 : 					if (!request->BootLoaderVersion) //CipherShed not found

  007ce	8b 85 74 fd ff
	ff		 mov	 eax, DWORD PTR _request$30239[ebp]
  007d4	0f b7 88 0d 02
	00 00		 movzx	 ecx, WORD PTR [eax+525]
  007db	85 c9		 test	 ecx, ecx
  007dd	0f 85 ee 00 00
	00		 jne	 $LN106@ProcessMai

; 1068 : 					for (i = 0; i < sizeof (readBuffer) - strlen (TC_APP_NAME_LEGACY); ++i)

  007e3	c7 85 64 fd ff
	ff 00 00 00 00	 mov	 DWORD PTR _i$30263[ebp], 0
  007ed	eb 0f		 jmp	 SHORT $LN105@ProcessMai
$LN104@ProcessMai:
  007ef	8b 95 64 fd ff
	ff		 mov	 edx, DWORD PTR _i$30263[ebp]
  007f5	83 c2 01	 add	 edx, 1
  007f8	89 95 64 fd ff
	ff		 mov	 DWORD PTR _i$30263[ebp], edx
$LN105@ProcessMai:
  007fe	b8 00 02 00 00	 mov	 eax, 512		; 00000200H
  00803	83 e8 09	 sub	 eax, 9
  00806	39 85 64 fd ff
	ff		 cmp	 DWORD PTR _i$30263[ebp], eax
  0080c	0f 83 bf 00 00
	00		 jae	 $LN106@ProcessMai

; 1069 : 					{
; 1070 : 						if (memcmp (readBuffer + i, TC_APP_NAME_LEGACY, strlen (TC_APP_NAME_LEGACY)) == 0)

  00812	b9 09 00 00 00	 mov	 ecx, 9
  00817	bf 00 00 00 00	 mov	 edi, OFFSET ??_C@_09EMKKFGIH@TrueCrypt?$AA@FNODOBFM@
  0081c	8b 95 64 fd ff
	ff		 mov	 edx, DWORD PTR _i$30263[ebp]
  00822	8d b4 15 98 fd
	ff ff		 lea	 esi, DWORD PTR _readBuffer$30246[ebp+edx]
  00829	33 c0		 xor	 eax, eax
  0082b	f3 a6		 repe cmpsb
  0082d	0f 85 99 00 00
	00		 jne	 $LN102@ProcessMai

; 1071 : 						{
; 1072 : 							request->BootLoaderVersion = BE16 (*(uint16 *) (readBuffer + TC_BOOT_SECTOR_VERSION_OFFSET));

  00833	0f b7 8d 46 ff
	ff ff		 movzx	 ecx, WORD PTR _readBuffer$30246[ebp+430]
  0083a	51		 push	 ecx
  0083b	e8 00 00 00 00	 call	 _MirrorBytes16@4
  00840	8b 95 74 fd ff
	ff		 mov	 edx, DWORD PTR _request$30239[ebp]
  00846	66 89 82 0d 02
	00 00		 mov	 WORD PTR [edx+525], ax

; 1073 : 							request->Configuration = readBuffer[TC_BOOT_SECTOR_CONFIG_OFFSET];

  0084d	8b 85 74 fd ff
	ff		 mov	 eax, DWORD PTR _request$30239[ebp]
  00853	8a 8d 4f ff ff
	ff		 mov	 cl, BYTE PTR _readBuffer$30246[ebp+439]
  00859	88 88 08 02 00
	00		 mov	 BYTE PTR [eax+520], cl

; 1074 : 
; 1075 : 							if (request->BootLoaderVersion != 0 && request->BootLoaderVersion <= VERSION_NUM)

  0085f	8b 95 74 fd ff
	ff		 mov	 edx, DWORD PTR _request$30239[ebp]
  00865	0f b7 82 0d 02
	00 00		 movzx	 eax, WORD PTR [edx+525]
  0086c	85 c0		 test	 eax, eax
  0086e	74 5a		 je	 SHORT $LN101@ProcessMai
  00870	8b 8d 74 fd ff
	ff		 mov	 ecx, DWORD PTR _request$30239[ebp]
  00876	0f b7 91 0d 02
	00 00		 movzx	 edx, WORD PTR [ecx+525]
  0087d	81 fa 30 07 00
	00		 cmp	 edx, 1840		; 00000730H
  00883	7f 45		 jg	 SHORT $LN101@ProcessMai

; 1076 : 							{
; 1077 : 								request->UserConfiguration = readBuffer[TC_BOOT_SECTOR_USER_CONFIG_OFFSET];

  00885	8b 85 74 fd ff
	ff		 mov	 eax, DWORD PTR _request$30239[ebp]
  0088b	8a 8d 4e ff ff
	ff		 mov	 cl, BYTE PTR _readBuffer$30246[ebp+438]
  00891	88 88 0f 02 00
	00		 mov	 BYTE PTR [eax+527], cl

; 1078 : 								memcpy (request->CustomUserMessage, readBuffer + TC_BOOT_SECTOR_USER_MESSAGE_OFFSET, TC_BOOT_SECTOR_USER_MESSAGE_MAX_LENGTH);

  00897	8d 95 2e ff ff
	ff		 lea	 edx, DWORD PTR _readBuffer$30246[ebp+406]
  0089d	8b 85 74 fd ff
	ff		 mov	 eax, DWORD PTR _request$30239[ebp]
  008a3	05 10 02 00 00	 add	 eax, 528		; 00000210H
  008a8	8b 0a		 mov	 ecx, DWORD PTR [edx]
  008aa	89 08		 mov	 DWORD PTR [eax], ecx
  008ac	8b 4a 04	 mov	 ecx, DWORD PTR [edx+4]
  008af	89 48 04	 mov	 DWORD PTR [eax+4], ecx
  008b2	8b 4a 08	 mov	 ecx, DWORD PTR [edx+8]
  008b5	89 48 08	 mov	 DWORD PTR [eax+8], ecx
  008b8	8b 4a 0c	 mov	 ecx, DWORD PTR [edx+12]
  008bb	89 48 0c	 mov	 DWORD PTR [eax+12], ecx
  008be	8b 4a 10	 mov	 ecx, DWORD PTR [edx+16]
  008c1	89 48 10	 mov	 DWORD PTR [eax+16], ecx
  008c4	8b 52 14	 mov	 edx, DWORD PTR [edx+20]
  008c7	89 50 14	 mov	 DWORD PTR [eax+20], edx
$LN101@ProcessMai:

; 1079 : 							}
; 1080 : 							break;

  008ca	eb 05		 jmp	 SHORT $LN106@ProcessMai
$LN102@ProcessMai:

; 1081 : 						}
; 1082 : 					}

  008cc	e9 1e ff ff ff	 jmp	 $LN104@ProcessMai
$LN106@ProcessMai:

; 1083 : 
; 1084 : 					Irp->IoStatus.Status = STATUS_SUCCESS;

  008d1	8b 45 10	 mov	 eax, DWORD PTR _Irp$[ebp]
  008d4	c7 40 18 00 00
	00 00		 mov	 DWORD PTR [eax+24], 0

; 1085 : 					Irp->IoStatus.Information = sizeof (*request);

  008db	8b 4d 10	 mov	 ecx, DWORD PTR _Irp$[ebp]
  008de	c7 41 1c 29 02
	00 00		 mov	 DWORD PTR [ecx+28], 553	; 00000229H

; 1086 : 				}
; 1087 : 				else

  008e5	eb 13		 jmp	 SHORT $LN100@ProcessMai
$LN117@ProcessMai:

; 1088 : 				{
; 1089 : 					Irp->IoStatus.Status = ntStatus;

  008e7	8b 55 10	 mov	 edx, DWORD PTR _Irp$[ebp]
  008ea	8b 45 fc	 mov	 eax, DWORD PTR _ntStatus$[ebp]
  008ed	89 42 18	 mov	 DWORD PTR [edx+24], eax

; 1090 : 					Irp->IoStatus.Information = 0;

  008f0	8b 4d 10	 mov	 ecx, DWORD PTR _Irp$[ebp]
  008f3	c7 41 1c 00 00
	00 00		 mov	 DWORD PTR [ecx+28], 0
$LN100@ProcessMai:

; 1091 : 				}
; 1092 : 
; 1093 : 				ZwClose (NtFileHandle);

  008fa	8b 95 68 fd ff
	ff		 mov	 edx, DWORD PTR _NtFileHandle$30242[ebp]
  00900	52		 push	 edx
  00901	ff 15 00 00 00
	00		 call	 DWORD PTR __imp__ZwClose@4

; 1094 : 
; 1095 : 			}
; 1096 : 			else

  00907	eb 13		 jmp	 SHORT $LN99@ProcessMai
$LN118@ProcessMai:

; 1097 : 			{
; 1098 : 				Irp->IoStatus.Status = ntStatus;

  00909	8b 45 10	 mov	 eax, DWORD PTR _Irp$[ebp]
  0090c	8b 4d fc	 mov	 ecx, DWORD PTR _ntStatus$[ebp]
  0090f	89 48 18	 mov	 DWORD PTR [eax+24], ecx

; 1099 : 				Irp->IoStatus.Information = 0;

  00912	8b 55 10	 mov	 edx, DWORD PTR _Irp$[ebp]
  00915	c7 42 1c 00 00
	00 00		 mov	 DWORD PTR [edx+28], 0
$LN99@ProcessMai:

; 1100 : 			}
; 1101 : 		}
; 1102 : 		break;

  0091c	e9 9a 0f 00 00	 jmp	 $LN160@ProcessMai
$LN98@ProcessMai:

; 1103 : 
; 1104 : 	case TC_IOCTL_WIPE_PASSWORD_CACHE:
; 1105 : 		WipeCache ();

  00921	e8 00 00 00 00	 call	 _WipeCache@0

; 1106 : 
; 1107 : 		Irp->IoStatus.Status = STATUS_SUCCESS;

  00926	8b 45 10	 mov	 eax, DWORD PTR _Irp$[ebp]
  00929	c7 40 18 00 00
	00 00		 mov	 DWORD PTR [eax+24], 0

; 1108 : 		Irp->IoStatus.Information = 0;

  00930	8b 4d 10	 mov	 ecx, DWORD PTR _Irp$[ebp]
  00933	c7 41 1c 00 00
	00 00		 mov	 DWORD PTR [ecx+28], 0

; 1109 : 		break;

  0093a	e9 7c 0f 00 00	 jmp	 $LN160@ProcessMai
$LN97@ProcessMai:

; 1110 : 
; 1111 : 	case TC_IOCTL_GET_PASSWORD_CACHE_STATUS:
; 1112 : 		Irp->IoStatus.Status = cacheEmpty ? STATUS_PIPE_EMPTY : STATUS_SUCCESS;

  0093f	8b 15 00 00 00
	00		 mov	 edx, DWORD PTR _cacheEmpty
  00945	f7 da		 neg	 edx
  00947	1b d2		 sbb	 edx, edx
  00949	81 e2 d9 00 00
	c0		 and	 edx, -1073741607	; c00000d9H
  0094f	8b 45 10	 mov	 eax, DWORD PTR _Irp$[ebp]
  00952	89 50 18	 mov	 DWORD PTR [eax+24], edx

; 1113 : 		Irp->IoStatus.Information = 0;

  00955	8b 4d 10	 mov	 ecx, DWORD PTR _Irp$[ebp]
  00958	c7 41 1c 00 00
	00 00		 mov	 DWORD PTR [ecx+28], 0

; 1114 : 		break;

  0095f	e9 57 0f 00 00	 jmp	 $LN160@ProcessMai
$LN96@ProcessMai:

; 1115 : 
; 1116 : 	case TC_IOCTL_SET_PORTABLE_MODE_STATUS:
; 1117 : 		if (!UserCanAccessDriveDevice())

  00964	e8 00 00 00 00	 call	 _UserCanAccessDriveDevice@0
  00969	85 c0		 test	 eax, eax
  0096b	75 16		 jne	 SHORT $LN95@ProcessMai

; 1118 : 		{
; 1119 : 			Irp->IoStatus.Status = STATUS_ACCESS_DENIED;

  0096d	8b 55 10	 mov	 edx, DWORD PTR _Irp$[ebp]
  00970	c7 42 18 22 00
	00 c0		 mov	 DWORD PTR [edx+24], -1073741790 ; c0000022H

; 1120 : 			Irp->IoStatus.Information = 0;

  00977	8b 45 10	 mov	 eax, DWORD PTR _Irp$[ebp]
  0097a	c7 40 1c 00 00
	00 00		 mov	 DWORD PTR [eax+28], 0

; 1121 : 		}
; 1122 : 		else

  00981	eb 17		 jmp	 SHORT $LN94@ProcessMai
$LN95@ProcessMai:

; 1123 : 		{
; 1124 : 			PortableMode = TRUE;

  00983	c7 05 00 00 00
	00 01 00 00 00	 mov	 DWORD PTR _PortableMode, 1

; 1125 : 			Dump ("Setting portable mode\n");

  0098d	68 00 00 00 00	 push	 OFFSET ??_C@_0BH@GFMHOPFN@Setting?5portable?5mode?6?$AA@FNODOBFM@
  00992	e8 00 00 00 00	 call	 _DbgPrint
  00997	83 c4 04	 add	 esp, 4
$LN94@ProcessMai:

; 1126 : 		}
; 1127 : 		break;

  0099a	e9 1c 0f 00 00	 jmp	 $LN160@ProcessMai
$LN93@ProcessMai:

; 1128 : 
; 1129 : 	case TC_IOCTL_GET_PORTABLE_MODE_STATUS:
; 1130 : 		Irp->IoStatus.Status = PortableMode ? STATUS_SUCCESS : STATUS_PIPE_EMPTY;

  0099f	8b 0d 00 00 00
	00		 mov	 ecx, DWORD PTR _PortableMode
  009a5	f7 d9		 neg	 ecx
  009a7	1b c9		 sbb	 ecx, ecx
  009a9	81 e1 27 ff ff
	3f		 and	 ecx, 1073741607		; 3fffff27H
  009af	81 c1 d9 00 00
	c0		 add	 ecx, -1073741607	; c00000d9H
  009b5	8b 55 10	 mov	 edx, DWORD PTR _Irp$[ebp]
  009b8	89 4a 18	 mov	 DWORD PTR [edx+24], ecx

; 1131 : 		Irp->IoStatus.Information = 0;

  009bb	8b 45 10	 mov	 eax, DWORD PTR _Irp$[ebp]
  009be	c7 40 1c 00 00
	00 00		 mov	 DWORD PTR [eax+28], 0

; 1132 : 		break;

  009c5	e9 f1 0e 00 00	 jmp	 $LN160@ProcessMai
$LN92@ProcessMai:

; 1133 : 
; 1134 : 	case TC_IOCTL_GET_MOUNTED_VOLUMES:
; 1135 : 
; 1136 : 		if (ValidateIOBufferSize (Irp, sizeof (MOUNT_LIST_STRUCT), ValidateOutput))

  009ca	6a 01		 push	 1
  009cc	68 74 36 00 00	 push	 13940			; 00003674H
  009d1	8b 4d 10	 mov	 ecx, DWORD PTR _Irp$[ebp]
  009d4	51		 push	 ecx
  009d5	e8 00 00 00 00	 call	 _ValidateIOBufferSize@12
  009da	85 c0		 test	 eax, eax
  009dc	0f 84 2c 02 00
	00		 je	 $LN91@ProcessMai

; 1137 : 		{
; 1138 : 			MOUNT_LIST_STRUCT *list = (MOUNT_LIST_STRUCT *) Irp->AssociatedIrp.SystemBuffer;

  009e2	8b 55 10	 mov	 edx, DWORD PTR _Irp$[ebp]
  009e5	8b 42 0c	 mov	 eax, DWORD PTR [edx+12]
  009e8	89 85 5c fd ff
	ff		 mov	 DWORD PTR _list$30302[ebp], eax

; 1139 : 			PDEVICE_OBJECT ListDevice;
; 1140 : 			int drive;
; 1141 : 
; 1142 : 			list->ulMountedDrives = 0;

  009ee	8b 8d 5c fd ff
	ff		 mov	 ecx, DWORD PTR _list$30302[ebp]
  009f4	c7 01 00 00 00
	00		 mov	 DWORD PTR [ecx], 0

; 1143 : 
; 1144 : 			for (drive = MIN_MOUNTED_VOLUME_DRIVE_NUMBER; drive <= MAX_MOUNTED_VOLUME_DRIVE_NUMBER; ++drive)

  009fa	c7 85 58 fd ff
	ff 00 00 00 00	 mov	 DWORD PTR _drive$30305[ebp], 0
  00a04	eb 0f		 jmp	 SHORT $LN90@ProcessMai
$LN89@ProcessMai:
  00a06	8b 95 58 fd ff
	ff		 mov	 edx, DWORD PTR _drive$30305[ebp]
  00a0c	83 c2 01	 add	 edx, 1
  00a0f	89 95 58 fd ff
	ff		 mov	 DWORD PTR _drive$30305[ebp], edx
$LN90@ProcessMai:
  00a15	83 bd 58 fd ff
	ff 19		 cmp	 DWORD PTR _drive$30305[ebp], 25 ; 00000019H
  00a1c	0f 8f d8 01 00
	00		 jg	 $LN88@ProcessMai

; 1145 : 			{
; 1146 : 				PEXTENSION ListExtension;
; 1147 : 				
; 1148 : 				ListDevice = GetVirtualVolumeDeviceObject (drive);

  00a22	8b 85 58 fd ff
	ff		 mov	 eax, DWORD PTR _drive$30305[ebp]
  00a28	50		 push	 eax
  00a29	e8 00 00 00 00	 call	 _GetVirtualVolumeDeviceObject@4
  00a2e	89 85 54 fd ff
	ff		 mov	 DWORD PTR _ListDevice$30304[ebp], eax

; 1149 : 				if (!ListDevice)

  00a34	83 bd 54 fd ff
	ff 00		 cmp	 DWORD PTR _ListDevice$30304[ebp], 0
  00a3b	75 02		 jne	 SHORT $LN87@ProcessMai

; 1150 : 					continue;

  00a3d	eb c7		 jmp	 SHORT $LN89@ProcessMai
$LN87@ProcessMai:

; 1151 : 
; 1152 : 				ListExtension = (PEXTENSION) ListDevice->DeviceExtension;

  00a3f	8b 8d 54 fd ff
	ff		 mov	 ecx, DWORD PTR _ListDevice$30304[ebp]
  00a45	8b 51 28	 mov	 edx, DWORD PTR [ecx+40]
  00a48	89 95 50 fd ff
	ff		 mov	 DWORD PTR _ListExtension$30309[ebp], edx

; 1153 : 				if (IsVolumeAccessibleByCurrentUser (ListExtension))

  00a4e	8b 85 50 fd ff
	ff		 mov	 eax, DWORD PTR _ListExtension$30309[ebp]
  00a54	50		 push	 eax
  00a55	e8 00 00 00 00	 call	 _IsVolumeAccessibleByCurrentUser@4
  00a5a	85 c0		 test	 eax, eax
  00a5c	0f 84 93 01 00
	00		 je	 $LN86@ProcessMai

; 1154 : 				{
; 1155 : 					list->ulMountedDrives |= (1 << ListExtension->nDosDriveNo);

  00a62	8b 8d 50 fd ff
	ff		 mov	 ecx, DWORD PTR _ListExtension$30309[ebp]
  00a68	ba 01 00 00 00	 mov	 edx, 1
  00a6d	8b 49 14	 mov	 ecx, DWORD PTR [ecx+20]
  00a70	d3 e2		 shl	 edx, cl
  00a72	8b 85 5c fd ff
	ff		 mov	 eax, DWORD PTR _list$30302[ebp]
  00a78	0b 10		 or	 edx, DWORD PTR [eax]
  00a7a	8b 8d 5c fd ff
	ff		 mov	 ecx, DWORD PTR _list$30302[ebp]
  00a80	89 11		 mov	 DWORD PTR [ecx], edx

; 1156 : 					wcscpy (list->wszVolume[ListExtension->nDosDriveNo], ListExtension->wszVolume);

  00a82	8b 95 50 fd ff
	ff		 mov	 edx, DWORD PTR _ListExtension$30309[ebp]
  00a88	81 c2 a0 02 00
	00		 add	 edx, 672		; 000002a0H
  00a8e	89 95 3c fc ff
	ff		 mov	 DWORD PTR tv455[ebp], edx
  00a94	8b 85 50 fd ff
	ff		 mov	 eax, DWORD PTR _ListExtension$30309[ebp]
  00a9a	8b 48 14	 mov	 ecx, DWORD PTR [eax+20]
  00a9d	69 c9 08 02 00
	00		 imul	 ecx, 520		; 00000208H
  00aa3	8b 95 5c fd ff
	ff		 mov	 edx, DWORD PTR _list$30302[ebp]
  00aa9	8d 44 0a 04	 lea	 eax, DWORD PTR [edx+ecx+4]
  00aad	89 85 38 fc ff
	ff		 mov	 DWORD PTR tv460[ebp], eax
  00ab3	8b 8d 38 fc ff
	ff		 mov	 ecx, DWORD PTR tv460[ebp]
  00ab9	89 8d 34 fc ff
	ff		 mov	 DWORD PTR tv461[ebp], ecx
$LN165@ProcessMai:
  00abf	8b 95 3c fc ff
	ff		 mov	 edx, DWORD PTR tv455[ebp]
  00ac5	66 8b 02	 mov	 ax, WORD PTR [edx]
  00ac8	66 89 85 32 fc
	ff ff		 mov	 WORD PTR tv462[ebp], ax
  00acf	8b 8d 38 fc ff
	ff		 mov	 ecx, DWORD PTR tv460[ebp]
  00ad5	66 8b 95 32 fc
	ff ff		 mov	 dx, WORD PTR tv462[ebp]
  00adc	66 89 11	 mov	 WORD PTR [ecx], dx
  00adf	8b 85 3c fc ff
	ff		 mov	 eax, DWORD PTR tv455[ebp]
  00ae5	83 c0 02	 add	 eax, 2
  00ae8	89 85 3c fc ff
	ff		 mov	 DWORD PTR tv455[ebp], eax
  00aee	8b 8d 38 fc ff
	ff		 mov	 ecx, DWORD PTR tv460[ebp]
  00af4	83 c1 02	 add	 ecx, 2
  00af7	89 8d 38 fc ff
	ff		 mov	 DWORD PTR tv460[ebp], ecx
  00afd	66 83 bd 32 fc
	ff ff 00	 cmp	 WORD PTR tv462[ebp], 0
  00b05	75 b8		 jne	 SHORT $LN165@ProcessMai

; 1157 : 					list->diskLength[ListExtension->nDosDriveNo] = ListExtension->DiskLength;

  00b07	8b 95 50 fd ff
	ff		 mov	 edx, DWORD PTR _ListExtension$30309[ebp]
  00b0d	8b 42 14	 mov	 eax, DWORD PTR [edx+20]
  00b10	8b 8d 5c fd ff
	ff		 mov	 ecx, DWORD PTR _list$30302[ebp]
  00b16	8b 95 50 fd ff
	ff		 mov	 edx, DWORD PTR _ListExtension$30309[ebp]
  00b1c	8b 72 70	 mov	 esi, DWORD PTR [edx+112]
  00b1f	89 b4 c1 d4 34
	00 00		 mov	 DWORD PTR [ecx+eax*8+13524], esi
  00b26	8b 52 74	 mov	 edx, DWORD PTR [edx+116]
  00b29	89 94 c1 d8 34
	00 00		 mov	 DWORD PTR [ecx+eax*8+13528], edx

; 1158 : 					list->ea[ListExtension->nDosDriveNo] = ListExtension->cryptoInfo->ea;

  00b30	8b 85 50 fd ff
	ff		 mov	 eax, DWORD PTR _ListExtension$30309[ebp]
  00b36	8b 48 60	 mov	 ecx, DWORD PTR [eax+96]
  00b39	8b 95 50 fd ff
	ff		 mov	 edx, DWORD PTR _ListExtension$30309[ebp]
  00b3f	8b 42 14	 mov	 eax, DWORD PTR [edx+20]
  00b42	8b 95 5c fd ff
	ff		 mov	 edx, DWORD PTR _list$30302[ebp]
  00b48	8b 09		 mov	 ecx, DWORD PTR [ecx]
  00b4a	89 8c 82 a4 35
	00 00		 mov	 DWORD PTR [edx+eax*4+13732], ecx

; 1159 : 					if (ListExtension->cryptoInfo->hiddenVolume)

  00b51	8b 95 50 fd ff
	ff		 mov	 edx, DWORD PTR _ListExtension$30309[ebp]
  00b57	8b 42 60	 mov	 eax, DWORD PTR [edx+96]
  00b5a	83 b8 a0 29 00
	00 00		 cmp	 DWORD PTR [eax+10656], 0
  00b61	74 1c		 je	 SHORT $LN85@ProcessMai

; 1160 : 						list->volumeType[ListExtension->nDosDriveNo] = PROP_VOL_TYPE_HIDDEN;	// Hidden volume

  00b63	8b 8d 50 fd ff
	ff		 mov	 ecx, DWORD PTR _ListExtension$30309[ebp]
  00b69	8b 51 14	 mov	 edx, DWORD PTR [ecx+20]
  00b6c	8b 85 5c fd ff
	ff		 mov	 eax, DWORD PTR _list$30302[ebp]
  00b72	c7 84 90 0c 36
	00 00 01 00 00
	00		 mov	 DWORD PTR [eax+edx*4+13836], 1
  00b7d	eb 76		 jmp	 SHORT $LN86@ProcessMai
$LN85@ProcessMai:

; 1161 : 					else if (ListExtension->cryptoInfo->bHiddenVolProtectionAction)

  00b7f	8b 8d 50 fd ff
	ff		 mov	 ecx, DWORD PTR _ListExtension$30309[ebp]
  00b85	8b 51 60	 mov	 edx, DWORD PTR [ecx+96]
  00b88	83 ba 04 44 00
	00 00		 cmp	 DWORD PTR [edx+17412], 0
  00b8f	74 1c		 je	 SHORT $LN83@ProcessMai

; 1162 : 						list->volumeType[ListExtension->nDosDriveNo] = PROP_VOL_TYPE_OUTER_VOL_WRITE_PREVENTED;	// Normal/outer volume (hidden volume protected AND write already prevented)

  00b91	8b 85 50 fd ff
	ff		 mov	 eax, DWORD PTR _ListExtension$30309[ebp]
  00b97	8b 48 14	 mov	 ecx, DWORD PTR [eax+20]
  00b9a	8b 95 5c fd ff
	ff		 mov	 edx, DWORD PTR _list$30302[ebp]
  00ba0	c7 84 8a 0c 36
	00 00 03 00 00
	00		 mov	 DWORD PTR [edx+ecx*4+13836], 3
  00bab	eb 48		 jmp	 SHORT $LN86@ProcessMai
$LN83@ProcessMai:

; 1163 : 					else if (ListExtension->cryptoInfo->bProtectHiddenVolume)

  00bad	8b 85 50 fd ff
	ff		 mov	 eax, DWORD PTR _ListExtension$30309[ebp]
  00bb3	8b 48 60	 mov	 ecx, DWORD PTR [eax+96]
  00bb6	83 b9 00 44 00
	00 00		 cmp	 DWORD PTR [ecx+17408], 0
  00bbd	74 1c		 je	 SHORT $LN81@ProcessMai

; 1164 : 						list->volumeType[ListExtension->nDosDriveNo] = PROP_VOL_TYPE_OUTER;	// Normal/outer volume (hidden volume protected)

  00bbf	8b 95 50 fd ff
	ff		 mov	 edx, DWORD PTR _ListExtension$30309[ebp]
  00bc5	8b 42 14	 mov	 eax, DWORD PTR [edx+20]
  00bc8	8b 8d 5c fd ff
	ff		 mov	 ecx, DWORD PTR _list$30302[ebp]
  00bce	c7 84 81 0c 36
	00 00 02 00 00
	00		 mov	 DWORD PTR [ecx+eax*4+13836], 2

; 1165 : 					else

  00bd9	eb 1a		 jmp	 SHORT $LN86@ProcessMai
$LN81@ProcessMai:

; 1166 : 						list->volumeType[ListExtension->nDosDriveNo] = PROP_VOL_TYPE_NORMAL;	// Normal volume

  00bdb	8b 95 50 fd ff
	ff		 mov	 edx, DWORD PTR _ListExtension$30309[ebp]
  00be1	8b 42 14	 mov	 eax, DWORD PTR [edx+20]
  00be4	8b 8d 5c fd ff
	ff		 mov	 ecx, DWORD PTR _list$30302[ebp]
  00bea	c7 84 81 0c 36
	00 00 00 00 00
	00		 mov	 DWORD PTR [ecx+eax*4+13836], 0
$LN86@ProcessMai:

; 1167 : 				}
; 1168 : 			}

  00bf5	e9 0c fe ff ff	 jmp	 $LN89@ProcessMai
$LN88@ProcessMai:

; 1169 : 
; 1170 : 			Irp->IoStatus.Status = STATUS_SUCCESS;

  00bfa	8b 55 10	 mov	 edx, DWORD PTR _Irp$[ebp]
  00bfd	c7 42 18 00 00
	00 00		 mov	 DWORD PTR [edx+24], 0

; 1171 : 			Irp->IoStatus.Information = sizeof (MOUNT_LIST_STRUCT);

  00c04	8b 45 10	 mov	 eax, DWORD PTR _Irp$[ebp]
  00c07	c7 40 1c 74 36
	00 00		 mov	 DWORD PTR [eax+28], 13940 ; 00003674H
$LN91@ProcessMai:

; 1172 : 		}
; 1173 : 		break;

  00c0e	e9 a8 0c 00 00	 jmp	 $LN160@ProcessMai
$LN79@ProcessMai:

; 1174 : 
; 1175 : 	case TC_IOCTL_LEGACY_GET_MOUNTED_VOLUMES:
; 1176 : 		if (ValidateIOBufferSize (Irp, sizeof (uint32), ValidateOutput))

  00c13	6a 01		 push	 1
  00c15	6a 04		 push	 4
  00c17	8b 4d 10	 mov	 ecx, DWORD PTR _Irp$[ebp]
  00c1a	51		 push	 ecx
  00c1b	e8 00 00 00 00	 call	 _ValidateIOBufferSize@12
  00c20	85 c0		 test	 eax, eax
  00c22	74 3a		 je	 SHORT $LN78@ProcessMai

; 1177 : 		{
; 1178 : 			// Prevent the user from downgrading to versions lower than 5.0 by faking mounted volumes.
; 1179 : 			// The user could render the system unbootable by downgrading when boot encryption
; 1180 : 			// is active or being set up.
; 1181 : 
; 1182 : 			memset (Irp->AssociatedIrp.SystemBuffer, 0, irpSp->Parameters.DeviceIoControl.OutputBufferLength);

  00c24	8b 55 f8	 mov	 edx, DWORD PTR _irpSp$[ebp]
  00c27	8b 42 04	 mov	 eax, DWORD PTR [edx+4]
  00c2a	50		 push	 eax
  00c2b	6a 00		 push	 0
  00c2d	8b 4d 10	 mov	 ecx, DWORD PTR _Irp$[ebp]
  00c30	8b 51 0c	 mov	 edx, DWORD PTR [ecx+12]
  00c33	52		 push	 edx
  00c34	e8 00 00 00 00	 call	 _memset
  00c39	83 c4 0c	 add	 esp, 12			; 0000000cH

; 1183 : 			*(uint32 *) Irp->AssociatedIrp.SystemBuffer = 0xffffFFFF;

  00c3c	8b 45 10	 mov	 eax, DWORD PTR _Irp$[ebp]
  00c3f	8b 48 0c	 mov	 ecx, DWORD PTR [eax+12]
  00c42	c7 01 ff ff ff
	ff		 mov	 DWORD PTR [ecx], -1

; 1184 : 
; 1185 : 			Irp->IoStatus.Status = STATUS_SUCCESS;

  00c48	8b 55 10	 mov	 edx, DWORD PTR _Irp$[ebp]
  00c4b	c7 42 18 00 00
	00 00		 mov	 DWORD PTR [edx+24], 0

; 1186 : 			Irp->IoStatus.Information = irpSp->Parameters.DeviceIoControl.OutputBufferLength;

  00c52	8b 45 10	 mov	 eax, DWORD PTR _Irp$[ebp]
  00c55	8b 4d f8	 mov	 ecx, DWORD PTR _irpSp$[ebp]
  00c58	8b 51 04	 mov	 edx, DWORD PTR [ecx+4]
  00c5b	89 50 1c	 mov	 DWORD PTR [eax+28], edx
$LN78@ProcessMai:

; 1187 : 		}
; 1188 : 		break;

  00c5e	e9 58 0c 00 00	 jmp	 $LN160@ProcessMai
$LN77@ProcessMai:

; 1189 : 
; 1190 : 	case TC_IOCTL_GET_VOLUME_PROPERTIES:
; 1191 : 		if (ValidateIOBufferSize (Irp, sizeof (VOLUME_PROPERTIES_STRUCT), ValidateInputOutput))

  00c63	6a 02		 push	 2
  00c65	68 54 02 00 00	 push	 596			; 00000254H
  00c6a	8b 45 10	 mov	 eax, DWORD PTR _Irp$[ebp]
  00c6d	50		 push	 eax
  00c6e	e8 00 00 00 00	 call	 _ValidateIOBufferSize@12
  00c73	85 c0		 test	 eax, eax
  00c75	0f 84 b2 02 00
	00		 je	 $LN76@ProcessMai

; 1192 : 		{
; 1193 : 			VOLUME_PROPERTIES_STRUCT *prop = (VOLUME_PROPERTIES_STRUCT *) Irp->AssociatedIrp.SystemBuffer;

  00c7b	8b 4d 10	 mov	 ecx, DWORD PTR _Irp$[ebp]
  00c7e	8b 51 0c	 mov	 edx, DWORD PTR [ecx+12]
  00c81	89 95 48 fd ff
	ff		 mov	 DWORD PTR _prop$30329[ebp], edx

; 1194 : 			PDEVICE_OBJECT ListDevice = GetVirtualVolumeDeviceObject (prop->driveNo);

  00c87	8b 85 48 fd ff
	ff		 mov	 eax, DWORD PTR _prop$30329[ebp]
  00c8d	8b 08		 mov	 ecx, DWORD PTR [eax]
  00c8f	51		 push	 ecx
  00c90	e8 00 00 00 00	 call	 _GetVirtualVolumeDeviceObject@4
  00c95	89 85 4c fd ff
	ff		 mov	 DWORD PTR _ListDevice$30331[ebp], eax

; 1195 : 
; 1196 : 			Irp->IoStatus.Status = STATUS_INVALID_PARAMETER;

  00c9b	8b 55 10	 mov	 edx, DWORD PTR _Irp$[ebp]
  00c9e	c7 42 18 0d 00
	00 c0		 mov	 DWORD PTR [edx+24], -1073741811 ; c000000dH

; 1197 : 			Irp->IoStatus.Information = 0;

  00ca5	8b 45 10	 mov	 eax, DWORD PTR _Irp$[ebp]
  00ca8	c7 40 1c 00 00
	00 00		 mov	 DWORD PTR [eax+28], 0

; 1198 : 
; 1199 : 			if (ListDevice)

  00caf	83 bd 4c fd ff
	ff 00		 cmp	 DWORD PTR _ListDevice$30331[ebp], 0
  00cb6	0f 84 71 02 00
	00		 je	 $LN76@ProcessMai

; 1200 : 			{
; 1201 : 				PEXTENSION ListExtension = (PEXTENSION) ListDevice->DeviceExtension;

  00cbc	8b 8d 4c fd ff
	ff		 mov	 ecx, DWORD PTR _ListDevice$30331[ebp]
  00cc2	8b 51 28	 mov	 edx, DWORD PTR [ecx+40]
  00cc5	89 95 44 fd ff
	ff		 mov	 DWORD PTR _ListExtension$30334[ebp], edx

; 1202 : 				if (IsVolumeAccessibleByCurrentUser (ListExtension))

  00ccb	8b 85 44 fd ff
	ff		 mov	 eax, DWORD PTR _ListExtension$30334[ebp]
  00cd1	50		 push	 eax
  00cd2	e8 00 00 00 00	 call	 _IsVolumeAccessibleByCurrentUser@4
  00cd7	85 c0		 test	 eax, eax
  00cd9	0f 84 4e 02 00
	00		 je	 $LN76@ProcessMai

; 1203 : 				{
; 1204 : 					prop->uniqueId = ListExtension->UniqueVolumeId;

  00cdf	8b 8d 48 fd ff
	ff		 mov	 ecx, DWORD PTR _prop$30329[ebp]
  00ce5	8b 95 44 fd ff
	ff		 mov	 edx, DWORD PTR _ListExtension$30334[ebp]
  00ceb	8b 42 10	 mov	 eax, DWORD PTR [edx+16]
  00cee	89 41 04	 mov	 DWORD PTR [ecx+4], eax

; 1205 : 					wcscpy (prop->wszVolume, ListExtension->wszVolume);

  00cf1	8b 8d 44 fd ff
	ff		 mov	 ecx, DWORD PTR _ListExtension$30334[ebp]
  00cf7	81 c1 a0 02 00
	00		 add	 ecx, 672		; 000002a0H
  00cfd	89 8d 2c fc ff
	ff		 mov	 DWORD PTR tv538[ebp], ecx
  00d03	8b 95 48 fd ff
	ff		 mov	 edx, DWORD PTR _prop$30329[ebp]
  00d09	83 c2 08	 add	 edx, 8
  00d0c	89 95 28 fc ff
	ff		 mov	 DWORD PTR tv540[ebp], edx
  00d12	8b 85 28 fc ff
	ff		 mov	 eax, DWORD PTR tv540[ebp]
  00d18	89 85 24 fc ff
	ff		 mov	 DWORD PTR tv541[ebp], eax
$LN166@ProcessMai:
  00d1e	8b 8d 2c fc ff
	ff		 mov	 ecx, DWORD PTR tv538[ebp]
  00d24	66 8b 11	 mov	 dx, WORD PTR [ecx]
  00d27	66 89 95 22 fc
	ff ff		 mov	 WORD PTR tv542[ebp], dx
  00d2e	8b 85 28 fc ff
	ff		 mov	 eax, DWORD PTR tv540[ebp]
  00d34	66 8b 8d 22 fc
	ff ff		 mov	 cx, WORD PTR tv542[ebp]
  00d3b	66 89 08	 mov	 WORD PTR [eax], cx
  00d3e	8b 95 2c fc ff
	ff		 mov	 edx, DWORD PTR tv538[ebp]
  00d44	83 c2 02	 add	 edx, 2
  00d47	89 95 2c fc ff
	ff		 mov	 DWORD PTR tv538[ebp], edx
  00d4d	8b 85 28 fc ff
	ff		 mov	 eax, DWORD PTR tv540[ebp]
  00d53	83 c0 02	 add	 eax, 2
  00d56	89 85 28 fc ff
	ff		 mov	 DWORD PTR tv540[ebp], eax
  00d5c	66 83 bd 22 fc
	ff ff 00	 cmp	 WORD PTR tv542[ebp], 0
  00d64	75 b8		 jne	 SHORT $LN166@ProcessMai

; 1206 : 					prop->diskLength = ListExtension->DiskLength;

  00d66	8b 8d 48 fd ff
	ff		 mov	 ecx, DWORD PTR _prop$30329[ebp]
  00d6c	8b 95 44 fd ff
	ff		 mov	 edx, DWORD PTR _ListExtension$30334[ebp]
  00d72	8b 42 70	 mov	 eax, DWORD PTR [edx+112]
  00d75	89 81 10 02 00
	00		 mov	 DWORD PTR [ecx+528], eax
  00d7b	8b 52 74	 mov	 edx, DWORD PTR [edx+116]
  00d7e	89 91 14 02 00
	00		 mov	 DWORD PTR [ecx+532], edx

; 1207 : 					prop->ea = ListExtension->cryptoInfo->ea;

  00d84	8b 85 44 fd ff
	ff		 mov	 eax, DWORD PTR _ListExtension$30334[ebp]
  00d8a	8b 48 60	 mov	 ecx, DWORD PTR [eax+96]
  00d8d	8b 95 48 fd ff
	ff		 mov	 edx, DWORD PTR _prop$30329[ebp]
  00d93	8b 01		 mov	 eax, DWORD PTR [ecx]
  00d95	89 82 18 02 00
	00		 mov	 DWORD PTR [edx+536], eax

; 1208 : 					prop->mode = ListExtension->cryptoInfo->mode;

  00d9b	8b 8d 44 fd ff
	ff		 mov	 ecx, DWORD PTR _ListExtension$30334[ebp]
  00da1	8b 51 60	 mov	 edx, DWORD PTR [ecx+96]
  00da4	8b 85 48 fd ff
	ff		 mov	 eax, DWORD PTR _prop$30329[ebp]
  00daa	8b 4a 04	 mov	 ecx, DWORD PTR [edx+4]
  00dad	89 88 1c 02 00
	00		 mov	 DWORD PTR [eax+540], ecx

; 1209 : 					prop->pkcs5 = ListExtension->cryptoInfo->pkcs5;

  00db3	8b 95 44 fd ff
	ff		 mov	 edx, DWORD PTR _ListExtension$30334[ebp]
  00db9	8b 42 60	 mov	 eax, DWORD PTR [edx+96]
  00dbc	8b 8d 48 fd ff
	ff		 mov	 ecx, DWORD PTR _prop$30329[ebp]
  00dc2	8b 90 ec 43 00
	00		 mov	 edx, DWORD PTR [eax+17388]
  00dc8	89 91 20 02 00
	00		 mov	 DWORD PTR [ecx+544], edx

; 1210 : 					prop->pkcs5Iterations = ListExtension->cryptoInfo->noIterations;

  00dce	8b 85 44 fd ff
	ff		 mov	 eax, DWORD PTR _ListExtension$30334[ebp]
  00dd4	8b 48 60	 mov	 ecx, DWORD PTR [eax+96]
  00dd7	8b 95 48 fd ff
	ff		 mov	 edx, DWORD PTR _prop$30329[ebp]
  00ddd	8b 81 e8 43 00
	00		 mov	 eax, DWORD PTR [ecx+17384]
  00de3	89 82 24 02 00
	00		 mov	 DWORD PTR [edx+548], eax

; 1211 : #if 0
; 1212 : 					prop->volumeCreationTime = ListExtension->cryptoInfo->volume_creation_time;
; 1213 : 					prop->headerCreationTime = ListExtension->cryptoInfo->header_creation_time;
; 1214 : #endif
; 1215 : 					prop->volumeHeaderFlags = ListExtension->cryptoInfo->HeaderFlags;

  00de9	8b 8d 44 fd ff
	ff		 mov	 ecx, DWORD PTR _ListExtension$30334[ebp]
  00def	8b 51 60	 mov	 edx, DWORD PTR [ecx+96]
  00df2	8b 85 48 fd ff
	ff		 mov	 eax, DWORD PTR _prop$30329[ebp]
  00df8	8b 8a 60 44 00
	00		 mov	 ecx, DWORD PTR [edx+17504]
  00dfe	89 88 38 02 00
	00		 mov	 DWORD PTR [eax+568], ecx

; 1216 : 					prop->readOnly = ListExtension->bReadOnly;

  00e04	8b 95 48 fd ff
	ff		 mov	 edx, DWORD PTR _prop$30329[ebp]
  00e0a	8b 85 44 fd ff
	ff		 mov	 eax, DWORD PTR _ListExtension$30334[ebp]
  00e10	8b 88 88 02 00
	00		 mov	 ecx, DWORD PTR [eax+648]
  00e16	89 8a 2c 02 00
	00		 mov	 DWORD PTR [edx+556], ecx

; 1217 : 					prop->removable = ListExtension->bRemovable;

  00e1c	8b 95 48 fd ff
	ff		 mov	 edx, DWORD PTR _prop$30329[ebp]
  00e22	8b 85 44 fd ff
	ff		 mov	 eax, DWORD PTR _ListExtension$30334[ebp]
  00e28	8b 88 8c 02 00
	00		 mov	 ecx, DWORD PTR [eax+652]
  00e2e	89 8a 30 02 00
	00		 mov	 DWORD PTR [edx+560], ecx

; 1218 : 					prop->partitionInInactiveSysEncScope = ListExtension->PartitionInInactiveSysEncScope;

  00e34	8b 95 48 fd ff
	ff		 mov	 edx, DWORD PTR _prop$30329[ebp]
  00e3a	8b 85 44 fd ff
	ff		 mov	 eax, DWORD PTR _ListExtension$30334[ebp]
  00e40	8b 88 90 02 00
	00		 mov	 ecx, DWORD PTR [eax+656]
  00e46	89 8a 34 02 00
	00		 mov	 DWORD PTR [edx+564], ecx

; 1219 : 					prop->hiddenVolume = ListExtension->cryptoInfo->hiddenVolume;

  00e4c	8b 95 44 fd ff
	ff		 mov	 edx, DWORD PTR _ListExtension$30334[ebp]
  00e52	8b 42 60	 mov	 eax, DWORD PTR [edx+96]
  00e55	8b 8d 48 fd ff
	ff		 mov	 ecx, DWORD PTR _prop$30329[ebp]
  00e5b	8b 90 a0 29 00
	00		 mov	 edx, DWORD PTR [eax+10656]
  00e61	89 91 28 02 00
	00		 mov	 DWORD PTR [ecx+552], edx

; 1220 : 
; 1221 : 					if (ListExtension->cryptoInfo->bProtectHiddenVolume)

  00e67	8b 85 44 fd ff
	ff		 mov	 eax, DWORD PTR _ListExtension$30334[ebp]
  00e6d	8b 48 60	 mov	 ecx, DWORD PTR [eax+96]
  00e70	83 b9 00 44 00
	00 00		 cmp	 DWORD PTR [ecx+17408], 0
  00e77	74 26		 je	 SHORT $LN73@ProcessMai

; 1222 : 						prop->hiddenVolProtection = ListExtension->cryptoInfo->bHiddenVolProtectionAction ? HIDVOL_PROT_STATUS_ACTION_TAKEN : HIDVOL_PROT_STATUS_ACTIVE;

  00e79	8b 95 44 fd ff
	ff		 mov	 edx, DWORD PTR _ListExtension$30334[ebp]
  00e7f	8b 42 60	 mov	 eax, DWORD PTR [edx+96]
  00e82	33 c9		 xor	 ecx, ecx
  00e84	83 b8 04 44 00
	00 00		 cmp	 DWORD PTR [eax+17412], 0
  00e8b	0f 95 c1	 setne	 cl
  00e8e	83 c1 01	 add	 ecx, 1
  00e91	8b 95 48 fd ff
	ff		 mov	 edx, DWORD PTR _prop$30329[ebp]
  00e97	89 8a 4c 02 00
	00		 mov	 DWORD PTR [edx+588], ecx

; 1223 : 					else

  00e9d	eb 10		 jmp	 SHORT $LN72@ProcessMai
$LN73@ProcessMai:

; 1224 : 						prop->hiddenVolProtection = HIDVOL_PROT_STATUS_NONE;

  00e9f	8b 85 48 fd ff
	ff		 mov	 eax, DWORD PTR _prop$30329[ebp]
  00ea5	c7 80 4c 02 00
	00 00 00 00 00	 mov	 DWORD PTR [eax+588], 0
$LN72@ProcessMai:

; 1225 : 
; 1226 : 					prop->totalBytesRead = ListExtension->Queue.TotalBytesRead;

  00eaf	8b 8d 48 fd ff
	ff		 mov	 ecx, DWORD PTR _prop$30329[ebp]
  00eb5	8b 95 44 fd ff
	ff		 mov	 edx, DWORD PTR _ListExtension$30334[ebp]
  00ebb	8b 82 50 02 00
	00		 mov	 eax, DWORD PTR [edx+592]
  00ec1	89 81 3c 02 00
	00		 mov	 DWORD PTR [ecx+572], eax
  00ec7	8b 92 54 02 00
	00		 mov	 edx, DWORD PTR [edx+596]
  00ecd	89 91 40 02 00
	00		 mov	 DWORD PTR [ecx+576], edx

; 1227 : 					prop->totalBytesWritten = ListExtension->Queue.TotalBytesWritten;

  00ed3	8b 85 48 fd ff
	ff		 mov	 eax, DWORD PTR _prop$30329[ebp]
  00ed9	8b 8d 44 fd ff
	ff		 mov	 ecx, DWORD PTR _ListExtension$30334[ebp]
  00edf	8b 91 58 02 00
	00		 mov	 edx, DWORD PTR [ecx+600]
  00ee5	89 90 44 02 00
	00		 mov	 DWORD PTR [eax+580], edx
  00eeb	8b 89 5c 02 00
	00		 mov	 ecx, DWORD PTR [ecx+604]
  00ef1	89 88 48 02 00
	00		 mov	 DWORD PTR [eax+584], ecx

; 1228 : 
; 1229 : 					prop->volFormatVersion = ListExtension->cryptoInfo->LegacyVolume ? TC_VOLUME_FORMAT_VERSION_PRE_6_0 : TC_VOLUME_FORMAT_VERSION;

  00ef7	8b 95 44 fd ff
	ff		 mov	 edx, DWORD PTR _ListExtension$30334[ebp]
  00efd	8b 42 60	 mov	 eax, DWORD PTR [edx+96]
  00f00	8b 88 3c 44 00
	00		 mov	 ecx, DWORD PTR [eax+17468]
  00f06	f7 d9		 neg	 ecx
  00f08	1b c9		 sbb	 ecx, ecx
  00f0a	83 c1 02	 add	 ecx, 2
  00f0d	8b 95 48 fd ff
	ff		 mov	 edx, DWORD PTR _prop$30329[ebp]
  00f13	89 8a 50 02 00
	00		 mov	 DWORD PTR [edx+592], ecx

; 1230 : 
; 1231 : 					Irp->IoStatus.Status = STATUS_SUCCESS;

  00f19	8b 45 10	 mov	 eax, DWORD PTR _Irp$[ebp]
  00f1c	c7 40 18 00 00
	00 00		 mov	 DWORD PTR [eax+24], 0

; 1232 : 					Irp->IoStatus.Information = sizeof (VOLUME_PROPERTIES_STRUCT);

  00f23	8b 4d 10	 mov	 ecx, DWORD PTR _Irp$[ebp]
  00f26	c7 41 1c 54 02
	00 00		 mov	 DWORD PTR [ecx+28], 596	; 00000254H
$LN76@ProcessMai:

; 1233 : 				}
; 1234 : 			}
; 1235 : 		}
; 1236 : 		break;

  00f2d	e9 89 09 00 00	 jmp	 $LN160@ProcessMai
$LN71@ProcessMai:

; 1237 : 
; 1238 : 	case TC_IOCTL_GET_RESOLVED_SYMLINK:
; 1239 : 		if (ValidateIOBufferSize (Irp, sizeof (RESOLVE_SYMLINK_STRUCT), ValidateInputOutput))

  00f32	6a 02		 push	 2
  00f34	68 10 04 00 00	 push	 1040			; 00000410H
  00f39	8b 55 10	 mov	 edx, DWORD PTR _Irp$[ebp]
  00f3c	52		 push	 edx
  00f3d	e8 00 00 00 00	 call	 _ValidateIOBufferSize@12
  00f42	85 c0		 test	 eax, eax
  00f44	74 56		 je	 SHORT $LN70@ProcessMai

; 1240 : 		{
; 1241 : 			RESOLVE_SYMLINK_STRUCT *resolve = (RESOLVE_SYMLINK_STRUCT *) Irp->AssociatedIrp.SystemBuffer;

  00f46	8b 45 10	 mov	 eax, DWORD PTR _Irp$[ebp]
  00f49	8b 48 0c	 mov	 ecx, DWORD PTR [eax+12]
  00f4c	89 8d 40 fd ff
	ff		 mov	 DWORD PTR _resolve$30344[ebp], ecx

; 1242 : 			{
; 1243 : 				NTSTATUS ntStatus;
; 1244 : 
; 1245 : 				EnsureNullTerminatedString (resolve->symLinkName, sizeof (resolve->symLinkName));

  00f52	68 08 02 00 00	 push	 520			; 00000208H
  00f57	8b 95 40 fd ff
	ff		 mov	 edx, DWORD PTR _resolve$30344[ebp]
  00f5d	52		 push	 edx
  00f5e	e8 00 00 00 00	 call	 _EnsureNullTerminatedString@8

; 1246 : 
; 1247 : 				ntStatus = SymbolicLinkToTarget (resolve->symLinkName,
; 1248 : 					resolve->targetName,
; 1249 : 					sizeof (resolve->targetName));

  00f63	68 08 02 00 00	 push	 520			; 00000208H
  00f68	8b 85 40 fd ff
	ff		 mov	 eax, DWORD PTR _resolve$30344[ebp]
  00f6e	05 08 02 00 00	 add	 eax, 520		; 00000208H
  00f73	50		 push	 eax
  00f74	8b 8d 40 fd ff
	ff		 mov	 ecx, DWORD PTR _resolve$30344[ebp]
  00f7a	51		 push	 ecx
  00f7b	e8 00 00 00 00	 call	 _SymbolicLinkToTarget@12
  00f80	89 85 3c fd ff
	ff		 mov	 DWORD PTR _ntStatus$30346[ebp], eax

; 1250 : 
; 1251 : 				Irp->IoStatus.Information = sizeof (RESOLVE_SYMLINK_STRUCT);

  00f86	8b 55 10	 mov	 edx, DWORD PTR _Irp$[ebp]
  00f89	c7 42 1c 10 04
	00 00		 mov	 DWORD PTR [edx+28], 1040 ; 00000410H

; 1252 : 				Irp->IoStatus.Status = ntStatus;

  00f90	8b 45 10	 mov	 eax, DWORD PTR _Irp$[ebp]
  00f93	8b 8d 3c fd ff
	ff		 mov	 ecx, DWORD PTR _ntStatus$30346[ebp]
  00f99	89 48 18	 mov	 DWORD PTR [eax+24], ecx
$LN70@ProcessMai:

; 1253 : 			}
; 1254 : 		}
; 1255 : 		break;

  00f9c	e9 1a 09 00 00	 jmp	 $LN160@ProcessMai
$LN69@ProcessMai:

; 1256 : 
; 1257 : 	case TC_IOCTL_GET_DRIVE_PARTITION_INFO:
; 1258 : 		if (ValidateIOBufferSize (Irp, sizeof (DISK_PARTITION_INFO_STRUCT), ValidateInputOutput))

  00fa1	6a 02		 push	 2
  00fa3	68 30 02 00 00	 push	 560			; 00000230H
  00fa8	8b 55 10	 mov	 edx, DWORD PTR _Irp$[ebp]
  00fab	52		 push	 edx
  00fac	e8 00 00 00 00	 call	 _ValidateIOBufferSize@12
  00fb1	85 c0		 test	 eax, eax
  00fb3	0f 84 2b 02 00
	00		 je	 $LN68@ProcessMai

; 1259 : 		{
; 1260 : 			DISK_PARTITION_INFO_STRUCT *info = (DISK_PARTITION_INFO_STRUCT *) Irp->AssociatedIrp.SystemBuffer;

  00fb9	8b 45 10	 mov	 eax, DWORD PTR _Irp$[ebp]
  00fbc	8b 48 0c	 mov	 ecx, DWORD PTR [eax+12]
  00fbf	89 8d 38 fd ff
	ff		 mov	 DWORD PTR _info$30351[ebp], ecx

; 1261 : 			{
; 1262 : 				PARTITION_INFORMATION_EX pi;
; 1263 : 				NTSTATUS ntStatus;
; 1264 : 
; 1265 : 				EnsureNullTerminatedString (info->deviceName, sizeof (info->deviceName));

  00fc5	68 08 02 00 00	 push	 520			; 00000208H
  00fca	8b 95 38 fd ff
	ff		 mov	 edx, DWORD PTR _info$30351[ebp]
  00fd0	52		 push	 edx
  00fd1	e8 00 00 00 00	 call	 _EnsureNullTerminatedString@8

; 1266 : 
; 1267 : 				ntStatus = TCDeviceIoControl (info->deviceName, IOCTL_DISK_GET_PARTITION_INFO_EX, NULL, 0, &pi, sizeof (pi));

  00fd6	68 90 00 00 00	 push	 144			; 00000090H
  00fdb	8d 85 a8 fc ff
	ff		 lea	 eax, DWORD PTR _pi$30353[ebp]
  00fe1	50		 push	 eax
  00fe2	6a 00		 push	 0
  00fe4	6a 00		 push	 0
  00fe6	68 48 00 07 00	 push	 458824			; 00070048H
  00feb	8b 8d 38 fd ff
	ff		 mov	 ecx, DWORD PTR _info$30351[ebp]
  00ff1	51		 push	 ecx
  00ff2	e8 00 00 00 00	 call	 _TCDeviceIoControl@24
  00ff7	89 85 a4 fc ff
	ff		 mov	 DWORD PTR _ntStatus$30354[ebp], eax

; 1268 : 				if (NT_SUCCESS(ntStatus))

  00ffd	83 bd a4 fc ff
	ff 00		 cmp	 DWORD PTR _ntStatus$30354[ebp], 0
  01004	0f 8c b9 00 00
	00		 jl	 $LN67@ProcessMai

; 1269 : 				{
; 1270 : 					memset (&info->partInfo, 0, sizeof (info->partInfo));

  0100a	33 d2		 xor	 edx, edx
  0100c	8b 85 38 fd ff
	ff		 mov	 eax, DWORD PTR _info$30351[ebp]
  01012	05 08 02 00 00	 add	 eax, 520		; 00000208H
  01017	89 10		 mov	 DWORD PTR [eax], edx
  01019	89 50 04	 mov	 DWORD PTR [eax+4], edx
  0101c	89 50 08	 mov	 DWORD PTR [eax+8], edx
  0101f	89 50 0c	 mov	 DWORD PTR [eax+12], edx
  01022	89 50 10	 mov	 DWORD PTR [eax+16], edx
  01025	89 50 14	 mov	 DWORD PTR [eax+20], edx
  01028	89 50 18	 mov	 DWORD PTR [eax+24], edx
  0102b	89 50 1c	 mov	 DWORD PTR [eax+28], edx

; 1271 : 
; 1272 : 					info->partInfo.PartitionLength = pi.PartitionLength;

  0102e	8b 8d 38 fd ff
	ff		 mov	 ecx, DWORD PTR _info$30351[ebp]
  01034	8b 95 b8 fc ff
	ff		 mov	 edx, DWORD PTR _pi$30353[ebp+16]
  0103a	89 91 10 02 00
	00		 mov	 DWORD PTR [ecx+528], edx
  01040	8b 85 bc fc ff
	ff		 mov	 eax, DWORD PTR _pi$30353[ebp+20]
  01046	89 81 14 02 00
	00		 mov	 DWORD PTR [ecx+532], eax

; 1273 : 					info->partInfo.PartitionNumber = pi.PartitionNumber;

  0104c	8b 8d 38 fd ff
	ff		 mov	 ecx, DWORD PTR _info$30351[ebp]
  01052	8b 95 c0 fc ff
	ff		 mov	 edx, DWORD PTR _pi$30353[ebp+24]
  01058	89 91 1c 02 00
	00		 mov	 DWORD PTR [ecx+540], edx

; 1274 : 					info->partInfo.StartingOffset = pi.StartingOffset;

  0105e	8b 85 38 fd ff
	ff		 mov	 eax, DWORD PTR _info$30351[ebp]
  01064	8b 8d b0 fc ff
	ff		 mov	 ecx, DWORD PTR _pi$30353[ebp+8]
  0106a	89 88 08 02 00
	00		 mov	 DWORD PTR [eax+520], ecx
  01070	8b 95 b4 fc ff
	ff		 mov	 edx, DWORD PTR _pi$30353[ebp+12]
  01076	89 90 0c 02 00
	00		 mov	 DWORD PTR [eax+524], edx

; 1275 : 
; 1276 : 					if (pi.PartitionStyle == PARTITION_STYLE_MBR)

  0107c	83 bd a8 fc ff
	ff 00		 cmp	 DWORD PTR _pi$30353[ebp], 0
  01083	75 24		 jne	 SHORT $LN66@ProcessMai

; 1277 : 					{
; 1278 : 						info->partInfo.PartitionType = pi.Mbr.PartitionType;

  01085	8b 85 38 fd ff
	ff		 mov	 eax, DWORD PTR _info$30351[ebp]
  0108b	8a 8d c8 fc ff
	ff		 mov	 cl, BYTE PTR _pi$30353[ebp+32]
  01091	88 88 20 02 00
	00		 mov	 BYTE PTR [eax+544], cl

; 1279 : 						info->partInfo.BootIndicator = pi.Mbr.BootIndicator;

  01097	8b 95 38 fd ff
	ff		 mov	 edx, DWORD PTR _info$30351[ebp]
  0109d	8a 85 c9 fc ff
	ff		 mov	 al, BYTE PTR _pi$30353[ebp+33]
  010a3	88 82 21 02 00
	00		 mov	 BYTE PTR [edx+545], al
$LN66@ProcessMai:

; 1280 : 					}
; 1281 : 
; 1282 : 					info->IsGPT = pi.PartitionStyle == PARTITION_STYLE_GPT;

  010a9	33 c9		 xor	 ecx, ecx
  010ab	83 bd a8 fc ff
	ff 01		 cmp	 DWORD PTR _pi$30353[ebp], 1
  010b2	0f 94 c1	 sete	 cl
  010b5	8b 95 38 fd ff
	ff		 mov	 edx, DWORD PTR _info$30351[ebp]
  010bb	89 8a 28 02 00
	00		 mov	 DWORD PTR [edx+552], ecx

; 1283 : 				}
; 1284 : 				else

  010c1	eb 39		 jmp	 SHORT $LN65@ProcessMai
$LN67@ProcessMai:

; 1285 : 				{
; 1286 : 					// Windows 2000 does not support IOCTL_DISK_GET_PARTITION_INFO_EX
; 1287 : 					ntStatus = TCDeviceIoControl (info->deviceName, IOCTL_DISK_GET_PARTITION_INFO, NULL, 0, &info->partInfo, sizeof (info->partInfo));

  010c3	6a 20		 push	 32			; 00000020H
  010c5	8b 85 38 fd ff
	ff		 mov	 eax, DWORD PTR _info$30351[ebp]
  010cb	05 08 02 00 00	 add	 eax, 520		; 00000208H
  010d0	50		 push	 eax
  010d1	6a 00		 push	 0
  010d3	6a 00		 push	 0
  010d5	68 04 40 07 00	 push	 475140			; 00074004H
  010da	8b 8d 38 fd ff
	ff		 mov	 ecx, DWORD PTR _info$30351[ebp]
  010e0	51		 push	 ecx
  010e1	e8 00 00 00 00	 call	 _TCDeviceIoControl@24
  010e6	89 85 a4 fc ff
	ff		 mov	 DWORD PTR _ntStatus$30354[ebp], eax

; 1288 : 					info->IsGPT = FALSE;

  010ec	8b 95 38 fd ff
	ff		 mov	 edx, DWORD PTR _info$30351[ebp]
  010f2	c7 82 28 02 00
	00 00 00 00 00	 mov	 DWORD PTR [edx+552], 0
$LN65@ProcessMai:

; 1289 : 				}
; 1290 : 
; 1291 : 				if (!NT_SUCCESS (ntStatus))

  010fc	83 bd a4 fc ff
	ff 00		 cmp	 DWORD PTR _ntStatus$30354[ebp], 0
  01103	7d 6f		 jge	 SHORT $LN64@ProcessMai

; 1292 : 				{
; 1293 : 					GET_LENGTH_INFORMATION lengthInfo;
; 1294 : 					ntStatus = TCDeviceIoControl (info->deviceName, IOCTL_DISK_GET_LENGTH_INFO, NULL, 0, &lengthInfo, sizeof (lengthInfo));

  01105	6a 08		 push	 8
  01107	8d 85 98 fc ff
	ff		 lea	 eax, DWORD PTR _lengthInfo$30363[ebp]
  0110d	50		 push	 eax
  0110e	6a 00		 push	 0
  01110	6a 00		 push	 0
  01112	68 5c 40 07 00	 push	 475228			; 0007405cH
  01117	8b 8d 38 fd ff
	ff		 mov	 ecx, DWORD PTR _info$30351[ebp]
  0111d	51		 push	 ecx
  0111e	e8 00 00 00 00	 call	 _TCDeviceIoControl@24
  01123	89 85 a4 fc ff
	ff		 mov	 DWORD PTR _ntStatus$30354[ebp], eax

; 1295 : 
; 1296 : 					if (NT_SUCCESS (ntStatus))

  01129	83 bd a4 fc ff
	ff 00		 cmp	 DWORD PTR _ntStatus$30354[ebp], 0
  01130	7c 42		 jl	 SHORT $LN64@ProcessMai

; 1297 : 					{
; 1298 : 						memset (&info->partInfo, 0, sizeof (info->partInfo));

  01132	33 d2		 xor	 edx, edx
  01134	8b 85 38 fd ff
	ff		 mov	 eax, DWORD PTR _info$30351[ebp]
  0113a	05 08 02 00 00	 add	 eax, 520		; 00000208H
  0113f	89 10		 mov	 DWORD PTR [eax], edx
  01141	89 50 04	 mov	 DWORD PTR [eax+4], edx
  01144	89 50 08	 mov	 DWORD PTR [eax+8], edx
  01147	89 50 0c	 mov	 DWORD PTR [eax+12], edx
  0114a	89 50 10	 mov	 DWORD PTR [eax+16], edx
  0114d	89 50 14	 mov	 DWORD PTR [eax+20], edx
  01150	89 50 18	 mov	 DWORD PTR [eax+24], edx
  01153	89 50 1c	 mov	 DWORD PTR [eax+28], edx

; 1299 : 						info->partInfo.PartitionLength = lengthInfo.Length;

  01156	8b 8d 38 fd ff
	ff		 mov	 ecx, DWORD PTR _info$30351[ebp]
  0115c	8b 95 98 fc ff
	ff		 mov	 edx, DWORD PTR _lengthInfo$30363[ebp]
  01162	89 91 10 02 00
	00		 mov	 DWORD PTR [ecx+528], edx
  01168	8b 85 9c fc ff
	ff		 mov	 eax, DWORD PTR _lengthInfo$30363[ebp+4]
  0116e	89 81 14 02 00
	00		 mov	 DWORD PTR [ecx+532], eax
$LN64@ProcessMai:

; 1300 : 					}
; 1301 : 				}
; 1302 : 
; 1303 : 				info->IsDynamic = FALSE;

  01174	8b 8d 38 fd ff
	ff		 mov	 ecx, DWORD PTR _info$30351[ebp]
  0117a	c7 81 2c 02 00
	00 00 00 00 00	 mov	 DWORD PTR [ecx+556], 0

; 1304 : 
; 1305 : 				if (NT_SUCCESS (ntStatus) && OsMajorVersion >= 6)

  01184	83 bd a4 fc ff
	ff 00		 cmp	 DWORD PTR _ntStatus$30354[ebp], 0
  0118b	7c 41		 jl	 SHORT $LN62@ProcessMai
  0118d	83 3d 00 00 00
	00 06		 cmp	 DWORD PTR _OsMajorVersion, 6
  01194	72 38		 jb	 SHORT $LN62@ProcessMai

; 1306 : 				{
; 1307 : #					define IOCTL_VOLUME_IS_DYNAMIC CTL_CODE(IOCTL_VOLUME_BASE, 18, METHOD_BUFFERED, FILE_ANY_ACCESS)
; 1308 : 					if (!NT_SUCCESS (TCDeviceIoControl (info->deviceName, IOCTL_VOLUME_IS_DYNAMIC, NULL, 0, &info->IsDynamic, sizeof (info->IsDynamic))))

  01196	6a 04		 push	 4
  01198	8b 95 38 fd ff
	ff		 mov	 edx, DWORD PTR _info$30351[ebp]
  0119e	81 c2 2c 02 00
	00		 add	 edx, 556		; 0000022cH
  011a4	52		 push	 edx
  011a5	6a 00		 push	 0
  011a7	6a 00		 push	 0
  011a9	68 48 00 56 00	 push	 5636168			; 00560048H
  011ae	8b 85 38 fd ff
	ff		 mov	 eax, DWORD PTR _info$30351[ebp]
  011b4	50		 push	 eax
  011b5	e8 00 00 00 00	 call	 _TCDeviceIoControl@24
  011ba	85 c0		 test	 eax, eax
  011bc	7d 10		 jge	 SHORT $LN62@ProcessMai

; 1309 : 						info->IsDynamic = FALSE;

  011be	8b 8d 38 fd ff
	ff		 mov	 ecx, DWORD PTR _info$30351[ebp]
  011c4	c7 81 2c 02 00
	00 00 00 00 00	 mov	 DWORD PTR [ecx+556], 0
$LN62@ProcessMai:

; 1310 : 				}
; 1311 : 
; 1312 : 				Irp->IoStatus.Information = sizeof (DISK_PARTITION_INFO_STRUCT);

  011ce	8b 55 10	 mov	 edx, DWORD PTR _Irp$[ebp]
  011d1	c7 42 1c 30 02
	00 00		 mov	 DWORD PTR [edx+28], 560	; 00000230H

; 1313 : 				Irp->IoStatus.Status = ntStatus;

  011d8	8b 45 10	 mov	 eax, DWORD PTR _Irp$[ebp]
  011db	8b 8d a4 fc ff
	ff		 mov	 ecx, DWORD PTR _ntStatus$30354[ebp]
  011e1	89 48 18	 mov	 DWORD PTR [eax+24], ecx
$LN68@ProcessMai:

; 1314 : 			}
; 1315 : 		}
; 1316 : 		break;

  011e4	e9 d2 06 00 00	 jmp	 $LN160@ProcessMai
$LN60@ProcessMai:

; 1317 : 
; 1318 : 	case TC_IOCTL_GET_DRIVE_GEOMETRY:
; 1319 : 		if (ValidateIOBufferSize (Irp, sizeof (DISK_GEOMETRY_STRUCT), ValidateInputOutput))

  011e9	6a 02		 push	 2
  011eb	68 20 02 00 00	 push	 544			; 00000220H
  011f0	8b 55 10	 mov	 edx, DWORD PTR _Irp$[ebp]
  011f3	52		 push	 edx
  011f4	e8 00 00 00 00	 call	 _ValidateIOBufferSize@12
  011f9	85 c0		 test	 eax, eax
  011fb	74 5c		 je	 SHORT $LN59@ProcessMai

; 1320 : 		{
; 1321 : 			DISK_GEOMETRY_STRUCT *g = (DISK_GEOMETRY_STRUCT *) Irp->AssociatedIrp.SystemBuffer;

  011fd	8b 45 10	 mov	 eax, DWORD PTR _Irp$[ebp]
  01200	8b 48 0c	 mov	 ecx, DWORD PTR [eax+12]
  01203	89 8d 94 fc ff
	ff		 mov	 DWORD PTR _g$30376[ebp], ecx

; 1322 : 			{
; 1323 : 				NTSTATUS ntStatus;
; 1324 : 
; 1325 : 				EnsureNullTerminatedString (g->deviceName, sizeof (g->deviceName));

  01209	68 08 02 00 00	 push	 520			; 00000208H
  0120e	8b 95 94 fc ff
	ff		 mov	 edx, DWORD PTR _g$30376[ebp]
  01214	52		 push	 edx
  01215	e8 00 00 00 00	 call	 _EnsureNullTerminatedString@8

; 1326 : 
; 1327 : 				ntStatus = TCDeviceIoControl (g->deviceName,
; 1328 : 					IOCTL_DISK_GET_DRIVE_GEOMETRY,
; 1329 : 					NULL, 0, &g->diskGeometry, sizeof (g->diskGeometry));

  0121a	6a 18		 push	 24			; 00000018H
  0121c	8b 85 94 fc ff
	ff		 mov	 eax, DWORD PTR _g$30376[ebp]
  01222	05 08 02 00 00	 add	 eax, 520		; 00000208H
  01227	50		 push	 eax
  01228	6a 00		 push	 0
  0122a	6a 00		 push	 0
  0122c	68 00 00 07 00	 push	 458752			; 00070000H
  01231	8b 8d 94 fc ff
	ff		 mov	 ecx, DWORD PTR _g$30376[ebp]
  01237	51		 push	 ecx
  01238	e8 00 00 00 00	 call	 _TCDeviceIoControl@24
  0123d	89 85 90 fc ff
	ff		 mov	 DWORD PTR _ntStatus$30378[ebp], eax

; 1330 : 
; 1331 : 				Irp->IoStatus.Information = sizeof (DISK_GEOMETRY_STRUCT);

  01243	8b 55 10	 mov	 edx, DWORD PTR _Irp$[ebp]
  01246	c7 42 1c 20 02
	00 00		 mov	 DWORD PTR [edx+28], 544	; 00000220H

; 1332 : 				Irp->IoStatus.Status = ntStatus;

  0124d	8b 45 10	 mov	 eax, DWORD PTR _Irp$[ebp]
  01250	8b 8d 90 fc ff
	ff		 mov	 ecx, DWORD PTR _ntStatus$30378[ebp]
  01256	89 48 18	 mov	 DWORD PTR [eax+24], ecx
$LN59@ProcessMai:

; 1333 : 			}
; 1334 : 		}
; 1335 : 		break;

  01259	e9 5d 06 00 00	 jmp	 $LN160@ProcessMai
$LN58@ProcessMai:

; 1336 : 
; 1337 : 	case TC_IOCTL_PROBE_REAL_DRIVE_SIZE:
; 1338 : 		if (ValidateIOBufferSize (Irp, sizeof (ProbeRealDriveSizeRequest), ValidateInputOutput))

  0125e	6a 02		 push	 2
  01260	68 14 02 00 00	 push	 532			; 00000214H
  01265	8b 55 10	 mov	 edx, DWORD PTR _Irp$[ebp]
  01268	52		 push	 edx
  01269	e8 00 00 00 00	 call	 _ValidateIOBufferSize@12
  0126e	85 c0		 test	 eax, eax
  01270	0f 84 1f 01 00
	00		 je	 $LN57@ProcessMai

; 1339 : 		{
; 1340 : 			ProbeRealDriveSizeRequest *request = (ProbeRealDriveSizeRequest *) Irp->AssociatedIrp.SystemBuffer;

  01276	8b 45 10	 mov	 eax, DWORD PTR _Irp$[ebp]
  01279	8b 48 0c	 mov	 ecx, DWORD PTR [eax+12]
  0127c	89 8d 7c fc ff
	ff		 mov	 DWORD PTR _request$30384[ebp], ecx

; 1341 : 			NTSTATUS status;
; 1342 : 			UNICODE_STRING name;
; 1343 : 			PFILE_OBJECT fileObject;
; 1344 : 			PDEVICE_OBJECT deviceObject;
; 1345 : 
; 1346 : 			EnsureNullTerminatedString (request->DeviceName, sizeof (request->DeviceName));

  01282	68 08 02 00 00	 push	 520			; 00000208H
  01287	8b 95 7c fc ff
	ff		 mov	 edx, DWORD PTR _request$30384[ebp]
  0128d	52		 push	 edx
  0128e	e8 00 00 00 00	 call	 _EnsureNullTerminatedString@8

; 1347 : 
; 1348 : 			RtlInitUnicodeString (&name, request->DeviceName);

  01293	8b 85 7c fc ff
	ff		 mov	 eax, DWORD PTR _request$30384[ebp]
  01299	50		 push	 eax
  0129a	8d 8d 80 fc ff
	ff		 lea	 ecx, DWORD PTR _name$30387[ebp]
  012a0	51		 push	 ecx
  012a1	ff 15 00 00 00
	00		 call	 DWORD PTR __imp__RtlInitUnicodeString@8

; 1349 : 			status = IoGetDeviceObjectPointer (&name, FILE_READ_ATTRIBUTES, &fileObject, &deviceObject);

  012a7	8d 95 8c fc ff
	ff		 lea	 edx, DWORD PTR _deviceObject$30389[ebp]
  012ad	52		 push	 edx
  012ae	8d 85 88 fc ff
	ff		 lea	 eax, DWORD PTR _fileObject$30388[ebp]
  012b4	50		 push	 eax
  012b5	68 80 00 00 00	 push	 128			; 00000080H
  012ba	8d 8d 80 fc ff
	ff		 lea	 ecx, DWORD PTR _name$30387[ebp]
  012c0	51		 push	 ecx
  012c1	ff 15 00 00 00
	00		 call	 DWORD PTR __imp__IoGetDeviceObjectPointer@16
  012c7	89 85 78 fc ff
	ff		 mov	 DWORD PTR _status$30386[ebp], eax

; 1350 : 			if (!NT_SUCCESS (status))

  012cd	83 bd 78 fc ff
	ff 00		 cmp	 DWORD PTR _status$30386[ebp], 0
  012d4	7d 1b		 jge	 SHORT $LN56@ProcessMai

; 1351 : 			{
; 1352 : 				Irp->IoStatus.Information = 0;

  012d6	8b 55 10	 mov	 edx, DWORD PTR _Irp$[ebp]
  012d9	c7 42 1c 00 00
	00 00		 mov	 DWORD PTR [edx+28], 0

; 1353 : 				Irp->IoStatus.Status = status;

  012e0	8b 45 10	 mov	 eax, DWORD PTR _Irp$[ebp]
  012e3	8b 8d 78 fc ff
	ff		 mov	 ecx, DWORD PTR _status$30386[ebp]
  012e9	89 48 18	 mov	 DWORD PTR [eax+24], ecx

; 1354 : 				break;

  012ec	e9 ca 05 00 00	 jmp	 $LN160@ProcessMai
$LN56@ProcessMai:

; 1355 : 			}
; 1356 : 
; 1357 : 			status = ProbeRealDriveSize (deviceObject, &request->RealDriveSize);

  012f1	8b 95 7c fc ff
	ff		 mov	 edx, DWORD PTR _request$30384[ebp]
  012f7	81 c2 08 02 00
	00		 add	 edx, 520		; 00000208H
  012fd	52		 push	 edx
  012fe	8b 85 8c fc ff
	ff		 mov	 eax, DWORD PTR _deviceObject$30389[ebp]
  01304	50		 push	 eax
  01305	e8 00 00 00 00	 call	 _ProbeRealDriveSize@8
  0130a	89 85 78 fc ff
	ff		 mov	 DWORD PTR _status$30386[ebp], eax

; 1358 : 			ObDereferenceObject (fileObject);

  01310	8b 8d 88 fc ff
	ff		 mov	 ecx, DWORD PTR _fileObject$30388[ebp]
  01316	ff 15 00 00 00
	00		 call	 DWORD PTR __imp_@ObfDereferenceObject@4

; 1359 : 
; 1360 : 			if (status == STATUS_TIMEOUT)

  0131c	81 bd 78 fc ff
	ff 02 01 00 00	 cmp	 DWORD PTR _status$30386[ebp], 258 ; 00000102H
  01326	75 26		 jne	 SHORT $LN55@ProcessMai

; 1361 : 			{
; 1362 : 				request->TimeOut = TRUE;

  01328	8b 8d 7c fc ff
	ff		 mov	 ecx, DWORD PTR _request$30384[ebp]
  0132e	c7 81 10 02 00
	00 01 00 00 00	 mov	 DWORD PTR [ecx+528], 1

; 1363 : 				Irp->IoStatus.Information = sizeof (ProbeRealDriveSizeRequest);

  01338	8b 55 10	 mov	 edx, DWORD PTR _Irp$[ebp]
  0133b	c7 42 1c 14 02
	00 00		 mov	 DWORD PTR [edx+28], 532	; 00000214H

; 1364 : 				Irp->IoStatus.Status = STATUS_SUCCESS;

  01342	8b 45 10	 mov	 eax, DWORD PTR _Irp$[ebp]
  01345	c7 40 18 00 00
	00 00		 mov	 DWORD PTR [eax+24], 0
  0134c	eb 47		 jmp	 SHORT $LN57@ProcessMai
$LN55@ProcessMai:

; 1365 : 			}
; 1366 : 			else if (!NT_SUCCESS (status))

  0134e	83 bd 78 fc ff
	ff 00		 cmp	 DWORD PTR _status$30386[ebp], 0
  01355	7d 18		 jge	 SHORT $LN53@ProcessMai

; 1367 : 			{
; 1368 : 				Irp->IoStatus.Information = 0;

  01357	8b 4d 10	 mov	 ecx, DWORD PTR _Irp$[ebp]
  0135a	c7 41 1c 00 00
	00 00		 mov	 DWORD PTR [ecx+28], 0

; 1369 : 				Irp->IoStatus.Status = status;

  01361	8b 55 10	 mov	 edx, DWORD PTR _Irp$[ebp]
  01364	8b 85 78 fc ff
	ff		 mov	 eax, DWORD PTR _status$30386[ebp]
  0136a	89 42 18	 mov	 DWORD PTR [edx+24], eax

; 1370 : 			}
; 1371 : 			else

  0136d	eb 26		 jmp	 SHORT $LN57@ProcessMai
$LN53@ProcessMai:

; 1372 : 			{
; 1373 : 				request->TimeOut = FALSE;

  0136f	8b 8d 7c fc ff
	ff		 mov	 ecx, DWORD PTR _request$30384[ebp]
  01375	c7 81 10 02 00
	00 00 00 00 00	 mov	 DWORD PTR [ecx+528], 0

; 1374 : 				Irp->IoStatus.Information = sizeof (ProbeRealDriveSizeRequest);

  0137f	8b 55 10	 mov	 edx, DWORD PTR _Irp$[ebp]
  01382	c7 42 1c 14 02
	00 00		 mov	 DWORD PTR [edx+28], 532	; 00000214H

; 1375 : 				Irp->IoStatus.Status = status;

  01389	8b 45 10	 mov	 eax, DWORD PTR _Irp$[ebp]
  0138c	8b 8d 78 fc ff
	ff		 mov	 ecx, DWORD PTR _status$30386[ebp]
  01392	89 48 18	 mov	 DWORD PTR [eax+24], ecx
$LN57@ProcessMai:

; 1376 : 			}
; 1377 : 		}
; 1378 : 		break;

  01395	e9 21 05 00 00	 jmp	 $LN160@ProcessMai
$LN51@ProcessMai:

; 1379 : 
; 1380 : 	case TC_IOCTL_MOUNT_VOLUME:
; 1381 : 		if (ValidateIOBufferSize (Irp, sizeof (MOUNT_STRUCT), ValidateInputOutput))

  0139a	6a 02		 push	 2
  0139c	68 e0 02 00 00	 push	 736			; 000002e0H
  013a1	8b 55 10	 mov	 edx, DWORD PTR _Irp$[ebp]
  013a4	52		 push	 edx
  013a5	e8 00 00 00 00	 call	 _ValidateIOBufferSize@12
  013aa	85 c0		 test	 eax, eax
  013ac	0f 84 43 01 00
	00		 je	 $LN50@ProcessMai

; 1382 : 		{
; 1383 : 			MOUNT_STRUCT *mount = (MOUNT_STRUCT *) Irp->AssociatedIrp.SystemBuffer;

  013b2	8b 45 10	 mov	 eax, DWORD PTR _Irp$[ebp]
  013b5	8b 48 0c	 mov	 ecx, DWORD PTR [eax+12]
  013b8	89 8d 74 fc ff
	ff		 mov	 DWORD PTR _mount$30404[ebp], ecx

; 1384 : 
; 1385 : 			if (mount->VolumePassword.Length > MAX_PASSWORD || mount->ProtectedHidVolPassword.Length > MAX_PASSWORD)

  013be	8b 95 74 fc ff
	ff		 mov	 edx, DWORD PTR _mount$30404[ebp]
  013c4	83 ba 18 02 00
	00 40		 cmp	 DWORD PTR [edx+536], 64	; 00000040H
  013cb	77 0f		 ja	 SHORT $LN48@ProcessMai
  013cd	8b 85 74 fc ff
	ff		 mov	 eax, DWORD PTR _mount$30404[ebp]
  013d3	83 b8 90 02 00
	00 40		 cmp	 DWORD PTR [eax+656], 64	; 00000040H
  013da	76 19		 jbe	 SHORT $LN49@ProcessMai
$LN48@ProcessMai:

; 1386 : 			{
; 1387 : 				Irp->IoStatus.Status = STATUS_INVALID_PARAMETER;

  013dc	8b 4d 10	 mov	 ecx, DWORD PTR _Irp$[ebp]
  013df	c7 41 18 0d 00
	00 c0		 mov	 DWORD PTR [ecx+24], -1073741811 ; c000000dH

; 1388 : 				Irp->IoStatus.Information = 0;

  013e6	8b 55 10	 mov	 edx, DWORD PTR _Irp$[ebp]
  013e9	c7 42 1c 00 00
	00 00		 mov	 DWORD PTR [edx+28], 0

; 1389 : 				break;

  013f0	e9 c6 04 00 00	 jmp	 $LN160@ProcessMai
$LN49@ProcessMai:

; 1390 : 			}
; 1391 : 
; 1392 : 			EnsureNullTerminatedString (mount->wszVolume, sizeof (mount->wszVolume));

  013f5	68 08 02 00 00	 push	 520			; 00000208H
  013fa	8b 85 74 fc ff
	ff		 mov	 eax, DWORD PTR _mount$30404[ebp]
  01400	83 c0 10	 add	 eax, 16			; 00000010H
  01403	50		 push	 eax
  01404	e8 00 00 00 00	 call	 _EnsureNullTerminatedString@8

; 1393 : 
; 1394 : 			Irp->IoStatus.Information = sizeof (MOUNT_STRUCT);

  01409	8b 4d 10	 mov	 ecx, DWORD PTR _Irp$[ebp]
  0140c	c7 41 1c e0 02
	00 00		 mov	 DWORD PTR [ecx+28], 736	; 000002e0H

