; Listing generated by Microsoft (R) Optimizing Compiler Version 15.00.30729.207 

	TITLE	c:\users\public\desktop\projects\ciphershed\src\crypto\sha1.c
	.686P
	.XMM
	include listing.inc
	.model	flat

INCLUDELIB LIBCMT
INCLUDELIB OLDNAMES

PUBLIC	_sha1_compile@4
; Function compile flags: /Odtp
; File c:\users\public\desktop\projects\ciphershed\src\crypto\sha1.c
;	COMDAT _sha1_compile@4
_TEXT	SEGMENT
_v0$ = -24						; size = 4
_v2$ = -20						; size = 4
_v4$ = -16						; size = 4
_v1$ = -12						; size = 4
_v3$ = -8						; size = 4
_w$ = -4						; size = 4
_ctx$ = 8						; size = 4
_sha1_compile@4 PROC					; COMDAT

; 141  : {   sha1_32t    *w = ctx->wbuf;

  00000	8b ff		 npad	 2
  00002	55		 push	 ebp
  00003	8b ec		 mov	 ebp, esp
  00005	83 ec 18	 sub	 esp, 24			; 00000018H
  00008	8b 45 08	 mov	 eax, DWORD PTR _ctx$[ebp]
  0000b	83 c0 1c	 add	 eax, 28			; 0000001cH
  0000e	89 45 fc	 mov	 DWORD PTR _w$[ebp], eax

; 142  : 
; 143  : #ifdef ARRAY
; 144  :     sha1_32t    v[5];
; 145  :     memcpy(v, ctx->hash, 5 * sizeof(sha1_32t));
; 146  : #else
; 147  :     sha1_32t    v0, v1, v2, v3, v4;
; 148  :     v0 = ctx->hash[0]; v1 = ctx->hash[1];

  00011	8b 4d 08	 mov	 ecx, DWORD PTR _ctx$[ebp]
  00014	8b 51 08	 mov	 edx, DWORD PTR [ecx+8]
  00017	89 55 e8	 mov	 DWORD PTR _v0$[ebp], edx
  0001a	8b 45 08	 mov	 eax, DWORD PTR _ctx$[ebp]
  0001d	8b 48 0c	 mov	 ecx, DWORD PTR [eax+12]
  00020	89 4d f4	 mov	 DWORD PTR _v1$[ebp], ecx

; 149  :     v2 = ctx->hash[2]; v3 = ctx->hash[3];

  00023	8b 55 08	 mov	 edx, DWORD PTR _ctx$[ebp]
  00026	8b 42 10	 mov	 eax, DWORD PTR [edx+16]
  00029	89 45 ec	 mov	 DWORD PTR _v2$[ebp], eax
  0002c	8b 4d 08	 mov	 ecx, DWORD PTR _ctx$[ebp]
  0002f	8b 51 14	 mov	 edx, DWORD PTR [ecx+20]
  00032	89 55 f8	 mov	 DWORD PTR _v3$[ebp], edx

; 150  :     v4 = ctx->hash[4];

  00035	8b 45 08	 mov	 eax, DWORD PTR _ctx$[ebp]
  00038	8b 48 18	 mov	 ecx, DWORD PTR [eax+24]
  0003b	89 4d f0	 mov	 DWORD PTR _v4$[ebp], ecx

; 151  : #endif
; 152  : 
; 153  : #define hf(i)   w[i]
; 154  : 
; 155  :     five_cycle(v, ch, 0x5a827999,  0);

  0003e	8b 55 e8	 mov	 edx, DWORD PTR _v0$[ebp]
  00041	c1 ea 1b	 shr	 edx, 27			; 0000001bH
  00044	8b 45 e8	 mov	 eax, DWORD PTR _v0$[ebp]
  00047	c1 e0 05	 shl	 eax, 5
  0004a	0b d0		 or	 edx, eax
  0004c	8b 4d ec	 mov	 ecx, DWORD PTR _v2$[ebp]
  0004f	33 4d f8	 xor	 ecx, DWORD PTR _v3$[ebp]
  00052	23 4d f4	 and	 ecx, DWORD PTR _v1$[ebp]
  00055	33 4d f8	 xor	 ecx, DWORD PTR _v3$[ebp]
  00058	03 d1		 add	 edx, ecx
  0005a	8b 45 fc	 mov	 eax, DWORD PTR _w$[ebp]
  0005d	8b 08		 mov	 ecx, DWORD PTR [eax]
  0005f	8d 94 0a 99 79
	82 5a		 lea	 edx, DWORD PTR [edx+ecx+1518500249]
  00066	03 55 f0	 add	 edx, DWORD PTR _v4$[ebp]
  00069	89 55 f0	 mov	 DWORD PTR _v4$[ebp], edx
  0006c	8b 45 f4	 mov	 eax, DWORD PTR _v1$[ebp]
  0006f	c1 e8 02	 shr	 eax, 2
  00072	8b 4d f4	 mov	 ecx, DWORD PTR _v1$[ebp]
  00075	c1 e1 1e	 shl	 ecx, 30			; 0000001eH
  00078	0b c1		 or	 eax, ecx
  0007a	89 45 f4	 mov	 DWORD PTR _v1$[ebp], eax
  0007d	8b 55 f0	 mov	 edx, DWORD PTR _v4$[ebp]
  00080	c1 ea 1b	 shr	 edx, 27			; 0000001bH
  00083	8b 45 f0	 mov	 eax, DWORD PTR _v4$[ebp]
  00086	c1 e0 05	 shl	 eax, 5
  00089	0b d0		 or	 edx, eax
  0008b	8b 4d f4	 mov	 ecx, DWORD PTR _v1$[ebp]
  0008e	33 4d ec	 xor	 ecx, DWORD PTR _v2$[ebp]
  00091	23 4d e8	 and	 ecx, DWORD PTR _v0$[ebp]
  00094	33 4d ec	 xor	 ecx, DWORD PTR _v2$[ebp]
  00097	03 d1		 add	 edx, ecx
  00099	8b 45 fc	 mov	 eax, DWORD PTR _w$[ebp]
  0009c	8b 48 04	 mov	 ecx, DWORD PTR [eax+4]
  0009f	8d 94 0a 99 79
	82 5a		 lea	 edx, DWORD PTR [edx+ecx+1518500249]
  000a6	03 55 f8	 add	 edx, DWORD PTR _v3$[ebp]
  000a9	89 55 f8	 mov	 DWORD PTR _v3$[ebp], edx
  000ac	8b 45 e8	 mov	 eax, DWORD PTR _v0$[ebp]
  000af	c1 e8 02	 shr	 eax, 2
  000b2	8b 4d e8	 mov	 ecx, DWORD PTR _v0$[ebp]
  000b5	c1 e1 1e	 shl	 ecx, 30			; 0000001eH
  000b8	0b c1		 or	 eax, ecx
  000ba	89 45 e8	 mov	 DWORD PTR _v0$[ebp], eax
  000bd	8b 55 f8	 mov	 edx, DWORD PTR _v3$[ebp]
  000c0	c1 ea 1b	 shr	 edx, 27			; 0000001bH
  000c3	8b 45 f8	 mov	 eax, DWORD PTR _v3$[ebp]
  000c6	c1 e0 05	 shl	 eax, 5
  000c9	0b d0		 or	 edx, eax
  000cb	8b 4d e8	 mov	 ecx, DWORD PTR _v0$[ebp]
  000ce	33 4d f4	 xor	 ecx, DWORD PTR _v1$[ebp]
  000d1	23 4d f0	 and	 ecx, DWORD PTR _v4$[ebp]
  000d4	33 4d f4	 xor	 ecx, DWORD PTR _v1$[ebp]
  000d7	03 d1		 add	 edx, ecx
  000d9	8b 45 fc	 mov	 eax, DWORD PTR _w$[ebp]
  000dc	8b 48 08	 mov	 ecx, DWORD PTR [eax+8]
  000df	8d 94 0a 99 79
	82 5a		 lea	 edx, DWORD PTR [edx+ecx+1518500249]
  000e6	03 55 ec	 add	 edx, DWORD PTR _v2$[ebp]
  000e9	89 55 ec	 mov	 DWORD PTR _v2$[ebp], edx
  000ec	8b 45 f0	 mov	 eax, DWORD PTR _v4$[ebp]
  000ef	c1 e8 02	 shr	 eax, 2
  000f2	8b 4d f0	 mov	 ecx, DWORD PTR _v4$[ebp]
  000f5	c1 e1 1e	 shl	 ecx, 30			; 0000001eH
  000f8	0b c1		 or	 eax, ecx
  000fa	89 45 f0	 mov	 DWORD PTR _v4$[ebp], eax
  000fd	8b 55 ec	 mov	 edx, DWORD PTR _v2$[ebp]
  00100	c1 ea 1b	 shr	 edx, 27			; 0000001bH
  00103	8b 45 ec	 mov	 eax, DWORD PTR _v2$[ebp]
  00106	c1 e0 05	 shl	 eax, 5
  00109	0b d0		 or	 edx, eax
  0010b	8b 4d f0	 mov	 ecx, DWORD PTR _v4$[ebp]
  0010e	33 4d e8	 xor	 ecx, DWORD PTR _v0$[ebp]
  00111	23 4d f8	 and	 ecx, DWORD PTR _v3$[ebp]
  00114	33 4d e8	 xor	 ecx, DWORD PTR _v0$[ebp]
  00117	03 d1		 add	 edx, ecx
  00119	8b 45 fc	 mov	 eax, DWORD PTR _w$[ebp]
  0011c	8b 48 0c	 mov	 ecx, DWORD PTR [eax+12]
  0011f	8d 94 0a 99 79
	82 5a		 lea	 edx, DWORD PTR [edx+ecx+1518500249]
  00126	03 55 f4	 add	 edx, DWORD PTR _v1$[ebp]
  00129	89 55 f4	 mov	 DWORD PTR _v1$[ebp], edx
  0012c	8b 45 f8	 mov	 eax, DWORD PTR _v3$[ebp]
  0012f	c1 e8 02	 shr	 eax, 2
  00132	8b 4d f8	 mov	 ecx, DWORD PTR _v3$[ebp]
  00135	c1 e1 1e	 shl	 ecx, 30			; 0000001eH
  00138	0b c1		 or	 eax, ecx
  0013a	89 45 f8	 mov	 DWORD PTR _v3$[ebp], eax
  0013d	8b 55 f4	 mov	 edx, DWORD PTR _v1$[ebp]
  00140	c1 ea 1b	 shr	 edx, 27			; 0000001bH
  00143	8b 45 f4	 mov	 eax, DWORD PTR _v1$[ebp]
  00146	c1 e0 05	 shl	 eax, 5
  00149	0b d0		 or	 edx, eax
  0014b	8b 4d f8	 mov	 ecx, DWORD PTR _v3$[ebp]
  0014e	33 4d f0	 xor	 ecx, DWORD PTR _v4$[ebp]
  00151	23 4d ec	 and	 ecx, DWORD PTR _v2$[ebp]
  00154	33 4d f0	 xor	 ecx, DWORD PTR _v4$[ebp]
  00157	03 d1		 add	 edx, ecx
  00159	8b 45 fc	 mov	 eax, DWORD PTR _w$[ebp]
  0015c	8b 48 10	 mov	 ecx, DWORD PTR [eax+16]
  0015f	8d 94 0a 99 79
	82 5a		 lea	 edx, DWORD PTR [edx+ecx+1518500249]
  00166	03 55 e8	 add	 edx, DWORD PTR _v0$[ebp]
  00169	89 55 e8	 mov	 DWORD PTR _v0$[ebp], edx
  0016c	8b 45 ec	 mov	 eax, DWORD PTR _v2$[ebp]
  0016f	c1 e8 02	 shr	 eax, 2
  00172	8b 4d ec	 mov	 ecx, DWORD PTR _v2$[ebp]
  00175	c1 e1 1e	 shl	 ecx, 30			; 0000001eH
  00178	0b c1		 or	 eax, ecx
  0017a	89 45 ec	 mov	 DWORD PTR _v2$[ebp], eax

; 156  :     five_cycle(v, ch, 0x5a827999,  5);

  0017d	8b 55 e8	 mov	 edx, DWORD PTR _v0$[ebp]
  00180	c1 ea 1b	 shr	 edx, 27			; 0000001bH
  00183	8b 45 e8	 mov	 eax, DWORD PTR _v0$[ebp]
  00186	c1 e0 05	 shl	 eax, 5
  00189	0b d0		 or	 edx, eax
  0018b	8b 4d ec	 mov	 ecx, DWORD PTR _v2$[ebp]
  0018e	33 4d f8	 xor	 ecx, DWORD PTR _v3$[ebp]
  00191	23 4d f4	 and	 ecx, DWORD PTR _v1$[ebp]
  00194	33 4d f8	 xor	 ecx, DWORD PTR _v3$[ebp]
  00197	03 d1		 add	 edx, ecx
  00199	8b 45 fc	 mov	 eax, DWORD PTR _w$[ebp]
  0019c	8b 48 14	 mov	 ecx, DWORD PTR [eax+20]
  0019f	8d 94 0a 99 79
	82 5a		 lea	 edx, DWORD PTR [edx+ecx+1518500249]
  001a6	03 55 f0	 add	 edx, DWORD PTR _v4$[ebp]
  001a9	89 55 f0	 mov	 DWORD PTR _v4$[ebp], edx
  001ac	8b 45 f4	 mov	 eax, DWORD PTR _v1$[ebp]
  001af	c1 e8 02	 shr	 eax, 2
  001b2	8b 4d f4	 mov	 ecx, DWORD PTR _v1$[ebp]
  001b5	c1 e1 1e	 shl	 ecx, 30			; 0000001eH
  001b8	0b c1		 or	 eax, ecx
  001ba	89 45 f4	 mov	 DWORD PTR _v1$[ebp], eax
  001bd	8b 55 f0	 mov	 edx, DWORD PTR _v4$[ebp]
  001c0	c1 ea 1b	 shr	 edx, 27			; 0000001bH
  001c3	8b 45 f0	 mov	 eax, DWORD PTR _v4$[ebp]
  001c6	c1 e0 05	 shl	 eax, 5
  001c9	0b d0		 or	 edx, eax
  001cb	8b 4d f4	 mov	 ecx, DWORD PTR _v1$[ebp]
  001ce	33 4d ec	 xor	 ecx, DWORD PTR _v2$[ebp]
  001d1	23 4d e8	 and	 ecx, DWORD PTR _v0$[ebp]
  001d4	33 4d ec	 xor	 ecx, DWORD PTR _v2$[ebp]
  001d7	03 d1		 add	 edx, ecx
  001d9	8b 45 fc	 mov	 eax, DWORD PTR _w$[ebp]
  001dc	8b 48 18	 mov	 ecx, DWORD PTR [eax+24]
  001df	8d 94 0a 99 79
	82 5a		 lea	 edx, DWORD PTR [edx+ecx+1518500249]
  001e6	03 55 f8	 add	 edx, DWORD PTR _v3$[ebp]
  001e9	89 55 f8	 mov	 DWORD PTR _v3$[ebp], edx
  001ec	8b 45 e8	 mov	 eax, DWORD PTR _v0$[ebp]
  001ef	c1 e8 02	 shr	 eax, 2
  001f2	8b 4d e8	 mov	 ecx, DWORD PTR _v0$[ebp]
  001f5	c1 e1 1e	 shl	 ecx, 30			; 0000001eH
  001f8	0b c1		 or	 eax, ecx
  001fa	89 45 e8	 mov	 DWORD PTR _v0$[ebp], eax
  001fd	8b 55 f8	 mov	 edx, DWORD PTR _v3$[ebp]
  00200	c1 ea 1b	 shr	 edx, 27			; 0000001bH
  00203	8b 45 f8	 mov	 eax, DWORD PTR _v3$[ebp]
  00206	c1 e0 05	 shl	 eax, 5
  00209	0b d0		 or	 edx, eax
  0020b	8b 4d e8	 mov	 ecx, DWORD PTR _v0$[ebp]
  0020e	33 4d f4	 xor	 ecx, DWORD PTR _v1$[ebp]
  00211	23 4d f0	 and	 ecx, DWORD PTR _v4$[ebp]
  00214	33 4d f4	 xor	 ecx, DWORD PTR _v1$[ebp]
  00217	03 d1		 add	 edx, ecx
  00219	8b 45 fc	 mov	 eax, DWORD PTR _w$[ebp]
  0021c	8b 48 1c	 mov	 ecx, DWORD PTR [eax+28]
  0021f	8d 94 0a 99 79
	82 5a		 lea	 edx, DWORD PTR [edx+ecx+1518500249]
  00226	03 55 ec	 add	 edx, DWORD PTR _v2$[ebp]
  00229	89 55 ec	 mov	 DWORD PTR _v2$[ebp], edx
  0022c	8b 45 f0	 mov	 eax, DWORD PTR _v4$[ebp]
  0022f	c1 e8 02	 shr	 eax, 2
  00232	8b 4d f0	 mov	 ecx, DWORD PTR _v4$[ebp]
  00235	c1 e1 1e	 shl	 ecx, 30			; 0000001eH
  00238	0b c1		 or	 eax, ecx
  0023a	89 45 f0	 mov	 DWORD PTR _v4$[ebp], eax
  0023d	8b 55 ec	 mov	 edx, DWORD PTR _v2$[ebp]
  00240	c1 ea 1b	 shr	 edx, 27			; 0000001bH
  00243	8b 45 ec	 mov	 eax, DWORD PTR _v2$[ebp]
  00246	c1 e0 05	 shl	 eax, 5
  00249	0b d0		 or	 edx, eax
  0024b	8b 4d f0	 mov	 ecx, DWORD PTR _v4$[ebp]
  0024e	33 4d e8	 xor	 ecx, DWORD PTR _v0$[ebp]
  00251	23 4d f8	 and	 ecx, DWORD PTR _v3$[ebp]
  00254	33 4d e8	 xor	 ecx, DWORD PTR _v0$[ebp]
  00257	03 d1		 add	 edx, ecx
  00259	8b 45 fc	 mov	 eax, DWORD PTR _w$[ebp]
  0025c	8b 48 20	 mov	 ecx, DWORD PTR [eax+32]
  0025f	8d 94 0a 99 79
	82 5a		 lea	 edx, DWORD PTR [edx+ecx+1518500249]
  00266	03 55 f4	 add	 edx, DWORD PTR _v1$[ebp]
  00269	89 55 f4	 mov	 DWORD PTR _v1$[ebp], edx
  0026c	8b 45 f8	 mov	 eax, DWORD PTR _v3$[ebp]
  0026f	c1 e8 02	 shr	 eax, 2
  00272	8b 4d f8	 mov	 ecx, DWORD PTR _v3$[ebp]
  00275	c1 e1 1e	 shl	 ecx, 30			; 0000001eH
  00278	0b c1		 or	 eax, ecx
  0027a	89 45 f8	 mov	 DWORD PTR _v3$[ebp], eax
  0027d	8b 55 f4	 mov	 edx, DWORD PTR _v1$[ebp]
  00280	c1 ea 1b	 shr	 edx, 27			; 0000001bH
  00283	8b 45 f4	 mov	 eax, DWORD PTR _v1$[ebp]
  00286	c1 e0 05	 shl	 eax, 5
  00289	0b d0		 or	 edx, eax
  0028b	8b 4d f8	 mov	 ecx, DWORD PTR _v3$[ebp]
  0028e	33 4d f0	 xor	 ecx, DWORD PTR _v4$[ebp]
  00291	23 4d ec	 and	 ecx, DWORD PTR _v2$[ebp]
  00294	33 4d f0	 xor	 ecx, DWORD PTR _v4$[ebp]
  00297	03 d1		 add	 edx, ecx
  00299	8b 45 fc	 mov	 eax, DWORD PTR _w$[ebp]
  0029c	8b 48 24	 mov	 ecx, DWORD PTR [eax+36]
  0029f	8d 94 0a 99 79
	82 5a		 lea	 edx, DWORD PTR [edx+ecx+1518500249]
  002a6	03 55 e8	 add	 edx, DWORD PTR _v0$[ebp]
  002a9	89 55 e8	 mov	 DWORD PTR _v0$[ebp], edx
  002ac	8b 45 ec	 mov	 eax, DWORD PTR _v2$[ebp]
  002af	c1 e8 02	 shr	 eax, 2
  002b2	8b 4d ec	 mov	 ecx, DWORD PTR _v2$[ebp]
  002b5	c1 e1 1e	 shl	 ecx, 30			; 0000001eH
  002b8	0b c1		 or	 eax, ecx
  002ba	89 45 ec	 mov	 DWORD PTR _v2$[ebp], eax

; 157  :     five_cycle(v, ch, 0x5a827999, 10);

  002bd	8b 55 e8	 mov	 edx, DWORD PTR _v0$[ebp]
  002c0	c1 ea 1b	 shr	 edx, 27			; 0000001bH
  002c3	8b 45 e8	 mov	 eax, DWORD PTR _v0$[ebp]
  002c6	c1 e0 05	 shl	 eax, 5
  002c9	0b d0		 or	 edx, eax
  002cb	8b 4d ec	 mov	 ecx, DWORD PTR _v2$[ebp]
  002ce	33 4d f8	 xor	 ecx, DWORD PTR _v3$[ebp]
  002d1	23 4d f4	 and	 ecx, DWORD PTR _v1$[ebp]
  002d4	33 4d f8	 xor	 ecx, DWORD PTR _v3$[ebp]
  002d7	03 d1		 add	 edx, ecx
  002d9	8b 45 fc	 mov	 eax, DWORD PTR _w$[ebp]
  002dc	8b 48 28	 mov	 ecx, DWORD PTR [eax+40]
  002df	8d 94 0a 99 79
	82 5a		 lea	 edx, DWORD PTR [edx+ecx+1518500249]
  002e6	03 55 f0	 add	 edx, DWORD PTR _v4$[ebp]
  002e9	89 55 f0	 mov	 DWORD PTR _v4$[ebp], edx
  002ec	8b 45 f4	 mov	 eax, DWORD PTR _v1$[ebp]
  002ef	c1 e8 02	 shr	 eax, 2
  002f2	8b 4d f4	 mov	 ecx, DWORD PTR _v1$[ebp]
  002f5	c1 e1 1e	 shl	 ecx, 30			; 0000001eH
  002f8	0b c1		 or	 eax, ecx
  002fa	89 45 f4	 mov	 DWORD PTR _v1$[ebp], eax
  002fd	8b 55 f0	 mov	 edx, DWORD PTR _v4$[ebp]
  00300	c1 ea 1b	 shr	 edx, 27			; 0000001bH
  00303	8b 45 f0	 mov	 eax, DWORD PTR _v4$[ebp]
  00306	c1 e0 05	 shl	 eax, 5
  00309	0b d0		 or	 edx, eax
  0030b	8b 4d f4	 mov	 ecx, DWORD PTR _v1$[ebp]
  0030e	33 4d ec	 xor	 ecx, DWORD PTR _v2$[ebp]
  00311	23 4d e8	 and	 ecx, DWORD PTR _v0$[ebp]
  00314	33 4d ec	 xor	 ecx, DWORD PTR _v2$[ebp]
  00317	03 d1		 add	 edx, ecx
  00319	8b 45 fc	 mov	 eax, DWORD PTR _w$[ebp]
  0031c	8b 48 2c	 mov	 ecx, DWORD PTR [eax+44]
  0031f	8d 94 0a 99 79
	82 5a		 lea	 edx, DWORD PTR [edx+ecx+1518500249]
  00326	03 55 f8	 add	 edx, DWORD PTR _v3$[ebp]
  00329	89 55 f8	 mov	 DWORD PTR _v3$[ebp], edx
  0032c	8b 45 e8	 mov	 eax, DWORD PTR _v0$[ebp]
  0032f	c1 e8 02	 shr	 eax, 2
  00332	8b 4d e8	 mov	 ecx, DWORD PTR _v0$[ebp]
  00335	c1 e1 1e	 shl	 ecx, 30			; 0000001eH
  00338	0b c1		 or	 eax, ecx
  0033a	89 45 e8	 mov	 DWORD PTR _v0$[ebp], eax
  0033d	8b 55 f8	 mov	 edx, DWORD PTR _v3$[ebp]
  00340	c1 ea 1b	 shr	 edx, 27			; 0000001bH
  00343	8b 45 f8	 mov	 eax, DWORD PTR _v3$[ebp]
  00346	c1 e0 05	 shl	 eax, 5
  00349	0b d0		 or	 edx, eax
  0034b	8b 4d e8	 mov	 ecx, DWORD PTR _v0$[ebp]
  0034e	33 4d f4	 xor	 ecx, DWORD PTR _v1$[ebp]
  00351	23 4d f0	 and	 ecx, DWORD PTR _v4$[ebp]
  00354	33 4d f4	 xor	 ecx, DWORD PTR _v1$[ebp]
  00357	03 d1		 add	 edx, ecx
  00359	8b 45 fc	 mov	 eax, DWORD PTR _w$[ebp]
  0035c	8b 48 30	 mov	 ecx, DWORD PTR [eax+48]
  0035f	8d 94 0a 99 79
	82 5a		 lea	 edx, DWORD PTR [edx+ecx+1518500249]
  00366	03 55 ec	 add	 edx, DWORD PTR _v2$[ebp]
  00369	89 55 ec	 mov	 DWORD PTR _v2$[ebp], edx
  0036c	8b 45 f0	 mov	 eax, DWORD PTR _v4$[ebp]
  0036f	c1 e8 02	 shr	 eax, 2
  00372	8b 4d f0	 mov	 ecx, DWORD PTR _v4$[ebp]
  00375	c1 e1 1e	 shl	 ecx, 30			; 0000001eH
  00378	0b c1		 or	 eax, ecx
  0037a	89 45 f0	 mov	 DWORD PTR _v4$[ebp], eax
  0037d	8b 55 ec	 mov	 edx, DWORD PTR _v2$[ebp]
  00380	c1 ea 1b	 shr	 edx, 27			; 0000001bH
  00383	8b 45 ec	 mov	 eax, DWORD PTR _v2$[ebp]
  00386	c1 e0 05	 shl	 eax, 5
  00389	0b d0		 or	 edx, eax
  0038b	8b 4d f0	 mov	 ecx, DWORD PTR _v4$[ebp]
  0038e	33 4d e8	 xor	 ecx, DWORD PTR _v0$[ebp]
  00391	23 4d f8	 and	 ecx, DWORD PTR _v3$[ebp]
  00394	33 4d e8	 xor	 ecx, DWORD PTR _v0$[ebp]
  00397	03 d1		 add	 edx, ecx
  00399	8b 45 fc	 mov	 eax, DWORD PTR _w$[ebp]
  0039c	8b 48 34	 mov	 ecx, DWORD PTR [eax+52]
  0039f	8d 94 0a 99 79
	82 5a		 lea	 edx, DWORD PTR [edx+ecx+1518500249]
  003a6	03 55 f4	 add	 edx, DWORD PTR _v1$[ebp]
  003a9	89 55 f4	 mov	 DWORD PTR _v1$[ebp], edx
  003ac	8b 45 f8	 mov	 eax, DWORD PTR _v3$[ebp]
  003af	c1 e8 02	 shr	 eax, 2
  003b2	8b 4d f8	 mov	 ecx, DWORD PTR _v3$[ebp]
  003b5	c1 e1 1e	 shl	 ecx, 30			; 0000001eH
  003b8	0b c1		 or	 eax, ecx
  003ba	89 45 f8	 mov	 DWORD PTR _v3$[ebp], eax
  003bd	8b 55 f4	 mov	 edx, DWORD PTR _v1$[ebp]
  003c0	c1 ea 1b	 shr	 edx, 27			; 0000001bH
  003c3	8b 45 f4	 mov	 eax, DWORD PTR _v1$[ebp]
  003c6	c1 e0 05	 shl	 eax, 5
  003c9	0b d0		 or	 edx, eax
  003cb	8b 4d f8	 mov	 ecx, DWORD PTR _v3$[ebp]
  003ce	33 4d f0	 xor	 ecx, DWORD PTR _v4$[ebp]
  003d1	23 4d ec	 and	 ecx, DWORD PTR _v2$[ebp]
  003d4	33 4d f0	 xor	 ecx, DWORD PTR _v4$[ebp]
  003d7	03 d1		 add	 edx, ecx
  003d9	8b 45 fc	 mov	 eax, DWORD PTR _w$[ebp]
  003dc	8b 48 38	 mov	 ecx, DWORD PTR [eax+56]
  003df	8d 94 0a 99 79
	82 5a		 lea	 edx, DWORD PTR [edx+ecx+1518500249]
  003e6	03 55 e8	 add	 edx, DWORD PTR _v0$[ebp]
  003e9	89 55 e8	 mov	 DWORD PTR _v0$[ebp], edx
  003ec	8b 45 ec	 mov	 eax, DWORD PTR _v2$[ebp]
  003ef	c1 e8 02	 shr	 eax, 2
  003f2	8b 4d ec	 mov	 ecx, DWORD PTR _v2$[ebp]
  003f5	c1 e1 1e	 shl	 ecx, 30			; 0000001eH
  003f8	0b c1		 or	 eax, ecx
  003fa	89 45 ec	 mov	 DWORD PTR _v2$[ebp], eax

; 158  :     one_cycle(v,0,1,2,3,4, ch, 0x5a827999, hf(15)); \

  003fd	8b 55 e8	 mov	 edx, DWORD PTR _v0$[ebp]
  00400	c1 ea 1b	 shr	 edx, 27			; 0000001bH
  00403	8b 45 e8	 mov	 eax, DWORD PTR _v0$[ebp]
  00406	c1 e0 05	 shl	 eax, 5
  00409	0b d0		 or	 edx, eax
  0040b	8b 4d ec	 mov	 ecx, DWORD PTR _v2$[ebp]
  0040e	33 4d f8	 xor	 ecx, DWORD PTR _v3$[ebp]
  00411	23 4d f4	 and	 ecx, DWORD PTR _v1$[ebp]
  00414	33 4d f8	 xor	 ecx, DWORD PTR _v3$[ebp]
  00417	03 d1		 add	 edx, ecx
  00419	8b 45 fc	 mov	 eax, DWORD PTR _w$[ebp]
  0041c	8b 48 3c	 mov	 ecx, DWORD PTR [eax+60]
  0041f	8d 94 0a 99 79
	82 5a		 lea	 edx, DWORD PTR [edx+ecx+1518500249]
  00426	03 55 f0	 add	 edx, DWORD PTR _v4$[ebp]
  00429	89 55 f0	 mov	 DWORD PTR _v4$[ebp], edx
  0042c	8b 45 f4	 mov	 eax, DWORD PTR _v1$[ebp]
  0042f	c1 e8 02	 shr	 eax, 2
  00432	8b 4d f4	 mov	 ecx, DWORD PTR _v1$[ebp]
  00435	c1 e1 1e	 shl	 ecx, 30			; 0000001eH
  00438	0b c1		 or	 eax, ecx
  0043a	89 45 f4	 mov	 DWORD PTR _v1$[ebp], eax

; 159  : 
; 160  : #undef  hf
; 161  : #define hf(i) (w[(i) & 15] = rotl32(                    \
; 162  :                  w[((i) + 13) & 15] ^ w[((i) + 8) & 15] \
; 163  :                ^ w[((i) +  2) & 15] ^ w[(i) & 15], 1))
; 164  : 
; 165  :     one_cycle(v,4,0,1,2,3, ch, 0x5a827999, hf(16));

  0043d	8b 55 fc	 mov	 edx, DWORD PTR _w$[ebp]
  00440	8b 45 fc	 mov	 eax, DWORD PTR _w$[ebp]
  00443	8b 4a 34	 mov	 ecx, DWORD PTR [edx+52]
  00446	33 48 20	 xor	 ecx, DWORD PTR [eax+32]
  00449	8b 55 fc	 mov	 edx, DWORD PTR _w$[ebp]
  0044c	33 4a 08	 xor	 ecx, DWORD PTR [edx+8]
  0044f	8b 45 fc	 mov	 eax, DWORD PTR _w$[ebp]
  00452	33 08		 xor	 ecx, DWORD PTR [eax]
  00454	d1 e1		 shl	 ecx, 1
  00456	8b 55 fc	 mov	 edx, DWORD PTR _w$[ebp]
  00459	8b 45 fc	 mov	 eax, DWORD PTR _w$[ebp]
  0045c	8b 52 34	 mov	 edx, DWORD PTR [edx+52]
  0045f	33 50 20	 xor	 edx, DWORD PTR [eax+32]
  00462	8b 45 fc	 mov	 eax, DWORD PTR _w$[ebp]
  00465	33 50 08	 xor	 edx, DWORD PTR [eax+8]
  00468	8b 45 fc	 mov	 eax, DWORD PTR _w$[ebp]
  0046b	33 10		 xor	 edx, DWORD PTR [eax]
  0046d	c1 ea 1f	 shr	 edx, 31			; 0000001fH
  00470	0b ca		 or	 ecx, edx
  00472	8b 55 fc	 mov	 edx, DWORD PTR _w$[ebp]
  00475	89 0a		 mov	 DWORD PTR [edx], ecx
  00477	8b 45 f4	 mov	 eax, DWORD PTR _v1$[ebp]
  0047a	33 45 ec	 xor	 eax, DWORD PTR _v2$[ebp]
  0047d	23 45 e8	 and	 eax, DWORD PTR _v0$[ebp]
  00480	33 45 ec	 xor	 eax, DWORD PTR _v2$[ebp]
  00483	8b 4d f0	 mov	 ecx, DWORD PTR _v4$[ebp]
  00486	c1 e1 05	 shl	 ecx, 5
  00489	8b 55 f0	 mov	 edx, DWORD PTR _v4$[ebp]
  0048c	c1 ea 1b	 shr	 edx, 27			; 0000001bH
  0048f	0b d1		 or	 edx, ecx
  00491	03 d0		 add	 edx, eax
  00493	8b 45 fc	 mov	 eax, DWORD PTR _w$[ebp]
  00496	8b 08		 mov	 ecx, DWORD PTR [eax]
  00498	8d 94 0a 99 79
	82 5a		 lea	 edx, DWORD PTR [edx+ecx+1518500249]
  0049f	03 55 f8	 add	 edx, DWORD PTR _v3$[ebp]
  004a2	89 55 f8	 mov	 DWORD PTR _v3$[ebp], edx
  004a5	8b 45 e8	 mov	 eax, DWORD PTR _v0$[ebp]
  004a8	c1 e8 02	 shr	 eax, 2
  004ab	8b 4d e8	 mov	 ecx, DWORD PTR _v0$[ebp]
  004ae	c1 e1 1e	 shl	 ecx, 30			; 0000001eH
  004b1	0b c1		 or	 eax, ecx
  004b3	89 45 e8	 mov	 DWORD PTR _v0$[ebp], eax

; 166  :     one_cycle(v,3,4,0,1,2, ch, 0x5a827999, hf(17));

  004b6	8b 55 fc	 mov	 edx, DWORD PTR _w$[ebp]
  004b9	8b 45 fc	 mov	 eax, DWORD PTR _w$[ebp]
  004bc	8b 4a 38	 mov	 ecx, DWORD PTR [edx+56]
  004bf	33 48 24	 xor	 ecx, DWORD PTR [eax+36]
  004c2	8b 55 fc	 mov	 edx, DWORD PTR _w$[ebp]
  004c5	33 4a 0c	 xor	 ecx, DWORD PTR [edx+12]
  004c8	8b 45 fc	 mov	 eax, DWORD PTR _w$[ebp]
  004cb	33 48 04	 xor	 ecx, DWORD PTR [eax+4]
  004ce	d1 e1		 shl	 ecx, 1
  004d0	8b 55 fc	 mov	 edx, DWORD PTR _w$[ebp]
  004d3	8b 45 fc	 mov	 eax, DWORD PTR _w$[ebp]
  004d6	8b 52 38	 mov	 edx, DWORD PTR [edx+56]
  004d9	33 50 24	 xor	 edx, DWORD PTR [eax+36]
  004dc	8b 45 fc	 mov	 eax, DWORD PTR _w$[ebp]
  004df	33 50 0c	 xor	 edx, DWORD PTR [eax+12]
  004e2	8b 45 fc	 mov	 eax, DWORD PTR _w$[ebp]
  004e5	33 50 04	 xor	 edx, DWORD PTR [eax+4]
  004e8	c1 ea 1f	 shr	 edx, 31			; 0000001fH
  004eb	0b ca		 or	 ecx, edx
  004ed	8b 55 fc	 mov	 edx, DWORD PTR _w$[ebp]
  004f0	89 4a 04	 mov	 DWORD PTR [edx+4], ecx
  004f3	8b 45 e8	 mov	 eax, DWORD PTR _v0$[ebp]
  004f6	33 45 f4	 xor	 eax, DWORD PTR _v1$[ebp]
  004f9	23 45 f0	 and	 eax, DWORD PTR _v4$[ebp]
  004fc	33 45 f4	 xor	 eax, DWORD PTR _v1$[ebp]
  004ff	8b 4d f8	 mov	 ecx, DWORD PTR _v3$[ebp]
  00502	c1 e1 05	 shl	 ecx, 5
  00505	8b 55 f8	 mov	 edx, DWORD PTR _v3$[ebp]
  00508	c1 ea 1b	 shr	 edx, 27			; 0000001bH
  0050b	0b d1		 or	 edx, ecx
  0050d	03 d0		 add	 edx, eax
  0050f	8b 45 fc	 mov	 eax, DWORD PTR _w$[ebp]
  00512	8b 48 04	 mov	 ecx, DWORD PTR [eax+4]
  00515	8d 94 0a 99 79
	82 5a		 lea	 edx, DWORD PTR [edx+ecx+1518500249]
  0051c	03 55 ec	 add	 edx, DWORD PTR _v2$[ebp]
  0051f	89 55 ec	 mov	 DWORD PTR _v2$[ebp], edx
  00522	8b 45 f0	 mov	 eax, DWORD PTR _v4$[ebp]
  00525	c1 e8 02	 shr	 eax, 2
  00528	8b 4d f0	 mov	 ecx, DWORD PTR _v4$[ebp]
  0052b	c1 e1 1e	 shl	 ecx, 30			; 0000001eH
  0052e	0b c1		 or	 eax, ecx
  00530	89 45 f0	 mov	 DWORD PTR _v4$[ebp], eax

; 167  :     one_cycle(v,2,3,4,0,1, ch, 0x5a827999, hf(18));

  00533	8b 55 fc	 mov	 edx, DWORD PTR _w$[ebp]
  00536	8b 45 fc	 mov	 eax, DWORD PTR _w$[ebp]
  00539	8b 4a 3c	 mov	 ecx, DWORD PTR [edx+60]
  0053c	33 48 28	 xor	 ecx, DWORD PTR [eax+40]
  0053f	8b 55 fc	 mov	 edx, DWORD PTR _w$[ebp]
  00542	33 4a 10	 xor	 ecx, DWORD PTR [edx+16]
  00545	8b 45 fc	 mov	 eax, DWORD PTR _w$[ebp]
  00548	33 48 08	 xor	 ecx, DWORD PTR [eax+8]
  0054b	d1 e1		 shl	 ecx, 1
  0054d	8b 55 fc	 mov	 edx, DWORD PTR _w$[ebp]
  00550	8b 45 fc	 mov	 eax, DWORD PTR _w$[ebp]
  00553	8b 52 3c	 mov	 edx, DWORD PTR [edx+60]
  00556	33 50 28	 xor	 edx, DWORD PTR [eax+40]
  00559	8b 45 fc	 mov	 eax, DWORD PTR _w$[ebp]
  0055c	33 50 10	 xor	 edx, DWORD PTR [eax+16]
  0055f	8b 45 fc	 mov	 eax, DWORD PTR _w$[ebp]
  00562	33 50 08	 xor	 edx, DWORD PTR [eax+8]
  00565	c1 ea 1f	 shr	 edx, 31			; 0000001fH
  00568	0b ca		 or	 ecx, edx
  0056a	8b 55 fc	 mov	 edx, DWORD PTR _w$[ebp]
  0056d	89 4a 08	 mov	 DWORD PTR [edx+8], ecx
  00570	8b 45 f0	 mov	 eax, DWORD PTR _v4$[ebp]
  00573	33 45 e8	 xor	 eax, DWORD PTR _v0$[ebp]
  00576	23 45 f8	 and	 eax, DWORD PTR _v3$[ebp]
  00579	33 45 e8	 xor	 eax, DWORD PTR _v0$[ebp]
  0057c	8b 4d ec	 mov	 ecx, DWORD PTR _v2$[ebp]
  0057f	c1 e1 05	 shl	 ecx, 5
  00582	8b 55 ec	 mov	 edx, DWORD PTR _v2$[ebp]
  00585	c1 ea 1b	 shr	 edx, 27			; 0000001bH
  00588	0b d1		 or	 edx, ecx
  0058a	03 d0		 add	 edx, eax
  0058c	8b 45 fc	 mov	 eax, DWORD PTR _w$[ebp]
  0058f	8b 48 08	 mov	 ecx, DWORD PTR [eax+8]
  00592	8d 94 0a 99 79
	82 5a		 lea	 edx, DWORD PTR [edx+ecx+1518500249]
  00599	03 55 f4	 add	 edx, DWORD PTR _v1$[ebp]
  0059c	89 55 f4	 mov	 DWORD PTR _v1$[ebp], edx
  0059f	8b 45 f8	 mov	 eax, DWORD PTR _v3$[ebp]
  005a2	c1 e8 02	 shr	 eax, 2
  005a5	8b 4d f8	 mov	 ecx, DWORD PTR _v3$[ebp]
  005a8	c1 e1 1e	 shl	 ecx, 30			; 0000001eH
  005ab	0b c1		 or	 eax, ecx
  005ad	89 45 f8	 mov	 DWORD PTR _v3$[ebp], eax

; 168  :     one_cycle(v,1,2,3,4,0, ch, 0x5a827999, hf(19));

  005b0	8b 55 fc	 mov	 edx, DWORD PTR _w$[ebp]
  005b3	8b 45 fc	 mov	 eax, DWORD PTR _w$[ebp]
  005b6	8b 0a		 mov	 ecx, DWORD PTR [edx]
  005b8	33 48 2c	 xor	 ecx, DWORD PTR [eax+44]
  005bb	8b 55 fc	 mov	 edx, DWORD PTR _w$[ebp]
  005be	33 4a 14	 xor	 ecx, DWORD PTR [edx+20]
  005c1	8b 45 fc	 mov	 eax, DWORD PTR _w$[ebp]
  005c4	33 48 0c	 xor	 ecx, DWORD PTR [eax+12]
  005c7	d1 e1		 shl	 ecx, 1
  005c9	8b 55 fc	 mov	 edx, DWORD PTR _w$[ebp]
  005cc	8b 45 fc	 mov	 eax, DWORD PTR _w$[ebp]
  005cf	8b 12		 mov	 edx, DWORD PTR [edx]
  005d1	33 50 2c	 xor	 edx, DWORD PTR [eax+44]
  005d4	8b 45 fc	 mov	 eax, DWORD PTR _w$[ebp]
  005d7	33 50 14	 xor	 edx, DWORD PTR [eax+20]
  005da	8b 45 fc	 mov	 eax, DWORD PTR _w$[ebp]
  005dd	33 50 0c	 xor	 edx, DWORD PTR [eax+12]
  005e0	c1 ea 1f	 shr	 edx, 31			; 0000001fH
  005e3	0b ca		 or	 ecx, edx
  005e5	8b 55 fc	 mov	 edx, DWORD PTR _w$[ebp]
  005e8	89 4a 0c	 mov	 DWORD PTR [edx+12], ecx
  005eb	8b 45 f8	 mov	 eax, DWORD PTR _v3$[ebp]
  005ee	33 45 f0	 xor	 eax, DWORD PTR _v4$[ebp]
  005f1	23 45 ec	 and	 eax, DWORD PTR _v2$[ebp]
  005f4	33 45 f0	 xor	 eax, DWORD PTR _v4$[ebp]
  005f7	8b 4d f4	 mov	 ecx, DWORD PTR _v1$[ebp]
  005fa	c1 e1 05	 shl	 ecx, 5
  005fd	8b 55 f4	 mov	 edx, DWORD PTR _v1$[ebp]
  00600	c1 ea 1b	 shr	 edx, 27			; 0000001bH
  00603	0b d1		 or	 edx, ecx
  00605	03 d0		 add	 edx, eax
  00607	8b 45 fc	 mov	 eax, DWORD PTR _w$[ebp]
  0060a	8b 48 0c	 mov	 ecx, DWORD PTR [eax+12]
  0060d	8d 94 0a 99 79
	82 5a		 lea	 edx, DWORD PTR [edx+ecx+1518500249]
  00614	03 55 e8	 add	 edx, DWORD PTR _v0$[ebp]
  00617	89 55 e8	 mov	 DWORD PTR _v0$[ebp], edx
  0061a	8b 45 ec	 mov	 eax, DWORD PTR _v2$[ebp]
  0061d	c1 e8 02	 shr	 eax, 2
  00620	8b 4d ec	 mov	 ecx, DWORD PTR _v2$[ebp]
  00623	c1 e1 1e	 shl	 ecx, 30			; 0000001eH
  00626	0b c1		 or	 eax, ecx
  00628	89 45 ec	 mov	 DWORD PTR _v2$[ebp], eax

; 169  : 
; 170  :     five_cycle(v, parity, 0x6ed9eba1,  20);

  0062b	8b 55 fc	 mov	 edx, DWORD PTR _w$[ebp]
  0062e	8b 45 fc	 mov	 eax, DWORD PTR _w$[ebp]
  00631	8b 4a 04	 mov	 ecx, DWORD PTR [edx+4]
  00634	33 48 30	 xor	 ecx, DWORD PTR [eax+48]
  00637	8b 55 fc	 mov	 edx, DWORD PTR _w$[ebp]
  0063a	33 4a 18	 xor	 ecx, DWORD PTR [edx+24]
  0063d	8b 45 fc	 mov	 eax, DWORD PTR _w$[ebp]
  00640	33 48 10	 xor	 ecx, DWORD PTR [eax+16]
  00643	d1 e1		 shl	 ecx, 1
  00645	8b 55 fc	 mov	 edx, DWORD PTR _w$[ebp]
  00648	8b 45 fc	 mov	 eax, DWORD PTR _w$[ebp]
  0064b	8b 52 04	 mov	 edx, DWORD PTR [edx+4]
  0064e	33 50 30	 xor	 edx, DWORD PTR [eax+48]
  00651	8b 45 fc	 mov	 eax, DWORD PTR _w$[ebp]
  00654	33 50 18	 xor	 edx, DWORD PTR [eax+24]
  00657	8b 45 fc	 mov	 eax, DWORD PTR _w$[ebp]
  0065a	33 50 10	 xor	 edx, DWORD PTR [eax+16]
  0065d	c1 ea 1f	 shr	 edx, 31			; 0000001fH
  00660	0b ca		 or	 ecx, edx
  00662	8b 55 fc	 mov	 edx, DWORD PTR _w$[ebp]
  00665	89 4a 10	 mov	 DWORD PTR [edx+16], ecx
  00668	8b 45 f4	 mov	 eax, DWORD PTR _v1$[ebp]
  0066b	33 45 ec	 xor	 eax, DWORD PTR _v2$[ebp]
  0066e	33 45 f8	 xor	 eax, DWORD PTR _v3$[ebp]
  00671	8b 4d e8	 mov	 ecx, DWORD PTR _v0$[ebp]
  00674	c1 e1 05	 shl	 ecx, 5
  00677	8b 55 e8	 mov	 edx, DWORD PTR _v0$[ebp]
  0067a	c1 ea 1b	 shr	 edx, 27			; 0000001bH
  0067d	0b d1		 or	 edx, ecx
  0067f	03 d0		 add	 edx, eax
  00681	8b 45 fc	 mov	 eax, DWORD PTR _w$[ebp]
  00684	8b 48 10	 mov	 ecx, DWORD PTR [eax+16]
  00687	8d 94 0a a1 eb
	d9 6e		 lea	 edx, DWORD PTR [edx+ecx+1859775393]
  0068e	03 55 f0	 add	 edx, DWORD PTR _v4$[ebp]
  00691	89 55 f0	 mov	 DWORD PTR _v4$[ebp], edx
  00694	8b 45 f4	 mov	 eax, DWORD PTR _v1$[ebp]
  00697	c1 e8 02	 shr	 eax, 2
  0069a	8b 4d f4	 mov	 ecx, DWORD PTR _v1$[ebp]
  0069d	c1 e1 1e	 shl	 ecx, 30			; 0000001eH
  006a0	0b c1		 or	 eax, ecx
  006a2	89 45 f4	 mov	 DWORD PTR _v1$[ebp], eax
  006a5	8b 55 fc	 mov	 edx, DWORD PTR _w$[ebp]
  006a8	8b 45 fc	 mov	 eax, DWORD PTR _w$[ebp]
  006ab	8b 4a 08	 mov	 ecx, DWORD PTR [edx+8]
  006ae	33 48 34	 xor	 ecx, DWORD PTR [eax+52]
  006b1	8b 55 fc	 mov	 edx, DWORD PTR _w$[ebp]
  006b4	33 4a 1c	 xor	 ecx, DWORD PTR [edx+28]
  006b7	8b 45 fc	 mov	 eax, DWORD PTR _w$[ebp]
  006ba	33 48 14	 xor	 ecx, DWORD PTR [eax+20]
  006bd	d1 e1		 shl	 ecx, 1
  006bf	8b 55 fc	 mov	 edx, DWORD PTR _w$[ebp]
  006c2	8b 45 fc	 mov	 eax, DWORD PTR _w$[ebp]
  006c5	8b 52 08	 mov	 edx, DWORD PTR [edx+8]
  006c8	33 50 34	 xor	 edx, DWORD PTR [eax+52]
  006cb	8b 45 fc	 mov	 eax, DWORD PTR _w$[ebp]
  006ce	33 50 1c	 xor	 edx, DWORD PTR [eax+28]
  006d1	8b 45 fc	 mov	 eax, DWORD PTR _w$[ebp]
  006d4	33 50 14	 xor	 edx, DWORD PTR [eax+20]
  006d7	c1 ea 1f	 shr	 edx, 31			; 0000001fH
  006da	0b ca		 or	 ecx, edx
  006dc	8b 55 fc	 mov	 edx, DWORD PTR _w$[ebp]
  006df	89 4a 14	 mov	 DWORD PTR [edx+20], ecx
  006e2	8b 45 e8	 mov	 eax, DWORD PTR _v0$[ebp]
  006e5	33 45 f4	 xor	 eax, DWORD PTR _v1$[ebp]
  006e8	33 45 ec	 xor	 eax, DWORD PTR _v2$[ebp]
  006eb	8b 4d f0	 mov	 ecx, DWORD PTR _v4$[ebp]
  006ee	c1 e1 05	 shl	 ecx, 5
  006f1	8b 55 f0	 mov	 edx, DWORD PTR _v4$[ebp]
  006f4	c1 ea 1b	 shr	 edx, 27			; 0000001bH
  006f7	0b d1		 or	 edx, ecx
  006f9	03 d0		 add	 edx, eax
  006fb	8b 45 fc	 mov	 eax, DWORD PTR _w$[ebp]
  006fe	8b 48 14	 mov	 ecx, DWORD PTR [eax+20]
  00701	8d 94 0a a1 eb
	d9 6e		 lea	 edx, DWORD PTR [edx+ecx+1859775393]
  00708	03 55 f8	 add	 edx, DWORD PTR _v3$[ebp]
  0070b	89 55 f8	 mov	 DWORD PTR _v3$[ebp], edx
  0070e	8b 45 e8	 mov	 eax, DWORD PTR _v0$[ebp]
  00711	c1 e8 02	 shr	 eax, 2
  00714	8b 4d e8	 mov	 ecx, DWORD PTR _v0$[ebp]
  00717	c1 e1 1e	 shl	 ecx, 30			; 0000001eH
  0071a	0b c1		 or	 eax, ecx
  0071c	89 45 e8	 mov	 DWORD PTR _v0$[ebp], eax
  0071f	8b 55 fc	 mov	 edx, DWORD PTR _w$[ebp]
  00722	8b 45 fc	 mov	 eax, DWORD PTR _w$[ebp]
  00725	8b 4a 0c	 mov	 ecx, DWORD PTR [edx+12]
  00728	33 48 38	 xor	 ecx, DWORD PTR [eax+56]
  0072b	8b 55 fc	 mov	 edx, DWORD PTR _w$[ebp]
  0072e	33 4a 20	 xor	 ecx, DWORD PTR [edx+32]
  00731	8b 45 fc	 mov	 eax, DWORD PTR _w$[ebp]
  00734	33 48 18	 xor	 ecx, DWORD PTR [eax+24]
  00737	d1 e1		 shl	 ecx, 1
  00739	8b 55 fc	 mov	 edx, DWORD PTR _w$[ebp]
  0073c	8b 45 fc	 mov	 eax, DWORD PTR _w$[ebp]
  0073f	8b 52 0c	 mov	 edx, DWORD PTR [edx+12]
  00742	33 50 38	 xor	 edx, DWORD PTR [eax+56]
  00745	8b 45 fc	 mov	 eax, DWORD PTR _w$[ebp]
  00748	33 50 20	 xor	 edx, DWORD PTR [eax+32]
  0074b	8b 45 fc	 mov	 eax, DWORD PTR _w$[ebp]
  0074e	33 50 18	 xor	 edx, DWORD PTR [eax+24]
  00751	c1 ea 1f	 shr	 edx, 31			; 0000001fH
  00754	0b ca		 or	 ecx, edx
  00756	8b 55 fc	 mov	 edx, DWORD PTR _w$[ebp]
  00759	89 4a 18	 mov	 DWORD PTR [edx+24], ecx
  0075c	8b 45 f0	 mov	 eax, DWORD PTR _v4$[ebp]
  0075f	33 45 e8	 xor	 eax, DWORD PTR _v0$[ebp]
  00762	33 45 f4	 xor	 eax, DWORD PTR _v1$[ebp]
  00765	8b 4d f8	 mov	 ecx, DWORD PTR _v3$[ebp]
  00768	c1 e1 05	 shl	 ecx, 5
  0076b	8b 55 f8	 mov	 edx, DWORD PTR _v3$[ebp]
  0076e	c1 ea 1b	 shr	 edx, 27			; 0000001bH
  00771	0b d1		 or	 edx, ecx
  00773	03 d0		 add	 edx, eax
  00775	8b 45 fc	 mov	 eax, DWORD PTR _w$[ebp]
  00778	8b 48 18	 mov	 ecx, DWORD PTR [eax+24]
  0077b	8d 94 0a a1 eb
	d9 6e		 lea	 edx, DWORD PTR [edx+ecx+1859775393]
  00782	03 55 ec	 add	 edx, DWORD PTR _v2$[ebp]
  00785	89 55 ec	 mov	 DWORD PTR _v2$[ebp], edx
  00788	8b 45 f0	 mov	 eax, DWORD PTR _v4$[ebp]
  0078b	c1 e8 02	 shr	 eax, 2
  0078e	8b 4d f0	 mov	 ecx, DWORD PTR _v4$[ebp]
  00791	c1 e1 1e	 shl	 ecx, 30			; 0000001eH
  00794	0b c1		 or	 eax, ecx
  00796	89 45 f0	 mov	 DWORD PTR _v4$[ebp], eax
  00799	8b 55 fc	 mov	 edx, DWORD PTR _w$[ebp]
  0079c	8b 45 fc	 mov	 eax, DWORD PTR _w$[ebp]
  0079f	8b 4a 10	 mov	 ecx, DWORD PTR [edx+16]
  007a2	33 48 3c	 xor	 ecx, DWORD PTR [eax+60]
  007a5	8b 55 fc	 mov	 edx, DWORD PTR _w$[ebp]
  007a8	33 4a 24	 xor	 ecx, DWORD PTR [edx+36]
  007ab	8b 45 fc	 mov	 eax, DWORD PTR _w$[ebp]
  007ae	33 48 1c	 xor	 ecx, DWORD PTR [eax+28]
  007b1	d1 e1		 shl	 ecx, 1
  007b3	8b 55 fc	 mov	 edx, DWORD PTR _w$[ebp]
  007b6	8b 45 fc	 mov	 eax, DWORD PTR _w$[ebp]
  007b9	8b 52 10	 mov	 edx, DWORD PTR [edx+16]
  007bc	33 50 3c	 xor	 edx, DWORD PTR [eax+60]
  007bf	8b 45 fc	 mov	 eax, DWORD PTR _w$[ebp]
  007c2	33 50 24	 xor	 edx, DWORD PTR [eax+36]
  007c5	8b 45 fc	 mov	 eax, DWORD PTR _w$[ebp]
  007c8	33 50 1c	 xor	 edx, DWORD PTR [eax+28]
  007cb	c1 ea 1f	 shr	 edx, 31			; 0000001fH
  007ce	0b ca		 or	 ecx, edx
  007d0	8b 55 fc	 mov	 edx, DWORD PTR _w$[ebp]
  007d3	89 4a 1c	 mov	 DWORD PTR [edx+28], ecx
  007d6	8b 45 f8	 mov	 eax, DWORD PTR _v3$[ebp]
  007d9	33 45 f0	 xor	 eax, DWORD PTR _v4$[ebp]
  007dc	33 45 e8	 xor	 eax, DWORD PTR _v0$[ebp]
  007df	8b 4d ec	 mov	 ecx, DWORD PTR _v2$[ebp]
  007e2	c1 e1 05	 shl	 ecx, 5
  007e5	8b 55 ec	 mov	 edx, DWORD PTR _v2$[ebp]
  007e8	c1 ea 1b	 shr	 edx, 27			; 0000001bH
  007eb	0b d1		 or	 edx, ecx
  007ed	03 d0		 add	 edx, eax
  007ef	8b 45 fc	 mov	 eax, DWORD PTR _w$[ebp]
  007f2	8b 48 1c	 mov	 ecx, DWORD PTR [eax+28]
  007f5	8d 94 0a a1 eb
	d9 6e		 lea	 edx, DWORD PTR [edx+ecx+1859775393]
  007fc	03 55 f4	 add	 edx, DWORD PTR _v1$[ebp]
  007ff	89 55 f4	 mov	 DWORD PTR _v1$[ebp], edx
  00802	8b 45 f8	 mov	 eax, DWORD PTR _v3$[ebp]
  00805	c1 e8 02	 shr	 eax, 2
  00808	8b 4d f8	 mov	 ecx, DWORD PTR _v3$[ebp]
  0080b	c1 e1 1e	 shl	 ecx, 30			; 0000001eH
  0080e	0b c1		 or	 eax, ecx
  00810	89 45 f8	 mov	 DWORD PTR _v3$[ebp], eax
  00813	8b 55 fc	 mov	 edx, DWORD PTR _w$[ebp]
  00816	8b 45 fc	 mov	 eax, DWORD PTR _w$[ebp]
  00819	8b 4a 14	 mov	 ecx, DWORD PTR [edx+20]
  0081c	33 08		 xor	 ecx, DWORD PTR [eax]
  0081e	8b 55 fc	 mov	 edx, DWORD PTR _w$[ebp]
  00821	33 4a 28	 xor	 ecx, DWORD PTR [edx+40]
  00824	8b 45 fc	 mov	 eax, DWORD PTR _w$[ebp]
  00827	33 48 20	 xor	 ecx, DWORD PTR [eax+32]
  0082a	d1 e1		 shl	 ecx, 1
  0082c	8b 55 fc	 mov	 edx, DWORD PTR _w$[ebp]
  0082f	8b 45 fc	 mov	 eax, DWORD PTR _w$[ebp]
  00832	8b 52 14	 mov	 edx, DWORD PTR [edx+20]
  00835	33 10		 xor	 edx, DWORD PTR [eax]
  00837	8b 45 fc	 mov	 eax, DWORD PTR _w$[ebp]
  0083a	33 50 28	 xor	 edx, DWORD PTR [eax+40]
  0083d	8b 45 fc	 mov	 eax, DWORD PTR _w$[ebp]
  00840	33 50 20	 xor	 edx, DWORD PTR [eax+32]
  00843	c1 ea 1f	 shr	 edx, 31			; 0000001fH
  00846	0b ca		 or	 ecx, edx
  00848	8b 55 fc	 mov	 edx, DWORD PTR _w$[ebp]
  0084b	89 4a 20	 mov	 DWORD PTR [edx+32], ecx
  0084e	8b 45 ec	 mov	 eax, DWORD PTR _v2$[ebp]
  00851	33 45 f8	 xor	 eax, DWORD PTR _v3$[ebp]
  00854	33 45 f0	 xor	 eax, DWORD PTR _v4$[ebp]
  00857	8b 4d f4	 mov	 ecx, DWORD PTR _v1$[ebp]
  0085a	c1 e1 05	 shl	 ecx, 5
  0085d	8b 55 f4	 mov	 edx, DWORD PTR _v1$[ebp]
  00860	c1 ea 1b	 shr	 edx, 27			; 0000001bH
  00863	0b d1		 or	 edx, ecx
  00865	03 d0		 add	 edx, eax
  00867	8b 45 fc	 mov	 eax, DWORD PTR _w$[ebp]
  0086a	8b 48 20	 mov	 ecx, DWORD PTR [eax+32]
  0086d	8d 94 0a a1 eb
	d9 6e		 lea	 edx, DWORD PTR [edx+ecx+1859775393]
  00874	03 55 e8	 add	 edx, DWORD PTR _v0$[ebp]
  00877	89 55 e8	 mov	 DWORD PTR _v0$[ebp], edx
  0087a	8b 45 ec	 mov	 eax, DWORD PTR _v2$[ebp]
  0087d	c1 e8 02	 shr	 eax, 2
  00880	8b 4d ec	 mov	 ecx, DWORD PTR _v2$[ebp]
  00883	c1 e1 1e	 shl	 ecx, 30			; 0000001eH
  00886	0b c1		 or	 eax, ecx
  00888	89 45 ec	 mov	 DWORD PTR _v2$[ebp], eax

; 171  :     five_cycle(v, parity, 0x6ed9eba1,  25);

  0088b	8b 55 fc	 mov	 edx, DWORD PTR _w$[ebp]
  0088e	8b 45 fc	 mov	 eax, DWORD PTR _w$[ebp]
  00891	8b 4a 18	 mov	 ecx, DWORD PTR [edx+24]
  00894	33 48 04	 xor	 ecx, DWORD PTR [eax+4]
  00897	8b 55 fc	 mov	 edx, DWORD PTR _w$[ebp]
  0089a	33 4a 2c	 xor	 ecx, DWORD PTR [edx+44]
  0089d	8b 45 fc	 mov	 eax, DWORD PTR _w$[ebp]
  008a0	33 48 24	 xor	 ecx, DWORD PTR [eax+36]
  008a3	d1 e1		 shl	 ecx, 1
  008a5	8b 55 fc	 mov	 edx, DWORD PTR _w$[ebp]
  008a8	8b 45 fc	 mov	 eax, DWORD PTR _w$[ebp]
  008ab	8b 52 18	 mov	 edx, DWORD PTR [edx+24]
  008ae	33 50 04	 xor	 edx, DWORD PTR [eax+4]
  008b1	8b 45 fc	 mov	 eax, DWORD PTR _w$[ebp]
  008b4	33 50 2c	 xor	 edx, DWORD PTR [eax+44]
  008b7	8b 45 fc	 mov	 eax, DWORD PTR _w$[ebp]
  008ba	33 50 24	 xor	 edx, DWORD PTR [eax+36]
  008bd	c1 ea 1f	 shr	 edx, 31			; 0000001fH
  008c0	0b ca		 or	 ecx, edx
  008c2	8b 55 fc	 mov	 edx, DWORD PTR _w$[ebp]
  008c5	89 4a 24	 mov	 DWORD PTR [edx+36], ecx
  008c8	8b 45 f4	 mov	 eax, DWORD PTR _v1$[ebp]
  008cb	33 45 ec	 xor	 eax, DWORD PTR _v2$[ebp]
  008ce	33 45 f8	 xor	 eax, DWORD PTR _v3$[ebp]
  008d1	8b 4d e8	 mov	 ecx, DWORD PTR _v0$[ebp]
  008d4	c1 e1 05	 shl	 ecx, 5
  008d7	8b 55 e8	 mov	 edx, DWORD PTR _v0$[ebp]
  008da	c1 ea 1b	 shr	 edx, 27			; 0000001bH
  008dd	0b d1		 or	 edx, ecx
  008df	03 d0		 add	 edx, eax
  008e1	8b 45 fc	 mov	 eax, DWORD PTR _w$[ebp]
  008e4	8b 48 24	 mov	 ecx, DWORD PTR [eax+36]
  008e7	8d 94 0a a1 eb
	d9 6e		 lea	 edx, DWORD PTR [edx+ecx+1859775393]
  008ee	03 55 f0	 add	 edx, DWORD PTR _v4$[ebp]
  008f1	89 55 f0	 mov	 DWORD PTR _v4$[ebp], edx
  008f4	8b 45 f4	 mov	 eax, DWORD PTR _v1$[ebp]
  008f7	c1 e8 02	 shr	 eax, 2
  008fa	8b 4d f4	 mov	 ecx, DWORD PTR _v1$[ebp]
  008fd	c1 e1 1e	 shl	 ecx, 30			; 0000001eH
  00900	0b c1		 or	 eax, ecx
  00902	89 45 f4	 mov	 DWORD PTR _v1$[ebp], eax
  00905	8b 55 fc	 mov	 edx, DWORD PTR _w$[ebp]
  00908	8b 45 fc	 mov	 eax, DWORD PTR _w$[ebp]
  0090b	8b 4a 1c	 mov	 ecx, DWORD PTR [edx+28]
  0090e	33 48 08	 xor	 ecx, DWORD PTR [eax+8]
  00911	8b 55 fc	 mov	 edx, DWORD PTR _w$[ebp]
  00914	33 4a 30	 xor	 ecx, DWORD PTR [edx+48]
  00917	8b 45 fc	 mov	 eax, DWORD PTR _w$[ebp]
  0091a	33 48 28	 xor	 ecx, DWORD PTR [eax+40]
  0091d	d1 e1		 shl	 ecx, 1
  0091f	8b 55 fc	 mov	 edx, DWORD PTR _w$[ebp]
  00922	8b 45 fc	 mov	 eax, DWORD PTR _w$[ebp]
  00925	8b 52 1c	 mov	 edx, DWORD PTR [edx+28]
  00928	33 50 08	 xor	 edx, DWORD PTR [eax+8]
  0092b	8b 45 fc	 mov	 eax, DWORD PTR _w$[ebp]
  0092e	33 50 30	 xor	 edx, DWORD PTR [eax+48]
  00931	8b 45 fc	 mov	 eax, DWORD PTR _w$[ebp]
  00934	33 50 28	 xor	 edx, DWORD PTR [eax+40]
  00937	c1 ea 1f	 shr	 edx, 31			; 0000001fH
  0093a	0b ca		 or	 ecx, edx
  0093c	8b 55 fc	 mov	 edx, DWORD PTR _w$[ebp]
  0093f	89 4a 28	 mov	 DWORD PTR [edx+40], ecx
  00942	8b 45 e8	 mov	 eax, DWORD PTR _v0$[ebp]
  00945	33 45 f4	 xor	 eax, DWORD PTR _v1$[ebp]
  00948	33 45 ec	 xor	 eax, DWORD PTR _v2$[ebp]
  0094b	8b 4d f0	 mov	 ecx, DWORD PTR _v4$[ebp]
  0094e	c1 e1 05	 shl	 ecx, 5
  00951	8b 55 f0	 mov	 edx, DWORD PTR _v4$[ebp]
  00954	c1 ea 1b	 shr	 edx, 27			; 0000001bH
  00957	0b d1		 or	 edx, ecx
  00959	03 d0		 add	 edx, eax
  0095b	8b 45 fc	 mov	 eax, DWORD PTR _w$[ebp]
  0095e	8b 48 28	 mov	 ecx, DWORD PTR [eax+40]
  00961	8d 94 0a a1 eb
	d9 6e		 lea	 edx, DWORD PTR [edx+ecx+1859775393]
  00968	03 55 f8	 add	 edx, DWORD PTR _v3$[ebp]
  0096b	89 55 f8	 mov	 DWORD PTR _v3$[ebp], edx
  0096e	8b 45 e8	 mov	 eax, DWORD PTR _v0$[ebp]
  00971	c1 e8 02	 shr	 eax, 2
  00974	8b 4d e8	 mov	 ecx, DWORD PTR _v0$[ebp]
  00977	c1 e1 1e	 shl	 ecx, 30			; 0000001eH
  0097a	0b c1		 or	 eax, ecx
  0097c	89 45 e8	 mov	 DWORD PTR _v0$[ebp], eax
  0097f	8b 55 fc	 mov	 edx, DWORD PTR _w$[ebp]
  00982	8b 45 fc	 mov	 eax, DWORD PTR _w$[ebp]
  00985	8b 4a 20	 mov	 ecx, DWORD PTR [edx+32]
  00988	33 48 0c	 xor	 ecx, DWORD PTR [eax+12]
  0098b	8b 55 fc	 mov	 edx, DWORD PTR _w$[ebp]
  0098e	33 4a 34	 xor	 ecx, DWORD PTR [edx+52]
  00991	8b 45 fc	 mov	 eax, DWORD PTR _w$[ebp]
  00994	33 48 2c	 xor	 ecx, DWORD PTR [eax+44]
  00997	d1 e1		 shl	 ecx, 1
  00999	8b 55 fc	 mov	 edx, DWORD PTR _w$[ebp]
  0099c	8b 45 fc	 mov	 eax, DWORD PTR _w$[ebp]
  0099f	8b 52 20	 mov	 edx, DWORD PTR [edx+32]
  009a2	33 50 0c	 xor	 edx, DWORD PTR [eax+12]
  009a5	8b 45 fc	 mov	 eax, DWORD PTR _w$[ebp]
  009a8	33 50 34	 xor	 edx, DWORD PTR [eax+52]
  009ab	8b 45 fc	 mov	 eax, DWORD PTR _w$[ebp]
  009ae	33 50 2c	 xor	 edx, DWORD PTR [eax+44]
  009b1	c1 ea 1f	 shr	 edx, 31			; 0000001fH
  009b4	0b ca		 or	 ecx, edx
  009b6	8b 55 fc	 mov	 edx, DWORD PTR _w$[ebp]
  009b9	89 4a 2c	 mov	 DWORD PTR [edx+44], ecx
  009bc	8b 45 f0	 mov	 eax, DWORD PTR _v4$[ebp]
  009bf	33 45 e8	 xor	 eax, DWORD PTR _v0$[ebp]
  009c2	33 45 f4	 xor	 eax, DWORD PTR _v1$[ebp]
  009c5	8b 4d f8	 mov	 ecx, DWORD PTR _v3$[ebp]
  009c8	c1 e1 05	 shl	 ecx, 5
  009cb	8b 55 f8	 mov	 edx, DWORD PTR _v3$[ebp]
  009ce	c1 ea 1b	 shr	 edx, 27			; 0000001bH
  009d1	0b d1		 or	 edx, ecx
  009d3	03 d0		 add	 edx, eax
  009d5	8b 45 fc	 mov	 eax, DWORD PTR _w$[ebp]
  009d8	8b 48 2c	 mov	 ecx, DWORD PTR [eax+44]
  009db	8d 94 0a a1 eb
	d9 6e		 lea	 edx, DWORD PTR [edx+ecx+1859775393]
  009e2	03 55 ec	 add	 edx, DWORD PTR _v2$[ebp]
  009e5	89 55 ec	 mov	 DWORD PTR _v2$[ebp], edx
  009e8	8b 45 f0	 mov	 eax, DWORD PTR _v4$[ebp]
  009eb	c1 e8 02	 shr	 eax, 2
  009ee	8b 4d f0	 mov	 ecx, DWORD PTR _v4$[ebp]
  009f1	c1 e1 1e	 shl	 ecx, 30			; 0000001eH
  009f4	0b c1		 or	 eax, ecx
  009f6	89 45 f0	 mov	 DWORD PTR _v4$[ebp], eax
  009f9	8b 55 fc	 mov	 edx, DWORD PTR _w$[ebp]
  009fc	8b 45 fc	 mov	 eax, DWORD PTR _w$[ebp]
  009ff	8b 4a 24	 mov	 ecx, DWORD PTR [edx+36]
  00a02	33 48 10	 xor	 ecx, DWORD PTR [eax+16]
  00a05	8b 55 fc	 mov	 edx, DWORD PTR _w$[ebp]
  00a08	33 4a 38	 xor	 ecx, DWORD PTR [edx+56]
  00a0b	8b 45 fc	 mov	 eax, DWORD PTR _w$[ebp]
  00a0e	33 48 30	 xor	 ecx, DWORD PTR [eax+48]
  00a11	d1 e1		 shl	 ecx, 1
  00a13	8b 55 fc	 mov	 edx, DWORD PTR _w$[ebp]
  00a16	8b 45 fc	 mov	 eax, DWORD PTR _w$[ebp]
  00a19	8b 52 24	 mov	 edx, DWORD PTR [edx+36]
  00a1c	33 50 10	 xor	 edx, DWORD PTR [eax+16]
  00a1f	8b 45 fc	 mov	 eax, DWORD PTR _w$[ebp]
  00a22	33 50 38	 xor	 edx, DWORD PTR [eax+56]
  00a25	8b 45 fc	 mov	 eax, DWORD PTR _w$[ebp]
  00a28	33 50 30	 xor	 edx, DWORD PTR [eax+48]
  00a2b	c1 ea 1f	 shr	 edx, 31			; 0000001fH
  00a2e	0b ca		 or	 ecx, edx
  00a30	8b 55 fc	 mov	 edx, DWORD PTR _w$[ebp]
  00a33	89 4a 30	 mov	 DWORD PTR [edx+48], ecx
  00a36	8b 45 f8	 mov	 eax, DWORD PTR _v3$[ebp]
  00a39	33 45 f0	 xor	 eax, DWORD PTR _v4$[ebp]
  00a3c	33 45 e8	 xor	 eax, DWORD PTR _v0$[ebp]
  00a3f	8b 4d ec	 mov	 ecx, DWORD PTR _v2$[ebp]
  00a42	c1 e1 05	 shl	 ecx, 5
  00a45	8b 55 ec	 mov	 edx, DWORD PTR _v2$[ebp]
  00a48	c1 ea 1b	 shr	 edx, 27			; 0000001bH
  00a4b	0b d1		 or	 edx, ecx
  00a4d	03 d0		 add	 edx, eax
  00a4f	8b 45 fc	 mov	 eax, DWORD PTR _w$[ebp]
  00a52	8b 48 30	 mov	 ecx, DWORD PTR [eax+48]
  00a55	8d 94 0a a1 eb
	d9 6e		 lea	 edx, DWORD PTR [edx+ecx+1859775393]
  00a5c	03 55 f4	 add	 edx, DWORD PTR _v1$[ebp]
  00a5f	89 55 f4	 mov	 DWORD PTR _v1$[ebp], edx
  00a62	8b 45 f8	 mov	 eax, DWORD PTR _v3$[ebp]
  00a65	c1 e8 02	 shr	 eax, 2
  00a68	8b 4d f8	 mov	 ecx, DWORD PTR _v3$[ebp]
  00a6b	c1 e1 1e	 shl	 ecx, 30			; 0000001eH
  00a6e	0b c1		 or	 eax, ecx
  00a70	89 45 f8	 mov	 DWORD PTR _v3$[ebp], eax
  00a73	8b 55 fc	 mov	 edx, DWORD PTR _w$[ebp]
  00a76	8b 45 fc	 mov	 eax, DWORD PTR _w$[ebp]
  00a79	8b 4a 28	 mov	 ecx, DWORD PTR [edx+40]
  00a7c	33 48 14	 xor	 ecx, DWORD PTR [eax+20]
  00a7f	8b 55 fc	 mov	 edx, DWORD PTR _w$[ebp]
  00a82	33 4a 3c	 xor	 ecx, DWORD PTR [edx+60]
  00a85	8b 45 fc	 mov	 eax, DWORD PTR _w$[ebp]
  00a88	33 48 34	 xor	 ecx, DWORD PTR [eax+52]
  00a8b	d1 e1		 shl	 ecx, 1
  00a8d	8b 55 fc	 mov	 edx, DWORD PTR _w$[ebp]
  00a90	8b 45 fc	 mov	 eax, DWORD PTR _w$[ebp]
  00a93	8b 52 28	 mov	 edx, DWORD PTR [edx+40]
  00a96	33 50 14	 xor	 edx, DWORD PTR [eax+20]
  00a99	8b 45 fc	 mov	 eax, DWORD PTR _w$[ebp]
  00a9c	33 50 3c	 xor	 edx, DWORD PTR [eax+60]
  00a9f	8b 45 fc	 mov	 eax, DWORD PTR _w$[ebp]
  00aa2	33 50 34	 xor	 edx, DWORD PTR [eax+52]
  00aa5	c1 ea 1f	 shr	 edx, 31			; 0000001fH
  00aa8	0b ca		 or	 ecx, edx
  00aaa	8b 55 fc	 mov	 edx, DWORD PTR _w$[ebp]
  00aad	89 4a 34	 mov	 DWORD PTR [edx+52], ecx
  00ab0	8b 45 ec	 mov	 eax, DWORD PTR _v2$[ebp]
  00ab3	33 45 f8	 xor	 eax, DWORD PTR _v3$[ebp]
  00ab6	33 45 f0	 xor	 eax, DWORD PTR _v4$[ebp]
  00ab9	8b 4d f4	 mov	 ecx, DWORD PTR _v1$[ebp]
  00abc	c1 e1 05	 shl	 ecx, 5
  00abf	8b 55 f4	 mov	 edx, DWORD PTR _v1$[ebp]
  00ac2	c1 ea 1b	 shr	 edx, 27			; 0000001bH
  00ac5	0b d1		 or	 edx, ecx
  00ac7	03 d0		 add	 edx, eax
  00ac9	8b 45 fc	 mov	 eax, DWORD PTR _w$[ebp]
  00acc	8b 48 34	 mov	 ecx, DWORD PTR [eax+52]
  00acf	8d 94 0a a1 eb
	d9 6e		 lea	 edx, DWORD PTR [edx+ecx+1859775393]
  00ad6	03 55 e8	 add	 edx, DWORD PTR _v0$[ebp]
  00ad9	89 55 e8	 mov	 DWORD PTR _v0$[ebp], edx
  00adc	8b 45 ec	 mov	 eax, DWORD PTR _v2$[ebp]
  00adf	c1 e8 02	 shr	 eax, 2
  00ae2	8b 4d ec	 mov	 ecx, DWORD PTR _v2$[ebp]
  00ae5	c1 e1 1e	 shl	 ecx, 30			; 0000001eH
  00ae8	0b c1		 or	 eax, ecx
  00aea	89 45 ec	 mov	 DWORD PTR _v2$[ebp], eax

; 172  :     five_cycle(v, parity, 0x6ed9eba1,  30);

  00aed	8b 55 fc	 mov	 edx, DWORD PTR _w$[ebp]
  00af0	8b 45 fc	 mov	 eax, DWORD PTR _w$[ebp]
  00af3	8b 4a 2c	 mov	 ecx, DWORD PTR [edx+44]
  00af6	33 48 18	 xor	 ecx, DWORD PTR [eax+24]
  00af9	8b 55 fc	 mov	 edx, DWORD PTR _w$[ebp]
  00afc	33 0a		 xor	 ecx, DWORD PTR [edx]
  00afe	8b 45 fc	 mov	 eax, DWORD PTR _w$[ebp]
  00b01	33 48 38	 xor	 ecx, DWORD PTR [eax+56]
  00b04	d1 e1		 shl	 ecx, 1
  00b06	8b 55 fc	 mov	 edx, DWORD PTR _w$[ebp]
  00b09	8b 45 fc	 mov	 eax, DWORD PTR _w$[ebp]
  00b0c	8b 52 2c	 mov	 edx, DWORD PTR [edx+44]
  00b0f	33 50 18	 xor	 edx, DWORD PTR [eax+24]
  00b12	8b 45 fc	 mov	 eax, DWORD PTR _w$[ebp]
  00b15	33 10		 xor	 edx, DWORD PTR [eax]
  00b17	8b 45 fc	 mov	 eax, DWORD PTR _w$[ebp]
  00b1a	33 50 38	 xor	 edx, DWORD PTR [eax+56]
  00b1d	c1 ea 1f	 shr	 edx, 31			; 0000001fH
  00b20	0b ca		 or	 ecx, edx
  00b22	8b 55 fc	 mov	 edx, DWORD PTR _w$[ebp]
  00b25	89 4a 38	 mov	 DWORD PTR [edx+56], ecx
  00b28	8b 45 f4	 mov	 eax, DWORD PTR _v1$[ebp]
  00b2b	33 45 ec	 xor	 eax, DWORD PTR _v2$[ebp]
  00b2e	33 45 f8	 xor	 eax, DWORD PTR _v3$[ebp]
  00b31	8b 4d e8	 mov	 ecx, DWORD PTR _v0$[ebp]
  00b34	c1 e1 05	 shl	 ecx, 5
  00b37	8b 55 e8	 mov	 edx, DWORD PTR _v0$[ebp]
  00b3a	c1 ea 1b	 shr	 edx, 27			; 0000001bH
  00b3d	0b d1		 or	 edx, ecx
  00b3f	03 d0		 add	 edx, eax
  00b41	8b 45 fc	 mov	 eax, DWORD PTR _w$[ebp]
  00b44	8b 48 38	 mov	 ecx, DWORD PTR [eax+56]
  00b47	8d 94 0a a1 eb
	d9 6e		 lea	 edx, DWORD PTR [edx+ecx+1859775393]
  00b4e	03 55 f0	 add	 edx, DWORD PTR _v4$[ebp]
  00b51	89 55 f0	 mov	 DWORD PTR _v4$[ebp], edx
  00b54	8b 45 f4	 mov	 eax, DWORD PTR _v1$[ebp]
  00b57	c1 e8 02	 shr	 eax, 2
  00b5a	8b 4d f4	 mov	 ecx, DWORD PTR _v1$[ebp]
  00b5d	c1 e1 1e	 shl	 ecx, 30			; 0000001eH
  00b60	0b c1		 or	 eax, ecx
  00b62	89 45 f4	 mov	 DWORD PTR _v1$[ebp], eax
  00b65	8b 55 fc	 mov	 edx, DWORD PTR _w$[ebp]
  00b68	8b 45 fc	 mov	 eax, DWORD PTR _w$[ebp]
  00b6b	8b 4a 30	 mov	 ecx, DWORD PTR [edx+48]
  00b6e	33 48 1c	 xor	 ecx, DWORD PTR [eax+28]
  00b71	8b 55 fc	 mov	 edx, DWORD PTR _w$[ebp]
  00b74	33 4a 04	 xor	 ecx, DWORD PTR [edx+4]
  00b77	8b 45 fc	 mov	 eax, DWORD PTR _w$[ebp]
  00b7a	33 48 3c	 xor	 ecx, DWORD PTR [eax+60]
  00b7d	d1 e1		 shl	 ecx, 1
  00b7f	8b 55 fc	 mov	 edx, DWORD PTR _w$[ebp]
  00b82	8b 45 fc	 mov	 eax, DWORD PTR _w$[ebp]
  00b85	8b 52 30	 mov	 edx, DWORD PTR [edx+48]
  00b88	33 50 1c	 xor	 edx, DWORD PTR [eax+28]
  00b8b	8b 45 fc	 mov	 eax, DWORD PTR _w$[ebp]
  00b8e	33 50 04	 xor	 edx, DWORD PTR [eax+4]
  00b91	8b 45 fc	 mov	 eax, DWORD PTR _w$[ebp]
  00b94	33 50 3c	 xor	 edx, DWORD PTR [eax+60]
  00b97	c1 ea 1f	 shr	 edx, 31			; 0000001fH
  00b9a	0b ca		 or	 ecx, edx
  00b9c	8b 55 fc	 mov	 edx, DWORD PTR _w$[ebp]
  00b9f	89 4a 3c	 mov	 DWORD PTR [edx+60], ecx
  00ba2	8b 45 e8	 mov	 eax, DWORD PTR _v0$[ebp]
  00ba5	33 45 f4	 xor	 eax, DWORD PTR _v1$[ebp]
  00ba8	33 45 ec	 xor	 eax, DWORD PTR _v2$[ebp]
  00bab	8b 4d f0	 mov	 ecx, DWORD PTR _v4$[ebp]
  00bae	c1 e1 05	 shl	 ecx, 5
  00bb1	8b 55 f0	 mov	 edx, DWORD PTR _v4$[ebp]
  00bb4	c1 ea 1b	 shr	 edx, 27			; 0000001bH
  00bb7	0b d1		 or	 edx, ecx
  00bb9	03 d0		 add	 edx, eax
  00bbb	8b 45 fc	 mov	 eax, DWORD PTR _w$[ebp]
  00bbe	8b 48 3c	 mov	 ecx, DWORD PTR [eax+60]
  00bc1	8d 94 0a a1 eb
	d9 6e		 lea	 edx, DWORD PTR [edx+ecx+1859775393]
  00bc8	03 55 f8	 add	 edx, DWORD PTR _v3$[ebp]
  00bcb	89 55 f8	 mov	 DWORD PTR _v3$[ebp], edx
  00bce	8b 45 e8	 mov	 eax, DWORD PTR _v0$[ebp]
  00bd1	c1 e8 02	 shr	 eax, 2
  00bd4	8b 4d e8	 mov	 ecx, DWORD PTR _v0$[ebp]
  00bd7	c1 e1 1e	 shl	 ecx, 30			; 0000001eH
  00bda	0b c1		 or	 eax, ecx
  00bdc	89 45 e8	 mov	 DWORD PTR _v0$[ebp], eax
  00bdf	8b 55 fc	 mov	 edx, DWORD PTR _w$[ebp]
  00be2	8b 45 fc	 mov	 eax, DWORD PTR _w$[ebp]
  00be5	8b 4a 34	 mov	 ecx, DWORD PTR [edx+52]
  00be8	33 48 20	 xor	 ecx, DWORD PTR [eax+32]
  00beb	8b 55 fc	 mov	 edx, DWORD PTR _w$[ebp]
  00bee	33 4a 08	 xor	 ecx, DWORD PTR [edx+8]
  00bf1	8b 45 fc	 mov	 eax, DWORD PTR _w$[ebp]
  00bf4	33 08		 xor	 ecx, DWORD PTR [eax]
  00bf6	d1 e1		 shl	 ecx, 1
  00bf8	8b 55 fc	 mov	 edx, DWORD PTR _w$[ebp]
  00bfb	8b 45 fc	 mov	 eax, DWORD PTR _w$[ebp]
  00bfe	8b 52 34	 mov	 edx, DWORD PTR [edx+52]
  00c01	33 50 20	 xor	 edx, DWORD PTR [eax+32]
  00c04	8b 45 fc	 mov	 eax, DWORD PTR _w$[ebp]
  00c07	33 50 08	 xor	 edx, DWORD PTR [eax+8]
  00c0a	8b 45 fc	 mov	 eax, DWORD PTR _w$[ebp]
  00c0d	33 10		 xor	 edx, DWORD PTR [eax]
  00c0f	c1 ea 1f	 shr	 edx, 31			; 0000001fH
  00c12	0b ca		 or	 ecx, edx
  00c14	8b 55 fc	 mov	 edx, DWORD PTR _w$[ebp]
  00c17	89 0a		 mov	 DWORD PTR [edx], ecx
  00c19	8b 45 f0	 mov	 eax, DWORD PTR _v4$[ebp]
  00c1c	33 45 e8	 xor	 eax, DWORD PTR _v0$[ebp]
  00c1f	33 45 f4	 xor	 eax, DWORD PTR _v1$[ebp]
  00c22	8b 4d f8	 mov	 ecx, DWORD PTR _v3$[ebp]
  00c25	c1 e1 05	 shl	 ecx, 5
  00c28	8b 55 f8	 mov	 edx, DWORD PTR _v3$[ebp]
  00c2b	c1 ea 1b	 shr	 edx, 27			; 0000001bH
  00c2e	0b d1		 or	 edx, ecx
  00c30	03 d0		 add	 edx, eax
  00c32	8b 45 fc	 mov	 eax, DWORD PTR _w$[ebp]
  00c35	8b 08		 mov	 ecx, DWORD PTR [eax]
  00c37	8d 94 0a a1 eb
	d9 6e		 lea	 edx, DWORD PTR [edx+ecx+1859775393]
  00c3e	03 55 ec	 add	 edx, DWORD PTR _v2$[ebp]
  00c41	89 55 ec	 mov	 DWORD PTR _v2$[ebp], edx
  00c44	8b 45 f0	 mov	 eax, DWORD PTR _v4$[ebp]
  00c47	c1 e8 02	 shr	 eax, 2
  00c4a	8b 4d f0	 mov	 ecx, DWORD PTR _v4$[ebp]
  00c4d	c1 e1 1e	 shl	 ecx, 30			; 0000001eH
  00c50	0b c1		 or	 eax, ecx
  00c52	89 45 f0	 mov	 DWORD PTR _v4$[ebp], eax
  00c55	8b 55 fc	 mov	 edx, DWORD PTR _w$[ebp]
  00c58	8b 45 fc	 mov	 eax, DWORD PTR _w$[ebp]
  00c5b	8b 4a 38	 mov	 ecx, DWORD PTR [edx+56]
  00c5e	33 48 24	 xor	 ecx, DWORD PTR [eax+36]
  00c61	8b 55 fc	 mov	 edx, DWORD PTR _w$[ebp]
  00c64	33 4a 0c	 xor	 ecx, DWORD PTR [edx+12]
  00c67	8b 45 fc	 mov	 eax, DWORD PTR _w$[ebp]
  00c6a	33 48 04	 xor	 ecx, DWORD PTR [eax+4]
  00c6d	d1 e1		 shl	 ecx, 1
  00c6f	8b 55 fc	 mov	 edx, DWORD PTR _w$[ebp]
  00c72	8b 45 fc	 mov	 eax, DWORD PTR _w$[ebp]
  00c75	8b 52 38	 mov	 edx, DWORD PTR [edx+56]
  00c78	33 50 24	 xor	 edx, DWORD PTR [eax+36]
  00c7b	8b 45 fc	 mov	 eax, DWORD PTR _w$[ebp]
  00c7e	33 50 0c	 xor	 edx, DWORD PTR [eax+12]
  00c81	8b 45 fc	 mov	 eax, DWORD PTR _w$[ebp]
  00c84	33 50 04	 xor	 edx, DWORD PTR [eax+4]
  00c87	c1 ea 1f	 shr	 edx, 31			; 0000001fH
  00c8a	0b ca		 or	 ecx, edx
  00c8c	8b 55 fc	 mov	 edx, DWORD PTR _w$[ebp]
  00c8f	89 4a 04	 mov	 DWORD PTR [edx+4], ecx
  00c92	8b 45 f8	 mov	 eax, DWORD PTR _v3$[ebp]
  00c95	33 45 f0	 xor	 eax, DWORD PTR _v4$[ebp]
  00c98	33 45 e8	 xor	 eax, DWORD PTR _v0$[ebp]
  00c9b	8b 4d ec	 mov	 ecx, DWORD PTR _v2$[ebp]
  00c9e	c1 e1 05	 shl	 ecx, 5
  00ca1	8b 55 ec	 mov	 edx, DWORD PTR _v2$[ebp]
  00ca4	c1 ea 1b	 shr	 edx, 27			; 0000001bH
  00ca7	0b d1		 or	 edx, ecx
  00ca9	03 d0		 add	 edx, eax
  00cab	8b 45 fc	 mov	 eax, DWORD PTR _w$[ebp]
  00cae	8b 48 04	 mov	 ecx, DWORD PTR [eax+4]
  00cb1	8d 94 0a a1 eb
	d9 6e		 lea	 edx, DWORD PTR [edx+ecx+1859775393]
  00cb8	03 55 f4	 add	 edx, DWORD PTR _v1$[ebp]
  00cbb	89 55 f4	 mov	 DWORD PTR _v1$[ebp], edx
  00cbe	8b 45 f8	 mov	 eax, DWORD PTR _v3$[ebp]
  00cc1	c1 e8 02	 shr	 eax, 2
  00cc4	8b 4d f8	 mov	 ecx, DWORD PTR _v3$[ebp]
  00cc7	c1 e1 1e	 shl	 ecx, 30			; 0000001eH
  00cca	0b c1		 or	 eax, ecx
  00ccc	89 45 f8	 mov	 DWORD PTR _v3$[ebp], eax
  00ccf	8b 55 fc	 mov	 edx, DWORD PTR _w$[ebp]
  00cd2	8b 45 fc	 mov	 eax, DWORD PTR _w$[ebp]
  00cd5	8b 4a 3c	 mov	 ecx, DWORD PTR [edx+60]
  00cd8	33 48 28	 xor	 ecx, DWORD PTR [eax+40]
  00cdb	8b 55 fc	 mov	 edx, DWORD PTR _w$[ebp]
  00cde	33 4a 10	 xor	 ecx, DWORD PTR [edx+16]
  00ce1	8b 45 fc	 mov	 eax, DWORD PTR _w$[ebp]
  00ce4	33 48 08	 xor	 ecx, DWORD PTR [eax+8]
  00ce7	d1 e1		 shl	 ecx, 1
  00ce9	8b 55 fc	 mov	 edx, DWORD PTR _w$[ebp]
  00cec	8b 45 fc	 mov	 eax, DWORD PTR _w$[ebp]
  00cef	8b 52 3c	 mov	 edx, DWORD PTR [edx+60]
  00cf2	33 50 28	 xor	 edx, DWORD PTR [eax+40]
  00cf5	8b 45 fc	 mov	 eax, DWORD PTR _w$[ebp]
  00cf8	33 50 10	 xor	 edx, DWORD PTR [eax+16]
  00cfb	8b 45 fc	 mov	 eax, DWORD PTR _w$[ebp]
  00cfe	33 50 08	 xor	 edx, DWORD PTR [eax+8]
  00d01	c1 ea 1f	 shr	 edx, 31			; 0000001fH
  00d04	0b ca		 or	 ecx, edx
  00d06	8b 55 fc	 mov	 edx, DWORD PTR _w$[ebp]
  00d09	89 4a 08	 mov	 DWORD PTR [edx+8], ecx
  00d0c	8b 45 ec	 mov	 eax, DWORD PTR _v2$[ebp]
  00d0f	33 45 f8	 xor	 eax, DWORD PTR _v3$[ebp]
  00d12	33 45 f0	 xor	 eax, DWORD PTR _v4$[ebp]
  00d15	8b 4d f4	 mov	 ecx, DWORD PTR _v1$[ebp]
  00d18	c1 e1 05	 shl	 ecx, 5
  00d1b	8b 55 f4	 mov	 edx, DWORD PTR _v1$[ebp]
  00d1e	c1 ea 1b	 shr	 edx, 27			; 0000001bH
  00d21	0b d1		 or	 edx, ecx
  00d23	03 d0		 add	 edx, eax
  00d25	8b 45 fc	 mov	 eax, DWORD PTR _w$[ebp]
  00d28	8b 48 08	 mov	 ecx, DWORD PTR [eax+8]
  00d2b	8d 94 0a a1 eb
	d9 6e		 lea	 edx, DWORD PTR [edx+ecx+1859775393]
  00d32	03 55 e8	 add	 edx, DWORD PTR _v0$[ebp]
  00d35	89 55 e8	 mov	 DWORD PTR _v0$[ebp], edx
  00d38	8b 45 ec	 mov	 eax, DWORD PTR _v2$[ebp]
  00d3b	c1 e8 02	 shr	 eax, 2
  00d3e	8b 4d ec	 mov	 ecx, DWORD PTR _v2$[ebp]
  00d41	c1 e1 1e	 shl	 ecx, 30			; 0000001eH
  00d44	0b c1		 or	 eax, ecx
  00d46	89 45 ec	 mov	 DWORD PTR _v2$[ebp], eax

; 173  :     five_cycle(v, parity, 0x6ed9eba1,  35);

  00d49	8b 55 fc	 mov	 edx, DWORD PTR _w$[ebp]
  00d4c	8b 45 fc	 mov	 eax, DWORD PTR _w$[ebp]
  00d4f	8b 0a		 mov	 ecx, DWORD PTR [edx]
  00d51	33 48 2c	 xor	 ecx, DWORD PTR [eax+44]
  00d54	8b 55 fc	 mov	 edx, DWORD PTR _w$[ebp]
  00d57	33 4a 14	 xor	 ecx, DWORD PTR [edx+20]
  00d5a	8b 45 fc	 mov	 eax, DWORD PTR _w$[ebp]
  00d5d	33 48 0c	 xor	 ecx, DWORD PTR [eax+12]
  00d60	d1 e1		 shl	 ecx, 1
  00d62	8b 55 fc	 mov	 edx, DWORD PTR _w$[ebp]
  00d65	8b 45 fc	 mov	 eax, DWORD PTR _w$[ebp]
  00d68	8b 12		 mov	 edx, DWORD PTR [edx]
  00d6a	33 50 2c	 xor	 edx, DWORD PTR [eax+44]
  00d6d	8b 45 fc	 mov	 eax, DWORD PTR _w$[ebp]
  00d70	33 50 14	 xor	 edx, DWORD PTR [eax+20]
  00d73	8b 45 fc	 mov	 eax, DWORD PTR _w$[ebp]
  00d76	33 50 0c	 xor	 edx, DWORD PTR [eax+12]
  00d79	c1 ea 1f	 shr	 edx, 31			; 0000001fH
  00d7c	0b ca		 or	 ecx, edx
  00d7e	8b 55 fc	 mov	 edx, DWORD PTR _w$[ebp]
  00d81	89 4a 0c	 mov	 DWORD PTR [edx+12], ecx
  00d84	8b 45 f4	 mov	 eax, DWORD PTR _v1$[ebp]
  00d87	33 45 ec	 xor	 eax, DWORD PTR _v2$[ebp]
  00d8a	33 45 f8	 xor	 eax, DWORD PTR _v3$[ebp]
  00d8d	8b 4d e8	 mov	 ecx, DWORD PTR _v0$[ebp]
  00d90	c1 e1 05	 shl	 ecx, 5
  00d93	8b 55 e8	 mov	 edx, DWORD PTR _v0$[ebp]
  00d96	c1 ea 1b	 shr	 edx, 27			; 0000001bH
  00d99	0b d1		 or	 edx, ecx
  00d9b	03 d0		 add	 edx, eax
  00d9d	8b 45 fc	 mov	 eax, DWORD PTR _w$[ebp]
  00da0	8b 48 0c	 mov	 ecx, DWORD PTR [eax+12]
  00da3	8d 94 0a a1 eb
	d9 6e		 lea	 edx, DWORD PTR [edx+ecx+1859775393]
  00daa	03 55 f0	 add	 edx, DWORD PTR _v4$[ebp]
  00dad	89 55 f0	 mov	 DWORD PTR _v4$[ebp], edx
  00db0	8b 45 f4	 mov	 eax, DWORD PTR _v1$[ebp]
  00db3	c1 e8 02	 shr	 eax, 2
  00db6	8b 4d f4	 mov	 ecx, DWORD PTR _v1$[ebp]
  00db9	c1 e1 1e	 shl	 ecx, 30			; 0000001eH
  00dbc	0b c1		 or	 eax, ecx
  00dbe	89 45 f4	 mov	 DWORD PTR _v1$[ebp], eax
  00dc1	8b 55 fc	 mov	 edx, DWORD PTR _w$[ebp]
  00dc4	8b 45 fc	 mov	 eax, DWORD PTR _w$[ebp]
  00dc7	8b 4a 04	 mov	 ecx, DWORD PTR [edx+4]
  00dca	33 48 30	 xor	 ecx, DWORD PTR [eax+48]
  00dcd	8b 55 fc	 mov	 edx, DWORD PTR _w$[ebp]
  00dd0	33 4a 18	 xor	 ecx, DWORD PTR [edx+24]
  00dd3	8b 45 fc	 mov	 eax, DWORD PTR _w$[ebp]
  00dd6	33 48 10	 xor	 ecx, DWORD PTR [eax+16]
  00dd9	d1 e1		 shl	 ecx, 1
  00ddb	8b 55 fc	 mov	 edx, DWORD PTR _w$[ebp]
  00dde	8b 45 fc	 mov	 eax, DWORD PTR _w$[ebp]
  00de1	8b 52 04	 mov	 edx, DWORD PTR [edx+4]
  00de4	33 50 30	 xor	 edx, DWORD PTR [eax+48]
  00de7	8b 45 fc	 mov	 eax, DWORD PTR _w$[ebp]
  00dea	33 50 18	 xor	 edx, DWORD PTR [eax+24]
  00ded	8b 45 fc	 mov	 eax, DWORD PTR _w$[ebp]
  00df0	33 50 10	 xor	 edx, DWORD PTR [eax+16]
  00df3	c1 ea 1f	 shr	 edx, 31			; 0000001fH
  00df6	0b ca		 or	 ecx, edx
  00df8	8b 55 fc	 mov	 edx, DWORD PTR _w$[ebp]
  00dfb	89 4a 10	 mov	 DWORD PTR [edx+16], ecx
  00dfe	8b 45 e8	 mov	 eax, DWORD PTR _v0$[ebp]
  00e01	33 45 f4	 xor	 eax, DWORD PTR _v1$[ebp]
  00e04	33 45 ec	 xor	 eax, DWORD PTR _v2$[ebp]
  00e07	8b 4d f0	 mov	 ecx, DWORD PTR _v4$[ebp]
  00e0a	c1 e1 05	 shl	 ecx, 5
  00e0d	8b 55 f0	 mov	 edx, DWORD PTR _v4$[ebp]
  00e10	c1 ea 1b	 shr	 edx, 27			; 0000001bH
  00e13	0b d1		 or	 edx, ecx
  00e15	03 d0		 add	 edx, eax
  00e17	8b 45 fc	 mov	 eax, DWORD PTR _w$[ebp]
  00e1a	8b 48 10	 mov	 ecx, DWORD PTR [eax+16]
  00e1d	8d 94 0a a1 eb
	d9 6e		 lea	 edx, DWORD PTR [edx+ecx+1859775393]
  00e24	03 55 f8	 add	 edx, DWORD PTR _v3$[ebp]
  00e27	89 55 f8	 mov	 DWORD PTR _v3$[ebp], edx
  00e2a	8b 45 e8	 mov	 eax, DWORD PTR _v0$[ebp]
  00e2d	c1 e8 02	 shr	 eax, 2
  00e30	8b 4d e8	 mov	 ecx, DWORD PTR _v0$[ebp]
  00e33	c1 e1 1e	 shl	 ecx, 30			; 0000001eH
  00e36	0b c1		 or	 eax, ecx
  00e38	89 45 e8	 mov	 DWORD PTR _v0$[ebp], eax
  00e3b	8b 55 fc	 mov	 edx, DWORD PTR _w$[ebp]
  00e3e	8b 45 fc	 mov	 eax, DWORD PTR _w$[ebp]
  00e41	8b 4a 08	 mov	 ecx, DWORD PTR [edx+8]
  00e44	33 48 34	 xor	 ecx, DWORD PTR [eax+52]
  00e47	8b 55 fc	 mov	 edx, DWORD PTR _w$[ebp]
  00e4a	33 4a 1c	 xor	 ecx, DWORD PTR [edx+28]
  00e4d	8b 45 fc	 mov	 eax, DWORD PTR _w$[ebp]
  00e50	33 48 14	 xor	 ecx, DWORD PTR [eax+20]
  00e53	d1 e1		 shl	 ecx, 1
  00e55	8b 55 fc	 mov	 edx, DWORD PTR _w$[ebp]
  00e58	8b 45 fc	 mov	 eax, DWORD PTR _w$[ebp]
  00e5b	8b 52 08	 mov	 edx, DWORD PTR [edx+8]
  00e5e	33 50 34	 xor	 edx, DWORD PTR [eax+52]
  00e61	8b 45 fc	 mov	 eax, DWORD PTR _w$[ebp]
  00e64	33 50 1c	 xor	 edx, DWORD PTR [eax+28]
  00e67	8b 45 fc	 mov	 eax, DWORD PTR _w$[ebp]
  00e6a	33 50 14	 xor	 edx, DWORD PTR [eax+20]
  00e6d	c1 ea 1f	 shr	 edx, 31			; 0000001fH
  00e70	0b ca		 or	 ecx, edx
  00e72	8b 55 fc	 mov	 edx, DWORD PTR _w$[ebp]
  00e75	89 4a 14	 mov	 DWORD PTR [edx+20], ecx
  00e78	8b 45 f0	 mov	 eax, DWORD PTR _v4$[ebp]
  00e7b	33 45 e8	 xor	 eax, DWORD PTR _v0$[ebp]
  00e7e	33 45 f4	 xor	 eax, DWORD PTR _v1$[ebp]
  00e81	8b 4d f8	 mov	 ecx, DWORD PTR _v3$[ebp]
  00e84	c1 e1 05	 shl	 ecx, 5
  00e87	8b 55 f8	 mov	 edx, DWORD PTR _v3$[ebp]
  00e8a	c1 ea 1b	 shr	 edx, 27			; 0000001bH
  00e8d	0b d1		 or	 edx, ecx
  00e8f	03 d0		 add	 edx, eax
  00e91	8b 45 fc	 mov	 eax, DWORD PTR _w$[ebp]
  00e94	8b 48 14	 mov	 ecx, DWORD PTR [eax+20]
  00e97	8d 94 0a a1 eb
	d9 6e		 lea	 edx, DWORD PTR [edx+ecx+1859775393]
  00e9e	03 55 ec	 add	 edx, DWORD PTR _v2$[ebp]
  00ea1	89 55 ec	 mov	 DWORD PTR _v2$[ebp], edx
  00ea4	8b 45 f0	 mov	 eax, DWORD PTR _v4$[ebp]
  00ea7	c1 e8 02	 shr	 eax, 2
  00eaa	8b 4d f0	 mov	 ecx, DWORD PTR _v4$[ebp]
  00ead	c1 e1 1e	 shl	 ecx, 30			; 0000001eH
  00eb0	0b c1		 or	 eax, ecx
  00eb2	89 45 f0	 mov	 DWORD PTR _v4$[ebp], eax
  00eb5	8b 55 fc	 mov	 edx, DWORD PTR _w$[ebp]
  00eb8	8b 45 fc	 mov	 eax, DWORD PTR _w$[ebp]
  00ebb	8b 4a 0c	 mov	 ecx, DWORD PTR [edx+12]
  00ebe	33 48 38	 xor	 ecx, DWORD PTR [eax+56]
  00ec1	8b 55 fc	 mov	 edx, DWORD PTR _w$[ebp]
  00ec4	33 4a 20	 xor	 ecx, DWORD PTR [edx+32]
  00ec7	8b 45 fc	 mov	 eax, DWORD PTR _w$[ebp]
  00eca	33 48 18	 xor	 ecx, DWORD PTR [eax+24]
  00ecd	d1 e1		 shl	 ecx, 1
  00ecf	8b 55 fc	 mov	 edx, DWORD PTR _w$[ebp]
  00ed2	8b 45 fc	 mov	 eax, DWORD PTR _w$[ebp]
  00ed5	8b 52 0c	 mov	 edx, DWORD PTR [edx+12]
  00ed8	33 50 38	 xor	 edx, DWORD PTR [eax+56]
  00edb	8b 45 fc	 mov	 eax, DWORD PTR _w$[ebp]
  00ede	33 50 20	 xor	 edx, DWORD PTR [eax+32]
  00ee1	8b 45 fc	 mov	 eax, DWORD PTR _w$[ebp]
  00ee4	33 50 18	 xor	 edx, DWORD PTR [eax+24]
  00ee7	c1 ea 1f	 shr	 edx, 31			; 0000001fH
  00eea	0b ca		 or	 ecx, edx
  00eec	8b 55 fc	 mov	 edx, DWORD PTR _w$[ebp]
  00eef	89 4a 18	 mov	 DWORD PTR [edx+24], ecx
  00ef2	8b 45 f8	 mov	 eax, DWORD PTR _v3$[ebp]
  00ef5	33 45 f0	 xor	 eax, DWORD PTR _v4$[ebp]
  00ef8	33 45 e8	 xor	 eax, DWORD PTR _v0$[ebp]
  00efb	8b 4d ec	 mov	 ecx, DWORD PTR _v2$[ebp]
  00efe	c1 e1 05	 shl	 ecx, 5
  00f01	8b 55 ec	 mov	 edx, DWORD PTR _v2$[ebp]
  00f04	c1 ea 1b	 shr	 edx, 27			; 0000001bH
  00f07	0b d1		 or	 edx, ecx
  00f09	03 d0		 add	 edx, eax
  00f0b	8b 45 fc	 mov	 eax, DWORD PTR _w$[ebp]
  00f0e	8b 48 18	 mov	 ecx, DWORD PTR [eax+24]
  00f11	8d 94 0a a1 eb
	d9 6e		 lea	 edx, DWORD PTR [edx+ecx+1859775393]
  00f18	03 55 f4	 add	 edx, DWORD PTR _v1$[ebp]
  00f1b	89 55 f4	 mov	 DWORD PTR _v1$[ebp], edx
  00f1e	8b 45 f8	 mov	 eax, DWORD PTR _v3$[ebp]
  00f21	c1 e8 02	 shr	 eax, 2
  00f24	8b 4d f8	 mov	 ecx, DWORD PTR _v3$[ebp]
  00f27	c1 e1 1e	 shl	 ecx, 30			; 0000001eH
  00f2a	0b c1		 or	 eax, ecx
  00f2c	89 45 f8	 mov	 DWORD PTR _v3$[ebp], eax
  00f2f	8b 55 fc	 mov	 edx, DWORD PTR _w$[ebp]
  00f32	8b 45 fc	 mov	 eax, DWORD PTR _w$[ebp]
  00f35	8b 4a 10	 mov	 ecx, DWORD PTR [edx+16]
  00f38	33 48 3c	 xor	 ecx, DWORD PTR [eax+60]
  00f3b	8b 55 fc	 mov	 edx, DWORD PTR _w$[ebp]
  00f3e	33 4a 24	 xor	 ecx, DWORD PTR [edx+36]
  00f41	8b 45 fc	 mov	 eax, DWORD PTR _w$[ebp]
  00f44	33 48 1c	 xor	 ecx, DWORD PTR [eax+28]
  00f47	d1 e1		 shl	 ecx, 1
  00f49	8b 55 fc	 mov	 edx, DWORD PTR _w$[ebp]
  00f4c	8b 45 fc	 mov	 eax, DWORD PTR _w$[ebp]
  00f4f	8b 52 10	 mov	 edx, DWORD PTR [edx+16]
  00f52	33 50 3c	 xor	 edx, DWORD PTR [eax+60]
  00f55	8b 45 fc	 mov	 eax, DWORD PTR _w$[ebp]
  00f58	33 50 24	 xor	 edx, DWORD PTR [eax+36]
  00f5b	8b 45 fc	 mov	 eax, DWORD PTR _w$[ebp]
  00f5e	33 50 1c	 xor	 edx, DWORD PTR [eax+28]
  00f61	c1 ea 1f	 shr	 edx, 31			; 0000001fH
  00f64	0b ca		 or	 ecx, edx
  00f66	8b 55 fc	 mov	 edx, DWORD PTR _w$[ebp]
  00f69	89 4a 1c	 mov	 DWORD PTR [edx+28], ecx
  00f6c	8b 45 ec	 mov	 eax, DWORD PTR _v2$[ebp]
  00f6f	33 45 f8	 xor	 eax, DWORD PTR _v3$[ebp]
  00f72	33 45 f0	 xor	 eax, DWORD PTR _v4$[ebp]
  00f75	8b 4d f4	 mov	 ecx, DWORD PTR _v1$[ebp]
  00f78	c1 e1 05	 shl	 ecx, 5
  00f7b	8b 55 f4	 mov	 edx, DWORD PTR _v1$[ebp]
  00f7e	c1 ea 1b	 shr	 edx, 27			; 0000001bH
  00f81	0b d1		 or	 edx, ecx
  00f83	03 d0		 add	 edx, eax
  00f85	8b 45 fc	 mov	 eax, DWORD PTR _w$[ebp]
  00f88	8b 48 1c	 mov	 ecx, DWORD PTR [eax+28]
  00f8b	8d 94 0a a1 eb
	d9 6e		 lea	 edx, DWORD PTR [edx+ecx+1859775393]
  00f92	03 55 e8	 add	 edx, DWORD PTR _v0$[ebp]
  00f95	89 55 e8	 mov	 DWORD PTR _v0$[ebp], edx
  00f98	8b 45 ec	 mov	 eax, DWORD PTR _v2$[ebp]
  00f9b	c1 e8 02	 shr	 eax, 2
  00f9e	8b 4d ec	 mov	 ecx, DWORD PTR _v2$[ebp]
  00fa1	c1 e1 1e	 shl	 ecx, 30			; 0000001eH
  00fa4	0b c1		 or	 eax, ecx
  00fa6	89 45 ec	 mov	 DWORD PTR _v2$[ebp], eax

; 174  : 
; 175  :     five_cycle(v, maj, 0x8f1bbcdc,  40);

  00fa9	8b 55 fc	 mov	 edx, DWORD PTR _w$[ebp]
  00fac	8b 45 fc	 mov	 eax, DWORD PTR _w$[ebp]
  00faf	8b 4a 14	 mov	 ecx, DWORD PTR [edx+20]
  00fb2	33 08		 xor	 ecx, DWORD PTR [eax]
  00fb4	8b 55 fc	 mov	 edx, DWORD PTR _w$[ebp]
  00fb7	33 4a 28	 xor	 ecx, DWORD PTR [edx+40]
  00fba	8b 45 fc	 mov	 eax, DWORD PTR _w$[ebp]
  00fbd	33 48 20	 xor	 ecx, DWORD PTR [eax+32]
  00fc0	d1 e1		 shl	 ecx, 1
  00fc2	8b 55 fc	 mov	 edx, DWORD PTR _w$[ebp]
  00fc5	8b 45 fc	 mov	 eax, DWORD PTR _w$[ebp]
  00fc8	8b 52 14	 mov	 edx, DWORD PTR [edx+20]
  00fcb	33 10		 xor	 edx, DWORD PTR [eax]
  00fcd	8b 45 fc	 mov	 eax, DWORD PTR _w$[ebp]
  00fd0	33 50 28	 xor	 edx, DWORD PTR [eax+40]
  00fd3	8b 45 fc	 mov	 eax, DWORD PTR _w$[ebp]
  00fd6	33 50 20	 xor	 edx, DWORD PTR [eax+32]
  00fd9	c1 ea 1f	 shr	 edx, 31			; 0000001fH
  00fdc	0b ca		 or	 ecx, edx
  00fde	8b 55 fc	 mov	 edx, DWORD PTR _w$[ebp]
  00fe1	89 4a 20	 mov	 DWORD PTR [edx+32], ecx
  00fe4	8b 45 f4	 mov	 eax, DWORD PTR _v1$[ebp]
  00fe7	33 45 ec	 xor	 eax, DWORD PTR _v2$[ebp]
  00fea	23 45 f8	 and	 eax, DWORD PTR _v3$[ebp]
  00fed	8b 4d f4	 mov	 ecx, DWORD PTR _v1$[ebp]
  00ff0	23 4d ec	 and	 ecx, DWORD PTR _v2$[ebp]
  00ff3	0b c8		 or	 ecx, eax
  00ff5	8b 55 e8	 mov	 edx, DWORD PTR _v0$[ebp]
  00ff8	c1 e2 05	 shl	 edx, 5
  00ffb	8b 45 e8	 mov	 eax, DWORD PTR _v0$[ebp]
  00ffe	c1 e8 1b	 shr	 eax, 27			; 0000001bH
  01001	0b c2		 or	 eax, edx
  01003	03 c1		 add	 eax, ecx
  01005	8b 4d fc	 mov	 ecx, DWORD PTR _w$[ebp]
  01008	8b 51 20	 mov	 edx, DWORD PTR [ecx+32]
  0100b	8d 84 10 dc bc
	1b 8f		 lea	 eax, DWORD PTR [eax+edx-1894007588]
  01012	03 45 f0	 add	 eax, DWORD PTR _v4$[ebp]
  01015	89 45 f0	 mov	 DWORD PTR _v4$[ebp], eax
  01018	8b 4d f4	 mov	 ecx, DWORD PTR _v1$[ebp]
  0101b	c1 e9 02	 shr	 ecx, 2
  0101e	8b 55 f4	 mov	 edx, DWORD PTR _v1$[ebp]
  01021	c1 e2 1e	 shl	 edx, 30			; 0000001eH
  01024	0b ca		 or	 ecx, edx
  01026	89 4d f4	 mov	 DWORD PTR _v1$[ebp], ecx
  01029	8b 45 fc	 mov	 eax, DWORD PTR _w$[ebp]
  0102c	8b 4d fc	 mov	 ecx, DWORD PTR _w$[ebp]
  0102f	8b 50 18	 mov	 edx, DWORD PTR [eax+24]
  01032	33 51 04	 xor	 edx, DWORD PTR [ecx+4]
  01035	8b 45 fc	 mov	 eax, DWORD PTR _w$[ebp]
  01038	33 50 2c	 xor	 edx, DWORD PTR [eax+44]
  0103b	8b 4d fc	 mov	 ecx, DWORD PTR _w$[ebp]
  0103e	33 51 24	 xor	 edx, DWORD PTR [ecx+36]
  01041	d1 e2		 shl	 edx, 1
  01043	8b 45 fc	 mov	 eax, DWORD PTR _w$[ebp]
  01046	8b 4d fc	 mov	 ecx, DWORD PTR _w$[ebp]
  01049	8b 40 18	 mov	 eax, DWORD PTR [eax+24]
  0104c	33 41 04	 xor	 eax, DWORD PTR [ecx+4]
  0104f	8b 4d fc	 mov	 ecx, DWORD PTR _w$[ebp]
  01052	33 41 2c	 xor	 eax, DWORD PTR [ecx+44]
  01055	8b 4d fc	 mov	 ecx, DWORD PTR _w$[ebp]
  01058	33 41 24	 xor	 eax, DWORD PTR [ecx+36]
  0105b	c1 e8 1f	 shr	 eax, 31			; 0000001fH
  0105e	0b d0		 or	 edx, eax
  01060	8b 45 fc	 mov	 eax, DWORD PTR _w$[ebp]
  01063	89 50 24	 mov	 DWORD PTR [eax+36], edx
  01066	8b 4d e8	 mov	 ecx, DWORD PTR _v0$[ebp]
  01069	33 4d f4	 xor	 ecx, DWORD PTR _v1$[ebp]
  0106c	23 4d ec	 and	 ecx, DWORD PTR _v2$[ebp]
  0106f	8b 55 e8	 mov	 edx, DWORD PTR _v0$[ebp]
  01072	23 55 f4	 and	 edx, DWORD PTR _v1$[ebp]
  01075	0b d1		 or	 edx, ecx
  01077	8b 45 f0	 mov	 eax, DWORD PTR _v4$[ebp]
  0107a	c1 e0 05	 shl	 eax, 5
  0107d	8b 4d f0	 mov	 ecx, DWORD PTR _v4$[ebp]
  01080	c1 e9 1b	 shr	 ecx, 27			; 0000001bH
  01083	0b c8		 or	 ecx, eax
  01085	03 ca		 add	 ecx, edx
  01087	8b 55 fc	 mov	 edx, DWORD PTR _w$[ebp]
  0108a	8b 42 24	 mov	 eax, DWORD PTR [edx+36]
  0108d	8d 8c 01 dc bc
	1b 8f		 lea	 ecx, DWORD PTR [ecx+eax-1894007588]
  01094	03 4d f8	 add	 ecx, DWORD PTR _v3$[ebp]
  01097	89 4d f8	 mov	 DWORD PTR _v3$[ebp], ecx
  0109a	8b 55 e8	 mov	 edx, DWORD PTR _v0$[ebp]
  0109d	c1 ea 02	 shr	 edx, 2
  010a0	8b 45 e8	 mov	 eax, DWORD PTR _v0$[ebp]
  010a3	c1 e0 1e	 shl	 eax, 30			; 0000001eH
  010a6	0b d0		 or	 edx, eax
  010a8	89 55 e8	 mov	 DWORD PTR _v0$[ebp], edx
  010ab	8b 4d fc	 mov	 ecx, DWORD PTR _w$[ebp]
  010ae	8b 55 fc	 mov	 edx, DWORD PTR _w$[ebp]
  010b1	8b 41 1c	 mov	 eax, DWORD PTR [ecx+28]
  010b4	33 42 08	 xor	 eax, DWORD PTR [edx+8]
  010b7	8b 4d fc	 mov	 ecx, DWORD PTR _w$[ebp]
  010ba	33 41 30	 xor	 eax, DWORD PTR [ecx+48]
  010bd	8b 55 fc	 mov	 edx, DWORD PTR _w$[ebp]
  010c0	33 42 28	 xor	 eax, DWORD PTR [edx+40]
  010c3	d1 e0		 shl	 eax, 1
  010c5	8b 4d fc	 mov	 ecx, DWORD PTR _w$[ebp]
  010c8	8b 55 fc	 mov	 edx, DWORD PTR _w$[ebp]
  010cb	8b 49 1c	 mov	 ecx, DWORD PTR [ecx+28]
  010ce	33 4a 08	 xor	 ecx, DWORD PTR [edx+8]
  010d1	8b 55 fc	 mov	 edx, DWORD PTR _w$[ebp]
  010d4	33 4a 30	 xor	 ecx, DWORD PTR [edx+48]
  010d7	8b 55 fc	 mov	 edx, DWORD PTR _w$[ebp]
  010da	33 4a 28	 xor	 ecx, DWORD PTR [edx+40]
  010dd	c1 e9 1f	 shr	 ecx, 31			; 0000001fH
  010e0	0b c1		 or	 eax, ecx
  010e2	8b 4d fc	 mov	 ecx, DWORD PTR _w$[ebp]
  010e5	89 41 28	 mov	 DWORD PTR [ecx+40], eax
  010e8	8b 55 f0	 mov	 edx, DWORD PTR _v4$[ebp]
  010eb	33 55 e8	 xor	 edx, DWORD PTR _v0$[ebp]
  010ee	23 55 f4	 and	 edx, DWORD PTR _v1$[ebp]
  010f1	8b 45 f0	 mov	 eax, DWORD PTR _v4$[ebp]
  010f4	23 45 e8	 and	 eax, DWORD PTR _v0$[ebp]
  010f7	0b c2		 or	 eax, edx
  010f9	8b 4d f8	 mov	 ecx, DWORD PTR _v3$[ebp]
  010fc	c1 e1 05	 shl	 ecx, 5
  010ff	8b 55 f8	 mov	 edx, DWORD PTR _v3$[ebp]
  01102	c1 ea 1b	 shr	 edx, 27			; 0000001bH
  01105	0b d1		 or	 edx, ecx
  01107	03 d0		 add	 edx, eax
  01109	8b 45 fc	 mov	 eax, DWORD PTR _w$[ebp]
  0110c	8b 48 28	 mov	 ecx, DWORD PTR [eax+40]
  0110f	8d 94 0a dc bc
	1b 8f		 lea	 edx, DWORD PTR [edx+ecx-1894007588]
  01116	03 55 ec	 add	 edx, DWORD PTR _v2$[ebp]
  01119	89 55 ec	 mov	 DWORD PTR _v2$[ebp], edx
  0111c	8b 45 f0	 mov	 eax, DWORD PTR _v4$[ebp]
  0111f	c1 e8 02	 shr	 eax, 2
  01122	8b 4d f0	 mov	 ecx, DWORD PTR _v4$[ebp]
  01125	c1 e1 1e	 shl	 ecx, 30			; 0000001eH
  01128	0b c1		 or	 eax, ecx
  0112a	89 45 f0	 mov	 DWORD PTR _v4$[ebp], eax
  0112d	8b 55 fc	 mov	 edx, DWORD PTR _w$[ebp]
  01130	8b 45 fc	 mov	 eax, DWORD PTR _w$[ebp]
  01133	8b 4a 20	 mov	 ecx, DWORD PTR [edx+32]
  01136	33 48 0c	 xor	 ecx, DWORD PTR [eax+12]
  01139	8b 55 fc	 mov	 edx, DWORD PTR _w$[ebp]
  0113c	33 4a 34	 xor	 ecx, DWORD PTR [edx+52]
  0113f	8b 45 fc	 mov	 eax, DWORD PTR _w$[ebp]
  01142	33 48 2c	 xor	 ecx, DWORD PTR [eax+44]
  01145	d1 e1		 shl	 ecx, 1
  01147	8b 55 fc	 mov	 edx, DWORD PTR _w$[ebp]
  0114a	8b 45 fc	 mov	 eax, DWORD PTR _w$[ebp]
  0114d	8b 52 20	 mov	 edx, DWORD PTR [edx+32]
  01150	33 50 0c	 xor	 edx, DWORD PTR [eax+12]
  01153	8b 45 fc	 mov	 eax, DWORD PTR _w$[ebp]
  01156	33 50 34	 xor	 edx, DWORD PTR [eax+52]
  01159	8b 45 fc	 mov	 eax, DWORD PTR _w$[ebp]
  0115c	33 50 2c	 xor	 edx, DWORD PTR [eax+44]
  0115f	c1 ea 1f	 shr	 edx, 31			; 0000001fH
  01162	0b ca		 or	 ecx, edx
  01164	8b 55 fc	 mov	 edx, DWORD PTR _w$[ebp]
  01167	89 4a 2c	 mov	 DWORD PTR [edx+44], ecx
  0116a	8b 45 f8	 mov	 eax, DWORD PTR _v3$[ebp]
  0116d	33 45 f0	 xor	 eax, DWORD PTR _v4$[ebp]
  01170	23 45 e8	 and	 eax, DWORD PTR _v0$[ebp]
  01173	8b 4d f8	 mov	 ecx, DWORD PTR _v3$[ebp]
  01176	23 4d f0	 and	 ecx, DWORD PTR _v4$[ebp]
  01179	0b c8		 or	 ecx, eax
  0117b	8b 55 ec	 mov	 edx, DWORD PTR _v2$[ebp]
  0117e	c1 e2 05	 shl	 edx, 5
  01181	8b 45 ec	 mov	 eax, DWORD PTR _v2$[ebp]
  01184	c1 e8 1b	 shr	 eax, 27			; 0000001bH
  01187	0b c2		 or	 eax, edx
  01189	03 c1		 add	 eax, ecx
  0118b	8b 4d fc	 mov	 ecx, DWORD PTR _w$[ebp]
  0118e	8b 51 2c	 mov	 edx, DWORD PTR [ecx+44]
  01191	8d 84 10 dc bc
	1b 8f		 lea	 eax, DWORD PTR [eax+edx-1894007588]
  01198	03 45 f4	 add	 eax, DWORD PTR _v1$[ebp]
  0119b	89 45 f4	 mov	 DWORD PTR _v1$[ebp], eax
  0119e	8b 4d f8	 mov	 ecx, DWORD PTR _v3$[ebp]
  011a1	c1 e9 02	 shr	 ecx, 2
  011a4	8b 55 f8	 mov	 edx, DWORD PTR _v3$[ebp]
  011a7	c1 e2 1e	 shl	 edx, 30			; 0000001eH
  011aa	0b ca		 or	 ecx, edx
  011ac	89 4d f8	 mov	 DWORD PTR _v3$[ebp], ecx
  011af	8b 45 fc	 mov	 eax, DWORD PTR _w$[ebp]
  011b2	8b 4d fc	 mov	 ecx, DWORD PTR _w$[ebp]
  011b5	8b 50 24	 mov	 edx, DWORD PTR [eax+36]
  011b8	33 51 10	 xor	 edx, DWORD PTR [ecx+16]
  011bb	8b 45 fc	 mov	 eax, DWORD PTR _w$[ebp]
  011be	33 50 38	 xor	 edx, DWORD PTR [eax+56]
  011c1	8b 4d fc	 mov	 ecx, DWORD PTR _w$[ebp]
  011c4	33 51 30	 xor	 edx, DWORD PTR [ecx+48]
  011c7	d1 e2		 shl	 edx, 1
  011c9	8b 45 fc	 mov	 eax, DWORD PTR _w$[ebp]
  011cc	8b 4d fc	 mov	 ecx, DWORD PTR _w$[ebp]
  011cf	8b 40 24	 mov	 eax, DWORD PTR [eax+36]
  011d2	33 41 10	 xor	 eax, DWORD PTR [ecx+16]
  011d5	8b 4d fc	 mov	 ecx, DWORD PTR _w$[ebp]
  011d8	33 41 38	 xor	 eax, DWORD PTR [ecx+56]
  011db	8b 4d fc	 mov	 ecx, DWORD PTR _w$[ebp]
  011de	33 41 30	 xor	 eax, DWORD PTR [ecx+48]
  011e1	c1 e8 1f	 shr	 eax, 31			; 0000001fH
  011e4	0b d0		 or	 edx, eax
  011e6	8b 45 fc	 mov	 eax, DWORD PTR _w$[ebp]
  011e9	89 50 30	 mov	 DWORD PTR [eax+48], edx
  011ec	8b 4d ec	 mov	 ecx, DWORD PTR _v2$[ebp]
  011ef	33 4d f8	 xor	 ecx, DWORD PTR _v3$[ebp]
  011f2	23 4d f0	 and	 ecx, DWORD PTR _v4$[ebp]
  011f5	8b 55 ec	 mov	 edx, DWORD PTR _v2$[ebp]
  011f8	23 55 f8	 and	 edx, DWORD PTR _v3$[ebp]
  011fb	0b d1		 or	 edx, ecx
  011fd	8b 45 f4	 mov	 eax, DWORD PTR _v1$[ebp]
  01200	c1 e0 05	 shl	 eax, 5
  01203	8b 4d f4	 mov	 ecx, DWORD PTR _v1$[ebp]
  01206	c1 e9 1b	 shr	 ecx, 27			; 0000001bH
  01209	0b c8		 or	 ecx, eax
  0120b	03 ca		 add	 ecx, edx
  0120d	8b 55 fc	 mov	 edx, DWORD PTR _w$[ebp]
  01210	8b 42 30	 mov	 eax, DWORD PTR [edx+48]
  01213	8d 8c 01 dc bc
	1b 8f		 lea	 ecx, DWORD PTR [ecx+eax-1894007588]
  0121a	03 4d e8	 add	 ecx, DWORD PTR _v0$[ebp]
  0121d	89 4d e8	 mov	 DWORD PTR _v0$[ebp], ecx
  01220	8b 55 ec	 mov	 edx, DWORD PTR _v2$[ebp]
  01223	c1 ea 02	 shr	 edx, 2
  01226	8b 45 ec	 mov	 eax, DWORD PTR _v2$[ebp]
  01229	c1 e0 1e	 shl	 eax, 30			; 0000001eH
  0122c	0b d0		 or	 edx, eax
  0122e	89 55 ec	 mov	 DWORD PTR _v2$[ebp], edx

; 176  :     five_cycle(v, maj, 0x8f1bbcdc,  45);

  01231	8b 4d fc	 mov	 ecx, DWORD PTR _w$[ebp]
  01234	8b 55 fc	 mov	 edx, DWORD PTR _w$[ebp]
  01237	8b 41 28	 mov	 eax, DWORD PTR [ecx+40]
  0123a	33 42 14	 xor	 eax, DWORD PTR [edx+20]
  0123d	8b 4d fc	 mov	 ecx, DWORD PTR _w$[ebp]
  01240	33 41 3c	 xor	 eax, DWORD PTR [ecx+60]
  01243	8b 55 fc	 mov	 edx, DWORD PTR _w$[ebp]
  01246	33 42 34	 xor	 eax, DWORD PTR [edx+52]
  01249	d1 e0		 shl	 eax, 1
  0124b	8b 4d fc	 mov	 ecx, DWORD PTR _w$[ebp]
  0124e	8b 55 fc	 mov	 edx, DWORD PTR _w$[ebp]
  01251	8b 49 28	 mov	 ecx, DWORD PTR [ecx+40]
  01254	33 4a 14	 xor	 ecx, DWORD PTR [edx+20]
  01257	8b 55 fc	 mov	 edx, DWORD PTR _w$[ebp]
  0125a	33 4a 3c	 xor	 ecx, DWORD PTR [edx+60]
  0125d	8b 55 fc	 mov	 edx, DWORD PTR _w$[ebp]
  01260	33 4a 34	 xor	 ecx, DWORD PTR [edx+52]
  01263	c1 e9 1f	 shr	 ecx, 31			; 0000001fH
  01266	0b c1		 or	 eax, ecx
  01268	8b 4d fc	 mov	 ecx, DWORD PTR _w$[ebp]
  0126b	89 41 34	 mov	 DWORD PTR [ecx+52], eax
  0126e	8b 55 f4	 mov	 edx, DWORD PTR _v1$[ebp]
  01271	33 55 ec	 xor	 edx, DWORD PTR _v2$[ebp]
  01274	23 55 f8	 and	 edx, DWORD PTR _v3$[ebp]
  01277	8b 45 f4	 mov	 eax, DWORD PTR _v1$[ebp]
  0127a	23 45 ec	 and	 eax, DWORD PTR _v2$[ebp]
  0127d	0b c2		 or	 eax, edx
  0127f	8b 4d e8	 mov	 ecx, DWORD PTR _v0$[ebp]
  01282	c1 e1 05	 shl	 ecx, 5
  01285	8b 55 e8	 mov	 edx, DWORD PTR _v0$[ebp]
  01288	c1 ea 1b	 shr	 edx, 27			; 0000001bH
  0128b	0b d1		 or	 edx, ecx
  0128d	03 d0		 add	 edx, eax
  0128f	8b 45 fc	 mov	 eax, DWORD PTR _w$[ebp]
  01292	8b 48 34	 mov	 ecx, DWORD PTR [eax+52]
  01295	8d 94 0a dc bc
	1b 8f		 lea	 edx, DWORD PTR [edx+ecx-1894007588]
  0129c	03 55 f0	 add	 edx, DWORD PTR _v4$[ebp]
  0129f	89 55 f0	 mov	 DWORD PTR _v4$[ebp], edx
  012a2	8b 45 f4	 mov	 eax, DWORD PTR _v1$[ebp]
  012a5	c1 e8 02	 shr	 eax, 2
  012a8	8b 4d f4	 mov	 ecx, DWORD PTR _v1$[ebp]
  012ab	c1 e1 1e	 shl	 ecx, 30			; 0000001eH
  012ae	0b c1		 or	 eax, ecx
  012b0	89 45 f4	 mov	 DWORD PTR _v1$[ebp], eax
  012b3	8b 55 fc	 mov	 edx, DWORD PTR _w$[ebp]
  012b6	8b 45 fc	 mov	 eax, DWORD PTR _w$[ebp]
  012b9	8b 4a 2c	 mov	 ecx, DWORD PTR [edx+44]
  012bc	33 48 18	 xor	 ecx, DWORD PTR [eax+24]
  012bf	8b 55 fc	 mov	 edx, DWORD PTR _w$[ebp]
  012c2	33 0a		 xor	 ecx, DWORD PTR [edx]
  012c4	8b 45 fc	 mov	 eax, DWORD PTR _w$[ebp]
  012c7	33 48 38	 xor	 ecx, DWORD PTR [eax+56]
  012ca	d1 e1		 shl	 ecx, 1
  012cc	8b 55 fc	 mov	 edx, DWORD PTR _w$[ebp]
  012cf	8b 45 fc	 mov	 eax, DWORD PTR _w$[ebp]
  012d2	8b 52 2c	 mov	 edx, DWORD PTR [edx+44]
  012d5	33 50 18	 xor	 edx, DWORD PTR [eax+24]
  012d8	8b 45 fc	 mov	 eax, DWORD PTR _w$[ebp]
  012db	33 10		 xor	 edx, DWORD PTR [eax]
  012dd	8b 45 fc	 mov	 eax, DWORD PTR _w$[ebp]
  012e0	33 50 38	 xor	 edx, DWORD PTR [eax+56]
  012e3	c1 ea 1f	 shr	 edx, 31			; 0000001fH
  012e6	0b ca		 or	 ecx, edx
  012e8	8b 55 fc	 mov	 edx, DWORD PTR _w$[ebp]
  012eb	89 4a 38	 mov	 DWORD PTR [edx+56], ecx
  012ee	8b 45 e8	 mov	 eax, DWORD PTR _v0$[ebp]
  012f1	33 45 f4	 xor	 eax, DWORD PTR _v1$[ebp]
  012f4	23 45 ec	 and	 eax, DWORD PTR _v2$[ebp]
  012f7	8b 4d e8	 mov	 ecx, DWORD PTR _v0$[ebp]
  012fa	23 4d f4	 and	 ecx, DWORD PTR _v1$[ebp]
  012fd	0b c8		 or	 ecx, eax
  012ff	8b 55 f0	 mov	 edx, DWORD PTR _v4$[ebp]
  01302	c1 e2 05	 shl	 edx, 5
  01305	8b 45 f0	 mov	 eax, DWORD PTR _v4$[ebp]
  01308	c1 e8 1b	 shr	 eax, 27			; 0000001bH
  0130b	0b c2		 or	 eax, edx
  0130d	03 c1		 add	 eax, ecx
  0130f	8b 4d fc	 mov	 ecx, DWORD PTR _w$[ebp]
  01312	8b 51 38	 mov	 edx, DWORD PTR [ecx+56]
  01315	8d 84 10 dc bc
	1b 8f		 lea	 eax, DWORD PTR [eax+edx-1894007588]
  0131c	03 45 f8	 add	 eax, DWORD PTR _v3$[ebp]
  0131f	89 45 f8	 mov	 DWORD PTR _v3$[ebp], eax
  01322	8b 4d e8	 mov	 ecx, DWORD PTR _v0$[ebp]
  01325	c1 e9 02	 shr	 ecx, 2
  01328	8b 55 e8	 mov	 edx, DWORD PTR _v0$[ebp]
  0132b	c1 e2 1e	 shl	 edx, 30			; 0000001eH
  0132e	0b ca		 or	 ecx, edx
  01330	89 4d e8	 mov	 DWORD PTR _v0$[ebp], ecx
  01333	8b 45 fc	 mov	 eax, DWORD PTR _w$[ebp]
  01336	8b 4d fc	 mov	 ecx, DWORD PTR _w$[ebp]
  01339	8b 50 30	 mov	 edx, DWORD PTR [eax+48]
  0133c	33 51 1c	 xor	 edx, DWORD PTR [ecx+28]
  0133f	8b 45 fc	 mov	 eax, DWORD PTR _w$[ebp]
  01342	33 50 04	 xor	 edx, DWORD PTR [eax+4]
  01345	8b 4d fc	 mov	 ecx, DWORD PTR _w$[ebp]
  01348	33 51 3c	 xor	 edx, DWORD PTR [ecx+60]
  0134b	d1 e2		 shl	 edx, 1
  0134d	8b 45 fc	 mov	 eax, DWORD PTR _w$[ebp]
  01350	8b 4d fc	 mov	 ecx, DWORD PTR _w$[ebp]
  01353	8b 40 30	 mov	 eax, DWORD PTR [eax+48]
  01356	33 41 1c	 xor	 eax, DWORD PTR [ecx+28]
  01359	8b 4d fc	 mov	 ecx, DWORD PTR _w$[ebp]
  0135c	33 41 04	 xor	 eax, DWORD PTR [ecx+4]
  0135f	8b 4d fc	 mov	 ecx, DWORD PTR _w$[ebp]
  01362	33 41 3c	 xor	 eax, DWORD PTR [ecx+60]
  01365	c1 e8 1f	 shr	 eax, 31			; 0000001fH
  01368	0b d0		 or	 edx, eax
  0136a	8b 45 fc	 mov	 eax, DWORD PTR _w$[ebp]
  0136d	89 50 3c	 mov	 DWORD PTR [eax+60], edx
  01370	8b 4d f0	 mov	 ecx, DWORD PTR _v4$[ebp]
  01373	33 4d e8	 xor	 ecx, DWORD PTR _v0$[ebp]
  01376	23 4d f4	 and	 ecx, DWORD PTR _v1$[ebp]
  01379	8b 55 f0	 mov	 edx, DWORD PTR _v4$[ebp]
  0137c	23 55 e8	 and	 edx, DWORD PTR _v0$[ebp]
  0137f	0b d1		 or	 edx, ecx
  01381	8b 45 f8	 mov	 eax, DWORD PTR _v3$[ebp]
  01384	c1 e0 05	 shl	 eax, 5
  01387	8b 4d f8	 mov	 ecx, DWORD PTR _v3$[ebp]
  0138a	c1 e9 1b	 shr	 ecx, 27			; 0000001bH
  0138d	0b c8		 or	 ecx, eax
  0138f	03 ca		 add	 ecx, edx
  01391	8b 55 fc	 mov	 edx, DWORD PTR _w$[ebp]
  01394	8b 42 3c	 mov	 eax, DWORD PTR [edx+60]
  01397	8d 8c 01 dc bc
	1b 8f		 lea	 ecx, DWORD PTR [ecx+eax-1894007588]
  0139e	03 4d ec	 add	 ecx, DWORD PTR _v2$[ebp]
  013a1	89 4d ec	 mov	 DWORD PTR _v2$[ebp], ecx
  013a4	8b 55 f0	 mov	 edx, DWORD PTR _v4$[ebp]
  013a7	c1 ea 02	 shr	 edx, 2
  013aa	8b 45 f0	 mov	 eax, DWORD PTR _v4$[ebp]
  013ad	c1 e0 1e	 shl	 eax, 30			; 0000001eH
  013b0	0b d0		 or	 edx, eax
  013b2	89 55 f0	 mov	 DWORD PTR _v4$[ebp], edx
  013b5	8b 4d fc	 mov	 ecx, DWORD PTR _w$[ebp]
  013b8	8b 55 fc	 mov	 edx, DWORD PTR _w$[ebp]
  013bb	8b 41 34	 mov	 eax, DWORD PTR [ecx+52]
  013be	33 42 20	 xor	 eax, DWORD PTR [edx+32]
  013c1	8b 4d fc	 mov	 ecx, DWORD PTR _w$[ebp]
  013c4	33 41 08	 xor	 eax, DWORD PTR [ecx+8]
  013c7	8b 55 fc	 mov	 edx, DWORD PTR _w$[ebp]
  013ca	33 02		 xor	 eax, DWORD PTR [edx]
  013cc	d1 e0		 shl	 eax, 1
  013ce	8b 4d fc	 mov	 ecx, DWORD PTR _w$[ebp]
  013d1	8b 55 fc	 mov	 edx, DWORD PTR _w$[ebp]
  013d4	8b 49 34	 mov	 ecx, DWORD PTR [ecx+52]
  013d7	33 4a 20	 xor	 ecx, DWORD PTR [edx+32]
  013da	8b 55 fc	 mov	 edx, DWORD PTR _w$[ebp]
  013dd	33 4a 08	 xor	 ecx, DWORD PTR [edx+8]
  013e0	8b 55 fc	 mov	 edx, DWORD PTR _w$[ebp]
  013e3	33 0a		 xor	 ecx, DWORD PTR [edx]
  013e5	c1 e9 1f	 shr	 ecx, 31			; 0000001fH
  013e8	0b c1		 or	 eax, ecx
  013ea	8b 4d fc	 mov	 ecx, DWORD PTR _w$[ebp]
  013ed	89 01		 mov	 DWORD PTR [ecx], eax
  013ef	8b 55 f8	 mov	 edx, DWORD PTR _v3$[ebp]
  013f2	33 55 f0	 xor	 edx, DWORD PTR _v4$[ebp]
  013f5	23 55 e8	 and	 edx, DWORD PTR _v0$[ebp]
  013f8	8b 45 f8	 mov	 eax, DWORD PTR _v3$[ebp]
  013fb	23 45 f0	 and	 eax, DWORD PTR _v4$[ebp]
  013fe	0b c2		 or	 eax, edx
  01400	8b 4d ec	 mov	 ecx, DWORD PTR _v2$[ebp]
  01403	c1 e1 05	 shl	 ecx, 5
  01406	8b 55 ec	 mov	 edx, DWORD PTR _v2$[ebp]
  01409	c1 ea 1b	 shr	 edx, 27			; 0000001bH
  0140c	0b d1		 or	 edx, ecx
  0140e	03 d0		 add	 edx, eax
  01410	8b 45 fc	 mov	 eax, DWORD PTR _w$[ebp]
  01413	8b 08		 mov	 ecx, DWORD PTR [eax]
  01415	8d 94 0a dc bc
	1b 8f		 lea	 edx, DWORD PTR [edx+ecx-1894007588]
  0141c	03 55 f4	 add	 edx, DWORD PTR _v1$[ebp]
  0141f	89 55 f4	 mov	 DWORD PTR _v1$[ebp], edx
  01422	8b 45 f8	 mov	 eax, DWORD PTR _v3$[ebp]
  01425	c1 e8 02	 shr	 eax, 2
  01428	8b 4d f8	 mov	 ecx, DWORD PTR _v3$[ebp]
  0142b	c1 e1 1e	 shl	 ecx, 30			; 0000001eH
  0142e	0b c1		 or	 eax, ecx
  01430	89 45 f8	 mov	 DWORD PTR _v3$[ebp], eax
  01433	8b 55 fc	 mov	 edx, DWORD PTR _w$[ebp]
  01436	8b 45 fc	 mov	 eax, DWORD PTR _w$[ebp]
  01439	8b 4a 38	 mov	 ecx, DWORD PTR [edx+56]
  0143c	33 48 24	 xor	 ecx, DWORD PTR [eax+36]
  0143f	8b 55 fc	 mov	 edx, DWORD PTR _w$[ebp]
  01442	33 4a 0c	 xor	 ecx, DWORD PTR [edx+12]
  01445	8b 45 fc	 mov	 eax, DWORD PTR _w$[ebp]
  01448	33 48 04	 xor	 ecx, DWORD PTR [eax+4]
  0144b	d1 e1		 shl	 ecx, 1
  0144d	8b 55 fc	 mov	 edx, DWORD PTR _w$[ebp]
  01450	8b 45 fc	 mov	 eax, DWORD PTR _w$[ebp]
  01453	8b 52 38	 mov	 edx, DWORD PTR [edx+56]
  01456	33 50 24	 xor	 edx, DWORD PTR [eax+36]
  01459	8b 45 fc	 mov	 eax, DWORD PTR _w$[ebp]
  0145c	33 50 0c	 xor	 edx, DWORD PTR [eax+12]
  0145f	8b 45 fc	 mov	 eax, DWORD PTR _w$[ebp]
  01462	33 50 04	 xor	 edx, DWORD PTR [eax+4]
  01465	c1 ea 1f	 shr	 edx, 31			; 0000001fH
  01468	0b ca		 or	 ecx, edx
  0146a	8b 55 fc	 mov	 edx, DWORD PTR _w$[ebp]
  0146d	89 4a 04	 mov	 DWORD PTR [edx+4], ecx
  01470	8b 45 ec	 mov	 eax, DWORD PTR _v2$[ebp]
  01473	33 45 f8	 xor	 eax, DWORD PTR _v3$[ebp]
  01476	23 45 f0	 and	 eax, DWORD PTR _v4$[ebp]
  01479	8b 4d ec	 mov	 ecx, DWORD PTR _v2$[ebp]
  0147c	23 4d f8	 and	 ecx, DWORD PTR _v3$[ebp]
  0147f	0b c8		 or	 ecx, eax
  01481	8b 55 f4	 mov	 edx, DWORD PTR _v1$[ebp]
  01484	c1 e2 05	 shl	 edx, 5
  01487	8b 45 f4	 mov	 eax, DWORD PTR _v1$[ebp]
  0148a	c1 e8 1b	 shr	 eax, 27			; 0000001bH
  0148d	0b c2		 or	 eax, edx
  0148f	03 c1		 add	 eax, ecx
  01491	8b 4d fc	 mov	 ecx, DWORD PTR _w$[ebp]
  01494	8b 51 04	 mov	 edx, DWORD PTR [ecx+4]
  01497	8d 84 10 dc bc
	1b 8f		 lea	 eax, DWORD PTR [eax+edx-1894007588]
  0149e	03 45 e8	 add	 eax, DWORD PTR _v0$[ebp]
  014a1	89 45 e8	 mov	 DWORD PTR _v0$[ebp], eax
  014a4	8b 4d ec	 mov	 ecx, DWORD PTR _v2$[ebp]
  014a7	c1 e9 02	 shr	 ecx, 2
  014aa	8b 55 ec	 mov	 edx, DWORD PTR _v2$[ebp]
  014ad	c1 e2 1e	 shl	 edx, 30			; 0000001eH
  014b0	0b ca		 or	 ecx, edx
  014b2	89 4d ec	 mov	 DWORD PTR _v2$[ebp], ecx

; 177  :     five_cycle(v, maj, 0x8f1bbcdc,  50);

  014b5	8b 45 fc	 mov	 eax, DWORD PTR _w$[ebp]
  014b8	8b 4d fc	 mov	 ecx, DWORD PTR _w$[ebp]
  014bb	8b 50 3c	 mov	 edx, DWORD PTR [eax+60]
  014be	33 51 28	 xor	 edx, DWORD PTR [ecx+40]
  014c1	8b 45 fc	 mov	 eax, DWORD PTR _w$[ebp]
  014c4	33 50 10	 xor	 edx, DWORD PTR [eax+16]
  014c7	8b 4d fc	 mov	 ecx, DWORD PTR _w$[ebp]
  014ca	33 51 08	 xor	 edx, DWORD PTR [ecx+8]
  014cd	d1 e2		 shl	 edx, 1
  014cf	8b 45 fc	 mov	 eax, DWORD PTR _w$[ebp]
  014d2	8b 4d fc	 mov	 ecx, DWORD PTR _w$[ebp]
  014d5	8b 40 3c	 mov	 eax, DWORD PTR [eax+60]
  014d8	33 41 28	 xor	 eax, DWORD PTR [ecx+40]
  014db	8b 4d fc	 mov	 ecx, DWORD PTR _w$[ebp]
  014de	33 41 10	 xor	 eax, DWORD PTR [ecx+16]
  014e1	8b 4d fc	 mov	 ecx, DWORD PTR _w$[ebp]
  014e4	33 41 08	 xor	 eax, DWORD PTR [ecx+8]
  014e7	c1 e8 1f	 shr	 eax, 31			; 0000001fH
  014ea	0b d0		 or	 edx, eax
  014ec	8b 45 fc	 mov	 eax, DWORD PTR _w$[ebp]
  014ef	89 50 08	 mov	 DWORD PTR [eax+8], edx
  014f2	8b 4d f4	 mov	 ecx, DWORD PTR _v1$[ebp]
  014f5	33 4d ec	 xor	 ecx, DWORD PTR _v2$[ebp]
  014f8	23 4d f8	 and	 ecx, DWORD PTR _v3$[ebp]
  014fb	8b 55 f4	 mov	 edx, DWORD PTR _v1$[ebp]
  014fe	23 55 ec	 and	 edx, DWORD PTR _v2$[ebp]
  01501	0b d1		 or	 edx, ecx
  01503	8b 45 e8	 mov	 eax, DWORD PTR _v0$[ebp]
  01506	c1 e0 05	 shl	 eax, 5
  01509	8b 4d e8	 mov	 ecx, DWORD PTR _v0$[ebp]
  0150c	c1 e9 1b	 shr	 ecx, 27			; 0000001bH
  0150f	0b c8		 or	 ecx, eax
  01511	03 ca		 add	 ecx, edx
  01513	8b 55 fc	 mov	 edx, DWORD PTR _w$[ebp]
  01516	8b 42 08	 mov	 eax, DWORD PTR [edx+8]
  01519	8d 8c 01 dc bc
	1b 8f		 lea	 ecx, DWORD PTR [ecx+eax-1894007588]
  01520	03 4d f0	 add	 ecx, DWORD PTR _v4$[ebp]
  01523	89 4d f0	 mov	 DWORD PTR _v4$[ebp], ecx
  01526	8b 55 f4	 mov	 edx, DWORD PTR _v1$[ebp]
  01529	c1 ea 02	 shr	 edx, 2
  0152c	8b 45 f4	 mov	 eax, DWORD PTR _v1$[ebp]
  0152f	c1 e0 1e	 shl	 eax, 30			; 0000001eH
  01532	0b d0		 or	 edx, eax
  01534	89 55 f4	 mov	 DWORD PTR _v1$[ebp], edx
  01537	8b 4d fc	 mov	 ecx, DWORD PTR _w$[ebp]
  0153a	8b 55 fc	 mov	 edx, DWORD PTR _w$[ebp]
  0153d	8b 01		 mov	 eax, DWORD PTR [ecx]
  0153f	33 42 2c	 xor	 eax, DWORD PTR [edx+44]
  01542	8b 4d fc	 mov	 ecx, DWORD PTR _w$[ebp]
  01545	33 41 14	 xor	 eax, DWORD PTR [ecx+20]
  01548	8b 55 fc	 mov	 edx, DWORD PTR _w$[ebp]
  0154b	33 42 0c	 xor	 eax, DWORD PTR [edx+12]
  0154e	d1 e0		 shl	 eax, 1
  01550	8b 4d fc	 mov	 ecx, DWORD PTR _w$[ebp]
  01553	8b 55 fc	 mov	 edx, DWORD PTR _w$[ebp]
  01556	8b 09		 mov	 ecx, DWORD PTR [ecx]
  01558	33 4a 2c	 xor	 ecx, DWORD PTR [edx+44]
  0155b	8b 55 fc	 mov	 edx, DWORD PTR _w$[ebp]
  0155e	33 4a 14	 xor	 ecx, DWORD PTR [edx+20]
  01561	8b 55 fc	 mov	 edx, DWORD PTR _w$[ebp]
  01564	33 4a 0c	 xor	 ecx, DWORD PTR [edx+12]
  01567	c1 e9 1f	 shr	 ecx, 31			; 0000001fH
  0156a	0b c1		 or	 eax, ecx
  0156c	8b 4d fc	 mov	 ecx, DWORD PTR _w$[ebp]
  0156f	89 41 0c	 mov	 DWORD PTR [ecx+12], eax
  01572	8b 55 e8	 mov	 edx, DWORD PTR _v0$[ebp]
  01575	33 55 f4	 xor	 edx, DWORD PTR _v1$[ebp]
  01578	23 55 ec	 and	 edx, DWORD PTR _v2$[ebp]
  0157b	8b 45 e8	 mov	 eax, DWORD PTR _v0$[ebp]
  0157e	23 45 f4	 and	 eax, DWORD PTR _v1$[ebp]
  01581	0b c2		 or	 eax, edx
  01583	8b 4d f0	 mov	 ecx, DWORD PTR _v4$[ebp]
  01586	c1 e1 05	 shl	 ecx, 5
  01589	8b 55 f0	 mov	 edx, DWORD PTR _v4$[ebp]
  0158c	c1 ea 1b	 shr	 edx, 27			; 0000001bH
  0158f	0b d1		 or	 edx, ecx
  01591	03 d0		 add	 edx, eax
  01593	8b 45 fc	 mov	 eax, DWORD PTR _w$[ebp]
  01596	8b 48 0c	 mov	 ecx, DWORD PTR [eax+12]
  01599	8d 94 0a dc bc
	1b 8f		 lea	 edx, DWORD PTR [edx+ecx-1894007588]
  015a0	03 55 f8	 add	 edx, DWORD PTR _v3$[ebp]
  015a3	89 55 f8	 mov	 DWORD PTR _v3$[ebp], edx
  015a6	8b 45 e8	 mov	 eax, DWORD PTR _v0$[ebp]
  015a9	c1 e8 02	 shr	 eax, 2
  015ac	8b 4d e8	 mov	 ecx, DWORD PTR _v0$[ebp]
  015af	c1 e1 1e	 shl	 ecx, 30			; 0000001eH
  015b2	0b c1		 or	 eax, ecx
  015b4	89 45 e8	 mov	 DWORD PTR _v0$[ebp], eax
  015b7	8b 55 fc	 mov	 edx, DWORD PTR _w$[ebp]
  015ba	8b 45 fc	 mov	 eax, DWORD PTR _w$[ebp]
  015bd	8b 4a 04	 mov	 ecx, DWORD PTR [edx+4]
  015c0	33 48 30	 xor	 ecx, DWORD PTR [eax+48]
  015c3	8b 55 fc	 mov	 edx, DWORD PTR _w$[ebp]
  015c6	33 4a 18	 xor	 ecx, DWORD PTR [edx+24]
  015c9	8b 45 fc	 mov	 eax, DWORD PTR _w$[ebp]
  015cc	33 48 10	 xor	 ecx, DWORD PTR [eax+16]
  015cf	d1 e1		 shl	 ecx, 1
  015d1	8b 55 fc	 mov	 edx, DWORD PTR _w$[ebp]
  015d4	8b 45 fc	 mov	 eax, DWORD PTR _w$[ebp]
  015d7	8b 52 04	 mov	 edx, DWORD PTR [edx+4]
  015da	33 50 30	 xor	 edx, DWORD PTR [eax+48]
  015dd	8b 45 fc	 mov	 eax, DWORD PTR _w$[ebp]
  015e0	33 50 18	 xor	 edx, DWORD PTR [eax+24]
  015e3	8b 45 fc	 mov	 eax, DWORD PTR _w$[ebp]
  015e6	33 50 10	 xor	 edx, DWORD PTR [eax+16]
  015e9	c1 ea 1f	 shr	 edx, 31			; 0000001fH
  015ec	0b ca		 or	 ecx, edx
  015ee	8b 55 fc	 mov	 edx, DWORD PTR _w$[ebp]
  015f1	89 4a 10	 mov	 DWORD PTR [edx+16], ecx
  015f4	8b 45 f0	 mov	 eax, DWORD PTR _v4$[ebp]
  015f7	33 45 e8	 xor	 eax, DWORD PTR _v0$[ebp]
  015fa	23 45 f4	 and	 eax, DWORD PTR _v1$[ebp]
  015fd	8b 4d f0	 mov	 ecx, DWORD PTR _v4$[ebp]
  01600	23 4d e8	 and	 ecx, DWORD PTR _v0$[ebp]
  01603	0b c8		 or	 ecx, eax
  01605	8b 55 f8	 mov	 edx, DWORD PTR _v3$[ebp]
  01608	c1 e2 05	 shl	 edx, 5
  0160b	8b 45 f8	 mov	 eax, DWORD PTR _v3$[ebp]
  0160e	c1 e8 1b	 shr	 eax, 27			; 0000001bH
  01611	0b c2		 or	 eax, edx
  01613	03 c1		 add	 eax, ecx
  01615	8b 4d fc	 mov	 ecx, DWORD PTR _w$[ebp]
  01618	8b 51 10	 mov	 edx, DWORD PTR [ecx+16]
  0161b	8d 84 10 dc bc
	1b 8f		 lea	 eax, DWORD PTR [eax+edx-1894007588]
  01622	03 45 ec	 add	 eax, DWORD PTR _v2$[ebp]
  01625	89 45 ec	 mov	 DWORD PTR _v2$[ebp], eax
  01628	8b 4d f0	 mov	 ecx, DWORD PTR _v4$[ebp]
  0162b	c1 e9 02	 shr	 ecx, 2
  0162e	8b 55 f0	 mov	 edx, DWORD PTR _v4$[ebp]
  01631	c1 e2 1e	 shl	 edx, 30			; 0000001eH
  01634	0b ca		 or	 ecx, edx
  01636	89 4d f0	 mov	 DWORD PTR _v4$[ebp], ecx
  01639	8b 45 fc	 mov	 eax, DWORD PTR _w$[ebp]
  0163c	8b 4d fc	 mov	 ecx, DWORD PTR _w$[ebp]
  0163f	8b 50 08	 mov	 edx, DWORD PTR [eax+8]
  01642	33 51 34	 xor	 edx, DWORD PTR [ecx+52]
  01645	8b 45 fc	 mov	 eax, DWORD PTR _w$[ebp]
  01648	33 50 1c	 xor	 edx, DWORD PTR [eax+28]
  0164b	8b 4d fc	 mov	 ecx, DWORD PTR _w$[ebp]
  0164e	33 51 14	 xor	 edx, DWORD PTR [ecx+20]
  01651	d1 e2		 shl	 edx, 1
  01653	8b 45 fc	 mov	 eax, DWORD PTR _w$[ebp]
  01656	8b 4d fc	 mov	 ecx, DWORD PTR _w$[ebp]
  01659	8b 40 08	 mov	 eax, DWORD PTR [eax+8]
  0165c	33 41 34	 xor	 eax, DWORD PTR [ecx+52]
  0165f	8b 4d fc	 mov	 ecx, DWORD PTR _w$[ebp]
  01662	33 41 1c	 xor	 eax, DWORD PTR [ecx+28]
  01665	8b 4d fc	 mov	 ecx, DWORD PTR _w$[ebp]
  01668	33 41 14	 xor	 eax, DWORD PTR [ecx+20]
  0166b	c1 e8 1f	 shr	 eax, 31			; 0000001fH
  0166e	0b d0		 or	 edx, eax
  01670	8b 45 fc	 mov	 eax, DWORD PTR _w$[ebp]
  01673	89 50 14	 mov	 DWORD PTR [eax+20], edx
  01676	8b 4d f8	 mov	 ecx, DWORD PTR _v3$[ebp]
  01679	33 4d f0	 xor	 ecx, DWORD PTR _v4$[ebp]
  0167c	23 4d e8	 and	 ecx, DWORD PTR _v0$[ebp]
  0167f	8b 55 f8	 mov	 edx, DWORD PTR _v3$[ebp]
  01682	23 55 f0	 and	 edx, DWORD PTR _v4$[ebp]
  01685	0b d1		 or	 edx, ecx
  01687	8b 45 ec	 mov	 eax, DWORD PTR _v2$[ebp]
  0168a	c1 e0 05	 shl	 eax, 5
  0168d	8b 4d ec	 mov	 ecx, DWORD PTR _v2$[ebp]
  01690	c1 e9 1b	 shr	 ecx, 27			; 0000001bH
  01693	0b c8		 or	 ecx, eax
  01695	03 ca		 add	 ecx, edx
  01697	8b 55 fc	 mov	 edx, DWORD PTR _w$[ebp]
  0169a	8b 42 14	 mov	 eax, DWORD PTR [edx+20]
  0169d	8d 8c 01 dc bc
	1b 8f		 lea	 ecx, DWORD PTR [ecx+eax-1894007588]
  016a4	03 4d f4	 add	 ecx, DWORD PTR _v1$[ebp]
  016a7	89 4d f4	 mov	 DWORD PTR _v1$[ebp], ecx
  016aa	8b 55 f8	 mov	 edx, DWORD PTR _v3$[ebp]
  016ad	c1 ea 02	 shr	 edx, 2
  016b0	8b 45 f8	 mov	 eax, DWORD PTR _v3$[ebp]
  016b3	c1 e0 1e	 shl	 eax, 30			; 0000001eH
  016b6	0b d0		 or	 edx, eax
  016b8	89 55 f8	 mov	 DWORD PTR _v3$[ebp], edx
  016bb	8b 4d fc	 mov	 ecx, DWORD PTR _w$[ebp]
  016be	8b 55 fc	 mov	 edx, DWORD PTR _w$[ebp]
  016c1	8b 41 0c	 mov	 eax, DWORD PTR [ecx+12]
  016c4	33 42 38	 xor	 eax, DWORD PTR [edx+56]
  016c7	8b 4d fc	 mov	 ecx, DWORD PTR _w$[ebp]
  016ca	33 41 20	 xor	 eax, DWORD PTR [ecx+32]
  016cd	8b 55 fc	 mov	 edx, DWORD PTR _w$[ebp]
  016d0	33 42 18	 xor	 eax, DWORD PTR [edx+24]
  016d3	d1 e0		 shl	 eax, 1
  016d5	8b 4d fc	 mov	 ecx, DWORD PTR _w$[ebp]
  016d8	8b 55 fc	 mov	 edx, DWORD PTR _w$[ebp]
  016db	8b 49 0c	 mov	 ecx, DWORD PTR [ecx+12]
  016de	33 4a 38	 xor	 ecx, DWORD PTR [edx+56]
  016e1	8b 55 fc	 mov	 edx, DWORD PTR _w$[ebp]
  016e4	33 4a 20	 xor	 ecx, DWORD PTR [edx+32]
  016e7	8b 55 fc	 mov	 edx, DWORD PTR _w$[ebp]
  016ea	33 4a 18	 xor	 ecx, DWORD PTR [edx+24]
  016ed	c1 e9 1f	 shr	 ecx, 31			; 0000001fH
  016f0	0b c1		 or	 eax, ecx
  016f2	8b 4d fc	 mov	 ecx, DWORD PTR _w$[ebp]
  016f5	89 41 18	 mov	 DWORD PTR [ecx+24], eax
  016f8	8b 55 ec	 mov	 edx, DWORD PTR _v2$[ebp]
  016fb	33 55 f8	 xor	 edx, DWORD PTR _v3$[ebp]
  016fe	23 55 f0	 and	 edx, DWORD PTR _v4$[ebp]
  01701	8b 45 ec	 mov	 eax, DWORD PTR _v2$[ebp]
  01704	23 45 f8	 and	 eax, DWORD PTR _v3$[ebp]
  01707	0b c2		 or	 eax, edx
  01709	8b 4d f4	 mov	 ecx, DWORD PTR _v1$[ebp]
  0170c	c1 e1 05	 shl	 ecx, 5
  0170f	8b 55 f4	 mov	 edx, DWORD PTR _v1$[ebp]
  01712	c1 ea 1b	 shr	 edx, 27			; 0000001bH
  01715	0b d1		 or	 edx, ecx
  01717	03 d0		 add	 edx, eax
  01719	8b 45 fc	 mov	 eax, DWORD PTR _w$[ebp]
  0171c	8b 48 18	 mov	 ecx, DWORD PTR [eax+24]
  0171f	8d 94 0a dc bc
	1b 8f		 lea	 edx, DWORD PTR [edx+ecx-1894007588]
  01726	03 55 e8	 add	 edx, DWORD PTR _v0$[ebp]
  01729	89 55 e8	 mov	 DWORD PTR _v0$[ebp], edx
  0172c	8b 45 ec	 mov	 eax, DWORD PTR _v2$[ebp]
  0172f	c1 e8 02	 shr	 eax, 2
  01732	8b 4d ec	 mov	 ecx, DWORD PTR _v2$[ebp]
  01735	c1 e1 1e	 shl	 ecx, 30			; 0000001eH
  01738	0b c1		 or	 eax, ecx
  0173a	89 45 ec	 mov	 DWORD PTR _v2$[ebp], eax

; 178  :     five_cycle(v, maj, 0x8f1bbcdc,  55);

  0173d	8b 55 fc	 mov	 edx, DWORD PTR _w$[ebp]
  01740	8b 45 fc	 mov	 eax, DWORD PTR _w$[ebp]
  01743	8b 4a 10	 mov	 ecx, DWORD PTR [edx+16]
  01746	33 48 3c	 xor	 ecx, DWORD PTR [eax+60]
  01749	8b 55 fc	 mov	 edx, DWORD PTR _w$[ebp]
  0174c	33 4a 24	 xor	 ecx, DWORD PTR [edx+36]
  0174f	8b 45 fc	 mov	 eax, DWORD PTR _w$[ebp]
  01752	33 48 1c	 xor	 ecx, DWORD PTR [eax+28]
  01755	d1 e1		 shl	 ecx, 1
  01757	8b 55 fc	 mov	 edx, DWORD PTR _w$[ebp]
  0175a	8b 45 fc	 mov	 eax, DWORD PTR _w$[ebp]
  0175d	8b 52 10	 mov	 edx, DWORD PTR [edx+16]
  01760	33 50 3c	 xor	 edx, DWORD PTR [eax+60]
  01763	8b 45 fc	 mov	 eax, DWORD PTR _w$[ebp]
  01766	33 50 24	 xor	 edx, DWORD PTR [eax+36]
  01769	8b 45 fc	 mov	 eax, DWORD PTR _w$[ebp]
  0176c	33 50 1c	 xor	 edx, DWORD PTR [eax+28]
  0176f	c1 ea 1f	 shr	 edx, 31			; 0000001fH
  01772	0b ca		 or	 ecx, edx
  01774	8b 55 fc	 mov	 edx, DWORD PTR _w$[ebp]
  01777	89 4a 1c	 mov	 DWORD PTR [edx+28], ecx
  0177a	8b 45 f4	 mov	 eax, DWORD PTR _v1$[ebp]
  0177d	33 45 ec	 xor	 eax, DWORD PTR _v2$[ebp]
  01780	23 45 f8	 and	 eax, DWORD PTR _v3$[ebp]
  01783	8b 4d f4	 mov	 ecx, DWORD PTR _v1$[ebp]
  01786	23 4d ec	 and	 ecx, DWORD PTR _v2$[ebp]
  01789	0b c8		 or	 ecx, eax
  0178b	8b 55 e8	 mov	 edx, DWORD PTR _v0$[ebp]
  0178e	c1 e2 05	 shl	 edx, 5
  01791	8b 45 e8	 mov	 eax, DWORD PTR _v0$[ebp]
  01794	c1 e8 1b	 shr	 eax, 27			; 0000001bH
  01797	0b c2		 or	 eax, edx
  01799	03 c1		 add	 eax, ecx
  0179b	8b 4d fc	 mov	 ecx, DWORD PTR _w$[ebp]
  0179e	8b 51 1c	 mov	 edx, DWORD PTR [ecx+28]
  017a1	8d 84 10 dc bc
	1b 8f		 lea	 eax, DWORD PTR [eax+edx-1894007588]
  017a8	03 45 f0	 add	 eax, DWORD PTR _v4$[ebp]
  017ab	89 45 f0	 mov	 DWORD PTR _v4$[ebp], eax
  017ae	8b 4d f4	 mov	 ecx, DWORD PTR _v1$[ebp]
  017b1	c1 e9 02	 shr	 ecx, 2
  017b4	8b 55 f4	 mov	 edx, DWORD PTR _v1$[ebp]
  017b7	c1 e2 1e	 shl	 edx, 30			; 0000001eH
  017ba	0b ca		 or	 ecx, edx
  017bc	89 4d f4	 mov	 DWORD PTR _v1$[ebp], ecx
  017bf	8b 45 fc	 mov	 eax, DWORD PTR _w$[ebp]
  017c2	8b 4d fc	 mov	 ecx, DWORD PTR _w$[ebp]
  017c5	8b 50 14	 mov	 edx, DWORD PTR [eax+20]
  017c8	33 11		 xor	 edx, DWORD PTR [ecx]
  017ca	8b 45 fc	 mov	 eax, DWORD PTR _w$[ebp]
  017cd	33 50 28	 xor	 edx, DWORD PTR [eax+40]
  017d0	8b 4d fc	 mov	 ecx, DWORD PTR _w$[ebp]
  017d3	33 51 20	 xor	 edx, DWORD PTR [ecx+32]
  017d6	d1 e2		 shl	 edx, 1
  017d8	8b 45 fc	 mov	 eax, DWORD PTR _w$[ebp]
  017db	8b 4d fc	 mov	 ecx, DWORD PTR _w$[ebp]
  017de	8b 40 14	 mov	 eax, DWORD PTR [eax+20]
  017e1	33 01		 xor	 eax, DWORD PTR [ecx]
  017e3	8b 4d fc	 mov	 ecx, DWORD PTR _w$[ebp]
  017e6	33 41 28	 xor	 eax, DWORD PTR [ecx+40]
  017e9	8b 4d fc	 mov	 ecx, DWORD PTR _w$[ebp]
  017ec	33 41 20	 xor	 eax, DWORD PTR [ecx+32]
  017ef	c1 e8 1f	 shr	 eax, 31			; 0000001fH
  017f2	0b d0		 or	 edx, eax
  017f4	8b 45 fc	 mov	 eax, DWORD PTR _w$[ebp]
  017f7	89 50 20	 mov	 DWORD PTR [eax+32], edx
  017fa	8b 4d e8	 mov	 ecx, DWORD PTR _v0$[ebp]
  017fd	33 4d f4	 xor	 ecx, DWORD PTR _v1$[ebp]
  01800	23 4d ec	 and	 ecx, DWORD PTR _v2$[ebp]
  01803	8b 55 e8	 mov	 edx, DWORD PTR _v0$[ebp]
  01806	23 55 f4	 and	 edx, DWORD PTR _v1$[ebp]
  01809	0b d1		 or	 edx, ecx
  0180b	8b 45 f0	 mov	 eax, DWORD PTR _v4$[ebp]
  0180e	c1 e0 05	 shl	 eax, 5
  01811	8b 4d f0	 mov	 ecx, DWORD PTR _v4$[ebp]
  01814	c1 e9 1b	 shr	 ecx, 27			; 0000001bH
  01817	0b c8		 or	 ecx, eax
  01819	03 ca		 add	 ecx, edx
  0181b	8b 55 fc	 mov	 edx, DWORD PTR _w$[ebp]
  0181e	8b 42 20	 mov	 eax, DWORD PTR [edx+32]
  01821	8d 8c 01 dc bc
	1b 8f		 lea	 ecx, DWORD PTR [ecx+eax-1894007588]
  01828	03 4d f8	 add	 ecx, DWORD PTR _v3$[ebp]
  0182b	89 4d f8	 mov	 DWORD PTR _v3$[ebp], ecx
  0182e	8b 55 e8	 mov	 edx, DWORD PTR _v0$[ebp]
  01831	c1 ea 02	 shr	 edx, 2
  01834	8b 45 e8	 mov	 eax, DWORD PTR _v0$[ebp]
  01837	c1 e0 1e	 shl	 eax, 30			; 0000001eH
  0183a	0b d0		 or	 edx, eax
  0183c	89 55 e8	 mov	 DWORD PTR _v0$[ebp], edx
  0183f	8b 4d fc	 mov	 ecx, DWORD PTR _w$[ebp]
  01842	8b 55 fc	 mov	 edx, DWORD PTR _w$[ebp]
  01845	8b 41 18	 mov	 eax, DWORD PTR [ecx+24]
  01848	33 42 04	 xor	 eax, DWORD PTR [edx+4]
  0184b	8b 4d fc	 mov	 ecx, DWORD PTR _w$[ebp]
  0184e	33 41 2c	 xor	 eax, DWORD PTR [ecx+44]
  01851	8b 55 fc	 mov	 edx, DWORD PTR _w$[ebp]
  01854	33 42 24	 xor	 eax, DWORD PTR [edx+36]
  01857	d1 e0		 shl	 eax, 1
  01859	8b 4d fc	 mov	 ecx, DWORD PTR _w$[ebp]
  0185c	8b 55 fc	 mov	 edx, DWORD PTR _w$[ebp]
  0185f	8b 49 18	 mov	 ecx, DWORD PTR [ecx+24]
  01862	33 4a 04	 xor	 ecx, DWORD PTR [edx+4]
  01865	8b 55 fc	 mov	 edx, DWORD PTR _w$[ebp]
  01868	33 4a 2c	 xor	 ecx, DWORD PTR [edx+44]
  0186b	8b 55 fc	 mov	 edx, DWORD PTR _w$[ebp]
  0186e	33 4a 24	 xor	 ecx, DWORD PTR [edx+36]
  01871	c1 e9 1f	 shr	 ecx, 31			; 0000001fH
  01874	0b c1		 or	 eax, ecx
  01876	8b 4d fc	 mov	 ecx, DWORD PTR _w$[ebp]
  01879	89 41 24	 mov	 DWORD PTR [ecx+36], eax
  0187c	8b 55 f0	 mov	 edx, DWORD PTR _v4$[ebp]
  0187f	33 55 e8	 xor	 edx, DWORD PTR _v0$[ebp]
  01882	23 55 f4	 and	 edx, DWORD PTR _v1$[ebp]
  01885	8b 45 f0	 mov	 eax, DWORD PTR _v4$[ebp]
  01888	23 45 e8	 and	 eax, DWORD PTR _v0$[ebp]
  0188b	0b c2		 or	 eax, edx
  0188d	8b 4d f8	 mov	 ecx, DWORD PTR _v3$[ebp]
  01890	c1 e1 05	 shl	 ecx, 5
  01893	8b 55 f8	 mov	 edx, DWORD PTR _v3$[ebp]
  01896	c1 ea 1b	 shr	 edx, 27			; 0000001bH
  01899	0b d1		 or	 edx, ecx
  0189b	03 d0		 add	 edx, eax
  0189d	8b 45 fc	 mov	 eax, DWORD PTR _w$[ebp]
  018a0	8b 48 24	 mov	 ecx, DWORD PTR [eax+36]
  018a3	8d 94 0a dc bc
	1b 8f		 lea	 edx, DWORD PTR [edx+ecx-1894007588]
  018aa	03 55 ec	 add	 edx, DWORD PTR _v2$[ebp]
  018ad	89 55 ec	 mov	 DWORD PTR _v2$[ebp], edx
  018b0	8b 45 f0	 mov	 eax, DWORD PTR _v4$[ebp]
  018b3	c1 e8 02	 shr	 eax, 2
  018b6	8b 4d f0	 mov	 ecx, DWORD PTR _v4$[ebp]
  018b9	c1 e1 1e	 shl	 ecx, 30			; 0000001eH
  018bc	0b c1		 or	 eax, ecx
  018be	89 45 f0	 mov	 DWORD PTR _v4$[ebp], eax
  018c1	8b 55 fc	 mov	 edx, DWORD PTR _w$[ebp]
  018c4	8b 45 fc	 mov	 eax, DWORD PTR _w$[ebp]
  018c7	8b 4a 1c	 mov	 ecx, DWORD PTR [edx+28]
  018ca	33 48 08	 xor	 ecx, DWORD PTR [eax+8]
  018cd	8b 55 fc	 mov	 edx, DWORD PTR _w$[ebp]
  018d0	33 4a 30	 xor	 ecx, DWORD PTR [edx+48]
  018d3	8b 45 fc	 mov	 eax, DWORD PTR _w$[ebp]
  018d6	33 48 28	 xor	 ecx, DWORD PTR [eax+40]
  018d9	d1 e1		 shl	 ecx, 1
  018db	8b 55 fc	 mov	 edx, DWORD PTR _w$[ebp]
  018de	8b 45 fc	 mov	 eax, DWORD PTR _w$[ebp]
  018e1	8b 52 1c	 mov	 edx, DWORD PTR [edx+28]
  018e4	33 50 08	 xor	 edx, DWORD PTR [eax+8]
  018e7	8b 45 fc	 mov	 eax, DWORD PTR _w$[ebp]
  018ea	33 50 30	 xor	 edx, DWORD PTR [eax+48]
  018ed	8b 45 fc	 mov	 eax, DWORD PTR _w$[ebp]
  018f0	33 50 28	 xor	 edx, DWORD PTR [eax+40]
  018f3	c1 ea 1f	 shr	 edx, 31			; 0000001fH
  018f6	0b ca		 or	 ecx, edx
  018f8	8b 55 fc	 mov	 edx, DWORD PTR _w$[ebp]
  018fb	89 4a 28	 mov	 DWORD PTR [edx+40], ecx
  018fe	8b 45 f8	 mov	 eax, DWORD PTR _v3$[ebp]
  01901	33 45 f0	 xor	 eax, DWORD PTR _v4$[ebp]
  01904	23 45 e8	 and	 eax, DWORD PTR _v0$[ebp]
  01907	8b 4d f8	 mov	 ecx, DWORD PTR _v3$[ebp]
  0190a	23 4d f0	 and	 ecx, DWORD PTR _v4$[ebp]
  0190d	0b c8		 or	 ecx, eax
  0190f	8b 55 ec	 mov	 edx, DWORD PTR _v2$[ebp]
  01912	c1 e2 05	 shl	 edx, 5
  01915	8b 45 ec	 mov	 eax, DWORD PTR _v2$[ebp]
  01918	c1 e8 1b	 shr	 eax, 27			; 0000001bH
  0191b	0b c2		 or	 eax, edx
  0191d	03 c1		 add	 eax, ecx
  0191f	8b 4d fc	 mov	 ecx, DWORD PTR _w$[ebp]
  01922	8b 51 28	 mov	 edx, DWORD PTR [ecx+40]
  01925	8d 84 10 dc bc
	1b 8f		 lea	 eax, DWORD PTR [eax+edx-1894007588]
  0192c	03 45 f4	 add	 eax, DWORD PTR _v1$[ebp]
  0192f	89 45 f4	 mov	 DWORD PTR _v1$[ebp], eax
  01932	8b 4d f8	 mov	 ecx, DWORD PTR _v3$[ebp]
  01935	c1 e9 02	 shr	 ecx, 2
  01938	8b 55 f8	 mov	 edx, DWORD PTR _v3$[ebp]
  0193b	c1 e2 1e	 shl	 edx, 30			; 0000001eH
  0193e	0b ca		 or	 ecx, edx
  01940	89 4d f8	 mov	 DWORD PTR _v3$[ebp], ecx
  01943	8b 45 fc	 mov	 eax, DWORD PTR _w$[ebp]
  01946	8b 4d fc	 mov	 ecx, DWORD PTR _w$[ebp]
  01949	8b 50 20	 mov	 edx, DWORD PTR [eax+32]
  0194c	33 51 0c	 xor	 edx, DWORD PTR [ecx+12]
  0194f	8b 45 fc	 mov	 eax, DWORD PTR _w$[ebp]
  01952	33 50 34	 xor	 edx, DWORD PTR [eax+52]
  01955	8b 4d fc	 mov	 ecx, DWORD PTR _w$[ebp]
  01958	33 51 2c	 xor	 edx, DWORD PTR [ecx+44]
  0195b	d1 e2		 shl	 edx, 1
  0195d	8b 45 fc	 mov	 eax, DWORD PTR _w$[ebp]
  01960	8b 4d fc	 mov	 ecx, DWORD PTR _w$[ebp]
  01963	8b 40 20	 mov	 eax, DWORD PTR [eax+32]
  01966	33 41 0c	 xor	 eax, DWORD PTR [ecx+12]
  01969	8b 4d fc	 mov	 ecx, DWORD PTR _w$[ebp]
  0196c	33 41 34	 xor	 eax, DWORD PTR [ecx+52]
  0196f	8b 4d fc	 mov	 ecx, DWORD PTR _w$[ebp]
  01972	33 41 2c	 xor	 eax, DWORD PTR [ecx+44]
  01975	c1 e8 1f	 shr	 eax, 31			; 0000001fH
  01978	0b d0		 or	 edx, eax
  0197a	8b 45 fc	 mov	 eax, DWORD PTR _w$[ebp]
  0197d	89 50 2c	 mov	 DWORD PTR [eax+44], edx
  01980	8b 4d ec	 mov	 ecx, DWORD PTR _v2$[ebp]
  01983	33 4d f8	 xor	 ecx, DWORD PTR _v3$[ebp]
  01986	23 4d f0	 and	 ecx, DWORD PTR _v4$[ebp]
  01989	8b 55 ec	 mov	 edx, DWORD PTR _v2$[ebp]
  0198c	23 55 f8	 and	 edx, DWORD PTR _v3$[ebp]
  0198f	0b d1		 or	 edx, ecx
  01991	8b 45 f4	 mov	 eax, DWORD PTR _v1$[ebp]
  01994	c1 e0 05	 shl	 eax, 5
  01997	8b 4d f4	 mov	 ecx, DWORD PTR _v1$[ebp]
  0199a	c1 e9 1b	 shr	 ecx, 27			; 0000001bH
  0199d	0b c8		 or	 ecx, eax
  0199f	03 ca		 add	 ecx, edx
  019a1	8b 55 fc	 mov	 edx, DWORD PTR _w$[ebp]
  019a4	8b 42 2c	 mov	 eax, DWORD PTR [edx+44]
  019a7	8d 8c 01 dc bc
	1b 8f		 lea	 ecx, DWORD PTR [ecx+eax-1894007588]
  019ae	03 4d e8	 add	 ecx, DWORD PTR _v0$[ebp]
  019b1	89 4d e8	 mov	 DWORD PTR _v0$[ebp], ecx
  019b4	8b 55 ec	 mov	 edx, DWORD PTR _v2$[ebp]
  019b7	c1 ea 02	 shr	 edx, 2
  019ba	8b 45 ec	 mov	 eax, DWORD PTR _v2$[ebp]
  019bd	c1 e0 1e	 shl	 eax, 30			; 0000001eH
  019c0	0b d0		 or	 edx, eax
  019c2	89 55 ec	 mov	 DWORD PTR _v2$[ebp], edx

; 179  : 
; 180  :     five_cycle(v, parity, 0xca62c1d6,  60);

  019c5	8b 4d fc	 mov	 ecx, DWORD PTR _w$[ebp]
  019c8	8b 55 fc	 mov	 edx, DWORD PTR _w$[ebp]
  019cb	8b 41 24	 mov	 eax, DWORD PTR [ecx+36]
  019ce	33 42 10	 xor	 eax, DWORD PTR [edx+16]
  019d1	8b 4d fc	 mov	 ecx, DWORD PTR _w$[ebp]
  019d4	33 41 38	 xor	 eax, DWORD PTR [ecx+56]
  019d7	8b 55 fc	 mov	 edx, DWORD PTR _w$[ebp]
  019da	33 42 30	 xor	 eax, DWORD PTR [edx+48]
  019dd	d1 e0		 shl	 eax, 1
  019df	8b 4d fc	 mov	 ecx, DWORD PTR _w$[ebp]
  019e2	8b 55 fc	 mov	 edx, DWORD PTR _w$[ebp]
  019e5	8b 49 24	 mov	 ecx, DWORD PTR [ecx+36]
  019e8	33 4a 10	 xor	 ecx, DWORD PTR [edx+16]
  019eb	8b 55 fc	 mov	 edx, DWORD PTR _w$[ebp]
  019ee	33 4a 38	 xor	 ecx, DWORD PTR [edx+56]
  019f1	8b 55 fc	 mov	 edx, DWORD PTR _w$[ebp]
  019f4	33 4a 30	 xor	 ecx, DWORD PTR [edx+48]
  019f7	c1 e9 1f	 shr	 ecx, 31			; 0000001fH
  019fa	0b c1		 or	 eax, ecx
  019fc	8b 4d fc	 mov	 ecx, DWORD PTR _w$[ebp]
  019ff	89 41 30	 mov	 DWORD PTR [ecx+48], eax
  01a02	8b 55 f4	 mov	 edx, DWORD PTR _v1$[ebp]
  01a05	33 55 ec	 xor	 edx, DWORD PTR _v2$[ebp]
  01a08	33 55 f8	 xor	 edx, DWORD PTR _v3$[ebp]
  01a0b	8b 45 e8	 mov	 eax, DWORD PTR _v0$[ebp]
  01a0e	c1 e0 05	 shl	 eax, 5
  01a11	8b 4d e8	 mov	 ecx, DWORD PTR _v0$[ebp]
  01a14	c1 e9 1b	 shr	 ecx, 27			; 0000001bH
  01a17	0b c8		 or	 ecx, eax
  01a19	03 ca		 add	 ecx, edx
  01a1b	8b 55 fc	 mov	 edx, DWORD PTR _w$[ebp]
  01a1e	8b 42 30	 mov	 eax, DWORD PTR [edx+48]
  01a21	8d 8c 01 d6 c1
	62 ca		 lea	 ecx, DWORD PTR [ecx+eax-899497514]
  01a28	03 4d f0	 add	 ecx, DWORD PTR _v4$[ebp]
  01a2b	89 4d f0	 mov	 DWORD PTR _v4$[ebp], ecx
  01a2e	8b 55 f4	 mov	 edx, DWORD PTR _v1$[ebp]
  01a31	c1 ea 02	 shr	 edx, 2
  01a34	8b 45 f4	 mov	 eax, DWORD PTR _v1$[ebp]
  01a37	c1 e0 1e	 shl	 eax, 30			; 0000001eH
  01a3a	0b d0		 or	 edx, eax
  01a3c	89 55 f4	 mov	 DWORD PTR _v1$[ebp], edx
  01a3f	8b 4d fc	 mov	 ecx, DWORD PTR _w$[ebp]
  01a42	8b 55 fc	 mov	 edx, DWORD PTR _w$[ebp]
  01a45	8b 41 28	 mov	 eax, DWORD PTR [ecx+40]
  01a48	33 42 14	 xor	 eax, DWORD PTR [edx+20]
  01a4b	8b 4d fc	 mov	 ecx, DWORD PTR _w$[ebp]
  01a4e	33 41 3c	 xor	 eax, DWORD PTR [ecx+60]
  01a51	8b 55 fc	 mov	 edx, DWORD PTR _w$[ebp]
  01a54	33 42 34	 xor	 eax, DWORD PTR [edx+52]
  01a57	d1 e0		 shl	 eax, 1
  01a59	8b 4d fc	 mov	 ecx, DWORD PTR _w$[ebp]
  01a5c	8b 55 fc	 mov	 edx, DWORD PTR _w$[ebp]
  01a5f	8b 49 28	 mov	 ecx, DWORD PTR [ecx+40]
  01a62	33 4a 14	 xor	 ecx, DWORD PTR [edx+20]
  01a65	8b 55 fc	 mov	 edx, DWORD PTR _w$[ebp]
  01a68	33 4a 3c	 xor	 ecx, DWORD PTR [edx+60]
  01a6b	8b 55 fc	 mov	 edx, DWORD PTR _w$[ebp]
  01a6e	33 4a 34	 xor	 ecx, DWORD PTR [edx+52]
  01a71	c1 e9 1f	 shr	 ecx, 31			; 0000001fH
  01a74	0b c1		 or	 eax, ecx
  01a76	8b 4d fc	 mov	 ecx, DWORD PTR _w$[ebp]
  01a79	89 41 34	 mov	 DWORD PTR [ecx+52], eax
  01a7c	8b 55 e8	 mov	 edx, DWORD PTR _v0$[ebp]
  01a7f	33 55 f4	 xor	 edx, DWORD PTR _v1$[ebp]
  01a82	33 55 ec	 xor	 edx, DWORD PTR _v2$[ebp]
  01a85	8b 45 f0	 mov	 eax, DWORD PTR _v4$[ebp]
  01a88	c1 e0 05	 shl	 eax, 5
  01a8b	8b 4d f0	 mov	 ecx, DWORD PTR _v4$[ebp]
  01a8e	c1 e9 1b	 shr	 ecx, 27			; 0000001bH
  01a91	0b c8		 or	 ecx, eax
  01a93	03 ca		 add	 ecx, edx
  01a95	8b 55 fc	 mov	 edx, DWORD PTR _w$[ebp]
  01a98	8b 42 34	 mov	 eax, DWORD PTR [edx+52]
  01a9b	8d 8c 01 d6 c1
	62 ca		 lea	 ecx, DWORD PTR [ecx+eax-899497514]
  01aa2	03 4d f8	 add	 ecx, DWORD PTR _v3$[ebp]
  01aa5	89 4d f8	 mov	 DWORD PTR _v3$[ebp], ecx
  01aa8	8b 55 e8	 mov	 edx, DWORD PTR _v0$[ebp]
  01aab	c1 ea 02	 shr	 edx, 2
  01aae	8b 45 e8	 mov	 eax, DWORD PTR _v0$[ebp]
  01ab1	c1 e0 1e	 shl	 eax, 30			; 0000001eH
  01ab4	0b d0		 or	 edx, eax
  01ab6	89 55 e8	 mov	 DWORD PTR _v0$[ebp], edx
  01ab9	8b 4d fc	 mov	 ecx, DWORD PTR _w$[ebp]
  01abc	8b 55 fc	 mov	 edx, DWORD PTR _w$[ebp]
  01abf	8b 41 2c	 mov	 eax, DWORD PTR [ecx+44]
  01ac2	33 42 18	 xor	 eax, DWORD PTR [edx+24]
  01ac5	8b 4d fc	 mov	 ecx, DWORD PTR _w$[ebp]
  01ac8	33 01		 xor	 eax, DWORD PTR [ecx]
  01aca	8b 55 fc	 mov	 edx, DWORD PTR _w$[ebp]
  01acd	33 42 38	 xor	 eax, DWORD PTR [edx+56]
  01ad0	d1 e0		 shl	 eax, 1
  01ad2	8b 4d fc	 mov	 ecx, DWORD PTR _w$[ebp]
  01ad5	8b 55 fc	 mov	 edx, DWORD PTR _w$[ebp]
  01ad8	8b 49 2c	 mov	 ecx, DWORD PTR [ecx+44]
  01adb	33 4a 18	 xor	 ecx, DWORD PTR [edx+24]
  01ade	8b 55 fc	 mov	 edx, DWORD PTR _w$[ebp]
  01ae1	33 0a		 xor	 ecx, DWORD PTR [edx]
  01ae3	8b 55 fc	 mov	 edx, DWORD PTR _w$[ebp]
  01ae6	33 4a 38	 xor	 ecx, DWORD PTR [edx+56]
  01ae9	c1 e9 1f	 shr	 ecx, 31			; 0000001fH
  01aec	0b c1		 or	 eax, ecx
  01aee	8b 4d fc	 mov	 ecx, DWORD PTR _w$[ebp]
  01af1	89 41 38	 mov	 DWORD PTR [ecx+56], eax
  01af4	8b 55 f0	 mov	 edx, DWORD PTR _v4$[ebp]
  01af7	33 55 e8	 xor	 edx, DWORD PTR _v0$[ebp]
  01afa	33 55 f4	 xor	 edx, DWORD PTR _v1$[ebp]
  01afd	8b 45 f8	 mov	 eax, DWORD PTR _v3$[ebp]
  01b00	c1 e0 05	 shl	 eax, 5
  01b03	8b 4d f8	 mov	 ecx, DWORD PTR _v3$[ebp]
  01b06	c1 e9 1b	 shr	 ecx, 27			; 0000001bH
  01b09	0b c8		 or	 ecx, eax
  01b0b	03 ca		 add	 ecx, edx
  01b0d	8b 55 fc	 mov	 edx, DWORD PTR _w$[ebp]
  01b10	8b 42 38	 mov	 eax, DWORD PTR [edx+56]
  01b13	8d 8c 01 d6 c1
	62 ca		 lea	 ecx, DWORD PTR [ecx+eax-899497514]
  01b1a	03 4d ec	 add	 ecx, DWORD PTR _v2$[ebp]
  01b1d	89 4d ec	 mov	 DWORD PTR _v2$[ebp], ecx
  01b20	8b 55 f0	 mov	 edx, DWORD PTR _v4$[ebp]
  01b23	c1 ea 02	 shr	 edx, 2
  01b26	8b 45 f0	 mov	 eax, DWORD PTR _v4$[ebp]
  01b29	c1 e0 1e	 shl	 eax, 30			; 0000001eH
  01b2c	0b d0		 or	 edx, eax
  01b2e	89 55 f0	 mov	 DWORD PTR _v4$[ebp], edx
  01b31	8b 4d fc	 mov	 ecx, DWORD PTR _w$[ebp]
  01b34	8b 55 fc	 mov	 edx, DWORD PTR _w$[ebp]
  01b37	8b 41 30	 mov	 eax, DWORD PTR [ecx+48]
  01b3a	33 42 1c	 xor	 eax, DWORD PTR [edx+28]
  01b3d	8b 4d fc	 mov	 ecx, DWORD PTR _w$[ebp]
  01b40	33 41 04	 xor	 eax, DWORD PTR [ecx+4]
  01b43	8b 55 fc	 mov	 edx, DWORD PTR _w$[ebp]
  01b46	33 42 3c	 xor	 eax, DWORD PTR [edx+60]
  01b49	d1 e0		 shl	 eax, 1
  01b4b	8b 4d fc	 mov	 ecx, DWORD PTR _w$[ebp]
  01b4e	8b 55 fc	 mov	 edx, DWORD PTR _w$[ebp]
  01b51	8b 49 30	 mov	 ecx, DWORD PTR [ecx+48]
  01b54	33 4a 1c	 xor	 ecx, DWORD PTR [edx+28]
  01b57	8b 55 fc	 mov	 edx, DWORD PTR _w$[ebp]
  01b5a	33 4a 04	 xor	 ecx, DWORD PTR [edx+4]
  01b5d	8b 55 fc	 mov	 edx, DWORD PTR _w$[ebp]
  01b60	33 4a 3c	 xor	 ecx, DWORD PTR [edx+60]
  01b63	c1 e9 1f	 shr	 ecx, 31			; 0000001fH
  01b66	0b c1		 or	 eax, ecx
  01b68	8b 4d fc	 mov	 ecx, DWORD PTR _w$[ebp]
  01b6b	89 41 3c	 mov	 DWORD PTR [ecx+60], eax
  01b6e	8b 55 f8	 mov	 edx, DWORD PTR _v3$[ebp]
  01b71	33 55 f0	 xor	 edx, DWORD PTR _v4$[ebp]
  01b74	33 55 e8	 xor	 edx, DWORD PTR _v0$[ebp]
  01b77	8b 45 ec	 mov	 eax, DWORD PTR _v2$[ebp]
  01b7a	c1 e0 05	 shl	 eax, 5
  01b7d	8b 4d ec	 mov	 ecx, DWORD PTR _v2$[ebp]
  01b80	c1 e9 1b	 shr	 ecx, 27			; 0000001bH
  01b83	0b c8		 or	 ecx, eax
  01b85	03 ca		 add	 ecx, edx
  01b87	8b 55 fc	 mov	 edx, DWORD PTR _w$[ebp]
  01b8a	8b 42 3c	 mov	 eax, DWORD PTR [edx+60]
  01b8d	8d 8c 01 d6 c1
	62 ca		 lea	 ecx, DWORD PTR [ecx+eax-899497514]
  01b94	03 4d f4	 add	 ecx, DWORD PTR _v1$[ebp]
  01b97	89 4d f4	 mov	 DWORD PTR _v1$[ebp], ecx
  01b9a	8b 55 f8	 mov	 edx, DWORD PTR _v3$[ebp]
  01b9d	c1 ea 02	 shr	 edx, 2
  01ba0	8b 45 f8	 mov	 eax, DWORD PTR _v3$[ebp]
  01ba3	c1 e0 1e	 shl	 eax, 30			; 0000001eH
  01ba6	0b d0		 or	 edx, eax
  01ba8	89 55 f8	 mov	 DWORD PTR _v3$[ebp], edx
  01bab	8b 4d fc	 mov	 ecx, DWORD PTR _w$[ebp]
  01bae	8b 55 fc	 mov	 edx, DWORD PTR _w$[ebp]
  01bb1	8b 41 34	 mov	 eax, DWORD PTR [ecx+52]
  01bb4	33 42 20	 xor	 eax, DWORD PTR [edx+32]
  01bb7	8b 4d fc	 mov	 ecx, DWORD PTR _w$[ebp]
  01bba	33 41 08	 xor	 eax, DWORD PTR [ecx+8]
  01bbd	8b 55 fc	 mov	 edx, DWORD PTR _w$[ebp]
  01bc0	33 02		 xor	 eax, DWORD PTR [edx]
  01bc2	d1 e0		 shl	 eax, 1
  01bc4	8b 4d fc	 mov	 ecx, DWORD PTR _w$[ebp]
  01bc7	8b 55 fc	 mov	 edx, DWORD PTR _w$[ebp]
  01bca	8b 49 34	 mov	 ecx, DWORD PTR [ecx+52]
  01bcd	33 4a 20	 xor	 ecx, DWORD PTR [edx+32]
  01bd0	8b 55 fc	 mov	 edx, DWORD PTR _w$[ebp]
  01bd3	33 4a 08	 xor	 ecx, DWORD PTR [edx+8]
  01bd6	8b 55 fc	 mov	 edx, DWORD PTR _w$[ebp]
  01bd9	33 0a		 xor	 ecx, DWORD PTR [edx]
  01bdb	c1 e9 1f	 shr	 ecx, 31			; 0000001fH
  01bde	0b c1		 or	 eax, ecx
  01be0	8b 4d fc	 mov	 ecx, DWORD PTR _w$[ebp]
  01be3	89 01		 mov	 DWORD PTR [ecx], eax
  01be5	8b 55 ec	 mov	 edx, DWORD PTR _v2$[ebp]
  01be8	33 55 f8	 xor	 edx, DWORD PTR _v3$[ebp]
  01beb	33 55 f0	 xor	 edx, DWORD PTR _v4$[ebp]
  01bee	8b 45 f4	 mov	 eax, DWORD PTR _v1$[ebp]
  01bf1	c1 e0 05	 shl	 eax, 5
  01bf4	8b 4d f4	 mov	 ecx, DWORD PTR _v1$[ebp]
  01bf7	c1 e9 1b	 shr	 ecx, 27			; 0000001bH
  01bfa	0b c8		 or	 ecx, eax
  01bfc	03 ca		 add	 ecx, edx
  01bfe	8b 55 fc	 mov	 edx, DWORD PTR _w$[ebp]
  01c01	8b 02		 mov	 eax, DWORD PTR [edx]
  01c03	8d 8c 01 d6 c1
	62 ca		 lea	 ecx, DWORD PTR [ecx+eax-899497514]
  01c0a	03 4d e8	 add	 ecx, DWORD PTR _v0$[ebp]
  01c0d	89 4d e8	 mov	 DWORD PTR _v0$[ebp], ecx
  01c10	8b 55 ec	 mov	 edx, DWORD PTR _v2$[ebp]
  01c13	c1 ea 02	 shr	 edx, 2
  01c16	8b 45 ec	 mov	 eax, DWORD PTR _v2$[ebp]
  01c19	c1 e0 1e	 shl	 eax, 30			; 0000001eH
  01c1c	0b d0		 or	 edx, eax
  01c1e	89 55 ec	 mov	 DWORD PTR _v2$[ebp], edx

; 181  :     five_cycle(v, parity, 0xca62c1d6,  65);

  01c21	8b 4d fc	 mov	 ecx, DWORD PTR _w$[ebp]
  01c24	8b 55 fc	 mov	 edx, DWORD PTR _w$[ebp]
  01c27	8b 41 38	 mov	 eax, DWORD PTR [ecx+56]
  01c2a	33 42 24	 xor	 eax, DWORD PTR [edx+36]
  01c2d	8b 4d fc	 mov	 ecx, DWORD PTR _w$[ebp]
  01c30	33 41 0c	 xor	 eax, DWORD PTR [ecx+12]
  01c33	8b 55 fc	 mov	 edx, DWORD PTR _w$[ebp]
  01c36	33 42 04	 xor	 eax, DWORD PTR [edx+4]
  01c39	d1 e0		 shl	 eax, 1
  01c3b	8b 4d fc	 mov	 ecx, DWORD PTR _w$[ebp]
  01c3e	8b 55 fc	 mov	 edx, DWORD PTR _w$[ebp]
  01c41	8b 49 38	 mov	 ecx, DWORD PTR [ecx+56]
  01c44	33 4a 24	 xor	 ecx, DWORD PTR [edx+36]
  01c47	8b 55 fc	 mov	 edx, DWORD PTR _w$[ebp]
  01c4a	33 4a 0c	 xor	 ecx, DWORD PTR [edx+12]
  01c4d	8b 55 fc	 mov	 edx, DWORD PTR _w$[ebp]
  01c50	33 4a 04	 xor	 ecx, DWORD PTR [edx+4]
  01c53	c1 e9 1f	 shr	 ecx, 31			; 0000001fH
  01c56	0b c1		 or	 eax, ecx
  01c58	8b 4d fc	 mov	 ecx, DWORD PTR _w$[ebp]
  01c5b	89 41 04	 mov	 DWORD PTR [ecx+4], eax
  01c5e	8b 55 f4	 mov	 edx, DWORD PTR _v1$[ebp]
  01c61	33 55 ec	 xor	 edx, DWORD PTR _v2$[ebp]
  01c64	33 55 f8	 xor	 edx, DWORD PTR _v3$[ebp]
  01c67	8b 45 e8	 mov	 eax, DWORD PTR _v0$[ebp]
  01c6a	c1 e0 05	 shl	 eax, 5
  01c6d	8b 4d e8	 mov	 ecx, DWORD PTR _v0$[ebp]
  01c70	c1 e9 1b	 shr	 ecx, 27			; 0000001bH
  01c73	0b c8		 or	 ecx, eax
  01c75	03 ca		 add	 ecx, edx
  01c77	8b 55 fc	 mov	 edx, DWORD PTR _w$[ebp]
  01c7a	8b 42 04	 mov	 eax, DWORD PTR [edx+4]
  01c7d	8d 8c 01 d6 c1
	62 ca		 lea	 ecx, DWORD PTR [ecx+eax-899497514]
  01c84	03 4d f0	 add	 ecx, DWORD PTR _v4$[ebp]
  01c87	89 4d f0	 mov	 DWORD PTR _v4$[ebp], ecx
  01c8a	8b 55 f4	 mov	 edx, DWORD PTR _v1$[ebp]
  01c8d	c1 ea 02	 shr	 edx, 2
  01c90	8b 45 f4	 mov	 eax, DWORD PTR _v1$[ebp]
  01c93	c1 e0 1e	 shl	 eax, 30			; 0000001eH
  01c96	0b d0		 or	 edx, eax
  01c98	89 55 f4	 mov	 DWORD PTR _v1$[ebp], edx
  01c9b	8b 4d fc	 mov	 ecx, DWORD PTR _w$[ebp]
  01c9e	8b 55 fc	 mov	 edx, DWORD PTR _w$[ebp]
  01ca1	8b 41 3c	 mov	 eax, DWORD PTR [ecx+60]
  01ca4	33 42 28	 xor	 eax, DWORD PTR [edx+40]
  01ca7	8b 4d fc	 mov	 ecx, DWORD PTR _w$[ebp]
  01caa	33 41 10	 xor	 eax, DWORD PTR [ecx+16]
  01cad	8b 55 fc	 mov	 edx, DWORD PTR _w$[ebp]
  01cb0	33 42 08	 xor	 eax, DWORD PTR [edx+8]
  01cb3	d1 e0		 shl	 eax, 1
  01cb5	8b 4d fc	 mov	 ecx, DWORD PTR _w$[ebp]
  01cb8	8b 55 fc	 mov	 edx, DWORD PTR _w$[ebp]
  01cbb	8b 49 3c	 mov	 ecx, DWORD PTR [ecx+60]
  01cbe	33 4a 28	 xor	 ecx, DWORD PTR [edx+40]
  01cc1	8b 55 fc	 mov	 edx, DWORD PTR _w$[ebp]
  01cc4	33 4a 10	 xor	 ecx, DWORD PTR [edx+16]
  01cc7	8b 55 fc	 mov	 edx, DWORD PTR _w$[ebp]
  01cca	33 4a 08	 xor	 ecx, DWORD PTR [edx+8]
  01ccd	c1 e9 1f	 shr	 ecx, 31			; 0000001fH
  01cd0	0b c1		 or	 eax, ecx
  01cd2	8b 4d fc	 mov	 ecx, DWORD PTR _w$[ebp]
  01cd5	89 41 08	 mov	 DWORD PTR [ecx+8], eax
  01cd8	8b 55 e8	 mov	 edx, DWORD PTR _v0$[ebp]
  01cdb	33 55 f4	 xor	 edx, DWORD PTR _v1$[ebp]
  01cde	33 55 ec	 xor	 edx, DWORD PTR _v2$[ebp]
  01ce1	8b 45 f0	 mov	 eax, DWORD PTR _v4$[ebp]
  01ce4	c1 e0 05	 shl	 eax, 5
  01ce7	8b 4d f0	 mov	 ecx, DWORD PTR _v4$[ebp]
  01cea	c1 e9 1b	 shr	 ecx, 27			; 0000001bH
  01ced	0b c8		 or	 ecx, eax
  01cef	03 ca		 add	 ecx, edx
  01cf1	8b 55 fc	 mov	 edx, DWORD PTR _w$[ebp]
  01cf4	8b 42 08	 mov	 eax, DWORD PTR [edx+8]
  01cf7	8d 8c 01 d6 c1
	62 ca		 lea	 ecx, DWORD PTR [ecx+eax-899497514]
  01cfe	03 4d f8	 add	 ecx, DWORD PTR _v3$[ebp]
  01d01	89 4d f8	 mov	 DWORD PTR _v3$[ebp], ecx
  01d04	8b 55 e8	 mov	 edx, DWORD PTR _v0$[ebp]
  01d07	c1 ea 02	 shr	 edx, 2
  01d0a	8b 45 e8	 mov	 eax, DWORD PTR _v0$[ebp]
  01d0d	c1 e0 1e	 shl	 eax, 30			; 0000001eH
  01d10	0b d0		 or	 edx, eax
  01d12	89 55 e8	 mov	 DWORD PTR _v0$[ebp], edx
  01d15	8b 4d fc	 mov	 ecx, DWORD PTR _w$[ebp]
  01d18	8b 55 fc	 mov	 edx, DWORD PTR _w$[ebp]
  01d1b	8b 01		 mov	 eax, DWORD PTR [ecx]
  01d1d	33 42 2c	 xor	 eax, DWORD PTR [edx+44]
  01d20	8b 4d fc	 mov	 ecx, DWORD PTR _w$[ebp]
  01d23	33 41 14	 xor	 eax, DWORD PTR [ecx+20]
  01d26	8b 55 fc	 mov	 edx, DWORD PTR _w$[ebp]
  01d29	33 42 0c	 xor	 eax, DWORD PTR [edx+12]
  01d2c	d1 e0		 shl	 eax, 1
  01d2e	8b 4d fc	 mov	 ecx, DWORD PTR _w$[ebp]
  01d31	8b 55 fc	 mov	 edx, DWORD PTR _w$[ebp]
  01d34	8b 09		 mov	 ecx, DWORD PTR [ecx]
  01d36	33 4a 2c	 xor	 ecx, DWORD PTR [edx+44]
  01d39	8b 55 fc	 mov	 edx, DWORD PTR _w$[ebp]
  01d3c	33 4a 14	 xor	 ecx, DWORD PTR [edx+20]
  01d3f	8b 55 fc	 mov	 edx, DWORD PTR _w$[ebp]
  01d42	33 4a 0c	 xor	 ecx, DWORD PTR [edx+12]
  01d45	c1 e9 1f	 shr	 ecx, 31			; 0000001fH
  01d48	0b c1		 or	 eax, ecx
  01d4a	8b 4d fc	 mov	 ecx, DWORD PTR _w$[ebp]
  01d4d	89 41 0c	 mov	 DWORD PTR [ecx+12], eax
  01d50	8b 55 f0	 mov	 edx, DWORD PTR _v4$[ebp]
  01d53	33 55 e8	 xor	 edx, DWORD PTR _v0$[ebp]
  01d56	33 55 f4	 xor	 edx, DWORD PTR _v1$[ebp]
  01d59	8b 45 f8	 mov	 eax, DWORD PTR _v3$[ebp]
  01d5c	c1 e0 05	 shl	 eax, 5
  01d5f	8b 4d f8	 mov	 ecx, DWORD PTR _v3$[ebp]
  01d62	c1 e9 1b	 shr	 ecx, 27			; 0000001bH
  01d65	0b c8		 or	 ecx, eax
  01d67	03 ca		 add	 ecx, edx
  01d69	8b 55 fc	 mov	 edx, DWORD PTR _w$[ebp]
  01d6c	8b 42 0c	 mov	 eax, DWORD PTR [edx+12]
  01d6f	8d 8c 01 d6 c1
	62 ca		 lea	 ecx, DWORD PTR [ecx+eax-899497514]
  01d76	03 4d ec	 add	 ecx, DWORD PTR _v2$[ebp]
  01d79	89 4d ec	 mov	 DWORD PTR _v2$[ebp], ecx
  01d7c	8b 55 f0	 mov	 edx, DWORD PTR _v4$[ebp]
  01d7f	c1 ea 02	 shr	 edx, 2
  01d82	8b 45 f0	 mov	 eax, DWORD PTR _v4$[ebp]
  01d85	c1 e0 1e	 shl	 eax, 30			; 0000001eH
  01d88	0b d0		 or	 edx, eax
  01d8a	89 55 f0	 mov	 DWORD PTR _v4$[ebp], edx
  01d8d	8b 4d fc	 mov	 ecx, DWORD PTR _w$[ebp]
  01d90	8b 55 fc	 mov	 edx, DWORD PTR _w$[ebp]
  01d93	8b 41 04	 mov	 eax, DWORD PTR [ecx+4]
  01d96	33 42 30	 xor	 eax, DWORD PTR [edx+48]
  01d99	8b 4d fc	 mov	 ecx, DWORD PTR _w$[ebp]
  01d9c	33 41 18	 xor	 eax, DWORD PTR [ecx+24]
  01d9f	8b 55 fc	 mov	 edx, DWORD PTR _w$[ebp]
  01da2	33 42 10	 xor	 eax, DWORD PTR [edx+16]
  01da5	d1 e0		 shl	 eax, 1
  01da7	8b 4d fc	 mov	 ecx, DWORD PTR _w$[ebp]
  01daa	8b 55 fc	 mov	 edx, DWORD PTR _w$[ebp]
  01dad	8b 49 04	 mov	 ecx, DWORD PTR [ecx+4]
  01db0	33 4a 30	 xor	 ecx, DWORD PTR [edx+48]
  01db3	8b 55 fc	 mov	 edx, DWORD PTR _w$[ebp]
  01db6	33 4a 18	 xor	 ecx, DWORD PTR [edx+24]
  01db9	8b 55 fc	 mov	 edx, DWORD PTR _w$[ebp]
  01dbc	33 4a 10	 xor	 ecx, DWORD PTR [edx+16]
  01dbf	c1 e9 1f	 shr	 ecx, 31			; 0000001fH
  01dc2	0b c1		 or	 eax, ecx
  01dc4	8b 4d fc	 mov	 ecx, DWORD PTR _w$[ebp]
  01dc7	89 41 10	 mov	 DWORD PTR [ecx+16], eax
  01dca	8b 55 f8	 mov	 edx, DWORD PTR _v3$[ebp]
  01dcd	33 55 f0	 xor	 edx, DWORD PTR _v4$[ebp]
  01dd0	33 55 e8	 xor	 edx, DWORD PTR _v0$[ebp]
  01dd3	8b 45 ec	 mov	 eax, DWORD PTR _v2$[ebp]
  01dd6	c1 e0 05	 shl	 eax, 5
  01dd9	8b 4d ec	 mov	 ecx, DWORD PTR _v2$[ebp]
  01ddc	c1 e9 1b	 shr	 ecx, 27			; 0000001bH
  01ddf	0b c8		 or	 ecx, eax
  01de1	03 ca		 add	 ecx, edx
  01de3	8b 55 fc	 mov	 edx, DWORD PTR _w$[ebp]
  01de6	8b 42 10	 mov	 eax, DWORD PTR [edx+16]
  01de9	8d 8c 01 d6 c1
	62 ca		 lea	 ecx, DWORD PTR [ecx+eax-899497514]
  01df0	03 4d f4	 add	 ecx, DWORD PTR _v1$[ebp]
  01df3	89 4d f4	 mov	 DWORD PTR _v1$[ebp], ecx
  01df6	8b 55 f8	 mov	 edx, DWORD PTR _v3$[ebp]
  01df9	c1 ea 02	 shr	 edx, 2
  01dfc	8b 45 f8	 mov	 eax, DWORD PTR _v3$[ebp]
  01dff	c1 e0 1e	 shl	 eax, 30			; 0000001eH
  01e02	0b d0		 or	 edx, eax
  01e04	89 55 f8	 mov	 DWORD PTR _v3$[ebp], edx
  01e07	8b 4d fc	 mov	 ecx, DWORD PTR _w$[ebp]
  01e0a	8b 55 fc	 mov	 edx, DWORD PTR _w$[ebp]
  01e0d	8b 41 08	 mov	 eax, DWORD PTR [ecx+8]
  01e10	33 42 34	 xor	 eax, DWORD PTR [edx+52]
  01e13	8b 4d fc	 mov	 ecx, DWORD PTR _w$[ebp]
  01e16	33 41 1c	 xor	 eax, DWORD PTR [ecx+28]
  01e19	8b 55 fc	 mov	 edx, DWORD PTR _w$[ebp]
  01e1c	33 42 14	 xor	 eax, DWORD PTR [edx+20]
  01e1f	d1 e0		 shl	 eax, 1
  01e21	8b 4d fc	 mov	 ecx, DWORD PTR _w$[ebp]
  01e24	8b 55 fc	 mov	 edx, DWORD PTR _w$[ebp]
  01e27	8b 49 08	 mov	 ecx, DWORD PTR [ecx+8]
  01e2a	33 4a 34	 xor	 ecx, DWORD PTR [edx+52]
  01e2d	8b 55 fc	 mov	 edx, DWORD PTR _w$[ebp]
  01e30	33 4a 1c	 xor	 ecx, DWORD PTR [edx+28]
  01e33	8b 55 fc	 mov	 edx, DWORD PTR _w$[ebp]
  01e36	33 4a 14	 xor	 ecx, DWORD PTR [edx+20]
  01e39	c1 e9 1f	 shr	 ecx, 31			; 0000001fH
  01e3c	0b c1		 or	 eax, ecx
  01e3e	8b 4d fc	 mov	 ecx, DWORD PTR _w$[ebp]
  01e41	89 41 14	 mov	 DWORD PTR [ecx+20], eax
  01e44	8b 55 ec	 mov	 edx, DWORD PTR _v2$[ebp]
  01e47	33 55 f8	 xor	 edx, DWORD PTR _v3$[ebp]
  01e4a	33 55 f0	 xor	 edx, DWORD PTR _v4$[ebp]
  01e4d	8b 45 f4	 mov	 eax, DWORD PTR _v1$[ebp]
  01e50	c1 e0 05	 shl	 eax, 5
  01e53	8b 4d f4	 mov	 ecx, DWORD PTR _v1$[ebp]
  01e56	c1 e9 1b	 shr	 ecx, 27			; 0000001bH
  01e59	0b c8		 or	 ecx, eax
  01e5b	03 ca		 add	 ecx, edx
  01e5d	8b 55 fc	 mov	 edx, DWORD PTR _w$[ebp]
  01e60	8b 42 14	 mov	 eax, DWORD PTR [edx+20]
  01e63	8d 8c 01 d6 c1
	62 ca		 lea	 ecx, DWORD PTR [ecx+eax-899497514]
  01e6a	03 4d e8	 add	 ecx, DWORD PTR _v0$[ebp]
  01e6d	89 4d e8	 mov	 DWORD PTR _v0$[ebp], ecx
  01e70	8b 55 ec	 mov	 edx, DWORD PTR _v2$[ebp]
  01e73	c1 ea 02	 shr	 edx, 2
  01e76	8b 45 ec	 mov	 eax, DWORD PTR _v2$[ebp]
  01e79	c1 e0 1e	 shl	 eax, 30			; 0000001eH
  01e7c	0b d0		 or	 edx, eax
  01e7e	89 55 ec	 mov	 DWORD PTR _v2$[ebp], edx

; 182  :     five_cycle(v, parity, 0xca62c1d6,  70);

  01e81	8b 4d fc	 mov	 ecx, DWORD PTR _w$[ebp]
  01e84	8b 55 fc	 mov	 edx, DWORD PTR _w$[ebp]
  01e87	8b 41 0c	 mov	 eax, DWORD PTR [ecx+12]
  01e8a	33 42 38	 xor	 eax, DWORD PTR [edx+56]
  01e8d	8b 4d fc	 mov	 ecx, DWORD PTR _w$[ebp]
  01e90	33 41 20	 xor	 eax, DWORD PTR [ecx+32]
  01e93	8b 55 fc	 mov	 edx, DWORD PTR _w$[ebp]
  01e96	33 42 18	 xor	 eax, DWORD PTR [edx+24]
  01e99	d1 e0		 shl	 eax, 1
  01e9b	8b 4d fc	 mov	 ecx, DWORD PTR _w$[ebp]
  01e9e	8b 55 fc	 mov	 edx, DWORD PTR _w$[ebp]
  01ea1	8b 49 0c	 mov	 ecx, DWORD PTR [ecx+12]
  01ea4	33 4a 38	 xor	 ecx, DWORD PTR [edx+56]
  01ea7	8b 55 fc	 mov	 edx, DWORD PTR _w$[ebp]
  01eaa	33 4a 20	 xor	 ecx, DWORD PTR [edx+32]
  01ead	8b 55 fc	 mov	 edx, DWORD PTR _w$[ebp]
  01eb0	33 4a 18	 xor	 ecx, DWORD PTR [edx+24]
  01eb3	c1 e9 1f	 shr	 ecx, 31			; 0000001fH
  01eb6	0b c1		 or	 eax, ecx
  01eb8	8b 4d fc	 mov	 ecx, DWORD PTR _w$[ebp]
  01ebb	89 41 18	 mov	 DWORD PTR [ecx+24], eax
  01ebe	8b 55 f4	 mov	 edx, DWORD PTR _v1$[ebp]
  01ec1	33 55 ec	 xor	 edx, DWORD PTR _v2$[ebp]
  01ec4	33 55 f8	 xor	 edx, DWORD PTR _v3$[ebp]
  01ec7	8b 45 e8	 mov	 eax, DWORD PTR _v0$[ebp]
  01eca	c1 e0 05	 shl	 eax, 5
  01ecd	8b 4d e8	 mov	 ecx, DWORD PTR _v0$[ebp]
  01ed0	c1 e9 1b	 shr	 ecx, 27			; 0000001bH
  01ed3	0b c8		 or	 ecx, eax
  01ed5	03 ca		 add	 ecx, edx
  01ed7	8b 55 fc	 mov	 edx, DWORD PTR _w$[ebp]
  01eda	8b 42 18	 mov	 eax, DWORD PTR [edx+24]
  01edd	8d 8c 01 d6 c1
	62 ca		 lea	 ecx, DWORD PTR [ecx+eax-899497514]
  01ee4	03 4d f0	 add	 ecx, DWORD PTR _v4$[ebp]
  01ee7	89 4d f0	 mov	 DWORD PTR _v4$[ebp], ecx
  01eea	8b 55 f4	 mov	 edx, DWORD PTR _v1$[ebp]
  01eed	c1 ea 02	 shr	 edx, 2
  01ef0	8b 45 f4	 mov	 eax, DWORD PTR _v1$[ebp]
  01ef3	c1 e0 1e	 shl	 eax, 30			; 0000001eH
  01ef6	0b d0		 or	 edx, eax
  01ef8	89 55 f4	 mov	 DWORD PTR _v1$[ebp], edx
  01efb	8b 4d fc	 mov	 ecx, DWORD PTR _w$[ebp]
  01efe	8b 55 fc	 mov	 edx, DWORD PTR _w$[ebp]
  01f01	8b 41 10	 mov	 eax, DWORD PTR [ecx+16]
  01f04	33 42 3c	 xor	 eax, DWORD PTR [edx+60]
  01f07	8b 4d fc	 mov	 ecx, DWORD PTR _w$[ebp]
  01f0a	33 41 24	 xor	 eax, DWORD PTR [ecx+36]
  01f0d	8b 55 fc	 mov	 edx, DWORD PTR _w$[ebp]
  01f10	33 42 1c	 xor	 eax, DWORD PTR [edx+28]
  01f13	d1 e0		 shl	 eax, 1
  01f15	8b 4d fc	 mov	 ecx, DWORD PTR _w$[ebp]
  01f18	8b 55 fc	 mov	 edx, DWORD PTR _w$[ebp]
  01f1b	8b 49 10	 mov	 ecx, DWORD PTR [ecx+16]
  01f1e	33 4a 3c	 xor	 ecx, DWORD PTR [edx+60]
  01f21	8b 55 fc	 mov	 edx, DWORD PTR _w$[ebp]
  01f24	33 4a 24	 xor	 ecx, DWORD PTR [edx+36]
  01f27	8b 55 fc	 mov	 edx, DWORD PTR _w$[ebp]
  01f2a	33 4a 1c	 xor	 ecx, DWORD PTR [edx+28]
  01f2d	c1 e9 1f	 shr	 ecx, 31			; 0000001fH
  01f30	0b c1		 or	 eax, ecx
  01f32	8b 4d fc	 mov	 ecx, DWORD PTR _w$[ebp]
  01f35	89 41 1c	 mov	 DWORD PTR [ecx+28], eax
  01f38	8b 55 e8	 mov	 edx, DWORD PTR _v0$[ebp]
  01f3b	33 55 f4	 xor	 edx, DWORD PTR _v1$[ebp]
  01f3e	33 55 ec	 xor	 edx, DWORD PTR _v2$[ebp]
  01f41	8b 45 f0	 mov	 eax, DWORD PTR _v4$[ebp]
  01f44	c1 e0 05	 shl	 eax, 5
  01f47	8b 4d f0	 mov	 ecx, DWORD PTR _v4$[ebp]
  01f4a	c1 e9 1b	 shr	 ecx, 27			; 0000001bH
  01f4d	0b c8		 or	 ecx, eax
  01f4f	03 ca		 add	 ecx, edx
  01f51	8b 55 fc	 mov	 edx, DWORD PTR _w$[ebp]
  01f54	8b 42 1c	 mov	 eax, DWORD PTR [edx+28]
  01f57	8d 8c 01 d6 c1
	62 ca		 lea	 ecx, DWORD PTR [ecx+eax-899497514]
  01f5e	03 4d f8	 add	 ecx, DWORD PTR _v3$[ebp]
  01f61	89 4d f8	 mov	 DWORD PTR _v3$[ebp], ecx
  01f64	8b 55 e8	 mov	 edx, DWORD PTR _v0$[ebp]
  01f67	c1 ea 02	 shr	 edx, 2
  01f6a	8b 45 e8	 mov	 eax, DWORD PTR _v0$[ebp]
  01f6d	c1 e0 1e	 shl	 eax, 30			; 0000001eH
  01f70	0b d0		 or	 edx, eax
  01f72	89 55 e8	 mov	 DWORD PTR _v0$[ebp], edx
  01f75	8b 4d fc	 mov	 ecx, DWORD PTR _w$[ebp]
  01f78	8b 55 fc	 mov	 edx, DWORD PTR _w$[ebp]
  01f7b	8b 41 14	 mov	 eax, DWORD PTR [ecx+20]
  01f7e	33 02		 xor	 eax, DWORD PTR [edx]
  01f80	8b 4d fc	 mov	 ecx, DWORD PTR _w$[ebp]
  01f83	33 41 28	 xor	 eax, DWORD PTR [ecx+40]
  01f86	8b 55 fc	 mov	 edx, DWORD PTR _w$[ebp]
  01f89	33 42 20	 xor	 eax, DWORD PTR [edx+32]
  01f8c	d1 e0		 shl	 eax, 1
  01f8e	8b 4d fc	 mov	 ecx, DWORD PTR _w$[ebp]
  01f91	8b 55 fc	 mov	 edx, DWORD PTR _w$[ebp]
  01f94	8b 49 14	 mov	 ecx, DWORD PTR [ecx+20]
  01f97	33 0a		 xor	 ecx, DWORD PTR [edx]
  01f99	8b 55 fc	 mov	 edx, DWORD PTR _w$[ebp]
  01f9c	33 4a 28	 xor	 ecx, DWORD PTR [edx+40]
  01f9f	8b 55 fc	 mov	 edx, DWORD PTR _w$[ebp]
  01fa2	33 4a 20	 xor	 ecx, DWORD PTR [edx+32]
  01fa5	c1 e9 1f	 shr	 ecx, 31			; 0000001fH
  01fa8	0b c1		 or	 eax, ecx
  01faa	8b 4d fc	 mov	 ecx, DWORD PTR _w$[ebp]
  01fad	89 41 20	 mov	 DWORD PTR [ecx+32], eax
  01fb0	8b 55 f0	 mov	 edx, DWORD PTR _v4$[ebp]
  01fb3	33 55 e8	 xor	 edx, DWORD PTR _v0$[ebp]
  01fb6	33 55 f4	 xor	 edx, DWORD PTR _v1$[ebp]
  01fb9	8b 45 f8	 mov	 eax, DWORD PTR _v3$[ebp]
  01fbc	c1 e0 05	 shl	 eax, 5
  01fbf	8b 4d f8	 mov	 ecx, DWORD PTR _v3$[ebp]
  01fc2	c1 e9 1b	 shr	 ecx, 27			; 0000001bH
  01fc5	0b c8		 or	 ecx, eax
  01fc7	03 ca		 add	 ecx, edx
  01fc9	8b 55 fc	 mov	 edx, DWORD PTR _w$[ebp]
  01fcc	8b 42 20	 mov	 eax, DWORD PTR [edx+32]
  01fcf	8d 8c 01 d6 c1
	62 ca		 lea	 ecx, DWORD PTR [ecx+eax-899497514]
  01fd6	03 4d ec	 add	 ecx, DWORD PTR _v2$[ebp]
  01fd9	89 4d ec	 mov	 DWORD PTR _v2$[ebp], ecx
  01fdc	8b 55 f0	 mov	 edx, DWORD PTR _v4$[ebp]
  01fdf	c1 ea 02	 shr	 edx, 2
  01fe2	8b 45 f0	 mov	 eax, DWORD PTR _v4$[ebp]
  01fe5	c1 e0 1e	 shl	 eax, 30			; 0000001eH
  01fe8	0b d0		 or	 edx, eax
  01fea	89 55 f0	 mov	 DWORD PTR _v4$[ebp], edx
  01fed	8b 4d fc	 mov	 ecx, DWORD PTR _w$[ebp]
  01ff0	8b 55 fc	 mov	 edx, DWORD PTR _w$[ebp]
  01ff3	8b 41 18	 mov	 eax, DWORD PTR [ecx+24]
  01ff6	33 42 04	 xor	 eax, DWORD PTR [edx+4]
  01ff9	8b 4d fc	 mov	 ecx, DWORD PTR _w$[ebp]
  01ffc	33 41 2c	 xor	 eax, DWORD PTR [ecx+44]
  01fff	8b 55 fc	 mov	 edx, DWORD PTR _w$[ebp]
  02002	33 42 24	 xor	 eax, DWORD PTR [edx+36]
  02005	d1 e0		 shl	 eax, 1
  02007	8b 4d fc	 mov	 ecx, DWORD PTR _w$[ebp]
  0200a	8b 55 fc	 mov	 edx, DWORD PTR _w$[ebp]
  0200d	8b 49 18	 mov	 ecx, DWORD PTR [ecx+24]
  02010	33 4a 04	 xor	 ecx, DWORD PTR [edx+4]
  02013	8b 55 fc	 mov	 edx, DWORD PTR _w$[ebp]
  02016	33 4a 2c	 xor	 ecx, DWORD PTR [edx+44]
  02019	8b 55 fc	 mov	 edx, DWORD PTR _w$[ebp]
  0201c	33 4a 24	 xor	 ecx, DWORD PTR [edx+36]
  0201f	c1 e9 1f	 shr	 ecx, 31			; 0000001fH
  02022	0b c1		 or	 eax, ecx
  02024	8b 4d fc	 mov	 ecx, DWORD PTR _w$[ebp]
  02027	89 41 24	 mov	 DWORD PTR [ecx+36], eax
  0202a	8b 55 f8	 mov	 edx, DWORD PTR _v3$[ebp]
  0202d	33 55 f0	 xor	 edx, DWORD PTR _v4$[ebp]
  02030	33 55 e8	 xor	 edx, DWORD PTR _v0$[ebp]
  02033	8b 45 ec	 mov	 eax, DWORD PTR _v2$[ebp]
  02036	c1 e0 05	 shl	 eax, 5
  02039	8b 4d ec	 mov	 ecx, DWORD PTR _v2$[ebp]
  0203c	c1 e9 1b	 shr	 ecx, 27			; 0000001bH
  0203f	0b c8		 or	 ecx, eax
  02041	03 ca		 add	 ecx, edx
  02043	8b 55 fc	 mov	 edx, DWORD PTR _w$[ebp]
  02046	8b 42 24	 mov	 eax, DWORD PTR [edx+36]
  02049	8d 8c 01 d6 c1
	62 ca		 lea	 ecx, DWORD PTR [ecx+eax-899497514]
  02050	03 4d f4	 add	 ecx, DWORD PTR _v1$[ebp]
  02053	89 4d f4	 mov	 DWORD PTR _v1$[ebp], ecx
  02056	8b 55 f8	 mov	 edx, DWORD PTR _v3$[ebp]
  02059	c1 ea 02	 shr	 edx, 2
  0205c	8b 45 f8	 mov	 eax, DWORD PTR _v3$[ebp]
  0205f	c1 e0 1e	 shl	 eax, 30			; 0000001eH
  02062	0b d0		 or	 edx, eax
  02064	89 55 f8	 mov	 DWORD PTR _v3$[ebp], edx
  02067	8b 4d fc	 mov	 ecx, DWORD PTR _w$[ebp]
  0206a	8b 55 fc	 mov	 edx, DWORD PTR _w$[ebp]
  0206d	8b 41 1c	 mov	 eax, DWORD PTR [ecx+28]
  02070	33 42 08	 xor	 eax, DWORD PTR [edx+8]
  02073	8b 4d fc	 mov	 ecx, DWORD PTR _w$[ebp]
  02076	33 41 30	 xor	 eax, DWORD PTR [ecx+48]
  02079	8b 55 fc	 mov	 edx, DWORD PTR _w$[ebp]
  0207c	33 42 28	 xor	 eax, DWORD PTR [edx+40]
  0207f	d1 e0		 shl	 eax, 1
  02081	8b 4d fc	 mov	 ecx, DWORD PTR _w$[ebp]
  02084	8b 55 fc	 mov	 edx, DWORD PTR _w$[ebp]
  02087	8b 49 1c	 mov	 ecx, DWORD PTR [ecx+28]
  0208a	33 4a 08	 xor	 ecx, DWORD PTR [edx+8]
  0208d	8b 55 fc	 mov	 edx, DWORD PTR _w$[ebp]
  02090	33 4a 30	 xor	 ecx, DWORD PTR [edx+48]
  02093	8b 55 fc	 mov	 edx, DWORD PTR _w$[ebp]
  02096	33 4a 28	 xor	 ecx, DWORD PTR [edx+40]
  02099	c1 e9 1f	 shr	 ecx, 31			; 0000001fH
  0209c	0b c1		 or	 eax, ecx
  0209e	8b 4d fc	 mov	 ecx, DWORD PTR _w$[ebp]
  020a1	89 41 28	 mov	 DWORD PTR [ecx+40], eax
  020a4	8b 55 ec	 mov	 edx, DWORD PTR _v2$[ebp]
  020a7	33 55 f8	 xor	 edx, DWORD PTR _v3$[ebp]
  020aa	33 55 f0	 xor	 edx, DWORD PTR _v4$[ebp]
  020ad	8b 45 f4	 mov	 eax, DWORD PTR _v1$[ebp]
  020b0	c1 e0 05	 shl	 eax, 5
  020b3	8b 4d f4	 mov	 ecx, DWORD PTR _v1$[ebp]
  020b6	c1 e9 1b	 shr	 ecx, 27			; 0000001bH
  020b9	0b c8		 or	 ecx, eax
  020bb	03 ca		 add	 ecx, edx
  020bd	8b 55 fc	 mov	 edx, DWORD PTR _w$[ebp]
  020c0	8b 42 28	 mov	 eax, DWORD PTR [edx+40]
  020c3	8d 8c 01 d6 c1
	62 ca		 lea	 ecx, DWORD PTR [ecx+eax-899497514]
  020ca	03 4d e8	 add	 ecx, DWORD PTR _v0$[ebp]
  020cd	89 4d e8	 mov	 DWORD PTR _v0$[ebp], ecx
  020d0	8b 55 ec	 mov	 edx, DWORD PTR _v2$[ebp]
  020d3	c1 ea 02	 shr	 edx, 2
  020d6	8b 45 ec	 mov	 eax, DWORD PTR _v2$[ebp]
  020d9	c1 e0 1e	 shl	 eax, 30			; 0000001eH
  020dc	0b d0		 or	 edx, eax
  020de	89 55 ec	 mov	 DWORD PTR _v2$[ebp], edx

; 183  :     five_cycle(v, parity, 0xca62c1d6,  75);

  020e1	8b 4d fc	 mov	 ecx, DWORD PTR _w$[ebp]
  020e4	8b 55 fc	 mov	 edx, DWORD PTR _w$[ebp]
  020e7	8b 41 20	 mov	 eax, DWORD PTR [ecx+32]
  020ea	33 42 0c	 xor	 eax, DWORD PTR [edx+12]
  020ed	8b 4d fc	 mov	 ecx, DWORD PTR _w$[ebp]
  020f0	33 41 34	 xor	 eax, DWORD PTR [ecx+52]
  020f3	8b 55 fc	 mov	 edx, DWORD PTR _w$[ebp]
  020f6	33 42 2c	 xor	 eax, DWORD PTR [edx+44]
  020f9	d1 e0		 shl	 eax, 1
  020fb	8b 4d fc	 mov	 ecx, DWORD PTR _w$[ebp]
  020fe	8b 55 fc	 mov	 edx, DWORD PTR _w$[ebp]
  02101	8b 49 20	 mov	 ecx, DWORD PTR [ecx+32]
  02104	33 4a 0c	 xor	 ecx, DWORD PTR [edx+12]
  02107	8b 55 fc	 mov	 edx, DWORD PTR _w$[ebp]
  0210a	33 4a 34	 xor	 ecx, DWORD PTR [edx+52]
  0210d	8b 55 fc	 mov	 edx, DWORD PTR _w$[ebp]
  02110	33 4a 2c	 xor	 ecx, DWORD PTR [edx+44]
  02113	c1 e9 1f	 shr	 ecx, 31			; 0000001fH
  02116	0b c1		 or	 eax, ecx
  02118	8b 4d fc	 mov	 ecx, DWORD PTR _w$[ebp]
  0211b	89 41 2c	 mov	 DWORD PTR [ecx+44], eax
  0211e	8b 55 f4	 mov	 edx, DWORD PTR _v1$[ebp]
  02121	33 55 ec	 xor	 edx, DWORD PTR _v2$[ebp]
  02124	33 55 f8	 xor	 edx, DWORD PTR _v3$[ebp]
  02127	8b 45 e8	 mov	 eax, DWORD PTR _v0$[ebp]
  0212a	c1 e0 05	 shl	 eax, 5
  0212d	8b 4d e8	 mov	 ecx, DWORD PTR _v0$[ebp]
  02130	c1 e9 1b	 shr	 ecx, 27			; 0000001bH
  02133	0b c8		 or	 ecx, eax
  02135	03 ca		 add	 ecx, edx
  02137	8b 55 fc	 mov	 edx, DWORD PTR _w$[ebp]
  0213a	8b 42 2c	 mov	 eax, DWORD PTR [edx+44]
  0213d	8d 8c 01 d6 c1
	62 ca		 lea	 ecx, DWORD PTR [ecx+eax-899497514]
  02144	03 4d f0	 add	 ecx, DWORD PTR _v4$[ebp]
  02147	89 4d f0	 mov	 DWORD PTR _v4$[ebp], ecx
  0214a	8b 55 f4	 mov	 edx, DWORD PTR _v1$[ebp]
  0214d	c1 ea 02	 shr	 edx, 2
  02150	8b 45 f4	 mov	 eax, DWORD PTR _v1$[ebp]
  02153	c1 e0 1e	 shl	 eax, 30			; 0000001eH
  02156	0b d0		 or	 edx, eax
  02158	89 55 f4	 mov	 DWORD PTR _v1$[ebp], edx
  0215b	8b 4d fc	 mov	 ecx, DWORD PTR _w$[ebp]
  0215e	8b 55 fc	 mov	 edx, DWORD PTR _w$[ebp]
  02161	8b 41 24	 mov	 eax, DWORD PTR [ecx+36]
  02164	33 42 10	 xor	 eax, DWORD PTR [edx+16]
  02167	8b 4d fc	 mov	 ecx, DWORD PTR _w$[ebp]
  0216a	33 41 38	 xor	 eax, DWORD PTR [ecx+56]
  0216d	8b 55 fc	 mov	 edx, DWORD PTR _w$[ebp]
  02170	33 42 30	 xor	 eax, DWORD PTR [edx+48]
  02173	d1 e0		 shl	 eax, 1
  02175	8b 4d fc	 mov	 ecx, DWORD PTR _w$[ebp]
  02178	8b 55 fc	 mov	 edx, DWORD PTR _w$[ebp]
  0217b	8b 49 24	 mov	 ecx, DWORD PTR [ecx+36]
  0217e	33 4a 10	 xor	 ecx, DWORD PTR [edx+16]
  02181	8b 55 fc	 mov	 edx, DWORD PTR _w$[ebp]
  02184	33 4a 38	 xor	 ecx, DWORD PTR [edx+56]
  02187	8b 55 fc	 mov	 edx, DWORD PTR _w$[ebp]
  0218a	33 4a 30	 xor	 ecx, DWORD PTR [edx+48]
  0218d	c1 e9 1f	 shr	 ecx, 31			; 0000001fH
  02190	0b c1		 or	 eax, ecx
  02192	8b 4d fc	 mov	 ecx, DWORD PTR _w$[ebp]
  02195	89 41 30	 mov	 DWORD PTR [ecx+48], eax
  02198	8b 55 e8	 mov	 edx, DWORD PTR _v0$[ebp]
  0219b	33 55 f4	 xor	 edx, DWORD PTR _v1$[ebp]
  0219e	33 55 ec	 xor	 edx, DWORD PTR _v2$[ebp]
  021a1	8b 45 f0	 mov	 eax, DWORD PTR _v4$[ebp]
  021a4	c1 e0 05	 shl	 eax, 5
  021a7	8b 4d f0	 mov	 ecx, DWORD PTR _v4$[ebp]
  021aa	c1 e9 1b	 shr	 ecx, 27			; 0000001bH
  021ad	0b c8		 or	 ecx, eax
  021af	03 ca		 add	 ecx, edx
  021b1	8b 55 fc	 mov	 edx, DWORD PTR _w$[ebp]
  021b4	8b 42 30	 mov	 eax, DWORD PTR [edx+48]
  021b7	8d 8c 01 d6 c1
	62 ca		 lea	 ecx, DWORD PTR [ecx+eax-899497514]
  021be	03 4d f8	 add	 ecx, DWORD PTR _v3$[ebp]
  021c1	89 4d f8	 mov	 DWORD PTR _v3$[ebp], ecx
  021c4	8b 55 e8	 mov	 edx, DWORD PTR _v0$[ebp]
  021c7	c1 ea 02	 shr	 edx, 2
  021ca	8b 45 e8	 mov	 eax, DWORD PTR _v0$[ebp]
  021cd	c1 e0 1e	 shl	 eax, 30			; 0000001eH
  021d0	0b d0		 or	 edx, eax
  021d2	89 55 e8	 mov	 DWORD PTR _v0$[ebp], edx
  021d5	8b 4d fc	 mov	 ecx, DWORD PTR _w$[ebp]
  021d8	8b 55 fc	 mov	 edx, DWORD PTR _w$[ebp]
  021db	8b 41 28	 mov	 eax, DWORD PTR [ecx+40]
  021de	33 42 14	 xor	 eax, DWORD PTR [edx+20]
  021e1	8b 4d fc	 mov	 ecx, DWORD PTR _w$[ebp]
  021e4	33 41 3c	 xor	 eax, DWORD PTR [ecx+60]
  021e7	8b 55 fc	 mov	 edx, DWORD PTR _w$[ebp]
  021ea	33 42 34	 xor	 eax, DWORD PTR [edx+52]
  021ed	d1 e0		 shl	 eax, 1
  021ef	8b 4d fc	 mov	 ecx, DWORD PTR _w$[ebp]
  021f2	8b 55 fc	 mov	 edx, DWORD PTR _w$[ebp]
  021f5	8b 49 28	 mov	 ecx, DWORD PTR [ecx+40]
  021f8	33 4a 14	 xor	 ecx, DWORD PTR [edx+20]
  021fb	8b 55 fc	 mov	 edx, DWORD PTR _w$[ebp]
  021fe	33 4a 3c	 xor	 ecx, DWORD PTR [edx+60]
  02201	8b 55 fc	 mov	 edx, DWORD PTR _w$[ebp]
  02204	33 4a 34	 xor	 ecx, DWORD PTR [edx+52]
  02207	c1 e9 1f	 shr	 ecx, 31			; 0000001fH
  0220a	0b c1		 or	 eax, ecx
  0220c	8b 4d fc	 mov	 ecx, DWORD PTR _w$[ebp]
  0220f	89 41 34	 mov	 DWORD PTR [ecx+52], eax
  02212	8b 55 f0	 mov	 edx, DWORD PTR _v4$[ebp]
  02215	33 55 e8	 xor	 edx, DWORD PTR _v0$[ebp]
  02218	33 55 f4	 xor	 edx, DWORD PTR _v1$[ebp]
  0221b	8b 45 f8	 mov	 eax, DWORD PTR _v3$[ebp]
  0221e	c1 e0 05	 shl	 eax, 5
  02221	8b 4d f8	 mov	 ecx, DWORD PTR _v3$[ebp]
  02224	c1 e9 1b	 shr	 ecx, 27			; 0000001bH
  02227	0b c8		 or	 ecx, eax
  02229	03 ca		 add	 ecx, edx
  0222b	8b 55 fc	 mov	 edx, DWORD PTR _w$[ebp]
  0222e	8b 42 34	 mov	 eax, DWORD PTR [edx+52]
  02231	8d 8c 01 d6 c1
	62 ca		 lea	 ecx, DWORD PTR [ecx+eax-899497514]
  02238	03 4d ec	 add	 ecx, DWORD PTR _v2$[ebp]
  0223b	89 4d ec	 mov	 DWORD PTR _v2$[ebp], ecx
  0223e	8b 55 f0	 mov	 edx, DWORD PTR _v4$[ebp]
  02241	c1 ea 02	 shr	 edx, 2
  02244	8b 45 f0	 mov	 eax, DWORD PTR _v4$[ebp]
  02247	c1 e0 1e	 shl	 eax, 30			; 0000001eH
  0224a	0b d0		 or	 edx, eax
  0224c	89 55 f0	 mov	 DWORD PTR _v4$[ebp], edx
  0224f	8b 4d fc	 mov	 ecx, DWORD PTR _w$[ebp]
  02252	8b 55 fc	 mov	 edx, DWORD PTR _w$[ebp]
  02255	8b 41 2c	 mov	 eax, DWORD PTR [ecx+44]
  02258	33 42 18	 xor	 eax, DWORD PTR [edx+24]
  0225b	8b 4d fc	 mov	 ecx, DWORD PTR _w$[ebp]
  0225e	33 01		 xor	 eax, DWORD PTR [ecx]
  02260	8b 55 fc	 mov	 edx, DWORD PTR _w$[ebp]
  02263	33 42 38	 xor	 eax, DWORD PTR [edx+56]
  02266	d1 e0		 shl	 eax, 1
  02268	8b 4d fc	 mov	 ecx, DWORD PTR _w$[ebp]
  0226b	8b 55 fc	 mov	 edx, DWORD PTR _w$[ebp]
  0226e	8b 49 2c	 mov	 ecx, DWORD PTR [ecx+44]
  02271	33 4a 18	 xor	 ecx, DWORD PTR [edx+24]
  02274	8b 55 fc	 mov	 edx, DWORD PTR _w$[ebp]
  02277	33 0a		 xor	 ecx, DWORD PTR [edx]
  02279	8b 55 fc	 mov	 edx, DWORD PTR _w$[ebp]
  0227c	33 4a 38	 xor	 ecx, DWORD PTR [edx+56]
  0227f	c1 e9 1f	 shr	 ecx, 31			; 0000001fH
  02282	0b c1		 or	 eax, ecx
  02284	8b 4d fc	 mov	 ecx, DWORD PTR _w$[ebp]
  02287	89 41 38	 mov	 DWORD PTR [ecx+56], eax
  0228a	8b 55 f8	 mov	 edx, DWORD PTR _v3$[ebp]
  0228d	33 55 f0	 xor	 edx, DWORD PTR _v4$[ebp]
  02290	33 55 e8	 xor	 edx, DWORD PTR _v0$[ebp]
  02293	8b 45 ec	 mov	 eax, DWORD PTR _v2$[ebp]
  02296	c1 e0 05	 shl	 eax, 5
  02299	8b 4d ec	 mov	 ecx, DWORD PTR _v2$[ebp]
  0229c	c1 e9 1b	 shr	 ecx, 27			; 0000001bH
  0229f	0b c8		 or	 ecx, eax
  022a1	03 ca		 add	 ecx, edx
  022a3	8b 55 fc	 mov	 edx, DWORD PTR _w$[ebp]
  022a6	8b 42 38	 mov	 eax, DWORD PTR [edx+56]
  022a9	8d 8c 01 d6 c1
	62 ca		 lea	 ecx, DWORD PTR [ecx+eax-899497514]
  022b0	03 4d f4	 add	 ecx, DWORD PTR _v1$[ebp]
  022b3	89 4d f4	 mov	 DWORD PTR _v1$[ebp], ecx
  022b6	8b 55 f8	 mov	 edx, DWORD PTR _v3$[ebp]
  022b9	c1 ea 02	 shr	 edx, 2
  022bc	8b 45 f8	 mov	 eax, DWORD PTR _v3$[ebp]
  022bf	c1 e0 1e	 shl	 eax, 30			; 0000001eH
  022c2	0b d0		 or	 edx, eax
  022c4	89 55 f8	 mov	 DWORD PTR _v3$[ebp], edx
  022c7	8b 4d fc	 mov	 ecx, DWORD PTR _w$[ebp]
  022ca	8b 55 fc	 mov	 edx, DWORD PTR _w$[ebp]
  022cd	8b 41 30	 mov	 eax, DWORD PTR [ecx+48]
  022d0	33 42 1c	 xor	 eax, DWORD PTR [edx+28]
  022d3	8b 4d fc	 mov	 ecx, DWORD PTR _w$[ebp]
  022d6	33 41 04	 xor	 eax, DWORD PTR [ecx+4]
  022d9	8b 55 fc	 mov	 edx, DWORD PTR _w$[ebp]
  022dc	33 42 3c	 xor	 eax, DWORD PTR [edx+60]
  022df	d1 e0		 shl	 eax, 1
  022e1	8b 4d fc	 mov	 ecx, DWORD PTR _w$[ebp]
  022e4	8b 55 fc	 mov	 edx, DWORD PTR _w$[ebp]
  022e7	8b 49 30	 mov	 ecx, DWORD PTR [ecx+48]
  022ea	33 4a 1c	 xor	 ecx, DWORD PTR [edx+28]
  022ed	8b 55 fc	 mov	 edx, DWORD PTR _w$[ebp]
  022f0	33 4a 04	 xor	 ecx, DWORD PTR [edx+4]
  022f3	8b 55 fc	 mov	 edx, DWORD PTR _w$[ebp]
  022f6	33 4a 3c	 xor	 ecx, DWORD PTR [edx+60]
  022f9	c1 e9 1f	 shr	 ecx, 31			; 0000001fH
  022fc	0b c1		 or	 eax, ecx
  022fe	8b 4d fc	 mov	 ecx, DWORD PTR _w$[ebp]
  02301	89 41 3c	 mov	 DWORD PTR [ecx+60], eax
  02304	8b 55 ec	 mov	 edx, DWORD PTR _v2$[ebp]
  02307	33 55 f8	 xor	 edx, DWORD PTR _v3$[ebp]
  0230a	33 55 f0	 xor	 edx, DWORD PTR _v4$[ebp]
  0230d	8b 45 f4	 mov	 eax, DWORD PTR _v1$[ebp]
  02310	c1 e0 05	 shl	 eax, 5
  02313	8b 4d f4	 mov	 ecx, DWORD PTR _v1$[ebp]
  02316	c1 e9 1b	 shr	 ecx, 27			; 0000001bH
  02319	0b c8		 or	 ecx, eax
  0231b	03 ca		 add	 ecx, edx
  0231d	8b 55 fc	 mov	 edx, DWORD PTR _w$[ebp]
  02320	8b 42 3c	 mov	 eax, DWORD PTR [edx+60]
  02323	8d 8c 01 d6 c1
	62 ca		 lea	 ecx, DWORD PTR [ecx+eax-899497514]
  0232a	03 4d e8	 add	 ecx, DWORD PTR _v0$[ebp]
  0232d	89 4d e8	 mov	 DWORD PTR _v0$[ebp], ecx
  02330	8b 55 ec	 mov	 edx, DWORD PTR _v2$[ebp]
  02333	c1 ea 02	 shr	 edx, 2
  02336	8b 45 ec	 mov	 eax, DWORD PTR _v2$[ebp]
  02339	c1 e0 1e	 shl	 eax, 30			; 0000001eH
  0233c	0b d0		 or	 edx, eax
  0233e	89 55 ec	 mov	 DWORD PTR _v2$[ebp], edx

; 184  : 
; 185  : #ifdef ARRAY
; 186  :     ctx->hash[0] += v[0]; ctx->hash[1] += v[1];
; 187  :     ctx->hash[2] += v[2]; ctx->hash[3] += v[3];
; 188  :     ctx->hash[4] += v[4];
; 189  : #else
; 190  :     ctx->hash[0] += v0; ctx->hash[1] += v1;

  02341	8b 4d 08	 mov	 ecx, DWORD PTR _ctx$[ebp]
  02344	8b 51 08	 mov	 edx, DWORD PTR [ecx+8]
  02347	03 55 e8	 add	 edx, DWORD PTR _v0$[ebp]
  0234a	8b 45 08	 mov	 eax, DWORD PTR _ctx$[ebp]
  0234d	89 50 08	 mov	 DWORD PTR [eax+8], edx
  02350	8b 4d 08	 mov	 ecx, DWORD PTR _ctx$[ebp]
  02353	8b 51 0c	 mov	 edx, DWORD PTR [ecx+12]
  02356	03 55 f4	 add	 edx, DWORD PTR _v1$[ebp]
  02359	8b 45 08	 mov	 eax, DWORD PTR _ctx$[ebp]
  0235c	89 50 0c	 mov	 DWORD PTR [eax+12], edx

; 191  :     ctx->hash[2] += v2; ctx->hash[3] += v3;

  0235f	8b 4d 08	 mov	 ecx, DWORD PTR _ctx$[ebp]
  02362	8b 51 10	 mov	 edx, DWORD PTR [ecx+16]
  02365	03 55 ec	 add	 edx, DWORD PTR _v2$[ebp]
  02368	8b 45 08	 mov	 eax, DWORD PTR _ctx$[ebp]
  0236b	89 50 10	 mov	 DWORD PTR [eax+16], edx
  0236e	8b 4d 08	 mov	 ecx, DWORD PTR _ctx$[ebp]
  02371	8b 51 14	 mov	 edx, DWORD PTR [ecx+20]
  02374	03 55 f8	 add	 edx, DWORD PTR _v3$[ebp]
  02377	8b 45 08	 mov	 eax, DWORD PTR _ctx$[ebp]
  0237a	89 50 14	 mov	 DWORD PTR [eax+20], edx

; 192  :     ctx->hash[4] += v4;

  0237d	8b 4d 08	 mov	 ecx, DWORD PTR _ctx$[ebp]
  02380	8b 51 18	 mov	 edx, DWORD PTR [ecx+24]
  02383	03 55 f0	 add	 edx, DWORD PTR _v4$[ebp]
  02386	8b 45 08	 mov	 eax, DWORD PTR _ctx$[ebp]
  02389	89 50 18	 mov	 DWORD PTR [eax+24], edx

; 193  : #endif
; 194  : }

  0238c	8b e5		 mov	 esp, ebp
  0238e	5d		 pop	 ebp
  0238f	c2 04 00	 ret	 4
_sha1_compile@4 ENDP
_TEXT	ENDS
PUBLIC	_sha1_begin@4
; Function compile flags: /Odtp
;	COMDAT _sha1_begin@4
_TEXT	SEGMENT
_ctx$ = 8						; size = 4
_sha1_begin@4 PROC					; COMDAT

; 197  : {

  00000	8b ff		 npad	 2
  00002	55		 push	 ebp
  00003	8b ec		 mov	 ebp, esp

; 198  :     ctx->count[0] = ctx->count[1] = 0;

  00005	8b 45 08	 mov	 eax, DWORD PTR _ctx$[ebp]
  00008	c7 40 04 00 00
	00 00		 mov	 DWORD PTR [eax+4], 0
  0000f	8b 4d 08	 mov	 ecx, DWORD PTR _ctx$[ebp]
  00012	c7 01 00 00 00
	00		 mov	 DWORD PTR [ecx], 0

; 199  :     ctx->hash[0] = 0x67452301;

  00018	8b 55 08	 mov	 edx, DWORD PTR _ctx$[ebp]
  0001b	c7 42 08 01 23
	45 67		 mov	 DWORD PTR [edx+8], 1732584193 ; 67452301H

; 200  :     ctx->hash[1] = 0xefcdab89;

  00022	8b 45 08	 mov	 eax, DWORD PTR _ctx$[ebp]
  00025	c7 40 0c 89 ab
	cd ef		 mov	 DWORD PTR [eax+12], -271733879 ; efcdab89H

; 201  :     ctx->hash[2] = 0x98badcfe;

  0002c	8b 4d 08	 mov	 ecx, DWORD PTR _ctx$[ebp]
  0002f	c7 41 10 fe dc
	ba 98		 mov	 DWORD PTR [ecx+16], -1732584194 ; 98badcfeH

; 202  :     ctx->hash[3] = 0x10325476;

  00036	8b 55 08	 mov	 edx, DWORD PTR _ctx$[ebp]
  00039	c7 42 14 76 54
	32 10		 mov	 DWORD PTR [edx+20], 271733878 ; 10325476H

; 203  :     ctx->hash[4] = 0xc3d2e1f0;

  00040	8b 45 08	 mov	 eax, DWORD PTR _ctx$[ebp]
  00043	c7 40 18 f0 e1
	d2 c3		 mov	 DWORD PTR [eax+24], -1009589776 ; c3d2e1f0H

; 204  : }

  0004a	5d		 pop	 ebp
  0004b	c2 04 00	 ret	 4
_sha1_begin@4 ENDP
_TEXT	ENDS
PUBLIC	_sha1_hash@12
EXTRN	_memcpy:PROC
; Function compile flags: /Odtp
;	COMDAT _sha1_hash@12
_TEXT	SEGMENT
__i$26048 = -16						; size = 4
_pos$ = -12						; size = 4
_space$ = -8						; size = 4
_sp$ = -4						; size = 4
_data$ = 8						; size = 4
_len$ = 12						; size = 4
_ctx$ = 16						; size = 4
_sha1_hash@12 PROC					; COMDAT

; 210  : {   sha1_32t pos = (sha1_32t)(ctx->count[0] & SHA1_MASK),

  00000	8b ff		 npad	 2
  00002	55		 push	 ebp
  00003	8b ec		 mov	 ebp, esp
  00005	83 ec 10	 sub	 esp, 16			; 00000010H
  00008	56		 push	 esi
  00009	8b 45 10	 mov	 eax, DWORD PTR _ctx$[ebp]
  0000c	8b 08		 mov	 ecx, DWORD PTR [eax]
  0000e	83 e1 3f	 and	 ecx, 63			; 0000003fH
  00011	89 4d f4	 mov	 DWORD PTR _pos$[ebp], ecx

; 211  :             space = SHA1_BLOCK_SIZE - pos;

  00014	ba 40 00 00 00	 mov	 edx, 64			; 00000040H
  00019	2b 55 f4	 sub	 edx, DWORD PTR _pos$[ebp]
  0001c	89 55 f8	 mov	 DWORD PTR _space$[ebp], edx

; 212  :     const unsigned char *sp = data;

  0001f	8b 45 08	 mov	 eax, DWORD PTR _data$[ebp]
  00022	89 45 fc	 mov	 DWORD PTR _sp$[ebp], eax

; 213  : 
; 214  :     if((ctx->count[0] += len) < len)

  00025	8b 4d 10	 mov	 ecx, DWORD PTR _ctx$[ebp]
  00028	8b 11		 mov	 edx, DWORD PTR [ecx]
  0002a	03 55 0c	 add	 edx, DWORD PTR _len$[ebp]
  0002d	8b 45 10	 mov	 eax, DWORD PTR _ctx$[ebp]
  00030	89 10		 mov	 DWORD PTR [eax], edx
  00032	8b 4d 10	 mov	 ecx, DWORD PTR _ctx$[ebp]
  00035	8b 11		 mov	 edx, DWORD PTR [ecx]
  00037	3b 55 0c	 cmp	 edx, DWORD PTR _len$[ebp]
  0003a	73 0f		 jae	 SHORT $LN4@sha1_hash

; 215  :         ++(ctx->count[1]);

  0003c	8b 45 10	 mov	 eax, DWORD PTR _ctx$[ebp]
  0003f	8b 48 04	 mov	 ecx, DWORD PTR [eax+4]
  00042	83 c1 01	 add	 ecx, 1
  00045	8b 55 10	 mov	 edx, DWORD PTR _ctx$[ebp]
  00048	89 4a 04	 mov	 DWORD PTR [edx+4], ecx
$LN4@sha1_hash:

; 216  : 
; 217  :     while(len >= space)     /* tranfer whole blocks if possible  */

  0004b	8b 45 0c	 mov	 eax, DWORD PTR _len$[ebp]
  0004e	3b 45 f8	 cmp	 eax, DWORD PTR _space$[ebp]
  00051	0f 82 b1 00 00
	00		 jb	 $LN3@sha1_hash

; 218  :     {
; 219  :         memcpy(((unsigned char*)ctx->wbuf) + pos, sp, space);

  00057	8b 4d f8	 mov	 ecx, DWORD PTR _space$[ebp]
  0005a	51		 push	 ecx
  0005b	8b 55 fc	 mov	 edx, DWORD PTR _sp$[ebp]
  0005e	52		 push	 edx
  0005f	8b 45 f4	 mov	 eax, DWORD PTR _pos$[ebp]
  00062	8b 4d 10	 mov	 ecx, DWORD PTR _ctx$[ebp]
  00065	8d 54 01 1c	 lea	 edx, DWORD PTR [ecx+eax+28]
  00069	52		 push	 edx
  0006a	e8 00 00 00 00	 call	 _memcpy
  0006f	83 c4 0c	 add	 esp, 12			; 0000000cH

; 220  :         sp += space; len -= space; space = SHA1_BLOCK_SIZE; pos = 0;

  00072	8b 45 fc	 mov	 eax, DWORD PTR _sp$[ebp]
  00075	03 45 f8	 add	 eax, DWORD PTR _space$[ebp]
  00078	89 45 fc	 mov	 DWORD PTR _sp$[ebp], eax
  0007b	8b 4d 0c	 mov	 ecx, DWORD PTR _len$[ebp]
  0007e	2b 4d f8	 sub	 ecx, DWORD PTR _space$[ebp]
  00081	89 4d 0c	 mov	 DWORD PTR _len$[ebp], ecx
  00084	c7 45 f8 40 00
	00 00		 mov	 DWORD PTR _space$[ebp], 64 ; 00000040H
  0008b	c7 45 f4 00 00
	00 00		 mov	 DWORD PTR _pos$[ebp], 0

; 221  :         bsw_32(ctx->wbuf, SHA1_BLOCK_SIZE >> 2);

  00092	c7 45 f0 10 00
	00 00		 mov	 DWORD PTR __i$26048[ebp], 16 ; 00000010H
$LN2@sha1_hash:
  00099	8b 55 f0	 mov	 edx, DWORD PTR __i$26048[ebp]
  0009c	8b 45 f0	 mov	 eax, DWORD PTR __i$26048[ebp]
  0009f	83 e8 01	 sub	 eax, 1
  000a2	89 45 f0	 mov	 DWORD PTR __i$26048[ebp], eax
  000a5	85 d2		 test	 edx, edx
  000a7	74 51		 je	 SHORT $LN1@sha1_hash
  000a9	8b 4d f0	 mov	 ecx, DWORD PTR __i$26048[ebp]
  000ac	8b 55 10	 mov	 edx, DWORD PTR _ctx$[ebp]
  000af	8b 44 8a 1c	 mov	 eax, DWORD PTR [edx+ecx*4+28]
  000b3	c1 e8 18	 shr	 eax, 24			; 00000018H
  000b6	8b 4d f0	 mov	 ecx, DWORD PTR __i$26048[ebp]
  000b9	8b 55 10	 mov	 edx, DWORD PTR _ctx$[ebp]
  000bc	8b 4c 8a 1c	 mov	 ecx, DWORD PTR [edx+ecx*4+28]
  000c0	c1 e1 08	 shl	 ecx, 8
  000c3	0b c1		 or	 eax, ecx
  000c5	25 ff 00 ff 00	 and	 eax, 16711935		; 00ff00ffH
  000ca	8b 55 f0	 mov	 edx, DWORD PTR __i$26048[ebp]
  000cd	8b 4d 10	 mov	 ecx, DWORD PTR _ctx$[ebp]
  000d0	8b 54 91 1c	 mov	 edx, DWORD PTR [ecx+edx*4+28]
  000d4	c1 ea 08	 shr	 edx, 8
  000d7	8b 4d f0	 mov	 ecx, DWORD PTR __i$26048[ebp]
  000da	8b 75 10	 mov	 esi, DWORD PTR _ctx$[ebp]
  000dd	8b 4c 8e 1c	 mov	 ecx, DWORD PTR [esi+ecx*4+28]
  000e1	c1 e1 18	 shl	 ecx, 24			; 00000018H
  000e4	0b d1		 or	 edx, ecx
  000e6	81 e2 00 ff 00
	ff		 and	 edx, -16711936		; ff00ff00H
  000ec	0b c2		 or	 eax, edx
  000ee	8b 55 f0	 mov	 edx, DWORD PTR __i$26048[ebp]
  000f1	8b 4d 10	 mov	 ecx, DWORD PTR _ctx$[ebp]
  000f4	89 44 91 1c	 mov	 DWORD PTR [ecx+edx*4+28], eax
  000f8	eb 9f		 jmp	 SHORT $LN2@sha1_hash
$LN1@sha1_hash:

; 222  :         sha1_compile(ctx);

  000fa	8b 55 10	 mov	 edx, DWORD PTR _ctx$[ebp]
  000fd	52		 push	 edx
  000fe	e8 00 00 00 00	 call	 _sha1_compile@4

; 223  :     }

  00103	e9 43 ff ff ff	 jmp	 $LN4@sha1_hash
$LN3@sha1_hash:

; 224  : 
; 225  :     memcpy(((unsigned char*)ctx->wbuf) + pos, sp, len);

  00108	8b 45 0c	 mov	 eax, DWORD PTR _len$[ebp]
  0010b	50		 push	 eax
  0010c	8b 4d fc	 mov	 ecx, DWORD PTR _sp$[ebp]
  0010f	51		 push	 ecx
  00110	8b 55 f4	 mov	 edx, DWORD PTR _pos$[ebp]
  00113	8b 45 10	 mov	 eax, DWORD PTR _ctx$[ebp]
  00116	8d 4c 10 1c	 lea	 ecx, DWORD PTR [eax+edx+28]
  0011a	51		 push	 ecx
  0011b	e8 00 00 00 00	 call	 _memcpy
  00120	83 c4 0c	 add	 esp, 12			; 0000000cH

; 226  : }

  00123	5e		 pop	 esi
  00124	8b e5		 mov	 esp, ebp
  00126	5d		 pop	 ebp
  00127	c2 0c 00	 ret	 12			; 0000000cH
_sha1_hash@12 ENDP
_TEXT	ENDS
PUBLIC	_sha1_end@8
; Function compile flags: /Odtp
;	COMDAT _sha1_end@8
_TEXT	SEGMENT
__i$26065 = -8						; size = 4
_i$ = -4						; size = 4
_hval$ = 8						; size = 4
_ctx$ = 12						; size = 4
_sha1_end@8 PROC					; COMDAT

; 231  : {   sha1_32t    i = (sha1_32t)(ctx->count[0] & SHA1_MASK);

  00000	8b ff		 npad	 2
  00002	55		 push	 ebp
  00003	8b ec		 mov	 ebp, esp
  00005	83 ec 08	 sub	 esp, 8
  00008	56		 push	 esi
  00009	8b 45 0c	 mov	 eax, DWORD PTR _ctx$[ebp]
  0000c	8b 08		 mov	 ecx, DWORD PTR [eax]
  0000e	83 e1 3f	 and	 ecx, 63			; 0000003fH
  00011	89 4d fc	 mov	 DWORD PTR _i$[ebp], ecx

; 232  : 
; 233  :     /* put bytes in the buffer in an order in which references to   */
; 234  :     /* 32-bit words will put bytes with lower addresses into the    */
; 235  :     /* top of 32 bit words on BOTH big and little endian machines   */
; 236  :     bsw_32(ctx->wbuf, (i + 3) >> 2);

  00014	8b 55 fc	 mov	 edx, DWORD PTR _i$[ebp]
  00017	83 c2 03	 add	 edx, 3
  0001a	c1 ea 02	 shr	 edx, 2
  0001d	89 55 f8	 mov	 DWORD PTR __i$26065[ebp], edx
$LN10@sha1_end:
  00020	8b 45 f8	 mov	 eax, DWORD PTR __i$26065[ebp]
  00023	8b 4d f8	 mov	 ecx, DWORD PTR __i$26065[ebp]
  00026	83 e9 01	 sub	 ecx, 1
  00029	89 4d f8	 mov	 DWORD PTR __i$26065[ebp], ecx
  0002c	85 c0		 test	 eax, eax
  0002e	74 51		 je	 SHORT $LN9@sha1_end
  00030	8b 55 f8	 mov	 edx, DWORD PTR __i$26065[ebp]
  00033	8b 45 0c	 mov	 eax, DWORD PTR _ctx$[ebp]
  00036	8b 4c 90 1c	 mov	 ecx, DWORD PTR [eax+edx*4+28]
  0003a	c1 e9 18	 shr	 ecx, 24			; 00000018H
  0003d	8b 55 f8	 mov	 edx, DWORD PTR __i$26065[ebp]
  00040	8b 45 0c	 mov	 eax, DWORD PTR _ctx$[ebp]
  00043	8b 54 90 1c	 mov	 edx, DWORD PTR [eax+edx*4+28]
  00047	c1 e2 08	 shl	 edx, 8
  0004a	0b ca		 or	 ecx, edx
  0004c	81 e1 ff 00 ff
	00		 and	 ecx, 16711935		; 00ff00ffH
  00052	8b 45 f8	 mov	 eax, DWORD PTR __i$26065[ebp]
  00055	8b 55 0c	 mov	 edx, DWORD PTR _ctx$[ebp]
  00058	8b 44 82 1c	 mov	 eax, DWORD PTR [edx+eax*4+28]
  0005c	c1 e8 08	 shr	 eax, 8
  0005f	8b 55 f8	 mov	 edx, DWORD PTR __i$26065[ebp]
  00062	8b 75 0c	 mov	 esi, DWORD PTR _ctx$[ebp]
  00065	8b 54 96 1c	 mov	 edx, DWORD PTR [esi+edx*4+28]
  00069	c1 e2 18	 shl	 edx, 24			; 00000018H
  0006c	0b c2		 or	 eax, edx
  0006e	25 00 ff 00 ff	 and	 eax, -16711936		; ff00ff00H
  00073	0b c8		 or	 ecx, eax
  00075	8b 45 f8	 mov	 eax, DWORD PTR __i$26065[ebp]
  00078	8b 55 0c	 mov	 edx, DWORD PTR _ctx$[ebp]
  0007b	89 4c 82 1c	 mov	 DWORD PTR [edx+eax*4+28], ecx
  0007f	eb 9f		 jmp	 SHORT $LN10@sha1_end
$LN9@sha1_end:

; 237  : 
; 238  :     /* we now need to mask valid bytes and add the padding which is */
; 239  :     /* a single 1 bit and as many zero bits as necessary. Note that */
; 240  :     /* we can always add the first padding byte here because the    */
; 241  :     /* buffer always has at least one empty slot                    */
; 242  :     ctx->wbuf[i >> 2] &= 0xffffff80 << 8 * (~i & 3);

  00081	8b 45 fc	 mov	 eax, DWORD PTR _i$[ebp]
  00084	c1 e8 02	 shr	 eax, 2
  00087	8b 4d fc	 mov	 ecx, DWORD PTR _i$[ebp]
  0008a	f7 d1		 not	 ecx
  0008c	83 e1 03	 and	 ecx, 3
  0008f	c1 e1 03	 shl	 ecx, 3
  00092	ba 80 ff ff ff	 mov	 edx, -128		; ffffff80H
  00097	d3 e2		 shl	 edx, cl
  00099	8b 4d 0c	 mov	 ecx, DWORD PTR _ctx$[ebp]
  0009c	23 54 81 1c	 and	 edx, DWORD PTR [ecx+eax*4+28]
  000a0	8b 45 fc	 mov	 eax, DWORD PTR _i$[ebp]
  000a3	c1 e8 02	 shr	 eax, 2
  000a6	8b 4d 0c	 mov	 ecx, DWORD PTR _ctx$[ebp]
  000a9	89 54 81 1c	 mov	 DWORD PTR [ecx+eax*4+28], edx

; 243  :     ctx->wbuf[i >> 2] |= 0x00000080 << 8 * (~i & 3);

  000ad	8b 55 fc	 mov	 edx, DWORD PTR _i$[ebp]
  000b0	c1 ea 02	 shr	 edx, 2
  000b3	8b 4d fc	 mov	 ecx, DWORD PTR _i$[ebp]
  000b6	f7 d1		 not	 ecx
  000b8	83 e1 03	 and	 ecx, 3
  000bb	c1 e1 03	 shl	 ecx, 3
  000be	b8 80 00 00 00	 mov	 eax, 128		; 00000080H
  000c3	d3 e0		 shl	 eax, cl
  000c5	8b 4d 0c	 mov	 ecx, DWORD PTR _ctx$[ebp]
  000c8	0b 44 91 1c	 or	 eax, DWORD PTR [ecx+edx*4+28]
  000cc	8b 55 fc	 mov	 edx, DWORD PTR _i$[ebp]
  000cf	c1 ea 02	 shr	 edx, 2
  000d2	8b 4d 0c	 mov	 ecx, DWORD PTR _ctx$[ebp]
  000d5	89 44 91 1c	 mov	 DWORD PTR [ecx+edx*4+28], eax

; 244  : 
; 245  :     /* we need 9 or more empty positions, one for the padding byte  */
; 246  :     /* (above) and eight for the length count. If there is not      */
; 247  :     /* enough space, pad and empty the buffer                       */
; 248  :     if(i > SHA1_BLOCK_SIZE - 9)

  000d9	83 7d fc 37	 cmp	 DWORD PTR _i$[ebp], 55	; 00000037H
  000dd	76 22		 jbe	 SHORT $LN8@sha1_end

; 249  :     {
; 250  :         if(i < 60) ctx->wbuf[15] = 0;

  000df	83 7d fc 3c	 cmp	 DWORD PTR _i$[ebp], 60	; 0000003cH
  000e3	73 0a		 jae	 SHORT $LN7@sha1_end
  000e5	8b 55 0c	 mov	 edx, DWORD PTR _ctx$[ebp]
  000e8	c7 42 58 00 00
	00 00		 mov	 DWORD PTR [edx+88], 0
$LN7@sha1_end:

; 251  :         sha1_compile(ctx);

  000ef	8b 45 0c	 mov	 eax, DWORD PTR _ctx$[ebp]
  000f2	50		 push	 eax
  000f3	e8 00 00 00 00	 call	 _sha1_compile@4

; 252  :         i = 0;

  000f8	c7 45 fc 00 00
	00 00		 mov	 DWORD PTR _i$[ebp], 0

; 253  :     }
; 254  :     else    /* compute a word index for the empty buffer positions  */

  000ff	eb 0c		 jmp	 SHORT $LN5@sha1_end
$LN8@sha1_end:

; 255  :         i = (i >> 2) + 1;

  00101	8b 4d fc	 mov	 ecx, DWORD PTR _i$[ebp]
  00104	c1 e9 02	 shr	 ecx, 2
  00107	83 c1 01	 add	 ecx, 1
  0010a	89 4d fc	 mov	 DWORD PTR _i$[ebp], ecx
$LN5@sha1_end:

; 256  : 
; 257  :     while(i < 14) /* and zero pad all but last two positions        */

  0010d	83 7d fc 0e	 cmp	 DWORD PTR _i$[ebp], 14	; 0000000eH
  00111	73 19		 jae	 SHORT $LN4@sha1_end

; 258  :         ctx->wbuf[i++] = 0;

  00113	8b 55 fc	 mov	 edx, DWORD PTR _i$[ebp]
  00116	8b 45 0c	 mov	 eax, DWORD PTR _ctx$[ebp]
  00119	c7 44 90 1c 00
	00 00 00	 mov	 DWORD PTR [eax+edx*4+28], 0
  00121	8b 4d fc	 mov	 ecx, DWORD PTR _i$[ebp]
  00124	83 c1 01	 add	 ecx, 1
  00127	89 4d fc	 mov	 DWORD PTR _i$[ebp], ecx
  0012a	eb e1		 jmp	 SHORT $LN5@sha1_end
$LN4@sha1_end:

; 259  : 
; 260  :     /* the following 32-bit length fields are assembled in the      */
; 261  :     /* wrong byte order on little endian machines but this is       */
; 262  :     /* corrected later since they are only ever used as 32-bit      */
; 263  :     /* word values.                                                 */
; 264  :     ctx->wbuf[14] = (ctx->count[1] << 3) | (ctx->count[0] >> 29);

  0012c	8b 55 0c	 mov	 edx, DWORD PTR _ctx$[ebp]
  0012f	8b 42 04	 mov	 eax, DWORD PTR [edx+4]
  00132	c1 e0 03	 shl	 eax, 3
  00135	8b 4d 0c	 mov	 ecx, DWORD PTR _ctx$[ebp]
  00138	8b 11		 mov	 edx, DWORD PTR [ecx]
  0013a	c1 ea 1d	 shr	 edx, 29			; 0000001dH
  0013d	0b c2		 or	 eax, edx
  0013f	8b 4d 0c	 mov	 ecx, DWORD PTR _ctx$[ebp]
  00142	89 41 54	 mov	 DWORD PTR [ecx+84], eax

; 265  :     ctx->wbuf[15] = ctx->count[0] << 3;

  00145	8b 55 0c	 mov	 edx, DWORD PTR _ctx$[ebp]
  00148	8b 02		 mov	 eax, DWORD PTR [edx]
  0014a	c1 e0 03	 shl	 eax, 3
  0014d	8b 4d 0c	 mov	 ecx, DWORD PTR _ctx$[ebp]
  00150	89 41 58	 mov	 DWORD PTR [ecx+88], eax

; 266  :     sha1_compile(ctx);

  00153	8b 55 0c	 mov	 edx, DWORD PTR _ctx$[ebp]
  00156	52		 push	 edx
  00157	e8 00 00 00 00	 call	 _sha1_compile@4

; 267  : 
; 268  :     /* extract the hash value as bytes in case the hash buffer is   */
; 269  :     /* misaligned for 32-bit words                                  */
; 270  :     for(i = 0; i < SHA1_DIGEST_SIZE; ++i)

  0015c	c7 45 fc 00 00
	00 00		 mov	 DWORD PTR _i$[ebp], 0
  00163	eb 09		 jmp	 SHORT $LN3@sha1_end
$LN2@sha1_end:
  00165	8b 45 fc	 mov	 eax, DWORD PTR _i$[ebp]
  00168	83 c0 01	 add	 eax, 1
  0016b	89 45 fc	 mov	 DWORD PTR _i$[ebp], eax
$LN3@sha1_end:
  0016e	83 7d fc 14	 cmp	 DWORD PTR _i$[ebp], 20	; 00000014H
  00172	73 26		 jae	 SHORT $LN11@sha1_end

; 271  :         hval[i] = (unsigned char)(ctx->hash[i >> 2] >> (8 * (~i & 3)));

  00174	8b 4d fc	 mov	 ecx, DWORD PTR _i$[ebp]
  00177	c1 e9 02	 shr	 ecx, 2
  0017a	8b 55 fc	 mov	 edx, DWORD PTR _i$[ebp]
  0017d	f7 d2		 not	 edx
  0017f	83 e2 03	 and	 edx, 3
  00182	c1 e2 03	 shl	 edx, 3
  00185	8b 45 0c	 mov	 eax, DWORD PTR _ctx$[ebp]
  00188	8b 44 88 08	 mov	 eax, DWORD PTR [eax+ecx*4+8]
  0018c	8b ca		 mov	 ecx, edx
  0018e	d3 e8		 shr	 eax, cl
  00190	8b 4d 08	 mov	 ecx, DWORD PTR _hval$[ebp]
  00193	03 4d fc	 add	 ecx, DWORD PTR _i$[ebp]
  00196	88 01		 mov	 BYTE PTR [ecx], al
  00198	eb cb		 jmp	 SHORT $LN2@sha1_end
$LN11@sha1_end:

; 272  : }

  0019a	5e		 pop	 esi
  0019b	8b e5		 mov	 esp, ebp
  0019d	5d		 pop	 ebp
  0019e	c2 08 00	 ret	 8
_sha1_end@8 ENDP
_TEXT	ENDS
PUBLIC	_sha1@12
; Function compile flags: /Odtp
;	COMDAT _sha1@12
_TEXT	SEGMENT
_cx$ = -96						; size = 92
_hval$ = 8						; size = 4
_data$ = 12						; size = 4
_len$ = 16						; size = 4
_sha1@12 PROC						; COMDAT

; 275  : {   sha1_ctx    cx[1];

  00000	8b ff		 npad	 2
  00002	55		 push	 ebp
  00003	8b ec		 mov	 ebp, esp
  00005	83 ec 60	 sub	 esp, 96			; 00000060H

; 276  : 
; 277  :     sha1_begin(cx); sha1_hash(data, len, cx); sha1_end(hval, cx);

  00008	8d 45 a0	 lea	 eax, DWORD PTR _cx$[ebp]
  0000b	50		 push	 eax
  0000c	e8 00 00 00 00	 call	 _sha1_begin@4
  00011	8d 4d a0	 lea	 ecx, DWORD PTR _cx$[ebp]
  00014	51		 push	 ecx
  00015	8b 55 10	 mov	 edx, DWORD PTR _len$[ebp]
  00018	52		 push	 edx
  00019	8b 45 0c	 mov	 eax, DWORD PTR _data$[ebp]
  0001c	50		 push	 eax
  0001d	e8 00 00 00 00	 call	 _sha1_hash@12
  00022	8d 4d a0	 lea	 ecx, DWORD PTR _cx$[ebp]
  00025	51		 push	 ecx
  00026	8b 55 08	 mov	 edx, DWORD PTR _hval$[ebp]
  00029	52		 push	 edx
  0002a	e8 00 00 00 00	 call	 _sha1_end@8

; 278  : }

  0002f	8b e5		 mov	 esp, ebp
  00031	5d		 pop	 ebp
  00032	c2 0c 00	 ret	 12			; 0000000cH
_sha1@12 ENDP
_TEXT	ENDS
END
