; Listing generated by Microsoft (R) Optimizing Compiler Version 15.00.30729.207 

include listing.inc

INCLUDELIB OLDNAMES

PUBLIC	serpent_decrypt
;	COMDAT pdata
; File c:\home\public\desktop\projects\ciphershed\src\crypto\serpent.c
pdata	SEGMENT
$pdata$serpent_decrypt DD imagerel $LN6
	DD	imagerel $LN6+4329
	DD	imagerel $unwind$serpent_decrypt
pdata	ENDS
;	COMDAT xdata
xdata	SEGMENT
$unwind$serpent_decrypt DD 011301H
	DD	08213H
; Function compile flags: /Odtp
xdata	ENDS
;	COMDAT serpent_decrypt
_TEXT	SEGMENT
a$ = 0
i$ = 4
in$ = 8
b$ = 16
k$ = 24
d$ = 32
c$ = 36
out$ = 40
e$ = 48
inBlock$ = 80
outBlock$ = 88
ks$ = 96
serpent_decrypt PROC					; COMDAT

; 847  : {

$LN6:
  00000	4c 89 44 24 18	 mov	 QWORD PTR [rsp+24], r8
  00005	48 89 54 24 10	 mov	 QWORD PTR [rsp+16], rdx
  0000a	48 89 4c 24 08	 mov	 QWORD PTR [rsp+8], rcx
  0000f	48 83 ec 48	 sub	 rsp, 72			; 00000048H

; 848  : 	unsigned __int32 a, b, c, d, e;
; 849  : 	const unsigned __int32 *k = (unsigned __int32 *)ks + 104;

  00013	48 8b 44 24 60	 mov	 rax, QWORD PTR ks$[rsp]
  00018	48 05 a0 01 00
	00		 add	 rax, 416		; 000001a0H
  0001e	48 89 44 24 18	 mov	 QWORD PTR k$[rsp], rax

; 850  : 	unsigned int i=4;

  00023	c7 44 24 04 04
	00 00 00	 mov	 DWORD PTR i$[rsp], 4

; 851  : 	unsigned __int32 *in = (unsigned __int32 *) inBlock;

  0002b	48 8b 44 24 50	 mov	 rax, QWORD PTR inBlock$[rsp]
  00030	48 89 44 24 08	 mov	 QWORD PTR in$[rsp], rax

; 852  : 	unsigned __int32 *out = (unsigned __int32 *) outBlock;

  00035	48 8b 44 24 58	 mov	 rax, QWORD PTR outBlock$[rsp]
  0003a	48 89 44 24 28	 mov	 QWORD PTR out$[rsp], rax

; 853  : 
; 854  :     a = LE32(in[0]);

  0003f	48 8b 44 24 08	 mov	 rax, QWORD PTR in$[rsp]
  00044	8b 00		 mov	 eax, DWORD PTR [rax]
  00046	89 04 24	 mov	 DWORD PTR a$[rsp], eax

; 855  : 	b = LE32(in[1]);

  00049	48 8b 44 24 08	 mov	 rax, QWORD PTR in$[rsp]
  0004e	8b 40 04	 mov	 eax, DWORD PTR [rax+4]
  00051	89 44 24 10	 mov	 DWORD PTR b$[rsp], eax

; 856  : 	c = LE32(in[2]);

  00055	48 8b 44 24 08	 mov	 rax, QWORD PTR in$[rsp]
  0005a	8b 40 08	 mov	 eax, DWORD PTR [rax+8]
  0005d	89 44 24 24	 mov	 DWORD PTR c$[rsp], eax

; 857  : 	d = LE32(in[3]);

  00061	48 8b 44 24 08	 mov	 rax, QWORD PTR in$[rsp]
  00066	8b 40 0c	 mov	 eax, DWORD PTR [rax+12]
  00069	89 44 24 20	 mov	 DWORD PTR d$[rsp], eax

; 858  : 
; 859  : 	beforeI7(KX);

  0006d	48 8b 44 24 18	 mov	 rax, QWORD PTR k$[rsp]
  00072	8b 88 80 00 00
	00		 mov	 ecx, DWORD PTR [rax+128]
  00078	8b 04 24	 mov	 eax, DWORD PTR a$[rsp]
  0007b	33 c1		 xor	 eax, ecx
  0007d	89 04 24	 mov	 DWORD PTR a$[rsp], eax
  00080	48 8b 44 24 18	 mov	 rax, QWORD PTR k$[rsp]
  00085	8b 88 84 00 00
	00		 mov	 ecx, DWORD PTR [rax+132]
  0008b	8b 44 24 10	 mov	 eax, DWORD PTR b$[rsp]
  0008f	33 c1		 xor	 eax, ecx
  00091	89 44 24 10	 mov	 DWORD PTR b$[rsp], eax
  00095	48 8b 44 24 18	 mov	 rax, QWORD PTR k$[rsp]
  0009a	8b 88 88 00 00
	00		 mov	 ecx, DWORD PTR [rax+136]
  000a0	8b 44 24 24	 mov	 eax, DWORD PTR c$[rsp]
  000a4	33 c1		 xor	 eax, ecx
  000a6	89 44 24 24	 mov	 DWORD PTR c$[rsp], eax
  000aa	48 8b 44 24 18	 mov	 rax, QWORD PTR k$[rsp]
  000af	8b 88 8c 00 00
	00		 mov	 ecx, DWORD PTR [rax+140]
  000b5	8b 44 24 20	 mov	 eax, DWORD PTR d$[rsp]
  000b9	33 c1		 xor	 eax, ecx
  000bb	89 44 24 20	 mov	 DWORD PTR d$[rsp], eax

; 860  : 	goto start;

  000bf	e9 e1 00 00 00	 jmp	 $start$26503
$LN3@serpent_de:

; 861  : 
; 862  : 	do
; 863  : 	{
; 864  : 		c = b;

  000c4	8b 44 24 10	 mov	 eax, DWORD PTR b$[rsp]
  000c8	89 44 24 24	 mov	 DWORD PTR c$[rsp], eax

; 865  : 		b = d;

  000cc	8b 44 24 20	 mov	 eax, DWORD PTR d$[rsp]
  000d0	89 44 24 10	 mov	 DWORD PTR b$[rsp], eax

; 866  : 		d = e;

  000d4	8b 44 24 30	 mov	 eax, DWORD PTR e$[rsp]
  000d8	89 44 24 20	 mov	 DWORD PTR d$[rsp], eax

; 867  : 		k -= 32;

  000dc	48 8b 44 24 18	 mov	 rax, QWORD PTR k$[rsp]
  000e1	48 2d 80 00 00
	00		 sub	 rax, 128		; 00000080H
  000e7	48 89 44 24 18	 mov	 QWORD PTR k$[rsp], rax

; 868  : 		beforeI7(ILT);

  000ec	8b 44 24 24	 mov	 eax, DWORD PTR c$[rsp]
  000f0	c1 e8 16	 shr	 eax, 22
  000f3	8b 4c 24 24	 mov	 ecx, DWORD PTR c$[rsp]
  000f7	c1 e1 0a	 shl	 ecx, 10
  000fa	0b c1		 or	 eax, ecx
  000fc	89 44 24 24	 mov	 DWORD PTR c$[rsp], eax
  00100	8b 04 24	 mov	 eax, DWORD PTR a$[rsp]
  00103	c1 e8 05	 shr	 eax, 5
  00106	8b 0c 24	 mov	 ecx, DWORD PTR a$[rsp]
  00109	c1 e1 1b	 shl	 ecx, 27
  0010c	0b c1		 or	 eax, ecx
  0010e	89 04 24	 mov	 DWORD PTR a$[rsp], eax
  00111	8b 44 24 10	 mov	 eax, DWORD PTR b$[rsp]
  00115	c1 e0 07	 shl	 eax, 7
  00118	8b 4c 24 20	 mov	 ecx, DWORD PTR d$[rsp]
  0011c	33 c8		 xor	 ecx, eax
  0011e	8b 44 24 24	 mov	 eax, DWORD PTR c$[rsp]
  00122	33 c1		 xor	 eax, ecx
  00124	89 44 24 24	 mov	 DWORD PTR c$[rsp], eax
  00128	8b 44 24 20	 mov	 eax, DWORD PTR d$[rsp]
  0012c	8b 4c 24 10	 mov	 ecx, DWORD PTR b$[rsp]
  00130	33 c8		 xor	 ecx, eax
  00132	8b 04 24	 mov	 eax, DWORD PTR a$[rsp]
  00135	33 c1		 xor	 eax, ecx
  00137	89 04 24	 mov	 DWORD PTR a$[rsp], eax
  0013a	8b 44 24 10	 mov	 eax, DWORD PTR b$[rsp]
  0013e	d1 e8		 shr	 eax, 1
  00140	8b 4c 24 10	 mov	 ecx, DWORD PTR b$[rsp]
  00144	c1 e1 1f	 shl	 ecx, 31
  00147	0b c1		 or	 eax, ecx
  00149	89 44 24 10	 mov	 DWORD PTR b$[rsp], eax
  0014d	8b 44 24 20	 mov	 eax, DWORD PTR d$[rsp]
  00151	c1 e8 07	 shr	 eax, 7
  00154	8b 4c 24 20	 mov	 ecx, DWORD PTR d$[rsp]
  00158	c1 e1 19	 shl	 ecx, 25
  0015b	0b c1		 or	 eax, ecx
  0015d	33 44 24 24	 xor	 eax, DWORD PTR c$[rsp]
  00161	8b 0c 24	 mov	 ecx, DWORD PTR a$[rsp]
  00164	c1 e1 03	 shl	 ecx, 3
  00167	33 c1		 xor	 eax, ecx
  00169	89 44 24 20	 mov	 DWORD PTR d$[rsp], eax
  0016d	8b 44 24 24	 mov	 eax, DWORD PTR c$[rsp]
  00171	8b 0c 24	 mov	 ecx, DWORD PTR a$[rsp]
  00174	33 c8		 xor	 ecx, eax
  00176	8b 44 24 10	 mov	 eax, DWORD PTR b$[rsp]
  0017a	33 c1		 xor	 eax, ecx
  0017c	89 44 24 10	 mov	 DWORD PTR b$[rsp], eax
  00180	8b 44 24 24	 mov	 eax, DWORD PTR c$[rsp]
  00184	c1 e8 03	 shr	 eax, 3
  00187	8b 4c 24 24	 mov	 ecx, DWORD PTR c$[rsp]
  0018b	c1 e1 1d	 shl	 ecx, 29
  0018e	0b c1		 or	 eax, ecx
  00190	89 44 24 24	 mov	 DWORD PTR c$[rsp], eax
  00194	8b 04 24	 mov	 eax, DWORD PTR a$[rsp]
  00197	c1 e8 0d	 shr	 eax, 13
  0019a	8b 0c 24	 mov	 ecx, DWORD PTR a$[rsp]
  0019d	c1 e1 13	 shl	 ecx, 19
  001a0	0b c1		 or	 eax, ecx
  001a2	89 04 24	 mov	 DWORD PTR a$[rsp], eax
$start$26503:

; 869  : start:
; 870  : 		beforeI7(I7); afterI7(KX); 

  001a5	8b 44 24 24	 mov	 eax, DWORD PTR c$[rsp]
  001a9	89 44 24 30	 mov	 DWORD PTR e$[rsp], eax
  001ad	8b 0c 24	 mov	 ecx, DWORD PTR a$[rsp]
  001b0	8b 44 24 24	 mov	 eax, DWORD PTR c$[rsp]
  001b4	33 c1		 xor	 eax, ecx
  001b6	89 44 24 24	 mov	 DWORD PTR c$[rsp], eax
  001ba	8b 4c 24 20	 mov	 ecx, DWORD PTR d$[rsp]
  001be	8b 04 24	 mov	 eax, DWORD PTR a$[rsp]
  001c1	23 c1		 and	 eax, ecx
  001c3	89 04 24	 mov	 DWORD PTR a$[rsp], eax
  001c6	8b 44 24 24	 mov	 eax, DWORD PTR c$[rsp]
  001ca	f7 d0		 not	 eax
  001cc	89 44 24 24	 mov	 DWORD PTR c$[rsp], eax
  001d0	8b 4c 24 20	 mov	 ecx, DWORD PTR d$[rsp]
  001d4	8b 44 24 30	 mov	 eax, DWORD PTR e$[rsp]
  001d8	0b c1		 or	 eax, ecx
  001da	89 44 24 30	 mov	 DWORD PTR e$[rsp], eax
  001de	8b 4c 24 10	 mov	 ecx, DWORD PTR b$[rsp]
  001e2	8b 44 24 20	 mov	 eax, DWORD PTR d$[rsp]
  001e6	33 c1		 xor	 eax, ecx
  001e8	89 44 24 20	 mov	 DWORD PTR d$[rsp], eax
  001ec	8b 0c 24	 mov	 ecx, DWORD PTR a$[rsp]
  001ef	8b 44 24 10	 mov	 eax, DWORD PTR b$[rsp]
  001f3	0b c1		 or	 eax, ecx
  001f5	89 44 24 10	 mov	 DWORD PTR b$[rsp], eax
  001f9	8b 4c 24 24	 mov	 ecx, DWORD PTR c$[rsp]
  001fd	8b 04 24	 mov	 eax, DWORD PTR a$[rsp]
  00200	33 c1		 xor	 eax, ecx
  00202	89 04 24	 mov	 DWORD PTR a$[rsp], eax
  00205	8b 4c 24 30	 mov	 ecx, DWORD PTR e$[rsp]
  00209	8b 44 24 24	 mov	 eax, DWORD PTR c$[rsp]
  0020d	23 c1		 and	 eax, ecx
  0020f	89 44 24 24	 mov	 DWORD PTR c$[rsp], eax
  00213	8b 4c 24 24	 mov	 ecx, DWORD PTR c$[rsp]
  00217	8b 44 24 10	 mov	 eax, DWORD PTR b$[rsp]
  0021b	33 c1		 xor	 eax, ecx
  0021d	89 44 24 10	 mov	 DWORD PTR b$[rsp], eax
  00221	8b 0c 24	 mov	 ecx, DWORD PTR a$[rsp]
  00224	8b 44 24 24	 mov	 eax, DWORD PTR c$[rsp]
  00228	33 c1		 xor	 eax, ecx
  0022a	89 44 24 24	 mov	 DWORD PTR c$[rsp], eax
  0022e	8b 4c 24 24	 mov	 ecx, DWORD PTR c$[rsp]
  00232	8b 04 24	 mov	 eax, DWORD PTR a$[rsp]
  00235	0b c1		 or	 eax, ecx
  00237	89 04 24	 mov	 DWORD PTR a$[rsp], eax
  0023a	8b 4c 24 30	 mov	 ecx, DWORD PTR e$[rsp]
  0023e	8b 44 24 20	 mov	 eax, DWORD PTR d$[rsp]
  00242	23 c1		 and	 eax, ecx
  00244	89 44 24 20	 mov	 DWORD PTR d$[rsp], eax
  00248	8b 4c 24 20	 mov	 ecx, DWORD PTR d$[rsp]
  0024c	8b 04 24	 mov	 eax, DWORD PTR a$[rsp]
  0024f	33 c1		 xor	 eax, ecx
  00251	89 04 24	 mov	 DWORD PTR a$[rsp], eax
  00254	8b 4c 24 10	 mov	 ecx, DWORD PTR b$[rsp]
  00258	8b 44 24 30	 mov	 eax, DWORD PTR e$[rsp]
  0025c	33 c1		 xor	 eax, ecx
  0025e	89 44 24 30	 mov	 DWORD PTR e$[rsp], eax
  00262	8b 4c 24 30	 mov	 ecx, DWORD PTR e$[rsp]
  00266	8b 44 24 20	 mov	 eax, DWORD PTR d$[rsp]
  0026a	33 c1		 xor	 eax, ecx
  0026c	89 44 24 20	 mov	 DWORD PTR d$[rsp], eax
  00270	8b 0c 24	 mov	 ecx, DWORD PTR a$[rsp]
  00273	8b 44 24 30	 mov	 eax, DWORD PTR e$[rsp]
  00277	0b c1		 or	 eax, ecx
  00279	89 44 24 30	 mov	 DWORD PTR e$[rsp], eax
  0027d	8b 4c 24 24	 mov	 ecx, DWORD PTR c$[rsp]
  00281	8b 44 24 20	 mov	 eax, DWORD PTR d$[rsp]
  00285	33 c1		 xor	 eax, ecx
  00287	89 44 24 20	 mov	 DWORD PTR d$[rsp], eax
  0028b	8b 4c 24 24	 mov	 ecx, DWORD PTR c$[rsp]
  0028f	8b 44 24 30	 mov	 eax, DWORD PTR e$[rsp]
  00293	33 c1		 xor	 eax, ecx
  00295	89 44 24 30	 mov	 DWORD PTR e$[rsp], eax
  00299	48 8b 44 24 18	 mov	 rax, QWORD PTR k$[rsp]
  0029e	8b 48 70	 mov	 ecx, DWORD PTR [rax+112]
  002a1	8b 44 24 20	 mov	 eax, DWORD PTR d$[rsp]
  002a5	33 c1		 xor	 eax, ecx
  002a7	89 44 24 20	 mov	 DWORD PTR d$[rsp], eax
  002ab	48 8b 44 24 18	 mov	 rax, QWORD PTR k$[rsp]
  002b0	8b 48 74	 mov	 ecx, DWORD PTR [rax+116]
  002b3	8b 04 24	 mov	 eax, DWORD PTR a$[rsp]
  002b6	33 c1		 xor	 eax, ecx
  002b8	89 04 24	 mov	 DWORD PTR a$[rsp], eax
  002bb	48 8b 44 24 18	 mov	 rax, QWORD PTR k$[rsp]
  002c0	8b 48 78	 mov	 ecx, DWORD PTR [rax+120]
  002c3	8b 44 24 10	 mov	 eax, DWORD PTR b$[rsp]
  002c7	33 c1		 xor	 eax, ecx
  002c9	89 44 24 10	 mov	 DWORD PTR b$[rsp], eax
  002cd	48 8b 44 24 18	 mov	 rax, QWORD PTR k$[rsp]
  002d2	8b 48 7c	 mov	 ecx, DWORD PTR [rax+124]
  002d5	8b 44 24 30	 mov	 eax, DWORD PTR e$[rsp]
  002d9	33 c1		 xor	 eax, ecx
  002db	89 44 24 30	 mov	 DWORD PTR e$[rsp], eax

; 871  : 		afterI7(ILT); afterI7(I6); afterI6(KX); 

  002df	8b 44 24 10	 mov	 eax, DWORD PTR b$[rsp]
  002e3	c1 e8 16	 shr	 eax, 22
  002e6	8b 4c 24 10	 mov	 ecx, DWORD PTR b$[rsp]
  002ea	c1 e1 0a	 shl	 ecx, 10
  002ed	0b c1		 or	 eax, ecx
  002ef	89 44 24 10	 mov	 DWORD PTR b$[rsp], eax
  002f3	8b 44 24 20	 mov	 eax, DWORD PTR d$[rsp]
  002f7	c1 e8 05	 shr	 eax, 5
  002fa	8b 4c 24 20	 mov	 ecx, DWORD PTR d$[rsp]
  002fe	c1 e1 1b	 shl	 ecx, 27
  00301	0b c1		 or	 eax, ecx
  00303	89 44 24 20	 mov	 DWORD PTR d$[rsp], eax
  00307	8b 04 24	 mov	 eax, DWORD PTR a$[rsp]
  0030a	c1 e0 07	 shl	 eax, 7
  0030d	8b 4c 24 30	 mov	 ecx, DWORD PTR e$[rsp]
  00311	33 c8		 xor	 ecx, eax
  00313	8b 44 24 10	 mov	 eax, DWORD PTR b$[rsp]
  00317	33 c1		 xor	 eax, ecx
  00319	89 44 24 10	 mov	 DWORD PTR b$[rsp], eax
  0031d	8b 44 24 30	 mov	 eax, DWORD PTR e$[rsp]
  00321	8b 0c 24	 mov	 ecx, DWORD PTR a$[rsp]
  00324	33 c8		 xor	 ecx, eax
  00326	8b 44 24 20	 mov	 eax, DWORD PTR d$[rsp]
  0032a	33 c1		 xor	 eax, ecx
  0032c	89 44 24 20	 mov	 DWORD PTR d$[rsp], eax
  00330	8b 04 24	 mov	 eax, DWORD PTR a$[rsp]
  00333	d1 e8		 shr	 eax, 1
  00335	8b 0c 24	 mov	 ecx, DWORD PTR a$[rsp]
  00338	c1 e1 1f	 shl	 ecx, 31
  0033b	0b c1		 or	 eax, ecx
  0033d	89 04 24	 mov	 DWORD PTR a$[rsp], eax
  00340	8b 44 24 30	 mov	 eax, DWORD PTR e$[rsp]
  00344	c1 e8 07	 shr	 eax, 7
  00347	8b 4c 24 30	 mov	 ecx, DWORD PTR e$[rsp]
  0034b	c1 e1 19	 shl	 ecx, 25
  0034e	0b c1		 or	 eax, ecx
  00350	33 44 24 10	 xor	 eax, DWORD PTR b$[rsp]
  00354	8b 4c 24 20	 mov	 ecx, DWORD PTR d$[rsp]
  00358	c1 e1 03	 shl	 ecx, 3
  0035b	33 c1		 xor	 eax, ecx
  0035d	89 44 24 30	 mov	 DWORD PTR e$[rsp], eax
  00361	8b 44 24 10	 mov	 eax, DWORD PTR b$[rsp]
  00365	8b 4c 24 20	 mov	 ecx, DWORD PTR d$[rsp]
  00369	33 c8		 xor	 ecx, eax
  0036b	8b 04 24	 mov	 eax, DWORD PTR a$[rsp]
  0036e	33 c1		 xor	 eax, ecx
  00370	89 04 24	 mov	 DWORD PTR a$[rsp], eax
  00373	8b 44 24 10	 mov	 eax, DWORD PTR b$[rsp]
  00377	c1 e8 03	 shr	 eax, 3
  0037a	8b 4c 24 10	 mov	 ecx, DWORD PTR b$[rsp]
  0037e	c1 e1 1d	 shl	 ecx, 29
  00381	0b c1		 or	 eax, ecx
  00383	89 44 24 10	 mov	 DWORD PTR b$[rsp], eax
  00387	8b 44 24 20	 mov	 eax, DWORD PTR d$[rsp]
  0038b	c1 e8 0d	 shr	 eax, 13
  0038e	8b 4c 24 20	 mov	 ecx, DWORD PTR d$[rsp]
  00392	c1 e1 13	 shl	 ecx, 19
  00395	0b c1		 or	 eax, ecx
  00397	89 44 24 20	 mov	 DWORD PTR d$[rsp], eax
  0039b	8b 4c 24 10	 mov	 ecx, DWORD PTR b$[rsp]
  0039f	8b 44 24 20	 mov	 eax, DWORD PTR d$[rsp]
  003a3	33 c1		 xor	 eax, ecx
  003a5	89 44 24 20	 mov	 DWORD PTR d$[rsp], eax
  003a9	8b 44 24 10	 mov	 eax, DWORD PTR b$[rsp]
  003ad	89 44 24 24	 mov	 DWORD PTR c$[rsp], eax
  003b1	8b 4c 24 20	 mov	 ecx, DWORD PTR d$[rsp]
  003b5	8b 44 24 10	 mov	 eax, DWORD PTR b$[rsp]
  003b9	23 c1		 and	 eax, ecx
  003bb	89 44 24 10	 mov	 DWORD PTR b$[rsp], eax
  003bf	8b 4c 24 30	 mov	 ecx, DWORD PTR e$[rsp]
  003c3	8b 44 24 24	 mov	 eax, DWORD PTR c$[rsp]
  003c7	33 c1		 xor	 eax, ecx
  003c9	89 44 24 24	 mov	 DWORD PTR c$[rsp], eax
  003cd	8b 44 24 10	 mov	 eax, DWORD PTR b$[rsp]
  003d1	f7 d0		 not	 eax
  003d3	89 44 24 10	 mov	 DWORD PTR b$[rsp], eax
  003d7	8b 0c 24	 mov	 ecx, DWORD PTR a$[rsp]
  003da	8b 44 24 30	 mov	 eax, DWORD PTR e$[rsp]
  003de	33 c1		 xor	 eax, ecx
  003e0	89 44 24 30	 mov	 DWORD PTR e$[rsp], eax
  003e4	8b 4c 24 30	 mov	 ecx, DWORD PTR e$[rsp]
  003e8	8b 44 24 10	 mov	 eax, DWORD PTR b$[rsp]
  003ec	33 c1		 xor	 eax, ecx
  003ee	89 44 24 10	 mov	 DWORD PTR b$[rsp], eax
  003f2	8b 4c 24 20	 mov	 ecx, DWORD PTR d$[rsp]
  003f6	8b 44 24 24	 mov	 eax, DWORD PTR c$[rsp]
  003fa	0b c1		 or	 eax, ecx
  003fc	89 44 24 24	 mov	 DWORD PTR c$[rsp], eax
  00400	8b 4c 24 10	 mov	 ecx, DWORD PTR b$[rsp]
  00404	8b 44 24 20	 mov	 eax, DWORD PTR d$[rsp]
  00408	33 c1		 xor	 eax, ecx
  0040a	89 44 24 20	 mov	 DWORD PTR d$[rsp], eax
  0040e	8b 4c 24 24	 mov	 ecx, DWORD PTR c$[rsp]
  00412	8b 44 24 30	 mov	 eax, DWORD PTR e$[rsp]
  00416	33 c1		 xor	 eax, ecx
  00418	89 44 24 30	 mov	 DWORD PTR e$[rsp], eax
  0041c	8b 0c 24	 mov	 ecx, DWORD PTR a$[rsp]
  0041f	8b 44 24 24	 mov	 eax, DWORD PTR c$[rsp]
  00423	33 c1		 xor	 eax, ecx
  00425	89 44 24 24	 mov	 DWORD PTR c$[rsp], eax
  00429	8b 4c 24 30	 mov	 ecx, DWORD PTR e$[rsp]
  0042d	8b 04 24	 mov	 eax, DWORD PTR a$[rsp]
  00430	23 c1		 and	 eax, ecx
  00432	89 04 24	 mov	 DWORD PTR a$[rsp], eax
  00435	8b 4c 24 20	 mov	 ecx, DWORD PTR d$[rsp]
  00439	8b 04 24	 mov	 eax, DWORD PTR a$[rsp]
  0043c	33 c1		 xor	 eax, ecx
  0043e	89 04 24	 mov	 DWORD PTR a$[rsp], eax
  00441	8b 4c 24 30	 mov	 ecx, DWORD PTR e$[rsp]
  00445	8b 44 24 20	 mov	 eax, DWORD PTR d$[rsp]
  00449	33 c1		 xor	 eax, ecx
  0044b	89 44 24 20	 mov	 DWORD PTR d$[rsp], eax
  0044f	8b 4c 24 10	 mov	 ecx, DWORD PTR b$[rsp]
  00453	8b 44 24 20	 mov	 eax, DWORD PTR d$[rsp]
  00457	0b c1		 or	 eax, ecx
  00459	89 44 24 20	 mov	 DWORD PTR d$[rsp], eax
  0045d	8b 0c 24	 mov	 ecx, DWORD PTR a$[rsp]
  00460	8b 44 24 30	 mov	 eax, DWORD PTR e$[rsp]
  00464	33 c1		 xor	 eax, ecx
  00466	89 44 24 30	 mov	 DWORD PTR e$[rsp], eax
  0046a	8b 4c 24 20	 mov	 ecx, DWORD PTR d$[rsp]
  0046e	8b 44 24 24	 mov	 eax, DWORD PTR c$[rsp]
  00472	33 c1		 xor	 eax, ecx
  00474	89 44 24 24	 mov	 DWORD PTR c$[rsp], eax
  00478	48 8b 44 24 18	 mov	 rax, QWORD PTR k$[rsp]
  0047d	8b 48 60	 mov	 ecx, DWORD PTR [rax+96]
  00480	8b 04 24	 mov	 eax, DWORD PTR a$[rsp]
  00483	33 c1		 xor	 eax, ecx
  00485	89 04 24	 mov	 DWORD PTR a$[rsp], eax
  00488	48 8b 44 24 18	 mov	 rax, QWORD PTR k$[rsp]
  0048d	8b 48 64	 mov	 ecx, DWORD PTR [rax+100]
  00490	8b 44 24 10	 mov	 eax, DWORD PTR b$[rsp]
  00494	33 c1		 xor	 eax, ecx
  00496	89 44 24 10	 mov	 DWORD PTR b$[rsp], eax
  0049a	48 8b 44 24 18	 mov	 rax, QWORD PTR k$[rsp]
  0049f	8b 48 68	 mov	 ecx, DWORD PTR [rax+104]
  004a2	8b 44 24 24	 mov	 eax, DWORD PTR c$[rsp]
  004a6	33 c1		 xor	 eax, ecx
  004a8	89 44 24 24	 mov	 DWORD PTR c$[rsp], eax
  004ac	48 8b 44 24 18	 mov	 rax, QWORD PTR k$[rsp]
  004b1	8b 48 6c	 mov	 ecx, DWORD PTR [rax+108]
  004b4	8b 44 24 30	 mov	 eax, DWORD PTR e$[rsp]
  004b8	33 c1		 xor	 eax, ecx
  004ba	89 44 24 30	 mov	 DWORD PTR e$[rsp], eax

; 872  : 		afterI6(ILT); afterI6(I5); afterI5(KX); 

  004be	8b 44 24 24	 mov	 eax, DWORD PTR c$[rsp]
  004c2	c1 e8 16	 shr	 eax, 22
  004c5	8b 4c 24 24	 mov	 ecx, DWORD PTR c$[rsp]
  004c9	c1 e1 0a	 shl	 ecx, 10
  004cc	0b c1		 or	 eax, ecx
  004ce	89 44 24 24	 mov	 DWORD PTR c$[rsp], eax
  004d2	8b 04 24	 mov	 eax, DWORD PTR a$[rsp]
  004d5	c1 e8 05	 shr	 eax, 5
  004d8	8b 0c 24	 mov	 ecx, DWORD PTR a$[rsp]
  004db	c1 e1 1b	 shl	 ecx, 27
  004de	0b c1		 or	 eax, ecx
  004e0	89 04 24	 mov	 DWORD PTR a$[rsp], eax
  004e3	8b 44 24 10	 mov	 eax, DWORD PTR b$[rsp]
  004e7	c1 e0 07	 shl	 eax, 7
  004ea	8b 4c 24 30	 mov	 ecx, DWORD PTR e$[rsp]
  004ee	33 c8		 xor	 ecx, eax
  004f0	8b 44 24 24	 mov	 eax, DWORD PTR c$[rsp]
  004f4	33 c1		 xor	 eax, ecx
  004f6	89 44 24 24	 mov	 DWORD PTR c$[rsp], eax
  004fa	8b 44 24 30	 mov	 eax, DWORD PTR e$[rsp]
  004fe	8b 4c 24 10	 mov	 ecx, DWORD PTR b$[rsp]
  00502	33 c8		 xor	 ecx, eax
  00504	8b 04 24	 mov	 eax, DWORD PTR a$[rsp]
  00507	33 c1		 xor	 eax, ecx
  00509	89 04 24	 mov	 DWORD PTR a$[rsp], eax
  0050c	8b 44 24 10	 mov	 eax, DWORD PTR b$[rsp]
  00510	d1 e8		 shr	 eax, 1
  00512	8b 4c 24 10	 mov	 ecx, DWORD PTR b$[rsp]
  00516	c1 e1 1f	 shl	 ecx, 31
  00519	0b c1		 or	 eax, ecx
  0051b	89 44 24 10	 mov	 DWORD PTR b$[rsp], eax
  0051f	8b 44 24 30	 mov	 eax, DWORD PTR e$[rsp]
  00523	c1 e8 07	 shr	 eax, 7
  00526	8b 4c 24 30	 mov	 ecx, DWORD PTR e$[rsp]
  0052a	c1 e1 19	 shl	 ecx, 25
  0052d	0b c1		 or	 eax, ecx
  0052f	33 44 24 24	 xor	 eax, DWORD PTR c$[rsp]
  00533	8b 0c 24	 mov	 ecx, DWORD PTR a$[rsp]
  00536	c1 e1 03	 shl	 ecx, 3
  00539	33 c1		 xor	 eax, ecx
  0053b	89 44 24 30	 mov	 DWORD PTR e$[rsp], eax
  0053f	8b 44 24 24	 mov	 eax, DWORD PTR c$[rsp]
  00543	8b 0c 24	 mov	 ecx, DWORD PTR a$[rsp]
  00546	33 c8		 xor	 ecx, eax
  00548	8b 44 24 10	 mov	 eax, DWORD PTR b$[rsp]
  0054c	33 c1		 xor	 eax, ecx
  0054e	89 44 24 10	 mov	 DWORD PTR b$[rsp], eax
  00552	8b 44 24 24	 mov	 eax, DWORD PTR c$[rsp]
  00556	c1 e8 03	 shr	 eax, 3
  00559	8b 4c 24 24	 mov	 ecx, DWORD PTR c$[rsp]
  0055d	c1 e1 1d	 shl	 ecx, 29
  00560	0b c1		 or	 eax, ecx
  00562	89 44 24 24	 mov	 DWORD PTR c$[rsp], eax
  00566	8b 04 24	 mov	 eax, DWORD PTR a$[rsp]
  00569	c1 e8 0d	 shr	 eax, 13
  0056c	8b 0c 24	 mov	 ecx, DWORD PTR a$[rsp]
  0056f	c1 e1 13	 shl	 ecx, 19
  00572	0b c1		 or	 eax, ecx
  00574	89 04 24	 mov	 DWORD PTR a$[rsp], eax
  00577	8b 44 24 10	 mov	 eax, DWORD PTR b$[rsp]
  0057b	f7 d0		 not	 eax
  0057d	89 44 24 10	 mov	 DWORD PTR b$[rsp], eax
  00581	8b 44 24 30	 mov	 eax, DWORD PTR e$[rsp]
  00585	89 44 24 20	 mov	 DWORD PTR d$[rsp], eax
  00589	8b 4c 24 10	 mov	 ecx, DWORD PTR b$[rsp]
  0058d	8b 44 24 24	 mov	 eax, DWORD PTR c$[rsp]
  00591	33 c1		 xor	 eax, ecx
  00593	89 44 24 24	 mov	 DWORD PTR c$[rsp], eax
  00597	8b 0c 24	 mov	 ecx, DWORD PTR a$[rsp]
  0059a	8b 44 24 30	 mov	 eax, DWORD PTR e$[rsp]
  0059e	0b c1		 or	 eax, ecx
  005a0	89 44 24 30	 mov	 DWORD PTR e$[rsp], eax
  005a4	8b 4c 24 24	 mov	 ecx, DWORD PTR c$[rsp]
  005a8	8b 44 24 30	 mov	 eax, DWORD PTR e$[rsp]
  005ac	33 c1		 xor	 eax, ecx
  005ae	89 44 24 30	 mov	 DWORD PTR e$[rsp], eax
  005b2	8b 4c 24 10	 mov	 ecx, DWORD PTR b$[rsp]
  005b6	8b 44 24 24	 mov	 eax, DWORD PTR c$[rsp]
  005ba	0b c1		 or	 eax, ecx
  005bc	89 44 24 24	 mov	 DWORD PTR c$[rsp], eax
  005c0	8b 0c 24	 mov	 ecx, DWORD PTR a$[rsp]
  005c3	8b 44 24 24	 mov	 eax, DWORD PTR c$[rsp]
  005c7	23 c1		 and	 eax, ecx
  005c9	89 44 24 24	 mov	 DWORD PTR c$[rsp], eax
  005cd	8b 4c 24 30	 mov	 ecx, DWORD PTR e$[rsp]
  005d1	8b 44 24 20	 mov	 eax, DWORD PTR d$[rsp]
  005d5	33 c1		 xor	 eax, ecx
  005d7	89 44 24 20	 mov	 DWORD PTR d$[rsp], eax
  005db	8b 4c 24 20	 mov	 ecx, DWORD PTR d$[rsp]
  005df	8b 44 24 24	 mov	 eax, DWORD PTR c$[rsp]
  005e3	33 c1		 xor	 eax, ecx
  005e5	89 44 24 24	 mov	 DWORD PTR c$[rsp], eax
  005e9	8b 0c 24	 mov	 ecx, DWORD PTR a$[rsp]
  005ec	8b 44 24 20	 mov	 eax, DWORD PTR d$[rsp]
  005f0	0b c1		 or	 eax, ecx
  005f2	89 44 24 20	 mov	 DWORD PTR d$[rsp], eax
  005f6	8b 4c 24 10	 mov	 ecx, DWORD PTR b$[rsp]
  005fa	8b 44 24 20	 mov	 eax, DWORD PTR d$[rsp]
  005fe	33 c1		 xor	 eax, ecx
  00600	89 44 24 20	 mov	 DWORD PTR d$[rsp], eax
  00604	8b 4c 24 24	 mov	 ecx, DWORD PTR c$[rsp]
  00608	8b 44 24 10	 mov	 eax, DWORD PTR b$[rsp]
  0060c	23 c1		 and	 eax, ecx
  0060e	89 44 24 10	 mov	 DWORD PTR b$[rsp], eax
  00612	8b 4c 24 30	 mov	 ecx, DWORD PTR e$[rsp]
  00616	8b 44 24 10	 mov	 eax, DWORD PTR b$[rsp]
  0061a	33 c1		 xor	 eax, ecx
  0061c	89 44 24 10	 mov	 DWORD PTR b$[rsp], eax
  00620	8b 4c 24 24	 mov	 ecx, DWORD PTR c$[rsp]
  00624	8b 44 24 20	 mov	 eax, DWORD PTR d$[rsp]
  00628	33 c1		 xor	 eax, ecx
  0062a	89 44 24 20	 mov	 DWORD PTR d$[rsp], eax
  0062e	8b 4c 24 20	 mov	 ecx, DWORD PTR d$[rsp]
  00632	8b 44 24 30	 mov	 eax, DWORD PTR e$[rsp]
  00636	23 c1		 and	 eax, ecx
  00638	89 44 24 30	 mov	 DWORD PTR e$[rsp], eax
  0063c	8b 4c 24 10	 mov	 ecx, DWORD PTR b$[rsp]
  00640	8b 44 24 20	 mov	 eax, DWORD PTR d$[rsp]
  00644	33 c1		 xor	 eax, ecx
  00646	89 44 24 20	 mov	 DWORD PTR d$[rsp], eax
  0064a	8b 0c 24	 mov	 ecx, DWORD PTR a$[rsp]
  0064d	8b 44 24 30	 mov	 eax, DWORD PTR e$[rsp]
  00651	33 c1		 xor	 eax, ecx
  00653	89 44 24 30	 mov	 DWORD PTR e$[rsp], eax
  00657	8b 4c 24 20	 mov	 ecx, DWORD PTR d$[rsp]
  0065b	8b 44 24 30	 mov	 eax, DWORD PTR e$[rsp]
  0065f	33 c1		 xor	 eax, ecx
  00661	89 44 24 30	 mov	 DWORD PTR e$[rsp], eax
  00665	8b 44 24 20	 mov	 eax, DWORD PTR d$[rsp]
  00669	f7 d0		 not	 eax
  0066b	89 44 24 20	 mov	 DWORD PTR d$[rsp], eax
  0066f	48 8b 44 24 18	 mov	 rax, QWORD PTR k$[rsp]
  00674	8b 48 50	 mov	 ecx, DWORD PTR [rax+80]
  00677	8b 44 24 10	 mov	 eax, DWORD PTR b$[rsp]
  0067b	33 c1		 xor	 eax, ecx
  0067d	89 44 24 10	 mov	 DWORD PTR b$[rsp], eax
  00681	48 8b 44 24 18	 mov	 rax, QWORD PTR k$[rsp]
  00686	8b 48 54	 mov	 ecx, DWORD PTR [rax+84]
  00689	8b 44 24 20	 mov	 eax, DWORD PTR d$[rsp]
  0068d	33 c1		 xor	 eax, ecx
  0068f	89 44 24 20	 mov	 DWORD PTR d$[rsp], eax
  00693	48 8b 44 24 18	 mov	 rax, QWORD PTR k$[rsp]
  00698	8b 48 58	 mov	 ecx, DWORD PTR [rax+88]
  0069b	8b 44 24 30	 mov	 eax, DWORD PTR e$[rsp]
  0069f	33 c1		 xor	 eax, ecx
  006a1	89 44 24 30	 mov	 DWORD PTR e$[rsp], eax
  006a5	48 8b 44 24 18	 mov	 rax, QWORD PTR k$[rsp]
  006aa	8b 48 5c	 mov	 ecx, DWORD PTR [rax+92]
  006ad	8b 44 24 24	 mov	 eax, DWORD PTR c$[rsp]
  006b1	33 c1		 xor	 eax, ecx
  006b3	89 44 24 24	 mov	 DWORD PTR c$[rsp], eax

; 873  : 		afterI5(ILT); afterI5(I4); afterI4(KX); 

  006b7	8b 44 24 30	 mov	 eax, DWORD PTR e$[rsp]
  006bb	c1 e8 16	 shr	 eax, 22
  006be	8b 4c 24 30	 mov	 ecx, DWORD PTR e$[rsp]
  006c2	c1 e1 0a	 shl	 ecx, 10
  006c5	0b c1		 or	 eax, ecx
  006c7	89 44 24 30	 mov	 DWORD PTR e$[rsp], eax
  006cb	8b 44 24 10	 mov	 eax, DWORD PTR b$[rsp]
  006cf	c1 e8 05	 shr	 eax, 5
  006d2	8b 4c 24 10	 mov	 ecx, DWORD PTR b$[rsp]
  006d6	c1 e1 1b	 shl	 ecx, 27
  006d9	0b c1		 or	 eax, ecx
  006db	89 44 24 10	 mov	 DWORD PTR b$[rsp], eax
  006df	8b 44 24 20	 mov	 eax, DWORD PTR d$[rsp]
  006e3	c1 e0 07	 shl	 eax, 7
  006e6	8b 4c 24 24	 mov	 ecx, DWORD PTR c$[rsp]
  006ea	33 c8		 xor	 ecx, eax
  006ec	8b 44 24 30	 mov	 eax, DWORD PTR e$[rsp]
  006f0	33 c1		 xor	 eax, ecx
  006f2	89 44 24 30	 mov	 DWORD PTR e$[rsp], eax
  006f6	8b 44 24 24	 mov	 eax, DWORD PTR c$[rsp]
  006fa	8b 4c 24 20	 mov	 ecx, DWORD PTR d$[rsp]
  006fe	33 c8		 xor	 ecx, eax
  00700	8b 44 24 10	 mov	 eax, DWORD PTR b$[rsp]
  00704	33 c1		 xor	 eax, ecx
  00706	89 44 24 10	 mov	 DWORD PTR b$[rsp], eax
  0070a	8b 44 24 20	 mov	 eax, DWORD PTR d$[rsp]
  0070e	d1 e8		 shr	 eax, 1
  00710	8b 4c 24 20	 mov	 ecx, DWORD PTR d$[rsp]
  00714	c1 e1 1f	 shl	 ecx, 31
  00717	0b c1		 or	 eax, ecx
  00719	89 44 24 20	 mov	 DWORD PTR d$[rsp], eax
  0071d	8b 44 24 24	 mov	 eax, DWORD PTR c$[rsp]
  00721	c1 e8 07	 shr	 eax, 7
  00724	8b 4c 24 24	 mov	 ecx, DWORD PTR c$[rsp]
  00728	c1 e1 19	 shl	 ecx, 25
  0072b	0b c1		 or	 eax, ecx
  0072d	33 44 24 30	 xor	 eax, DWORD PTR e$[rsp]
  00731	8b 4c 24 10	 mov	 ecx, DWORD PTR b$[rsp]
  00735	c1 e1 03	 shl	 ecx, 3
  00738	33 c1		 xor	 eax, ecx
  0073a	89 44 24 24	 mov	 DWORD PTR c$[rsp], eax
  0073e	8b 44 24 30	 mov	 eax, DWORD PTR e$[rsp]
  00742	8b 4c 24 10	 mov	 ecx, DWORD PTR b$[rsp]
  00746	33 c8		 xor	 ecx, eax
  00748	8b 44 24 20	 mov	 eax, DWORD PTR d$[rsp]
  0074c	33 c1		 xor	 eax, ecx
  0074e	89 44 24 20	 mov	 DWORD PTR d$[rsp], eax
  00752	8b 44 24 30	 mov	 eax, DWORD PTR e$[rsp]
  00756	c1 e8 03	 shr	 eax, 3
  00759	8b 4c 24 30	 mov	 ecx, DWORD PTR e$[rsp]
  0075d	c1 e1 1d	 shl	 ecx, 29
  00760	0b c1		 or	 eax, ecx
  00762	89 44 24 30	 mov	 DWORD PTR e$[rsp], eax
  00766	8b 44 24 10	 mov	 eax, DWORD PTR b$[rsp]
  0076a	c1 e8 0d	 shr	 eax, 13
  0076d	8b 4c 24 10	 mov	 ecx, DWORD PTR b$[rsp]
  00771	c1 e1 13	 shl	 ecx, 19
  00774	0b c1		 or	 eax, ecx
  00776	89 44 24 10	 mov	 DWORD PTR b$[rsp], eax
  0077a	8b 44 24 30	 mov	 eax, DWORD PTR e$[rsp]
  0077e	89 04 24	 mov	 DWORD PTR a$[rsp], eax
  00781	8b 4c 24 24	 mov	 ecx, DWORD PTR c$[rsp]
  00785	8b 44 24 30	 mov	 eax, DWORD PTR e$[rsp]
  00789	23 c1		 and	 eax, ecx
  0078b	89 44 24 30	 mov	 DWORD PTR e$[rsp], eax
  0078f	8b 4c 24 20	 mov	 ecx, DWORD PTR d$[rsp]
  00793	8b 44 24 30	 mov	 eax, DWORD PTR e$[rsp]
  00797	33 c1		 xor	 eax, ecx
  00799	89 44 24 30	 mov	 DWORD PTR e$[rsp], eax
  0079d	8b 4c 24 24	 mov	 ecx, DWORD PTR c$[rsp]
  007a1	8b 44 24 20	 mov	 eax, DWORD PTR d$[rsp]
  007a5	0b c1		 or	 eax, ecx
  007a7	89 44 24 20	 mov	 DWORD PTR d$[rsp], eax
  007ab	8b 4c 24 10	 mov	 ecx, DWORD PTR b$[rsp]
  007af	8b 44 24 20	 mov	 eax, DWORD PTR d$[rsp]
  007b3	23 c1		 and	 eax, ecx
  007b5	89 44 24 20	 mov	 DWORD PTR d$[rsp], eax
  007b9	8b 4c 24 30	 mov	 ecx, DWORD PTR e$[rsp]
  007bd	8b 04 24	 mov	 eax, DWORD PTR a$[rsp]
  007c0	33 c1		 xor	 eax, ecx
  007c2	89 04 24	 mov	 DWORD PTR a$[rsp], eax
  007c5	8b 4c 24 20	 mov	 ecx, DWORD PTR d$[rsp]
  007c9	8b 04 24	 mov	 eax, DWORD PTR a$[rsp]
  007cc	33 c1		 xor	 eax, ecx
  007ce	89 04 24	 mov	 DWORD PTR a$[rsp], eax
  007d1	8b 4c 24 30	 mov	 ecx, DWORD PTR e$[rsp]
  007d5	8b 44 24 20	 mov	 eax, DWORD PTR d$[rsp]
  007d9	23 c1		 and	 eax, ecx
  007db	89 44 24 20	 mov	 DWORD PTR d$[rsp], eax
  007df	8b 44 24 10	 mov	 eax, DWORD PTR b$[rsp]
  007e3	f7 d0		 not	 eax
  007e5	89 44 24 10	 mov	 DWORD PTR b$[rsp], eax
  007e9	8b 0c 24	 mov	 ecx, DWORD PTR a$[rsp]
  007ec	8b 44 24 24	 mov	 eax, DWORD PTR c$[rsp]
  007f0	33 c1		 xor	 eax, ecx
  007f2	89 44 24 24	 mov	 DWORD PTR c$[rsp], eax
  007f6	8b 4c 24 24	 mov	 ecx, DWORD PTR c$[rsp]
  007fa	8b 44 24 20	 mov	 eax, DWORD PTR d$[rsp]
  007fe	33 c1		 xor	 eax, ecx
  00800	89 44 24 20	 mov	 DWORD PTR d$[rsp], eax
  00804	8b 4c 24 10	 mov	 ecx, DWORD PTR b$[rsp]
  00808	8b 44 24 24	 mov	 eax, DWORD PTR c$[rsp]
  0080c	23 c1		 and	 eax, ecx
  0080e	89 44 24 24	 mov	 DWORD PTR c$[rsp], eax
  00812	8b 4c 24 30	 mov	 ecx, DWORD PTR e$[rsp]
  00816	8b 44 24 24	 mov	 eax, DWORD PTR c$[rsp]
  0081a	33 c1		 xor	 eax, ecx
  0081c	89 44 24 24	 mov	 DWORD PTR c$[rsp], eax
  00820	8b 4c 24 20	 mov	 ecx, DWORD PTR d$[rsp]
  00824	8b 44 24 10	 mov	 eax, DWORD PTR b$[rsp]
  00828	33 c1		 xor	 eax, ecx
  0082a	89 44 24 10	 mov	 DWORD PTR b$[rsp], eax
  0082e	8b 4c 24 10	 mov	 ecx, DWORD PTR b$[rsp]
  00832	8b 44 24 30	 mov	 eax, DWORD PTR e$[rsp]
  00836	23 c1		 and	 eax, ecx
  00838	89 44 24 30	 mov	 DWORD PTR e$[rsp], eax
  0083c	8b 4c 24 10	 mov	 ecx, DWORD PTR b$[rsp]
  00840	8b 44 24 24	 mov	 eax, DWORD PTR c$[rsp]
  00844	33 c1		 xor	 eax, ecx
  00846	89 44 24 24	 mov	 DWORD PTR c$[rsp], eax
  0084a	8b 0c 24	 mov	 ecx, DWORD PTR a$[rsp]
  0084d	8b 44 24 30	 mov	 eax, DWORD PTR e$[rsp]
  00851	33 c1		 xor	 eax, ecx
  00853	89 44 24 30	 mov	 DWORD PTR e$[rsp], eax
  00857	8b 4c 24 24	 mov	 ecx, DWORD PTR c$[rsp]
  0085b	8b 44 24 30	 mov	 eax, DWORD PTR e$[rsp]
  0085f	0b c1		 or	 eax, ecx
  00861	89 44 24 30	 mov	 DWORD PTR e$[rsp], eax
  00865	8b 4c 24 10	 mov	 ecx, DWORD PTR b$[rsp]
  00869	8b 44 24 24	 mov	 eax, DWORD PTR c$[rsp]
  0086d	33 c1		 xor	 eax, ecx
  0086f	89 44 24 24	 mov	 DWORD PTR c$[rsp], eax
  00873	8b 4c 24 20	 mov	 ecx, DWORD PTR d$[rsp]
  00877	8b 44 24 30	 mov	 eax, DWORD PTR e$[rsp]
  0087b	33 c1		 xor	 eax, ecx
  0087d	89 44 24 30	 mov	 DWORD PTR e$[rsp], eax
  00881	48 8b 44 24 18	 mov	 rax, QWORD PTR k$[rsp]
  00886	8b 48 40	 mov	 ecx, DWORD PTR [rax+64]
  00889	8b 44 24 10	 mov	 eax, DWORD PTR b$[rsp]
  0088d	33 c1		 xor	 eax, ecx
  0088f	89 44 24 10	 mov	 DWORD PTR b$[rsp], eax
  00893	48 8b 44 24 18	 mov	 rax, QWORD PTR k$[rsp]
  00898	8b 48 44	 mov	 ecx, DWORD PTR [rax+68]
  0089b	8b 44 24 24	 mov	 eax, DWORD PTR c$[rsp]
  0089f	33 c1		 xor	 eax, ecx
  008a1	89 44 24 24	 mov	 DWORD PTR c$[rsp], eax
  008a5	48 8b 44 24 18	 mov	 rax, QWORD PTR k$[rsp]
  008aa	8b 48 48	 mov	 ecx, DWORD PTR [rax+72]
  008ad	8b 44 24 30	 mov	 eax, DWORD PTR e$[rsp]
  008b1	33 c1		 xor	 eax, ecx
  008b3	89 44 24 30	 mov	 DWORD PTR e$[rsp], eax
  008b7	48 8b 44 24 18	 mov	 rax, QWORD PTR k$[rsp]
  008bc	8b 48 4c	 mov	 ecx, DWORD PTR [rax+76]
  008bf	8b 04 24	 mov	 eax, DWORD PTR a$[rsp]
  008c2	33 c1		 xor	 eax, ecx
  008c4	89 04 24	 mov	 DWORD PTR a$[rsp], eax

; 874  : 		afterI4(ILT); afterI4(I3); afterI3(KX); 

  008c7	8b 44 24 30	 mov	 eax, DWORD PTR e$[rsp]
  008cb	c1 e8 16	 shr	 eax, 22
  008ce	8b 4c 24 30	 mov	 ecx, DWORD PTR e$[rsp]
  008d2	c1 e1 0a	 shl	 ecx, 10
  008d5	0b c1		 or	 eax, ecx
  008d7	89 44 24 30	 mov	 DWORD PTR e$[rsp], eax
  008db	8b 44 24 10	 mov	 eax, DWORD PTR b$[rsp]
  008df	c1 e8 05	 shr	 eax, 5
  008e2	8b 4c 24 10	 mov	 ecx, DWORD PTR b$[rsp]
  008e6	c1 e1 1b	 shl	 ecx, 27
  008e9	0b c1		 or	 eax, ecx
  008eb	89 44 24 10	 mov	 DWORD PTR b$[rsp], eax
  008ef	8b 44 24 24	 mov	 eax, DWORD PTR c$[rsp]
  008f3	c1 e0 07	 shl	 eax, 7
  008f6	8b 0c 24	 mov	 ecx, DWORD PTR a$[rsp]
  008f9	33 c8		 xor	 ecx, eax
  008fb	8b 44 24 30	 mov	 eax, DWORD PTR e$[rsp]
  008ff	33 c1		 xor	 eax, ecx
  00901	89 44 24 30	 mov	 DWORD PTR e$[rsp], eax
  00905	8b 04 24	 mov	 eax, DWORD PTR a$[rsp]
  00908	8b 4c 24 24	 mov	 ecx, DWORD PTR c$[rsp]
  0090c	33 c8		 xor	 ecx, eax
  0090e	8b 44 24 10	 mov	 eax, DWORD PTR b$[rsp]
  00912	33 c1		 xor	 eax, ecx
  00914	89 44 24 10	 mov	 DWORD PTR b$[rsp], eax
  00918	8b 44 24 24	 mov	 eax, DWORD PTR c$[rsp]
  0091c	d1 e8		 shr	 eax, 1
  0091e	8b 4c 24 24	 mov	 ecx, DWORD PTR c$[rsp]
  00922	c1 e1 1f	 shl	 ecx, 31
  00925	0b c1		 or	 eax, ecx
  00927	89 44 24 24	 mov	 DWORD PTR c$[rsp], eax
  0092b	8b 04 24	 mov	 eax, DWORD PTR a$[rsp]
  0092e	c1 e8 07	 shr	 eax, 7
  00931	8b 0c 24	 mov	 ecx, DWORD PTR a$[rsp]
  00934	c1 e1 19	 shl	 ecx, 25
  00937	0b c1		 or	 eax, ecx
  00939	33 44 24 30	 xor	 eax, DWORD PTR e$[rsp]
  0093d	8b 4c 24 10	 mov	 ecx, DWORD PTR b$[rsp]
  00941	c1 e1 03	 shl	 ecx, 3
  00944	33 c1		 xor	 eax, ecx
  00946	89 04 24	 mov	 DWORD PTR a$[rsp], eax
  00949	8b 44 24 30	 mov	 eax, DWORD PTR e$[rsp]
  0094d	8b 4c 24 10	 mov	 ecx, DWORD PTR b$[rsp]
  00951	33 c8		 xor	 ecx, eax
  00953	8b 44 24 24	 mov	 eax, DWORD PTR c$[rsp]
  00957	33 c1		 xor	 eax, ecx
  00959	89 44 24 24	 mov	 DWORD PTR c$[rsp], eax
  0095d	8b 44 24 30	 mov	 eax, DWORD PTR e$[rsp]
  00961	c1 e8 03	 shr	 eax, 3
  00964	8b 4c 24 30	 mov	 ecx, DWORD PTR e$[rsp]
  00968	c1 e1 1d	 shl	 ecx, 29
  0096b	0b c1		 or	 eax, ecx
  0096d	89 44 24 30	 mov	 DWORD PTR e$[rsp], eax
  00971	8b 44 24 10	 mov	 eax, DWORD PTR b$[rsp]
  00975	c1 e8 0d	 shr	 eax, 13
  00978	8b 4c 24 10	 mov	 ecx, DWORD PTR b$[rsp]
  0097c	c1 e1 13	 shl	 ecx, 19
  0097f	0b c1		 or	 eax, ecx
  00981	89 44 24 10	 mov	 DWORD PTR b$[rsp], eax
  00985	8b 44 24 30	 mov	 eax, DWORD PTR e$[rsp]
  00989	89 44 24 20	 mov	 DWORD PTR d$[rsp], eax
  0098d	8b 4c 24 24	 mov	 ecx, DWORD PTR c$[rsp]
  00991	8b 44 24 30	 mov	 eax, DWORD PTR e$[rsp]
  00995	33 c1		 xor	 eax, ecx
  00997	89 44 24 30	 mov	 DWORD PTR e$[rsp], eax
  0099b	8b 4c 24 30	 mov	 ecx, DWORD PTR e$[rsp]
  0099f	8b 44 24 24	 mov	 eax, DWORD PTR c$[rsp]
  009a3	23 c1		 and	 eax, ecx
  009a5	89 44 24 24	 mov	 DWORD PTR c$[rsp], eax
  009a9	8b 4c 24 10	 mov	 ecx, DWORD PTR b$[rsp]
  009ad	8b 44 24 24	 mov	 eax, DWORD PTR c$[rsp]
  009b1	33 c1		 xor	 eax, ecx
  009b3	89 44 24 24	 mov	 DWORD PTR c$[rsp], eax
  009b7	8b 4c 24 20	 mov	 ecx, DWORD PTR d$[rsp]
  009bb	8b 44 24 10	 mov	 eax, DWORD PTR b$[rsp]
  009bf	23 c1		 and	 eax, ecx
  009c1	89 44 24 10	 mov	 DWORD PTR b$[rsp], eax
  009c5	8b 0c 24	 mov	 ecx, DWORD PTR a$[rsp]
  009c8	8b 44 24 20	 mov	 eax, DWORD PTR d$[rsp]
  009cc	33 c1		 xor	 eax, ecx
  009ce	89 44 24 20	 mov	 DWORD PTR d$[rsp], eax
  009d2	8b 4c 24 24	 mov	 ecx, DWORD PTR c$[rsp]
  009d6	8b 04 24	 mov	 eax, DWORD PTR a$[rsp]
  009d9	0b c1		 or	 eax, ecx
  009db	89 04 24	 mov	 DWORD PTR a$[rsp], eax
  009de	8b 4c 24 30	 mov	 ecx, DWORD PTR e$[rsp]
  009e2	8b 04 24	 mov	 eax, DWORD PTR a$[rsp]
  009e5	33 c1		 xor	 eax, ecx
  009e7	89 04 24	 mov	 DWORD PTR a$[rsp], eax
  009ea	8b 4c 24 20	 mov	 ecx, DWORD PTR d$[rsp]
  009ee	8b 44 24 10	 mov	 eax, DWORD PTR b$[rsp]
  009f2	33 c1		 xor	 eax, ecx
  009f4	89 44 24 10	 mov	 DWORD PTR b$[rsp], eax
  009f8	8b 4c 24 10	 mov	 ecx, DWORD PTR b$[rsp]
  009fc	8b 44 24 30	 mov	 eax, DWORD PTR e$[rsp]
  00a00	33 c1		 xor	 eax, ecx
  00a02	89 44 24 30	 mov	 DWORD PTR e$[rsp], eax
  00a06	8b 0c 24	 mov	 ecx, DWORD PTR a$[rsp]
  00a09	8b 44 24 10	 mov	 eax, DWORD PTR b$[rsp]
  00a0d	0b c1		 or	 eax, ecx
  00a0f	89 44 24 10	 mov	 DWORD PTR b$[rsp], eax
  00a13	8b 4c 24 24	 mov	 ecx, DWORD PTR c$[rsp]
  00a17	8b 44 24 10	 mov	 eax, DWORD PTR b$[rsp]
  00a1b	33 c1		 xor	 eax, ecx
  00a1d	89 44 24 10	 mov	 DWORD PTR b$[rsp], eax
  00a21	8b 4c 24 30	 mov	 ecx, DWORD PTR e$[rsp]
  00a25	8b 44 24 20	 mov	 eax, DWORD PTR d$[rsp]
  00a29	33 c1		 xor	 eax, ecx
  00a2b	89 44 24 20	 mov	 DWORD PTR d$[rsp], eax
  00a2f	8b 0c 24	 mov	 ecx, DWORD PTR a$[rsp]
  00a32	8b 44 24 30	 mov	 eax, DWORD PTR e$[rsp]
  00a36	23 c1		 and	 eax, ecx
  00a38	89 44 24 30	 mov	 DWORD PTR e$[rsp], eax
  00a3c	8b 0c 24	 mov	 ecx, DWORD PTR a$[rsp]
  00a3f	8b 44 24 24	 mov	 eax, DWORD PTR c$[rsp]
  00a43	0b c1		 or	 eax, ecx
  00a45	89 44 24 24	 mov	 DWORD PTR c$[rsp], eax
  00a49	8b 4c 24 30	 mov	 ecx, DWORD PTR e$[rsp]
  00a4d	8b 44 24 24	 mov	 eax, DWORD PTR c$[rsp]
  00a51	33 c1		 xor	 eax, ecx
  00a53	89 44 24 24	 mov	 DWORD PTR c$[rsp], eax
  00a57	8b 4c 24 10	 mov	 ecx, DWORD PTR b$[rsp]
  00a5b	8b 44 24 20	 mov	 eax, DWORD PTR d$[rsp]
  00a5f	33 c1		 xor	 eax, ecx
  00a61	89 44 24 20	 mov	 DWORD PTR d$[rsp], eax
  00a65	8b 4c 24 20	 mov	 ecx, DWORD PTR d$[rsp]
  00a69	8b 44 24 30	 mov	 eax, DWORD PTR e$[rsp]
  00a6d	33 c1		 xor	 eax, ecx
  00a6f	89 44 24 30	 mov	 DWORD PTR e$[rsp], eax
  00a73	48 8b 44 24 18	 mov	 rax, QWORD PTR k$[rsp]
  00a78	8b 48 30	 mov	 ecx, DWORD PTR [rax+48]
  00a7b	8b 04 24	 mov	 eax, DWORD PTR a$[rsp]
  00a7e	33 c1		 xor	 eax, ecx
  00a80	89 04 24	 mov	 DWORD PTR a$[rsp], eax
  00a83	48 8b 44 24 18	 mov	 rax, QWORD PTR k$[rsp]
  00a88	8b 48 34	 mov	 ecx, DWORD PTR [rax+52]
  00a8b	8b 44 24 10	 mov	 eax, DWORD PTR b$[rsp]
  00a8f	33 c1		 xor	 eax, ecx
  00a91	89 44 24 10	 mov	 DWORD PTR b$[rsp], eax
  00a95	48 8b 44 24 18	 mov	 rax, QWORD PTR k$[rsp]
  00a9a	8b 48 38	 mov	 ecx, DWORD PTR [rax+56]
  00a9d	8b 44 24 30	 mov	 eax, DWORD PTR e$[rsp]
  00aa1	33 c1		 xor	 eax, ecx
  00aa3	89 44 24 30	 mov	 DWORD PTR e$[rsp], eax
  00aa7	48 8b 44 24 18	 mov	 rax, QWORD PTR k$[rsp]
  00aac	8b 48 3c	 mov	 ecx, DWORD PTR [rax+60]
  00aaf	8b 44 24 24	 mov	 eax, DWORD PTR c$[rsp]
  00ab3	33 c1		 xor	 eax, ecx
  00ab5	89 44 24 24	 mov	 DWORD PTR c$[rsp], eax

; 875  : 		afterI3(ILT); afterI3(I2); afterI2(KX); 

  00ab9	8b 44 24 30	 mov	 eax, DWORD PTR e$[rsp]
  00abd	c1 e8 16	 shr	 eax, 22
  00ac0	8b 4c 24 30	 mov	 ecx, DWORD PTR e$[rsp]
  00ac4	c1 e1 0a	 shl	 ecx, 10
  00ac7	0b c1		 or	 eax, ecx
  00ac9	89 44 24 30	 mov	 DWORD PTR e$[rsp], eax
  00acd	8b 04 24	 mov	 eax, DWORD PTR a$[rsp]
  00ad0	c1 e8 05	 shr	 eax, 5
  00ad3	8b 0c 24	 mov	 ecx, DWORD PTR a$[rsp]
  00ad6	c1 e1 1b	 shl	 ecx, 27
  00ad9	0b c1		 or	 eax, ecx
  00adb	89 04 24	 mov	 DWORD PTR a$[rsp], eax
  00ade	8b 44 24 10	 mov	 eax, DWORD PTR b$[rsp]
  00ae2	c1 e0 07	 shl	 eax, 7
  00ae5	8b 4c 24 24	 mov	 ecx, DWORD PTR c$[rsp]
  00ae9	33 c8		 xor	 ecx, eax
  00aeb	8b 44 24 30	 mov	 eax, DWORD PTR e$[rsp]
  00aef	33 c1		 xor	 eax, ecx
  00af1	89 44 24 30	 mov	 DWORD PTR e$[rsp], eax
  00af5	8b 44 24 24	 mov	 eax, DWORD PTR c$[rsp]
  00af9	8b 4c 24 10	 mov	 ecx, DWORD PTR b$[rsp]
  00afd	33 c8		 xor	 ecx, eax
  00aff	8b 04 24	 mov	 eax, DWORD PTR a$[rsp]
  00b02	33 c1		 xor	 eax, ecx
  00b04	89 04 24	 mov	 DWORD PTR a$[rsp], eax
  00b07	8b 44 24 10	 mov	 eax, DWORD PTR b$[rsp]
  00b0b	d1 e8		 shr	 eax, 1
  00b0d	8b 4c 24 10	 mov	 ecx, DWORD PTR b$[rsp]
  00b11	c1 e1 1f	 shl	 ecx, 31
  00b14	0b c1		 or	 eax, ecx
  00b16	89 44 24 10	 mov	 DWORD PTR b$[rsp], eax
  00b1a	8b 44 24 24	 mov	 eax, DWORD PTR c$[rsp]
  00b1e	c1 e8 07	 shr	 eax, 7
  00b21	8b 4c 24 24	 mov	 ecx, DWORD PTR c$[rsp]
  00b25	c1 e1 19	 shl	 ecx, 25
  00b28	0b c1		 or	 eax, ecx
  00b2a	33 44 24 30	 xor	 eax, DWORD PTR e$[rsp]
  00b2e	8b 0c 24	 mov	 ecx, DWORD PTR a$[rsp]
  00b31	c1 e1 03	 shl	 ecx, 3
  00b34	33 c1		 xor	 eax, ecx
  00b36	89 44 24 24	 mov	 DWORD PTR c$[rsp], eax
  00b3a	8b 44 24 30	 mov	 eax, DWORD PTR e$[rsp]
  00b3e	8b 0c 24	 mov	 ecx, DWORD PTR a$[rsp]
  00b41	33 c8		 xor	 ecx, eax
  00b43	8b 44 24 10	 mov	 eax, DWORD PTR b$[rsp]
  00b47	33 c1		 xor	 eax, ecx
  00b49	89 44 24 10	 mov	 DWORD PTR b$[rsp], eax
  00b4d	8b 44 24 30	 mov	 eax, DWORD PTR e$[rsp]
  00b51	c1 e8 03	 shr	 eax, 3
  00b54	8b 4c 24 30	 mov	 ecx, DWORD PTR e$[rsp]
  00b58	c1 e1 1d	 shl	 ecx, 29
  00b5b	0b c1		 or	 eax, ecx
  00b5d	89 44 24 30	 mov	 DWORD PTR e$[rsp], eax
  00b61	8b 04 24	 mov	 eax, DWORD PTR a$[rsp]
  00b64	c1 e8 0d	 shr	 eax, 13
  00b67	8b 0c 24	 mov	 ecx, DWORD PTR a$[rsp]
  00b6a	c1 e1 13	 shl	 ecx, 19
  00b6d	0b c1		 or	 eax, ecx
  00b6f	89 04 24	 mov	 DWORD PTR a$[rsp], eax
  00b72	8b 4c 24 24	 mov	 ecx, DWORD PTR c$[rsp]
  00b76	8b 44 24 30	 mov	 eax, DWORD PTR e$[rsp]
  00b7a	33 c1		 xor	 eax, ecx
  00b7c	89 44 24 30	 mov	 DWORD PTR e$[rsp], eax
  00b80	8b 0c 24	 mov	 ecx, DWORD PTR a$[rsp]
  00b83	8b 44 24 24	 mov	 eax, DWORD PTR c$[rsp]
  00b87	33 c1		 xor	 eax, ecx
  00b89	89 44 24 24	 mov	 DWORD PTR c$[rsp], eax
  00b8d	8b 44 24 24	 mov	 eax, DWORD PTR c$[rsp]
  00b91	89 44 24 20	 mov	 DWORD PTR d$[rsp], eax
  00b95	8b 4c 24 30	 mov	 ecx, DWORD PTR e$[rsp]
  00b99	8b 44 24 24	 mov	 eax, DWORD PTR c$[rsp]
  00b9d	23 c1		 and	 eax, ecx
  00b9f	89 44 24 24	 mov	 DWORD PTR c$[rsp], eax
  00ba3	8b 4c 24 10	 mov	 ecx, DWORD PTR b$[rsp]
  00ba7	8b 44 24 24	 mov	 eax, DWORD PTR c$[rsp]
  00bab	33 c1		 xor	 eax, ecx
  00bad	89 44 24 24	 mov	 DWORD PTR c$[rsp], eax
  00bb1	8b 4c 24 30	 mov	 ecx, DWORD PTR e$[rsp]
  00bb5	8b 44 24 10	 mov	 eax, DWORD PTR b$[rsp]
  00bb9	0b c1		 or	 eax, ecx
  00bbb	89 44 24 10	 mov	 DWORD PTR b$[rsp], eax
  00bbf	8b 4c 24 20	 mov	 ecx, DWORD PTR d$[rsp]
  00bc3	8b 44 24 10	 mov	 eax, DWORD PTR b$[rsp]
  00bc7	33 c1		 xor	 eax, ecx
  00bc9	89 44 24 10	 mov	 DWORD PTR b$[rsp], eax
  00bcd	8b 4c 24 24	 mov	 ecx, DWORD PTR c$[rsp]
  00bd1	8b 44 24 20	 mov	 eax, DWORD PTR d$[rsp]
  00bd5	23 c1		 and	 eax, ecx
  00bd7	89 44 24 20	 mov	 DWORD PTR d$[rsp], eax
  00bdb	8b 4c 24 24	 mov	 ecx, DWORD PTR c$[rsp]
  00bdf	8b 44 24 30	 mov	 eax, DWORD PTR e$[rsp]
  00be3	33 c1		 xor	 eax, ecx
  00be5	89 44 24 30	 mov	 DWORD PTR e$[rsp], eax
  00be9	8b 0c 24	 mov	 ecx, DWORD PTR a$[rsp]
  00bec	8b 44 24 20	 mov	 eax, DWORD PTR d$[rsp]
  00bf0	23 c1		 and	 eax, ecx
  00bf2	89 44 24 20	 mov	 DWORD PTR d$[rsp], eax
  00bf6	8b 4c 24 30	 mov	 ecx, DWORD PTR e$[rsp]
  00bfa	8b 44 24 20	 mov	 eax, DWORD PTR d$[rsp]
  00bfe	33 c1		 xor	 eax, ecx
  00c00	89 44 24 20	 mov	 DWORD PTR d$[rsp], eax
  00c04	8b 4c 24 10	 mov	 ecx, DWORD PTR b$[rsp]
  00c08	8b 44 24 30	 mov	 eax, DWORD PTR e$[rsp]
  00c0c	23 c1		 and	 eax, ecx
  00c0e	89 44 24 30	 mov	 DWORD PTR e$[rsp], eax
  00c12	8b 0c 24	 mov	 ecx, DWORD PTR a$[rsp]
  00c15	8b 44 24 30	 mov	 eax, DWORD PTR e$[rsp]
  00c19	0b c1		 or	 eax, ecx
  00c1b	89 44 24 30	 mov	 DWORD PTR e$[rsp], eax
  00c1f	8b 44 24 24	 mov	 eax, DWORD PTR c$[rsp]
  00c23	f7 d0		 not	 eax
  00c25	89 44 24 24	 mov	 DWORD PTR c$[rsp], eax
  00c29	8b 4c 24 24	 mov	 ecx, DWORD PTR c$[rsp]
  00c2d	8b 44 24 30	 mov	 eax, DWORD PTR e$[rsp]
  00c31	33 c1		 xor	 eax, ecx
  00c33	89 44 24 30	 mov	 DWORD PTR e$[rsp], eax
  00c37	8b 4c 24 24	 mov	 ecx, DWORD PTR c$[rsp]
  00c3b	8b 04 24	 mov	 eax, DWORD PTR a$[rsp]
  00c3e	33 c1		 xor	 eax, ecx
  00c40	89 04 24	 mov	 DWORD PTR a$[rsp], eax
  00c43	8b 4c 24 10	 mov	 ecx, DWORD PTR b$[rsp]
  00c47	8b 04 24	 mov	 eax, DWORD PTR a$[rsp]
  00c4a	23 c1		 and	 eax, ecx
  00c4c	89 04 24	 mov	 DWORD PTR a$[rsp], eax
  00c4f	8b 4c 24 20	 mov	 ecx, DWORD PTR d$[rsp]
  00c53	8b 44 24 24	 mov	 eax, DWORD PTR c$[rsp]
  00c57	33 c1		 xor	 eax, ecx
  00c59	89 44 24 24	 mov	 DWORD PTR c$[rsp], eax
  00c5d	8b 0c 24	 mov	 ecx, DWORD PTR a$[rsp]
  00c60	8b 44 24 24	 mov	 eax, DWORD PTR c$[rsp]
  00c64	33 c1		 xor	 eax, ecx
  00c66	89 44 24 24	 mov	 DWORD PTR c$[rsp], eax
  00c6a	48 8b 44 24 18	 mov	 rax, QWORD PTR k$[rsp]
  00c6f	8b 48 20	 mov	 ecx, DWORD PTR [rax+32]
  00c72	8b 44 24 10	 mov	 eax, DWORD PTR b$[rsp]
  00c76	33 c1		 xor	 eax, ecx
  00c78	89 44 24 10	 mov	 DWORD PTR b$[rsp], eax
  00c7c	48 8b 44 24 18	 mov	 rax, QWORD PTR k$[rsp]
  00c81	8b 48 24	 mov	 ecx, DWORD PTR [rax+36]
  00c84	8b 44 24 20	 mov	 eax, DWORD PTR d$[rsp]
  00c88	33 c1		 xor	 eax, ecx
  00c8a	89 44 24 20	 mov	 DWORD PTR d$[rsp], eax
  00c8e	48 8b 44 24 18	 mov	 rax, QWORD PTR k$[rsp]
  00c93	8b 48 28	 mov	 ecx, DWORD PTR [rax+40]
  00c96	8b 44 24 30	 mov	 eax, DWORD PTR e$[rsp]
  00c9a	33 c1		 xor	 eax, ecx
  00c9c	89 44 24 30	 mov	 DWORD PTR e$[rsp], eax
  00ca0	48 8b 44 24 18	 mov	 rax, QWORD PTR k$[rsp]
  00ca5	8b 48 2c	 mov	 ecx, DWORD PTR [rax+44]
  00ca8	8b 44 24 24	 mov	 eax, DWORD PTR c$[rsp]
  00cac	33 c1		 xor	 eax, ecx
  00cae	89 44 24 24	 mov	 DWORD PTR c$[rsp], eax

; 876  : 		afterI2(ILT); afterI2(I1); afterI1(KX); 

  00cb2	8b 44 24 30	 mov	 eax, DWORD PTR e$[rsp]
  00cb6	c1 e8 16	 shr	 eax, 22
  00cb9	8b 4c 24 30	 mov	 ecx, DWORD PTR e$[rsp]
  00cbd	c1 e1 0a	 shl	 ecx, 10
  00cc0	0b c1		 or	 eax, ecx
  00cc2	89 44 24 30	 mov	 DWORD PTR e$[rsp], eax
  00cc6	8b 44 24 10	 mov	 eax, DWORD PTR b$[rsp]
  00cca	c1 e8 05	 shr	 eax, 5
  00ccd	8b 4c 24 10	 mov	 ecx, DWORD PTR b$[rsp]
  00cd1	c1 e1 1b	 shl	 ecx, 27
  00cd4	0b c1		 or	 eax, ecx
  00cd6	89 44 24 10	 mov	 DWORD PTR b$[rsp], eax
  00cda	8b 44 24 20	 mov	 eax, DWORD PTR d$[rsp]
  00cde	c1 e0 07	 shl	 eax, 7
  00ce1	8b 4c 24 24	 mov	 ecx, DWORD PTR c$[rsp]
  00ce5	33 c8		 xor	 ecx, eax
  00ce7	8b 44 24 30	 mov	 eax, DWORD PTR e$[rsp]
  00ceb	33 c1		 xor	 eax, ecx
  00ced	89 44 24 30	 mov	 DWORD PTR e$[rsp], eax
  00cf1	8b 44 24 24	 mov	 eax, DWORD PTR c$[rsp]
  00cf5	8b 4c 24 20	 mov	 ecx, DWORD PTR d$[rsp]
  00cf9	33 c8		 xor	 ecx, eax
  00cfb	8b 44 24 10	 mov	 eax, DWORD PTR b$[rsp]
  00cff	33 c1		 xor	 eax, ecx
  00d01	89 44 24 10	 mov	 DWORD PTR b$[rsp], eax
  00d05	8b 44 24 20	 mov	 eax, DWORD PTR d$[rsp]
  00d09	d1 e8		 shr	 eax, 1
  00d0b	8b 4c 24 20	 mov	 ecx, DWORD PTR d$[rsp]
  00d0f	c1 e1 1f	 shl	 ecx, 31
  00d12	0b c1		 or	 eax, ecx
  00d14	89 44 24 20	 mov	 DWORD PTR d$[rsp], eax
  00d18	8b 44 24 24	 mov	 eax, DWORD PTR c$[rsp]
  00d1c	c1 e8 07	 shr	 eax, 7
  00d1f	8b 4c 24 24	 mov	 ecx, DWORD PTR c$[rsp]
  00d23	c1 e1 19	 shl	 ecx, 25
  00d26	0b c1		 or	 eax, ecx
  00d28	33 44 24 30	 xor	 eax, DWORD PTR e$[rsp]
  00d2c	8b 4c 24 10	 mov	 ecx, DWORD PTR b$[rsp]
  00d30	c1 e1 03	 shl	 ecx, 3
  00d33	33 c1		 xor	 eax, ecx
  00d35	89 44 24 24	 mov	 DWORD PTR c$[rsp], eax
  00d39	8b 44 24 30	 mov	 eax, DWORD PTR e$[rsp]
  00d3d	8b 4c 24 10	 mov	 ecx, DWORD PTR b$[rsp]
  00d41	33 c8		 xor	 ecx, eax
  00d43	8b 44 24 20	 mov	 eax, DWORD PTR d$[rsp]
  00d47	33 c1		 xor	 eax, ecx
  00d49	89 44 24 20	 mov	 DWORD PTR d$[rsp], eax
  00d4d	8b 44 24 30	 mov	 eax, DWORD PTR e$[rsp]
  00d51	c1 e8 03	 shr	 eax, 3
  00d54	8b 4c 24 30	 mov	 ecx, DWORD PTR e$[rsp]
  00d58	c1 e1 1d	 shl	 ecx, 29
  00d5b	0b c1		 or	 eax, ecx
  00d5d	89 44 24 30	 mov	 DWORD PTR e$[rsp], eax
  00d61	8b 44 24 10	 mov	 eax, DWORD PTR b$[rsp]
  00d65	c1 e8 0d	 shr	 eax, 13
  00d68	8b 4c 24 10	 mov	 ecx, DWORD PTR b$[rsp]
  00d6c	c1 e1 13	 shl	 ecx, 19
  00d6f	0b c1		 or	 eax, ecx
  00d71	89 44 24 10	 mov	 DWORD PTR b$[rsp], eax
  00d75	8b 44 24 20	 mov	 eax, DWORD PTR d$[rsp]
  00d79	89 04 24	 mov	 DWORD PTR a$[rsp], eax
  00d7c	8b 4c 24 24	 mov	 ecx, DWORD PTR c$[rsp]
  00d80	8b 44 24 20	 mov	 eax, DWORD PTR d$[rsp]
  00d84	33 c1		 xor	 eax, ecx
  00d86	89 44 24 20	 mov	 DWORD PTR d$[rsp], eax
  00d8a	8b 4c 24 20	 mov	 ecx, DWORD PTR d$[rsp]
  00d8e	8b 44 24 24	 mov	 eax, DWORD PTR c$[rsp]
  00d92	23 c1		 and	 eax, ecx
  00d94	89 44 24 24	 mov	 DWORD PTR c$[rsp], eax
  00d98	8b 4c 24 30	 mov	 ecx, DWORD PTR e$[rsp]
  00d9c	8b 04 24	 mov	 eax, DWORD PTR a$[rsp]
  00d9f	33 c1		 xor	 eax, ecx
  00da1	89 04 24	 mov	 DWORD PTR a$[rsp], eax
  00da4	8b 4c 24 10	 mov	 ecx, DWORD PTR b$[rsp]
  00da8	8b 44 24 24	 mov	 eax, DWORD PTR c$[rsp]
  00dac	33 c1		 xor	 eax, ecx
  00dae	89 44 24 24	 mov	 DWORD PTR c$[rsp], eax
  00db2	8b 4c 24 20	 mov	 ecx, DWORD PTR d$[rsp]
  00db6	8b 44 24 10	 mov	 eax, DWORD PTR b$[rsp]
  00dba	0b c1		 or	 eax, ecx
  00dbc	89 44 24 10	 mov	 DWORD PTR b$[rsp], eax
  00dc0	8b 4c 24 24	 mov	 ecx, DWORD PTR c$[rsp]
  00dc4	8b 44 24 30	 mov	 eax, DWORD PTR e$[rsp]
  00dc8	33 c1		 xor	 eax, ecx
  00dca	89 44 24 30	 mov	 DWORD PTR e$[rsp], eax
  00dce	8b 0c 24	 mov	 ecx, DWORD PTR a$[rsp]
  00dd1	8b 44 24 10	 mov	 eax, DWORD PTR b$[rsp]
  00dd5	33 c1		 xor	 eax, ecx
  00dd7	89 44 24 10	 mov	 DWORD PTR b$[rsp], eax
  00ddb	8b 4c 24 30	 mov	 ecx, DWORD PTR e$[rsp]
  00ddf	8b 44 24 10	 mov	 eax, DWORD PTR b$[rsp]
  00de3	0b c1		 or	 eax, ecx
  00de5	89 44 24 10	 mov	 DWORD PTR b$[rsp], eax
  00de9	8b 4c 24 24	 mov	 ecx, DWORD PTR c$[rsp]
  00ded	8b 44 24 20	 mov	 eax, DWORD PTR d$[rsp]
  00df1	33 c1		 xor	 eax, ecx
  00df3	89 44 24 20	 mov	 DWORD PTR d$[rsp], eax
  00df7	8b 4c 24 20	 mov	 ecx, DWORD PTR d$[rsp]
  00dfb	8b 44 24 10	 mov	 eax, DWORD PTR b$[rsp]
  00dff	33 c1		 xor	 eax, ecx
  00e01	89 44 24 10	 mov	 DWORD PTR b$[rsp], eax
  00e05	8b 4c 24 24	 mov	 ecx, DWORD PTR c$[rsp]
  00e09	8b 44 24 20	 mov	 eax, DWORD PTR d$[rsp]
  00e0d	0b c1		 or	 eax, ecx
  00e0f	89 44 24 20	 mov	 DWORD PTR d$[rsp], eax
  00e13	8b 4c 24 10	 mov	 ecx, DWORD PTR b$[rsp]
  00e17	8b 44 24 20	 mov	 eax, DWORD PTR d$[rsp]
  00e1b	33 c1		 xor	 eax, ecx
  00e1d	89 44 24 20	 mov	 DWORD PTR d$[rsp], eax
  00e21	8b 04 24	 mov	 eax, DWORD PTR a$[rsp]
  00e24	f7 d0		 not	 eax
  00e26	89 04 24	 mov	 DWORD PTR a$[rsp], eax
  00e29	8b 4c 24 20	 mov	 ecx, DWORD PTR d$[rsp]
  00e2d	8b 04 24	 mov	 eax, DWORD PTR a$[rsp]
  00e30	33 c1		 xor	 eax, ecx
  00e32	89 04 24	 mov	 DWORD PTR a$[rsp], eax
  00e35	8b 4c 24 10	 mov	 ecx, DWORD PTR b$[rsp]
  00e39	8b 44 24 20	 mov	 eax, DWORD PTR d$[rsp]
  00e3d	0b c1		 or	 eax, ecx
  00e3f	89 44 24 20	 mov	 DWORD PTR d$[rsp], eax
  00e43	8b 4c 24 10	 mov	 ecx, DWORD PTR b$[rsp]
  00e47	8b 44 24 20	 mov	 eax, DWORD PTR d$[rsp]
  00e4b	33 c1		 xor	 eax, ecx
  00e4d	89 44 24 20	 mov	 DWORD PTR d$[rsp], eax
  00e51	8b 0c 24	 mov	 ecx, DWORD PTR a$[rsp]
  00e54	8b 44 24 20	 mov	 eax, DWORD PTR d$[rsp]
  00e58	0b c1		 or	 eax, ecx
  00e5a	89 44 24 20	 mov	 DWORD PTR d$[rsp], eax
  00e5e	8b 4c 24 20	 mov	 ecx, DWORD PTR d$[rsp]
  00e62	8b 44 24 24	 mov	 eax, DWORD PTR c$[rsp]
  00e66	33 c1		 xor	 eax, ecx
  00e68	89 44 24 24	 mov	 DWORD PTR c$[rsp], eax
  00e6c	48 8b 44 24 18	 mov	 rax, QWORD PTR k$[rsp]
  00e71	8b 48 10	 mov	 ecx, DWORD PTR [rax+16]
  00e74	8b 04 24	 mov	 eax, DWORD PTR a$[rsp]
  00e77	33 c1		 xor	 eax, ecx
  00e79	89 04 24	 mov	 DWORD PTR a$[rsp], eax
  00e7c	48 8b 44 24 18	 mov	 rax, QWORD PTR k$[rsp]
  00e81	8b 48 14	 mov	 ecx, DWORD PTR [rax+20]
  00e84	8b 44 24 10	 mov	 eax, DWORD PTR b$[rsp]
  00e88	33 c1		 xor	 eax, ecx
  00e8a	89 44 24 10	 mov	 DWORD PTR b$[rsp], eax
  00e8e	48 8b 44 24 18	 mov	 rax, QWORD PTR k$[rsp]
  00e93	8b 48 18	 mov	 ecx, DWORD PTR [rax+24]
  00e96	8b 44 24 24	 mov	 eax, DWORD PTR c$[rsp]
  00e9a	33 c1		 xor	 eax, ecx
  00e9c	89 44 24 24	 mov	 DWORD PTR c$[rsp], eax
  00ea0	48 8b 44 24 18	 mov	 rax, QWORD PTR k$[rsp]
  00ea5	8b 48 1c	 mov	 ecx, DWORD PTR [rax+28]
  00ea8	8b 44 24 30	 mov	 eax, DWORD PTR e$[rsp]
  00eac	33 c1		 xor	 eax, ecx
  00eae	89 44 24 30	 mov	 DWORD PTR e$[rsp], eax

; 877  : 		afterI1(ILT); afterI1(I0); afterI0(KX);

  00eb2	8b 44 24 24	 mov	 eax, DWORD PTR c$[rsp]
  00eb6	c1 e8 16	 shr	 eax, 22
  00eb9	8b 4c 24 24	 mov	 ecx, DWORD PTR c$[rsp]
  00ebd	c1 e1 0a	 shl	 ecx, 10
  00ec0	0b c1		 or	 eax, ecx
  00ec2	89 44 24 24	 mov	 DWORD PTR c$[rsp], eax
  00ec6	8b 04 24	 mov	 eax, DWORD PTR a$[rsp]
  00ec9	c1 e8 05	 shr	 eax, 5
  00ecc	8b 0c 24	 mov	 ecx, DWORD PTR a$[rsp]
  00ecf	c1 e1 1b	 shl	 ecx, 27
  00ed2	0b c1		 or	 eax, ecx
  00ed4	89 04 24	 mov	 DWORD PTR a$[rsp], eax
  00ed7	8b 44 24 10	 mov	 eax, DWORD PTR b$[rsp]
  00edb	c1 e0 07	 shl	 eax, 7
  00ede	8b 4c 24 30	 mov	 ecx, DWORD PTR e$[rsp]
  00ee2	33 c8		 xor	 ecx, eax
  00ee4	8b 44 24 24	 mov	 eax, DWORD PTR c$[rsp]
  00ee8	33 c1		 xor	 eax, ecx
  00eea	89 44 24 24	 mov	 DWORD PTR c$[rsp], eax
  00eee	8b 44 24 30	 mov	 eax, DWORD PTR e$[rsp]
  00ef2	8b 4c 24 10	 mov	 ecx, DWORD PTR b$[rsp]
  00ef6	33 c8		 xor	 ecx, eax
  00ef8	8b 04 24	 mov	 eax, DWORD PTR a$[rsp]
  00efb	33 c1		 xor	 eax, ecx
  00efd	89 04 24	 mov	 DWORD PTR a$[rsp], eax
  00f00	8b 44 24 10	 mov	 eax, DWORD PTR b$[rsp]
  00f04	d1 e8		 shr	 eax, 1
  00f06	8b 4c 24 10	 mov	 ecx, DWORD PTR b$[rsp]
  00f0a	c1 e1 1f	 shl	 ecx, 31
  00f0d	0b c1		 or	 eax, ecx
  00f0f	89 44 24 10	 mov	 DWORD PTR b$[rsp], eax
  00f13	8b 44 24 30	 mov	 eax, DWORD PTR e$[rsp]
  00f17	c1 e8 07	 shr	 eax, 7
  00f1a	8b 4c 24 30	 mov	 ecx, DWORD PTR e$[rsp]
  00f1e	c1 e1 19	 shl	 ecx, 25
  00f21	0b c1		 or	 eax, ecx
  00f23	33 44 24 24	 xor	 eax, DWORD PTR c$[rsp]
  00f27	8b 0c 24	 mov	 ecx, DWORD PTR a$[rsp]
  00f2a	c1 e1 03	 shl	 ecx, 3
  00f2d	33 c1		 xor	 eax, ecx
  00f2f	89 44 24 30	 mov	 DWORD PTR e$[rsp], eax
  00f33	8b 44 24 24	 mov	 eax, DWORD PTR c$[rsp]
  00f37	8b 0c 24	 mov	 ecx, DWORD PTR a$[rsp]
  00f3a	33 c8		 xor	 ecx, eax
  00f3c	8b 44 24 10	 mov	 eax, DWORD PTR b$[rsp]
  00f40	33 c1		 xor	 eax, ecx
  00f42	89 44 24 10	 mov	 DWORD PTR b$[rsp], eax
  00f46	8b 44 24 24	 mov	 eax, DWORD PTR c$[rsp]
  00f4a	c1 e8 03	 shr	 eax, 3
  00f4d	8b 4c 24 24	 mov	 ecx, DWORD PTR c$[rsp]
  00f51	c1 e1 1d	 shl	 ecx, 29
  00f54	0b c1		 or	 eax, ecx
  00f56	89 44 24 24	 mov	 DWORD PTR c$[rsp], eax
  00f5a	8b 04 24	 mov	 eax, DWORD PTR a$[rsp]
  00f5d	c1 e8 0d	 shr	 eax, 13
  00f60	8b 0c 24	 mov	 ecx, DWORD PTR a$[rsp]
  00f63	c1 e1 13	 shl	 ecx, 19
  00f66	0b c1		 or	 eax, ecx
  00f68	89 04 24	 mov	 DWORD PTR a$[rsp], eax
  00f6b	8b 44 24 24	 mov	 eax, DWORD PTR c$[rsp]
  00f6f	f7 d0		 not	 eax
  00f71	89 44 24 24	 mov	 DWORD PTR c$[rsp], eax
  00f75	8b 44 24 10	 mov	 eax, DWORD PTR b$[rsp]
  00f79	89 44 24 20	 mov	 DWORD PTR d$[rsp], eax
  00f7d	8b 0c 24	 mov	 ecx, DWORD PTR a$[rsp]
  00f80	8b 44 24 10	 mov	 eax, DWORD PTR b$[rsp]
  00f84	0b c1		 or	 eax, ecx
  00f86	89 44 24 10	 mov	 DWORD PTR b$[rsp], eax
  00f8a	8b 44 24 20	 mov	 eax, DWORD PTR d$[rsp]
  00f8e	f7 d0		 not	 eax
  00f90	89 44 24 20	 mov	 DWORD PTR d$[rsp], eax
  00f94	8b 4c 24 24	 mov	 ecx, DWORD PTR c$[rsp]
  00f98	8b 44 24 10	 mov	 eax, DWORD PTR b$[rsp]
  00f9c	33 c1		 xor	 eax, ecx
  00f9e	89 44 24 10	 mov	 DWORD PTR b$[rsp], eax
  00fa2	8b 4c 24 20	 mov	 ecx, DWORD PTR d$[rsp]
  00fa6	8b 44 24 24	 mov	 eax, DWORD PTR c$[rsp]
  00faa	0b c1		 or	 eax, ecx
  00fac	89 44 24 24	 mov	 DWORD PTR c$[rsp], eax
  00fb0	8b 4c 24 30	 mov	 ecx, DWORD PTR e$[rsp]
  00fb4	8b 44 24 10	 mov	 eax, DWORD PTR b$[rsp]
  00fb8	33 c1		 xor	 eax, ecx
  00fba	89 44 24 10	 mov	 DWORD PTR b$[rsp], eax
  00fbe	8b 4c 24 20	 mov	 ecx, DWORD PTR d$[rsp]
  00fc2	8b 04 24	 mov	 eax, DWORD PTR a$[rsp]
  00fc5	33 c1		 xor	 eax, ecx
  00fc7	89 04 24	 mov	 DWORD PTR a$[rsp], eax
  00fca	8b 0c 24	 mov	 ecx, DWORD PTR a$[rsp]
  00fcd	8b 44 24 24	 mov	 eax, DWORD PTR c$[rsp]
  00fd1	33 c1		 xor	 eax, ecx
  00fd3	89 44 24 24	 mov	 DWORD PTR c$[rsp], eax
  00fd7	8b 4c 24 30	 mov	 ecx, DWORD PTR e$[rsp]
  00fdb	8b 04 24	 mov	 eax, DWORD PTR a$[rsp]
  00fde	23 c1		 and	 eax, ecx
  00fe0	89 04 24	 mov	 DWORD PTR a$[rsp], eax
  00fe3	8b 0c 24	 mov	 ecx, DWORD PTR a$[rsp]
  00fe6	8b 44 24 20	 mov	 eax, DWORD PTR d$[rsp]
  00fea	33 c1		 xor	 eax, ecx
  00fec	89 44 24 20	 mov	 DWORD PTR d$[rsp], eax
  00ff0	8b 4c 24 10	 mov	 ecx, DWORD PTR b$[rsp]
  00ff4	8b 04 24	 mov	 eax, DWORD PTR a$[rsp]
  00ff7	0b c1		 or	 eax, ecx
  00ff9	89 04 24	 mov	 DWORD PTR a$[rsp], eax
  00ffc	8b 4c 24 24	 mov	 ecx, DWORD PTR c$[rsp]
  01000	8b 04 24	 mov	 eax, DWORD PTR a$[rsp]
  01003	33 c1		 xor	 eax, ecx
  01005	89 04 24	 mov	 DWORD PTR a$[rsp], eax
  01008	8b 4c 24 20	 mov	 ecx, DWORD PTR d$[rsp]
  0100c	8b 44 24 30	 mov	 eax, DWORD PTR e$[rsp]
  01010	33 c1		 xor	 eax, ecx
  01012	89 44 24 30	 mov	 DWORD PTR e$[rsp], eax
  01016	8b 4c 24 10	 mov	 ecx, DWORD PTR b$[rsp]
  0101a	8b 44 24 24	 mov	 eax, DWORD PTR c$[rsp]
  0101e	33 c1		 xor	 eax, ecx
  01020	89 44 24 24	 mov	 DWORD PTR c$[rsp], eax
  01024	8b 0c 24	 mov	 ecx, DWORD PTR a$[rsp]
  01027	8b 44 24 30	 mov	 eax, DWORD PTR e$[rsp]
  0102b	33 c1		 xor	 eax, ecx
  0102d	89 44 24 30	 mov	 DWORD PTR e$[rsp], eax
  01031	8b 4c 24 10	 mov	 ecx, DWORD PTR b$[rsp]
  01035	8b 44 24 30	 mov	 eax, DWORD PTR e$[rsp]
  01039	33 c1		 xor	 eax, ecx
  0103b	89 44 24 30	 mov	 DWORD PTR e$[rsp], eax
  0103f	8b 4c 24 30	 mov	 ecx, DWORD PTR e$[rsp]
  01043	8b 44 24 24	 mov	 eax, DWORD PTR c$[rsp]
  01047	23 c1		 and	 eax, ecx
  01049	89 44 24 24	 mov	 DWORD PTR c$[rsp], eax
  0104d	8b 4c 24 24	 mov	 ecx, DWORD PTR c$[rsp]
  01051	8b 44 24 20	 mov	 eax, DWORD PTR d$[rsp]
  01055	33 c1		 xor	 eax, ecx
  01057	89 44 24 20	 mov	 DWORD PTR d$[rsp], eax
  0105b	48 8b 44 24 18	 mov	 rax, QWORD PTR k$[rsp]
  01060	8b 08		 mov	 ecx, DWORD PTR [rax]
  01062	8b 04 24	 mov	 eax, DWORD PTR a$[rsp]
  01065	33 c1		 xor	 eax, ecx
  01067	89 04 24	 mov	 DWORD PTR a$[rsp], eax
  0106a	48 8b 44 24 18	 mov	 rax, QWORD PTR k$[rsp]
  0106f	8b 48 04	 mov	 ecx, DWORD PTR [rax+4]
  01072	8b 44 24 20	 mov	 eax, DWORD PTR d$[rsp]
  01076	33 c1		 xor	 eax, ecx
  01078	89 44 24 20	 mov	 DWORD PTR d$[rsp], eax
  0107c	48 8b 44 24 18	 mov	 rax, QWORD PTR k$[rsp]
  01081	8b 48 08	 mov	 ecx, DWORD PTR [rax+8]
  01084	8b 44 24 10	 mov	 eax, DWORD PTR b$[rsp]
  01088	33 c1		 xor	 eax, ecx
  0108a	89 44 24 10	 mov	 DWORD PTR b$[rsp], eax
  0108e	48 8b 44 24 18	 mov	 rax, QWORD PTR k$[rsp]
  01093	8b 48 0c	 mov	 ecx, DWORD PTR [rax+12]
  01096	8b 44 24 30	 mov	 eax, DWORD PTR e$[rsp]
  0109a	33 c1		 xor	 eax, ecx
  0109c	89 44 24 30	 mov	 DWORD PTR e$[rsp], eax

; 878  : 	}
; 879  : 	while (--i != 0);

  010a0	8b 44 24 04	 mov	 eax, DWORD PTR i$[rsp]
  010a4	83 e8 01	 sub	 eax, 1
  010a7	89 44 24 04	 mov	 DWORD PTR i$[rsp], eax
  010ab	83 7c 24 04 00	 cmp	 DWORD PTR i$[rsp], 0
  010b0	0f 85 0e f0 ff
	ff		 jne	 $LN3@serpent_de

; 880  : 	
; 881  :     out[0] = LE32(a);

  010b6	48 8b 4c 24 28	 mov	 rcx, QWORD PTR out$[rsp]
  010bb	8b 04 24	 mov	 eax, DWORD PTR a$[rsp]
  010be	89 01		 mov	 DWORD PTR [rcx], eax

; 882  : 	out[1] = LE32(d);

  010c0	48 8b 4c 24 28	 mov	 rcx, QWORD PTR out$[rsp]
  010c5	8b 44 24 20	 mov	 eax, DWORD PTR d$[rsp]
  010c9	89 41 04	 mov	 DWORD PTR [rcx+4], eax

; 883  : 	out[2] = LE32(b);

  010cc	48 8b 4c 24 28	 mov	 rcx, QWORD PTR out$[rsp]
  010d1	8b 44 24 10	 mov	 eax, DWORD PTR b$[rsp]
  010d5	89 41 08	 mov	 DWORD PTR [rcx+8], eax

; 884  : 	out[3] = LE32(e);

  010d8	48 8b 4c 24 28	 mov	 rcx, QWORD PTR out$[rsp]
  010dd	8b 44 24 30	 mov	 eax, DWORD PTR e$[rsp]
  010e1	89 41 0c	 mov	 DWORD PTR [rcx+12], eax

; 885  : }

  010e4	48 83 c4 48	 add	 rsp, 72			; 00000048H
  010e8	c3		 ret	 0
serpent_decrypt ENDP
_TEXT	ENDS
PUBLIC	serpent_encrypt
;	COMDAT pdata
pdata	SEGMENT
$pdata$serpent_encrypt DD imagerel $LN7
	DD	imagerel $LN7+4540
	DD	imagerel $unwind$serpent_encrypt
pdata	ENDS
;	COMDAT xdata
xdata	SEGMENT
$unwind$serpent_encrypt DD 011301H
	DD	08213H
; Function compile flags: /Odtp
xdata	ENDS
;	COMDAT serpent_encrypt
_TEXT	SEGMENT
a$ = 0
i$ = 4
in$ = 8
b$ = 16
k$ = 24
d$ = 32
c$ = 36
out$ = 40
e$ = 48
inBlock$ = 80
outBlock$ = 88
ks$ = 96
serpent_encrypt PROC					; COMDAT

; 737  : {

$LN7:
  00000	4c 89 44 24 18	 mov	 QWORD PTR [rsp+24], r8
  00005	48 89 54 24 10	 mov	 QWORD PTR [rsp+16], rdx
  0000a	48 89 4c 24 08	 mov	 QWORD PTR [rsp+8], rcx
  0000f	48 83 ec 48	 sub	 rsp, 72			; 00000048H

; 738  : 	unsigned __int32 a, b, c, d, e;
; 739  : 	unsigned int i=1;

  00013	c7 44 24 04 01
	00 00 00	 mov	 DWORD PTR i$[rsp], 1

; 740  : 	const unsigned __int32 *k = (unsigned __int32 *)ks + 8;

  0001b	48 8b 44 24 60	 mov	 rax, QWORD PTR ks$[rsp]
  00020	48 83 c0 20	 add	 rax, 32			; 00000020H
  00024	48 89 44 24 18	 mov	 QWORD PTR k$[rsp], rax

; 741  : 	unsigned __int32 *in = (unsigned __int32 *) inBlock;

  00029	48 8b 44 24 50	 mov	 rax, QWORD PTR inBlock$[rsp]
  0002e	48 89 44 24 08	 mov	 QWORD PTR in$[rsp], rax

; 742  : 	unsigned __int32 *out = (unsigned __int32 *) outBlock;

  00033	48 8b 44 24 58	 mov	 rax, QWORD PTR outBlock$[rsp]
  00038	48 89 44 24 28	 mov	 QWORD PTR out$[rsp], rax

; 743  : 
; 744  :     a = LE32(in[0]);

  0003d	48 8b 44 24 08	 mov	 rax, QWORD PTR in$[rsp]
  00042	8b 00		 mov	 eax, DWORD PTR [rax]
  00044	89 04 24	 mov	 DWORD PTR a$[rsp], eax

; 745  : 	b = LE32(in[1]);

  00047	48 8b 44 24 08	 mov	 rax, QWORD PTR in$[rsp]
  0004c	8b 40 04	 mov	 eax, DWORD PTR [rax+4]
  0004f	89 44 24 10	 mov	 DWORD PTR b$[rsp], eax

; 746  : 	c = LE32(in[2]);

  00053	48 8b 44 24 08	 mov	 rax, QWORD PTR in$[rsp]
  00058	8b 40 08	 mov	 eax, DWORD PTR [rax+8]
  0005b	89 44 24 24	 mov	 DWORD PTR c$[rsp], eax

; 747  : 	d = LE32(in[3]);

  0005f	48 8b 44 24 08	 mov	 rax, QWORD PTR in$[rsp]
  00064	8b 40 0c	 mov	 eax, DWORD PTR [rax+12]
  00067	89 44 24 20	 mov	 DWORD PTR d$[rsp], eax
$LN4@serpent_en:

; 748  : 
; 749  : 	do
; 750  : 	{
; 751  : 		beforeS0(KX); beforeS0(S0); afterS0(LT);

  0006b	48 8b 44 24 18	 mov	 rax, QWORD PTR k$[rsp]
  00070	8b 08		 mov	 ecx, DWORD PTR [rax]
  00072	8b 04 24	 mov	 eax, DWORD PTR a$[rsp]
  00075	33 c1		 xor	 eax, ecx
  00077	89 04 24	 mov	 DWORD PTR a$[rsp], eax
  0007a	48 8b 44 24 18	 mov	 rax, QWORD PTR k$[rsp]
  0007f	8b 48 04	 mov	 ecx, DWORD PTR [rax+4]
  00082	8b 44 24 10	 mov	 eax, DWORD PTR b$[rsp]
  00086	33 c1		 xor	 eax, ecx
  00088	89 44 24 10	 mov	 DWORD PTR b$[rsp], eax
  0008c	48 8b 44 24 18	 mov	 rax, QWORD PTR k$[rsp]
  00091	8b 48 08	 mov	 ecx, DWORD PTR [rax+8]
  00094	8b 44 24 24	 mov	 eax, DWORD PTR c$[rsp]
  00098	33 c1		 xor	 eax, ecx
  0009a	89 44 24 24	 mov	 DWORD PTR c$[rsp], eax
  0009e	48 8b 44 24 18	 mov	 rax, QWORD PTR k$[rsp]
  000a3	8b 48 0c	 mov	 ecx, DWORD PTR [rax+12]
  000a6	8b 44 24 20	 mov	 eax, DWORD PTR d$[rsp]
  000aa	33 c1		 xor	 eax, ecx
  000ac	89 44 24 20	 mov	 DWORD PTR d$[rsp], eax
  000b0	8b 0c 24	 mov	 ecx, DWORD PTR a$[rsp]
  000b3	8b 44 24 20	 mov	 eax, DWORD PTR d$[rsp]
  000b7	33 c1		 xor	 eax, ecx
  000b9	89 44 24 20	 mov	 DWORD PTR d$[rsp], eax
  000bd	8b 44 24 10	 mov	 eax, DWORD PTR b$[rsp]
  000c1	89 44 24 30	 mov	 DWORD PTR e$[rsp], eax
  000c5	8b 4c 24 20	 mov	 ecx, DWORD PTR d$[rsp]
  000c9	8b 44 24 10	 mov	 eax, DWORD PTR b$[rsp]
  000cd	23 c1		 and	 eax, ecx
  000cf	89 44 24 10	 mov	 DWORD PTR b$[rsp], eax
  000d3	8b 4c 24 24	 mov	 ecx, DWORD PTR c$[rsp]
  000d7	8b 44 24 30	 mov	 eax, DWORD PTR e$[rsp]
  000db	33 c1		 xor	 eax, ecx
  000dd	89 44 24 30	 mov	 DWORD PTR e$[rsp], eax
  000e1	8b 0c 24	 mov	 ecx, DWORD PTR a$[rsp]
  000e4	8b 44 24 10	 mov	 eax, DWORD PTR b$[rsp]
  000e8	33 c1		 xor	 eax, ecx
  000ea	89 44 24 10	 mov	 DWORD PTR b$[rsp], eax
  000ee	8b 4c 24 20	 mov	 ecx, DWORD PTR d$[rsp]
  000f2	8b 04 24	 mov	 eax, DWORD PTR a$[rsp]
  000f5	0b c1		 or	 eax, ecx
  000f7	89 04 24	 mov	 DWORD PTR a$[rsp], eax
  000fa	8b 4c 24 30	 mov	 ecx, DWORD PTR e$[rsp]
  000fe	8b 04 24	 mov	 eax, DWORD PTR a$[rsp]
  00101	33 c1		 xor	 eax, ecx
  00103	89 04 24	 mov	 DWORD PTR a$[rsp], eax
  00106	8b 4c 24 20	 mov	 ecx, DWORD PTR d$[rsp]
  0010a	8b 44 24 30	 mov	 eax, DWORD PTR e$[rsp]
  0010e	33 c1		 xor	 eax, ecx
  00110	89 44 24 30	 mov	 DWORD PTR e$[rsp], eax
  00114	8b 4c 24 24	 mov	 ecx, DWORD PTR c$[rsp]
  00118	8b 44 24 20	 mov	 eax, DWORD PTR d$[rsp]
  0011c	33 c1		 xor	 eax, ecx
  0011e	89 44 24 20	 mov	 DWORD PTR d$[rsp], eax
  00122	8b 4c 24 10	 mov	 ecx, DWORD PTR b$[rsp]
  00126	8b 44 24 24	 mov	 eax, DWORD PTR c$[rsp]
  0012a	0b c1		 or	 eax, ecx
  0012c	89 44 24 24	 mov	 DWORD PTR c$[rsp], eax
  00130	8b 4c 24 30	 mov	 ecx, DWORD PTR e$[rsp]
  00134	8b 44 24 24	 mov	 eax, DWORD PTR c$[rsp]
  00138	33 c1		 xor	 eax, ecx
  0013a	89 44 24 24	 mov	 DWORD PTR c$[rsp], eax
  0013e	8b 44 24 30	 mov	 eax, DWORD PTR e$[rsp]
  00142	f7 d0		 not	 eax
  00144	89 44 24 30	 mov	 DWORD PTR e$[rsp], eax
  00148	8b 4c 24 10	 mov	 ecx, DWORD PTR b$[rsp]
  0014c	8b 44 24 30	 mov	 eax, DWORD PTR e$[rsp]
  00150	0b c1		 or	 eax, ecx
  00152	89 44 24 30	 mov	 DWORD PTR e$[rsp], eax
  00156	8b 4c 24 20	 mov	 ecx, DWORD PTR d$[rsp]
  0015a	8b 44 24 10	 mov	 eax, DWORD PTR b$[rsp]
  0015e	33 c1		 xor	 eax, ecx
  00160	89 44 24 10	 mov	 DWORD PTR b$[rsp], eax
  00164	8b 4c 24 30	 mov	 ecx, DWORD PTR e$[rsp]
  00168	8b 44 24 10	 mov	 eax, DWORD PTR b$[rsp]
  0016c	33 c1		 xor	 eax, ecx
  0016e	89 44 24 10	 mov	 DWORD PTR b$[rsp], eax
  00172	8b 0c 24	 mov	 ecx, DWORD PTR a$[rsp]
  00175	8b 44 24 20	 mov	 eax, DWORD PTR d$[rsp]
  00179	0b c1		 or	 eax, ecx
  0017b	89 44 24 20	 mov	 DWORD PTR d$[rsp], eax
  0017f	8b 4c 24 20	 mov	 ecx, DWORD PTR d$[rsp]
  00183	8b 44 24 10	 mov	 eax, DWORD PTR b$[rsp]
  00187	33 c1		 xor	 eax, ecx
  00189	89 44 24 10	 mov	 DWORD PTR b$[rsp], eax
  0018d	8b 4c 24 20	 mov	 ecx, DWORD PTR d$[rsp]
  00191	8b 44 24 30	 mov	 eax, DWORD PTR e$[rsp]
  00195	33 c1		 xor	 eax, ecx
  00197	89 44 24 30	 mov	 DWORD PTR e$[rsp], eax
  0019b	8b 44 24 10	 mov	 eax, DWORD PTR b$[rsp]
  0019f	c1 e0 0d	 shl	 eax, 13
  001a2	8b 4c 24 10	 mov	 ecx, DWORD PTR b$[rsp]
  001a6	c1 e9 13	 shr	 ecx, 19
  001a9	0b c1		 or	 eax, ecx
  001ab	89 44 24 10	 mov	 DWORD PTR b$[rsp], eax
  001af	8b 44 24 24	 mov	 eax, DWORD PTR c$[rsp]
  001b3	c1 e0 03	 shl	 eax, 3
  001b6	8b 4c 24 24	 mov	 ecx, DWORD PTR c$[rsp]
  001ba	c1 e9 1d	 shr	 ecx, 29
  001bd	0b c1		 or	 eax, ecx
  001bf	89 44 24 24	 mov	 DWORD PTR c$[rsp], eax
  001c3	8b 44 24 24	 mov	 eax, DWORD PTR c$[rsp]
  001c7	8b 14 24	 mov	 edx, DWORD PTR a$[rsp]
  001ca	33 d0		 xor	 edx, eax
  001cc	8b 44 24 10	 mov	 eax, DWORD PTR b$[rsp]
  001d0	c1 e0 03	 shl	 eax, 3
  001d3	33 d0		 xor	 edx, eax
  001d5	c1 e2 07	 shl	 edx, 7
  001d8	8b 44 24 24	 mov	 eax, DWORD PTR c$[rsp]
  001dc	8b 0c 24	 mov	 ecx, DWORD PTR a$[rsp]
  001df	33 c8		 xor	 ecx, eax
  001e1	8b 44 24 10	 mov	 eax, DWORD PTR b$[rsp]
  001e5	c1 e0 03	 shl	 eax, 3
  001e8	33 c8		 xor	 ecx, eax
  001ea	c1 e9 19	 shr	 ecx, 25
  001ed	8b c2		 mov	 eax, edx
  001ef	0b c1		 or	 eax, ecx
  001f1	89 04 24	 mov	 DWORD PTR a$[rsp], eax
  001f4	8b 44 24 10	 mov	 eax, DWORD PTR b$[rsp]
  001f8	8b 54 24 30	 mov	 edx, DWORD PTR e$[rsp]
  001fc	33 d0		 xor	 edx, eax
  001fe	33 54 24 24	 xor	 edx, DWORD PTR c$[rsp]
  00202	d1 e2		 shl	 edx, 1
  00204	8b 44 24 10	 mov	 eax, DWORD PTR b$[rsp]
  00208	8b 4c 24 30	 mov	 ecx, DWORD PTR e$[rsp]
  0020c	33 c8		 xor	 ecx, eax
  0020e	33 4c 24 24	 xor	 ecx, DWORD PTR c$[rsp]
  00212	c1 e9 1f	 shr	 ecx, 31
  00215	8b c2		 mov	 eax, edx
  00217	0b c1		 or	 eax, ecx
  00219	89 44 24 30	 mov	 DWORD PTR e$[rsp], eax
  0021d	8b 44 24 30	 mov	 eax, DWORD PTR e$[rsp]
  00221	8b 54 24 10	 mov	 edx, DWORD PTR b$[rsp]
  00225	33 d0		 xor	 edx, eax
  00227	33 14 24	 xor	 edx, DWORD PTR a$[rsp]
  0022a	c1 e2 05	 shl	 edx, 5
  0022d	8b 44 24 30	 mov	 eax, DWORD PTR e$[rsp]
  00231	8b 4c 24 10	 mov	 ecx, DWORD PTR b$[rsp]
  00235	33 c8		 xor	 ecx, eax
  00237	33 0c 24	 xor	 ecx, DWORD PTR a$[rsp]
  0023a	c1 e9 1b	 shr	 ecx, 27
  0023d	8b c2		 mov	 eax, edx
  0023f	0b c1		 or	 eax, ecx
  00241	89 44 24 10	 mov	 DWORD PTR b$[rsp], eax
  00245	8b 04 24	 mov	 eax, DWORD PTR a$[rsp]
  00248	8b 54 24 24	 mov	 edx, DWORD PTR c$[rsp]
  0024c	33 d0		 xor	 edx, eax
  0024e	8b 44 24 30	 mov	 eax, DWORD PTR e$[rsp]
  00252	c1 e0 07	 shl	 eax, 7
  00255	33 d0		 xor	 edx, eax
  00257	c1 e2 16	 shl	 edx, 22
  0025a	8b 04 24	 mov	 eax, DWORD PTR a$[rsp]
  0025d	8b 4c 24 24	 mov	 ecx, DWORD PTR c$[rsp]
  00261	33 c8		 xor	 ecx, eax
  00263	8b 44 24 30	 mov	 eax, DWORD PTR e$[rsp]
  00267	c1 e0 07	 shl	 eax, 7
  0026a	33 c8		 xor	 ecx, eax
  0026c	c1 e9 0a	 shr	 ecx, 10
  0026f	8b c2		 mov	 eax, edx
  00271	0b c1		 or	 eax, ecx
  00273	89 44 24 24	 mov	 DWORD PTR c$[rsp], eax

; 752  : 		afterS0(KX); afterS0(S1); afterS1(LT);

  00277	48 8b 44 24 18	 mov	 rax, QWORD PTR k$[rsp]
  0027c	8b 48 10	 mov	 ecx, DWORD PTR [rax+16]
  0027f	8b 44 24 10	 mov	 eax, DWORD PTR b$[rsp]
  00283	33 c1		 xor	 eax, ecx
  00285	89 44 24 10	 mov	 DWORD PTR b$[rsp], eax
  00289	48 8b 44 24 18	 mov	 rax, QWORD PTR k$[rsp]
  0028e	8b 48 14	 mov	 ecx, DWORD PTR [rax+20]
  00291	8b 44 24 30	 mov	 eax, DWORD PTR e$[rsp]
  00295	33 c1		 xor	 eax, ecx
  00297	89 44 24 30	 mov	 DWORD PTR e$[rsp], eax
  0029b	48 8b 44 24 18	 mov	 rax, QWORD PTR k$[rsp]
  002a0	8b 48 18	 mov	 ecx, DWORD PTR [rax+24]
  002a3	8b 44 24 24	 mov	 eax, DWORD PTR c$[rsp]
  002a7	33 c1		 xor	 eax, ecx
  002a9	89 44 24 24	 mov	 DWORD PTR c$[rsp], eax
  002ad	48 8b 44 24 18	 mov	 rax, QWORD PTR k$[rsp]
  002b2	8b 48 1c	 mov	 ecx, DWORD PTR [rax+28]
  002b5	8b 04 24	 mov	 eax, DWORD PTR a$[rsp]
  002b8	33 c1		 xor	 eax, ecx
  002ba	89 04 24	 mov	 DWORD PTR a$[rsp], eax
  002bd	8b 44 24 10	 mov	 eax, DWORD PTR b$[rsp]
  002c1	f7 d0		 not	 eax
  002c3	89 44 24 10	 mov	 DWORD PTR b$[rsp], eax
  002c7	8b 44 24 24	 mov	 eax, DWORD PTR c$[rsp]
  002cb	f7 d0		 not	 eax
  002cd	89 44 24 24	 mov	 DWORD PTR c$[rsp], eax
  002d1	8b 44 24 10	 mov	 eax, DWORD PTR b$[rsp]
  002d5	89 44 24 20	 mov	 DWORD PTR d$[rsp], eax
  002d9	8b 4c 24 30	 mov	 ecx, DWORD PTR e$[rsp]
  002dd	8b 44 24 10	 mov	 eax, DWORD PTR b$[rsp]
  002e1	23 c1		 and	 eax, ecx
  002e3	89 44 24 10	 mov	 DWORD PTR b$[rsp], eax
  002e7	8b 4c 24 10	 mov	 ecx, DWORD PTR b$[rsp]
  002eb	8b 44 24 24	 mov	 eax, DWORD PTR c$[rsp]
  002ef	33 c1		 xor	 eax, ecx
  002f1	89 44 24 24	 mov	 DWORD PTR c$[rsp], eax
  002f5	8b 0c 24	 mov	 ecx, DWORD PTR a$[rsp]
  002f8	8b 44 24 10	 mov	 eax, DWORD PTR b$[rsp]
  002fc	0b c1		 or	 eax, ecx
  002fe	89 44 24 10	 mov	 DWORD PTR b$[rsp], eax
  00302	8b 4c 24 24	 mov	 ecx, DWORD PTR c$[rsp]
  00306	8b 04 24	 mov	 eax, DWORD PTR a$[rsp]
  00309	33 c1		 xor	 eax, ecx
  0030b	89 04 24	 mov	 DWORD PTR a$[rsp], eax
  0030e	8b 4c 24 10	 mov	 ecx, DWORD PTR b$[rsp]
  00312	8b 44 24 30	 mov	 eax, DWORD PTR e$[rsp]
  00316	33 c1		 xor	 eax, ecx
  00318	89 44 24 30	 mov	 DWORD PTR e$[rsp], eax
  0031c	8b 4c 24 20	 mov	 ecx, DWORD PTR d$[rsp]
  00320	8b 44 24 10	 mov	 eax, DWORD PTR b$[rsp]
  00324	33 c1		 xor	 eax, ecx
  00326	89 44 24 10	 mov	 DWORD PTR b$[rsp], eax
  0032a	8b 4c 24 30	 mov	 ecx, DWORD PTR e$[rsp]
  0032e	8b 44 24 20	 mov	 eax, DWORD PTR d$[rsp]
  00332	0b c1		 or	 eax, ecx
  00334	89 44 24 20	 mov	 DWORD PTR d$[rsp], eax
  00338	8b 0c 24	 mov	 ecx, DWORD PTR a$[rsp]
  0033b	8b 44 24 30	 mov	 eax, DWORD PTR e$[rsp]
  0033f	33 c1		 xor	 eax, ecx
  00341	89 44 24 30	 mov	 DWORD PTR e$[rsp], eax
  00345	8b 4c 24 10	 mov	 ecx, DWORD PTR b$[rsp]
  00349	8b 44 24 24	 mov	 eax, DWORD PTR c$[rsp]
  0034d	0b c1		 or	 eax, ecx
  0034f	89 44 24 24	 mov	 DWORD PTR c$[rsp], eax
  00353	8b 4c 24 20	 mov	 ecx, DWORD PTR d$[rsp]
  00357	8b 44 24 24	 mov	 eax, DWORD PTR c$[rsp]
  0035b	23 c1		 and	 eax, ecx
  0035d	89 44 24 24	 mov	 DWORD PTR c$[rsp], eax
  00361	8b 4c 24 30	 mov	 ecx, DWORD PTR e$[rsp]
  00365	8b 44 24 10	 mov	 eax, DWORD PTR b$[rsp]
  00369	33 c1		 xor	 eax, ecx
  0036b	89 44 24 10	 mov	 DWORD PTR b$[rsp], eax
  0036f	8b 4c 24 24	 mov	 ecx, DWORD PTR c$[rsp]
  00373	8b 44 24 30	 mov	 eax, DWORD PTR e$[rsp]
  00377	23 c1		 and	 eax, ecx
  00379	89 44 24 30	 mov	 DWORD PTR e$[rsp], eax
  0037d	8b 4c 24 10	 mov	 ecx, DWORD PTR b$[rsp]
  00381	8b 44 24 30	 mov	 eax, DWORD PTR e$[rsp]
  00385	33 c1		 xor	 eax, ecx
  00387	89 44 24 30	 mov	 DWORD PTR e$[rsp], eax
  0038b	8b 4c 24 24	 mov	 ecx, DWORD PTR c$[rsp]
  0038f	8b 44 24 10	 mov	 eax, DWORD PTR b$[rsp]
  00393	23 c1		 and	 eax, ecx
  00395	89 44 24 10	 mov	 DWORD PTR b$[rsp], eax
  00399	8b 4c 24 20	 mov	 ecx, DWORD PTR d$[rsp]
  0039d	8b 44 24 10	 mov	 eax, DWORD PTR b$[rsp]
  003a1	33 c1		 xor	 eax, ecx
  003a3	89 44 24 10	 mov	 DWORD PTR b$[rsp], eax
  003a7	8b 44 24 24	 mov	 eax, DWORD PTR c$[rsp]
  003ab	c1 e0 0d	 shl	 eax, 13
  003ae	8b 4c 24 24	 mov	 ecx, DWORD PTR c$[rsp]
  003b2	c1 e9 13	 shr	 ecx, 19
  003b5	0b c1		 or	 eax, ecx
  003b7	89 44 24 24	 mov	 DWORD PTR c$[rsp], eax
  003bb	8b 04 24	 mov	 eax, DWORD PTR a$[rsp]
  003be	c1 e0 03	 shl	 eax, 3
  003c1	8b 0c 24	 mov	 ecx, DWORD PTR a$[rsp]
  003c4	c1 e9 1d	 shr	 ecx, 29
  003c7	0b c1		 or	 eax, ecx
  003c9	89 04 24	 mov	 DWORD PTR a$[rsp], eax
  003cc	8b 04 24	 mov	 eax, DWORD PTR a$[rsp]
  003cf	8b 54 24 30	 mov	 edx, DWORD PTR e$[rsp]
  003d3	33 d0		 xor	 edx, eax
  003d5	8b 44 24 24	 mov	 eax, DWORD PTR c$[rsp]
  003d9	c1 e0 03	 shl	 eax, 3
  003dc	33 d0		 xor	 edx, eax
  003de	c1 e2 07	 shl	 edx, 7
  003e1	8b 04 24	 mov	 eax, DWORD PTR a$[rsp]
  003e4	8b 4c 24 30	 mov	 ecx, DWORD PTR e$[rsp]
  003e8	33 c8		 xor	 ecx, eax
  003ea	8b 44 24 24	 mov	 eax, DWORD PTR c$[rsp]
  003ee	c1 e0 03	 shl	 eax, 3
  003f1	33 c8		 xor	 ecx, eax
  003f3	c1 e9 19	 shr	 ecx, 25
  003f6	8b c2		 mov	 eax, edx
  003f8	0b c1		 or	 eax, ecx
  003fa	89 44 24 30	 mov	 DWORD PTR e$[rsp], eax
  003fe	8b 44 24 24	 mov	 eax, DWORD PTR c$[rsp]
  00402	8b 54 24 10	 mov	 edx, DWORD PTR b$[rsp]
  00406	33 d0		 xor	 edx, eax
  00408	33 14 24	 xor	 edx, DWORD PTR a$[rsp]
  0040b	d1 e2		 shl	 edx, 1
  0040d	8b 44 24 24	 mov	 eax, DWORD PTR c$[rsp]
  00411	8b 4c 24 10	 mov	 ecx, DWORD PTR b$[rsp]
  00415	33 c8		 xor	 ecx, eax
  00417	33 0c 24	 xor	 ecx, DWORD PTR a$[rsp]
  0041a	c1 e9 1f	 shr	 ecx, 31
  0041d	8b c2		 mov	 eax, edx
  0041f	0b c1		 or	 eax, ecx
  00421	89 44 24 10	 mov	 DWORD PTR b$[rsp], eax
  00425	8b 44 24 10	 mov	 eax, DWORD PTR b$[rsp]
  00429	8b 54 24 24	 mov	 edx, DWORD PTR c$[rsp]
  0042d	33 d0		 xor	 edx, eax
  0042f	33 54 24 30	 xor	 edx, DWORD PTR e$[rsp]
  00433	c1 e2 05	 shl	 edx, 5
  00436	8b 44 24 10	 mov	 eax, DWORD PTR b$[rsp]
  0043a	8b 4c 24 24	 mov	 ecx, DWORD PTR c$[rsp]
  0043e	33 c8		 xor	 ecx, eax
  00440	33 4c 24 30	 xor	 ecx, DWORD PTR e$[rsp]
  00444	c1 e9 1b	 shr	 ecx, 27
  00447	8b c2		 mov	 eax, edx
  00449	0b c1		 or	 eax, ecx
  0044b	89 44 24 24	 mov	 DWORD PTR c$[rsp], eax
  0044f	8b 44 24 30	 mov	 eax, DWORD PTR e$[rsp]
  00453	8b 14 24	 mov	 edx, DWORD PTR a$[rsp]
  00456	33 d0		 xor	 edx, eax
  00458	8b 44 24 10	 mov	 eax, DWORD PTR b$[rsp]
  0045c	c1 e0 07	 shl	 eax, 7
  0045f	33 d0		 xor	 edx, eax
  00461	c1 e2 16	 shl	 edx, 22
  00464	8b 44 24 30	 mov	 eax, DWORD PTR e$[rsp]
  00468	8b 0c 24	 mov	 ecx, DWORD PTR a$[rsp]
  0046b	33 c8		 xor	 ecx, eax
  0046d	8b 44 24 10	 mov	 eax, DWORD PTR b$[rsp]
  00471	c1 e0 07	 shl	 eax, 7
  00474	33 c8		 xor	 ecx, eax
  00476	c1 e9 0a	 shr	 ecx, 10
  00479	8b c2		 mov	 eax, edx
  0047b	0b c1		 or	 eax, ecx
  0047d	89 04 24	 mov	 DWORD PTR a$[rsp], eax

; 753  : 		afterS1(KX); afterS1(S2); afterS2(LT);

  00480	48 8b 44 24 18	 mov	 rax, QWORD PTR k$[rsp]
  00485	8b 48 20	 mov	 ecx, DWORD PTR [rax+32]
  00488	8b 44 24 24	 mov	 eax, DWORD PTR c$[rsp]
  0048c	33 c1		 xor	 eax, ecx
  0048e	89 44 24 24	 mov	 DWORD PTR c$[rsp], eax
  00492	48 8b 44 24 18	 mov	 rax, QWORD PTR k$[rsp]
  00497	8b 48 24	 mov	 ecx, DWORD PTR [rax+36]
  0049a	8b 44 24 10	 mov	 eax, DWORD PTR b$[rsp]
  0049e	33 c1		 xor	 eax, ecx
  004a0	89 44 24 10	 mov	 DWORD PTR b$[rsp], eax
  004a4	48 8b 44 24 18	 mov	 rax, QWORD PTR k$[rsp]
  004a9	8b 48 28	 mov	 ecx, DWORD PTR [rax+40]
  004ac	8b 04 24	 mov	 eax, DWORD PTR a$[rsp]
  004af	33 c1		 xor	 eax, ecx
  004b1	89 04 24	 mov	 DWORD PTR a$[rsp], eax
  004b4	48 8b 44 24 18	 mov	 rax, QWORD PTR k$[rsp]
  004b9	8b 48 2c	 mov	 ecx, DWORD PTR [rax+44]
  004bc	8b 44 24 30	 mov	 eax, DWORD PTR e$[rsp]
  004c0	33 c1		 xor	 eax, ecx
  004c2	89 44 24 30	 mov	 DWORD PTR e$[rsp], eax
  004c6	8b 44 24 24	 mov	 eax, DWORD PTR c$[rsp]
  004ca	89 44 24 20	 mov	 DWORD PTR d$[rsp], eax
  004ce	8b 0c 24	 mov	 ecx, DWORD PTR a$[rsp]
  004d1	8b 44 24 24	 mov	 eax, DWORD PTR c$[rsp]
  004d5	23 c1		 and	 eax, ecx
  004d7	89 44 24 24	 mov	 DWORD PTR c$[rsp], eax
  004db	8b 4c 24 30	 mov	 ecx, DWORD PTR e$[rsp]
  004df	8b 44 24 24	 mov	 eax, DWORD PTR c$[rsp]
  004e3	33 c1		 xor	 eax, ecx
  004e5	89 44 24 24	 mov	 DWORD PTR c$[rsp], eax
  004e9	8b 4c 24 10	 mov	 ecx, DWORD PTR b$[rsp]
  004ed	8b 04 24	 mov	 eax, DWORD PTR a$[rsp]
  004f0	33 c1		 xor	 eax, ecx
  004f2	89 04 24	 mov	 DWORD PTR a$[rsp], eax
  004f5	8b 4c 24 24	 mov	 ecx, DWORD PTR c$[rsp]
  004f9	8b 04 24	 mov	 eax, DWORD PTR a$[rsp]
  004fc	33 c1		 xor	 eax, ecx
  004fe	89 04 24	 mov	 DWORD PTR a$[rsp], eax
  00501	8b 4c 24 20	 mov	 ecx, DWORD PTR d$[rsp]
  00505	8b 44 24 30	 mov	 eax, DWORD PTR e$[rsp]
  00509	0b c1		 or	 eax, ecx
  0050b	89 44 24 30	 mov	 DWORD PTR e$[rsp], eax
  0050f	8b 4c 24 10	 mov	 ecx, DWORD PTR b$[rsp]
  00513	8b 44 24 30	 mov	 eax, DWORD PTR e$[rsp]
  00517	33 c1		 xor	 eax, ecx
  00519	89 44 24 30	 mov	 DWORD PTR e$[rsp], eax
  0051d	8b 0c 24	 mov	 ecx, DWORD PTR a$[rsp]
  00520	8b 44 24 20	 mov	 eax, DWORD PTR d$[rsp]
  00524	33 c1		 xor	 eax, ecx
  00526	89 44 24 20	 mov	 DWORD PTR d$[rsp], eax
  0052a	8b 44 24 30	 mov	 eax, DWORD PTR e$[rsp]
  0052e	89 44 24 10	 mov	 DWORD PTR b$[rsp], eax
  00532	8b 4c 24 20	 mov	 ecx, DWORD PTR d$[rsp]
  00536	8b 44 24 30	 mov	 eax, DWORD PTR e$[rsp]
  0053a	0b c1		 or	 eax, ecx
  0053c	89 44 24 30	 mov	 DWORD PTR e$[rsp], eax
  00540	8b 4c 24 24	 mov	 ecx, DWORD PTR c$[rsp]
  00544	8b 44 24 30	 mov	 eax, DWORD PTR e$[rsp]
  00548	33 c1		 xor	 eax, ecx
  0054a	89 44 24 30	 mov	 DWORD PTR e$[rsp], eax
  0054e	8b 4c 24 10	 mov	 ecx, DWORD PTR b$[rsp]
  00552	8b 44 24 24	 mov	 eax, DWORD PTR c$[rsp]
  00556	23 c1		 and	 eax, ecx
  00558	89 44 24 24	 mov	 DWORD PTR c$[rsp], eax
  0055c	8b 4c 24 24	 mov	 ecx, DWORD PTR c$[rsp]
  00560	8b 44 24 20	 mov	 eax, DWORD PTR d$[rsp]
  00564	33 c1		 xor	 eax, ecx
  00566	89 44 24 20	 mov	 DWORD PTR d$[rsp], eax
  0056a	8b 4c 24 30	 mov	 ecx, DWORD PTR e$[rsp]
  0056e	8b 44 24 10	 mov	 eax, DWORD PTR b$[rsp]
  00572	33 c1		 xor	 eax, ecx
  00574	89 44 24 10	 mov	 DWORD PTR b$[rsp], eax
  00578	8b 4c 24 20	 mov	 ecx, DWORD PTR d$[rsp]
  0057c	8b 44 24 10	 mov	 eax, DWORD PTR b$[rsp]
  00580	33 c1		 xor	 eax, ecx
  00582	89 44 24 10	 mov	 DWORD PTR b$[rsp], eax
  00586	8b 44 24 20	 mov	 eax, DWORD PTR d$[rsp]
  0058a	f7 d0		 not	 eax
  0058c	89 44 24 20	 mov	 DWORD PTR d$[rsp], eax
  00590	8b 04 24	 mov	 eax, DWORD PTR a$[rsp]
  00593	c1 e0 0d	 shl	 eax, 13
  00596	8b 0c 24	 mov	 ecx, DWORD PTR a$[rsp]
  00599	c1 e9 13	 shr	 ecx, 19
  0059c	0b c1		 or	 eax, ecx
  0059e	89 04 24	 mov	 DWORD PTR a$[rsp], eax
  005a1	8b 44 24 10	 mov	 eax, DWORD PTR b$[rsp]
  005a5	c1 e0 03	 shl	 eax, 3
  005a8	8b 4c 24 10	 mov	 ecx, DWORD PTR b$[rsp]
  005ac	c1 e9 1d	 shr	 ecx, 29
  005af	0b c1		 or	 eax, ecx
  005b1	89 44 24 10	 mov	 DWORD PTR b$[rsp], eax
  005b5	8b 44 24 10	 mov	 eax, DWORD PTR b$[rsp]
  005b9	8b 54 24 20	 mov	 edx, DWORD PTR d$[rsp]
  005bd	33 d0		 xor	 edx, eax
  005bf	8b 04 24	 mov	 eax, DWORD PTR a$[rsp]
  005c2	c1 e0 03	 shl	 eax, 3
  005c5	33 d0		 xor	 edx, eax
  005c7	c1 e2 07	 shl	 edx, 7
  005ca	8b 44 24 10	 mov	 eax, DWORD PTR b$[rsp]
  005ce	8b 4c 24 20	 mov	 ecx, DWORD PTR d$[rsp]
  005d2	33 c8		 xor	 ecx, eax
  005d4	8b 04 24	 mov	 eax, DWORD PTR a$[rsp]
  005d7	c1 e0 03	 shl	 eax, 3
  005da	33 c8		 xor	 ecx, eax
  005dc	c1 e9 19	 shr	 ecx, 25
  005df	8b c2		 mov	 eax, edx
  005e1	0b c1		 or	 eax, ecx
  005e3	89 44 24 20	 mov	 DWORD PTR d$[rsp], eax
  005e7	8b 04 24	 mov	 eax, DWORD PTR a$[rsp]
  005ea	8b 54 24 30	 mov	 edx, DWORD PTR e$[rsp]
  005ee	33 d0		 xor	 edx, eax
  005f0	33 54 24 10	 xor	 edx, DWORD PTR b$[rsp]
  005f4	d1 e2		 shl	 edx, 1
  005f6	8b 04 24	 mov	 eax, DWORD PTR a$[rsp]
  005f9	8b 4c 24 30	 mov	 ecx, DWORD PTR e$[rsp]
  005fd	33 c8		 xor	 ecx, eax
  005ff	33 4c 24 10	 xor	 ecx, DWORD PTR b$[rsp]
  00603	c1 e9 1f	 shr	 ecx, 31
  00606	8b c2		 mov	 eax, edx
  00608	0b c1		 or	 eax, ecx
  0060a	89 44 24 30	 mov	 DWORD PTR e$[rsp], eax
  0060e	8b 44 24 30	 mov	 eax, DWORD PTR e$[rsp]
  00612	8b 14 24	 mov	 edx, DWORD PTR a$[rsp]
  00615	33 d0		 xor	 edx, eax
  00617	33 54 24 20	 xor	 edx, DWORD PTR d$[rsp]
  0061b	c1 e2 05	 shl	 edx, 5
  0061e	8b 44 24 30	 mov	 eax, DWORD PTR e$[rsp]
  00622	8b 0c 24	 mov	 ecx, DWORD PTR a$[rsp]
  00625	33 c8		 xor	 ecx, eax
  00627	33 4c 24 20	 xor	 ecx, DWORD PTR d$[rsp]
  0062b	c1 e9 1b	 shr	 ecx, 27
  0062e	8b c2		 mov	 eax, edx
  00630	0b c1		 or	 eax, ecx
  00632	89 04 24	 mov	 DWORD PTR a$[rsp], eax
  00635	8b 44 24 20	 mov	 eax, DWORD PTR d$[rsp]
  00639	8b 54 24 10	 mov	 edx, DWORD PTR b$[rsp]
  0063d	33 d0		 xor	 edx, eax
  0063f	8b 44 24 30	 mov	 eax, DWORD PTR e$[rsp]
  00643	c1 e0 07	 shl	 eax, 7
  00646	33 d0		 xor	 edx, eax
  00648	c1 e2 16	 shl	 edx, 22
  0064b	8b 44 24 20	 mov	 eax, DWORD PTR d$[rsp]
  0064f	8b 4c 24 10	 mov	 ecx, DWORD PTR b$[rsp]
  00653	33 c8		 xor	 ecx, eax
  00655	8b 44 24 30	 mov	 eax, DWORD PTR e$[rsp]
  00659	c1 e0 07	 shl	 eax, 7
  0065c	33 c8		 xor	 ecx, eax
  0065e	c1 e9 0a	 shr	 ecx, 10
  00661	8b c2		 mov	 eax, edx
  00663	0b c1		 or	 eax, ecx
  00665	89 44 24 10	 mov	 DWORD PTR b$[rsp], eax

; 754  : 		afterS2(KX); afterS2(S3); afterS3(LT);

  00669	48 8b 44 24 18	 mov	 rax, QWORD PTR k$[rsp]
  0066e	8b 48 30	 mov	 ecx, DWORD PTR [rax+48]
  00671	8b 04 24	 mov	 eax, DWORD PTR a$[rsp]
  00674	33 c1		 xor	 eax, ecx
  00676	89 04 24	 mov	 DWORD PTR a$[rsp], eax
  00679	48 8b 44 24 18	 mov	 rax, QWORD PTR k$[rsp]
  0067e	8b 48 34	 mov	 ecx, DWORD PTR [rax+52]
  00681	8b 44 24 30	 mov	 eax, DWORD PTR e$[rsp]
  00685	33 c1		 xor	 eax, ecx
  00687	89 44 24 30	 mov	 DWORD PTR e$[rsp], eax
  0068b	48 8b 44 24 18	 mov	 rax, QWORD PTR k$[rsp]
  00690	8b 48 38	 mov	 ecx, DWORD PTR [rax+56]
  00693	8b 44 24 10	 mov	 eax, DWORD PTR b$[rsp]
  00697	33 c1		 xor	 eax, ecx
  00699	89 44 24 10	 mov	 DWORD PTR b$[rsp], eax
  0069d	48 8b 44 24 18	 mov	 rax, QWORD PTR k$[rsp]
  006a2	8b 48 3c	 mov	 ecx, DWORD PTR [rax+60]
  006a5	8b 44 24 20	 mov	 eax, DWORD PTR d$[rsp]
  006a9	33 c1		 xor	 eax, ecx
  006ab	89 44 24 20	 mov	 DWORD PTR d$[rsp], eax
  006af	8b 04 24	 mov	 eax, DWORD PTR a$[rsp]
  006b2	89 44 24 24	 mov	 DWORD PTR c$[rsp], eax
  006b6	8b 4c 24 20	 mov	 ecx, DWORD PTR d$[rsp]
  006ba	8b 04 24	 mov	 eax, DWORD PTR a$[rsp]
  006bd	0b c1		 or	 eax, ecx
  006bf	89 04 24	 mov	 DWORD PTR a$[rsp], eax
  006c2	8b 4c 24 30	 mov	 ecx, DWORD PTR e$[rsp]
  006c6	8b 44 24 20	 mov	 eax, DWORD PTR d$[rsp]
  006ca	33 c1		 xor	 eax, ecx
  006cc	89 44 24 20	 mov	 DWORD PTR d$[rsp], eax
  006d0	8b 4c 24 24	 mov	 ecx, DWORD PTR c$[rsp]
  006d4	8b 44 24 30	 mov	 eax, DWORD PTR e$[rsp]
  006d8	23 c1		 and	 eax, ecx
  006da	89 44 24 30	 mov	 DWORD PTR e$[rsp], eax
  006de	8b 4c 24 10	 mov	 ecx, DWORD PTR b$[rsp]
  006e2	8b 44 24 24	 mov	 eax, DWORD PTR c$[rsp]
  006e6	33 c1		 xor	 eax, ecx
  006e8	89 44 24 24	 mov	 DWORD PTR c$[rsp], eax
  006ec	8b 4c 24 20	 mov	 ecx, DWORD PTR d$[rsp]
  006f0	8b 44 24 10	 mov	 eax, DWORD PTR b$[rsp]
  006f4	33 c1		 xor	 eax, ecx
  006f6	89 44 24 10	 mov	 DWORD PTR b$[rsp], eax
  006fa	8b 0c 24	 mov	 ecx, DWORD PTR a$[rsp]
  006fd	8b 44 24 20	 mov	 eax, DWORD PTR d$[rsp]
  00701	23 c1		 and	 eax, ecx
  00703	89 44 24 20	 mov	 DWORD PTR d$[rsp], eax
  00707	8b 4c 24 30	 mov	 ecx, DWORD PTR e$[rsp]
  0070b	8b 44 24 24	 mov	 eax, DWORD PTR c$[rsp]
  0070f	0b c1		 or	 eax, ecx
  00711	89 44 24 24	 mov	 DWORD PTR c$[rsp], eax
  00715	8b 4c 24 24	 mov	 ecx, DWORD PTR c$[rsp]
  00719	8b 44 24 20	 mov	 eax, DWORD PTR d$[rsp]
  0071d	33 c1		 xor	 eax, ecx
  0071f	89 44 24 20	 mov	 DWORD PTR d$[rsp], eax
  00723	8b 4c 24 30	 mov	 ecx, DWORD PTR e$[rsp]
  00727	8b 04 24	 mov	 eax, DWORD PTR a$[rsp]
  0072a	33 c1		 xor	 eax, ecx
  0072c	89 04 24	 mov	 DWORD PTR a$[rsp], eax
  0072f	8b 0c 24	 mov	 ecx, DWORD PTR a$[rsp]
  00732	8b 44 24 24	 mov	 eax, DWORD PTR c$[rsp]
  00736	23 c1		 and	 eax, ecx
  00738	89 44 24 24	 mov	 DWORD PTR c$[rsp], eax
  0073c	8b 4c 24 20	 mov	 ecx, DWORD PTR d$[rsp]
  00740	8b 44 24 30	 mov	 eax, DWORD PTR e$[rsp]
  00744	33 c1		 xor	 eax, ecx
  00746	89 44 24 30	 mov	 DWORD PTR e$[rsp], eax
  0074a	8b 4c 24 10	 mov	 ecx, DWORD PTR b$[rsp]
  0074e	8b 44 24 24	 mov	 eax, DWORD PTR c$[rsp]
  00752	33 c1		 xor	 eax, ecx
  00754	89 44 24 24	 mov	 DWORD PTR c$[rsp], eax
  00758	8b 0c 24	 mov	 ecx, DWORD PTR a$[rsp]
  0075b	8b 44 24 30	 mov	 eax, DWORD PTR e$[rsp]
  0075f	0b c1		 or	 eax, ecx
  00761	89 44 24 30	 mov	 DWORD PTR e$[rsp], eax
  00765	8b 4c 24 10	 mov	 ecx, DWORD PTR b$[rsp]
  00769	8b 44 24 30	 mov	 eax, DWORD PTR e$[rsp]
  0076d	33 c1		 xor	 eax, ecx
  0076f	89 44 24 30	 mov	 DWORD PTR e$[rsp], eax
  00773	8b 4c 24 20	 mov	 ecx, DWORD PTR d$[rsp]
  00777	8b 04 24	 mov	 eax, DWORD PTR a$[rsp]
  0077a	33 c1		 xor	 eax, ecx
  0077c	89 04 24	 mov	 DWORD PTR a$[rsp], eax
  0077f	8b 44 24 30	 mov	 eax, DWORD PTR e$[rsp]
  00783	89 44 24 10	 mov	 DWORD PTR b$[rsp], eax
  00787	8b 4c 24 20	 mov	 ecx, DWORD PTR d$[rsp]
  0078b	8b 44 24 30	 mov	 eax, DWORD PTR e$[rsp]
  0078f	0b c1		 or	 eax, ecx
  00791	89 44 24 30	 mov	 DWORD PTR e$[rsp], eax
  00795	8b 0c 24	 mov	 ecx, DWORD PTR a$[rsp]
  00798	8b 44 24 30	 mov	 eax, DWORD PTR e$[rsp]
  0079c	33 c1		 xor	 eax, ecx
  0079e	89 44 24 30	 mov	 DWORD PTR e$[rsp], eax
  007a2	8b 44 24 30	 mov	 eax, DWORD PTR e$[rsp]
  007a6	c1 e0 0d	 shl	 eax, 13
  007a9	8b 4c 24 30	 mov	 ecx, DWORD PTR e$[rsp]
  007ad	c1 e9 13	 shr	 ecx, 19
  007b0	0b c1		 or	 eax, ecx
  007b2	89 44 24 30	 mov	 DWORD PTR e$[rsp], eax
  007b6	8b 44 24 20	 mov	 eax, DWORD PTR d$[rsp]
  007ba	c1 e0 03	 shl	 eax, 3
  007bd	8b 4c 24 20	 mov	 ecx, DWORD PTR d$[rsp]
  007c1	c1 e9 1d	 shr	 ecx, 29
  007c4	0b c1		 or	 eax, ecx
  007c6	89 44 24 20	 mov	 DWORD PTR d$[rsp], eax
  007ca	8b 44 24 20	 mov	 eax, DWORD PTR d$[rsp]
  007ce	8b 54 24 24	 mov	 edx, DWORD PTR c$[rsp]
  007d2	33 d0		 xor	 edx, eax
  007d4	8b 44 24 30	 mov	 eax, DWORD PTR e$[rsp]
  007d8	c1 e0 03	 shl	 eax, 3
  007db	33 d0		 xor	 edx, eax
  007dd	c1 e2 07	 shl	 edx, 7
  007e0	8b 44 24 20	 mov	 eax, DWORD PTR d$[rsp]
  007e4	8b 4c 24 24	 mov	 ecx, DWORD PTR c$[rsp]
  007e8	33 c8		 xor	 ecx, eax
  007ea	8b 44 24 30	 mov	 eax, DWORD PTR e$[rsp]
  007ee	c1 e0 03	 shl	 eax, 3
  007f1	33 c8		 xor	 ecx, eax
  007f3	c1 e9 19	 shr	 ecx, 25
  007f6	8b c2		 mov	 eax, edx
  007f8	0b c1		 or	 eax, ecx
  007fa	89 44 24 24	 mov	 DWORD PTR c$[rsp], eax
  007fe	8b 44 24 30	 mov	 eax, DWORD PTR e$[rsp]
  00802	8b 54 24 10	 mov	 edx, DWORD PTR b$[rsp]
  00806	33 d0		 xor	 edx, eax
  00808	33 54 24 20	 xor	 edx, DWORD PTR d$[rsp]
  0080c	d1 e2		 shl	 edx, 1
  0080e	8b 44 24 30	 mov	 eax, DWORD PTR e$[rsp]
  00812	8b 4c 24 10	 mov	 ecx, DWORD PTR b$[rsp]
  00816	33 c8		 xor	 ecx, eax
  00818	33 4c 24 20	 xor	 ecx, DWORD PTR d$[rsp]
  0081c	c1 e9 1f	 shr	 ecx, 31
  0081f	8b c2		 mov	 eax, edx
  00821	0b c1		 or	 eax, ecx
  00823	89 44 24 10	 mov	 DWORD PTR b$[rsp], eax
  00827	8b 44 24 10	 mov	 eax, DWORD PTR b$[rsp]
  0082b	8b 54 24 30	 mov	 edx, DWORD PTR e$[rsp]
  0082f	33 d0		 xor	 edx, eax
  00831	33 54 24 24	 xor	 edx, DWORD PTR c$[rsp]
  00835	c1 e2 05	 shl	 edx, 5
  00838	8b 44 24 10	 mov	 eax, DWORD PTR b$[rsp]
  0083c	8b 4c 24 30	 mov	 ecx, DWORD PTR e$[rsp]
  00840	33 c8		 xor	 ecx, eax
  00842	33 4c 24 24	 xor	 ecx, DWORD PTR c$[rsp]
  00846	c1 e9 1b	 shr	 ecx, 27
  00849	8b c2		 mov	 eax, edx
  0084b	0b c1		 or	 eax, ecx
  0084d	89 44 24 30	 mov	 DWORD PTR e$[rsp], eax
  00851	8b 44 24 24	 mov	 eax, DWORD PTR c$[rsp]
  00855	8b 54 24 20	 mov	 edx, DWORD PTR d$[rsp]
  00859	33 d0		 xor	 edx, eax
  0085b	8b 44 24 10	 mov	 eax, DWORD PTR b$[rsp]
  0085f	c1 e0 07	 shl	 eax, 7
  00862	33 d0		 xor	 edx, eax
  00864	c1 e2 16	 shl	 edx, 22
  00867	8b 44 24 24	 mov	 eax, DWORD PTR c$[rsp]
  0086b	8b 4c 24 20	 mov	 ecx, DWORD PTR d$[rsp]
  0086f	33 c8		 xor	 ecx, eax
  00871	8b 44 24 10	 mov	 eax, DWORD PTR b$[rsp]
  00875	c1 e0 07	 shl	 eax, 7
  00878	33 c8		 xor	 ecx, eax
  0087a	c1 e9 0a	 shr	 ecx, 10
  0087d	8b c2		 mov	 eax, edx
  0087f	0b c1		 or	 eax, ecx
  00881	89 44 24 20	 mov	 DWORD PTR d$[rsp], eax

; 755  : 		afterS3(KX); afterS3(S4); afterS4(LT);

  00885	48 8b 44 24 18	 mov	 rax, QWORD PTR k$[rsp]
  0088a	8b 48 40	 mov	 ecx, DWORD PTR [rax+64]
  0088d	8b 44 24 30	 mov	 eax, DWORD PTR e$[rsp]
  00891	33 c1		 xor	 eax, ecx
  00893	89 44 24 30	 mov	 DWORD PTR e$[rsp], eax
  00897	48 8b 44 24 18	 mov	 rax, QWORD PTR k$[rsp]
  0089c	8b 48 44	 mov	 ecx, DWORD PTR [rax+68]
  0089f	8b 44 24 10	 mov	 eax, DWORD PTR b$[rsp]
  008a3	33 c1		 xor	 eax, ecx
  008a5	89 44 24 10	 mov	 DWORD PTR b$[rsp], eax
  008a9	48 8b 44 24 18	 mov	 rax, QWORD PTR k$[rsp]
  008ae	8b 48 48	 mov	 ecx, DWORD PTR [rax+72]
  008b1	8b 44 24 20	 mov	 eax, DWORD PTR d$[rsp]
  008b5	33 c1		 xor	 eax, ecx
  008b7	89 44 24 20	 mov	 DWORD PTR d$[rsp], eax
  008bb	48 8b 44 24 18	 mov	 rax, QWORD PTR k$[rsp]
  008c0	8b 48 4c	 mov	 ecx, DWORD PTR [rax+76]
  008c3	8b 44 24 24	 mov	 eax, DWORD PTR c$[rsp]
  008c7	33 c1		 xor	 eax, ecx
  008c9	89 44 24 24	 mov	 DWORD PTR c$[rsp], eax
  008cd	8b 4c 24 24	 mov	 ecx, DWORD PTR c$[rsp]
  008d1	8b 44 24 10	 mov	 eax, DWORD PTR b$[rsp]
  008d5	33 c1		 xor	 eax, ecx
  008d7	89 44 24 10	 mov	 DWORD PTR b$[rsp], eax
  008db	8b 44 24 24	 mov	 eax, DWORD PTR c$[rsp]
  008df	f7 d0		 not	 eax
  008e1	89 44 24 24	 mov	 DWORD PTR c$[rsp], eax
  008e5	8b 4c 24 24	 mov	 ecx, DWORD PTR c$[rsp]
  008e9	8b 44 24 20	 mov	 eax, DWORD PTR d$[rsp]
  008ed	33 c1		 xor	 eax, ecx
  008ef	89 44 24 20	 mov	 DWORD PTR d$[rsp], eax
  008f3	8b 4c 24 30	 mov	 ecx, DWORD PTR e$[rsp]
  008f7	8b 44 24 24	 mov	 eax, DWORD PTR c$[rsp]
  008fb	33 c1		 xor	 eax, ecx
  008fd	89 44 24 24	 mov	 DWORD PTR c$[rsp], eax
  00901	8b 44 24 10	 mov	 eax, DWORD PTR b$[rsp]
  00905	89 04 24	 mov	 DWORD PTR a$[rsp], eax
  00908	8b 4c 24 24	 mov	 ecx, DWORD PTR c$[rsp]
  0090c	8b 44 24 10	 mov	 eax, DWORD PTR b$[rsp]
  00910	23 c1		 and	 eax, ecx
  00912	89 44 24 10	 mov	 DWORD PTR b$[rsp], eax
  00916	8b 4c 24 20	 mov	 ecx, DWORD PTR d$[rsp]
  0091a	8b 44 24 10	 mov	 eax, DWORD PTR b$[rsp]
  0091e	33 c1		 xor	 eax, ecx
  00920	89 44 24 10	 mov	 DWORD PTR b$[rsp], eax
  00924	8b 4c 24 24	 mov	 ecx, DWORD PTR c$[rsp]
  00928	8b 04 24	 mov	 eax, DWORD PTR a$[rsp]
  0092b	33 c1		 xor	 eax, ecx
  0092d	89 04 24	 mov	 DWORD PTR a$[rsp], eax
  00930	8b 0c 24	 mov	 ecx, DWORD PTR a$[rsp]
  00933	8b 44 24 30	 mov	 eax, DWORD PTR e$[rsp]
  00937	33 c1		 xor	 eax, ecx
  00939	89 44 24 30	 mov	 DWORD PTR e$[rsp], eax
  0093d	8b 0c 24	 mov	 ecx, DWORD PTR a$[rsp]
  00940	8b 44 24 20	 mov	 eax, DWORD PTR d$[rsp]
  00944	23 c1		 and	 eax, ecx
  00946	89 44 24 20	 mov	 DWORD PTR d$[rsp], eax
  0094a	8b 4c 24 30	 mov	 ecx, DWORD PTR e$[rsp]
  0094e	8b 44 24 20	 mov	 eax, DWORD PTR d$[rsp]
  00952	33 c1		 xor	 eax, ecx
  00954	89 44 24 20	 mov	 DWORD PTR d$[rsp], eax
  00958	8b 4c 24 10	 mov	 ecx, DWORD PTR b$[rsp]
  0095c	8b 44 24 30	 mov	 eax, DWORD PTR e$[rsp]
  00960	23 c1		 and	 eax, ecx
  00962	89 44 24 30	 mov	 DWORD PTR e$[rsp], eax
  00966	8b 4c 24 30	 mov	 ecx, DWORD PTR e$[rsp]
  0096a	8b 44 24 24	 mov	 eax, DWORD PTR c$[rsp]
  0096e	33 c1		 xor	 eax, ecx
  00970	89 44 24 24	 mov	 DWORD PTR c$[rsp], eax
  00974	8b 4c 24 10	 mov	 ecx, DWORD PTR b$[rsp]
  00978	8b 04 24	 mov	 eax, DWORD PTR a$[rsp]
  0097b	0b c1		 or	 eax, ecx
  0097d	89 04 24	 mov	 DWORD PTR a$[rsp], eax
  00980	8b 4c 24 30	 mov	 ecx, DWORD PTR e$[rsp]
  00984	8b 04 24	 mov	 eax, DWORD PTR a$[rsp]
  00987	33 c1		 xor	 eax, ecx
  00989	89 04 24	 mov	 DWORD PTR a$[rsp], eax
  0098c	8b 4c 24 24	 mov	 ecx, DWORD PTR c$[rsp]
  00990	8b 44 24 30	 mov	 eax, DWORD PTR e$[rsp]
  00994	0b c1		 or	 eax, ecx
  00996	89 44 24 30	 mov	 DWORD PTR e$[rsp], eax
  0099a	8b 4c 24 20	 mov	 ecx, DWORD PTR d$[rsp]
  0099e	8b 44 24 30	 mov	 eax, DWORD PTR e$[rsp]
  009a2	33 c1		 xor	 eax, ecx
  009a4	89 44 24 30	 mov	 DWORD PTR e$[rsp], eax
  009a8	8b 4c 24 24	 mov	 ecx, DWORD PTR c$[rsp]
  009ac	8b 44 24 20	 mov	 eax, DWORD PTR d$[rsp]
  009b0	23 c1		 and	 eax, ecx
  009b2	89 44 24 20	 mov	 DWORD PTR d$[rsp], eax
  009b6	8b 44 24 30	 mov	 eax, DWORD PTR e$[rsp]
  009ba	f7 d0		 not	 eax
  009bc	89 44 24 30	 mov	 DWORD PTR e$[rsp], eax
  009c0	8b 4c 24 20	 mov	 ecx, DWORD PTR d$[rsp]
  009c4	8b 04 24	 mov	 eax, DWORD PTR a$[rsp]
  009c7	33 c1		 xor	 eax, ecx
  009c9	89 04 24	 mov	 DWORD PTR a$[rsp], eax
  009cc	8b 44 24 10	 mov	 eax, DWORD PTR b$[rsp]
  009d0	c1 e0 0d	 shl	 eax, 13
  009d3	8b 4c 24 10	 mov	 ecx, DWORD PTR b$[rsp]
  009d7	c1 e9 13	 shr	 ecx, 19
  009da	0b c1		 or	 eax, ecx
  009dc	89 44 24 10	 mov	 DWORD PTR b$[rsp], eax
  009e0	8b 44 24 30	 mov	 eax, DWORD PTR e$[rsp]
  009e4	c1 e0 03	 shl	 eax, 3
  009e7	8b 4c 24 30	 mov	 ecx, DWORD PTR e$[rsp]
  009eb	c1 e9 1d	 shr	 ecx, 29
  009ee	0b c1		 or	 eax, ecx
  009f0	89 44 24 30	 mov	 DWORD PTR e$[rsp], eax
  009f4	8b 44 24 30	 mov	 eax, DWORD PTR e$[rsp]
  009f8	8b 54 24 24	 mov	 edx, DWORD PTR c$[rsp]
  009fc	33 d0		 xor	 edx, eax
  009fe	8b 44 24 10	 mov	 eax, DWORD PTR b$[rsp]
  00a02	c1 e0 03	 shl	 eax, 3
  00a05	33 d0		 xor	 edx, eax
  00a07	c1 e2 07	 shl	 edx, 7
  00a0a	8b 44 24 30	 mov	 eax, DWORD PTR e$[rsp]
  00a0e	8b 4c 24 24	 mov	 ecx, DWORD PTR c$[rsp]
  00a12	33 c8		 xor	 ecx, eax
  00a14	8b 44 24 10	 mov	 eax, DWORD PTR b$[rsp]
  00a18	c1 e0 03	 shl	 eax, 3
  00a1b	33 c8		 xor	 ecx, eax
  00a1d	c1 e9 19	 shr	 ecx, 25
  00a20	8b c2		 mov	 eax, edx
  00a22	0b c1		 or	 eax, ecx
  00a24	89 44 24 24	 mov	 DWORD PTR c$[rsp], eax
  00a28	8b 44 24 10	 mov	 eax, DWORD PTR b$[rsp]
  00a2c	8b 14 24	 mov	 edx, DWORD PTR a$[rsp]
  00a2f	33 d0		 xor	 edx, eax
  00a31	33 54 24 30	 xor	 edx, DWORD PTR e$[rsp]
  00a35	d1 e2		 shl	 edx, 1
  00a37	8b 44 24 10	 mov	 eax, DWORD PTR b$[rsp]
  00a3b	8b 0c 24	 mov	 ecx, DWORD PTR a$[rsp]
  00a3e	33 c8		 xor	 ecx, eax
  00a40	33 4c 24 30	 xor	 ecx, DWORD PTR e$[rsp]
  00a44	c1 e9 1f	 shr	 ecx, 31
  00a47	8b c2		 mov	 eax, edx
  00a49	0b c1		 or	 eax, ecx
  00a4b	89 04 24	 mov	 DWORD PTR a$[rsp], eax
  00a4e	8b 04 24	 mov	 eax, DWORD PTR a$[rsp]
  00a51	8b 54 24 10	 mov	 edx, DWORD PTR b$[rsp]
  00a55	33 d0		 xor	 edx, eax
  00a57	33 54 24 24	 xor	 edx, DWORD PTR c$[rsp]
  00a5b	c1 e2 05	 shl	 edx, 5
  00a5e	8b 04 24	 mov	 eax, DWORD PTR a$[rsp]
  00a61	8b 4c 24 10	 mov	 ecx, DWORD PTR b$[rsp]
  00a65	33 c8		 xor	 ecx, eax
  00a67	33 4c 24 24	 xor	 ecx, DWORD PTR c$[rsp]
  00a6b	c1 e9 1b	 shr	 ecx, 27
  00a6e	8b c2		 mov	 eax, edx
  00a70	0b c1		 or	 eax, ecx
  00a72	89 44 24 10	 mov	 DWORD PTR b$[rsp], eax
  00a76	8b 44 24 24	 mov	 eax, DWORD PTR c$[rsp]
  00a7a	8b 54 24 30	 mov	 edx, DWORD PTR e$[rsp]
  00a7e	33 d0		 xor	 edx, eax
  00a80	8b 04 24	 mov	 eax, DWORD PTR a$[rsp]
  00a83	c1 e0 07	 shl	 eax, 7
  00a86	33 d0		 xor	 edx, eax
  00a88	c1 e2 16	 shl	 edx, 22
  00a8b	8b 44 24 24	 mov	 eax, DWORD PTR c$[rsp]
  00a8f	8b 4c 24 30	 mov	 ecx, DWORD PTR e$[rsp]
  00a93	33 c8		 xor	 ecx, eax
  00a95	8b 04 24	 mov	 eax, DWORD PTR a$[rsp]
  00a98	c1 e0 07	 shl	 eax, 7
  00a9b	33 c8		 xor	 ecx, eax
  00a9d	c1 e9 0a	 shr	 ecx, 10
  00aa0	8b c2		 mov	 eax, edx
  00aa2	0b c1		 or	 eax, ecx
  00aa4	89 44 24 30	 mov	 DWORD PTR e$[rsp], eax

; 756  : 		afterS4(KX); afterS4(S5); afterS5(LT);

  00aa8	48 8b 44 24 18	 mov	 rax, QWORD PTR k$[rsp]
  00aad	8b 48 50	 mov	 ecx, DWORD PTR [rax+80]
  00ab0	8b 44 24 10	 mov	 eax, DWORD PTR b$[rsp]
  00ab4	33 c1		 xor	 eax, ecx
  00ab6	89 44 24 10	 mov	 DWORD PTR b$[rsp], eax
  00aba	48 8b 44 24 18	 mov	 rax, QWORD PTR k$[rsp]
  00abf	8b 48 54	 mov	 ecx, DWORD PTR [rax+84]
  00ac2	8b 04 24	 mov	 eax, DWORD PTR a$[rsp]
  00ac5	33 c1		 xor	 eax, ecx
  00ac7	89 04 24	 mov	 DWORD PTR a$[rsp], eax
  00aca	48 8b 44 24 18	 mov	 rax, QWORD PTR k$[rsp]
  00acf	8b 48 58	 mov	 ecx, DWORD PTR [rax+88]
  00ad2	8b 44 24 30	 mov	 eax, DWORD PTR e$[rsp]
  00ad6	33 c1		 xor	 eax, ecx
  00ad8	89 44 24 30	 mov	 DWORD PTR e$[rsp], eax
  00adc	48 8b 44 24 18	 mov	 rax, QWORD PTR k$[rsp]
  00ae1	8b 48 5c	 mov	 ecx, DWORD PTR [rax+92]
  00ae4	8b 44 24 24	 mov	 eax, DWORD PTR c$[rsp]
  00ae8	33 c1		 xor	 eax, ecx
  00aea	89 44 24 24	 mov	 DWORD PTR c$[rsp], eax
  00aee	8b 0c 24	 mov	 ecx, DWORD PTR a$[rsp]
  00af1	8b 44 24 10	 mov	 eax, DWORD PTR b$[rsp]
  00af5	33 c1		 xor	 eax, ecx
  00af7	89 44 24 10	 mov	 DWORD PTR b$[rsp], eax
  00afb	8b 4c 24 24	 mov	 ecx, DWORD PTR c$[rsp]
  00aff	8b 04 24	 mov	 eax, DWORD PTR a$[rsp]
  00b02	33 c1		 xor	 eax, ecx
  00b04	89 04 24	 mov	 DWORD PTR a$[rsp], eax
  00b07	8b 44 24 24	 mov	 eax, DWORD PTR c$[rsp]
  00b0b	f7 d0		 not	 eax
  00b0d	89 44 24 24	 mov	 DWORD PTR c$[rsp], eax
  00b11	8b 04 24	 mov	 eax, DWORD PTR a$[rsp]
  00b14	89 44 24 20	 mov	 DWORD PTR d$[rsp], eax
  00b18	8b 4c 24 10	 mov	 ecx, DWORD PTR b$[rsp]
  00b1c	8b 04 24	 mov	 eax, DWORD PTR a$[rsp]
  00b1f	23 c1		 and	 eax, ecx
  00b21	89 04 24	 mov	 DWORD PTR a$[rsp], eax
  00b24	8b 4c 24 24	 mov	 ecx, DWORD PTR c$[rsp]
  00b28	8b 44 24 30	 mov	 eax, DWORD PTR e$[rsp]
  00b2c	33 c1		 xor	 eax, ecx
  00b2e	89 44 24 30	 mov	 DWORD PTR e$[rsp], eax
  00b32	8b 4c 24 30	 mov	 ecx, DWORD PTR e$[rsp]
  00b36	8b 04 24	 mov	 eax, DWORD PTR a$[rsp]
  00b39	33 c1		 xor	 eax, ecx
  00b3b	89 04 24	 mov	 DWORD PTR a$[rsp], eax
  00b3e	8b 4c 24 20	 mov	 ecx, DWORD PTR d$[rsp]
  00b42	8b 44 24 30	 mov	 eax, DWORD PTR e$[rsp]
  00b46	0b c1		 or	 eax, ecx
  00b48	89 44 24 30	 mov	 DWORD PTR e$[rsp], eax
  00b4c	8b 4c 24 24	 mov	 ecx, DWORD PTR c$[rsp]
  00b50	8b 44 24 20	 mov	 eax, DWORD PTR d$[rsp]
  00b54	33 c1		 xor	 eax, ecx
  00b56	89 44 24 20	 mov	 DWORD PTR d$[rsp], eax
  00b5a	8b 0c 24	 mov	 ecx, DWORD PTR a$[rsp]
  00b5d	8b 44 24 24	 mov	 eax, DWORD PTR c$[rsp]
  00b61	23 c1		 and	 eax, ecx
  00b63	89 44 24 24	 mov	 DWORD PTR c$[rsp], eax
  00b67	8b 4c 24 10	 mov	 ecx, DWORD PTR b$[rsp]
  00b6b	8b 44 24 24	 mov	 eax, DWORD PTR c$[rsp]
  00b6f	33 c1		 xor	 eax, ecx
  00b71	89 44 24 24	 mov	 DWORD PTR c$[rsp], eax
  00b75	8b 0c 24	 mov	 ecx, DWORD PTR a$[rsp]
  00b78	8b 44 24 20	 mov	 eax, DWORD PTR d$[rsp]
  00b7c	33 c1		 xor	 eax, ecx
  00b7e	89 44 24 20	 mov	 DWORD PTR d$[rsp], eax
  00b82	8b 4c 24 30	 mov	 ecx, DWORD PTR e$[rsp]
  00b86	8b 44 24 20	 mov	 eax, DWORD PTR d$[rsp]
  00b8a	33 c1		 xor	 eax, ecx
  00b8c	89 44 24 20	 mov	 DWORD PTR d$[rsp], eax
  00b90	8b 4c 24 10	 mov	 ecx, DWORD PTR b$[rsp]
  00b94	8b 44 24 30	 mov	 eax, DWORD PTR e$[rsp]
  00b98	33 c1		 xor	 eax, ecx
  00b9a	89 44 24 30	 mov	 DWORD PTR e$[rsp], eax
  00b9e	8b 4c 24 24	 mov	 ecx, DWORD PTR c$[rsp]
  00ba2	8b 44 24 10	 mov	 eax, DWORD PTR b$[rsp]
  00ba6	23 c1		 and	 eax, ecx
  00ba8	89 44 24 10	 mov	 DWORD PTR b$[rsp], eax
  00bac	8b 44 24 30	 mov	 eax, DWORD PTR e$[rsp]
  00bb0	f7 d0		 not	 eax
  00bb2	89 44 24 30	 mov	 DWORD PTR e$[rsp], eax
  00bb6	8b 4c 24 20	 mov	 ecx, DWORD PTR d$[rsp]
  00bba	8b 44 24 10	 mov	 eax, DWORD PTR b$[rsp]
  00bbe	33 c1		 xor	 eax, ecx
  00bc0	89 44 24 10	 mov	 DWORD PTR b$[rsp], eax
  00bc4	8b 4c 24 24	 mov	 ecx, DWORD PTR c$[rsp]
  00bc8	8b 44 24 20	 mov	 eax, DWORD PTR d$[rsp]
  00bcc	0b c1		 or	 eax, ecx
  00bce	89 44 24 20	 mov	 DWORD PTR d$[rsp], eax
  00bd2	8b 4c 24 20	 mov	 ecx, DWORD PTR d$[rsp]
  00bd6	8b 44 24 30	 mov	 eax, DWORD PTR e$[rsp]
  00bda	33 c1		 xor	 eax, ecx
  00bdc	89 44 24 30	 mov	 DWORD PTR e$[rsp], eax
  00be0	8b 04 24	 mov	 eax, DWORD PTR a$[rsp]
  00be3	c1 e0 0d	 shl	 eax, 13
  00be6	8b 0c 24	 mov	 ecx, DWORD PTR a$[rsp]
  00be9	c1 e9 13	 shr	 ecx, 19
  00bec	0b c1		 or	 eax, ecx
  00bee	89 04 24	 mov	 DWORD PTR a$[rsp], eax
  00bf1	8b 44 24 10	 mov	 eax, DWORD PTR b$[rsp]
  00bf5	c1 e0 03	 shl	 eax, 3
  00bf8	8b 4c 24 10	 mov	 ecx, DWORD PTR b$[rsp]
  00bfc	c1 e9 1d	 shr	 ecx, 29
  00bff	0b c1		 or	 eax, ecx
  00c01	89 44 24 10	 mov	 DWORD PTR b$[rsp], eax
  00c05	8b 44 24 10	 mov	 eax, DWORD PTR b$[rsp]
  00c09	8b 54 24 30	 mov	 edx, DWORD PTR e$[rsp]
  00c0d	33 d0		 xor	 edx, eax
  00c0f	8b 04 24	 mov	 eax, DWORD PTR a$[rsp]
  00c12	c1 e0 03	 shl	 eax, 3
  00c15	33 d0		 xor	 edx, eax
  00c17	c1 e2 07	 shl	 edx, 7
  00c1a	8b 44 24 10	 mov	 eax, DWORD PTR b$[rsp]
  00c1e	8b 4c 24 30	 mov	 ecx, DWORD PTR e$[rsp]
  00c22	33 c8		 xor	 ecx, eax
  00c24	8b 04 24	 mov	 eax, DWORD PTR a$[rsp]
  00c27	c1 e0 03	 shl	 eax, 3
  00c2a	33 c8		 xor	 ecx, eax
  00c2c	c1 e9 19	 shr	 ecx, 25
  00c2f	8b c2		 mov	 eax, edx
  00c31	0b c1		 or	 eax, ecx
  00c33	89 44 24 30	 mov	 DWORD PTR e$[rsp], eax
  00c37	8b 04 24	 mov	 eax, DWORD PTR a$[rsp]
  00c3a	8b 54 24 24	 mov	 edx, DWORD PTR c$[rsp]
  00c3e	33 d0		 xor	 edx, eax
  00c40	33 54 24 10	 xor	 edx, DWORD PTR b$[rsp]
  00c44	d1 e2		 shl	 edx, 1
  00c46	8b 04 24	 mov	 eax, DWORD PTR a$[rsp]
  00c49	8b 4c 24 24	 mov	 ecx, DWORD PTR c$[rsp]
  00c4d	33 c8		 xor	 ecx, eax
  00c4f	33 4c 24 10	 xor	 ecx, DWORD PTR b$[rsp]
  00c53	c1 e9 1f	 shr	 ecx, 31
  00c56	8b c2		 mov	 eax, edx
  00c58	0b c1		 or	 eax, ecx
  00c5a	89 44 24 24	 mov	 DWORD PTR c$[rsp], eax
  00c5e	8b 44 24 24	 mov	 eax, DWORD PTR c$[rsp]
  00c62	8b 14 24	 mov	 edx, DWORD PTR a$[rsp]
  00c65	33 d0		 xor	 edx, eax
  00c67	33 54 24 30	 xor	 edx, DWORD PTR e$[rsp]
  00c6b	c1 e2 05	 shl	 edx, 5
  00c6e	8b 44 24 24	 mov	 eax, DWORD PTR c$[rsp]
  00c72	8b 0c 24	 mov	 ecx, DWORD PTR a$[rsp]
  00c75	33 c8		 xor	 ecx, eax
  00c77	33 4c 24 30	 xor	 ecx, DWORD PTR e$[rsp]
  00c7b	c1 e9 1b	 shr	 ecx, 27
  00c7e	8b c2		 mov	 eax, edx
  00c80	0b c1		 or	 eax, ecx
  00c82	89 04 24	 mov	 DWORD PTR a$[rsp], eax
  00c85	8b 44 24 30	 mov	 eax, DWORD PTR e$[rsp]
  00c89	8b 54 24 10	 mov	 edx, DWORD PTR b$[rsp]
  00c8d	33 d0		 xor	 edx, eax
  00c8f	8b 44 24 24	 mov	 eax, DWORD PTR c$[rsp]
  00c93	c1 e0 07	 shl	 eax, 7
  00c96	33 d0		 xor	 edx, eax
  00c98	c1 e2 16	 shl	 edx, 22
  00c9b	8b 44 24 30	 mov	 eax, DWORD PTR e$[rsp]
  00c9f	8b 4c 24 10	 mov	 ecx, DWORD PTR b$[rsp]
  00ca3	33 c8		 xor	 ecx, eax
  00ca5	8b 44 24 24	 mov	 eax, DWORD PTR c$[rsp]
  00ca9	c1 e0 07	 shl	 eax, 7
  00cac	33 c8		 xor	 ecx, eax
  00cae	c1 e9 0a	 shr	 ecx, 10
  00cb1	8b c2		 mov	 eax, edx
  00cb3	0b c1		 or	 eax, ecx
  00cb5	89 44 24 10	 mov	 DWORD PTR b$[rsp], eax

; 757  : 		afterS5(KX); afterS5(S6); afterS6(LT);

  00cb9	48 8b 44 24 18	 mov	 rax, QWORD PTR k$[rsp]
  00cbe	8b 48 60	 mov	 ecx, DWORD PTR [rax+96]
  00cc1	8b 04 24	 mov	 eax, DWORD PTR a$[rsp]
  00cc4	33 c1		 xor	 eax, ecx
  00cc6	89 04 24	 mov	 DWORD PTR a$[rsp], eax
  00cc9	48 8b 44 24 18	 mov	 rax, QWORD PTR k$[rsp]
  00cce	8b 48 64	 mov	 ecx, DWORD PTR [rax+100]
  00cd1	8b 44 24 24	 mov	 eax, DWORD PTR c$[rsp]
  00cd5	33 c1		 xor	 eax, ecx
  00cd7	89 44 24 24	 mov	 DWORD PTR c$[rsp], eax
  00cdb	48 8b 44 24 18	 mov	 rax, QWORD PTR k$[rsp]
  00ce0	8b 48 68	 mov	 ecx, DWORD PTR [rax+104]
  00ce3	8b 44 24 10	 mov	 eax, DWORD PTR b$[rsp]
  00ce7	33 c1		 xor	 eax, ecx
  00ce9	89 44 24 10	 mov	 DWORD PTR b$[rsp], eax
  00ced	48 8b 44 24 18	 mov	 rax, QWORD PTR k$[rsp]
  00cf2	8b 48 6c	 mov	 ecx, DWORD PTR [rax+108]
  00cf5	8b 44 24 30	 mov	 eax, DWORD PTR e$[rsp]
  00cf9	33 c1		 xor	 eax, ecx
  00cfb	89 44 24 30	 mov	 DWORD PTR e$[rsp], eax
  00cff	8b 44 24 10	 mov	 eax, DWORD PTR b$[rsp]
  00d03	f7 d0		 not	 eax
  00d05	89 44 24 10	 mov	 DWORD PTR b$[rsp], eax
  00d09	8b 44 24 30	 mov	 eax, DWORD PTR e$[rsp]
  00d0d	89 44 24 20	 mov	 DWORD PTR d$[rsp], eax
  00d11	8b 0c 24	 mov	 ecx, DWORD PTR a$[rsp]
  00d14	8b 44 24 30	 mov	 eax, DWORD PTR e$[rsp]
  00d18	23 c1		 and	 eax, ecx
  00d1a	89 44 24 30	 mov	 DWORD PTR e$[rsp], eax
  00d1e	8b 4c 24 20	 mov	 ecx, DWORD PTR d$[rsp]
  00d22	8b 04 24	 mov	 eax, DWORD PTR a$[rsp]
  00d25	33 c1		 xor	 eax, ecx
  00d27	89 04 24	 mov	 DWORD PTR a$[rsp], eax
  00d2a	8b 4c 24 10	 mov	 ecx, DWORD PTR b$[rsp]
  00d2e	8b 44 24 30	 mov	 eax, DWORD PTR e$[rsp]
  00d32	33 c1		 xor	 eax, ecx
  00d34	89 44 24 30	 mov	 DWORD PTR e$[rsp], eax
  00d38	8b 4c 24 20	 mov	 ecx, DWORD PTR d$[rsp]
  00d3c	8b 44 24 10	 mov	 eax, DWORD PTR b$[rsp]
  00d40	0b c1		 or	 eax, ecx
  00d42	89 44 24 10	 mov	 DWORD PTR b$[rsp], eax
  00d46	8b 4c 24 30	 mov	 ecx, DWORD PTR e$[rsp]
  00d4a	8b 44 24 24	 mov	 eax, DWORD PTR c$[rsp]
  00d4e	33 c1		 xor	 eax, ecx
  00d50	89 44 24 24	 mov	 DWORD PTR c$[rsp], eax
  00d54	8b 0c 24	 mov	 ecx, DWORD PTR a$[rsp]
  00d57	8b 44 24 10	 mov	 eax, DWORD PTR b$[rsp]
  00d5b	33 c1		 xor	 eax, ecx
  00d5d	89 44 24 10	 mov	 DWORD PTR b$[rsp], eax
  00d61	8b 4c 24 24	 mov	 ecx, DWORD PTR c$[rsp]
  00d65	8b 04 24	 mov	 eax, DWORD PTR a$[rsp]
  00d68	0b c1		 or	 eax, ecx
  00d6a	89 04 24	 mov	 DWORD PTR a$[rsp], eax
  00d6d	8b 4c 24 24	 mov	 ecx, DWORD PTR c$[rsp]
  00d71	8b 44 24 10	 mov	 eax, DWORD PTR b$[rsp]
  00d75	33 c1		 xor	 eax, ecx
  00d77	89 44 24 10	 mov	 DWORD PTR b$[rsp], eax
  00d7b	8b 0c 24	 mov	 ecx, DWORD PTR a$[rsp]
  00d7e	8b 44 24 20	 mov	 eax, DWORD PTR d$[rsp]
  00d82	33 c1		 xor	 eax, ecx
  00d84	89 44 24 20	 mov	 DWORD PTR d$[rsp], eax
  00d88	8b 4c 24 30	 mov	 ecx, DWORD PTR e$[rsp]
  00d8c	8b 04 24	 mov	 eax, DWORD PTR a$[rsp]
  00d8f	0b c1		 or	 eax, ecx
  00d91	89 04 24	 mov	 DWORD PTR a$[rsp], eax
  00d94	8b 4c 24 10	 mov	 ecx, DWORD PTR b$[rsp]
  00d98	8b 04 24	 mov	 eax, DWORD PTR a$[rsp]
  00d9b	33 c1		 xor	 eax, ecx
  00d9d	89 04 24	 mov	 DWORD PTR a$[rsp], eax
  00da0	8b 4c 24 30	 mov	 ecx, DWORD PTR e$[rsp]
  00da4	8b 44 24 20	 mov	 eax, DWORD PTR d$[rsp]
  00da8	33 c1		 xor	 eax, ecx
  00daa	89 44 24 20	 mov	 DWORD PTR d$[rsp], eax
  00dae	8b 0c 24	 mov	 ecx, DWORD PTR a$[rsp]
  00db1	8b 44 24 20	 mov	 eax, DWORD PTR d$[rsp]
  00db5	33 c1		 xor	 eax, ecx
  00db7	89 44 24 20	 mov	 DWORD PTR d$[rsp], eax
  00dbb	8b 44 24 30	 mov	 eax, DWORD PTR e$[rsp]
  00dbf	f7 d0		 not	 eax
  00dc1	89 44 24 30	 mov	 DWORD PTR e$[rsp], eax
  00dc5	8b 4c 24 20	 mov	 ecx, DWORD PTR d$[rsp]
  00dc9	8b 44 24 10	 mov	 eax, DWORD PTR b$[rsp]
  00dcd	23 c1		 and	 eax, ecx
  00dcf	89 44 24 10	 mov	 DWORD PTR b$[rsp], eax
  00dd3	8b 4c 24 30	 mov	 ecx, DWORD PTR e$[rsp]
  00dd7	8b 44 24 10	 mov	 eax, DWORD PTR b$[rsp]
  00ddb	33 c1		 xor	 eax, ecx
  00ddd	89 44 24 10	 mov	 DWORD PTR b$[rsp], eax
  00de1	8b 04 24	 mov	 eax, DWORD PTR a$[rsp]
  00de4	c1 e0 0d	 shl	 eax, 13
  00de7	8b 0c 24	 mov	 ecx, DWORD PTR a$[rsp]
  00dea	c1 e9 13	 shr	 ecx, 19
  00ded	0b c1		 or	 eax, ecx
  00def	89 04 24	 mov	 DWORD PTR a$[rsp], eax
  00df2	8b 44 24 20	 mov	 eax, DWORD PTR d$[rsp]
  00df6	c1 e0 03	 shl	 eax, 3
  00df9	8b 4c 24 20	 mov	 ecx, DWORD PTR d$[rsp]
  00dfd	c1 e9 1d	 shr	 ecx, 29
  00e00	0b c1		 or	 eax, ecx
  00e02	89 44 24 20	 mov	 DWORD PTR d$[rsp], eax
  00e06	8b 44 24 20	 mov	 eax, DWORD PTR d$[rsp]
  00e0a	8b 54 24 10	 mov	 edx, DWORD PTR b$[rsp]
  00e0e	33 d0		 xor	 edx, eax
  00e10	8b 04 24	 mov	 eax, DWORD PTR a$[rsp]
  00e13	c1 e0 03	 shl	 eax, 3
  00e16	33 d0		 xor	 edx, eax
  00e18	c1 e2 07	 shl	 edx, 7
  00e1b	8b 44 24 20	 mov	 eax, DWORD PTR d$[rsp]
  00e1f	8b 4c 24 10	 mov	 ecx, DWORD PTR b$[rsp]
  00e23	33 c8		 xor	 ecx, eax
  00e25	8b 04 24	 mov	 eax, DWORD PTR a$[rsp]
  00e28	c1 e0 03	 shl	 eax, 3
  00e2b	33 c8		 xor	 ecx, eax
  00e2d	c1 e9 19	 shr	 ecx, 25
  00e30	8b c2		 mov	 eax, edx
  00e32	0b c1		 or	 eax, ecx
  00e34	89 44 24 10	 mov	 DWORD PTR b$[rsp], eax
  00e38	8b 04 24	 mov	 eax, DWORD PTR a$[rsp]
  00e3b	8b 54 24 24	 mov	 edx, DWORD PTR c$[rsp]
  00e3f	33 d0		 xor	 edx, eax
  00e41	33 54 24 20	 xor	 edx, DWORD PTR d$[rsp]
  00e45	d1 e2		 shl	 edx, 1
  00e47	8b 04 24	 mov	 eax, DWORD PTR a$[rsp]
  00e4a	8b 4c 24 24	 mov	 ecx, DWORD PTR c$[rsp]
  00e4e	33 c8		 xor	 ecx, eax
  00e50	33 4c 24 20	 xor	 ecx, DWORD PTR d$[rsp]
  00e54	c1 e9 1f	 shr	 ecx, 31
  00e57	8b c2		 mov	 eax, edx
  00e59	0b c1		 or	 eax, ecx
  00e5b	89 44 24 24	 mov	 DWORD PTR c$[rsp], eax
  00e5f	8b 44 24 24	 mov	 eax, DWORD PTR c$[rsp]
  00e63	8b 14 24	 mov	 edx, DWORD PTR a$[rsp]
  00e66	33 d0		 xor	 edx, eax
  00e68	33 54 24 10	 xor	 edx, DWORD PTR b$[rsp]
  00e6c	c1 e2 05	 shl	 edx, 5
  00e6f	8b 44 24 24	 mov	 eax, DWORD PTR c$[rsp]
  00e73	8b 0c 24	 mov	 ecx, DWORD PTR a$[rsp]
  00e76	33 c8		 xor	 ecx, eax
  00e78	33 4c 24 10	 xor	 ecx, DWORD PTR b$[rsp]
  00e7c	c1 e9 1b	 shr	 ecx, 27
  00e7f	8b c2		 mov	 eax, edx
  00e81	0b c1		 or	 eax, ecx
  00e83	89 04 24	 mov	 DWORD PTR a$[rsp], eax
  00e86	8b 44 24 10	 mov	 eax, DWORD PTR b$[rsp]
  00e8a	8b 54 24 20	 mov	 edx, DWORD PTR d$[rsp]
  00e8e	33 d0		 xor	 edx, eax
  00e90	8b 44 24 24	 mov	 eax, DWORD PTR c$[rsp]
  00e94	c1 e0 07	 shl	 eax, 7
  00e97	33 d0		 xor	 edx, eax
  00e99	c1 e2 16	 shl	 edx, 22
  00e9c	8b 44 24 10	 mov	 eax, DWORD PTR b$[rsp]
  00ea0	8b 4c 24 20	 mov	 ecx, DWORD PTR d$[rsp]
  00ea4	33 c8		 xor	 ecx, eax
  00ea6	8b 44 24 24	 mov	 eax, DWORD PTR c$[rsp]
  00eaa	c1 e0 07	 shl	 eax, 7
  00ead	33 c8		 xor	 ecx, eax
  00eaf	c1 e9 0a	 shr	 ecx, 10
  00eb2	8b c2		 mov	 eax, edx
  00eb4	0b c1		 or	 eax, ecx
  00eb6	89 44 24 20	 mov	 DWORD PTR d$[rsp], eax

; 758  : 		afterS6(KX); afterS6(S7);

  00eba	48 8b 44 24 18	 mov	 rax, QWORD PTR k$[rsp]
  00ebf	8b 48 70	 mov	 ecx, DWORD PTR [rax+112]
  00ec2	8b 04 24	 mov	 eax, DWORD PTR a$[rsp]
  00ec5	33 c1		 xor	 eax, ecx
  00ec7	89 04 24	 mov	 DWORD PTR a$[rsp], eax
  00eca	48 8b 44 24 18	 mov	 rax, QWORD PTR k$[rsp]
  00ecf	8b 48 74	 mov	 ecx, DWORD PTR [rax+116]
  00ed2	8b 44 24 24	 mov	 eax, DWORD PTR c$[rsp]
  00ed6	33 c1		 xor	 eax, ecx
  00ed8	89 44 24 24	 mov	 DWORD PTR c$[rsp], eax
  00edc	48 8b 44 24 18	 mov	 rax, QWORD PTR k$[rsp]
  00ee1	8b 48 78	 mov	 ecx, DWORD PTR [rax+120]
  00ee4	8b 44 24 20	 mov	 eax, DWORD PTR d$[rsp]
  00ee8	33 c1		 xor	 eax, ecx
  00eea	89 44 24 20	 mov	 DWORD PTR d$[rsp], eax
  00eee	48 8b 44 24 18	 mov	 rax, QWORD PTR k$[rsp]
  00ef3	8b 48 7c	 mov	 ecx, DWORD PTR [rax+124]
  00ef6	8b 44 24 10	 mov	 eax, DWORD PTR b$[rsp]
  00efa	33 c1		 xor	 eax, ecx
  00efc	89 44 24 10	 mov	 DWORD PTR b$[rsp], eax
  00f00	8b 44 24 20	 mov	 eax, DWORD PTR d$[rsp]
  00f04	89 44 24 30	 mov	 DWORD PTR e$[rsp], eax
  00f08	8b 4c 24 24	 mov	 ecx, DWORD PTR c$[rsp]
  00f0c	8b 44 24 20	 mov	 eax, DWORD PTR d$[rsp]
  00f10	23 c1		 and	 eax, ecx
  00f12	89 44 24 20	 mov	 DWORD PTR d$[rsp], eax
  00f16	8b 4c 24 10	 mov	 ecx, DWORD PTR b$[rsp]
  00f1a	8b 44 24 20	 mov	 eax, DWORD PTR d$[rsp]
  00f1e	33 c1		 xor	 eax, ecx
  00f20	89 44 24 20	 mov	 DWORD PTR d$[rsp], eax
  00f24	8b 4c 24 24	 mov	 ecx, DWORD PTR c$[rsp]
  00f28	8b 44 24 10	 mov	 eax, DWORD PTR b$[rsp]
  00f2c	23 c1		 and	 eax, ecx
  00f2e	89 44 24 10	 mov	 DWORD PTR b$[rsp], eax
  00f32	8b 4c 24 20	 mov	 ecx, DWORD PTR d$[rsp]
  00f36	8b 44 24 30	 mov	 eax, DWORD PTR e$[rsp]
  00f3a	33 c1		 xor	 eax, ecx
  00f3c	89 44 24 30	 mov	 DWORD PTR e$[rsp], eax
  00f40	8b 4c 24 24	 mov	 ecx, DWORD PTR c$[rsp]
  00f44	8b 44 24 20	 mov	 eax, DWORD PTR d$[rsp]
  00f48	33 c1		 xor	 eax, ecx
  00f4a	89 44 24 20	 mov	 DWORD PTR d$[rsp], eax
  00f4e	8b 0c 24	 mov	 ecx, DWORD PTR a$[rsp]
  00f51	8b 44 24 24	 mov	 eax, DWORD PTR c$[rsp]
  00f55	33 c1		 xor	 eax, ecx
  00f57	89 44 24 24	 mov	 DWORD PTR c$[rsp], eax
  00f5b	8b 4c 24 30	 mov	 ecx, DWORD PTR e$[rsp]
  00f5f	8b 04 24	 mov	 eax, DWORD PTR a$[rsp]
  00f62	0b c1		 or	 eax, ecx
  00f64	89 04 24	 mov	 DWORD PTR a$[rsp], eax
  00f67	8b 4c 24 20	 mov	 ecx, DWORD PTR d$[rsp]
  00f6b	8b 04 24	 mov	 eax, DWORD PTR a$[rsp]
  00f6e	33 c1		 xor	 eax, ecx
  00f70	89 04 24	 mov	 DWORD PTR a$[rsp], eax
  00f73	8b 4c 24 24	 mov	 ecx, DWORD PTR c$[rsp]
  00f77	8b 44 24 10	 mov	 eax, DWORD PTR b$[rsp]
  00f7b	33 c1		 xor	 eax, ecx
  00f7d	89 44 24 10	 mov	 DWORD PTR b$[rsp], eax
  00f81	8b 4c 24 10	 mov	 ecx, DWORD PTR b$[rsp]
  00f85	8b 44 24 20	 mov	 eax, DWORD PTR d$[rsp]
  00f89	33 c1		 xor	 eax, ecx
  00f8b	89 44 24 20	 mov	 DWORD PTR d$[rsp], eax
  00f8f	8b 0c 24	 mov	 ecx, DWORD PTR a$[rsp]
  00f92	8b 44 24 10	 mov	 eax, DWORD PTR b$[rsp]
  00f96	23 c1		 and	 eax, ecx
  00f98	89 44 24 10	 mov	 DWORD PTR b$[rsp], eax
  00f9c	8b 4c 24 30	 mov	 ecx, DWORD PTR e$[rsp]
  00fa0	8b 44 24 10	 mov	 eax, DWORD PTR b$[rsp]
  00fa4	33 c1		 xor	 eax, ecx
  00fa6	89 44 24 10	 mov	 DWORD PTR b$[rsp], eax
  00faa	8b 4c 24 20	 mov	 ecx, DWORD PTR d$[rsp]
  00fae	8b 44 24 30	 mov	 eax, DWORD PTR e$[rsp]
  00fb2	33 c1		 xor	 eax, ecx
  00fb4	89 44 24 30	 mov	 DWORD PTR e$[rsp], eax
  00fb8	8b 0c 24	 mov	 ecx, DWORD PTR a$[rsp]
  00fbb	8b 44 24 20	 mov	 eax, DWORD PTR d$[rsp]
  00fbf	23 c1		 and	 eax, ecx
  00fc1	89 44 24 20	 mov	 DWORD PTR d$[rsp], eax
  00fc5	8b 44 24 30	 mov	 eax, DWORD PTR e$[rsp]
  00fc9	f7 d0		 not	 eax
  00fcb	89 44 24 30	 mov	 DWORD PTR e$[rsp], eax
  00fcf	8b 4c 24 30	 mov	 ecx, DWORD PTR e$[rsp]
  00fd3	8b 44 24 20	 mov	 eax, DWORD PTR d$[rsp]
  00fd7	33 c1		 xor	 eax, ecx
  00fd9	89 44 24 20	 mov	 DWORD PTR d$[rsp], eax
  00fdd	8b 0c 24	 mov	 ecx, DWORD PTR a$[rsp]
  00fe0	8b 44 24 30	 mov	 eax, DWORD PTR e$[rsp]
  00fe4	23 c1		 and	 eax, ecx
  00fe6	89 44 24 30	 mov	 DWORD PTR e$[rsp], eax
  00fea	8b 4c 24 10	 mov	 ecx, DWORD PTR b$[rsp]
  00fee	8b 44 24 24	 mov	 eax, DWORD PTR c$[rsp]
  00ff2	33 c1		 xor	 eax, ecx
  00ff4	89 44 24 24	 mov	 DWORD PTR c$[rsp], eax
  00ff8	8b 4c 24 24	 mov	 ecx, DWORD PTR c$[rsp]
  00ffc	8b 44 24 30	 mov	 eax, DWORD PTR e$[rsp]
  01000	33 c1		 xor	 eax, ecx
  01002	89 44 24 30	 mov	 DWORD PTR e$[rsp], eax

; 759  : 
; 760  : 		if (i == 4)

  01006	83 7c 24 04 04	 cmp	 DWORD PTR i$[rsp], 4
  0100b	75 05		 jne	 SHORT $LN1@serpent_en

; 761  : 			break;

  0100d	e9 25 01 00 00	 jmp	 $LN2@serpent_en
$LN1@serpent_en:

; 762  : 
; 763  : 		++i;

  01012	8b 44 24 04	 mov	 eax, DWORD PTR i$[rsp]
  01016	83 c0 01	 add	 eax, 1
  01019	89 44 24 04	 mov	 DWORD PTR i$[rsp], eax

; 764  : 		c = b;

  0101d	8b 44 24 10	 mov	 eax, DWORD PTR b$[rsp]
  01021	89 44 24 24	 mov	 DWORD PTR c$[rsp], eax

; 765  : 		b = e;

  01025	8b 44 24 30	 mov	 eax, DWORD PTR e$[rsp]
  01029	89 44 24 10	 mov	 DWORD PTR b$[rsp], eax

; 766  : 		e = d;

  0102d	8b 44 24 20	 mov	 eax, DWORD PTR d$[rsp]
  01031	89 44 24 30	 mov	 DWORD PTR e$[rsp], eax

; 767  : 		d = a;

  01035	8b 04 24	 mov	 eax, DWORD PTR a$[rsp]
  01038	89 44 24 20	 mov	 DWORD PTR d$[rsp], eax

; 768  : 		a = e;

  0103c	8b 44 24 30	 mov	 eax, DWORD PTR e$[rsp]
  01040	89 04 24	 mov	 DWORD PTR a$[rsp], eax

; 769  : 		k += 32;

  01043	48 8b 44 24 18	 mov	 rax, QWORD PTR k$[rsp]
  01048	48 05 80 00 00
	00		 add	 rax, 128		; 00000080H
  0104e	48 89 44 24 18	 mov	 QWORD PTR k$[rsp], rax

; 770  : 		beforeS0(LT);

  01053	8b 04 24	 mov	 eax, DWORD PTR a$[rsp]
  01056	c1 e0 0d	 shl	 eax, 13
  01059	8b 0c 24	 mov	 ecx, DWORD PTR a$[rsp]
  0105c	c1 e9 13	 shr	 ecx, 19
  0105f	0b c1		 or	 eax, ecx
  01061	89 04 24	 mov	 DWORD PTR a$[rsp], eax
  01064	8b 44 24 24	 mov	 eax, DWORD PTR c$[rsp]
  01068	c1 e0 03	 shl	 eax, 3
  0106b	8b 4c 24 24	 mov	 ecx, DWORD PTR c$[rsp]
  0106f	c1 e9 1d	 shr	 ecx, 29
  01072	0b c1		 or	 eax, ecx
  01074	89 44 24 24	 mov	 DWORD PTR c$[rsp], eax
  01078	8b 44 24 24	 mov	 eax, DWORD PTR c$[rsp]
  0107c	8b 54 24 20	 mov	 edx, DWORD PTR d$[rsp]
  01080	33 d0		 xor	 edx, eax
  01082	8b 04 24	 mov	 eax, DWORD PTR a$[rsp]
  01085	c1 e0 03	 shl	 eax, 3
  01088	33 d0		 xor	 edx, eax
  0108a	c1 e2 07	 shl	 edx, 7
  0108d	8b 44 24 24	 mov	 eax, DWORD PTR c$[rsp]
  01091	8b 4c 24 20	 mov	 ecx, DWORD PTR d$[rsp]
  01095	33 c8		 xor	 ecx, eax
  01097	8b 04 24	 mov	 eax, DWORD PTR a$[rsp]
  0109a	c1 e0 03	 shl	 eax, 3
  0109d	33 c8		 xor	 ecx, eax
  0109f	c1 e9 19	 shr	 ecx, 25
  010a2	8b c2		 mov	 eax, edx
  010a4	0b c1		 or	 eax, ecx
  010a6	89 44 24 20	 mov	 DWORD PTR d$[rsp], eax
  010aa	8b 04 24	 mov	 eax, DWORD PTR a$[rsp]
  010ad	8b 54 24 10	 mov	 edx, DWORD PTR b$[rsp]
  010b1	33 d0		 xor	 edx, eax
  010b3	33 54 24 24	 xor	 edx, DWORD PTR c$[rsp]
  010b7	d1 e2		 shl	 edx, 1
  010b9	8b 04 24	 mov	 eax, DWORD PTR a$[rsp]
  010bc	8b 4c 24 10	 mov	 ecx, DWORD PTR b$[rsp]
  010c0	33 c8		 xor	 ecx, eax
  010c2	33 4c 24 24	 xor	 ecx, DWORD PTR c$[rsp]
  010c6	c1 e9 1f	 shr	 ecx, 31
  010c9	8b c2		 mov	 eax, edx
  010cb	0b c1		 or	 eax, ecx
  010cd	89 44 24 10	 mov	 DWORD PTR b$[rsp], eax
  010d1	8b 44 24 10	 mov	 eax, DWORD PTR b$[rsp]
  010d5	8b 14 24	 mov	 edx, DWORD PTR a$[rsp]
  010d8	33 d0		 xor	 edx, eax
  010da	33 54 24 20	 xor	 edx, DWORD PTR d$[rsp]
  010de	c1 e2 05	 shl	 edx, 5
  010e1	8b 44 24 10	 mov	 eax, DWORD PTR b$[rsp]
  010e5	8b 0c 24	 mov	 ecx, DWORD PTR a$[rsp]
  010e8	33 c8		 xor	 ecx, eax
  010ea	33 4c 24 20	 xor	 ecx, DWORD PTR d$[rsp]
  010ee	c1 e9 1b	 shr	 ecx, 27
  010f1	8b c2		 mov	 eax, edx
  010f3	0b c1		 or	 eax, ecx
  010f5	89 04 24	 mov	 DWORD PTR a$[rsp], eax
  010f8	8b 44 24 20	 mov	 eax, DWORD PTR d$[rsp]
  010fc	8b 54 24 24	 mov	 edx, DWORD PTR c$[rsp]
  01100	33 d0		 xor	 edx, eax
  01102	8b 44 24 10	 mov	 eax, DWORD PTR b$[rsp]
  01106	c1 e0 07	 shl	 eax, 7
  01109	33 d0		 xor	 edx, eax
  0110b	c1 e2 16	 shl	 edx, 22
  0110e	8b 44 24 20	 mov	 eax, DWORD PTR d$[rsp]
  01112	8b 4c 24 24	 mov	 ecx, DWORD PTR c$[rsp]
  01116	33 c8		 xor	 ecx, eax
  01118	8b 44 24 10	 mov	 eax, DWORD PTR b$[rsp]
  0111c	c1 e0 07	 shl	 eax, 7
  0111f	33 c8		 xor	 ecx, eax
  01121	c1 e9 0a	 shr	 ecx, 10
  01124	8b c2		 mov	 eax, edx
  01126	0b c1		 or	 eax, ecx
  01128	89 44 24 24	 mov	 DWORD PTR c$[rsp], eax

; 771  : 	}
; 772  : 	while (1);

  0112c	33 c0		 xor	 eax, eax
  0112e	83 f8 01	 cmp	 eax, 1
  01131	0f 85 34 ef ff
	ff		 jne	 $LN4@serpent_en
$LN2@serpent_en:

; 773  : 
; 774  : 	afterS7(KX);

  01137	48 8b 44 24 18	 mov	 rax, QWORD PTR k$[rsp]
  0113c	8b 88 80 00 00
	00		 mov	 ecx, DWORD PTR [rax+128]
  01142	8b 44 24 20	 mov	 eax, DWORD PTR d$[rsp]
  01146	33 c1		 xor	 eax, ecx
  01148	89 44 24 20	 mov	 DWORD PTR d$[rsp], eax
  0114c	48 8b 44 24 18	 mov	 rax, QWORD PTR k$[rsp]
  01151	8b 88 84 00 00
	00		 mov	 ecx, DWORD PTR [rax+132]
  01157	8b 44 24 30	 mov	 eax, DWORD PTR e$[rsp]
  0115b	33 c1		 xor	 eax, ecx
  0115d	89 44 24 30	 mov	 DWORD PTR e$[rsp], eax
  01161	48 8b 44 24 18	 mov	 rax, QWORD PTR k$[rsp]
  01166	8b 88 88 00 00
	00		 mov	 ecx, DWORD PTR [rax+136]
  0116c	8b 44 24 10	 mov	 eax, DWORD PTR b$[rsp]
  01170	33 c1		 xor	 eax, ecx
  01172	89 44 24 10	 mov	 DWORD PTR b$[rsp], eax
  01176	48 8b 44 24 18	 mov	 rax, QWORD PTR k$[rsp]
  0117b	8b 88 8c 00 00
	00		 mov	 ecx, DWORD PTR [rax+140]
  01181	8b 04 24	 mov	 eax, DWORD PTR a$[rsp]
  01184	33 c1		 xor	 eax, ecx
  01186	89 04 24	 mov	 DWORD PTR a$[rsp], eax

; 775  : 	
; 776  :     out[0] = LE32(d);

  01189	48 8b 4c 24 28	 mov	 rcx, QWORD PTR out$[rsp]
  0118e	8b 44 24 20	 mov	 eax, DWORD PTR d$[rsp]
  01192	89 01		 mov	 DWORD PTR [rcx], eax

; 777  : 	out[1] = LE32(e);

  01194	48 8b 4c 24 28	 mov	 rcx, QWORD PTR out$[rsp]
  01199	8b 44 24 30	 mov	 eax, DWORD PTR e$[rsp]
  0119d	89 41 04	 mov	 DWORD PTR [rcx+4], eax

; 778  : 	out[2] = LE32(b);

  011a0	48 8b 4c 24 28	 mov	 rcx, QWORD PTR out$[rsp]
  011a5	8b 44 24 10	 mov	 eax, DWORD PTR b$[rsp]
  011a9	89 41 08	 mov	 DWORD PTR [rcx+8], eax

; 779  : 	out[3] = LE32(a);

  011ac	48 8b 4c 24 28	 mov	 rcx, QWORD PTR out$[rsp]
  011b1	8b 04 24	 mov	 eax, DWORD PTR a$[rsp]
  011b4	89 41 0c	 mov	 DWORD PTR [rcx+12], eax

; 780  : }

  011b7	48 83 c4 48	 add	 rsp, 72			; 00000048H
  011bb	c3		 ret	 0
serpent_encrypt ENDP
_TEXT	ENDS
PUBLIC	serpent_set_key
;	COMDAT pdata
pdata	SEGMENT
$pdata$serpent_set_key DD imagerel $LN13
	DD	imagerel $LN13+3519
	DD	imagerel $unwind$serpent_set_key
pdata	ENDS
;	COMDAT xdata
xdata	SEGMENT
$unwind$serpent_set_key DD 011201H
	DD	06212H
; Function compile flags: /Odtp
xdata	ENDS
;	COMDAT serpent_set_key
_TEXT	SEGMENT
a$ = 0
i$ = 4
b$ = 8
k$ = 16
d$ = 24
c$ = 28
t$ = 32
e$ = 36
userKey$ = 64
keylen$ = 72
ks$ = 80
serpent_set_key PROC					; COMDAT

; 634  : {

$LN13:
  00000	4c 89 44 24 18	 mov	 QWORD PTR [rsp+24], r8
  00005	89 54 24 10	 mov	 DWORD PTR [rsp+16], edx
  00009	48 89 4c 24 08	 mov	 QWORD PTR [rsp+8], rcx
  0000e	48 83 ec 38	 sub	 rsp, 56			; 00000038H

; 635  : 	unsigned __int32 a,b,c,d,e;
; 636  : 	unsigned __int32 *k = (unsigned __int32 *)ks;

  00012	48 8b 44 24 50	 mov	 rax, QWORD PTR ks$[rsp]
  00017	48 89 44 24 10	 mov	 QWORD PTR k$[rsp], rax

; 637  : 	unsigned __int32 t;
; 638  : 	int i;
; 639  : 
; 640  : 	for (i = 0; i < keylen / (int)sizeof(__int32); i++)

  0001c	c7 44 24 04 00
	00 00 00	 mov	 DWORD PTR i$[rsp], 0
  00024	eb 0b		 jmp	 SHORT $LN10@serpent_se
$LN9@serpent_se:
  00026	8b 44 24 04	 mov	 eax, DWORD PTR i$[rsp]
  0002a	83 c0 01	 add	 eax, 1
  0002d	89 44 24 04	 mov	 DWORD PTR i$[rsp], eax
$LN10@serpent_se:
  00031	8b 44 24 48	 mov	 eax, DWORD PTR keylen$[rsp]
  00035	99		 cdq
  00036	83 e2 03	 and	 edx, 3
  00039	03 c2		 add	 eax, edx
  0003b	c1 f8 02	 sar	 eax, 2
  0003e	39 44 24 04	 cmp	 DWORD PTR i$[rsp], eax
  00042	7d 1d		 jge	 SHORT $LN8@serpent_se

; 641  : 		k[i] = LE32(((unsigned __int32*)userKey)[i]);

  00044	4c 63 44 24 04	 movsxd	 r8, DWORD PTR i$[rsp]
  00049	48 63 54 24 04	 movsxd	 rdx, DWORD PTR i$[rsp]
  0004e	48 8b 4c 24 10	 mov	 rcx, QWORD PTR k$[rsp]
  00053	48 8b 44 24 40	 mov	 rax, QWORD PTR userKey$[rsp]
  00058	42 8b 04 80	 mov	 eax, DWORD PTR [rax+r8*4]
  0005c	89 04 91	 mov	 DWORD PTR [rcx+rdx*4], eax
  0005f	eb c5		 jmp	 SHORT $LN9@serpent_se
$LN8@serpent_se:

; 642  : 
; 643  : 	if (keylen < 32)

  00061	83 7c 24 48 20	 cmp	 DWORD PTR keylen$[rsp], 32 ; 00000020H
  00066	7d 52		 jge	 SHORT $LN7@serpent_se

; 644  : 		k[keylen/4] |= (unsigned __int32)1 << ((keylen%4)*8);

  00068	8b 44 24 48	 mov	 eax, DWORD PTR keylen$[rsp]
  0006c	99		 cdq
  0006d	83 e2 03	 and	 edx, 3
  00070	03 c2		 add	 eax, edx
  00072	c1 f8 02	 sar	 eax, 2
  00075	4c 63 c0	 movsxd	 r8, eax
  00078	8b 44 24 48	 mov	 eax, DWORD PTR keylen$[rsp]
  0007c	99		 cdq
  0007d	83 e2 03	 and	 edx, 3
  00080	03 c2		 add	 eax, edx
  00082	83 e0 03	 and	 eax, 3
  00085	2b c2		 sub	 eax, edx
  00087	8b c8		 mov	 ecx, eax
  00089	c1 e1 03	 shl	 ecx, 3
  0008c	b8 01 00 00 00	 mov	 eax, 1
  00091	d3 e0		 shl	 eax, cl
  00093	8b c8		 mov	 ecx, eax
  00095	48 8b 44 24 10	 mov	 rax, QWORD PTR k$[rsp]
  0009a	46 8b 04 80	 mov	 r8d, DWORD PTR [rax+r8*4]
  0009e	44 0b c1	 or	 r8d, ecx
  000a1	8b 44 24 48	 mov	 eax, DWORD PTR keylen$[rsp]
  000a5	99		 cdq
  000a6	83 e2 03	 and	 edx, 3
  000a9	03 c2		 add	 eax, edx
  000ab	c1 f8 02	 sar	 eax, 2
  000ae	48 63 c8	 movsxd	 rcx, eax
  000b1	48 8b 44 24 10	 mov	 rax, QWORD PTR k$[rsp]
  000b6	44 89 04 88	 mov	 DWORD PTR [rax+rcx*4], r8d
$LN7@serpent_se:

; 645  : 
; 646  : 	k += 8;

  000ba	48 8b 44 24 10	 mov	 rax, QWORD PTR k$[rsp]
  000bf	48 83 c0 20	 add	 rax, 32			; 00000020H
  000c3	48 89 44 24 10	 mov	 QWORD PTR k$[rsp], rax

; 647  : 	t = k[-1];

  000c8	48 8b 44 24 10	 mov	 rax, QWORD PTR k$[rsp]
  000cd	8b 40 fc	 mov	 eax, DWORD PTR [rax-4]
  000d0	89 44 24 20	 mov	 DWORD PTR t$[rsp], eax

; 648  : 	for (i = 0; i < 132; ++i)

  000d4	c7 44 24 04 00
	00 00 00	 mov	 DWORD PTR i$[rsp], 0
  000dc	eb 0b		 jmp	 SHORT $LN6@serpent_se
$LN5@serpent_se:
  000de	8b 44 24 04	 mov	 eax, DWORD PTR i$[rsp]
  000e2	83 c0 01	 add	 eax, 1
  000e5	89 44 24 04	 mov	 DWORD PTR i$[rsp], eax
$LN6@serpent_se:
  000e9	81 7c 24 04 84
	00 00 00	 cmp	 DWORD PTR i$[rsp], 132	; 00000084H
  000f1	0f 8d b9 00 00
	00		 jge	 $LN4@serpent_se

; 649  : 		k[i] = t = rotlFixed(k[i-8] ^ k[i-5] ^ k[i-3] ^ t ^ 0x9e3779b9 ^ i, 11);

  000f7	8b 44 24 04	 mov	 eax, DWORD PTR i$[rsp]
  000fb	83 e8 08	 sub	 eax, 8
  000fe	4c 63 c0	 movsxd	 r8, eax
  00101	8b 44 24 04	 mov	 eax, DWORD PTR i$[rsp]
  00105	83 e8 05	 sub	 eax, 5
  00108	48 63 d0	 movsxd	 rdx, eax
  0010b	48 8b 4c 24 10	 mov	 rcx, QWORD PTR k$[rsp]
  00110	48 8b 44 24 10	 mov	 rax, QWORD PTR k$[rsp]
  00115	8b 04 90	 mov	 eax, DWORD PTR [rax+rdx*4]
  00118	46 8b 0c 81	 mov	 r9d, DWORD PTR [rcx+r8*4]
  0011c	44 33 c8	 xor	 r9d, eax
  0011f	8b 44 24 04	 mov	 eax, DWORD PTR i$[rsp]
  00123	83 e8 03	 sub	 eax, 3
  00126	48 63 c8	 movsxd	 rcx, eax
  00129	48 8b 44 24 10	 mov	 rax, QWORD PTR k$[rsp]
  0012e	44 33 0c 88	 xor	 r9d, DWORD PTR [rax+rcx*4]
  00132	44 33 4c 24 20	 xor	 r9d, DWORD PTR t$[rsp]
  00137	41 81 f1 b9 79
	37 9e		 xor	 r9d, -1640531527	; 9e3779b9H
  0013e	44 33 4c 24 04	 xor	 r9d, DWORD PTR i$[rsp]
  00143	41 c1 e1 0b	 shl	 r9d, 11
  00147	8b 44 24 04	 mov	 eax, DWORD PTR i$[rsp]
  0014b	83 e8 08	 sub	 eax, 8
  0014e	4c 63 c0	 movsxd	 r8, eax
  00151	8b 44 24 04	 mov	 eax, DWORD PTR i$[rsp]
  00155	83 e8 05	 sub	 eax, 5
  00158	48 63 d0	 movsxd	 rdx, eax
  0015b	48 8b 4c 24 10	 mov	 rcx, QWORD PTR k$[rsp]
  00160	48 8b 44 24 10	 mov	 rax, QWORD PTR k$[rsp]
  00165	8b 04 90	 mov	 eax, DWORD PTR [rax+rdx*4]
  00168	42 8b 0c 81	 mov	 ecx, DWORD PTR [rcx+r8*4]
  0016c	33 c8		 xor	 ecx, eax
  0016e	8b 44 24 04	 mov	 eax, DWORD PTR i$[rsp]
  00172	83 e8 03	 sub	 eax, 3
  00175	48 63 d0	 movsxd	 rdx, eax
  00178	48 8b 44 24 10	 mov	 rax, QWORD PTR k$[rsp]
  0017d	33 0c 90	 xor	 ecx, DWORD PTR [rax+rdx*4]
  00180	33 4c 24 20	 xor	 ecx, DWORD PTR t$[rsp]
  00184	81 f1 b9 79 37
	9e		 xor	 ecx, -1640531527	; 9e3779b9H
  0018a	33 4c 24 04	 xor	 ecx, DWORD PTR i$[rsp]
  0018e	c1 e9 15	 shr	 ecx, 21
  00191	41 8b c1	 mov	 eax, r9d
  00194	0b c1		 or	 eax, ecx
  00196	89 44 24 20	 mov	 DWORD PTR t$[rsp], eax
  0019a	48 63 54 24 04	 movsxd	 rdx, DWORD PTR i$[rsp]
  0019f	48 8b 4c 24 10	 mov	 rcx, QWORD PTR k$[rsp]
  001a4	8b 44 24 20	 mov	 eax, DWORD PTR t$[rsp]
  001a8	89 04 91	 mov	 DWORD PTR [rcx+rdx*4], eax
  001ab	e9 2e ff ff ff	 jmp	 $LN5@serpent_se
$LN4@serpent_se:

; 650  : 	k -= 20;

  001b0	48 8b 44 24 10	 mov	 rax, QWORD PTR k$[rsp]
  001b5	48 83 e8 50	 sub	 rax, 80			; 00000050H
  001b9	48 89 44 24 10	 mov	 QWORD PTR k$[rsp], rax

; 651  : 
; 652  : #define LK(r, a, b, c, d, e)	{\
; 653  : 	a = k[(8-r)*4 + 0];		\
; 654  : 	b = k[(8-r)*4 + 1];		\
; 655  : 	c = k[(8-r)*4 + 2];		\
; 656  : 	d = k[(8-r)*4 + 3];}
; 657  : 
; 658  : #define SK(r, a, b, c, d, e)	{\
; 659  : 	k[(8-r)*4 + 4] = a;		\
; 660  : 	k[(8-r)*4 + 5] = b;		\
; 661  : 	k[(8-r)*4 + 6] = c;		\
; 662  : 	k[(8-r)*4 + 7] = d;}	\
; 663  : 
; 664  : 	for (i=0; i<4; i++)

  001be	c7 44 24 04 00
	00 00 00	 mov	 DWORD PTR i$[rsp], 0
  001c6	eb 0b		 jmp	 SHORT $LN3@serpent_se
$LN2@serpent_se:
  001c8	8b 44 24 04	 mov	 eax, DWORD PTR i$[rsp]
  001cc	83 c0 01	 add	 eax, 1
  001cf	89 44 24 04	 mov	 DWORD PTR i$[rsp], eax
$LN3@serpent_se:
  001d3	83 7c 24 04 04	 cmp	 DWORD PTR i$[rsp], 4
  001d8	0f 8d 8a 0a 00
	00		 jge	 $LN1@serpent_se

; 665  : 	{
; 666  : 		afterS2(LK); afterS2(S3); afterS3(SK);

  001de	48 8b 44 24 10	 mov	 rax, QWORD PTR k$[rsp]
  001e3	8b 40 50	 mov	 eax, DWORD PTR [rax+80]
  001e6	89 04 24	 mov	 DWORD PTR a$[rsp], eax
  001e9	48 8b 44 24 10	 mov	 rax, QWORD PTR k$[rsp]
  001ee	8b 40 54	 mov	 eax, DWORD PTR [rax+84]
  001f1	89 44 24 24	 mov	 DWORD PTR e$[rsp], eax
  001f5	48 8b 44 24 10	 mov	 rax, QWORD PTR k$[rsp]
  001fa	8b 40 58	 mov	 eax, DWORD PTR [rax+88]
  001fd	89 44 24 08	 mov	 DWORD PTR b$[rsp], eax
  00201	48 8b 44 24 10	 mov	 rax, QWORD PTR k$[rsp]
  00206	8b 40 5c	 mov	 eax, DWORD PTR [rax+92]
  00209	89 44 24 18	 mov	 DWORD PTR d$[rsp], eax
  0020d	8b 04 24	 mov	 eax, DWORD PTR a$[rsp]
  00210	89 44 24 1c	 mov	 DWORD PTR c$[rsp], eax
  00214	8b 4c 24 18	 mov	 ecx, DWORD PTR d$[rsp]
  00218	8b 04 24	 mov	 eax, DWORD PTR a$[rsp]
  0021b	0b c1		 or	 eax, ecx
  0021d	89 04 24	 mov	 DWORD PTR a$[rsp], eax
  00220	8b 4c 24 24	 mov	 ecx, DWORD PTR e$[rsp]
  00224	8b 44 24 18	 mov	 eax, DWORD PTR d$[rsp]
  00228	33 c1		 xor	 eax, ecx
  0022a	89 44 24 18	 mov	 DWORD PTR d$[rsp], eax
  0022e	8b 4c 24 1c	 mov	 ecx, DWORD PTR c$[rsp]
  00232	8b 44 24 24	 mov	 eax, DWORD PTR e$[rsp]
  00236	23 c1		 and	 eax, ecx
  00238	89 44 24 24	 mov	 DWORD PTR e$[rsp], eax
  0023c	8b 4c 24 08	 mov	 ecx, DWORD PTR b$[rsp]
  00240	8b 44 24 1c	 mov	 eax, DWORD PTR c$[rsp]
  00244	33 c1		 xor	 eax, ecx
  00246	89 44 24 1c	 mov	 DWORD PTR c$[rsp], eax
  0024a	8b 4c 24 18	 mov	 ecx, DWORD PTR d$[rsp]
  0024e	8b 44 24 08	 mov	 eax, DWORD PTR b$[rsp]
  00252	33 c1		 xor	 eax, ecx
  00254	89 44 24 08	 mov	 DWORD PTR b$[rsp], eax
  00258	8b 0c 24	 mov	 ecx, DWORD PTR a$[rsp]
  0025b	8b 44 24 18	 mov	 eax, DWORD PTR d$[rsp]
  0025f	23 c1		 and	 eax, ecx
  00261	89 44 24 18	 mov	 DWORD PTR d$[rsp], eax
  00265	8b 4c 24 24	 mov	 ecx, DWORD PTR e$[rsp]
  00269	8b 44 24 1c	 mov	 eax, DWORD PTR c$[rsp]
  0026d	0b c1		 or	 eax, ecx
  0026f	89 44 24 1c	 mov	 DWORD PTR c$[rsp], eax
  00273	8b 4c 24 1c	 mov	 ecx, DWORD PTR c$[rsp]
  00277	8b 44 24 18	 mov	 eax, DWORD PTR d$[rsp]
  0027b	33 c1		 xor	 eax, ecx
  0027d	89 44 24 18	 mov	 DWORD PTR d$[rsp], eax
  00281	8b 4c 24 24	 mov	 ecx, DWORD PTR e$[rsp]
  00285	8b 04 24	 mov	 eax, DWORD PTR a$[rsp]
  00288	33 c1		 xor	 eax, ecx
  0028a	89 04 24	 mov	 DWORD PTR a$[rsp], eax
  0028d	8b 0c 24	 mov	 ecx, DWORD PTR a$[rsp]
  00290	8b 44 24 1c	 mov	 eax, DWORD PTR c$[rsp]
  00294	23 c1		 and	 eax, ecx
  00296	89 44 24 1c	 mov	 DWORD PTR c$[rsp], eax
  0029a	8b 4c 24 18	 mov	 ecx, DWORD PTR d$[rsp]
  0029e	8b 44 24 24	 mov	 eax, DWORD PTR e$[rsp]
  002a2	33 c1		 xor	 eax, ecx
  002a4	89 44 24 24	 mov	 DWORD PTR e$[rsp], eax
  002a8	8b 4c 24 08	 mov	 ecx, DWORD PTR b$[rsp]
  002ac	8b 44 24 1c	 mov	 eax, DWORD PTR c$[rsp]
  002b0	33 c1		 xor	 eax, ecx
  002b2	89 44 24 1c	 mov	 DWORD PTR c$[rsp], eax
  002b6	8b 0c 24	 mov	 ecx, DWORD PTR a$[rsp]
  002b9	8b 44 24 24	 mov	 eax, DWORD PTR e$[rsp]
  002bd	0b c1		 or	 eax, ecx
  002bf	89 44 24 24	 mov	 DWORD PTR e$[rsp], eax
  002c3	8b 4c 24 08	 mov	 ecx, DWORD PTR b$[rsp]
  002c7	8b 44 24 24	 mov	 eax, DWORD PTR e$[rsp]
  002cb	33 c1		 xor	 eax, ecx
  002cd	89 44 24 24	 mov	 DWORD PTR e$[rsp], eax
  002d1	8b 4c 24 18	 mov	 ecx, DWORD PTR d$[rsp]
  002d5	8b 04 24	 mov	 eax, DWORD PTR a$[rsp]
  002d8	33 c1		 xor	 eax, ecx
  002da	89 04 24	 mov	 DWORD PTR a$[rsp], eax
  002dd	8b 44 24 24	 mov	 eax, DWORD PTR e$[rsp]
  002e1	89 44 24 08	 mov	 DWORD PTR b$[rsp], eax
  002e5	8b 4c 24 18	 mov	 ecx, DWORD PTR d$[rsp]
  002e9	8b 44 24 24	 mov	 eax, DWORD PTR e$[rsp]
  002ed	0b c1		 or	 eax, ecx
  002ef	89 44 24 24	 mov	 DWORD PTR e$[rsp], eax
  002f3	8b 0c 24	 mov	 ecx, DWORD PTR a$[rsp]
  002f6	8b 44 24 24	 mov	 eax, DWORD PTR e$[rsp]
  002fa	33 c1		 xor	 eax, ecx
  002fc	89 44 24 24	 mov	 DWORD PTR e$[rsp], eax
  00300	48 8b 4c 24 10	 mov	 rcx, QWORD PTR k$[rsp]
  00305	8b 44 24 24	 mov	 eax, DWORD PTR e$[rsp]
  00309	89 41 50	 mov	 DWORD PTR [rcx+80], eax
  0030c	48 8b 4c 24 10	 mov	 rcx, QWORD PTR k$[rsp]
  00311	8b 44 24 08	 mov	 eax, DWORD PTR b$[rsp]
  00315	89 41 54	 mov	 DWORD PTR [rcx+84], eax
  00318	48 8b 4c 24 10	 mov	 rcx, QWORD PTR k$[rsp]
  0031d	8b 44 24 18	 mov	 eax, DWORD PTR d$[rsp]
  00321	89 41 58	 mov	 DWORD PTR [rcx+88], eax
  00324	48 8b 4c 24 10	 mov	 rcx, QWORD PTR k$[rsp]
  00329	8b 44 24 1c	 mov	 eax, DWORD PTR c$[rsp]
  0032d	89 41 5c	 mov	 DWORD PTR [rcx+92], eax

; 667  : 		afterS1(LK); afterS1(S2); afterS2(SK);

  00330	48 8b 44 24 10	 mov	 rax, QWORD PTR k$[rsp]
  00335	8b 40 60	 mov	 eax, DWORD PTR [rax+96]
  00338	89 44 24 1c	 mov	 DWORD PTR c$[rsp], eax
  0033c	48 8b 44 24 10	 mov	 rax, QWORD PTR k$[rsp]
  00341	8b 40 64	 mov	 eax, DWORD PTR [rax+100]
  00344	89 44 24 08	 mov	 DWORD PTR b$[rsp], eax
  00348	48 8b 44 24 10	 mov	 rax, QWORD PTR k$[rsp]
  0034d	8b 40 68	 mov	 eax, DWORD PTR [rax+104]
  00350	89 04 24	 mov	 DWORD PTR a$[rsp], eax
  00353	48 8b 44 24 10	 mov	 rax, QWORD PTR k$[rsp]
  00358	8b 40 6c	 mov	 eax, DWORD PTR [rax+108]
  0035b	89 44 24 24	 mov	 DWORD PTR e$[rsp], eax
  0035f	8b 44 24 1c	 mov	 eax, DWORD PTR c$[rsp]
  00363	89 44 24 18	 mov	 DWORD PTR d$[rsp], eax
  00367	8b 0c 24	 mov	 ecx, DWORD PTR a$[rsp]
  0036a	8b 44 24 1c	 mov	 eax, DWORD PTR c$[rsp]
  0036e	23 c1		 and	 eax, ecx
  00370	89 44 24 1c	 mov	 DWORD PTR c$[rsp], eax
  00374	8b 4c 24 24	 mov	 ecx, DWORD PTR e$[rsp]
  00378	8b 44 24 1c	 mov	 eax, DWORD PTR c$[rsp]
  0037c	33 c1		 xor	 eax, ecx
  0037e	89 44 24 1c	 mov	 DWORD PTR c$[rsp], eax
  00382	8b 4c 24 08	 mov	 ecx, DWORD PTR b$[rsp]
  00386	8b 04 24	 mov	 eax, DWORD PTR a$[rsp]
  00389	33 c1		 xor	 eax, ecx
  0038b	89 04 24	 mov	 DWORD PTR a$[rsp], eax
  0038e	8b 4c 24 1c	 mov	 ecx, DWORD PTR c$[rsp]
  00392	8b 04 24	 mov	 eax, DWORD PTR a$[rsp]
  00395	33 c1		 xor	 eax, ecx
  00397	89 04 24	 mov	 DWORD PTR a$[rsp], eax
  0039a	8b 4c 24 18	 mov	 ecx, DWORD PTR d$[rsp]
  0039e	8b 44 24 24	 mov	 eax, DWORD PTR e$[rsp]
  003a2	0b c1		 or	 eax, ecx
  003a4	89 44 24 24	 mov	 DWORD PTR e$[rsp], eax
  003a8	8b 4c 24 08	 mov	 ecx, DWORD PTR b$[rsp]
  003ac	8b 44 24 24	 mov	 eax, DWORD PTR e$[rsp]
  003b0	33 c1		 xor	 eax, ecx
  003b2	89 44 24 24	 mov	 DWORD PTR e$[rsp], eax
  003b6	8b 0c 24	 mov	 ecx, DWORD PTR a$[rsp]
  003b9	8b 44 24 18	 mov	 eax, DWORD PTR d$[rsp]
  003bd	33 c1		 xor	 eax, ecx
  003bf	89 44 24 18	 mov	 DWORD PTR d$[rsp], eax
  003c3	8b 44 24 24	 mov	 eax, DWORD PTR e$[rsp]
  003c7	89 44 24 08	 mov	 DWORD PTR b$[rsp], eax
  003cb	8b 4c 24 18	 mov	 ecx, DWORD PTR d$[rsp]
  003cf	8b 44 24 24	 mov	 eax, DWORD PTR e$[rsp]
  003d3	0b c1		 or	 eax, ecx
  003d5	89 44 24 24	 mov	 DWORD PTR e$[rsp], eax
  003d9	8b 4c 24 1c	 mov	 ecx, DWORD PTR c$[rsp]
  003dd	8b 44 24 24	 mov	 eax, DWORD PTR e$[rsp]
  003e1	33 c1		 xor	 eax, ecx
  003e3	89 44 24 24	 mov	 DWORD PTR e$[rsp], eax
  003e7	8b 4c 24 08	 mov	 ecx, DWORD PTR b$[rsp]
  003eb	8b 44 24 1c	 mov	 eax, DWORD PTR c$[rsp]
  003ef	23 c1		 and	 eax, ecx
  003f1	89 44 24 1c	 mov	 DWORD PTR c$[rsp], eax
  003f5	8b 4c 24 1c	 mov	 ecx, DWORD PTR c$[rsp]
  003f9	8b 44 24 18	 mov	 eax, DWORD PTR d$[rsp]
  003fd	33 c1		 xor	 eax, ecx
  003ff	89 44 24 18	 mov	 DWORD PTR d$[rsp], eax
  00403	8b 4c 24 24	 mov	 ecx, DWORD PTR e$[rsp]
  00407	8b 44 24 08	 mov	 eax, DWORD PTR b$[rsp]
  0040b	33 c1		 xor	 eax, ecx
  0040d	89 44 24 08	 mov	 DWORD PTR b$[rsp], eax
  00411	8b 4c 24 18	 mov	 ecx, DWORD PTR d$[rsp]
  00415	8b 44 24 08	 mov	 eax, DWORD PTR b$[rsp]
  00419	33 c1		 xor	 eax, ecx
  0041b	89 44 24 08	 mov	 DWORD PTR b$[rsp], eax
  0041f	8b 44 24 18	 mov	 eax, DWORD PTR d$[rsp]
  00423	f7 d0		 not	 eax
  00425	89 44 24 18	 mov	 DWORD PTR d$[rsp], eax
  00429	48 8b 4c 24 10	 mov	 rcx, QWORD PTR k$[rsp]
  0042e	8b 04 24	 mov	 eax, DWORD PTR a$[rsp]
  00431	89 41 60	 mov	 DWORD PTR [rcx+96], eax
  00434	48 8b 4c 24 10	 mov	 rcx, QWORD PTR k$[rsp]
  00439	8b 44 24 24	 mov	 eax, DWORD PTR e$[rsp]
  0043d	89 41 64	 mov	 DWORD PTR [rcx+100], eax
  00440	48 8b 4c 24 10	 mov	 rcx, QWORD PTR k$[rsp]
  00445	8b 44 24 08	 mov	 eax, DWORD PTR b$[rsp]
  00449	89 41 68	 mov	 DWORD PTR [rcx+104], eax
  0044c	48 8b 4c 24 10	 mov	 rcx, QWORD PTR k$[rsp]
  00451	8b 44 24 18	 mov	 eax, DWORD PTR d$[rsp]
  00455	89 41 6c	 mov	 DWORD PTR [rcx+108], eax

; 668  : 		afterS0(LK); afterS0(S1); afterS1(SK);

  00458	48 8b 44 24 10	 mov	 rax, QWORD PTR k$[rsp]
  0045d	8b 40 70	 mov	 eax, DWORD PTR [rax+112]
  00460	89 44 24 08	 mov	 DWORD PTR b$[rsp], eax
  00464	48 8b 44 24 10	 mov	 rax, QWORD PTR k$[rsp]
  00469	8b 40 74	 mov	 eax, DWORD PTR [rax+116]
  0046c	89 44 24 24	 mov	 DWORD PTR e$[rsp], eax
  00470	48 8b 44 24 10	 mov	 rax, QWORD PTR k$[rsp]
  00475	8b 40 78	 mov	 eax, DWORD PTR [rax+120]
  00478	89 44 24 1c	 mov	 DWORD PTR c$[rsp], eax
  0047c	48 8b 44 24 10	 mov	 rax, QWORD PTR k$[rsp]
  00481	8b 40 7c	 mov	 eax, DWORD PTR [rax+124]
  00484	89 04 24	 mov	 DWORD PTR a$[rsp], eax
  00487	8b 44 24 08	 mov	 eax, DWORD PTR b$[rsp]
  0048b	f7 d0		 not	 eax
  0048d	89 44 24 08	 mov	 DWORD PTR b$[rsp], eax
  00491	8b 44 24 1c	 mov	 eax, DWORD PTR c$[rsp]
  00495	f7 d0		 not	 eax
  00497	89 44 24 1c	 mov	 DWORD PTR c$[rsp], eax
  0049b	8b 44 24 08	 mov	 eax, DWORD PTR b$[rsp]
  0049f	89 44 24 18	 mov	 DWORD PTR d$[rsp], eax
  004a3	8b 4c 24 24	 mov	 ecx, DWORD PTR e$[rsp]
  004a7	8b 44 24 08	 mov	 eax, DWORD PTR b$[rsp]
  004ab	23 c1		 and	 eax, ecx
  004ad	89 44 24 08	 mov	 DWORD PTR b$[rsp], eax
  004b1	8b 4c 24 08	 mov	 ecx, DWORD PTR b$[rsp]
  004b5	8b 44 24 1c	 mov	 eax, DWORD PTR c$[rsp]
  004b9	33 c1		 xor	 eax, ecx
  004bb	89 44 24 1c	 mov	 DWORD PTR c$[rsp], eax
  004bf	8b 0c 24	 mov	 ecx, DWORD PTR a$[rsp]
  004c2	8b 44 24 08	 mov	 eax, DWORD PTR b$[rsp]
  004c6	0b c1		 or	 eax, ecx
  004c8	89 44 24 08	 mov	 DWORD PTR b$[rsp], eax
  004cc	8b 4c 24 1c	 mov	 ecx, DWORD PTR c$[rsp]
  004d0	8b 04 24	 mov	 eax, DWORD PTR a$[rsp]
  004d3	33 c1		 xor	 eax, ecx
  004d5	89 04 24	 mov	 DWORD PTR a$[rsp], eax
  004d8	8b 4c 24 08	 mov	 ecx, DWORD PTR b$[rsp]
  004dc	8b 44 24 24	 mov	 eax, DWORD PTR e$[rsp]
  004e0	33 c1		 xor	 eax, ecx
  004e2	89 44 24 24	 mov	 DWORD PTR e$[rsp], eax
  004e6	8b 4c 24 18	 mov	 ecx, DWORD PTR d$[rsp]
  004ea	8b 44 24 08	 mov	 eax, DWORD PTR b$[rsp]
  004ee	33 c1		 xor	 eax, ecx
  004f0	89 44 24 08	 mov	 DWORD PTR b$[rsp], eax
  004f4	8b 4c 24 24	 mov	 ecx, DWORD PTR e$[rsp]
  004f8	8b 44 24 18	 mov	 eax, DWORD PTR d$[rsp]
  004fc	0b c1		 or	 eax, ecx
  004fe	89 44 24 18	 mov	 DWORD PTR d$[rsp], eax
  00502	8b 0c 24	 mov	 ecx, DWORD PTR a$[rsp]
  00505	8b 44 24 24	 mov	 eax, DWORD PTR e$[rsp]
  00509	33 c1		 xor	 eax, ecx
  0050b	89 44 24 24	 mov	 DWORD PTR e$[rsp], eax
  0050f	8b 4c 24 08	 mov	 ecx, DWORD PTR b$[rsp]
  00513	8b 44 24 1c	 mov	 eax, DWORD PTR c$[rsp]
  00517	0b c1		 or	 eax, ecx
  00519	89 44 24 1c	 mov	 DWORD PTR c$[rsp], eax
  0051d	8b 4c 24 18	 mov	 ecx, DWORD PTR d$[rsp]
  00521	8b 44 24 1c	 mov	 eax, DWORD PTR c$[rsp]
  00525	23 c1		 and	 eax, ecx
  00527	89 44 24 1c	 mov	 DWORD PTR c$[rsp], eax
  0052b	8b 4c 24 24	 mov	 ecx, DWORD PTR e$[rsp]
  0052f	8b 44 24 08	 mov	 eax, DWORD PTR b$[rsp]
  00533	33 c1		 xor	 eax, ecx
  00535	89 44 24 08	 mov	 DWORD PTR b$[rsp], eax
  00539	8b 4c 24 1c	 mov	 ecx, DWORD PTR c$[rsp]
  0053d	8b 44 24 24	 mov	 eax, DWORD PTR e$[rsp]
  00541	23 c1		 and	 eax, ecx
  00543	89 44 24 24	 mov	 DWORD PTR e$[rsp], eax
  00547	8b 4c 24 08	 mov	 ecx, DWORD PTR b$[rsp]
  0054b	8b 44 24 24	 mov	 eax, DWORD PTR e$[rsp]
  0054f	33 c1		 xor	 eax, ecx
  00551	89 44 24 24	 mov	 DWORD PTR e$[rsp], eax
  00555	8b 4c 24 1c	 mov	 ecx, DWORD PTR c$[rsp]
  00559	8b 44 24 08	 mov	 eax, DWORD PTR b$[rsp]
  0055d	23 c1		 and	 eax, ecx
  0055f	89 44 24 08	 mov	 DWORD PTR b$[rsp], eax
  00563	8b 4c 24 18	 mov	 ecx, DWORD PTR d$[rsp]
  00567	8b 44 24 08	 mov	 eax, DWORD PTR b$[rsp]
  0056b	33 c1		 xor	 eax, ecx
  0056d	89 44 24 08	 mov	 DWORD PTR b$[rsp], eax
  00571	48 8b 4c 24 10	 mov	 rcx, QWORD PTR k$[rsp]
  00576	8b 44 24 1c	 mov	 eax, DWORD PTR c$[rsp]
  0057a	89 41 70	 mov	 DWORD PTR [rcx+112], eax
  0057d	48 8b 4c 24 10	 mov	 rcx, QWORD PTR k$[rsp]
  00582	8b 44 24 08	 mov	 eax, DWORD PTR b$[rsp]
  00586	89 41 74	 mov	 DWORD PTR [rcx+116], eax
  00589	48 8b 4c 24 10	 mov	 rcx, QWORD PTR k$[rsp]
  0058e	8b 04 24	 mov	 eax, DWORD PTR a$[rsp]
  00591	89 41 78	 mov	 DWORD PTR [rcx+120], eax
  00594	48 8b 4c 24 10	 mov	 rcx, QWORD PTR k$[rsp]
  00599	8b 44 24 24	 mov	 eax, DWORD PTR e$[rsp]
  0059d	89 41 7c	 mov	 DWORD PTR [rcx+124], eax

; 669  : 		beforeS0(LK); beforeS0(S0); afterS0(SK);

  005a0	48 8b 44 24 10	 mov	 rax, QWORD PTR k$[rsp]
  005a5	8b 80 80 00 00
	00		 mov	 eax, DWORD PTR [rax+128]
  005ab	89 04 24	 mov	 DWORD PTR a$[rsp], eax
  005ae	48 8b 44 24 10	 mov	 rax, QWORD PTR k$[rsp]
  005b3	8b 80 84 00 00
	00		 mov	 eax, DWORD PTR [rax+132]
  005b9	89 44 24 08	 mov	 DWORD PTR b$[rsp], eax
  005bd	48 8b 44 24 10	 mov	 rax, QWORD PTR k$[rsp]
  005c2	8b 80 88 00 00
	00		 mov	 eax, DWORD PTR [rax+136]
  005c8	89 44 24 1c	 mov	 DWORD PTR c$[rsp], eax
  005cc	48 8b 44 24 10	 mov	 rax, QWORD PTR k$[rsp]
  005d1	8b 80 8c 00 00
	00		 mov	 eax, DWORD PTR [rax+140]
  005d7	89 44 24 18	 mov	 DWORD PTR d$[rsp], eax
  005db	8b 0c 24	 mov	 ecx, DWORD PTR a$[rsp]
  005de	8b 44 24 18	 mov	 eax, DWORD PTR d$[rsp]
  005e2	33 c1		 xor	 eax, ecx
  005e4	89 44 24 18	 mov	 DWORD PTR d$[rsp], eax
  005e8	8b 44 24 08	 mov	 eax, DWORD PTR b$[rsp]
  005ec	89 44 24 24	 mov	 DWORD PTR e$[rsp], eax
  005f0	8b 4c 24 18	 mov	 ecx, DWORD PTR d$[rsp]
  005f4	8b 44 24 08	 mov	 eax, DWORD PTR b$[rsp]
  005f8	23 c1		 and	 eax, ecx
  005fa	89 44 24 08	 mov	 DWORD PTR b$[rsp], eax
  005fe	8b 4c 24 1c	 mov	 ecx, DWORD PTR c$[rsp]
  00602	8b 44 24 24	 mov	 eax, DWORD PTR e$[rsp]
  00606	33 c1		 xor	 eax, ecx
  00608	89 44 24 24	 mov	 DWORD PTR e$[rsp], eax
  0060c	8b 0c 24	 mov	 ecx, DWORD PTR a$[rsp]
  0060f	8b 44 24 08	 mov	 eax, DWORD PTR b$[rsp]
  00613	33 c1		 xor	 eax, ecx
  00615	89 44 24 08	 mov	 DWORD PTR b$[rsp], eax
  00619	8b 4c 24 18	 mov	 ecx, DWORD PTR d$[rsp]
  0061d	8b 04 24	 mov	 eax, DWORD PTR a$[rsp]
  00620	0b c1		 or	 eax, ecx
  00622	89 04 24	 mov	 DWORD PTR a$[rsp], eax
  00625	8b 4c 24 24	 mov	 ecx, DWORD PTR e$[rsp]
  00629	8b 04 24	 mov	 eax, DWORD PTR a$[rsp]
  0062c	33 c1		 xor	 eax, ecx
  0062e	89 04 24	 mov	 DWORD PTR a$[rsp], eax
  00631	8b 4c 24 18	 mov	 ecx, DWORD PTR d$[rsp]
  00635	8b 44 24 24	 mov	 eax, DWORD PTR e$[rsp]
  00639	33 c1		 xor	 eax, ecx
  0063b	89 44 24 24	 mov	 DWORD PTR e$[rsp], eax
  0063f	8b 4c 24 1c	 mov	 ecx, DWORD PTR c$[rsp]
  00643	8b 44 24 18	 mov	 eax, DWORD PTR d$[rsp]
  00647	33 c1		 xor	 eax, ecx
  00649	89 44 24 18	 mov	 DWORD PTR d$[rsp], eax
  0064d	8b 4c 24 08	 mov	 ecx, DWORD PTR b$[rsp]
  00651	8b 44 24 1c	 mov	 eax, DWORD PTR c$[rsp]
  00655	0b c1		 or	 eax, ecx
  00657	89 44 24 1c	 mov	 DWORD PTR c$[rsp], eax
  0065b	8b 4c 24 24	 mov	 ecx, DWORD PTR e$[rsp]
  0065f	8b 44 24 1c	 mov	 eax, DWORD PTR c$[rsp]
  00663	33 c1		 xor	 eax, ecx
  00665	89 44 24 1c	 mov	 DWORD PTR c$[rsp], eax
  00669	8b 44 24 24	 mov	 eax, DWORD PTR e$[rsp]
  0066d	f7 d0		 not	 eax
  0066f	89 44 24 24	 mov	 DWORD PTR e$[rsp], eax
  00673	8b 4c 24 08	 mov	 ecx, DWORD PTR b$[rsp]
  00677	8b 44 24 24	 mov	 eax, DWORD PTR e$[rsp]
  0067b	0b c1		 or	 eax, ecx
  0067d	89 44 24 24	 mov	 DWORD PTR e$[rsp], eax
  00681	8b 4c 24 18	 mov	 ecx, DWORD PTR d$[rsp]
  00685	8b 44 24 08	 mov	 eax, DWORD PTR b$[rsp]
  00689	33 c1		 xor	 eax, ecx
  0068b	89 44 24 08	 mov	 DWORD PTR b$[rsp], eax
  0068f	8b 4c 24 24	 mov	 ecx, DWORD PTR e$[rsp]
  00693	8b 44 24 08	 mov	 eax, DWORD PTR b$[rsp]
  00697	33 c1		 xor	 eax, ecx
  00699	89 44 24 08	 mov	 DWORD PTR b$[rsp], eax
  0069d	8b 0c 24	 mov	 ecx, DWORD PTR a$[rsp]
  006a0	8b 44 24 18	 mov	 eax, DWORD PTR d$[rsp]
  006a4	0b c1		 or	 eax, ecx
  006a6	89 44 24 18	 mov	 DWORD PTR d$[rsp], eax
  006aa	8b 4c 24 18	 mov	 ecx, DWORD PTR d$[rsp]
  006ae	8b 44 24 08	 mov	 eax, DWORD PTR b$[rsp]
  006b2	33 c1		 xor	 eax, ecx
  006b4	89 44 24 08	 mov	 DWORD PTR b$[rsp], eax
  006b8	8b 4c 24 18	 mov	 ecx, DWORD PTR d$[rsp]
  006bc	8b 44 24 24	 mov	 eax, DWORD PTR e$[rsp]
  006c0	33 c1		 xor	 eax, ecx
  006c2	89 44 24 24	 mov	 DWORD PTR e$[rsp], eax
  006c6	48 8b 4c 24 10	 mov	 rcx, QWORD PTR k$[rsp]
  006cb	8b 44 24 08	 mov	 eax, DWORD PTR b$[rsp]
  006cf	89 81 80 00 00
	00		 mov	 DWORD PTR [rcx+128], eax
  006d5	48 8b 4c 24 10	 mov	 rcx, QWORD PTR k$[rsp]
  006da	8b 44 24 24	 mov	 eax, DWORD PTR e$[rsp]
  006de	89 81 84 00 00
	00		 mov	 DWORD PTR [rcx+132], eax
  006e4	48 8b 4c 24 10	 mov	 rcx, QWORD PTR k$[rsp]
  006e9	8b 44 24 1c	 mov	 eax, DWORD PTR c$[rsp]
  006ed	89 81 88 00 00
	00		 mov	 DWORD PTR [rcx+136], eax
  006f3	48 8b 4c 24 10	 mov	 rcx, QWORD PTR k$[rsp]
  006f8	8b 04 24	 mov	 eax, DWORD PTR a$[rsp]
  006fb	89 81 8c 00 00
	00		 mov	 DWORD PTR [rcx+140], eax

; 670  : 		k += 8*4;

  00701	48 8b 44 24 10	 mov	 rax, QWORD PTR k$[rsp]
  00706	48 05 80 00 00
	00		 add	 rax, 128		; 00000080H
  0070c	48 89 44 24 10	 mov	 QWORD PTR k$[rsp], rax

; 671  : 		afterS6(LK); afterS6(S7); afterS7(SK);

  00711	48 8b 44 24 10	 mov	 rax, QWORD PTR k$[rsp]
  00716	8b 40 10	 mov	 eax, DWORD PTR [rax+16]
  00719	89 04 24	 mov	 DWORD PTR a$[rsp], eax
  0071c	48 8b 44 24 10	 mov	 rax, QWORD PTR k$[rsp]
  00721	8b 40 14	 mov	 eax, DWORD PTR [rax+20]
  00724	89 44 24 1c	 mov	 DWORD PTR c$[rsp], eax
  00728	48 8b 44 24 10	 mov	 rax, QWORD PTR k$[rsp]
  0072d	8b 40 18	 mov	 eax, DWORD PTR [rax+24]
  00730	89 44 24 18	 mov	 DWORD PTR d$[rsp], eax
  00734	48 8b 44 24 10	 mov	 rax, QWORD PTR k$[rsp]
  00739	8b 40 1c	 mov	 eax, DWORD PTR [rax+28]
  0073c	89 44 24 08	 mov	 DWORD PTR b$[rsp], eax
  00740	8b 44 24 18	 mov	 eax, DWORD PTR d$[rsp]
  00744	89 44 24 24	 mov	 DWORD PTR e$[rsp], eax
  00748	8b 4c 24 1c	 mov	 ecx, DWORD PTR c$[rsp]
  0074c	8b 44 24 18	 mov	 eax, DWORD PTR d$[rsp]
  00750	23 c1		 and	 eax, ecx
  00752	89 44 24 18	 mov	 DWORD PTR d$[rsp], eax
  00756	8b 4c 24 08	 mov	 ecx, DWORD PTR b$[rsp]
  0075a	8b 44 24 18	 mov	 eax, DWORD PTR d$[rsp]
  0075e	33 c1		 xor	 eax, ecx
  00760	89 44 24 18	 mov	 DWORD PTR d$[rsp], eax
  00764	8b 4c 24 1c	 mov	 ecx, DWORD PTR c$[rsp]
  00768	8b 44 24 08	 mov	 eax, DWORD PTR b$[rsp]
  0076c	23 c1		 and	 eax, ecx
  0076e	89 44 24 08	 mov	 DWORD PTR b$[rsp], eax
  00772	8b 4c 24 18	 mov	 ecx, DWORD PTR d$[rsp]
  00776	8b 44 24 24	 mov	 eax, DWORD PTR e$[rsp]
  0077a	33 c1		 xor	 eax, ecx
  0077c	89 44 24 24	 mov	 DWORD PTR e$[rsp], eax
  00780	8b 4c 24 1c	 mov	 ecx, DWORD PTR c$[rsp]
  00784	8b 44 24 18	 mov	 eax, DWORD PTR d$[rsp]
  00788	33 c1		 xor	 eax, ecx
  0078a	89 44 24 18	 mov	 DWORD PTR d$[rsp], eax
  0078e	8b 0c 24	 mov	 ecx, DWORD PTR a$[rsp]
  00791	8b 44 24 1c	 mov	 eax, DWORD PTR c$[rsp]
  00795	33 c1		 xor	 eax, ecx
  00797	89 44 24 1c	 mov	 DWORD PTR c$[rsp], eax
  0079b	8b 4c 24 24	 mov	 ecx, DWORD PTR e$[rsp]
  0079f	8b 04 24	 mov	 eax, DWORD PTR a$[rsp]
  007a2	0b c1		 or	 eax, ecx
  007a4	89 04 24	 mov	 DWORD PTR a$[rsp], eax
  007a7	8b 4c 24 18	 mov	 ecx, DWORD PTR d$[rsp]
  007ab	8b 04 24	 mov	 eax, DWORD PTR a$[rsp]
  007ae	33 c1		 xor	 eax, ecx
  007b0	89 04 24	 mov	 DWORD PTR a$[rsp], eax
  007b3	8b 4c 24 1c	 mov	 ecx, DWORD PTR c$[rsp]
  007b7	8b 44 24 08	 mov	 eax, DWORD PTR b$[rsp]
  007bb	33 c1		 xor	 eax, ecx
  007bd	89 44 24 08	 mov	 DWORD PTR b$[rsp], eax
  007c1	8b 4c 24 08	 mov	 ecx, DWORD PTR b$[rsp]
  007c5	8b 44 24 18	 mov	 eax, DWORD PTR d$[rsp]
  007c9	33 c1		 xor	 eax, ecx
  007cb	89 44 24 18	 mov	 DWORD PTR d$[rsp], eax
  007cf	8b 0c 24	 mov	 ecx, DWORD PTR a$[rsp]
  007d2	8b 44 24 08	 mov	 eax, DWORD PTR b$[rsp]
  007d6	23 c1		 and	 eax, ecx
  007d8	89 44 24 08	 mov	 DWORD PTR b$[rsp], eax
  007dc	8b 4c 24 24	 mov	 ecx, DWORD PTR e$[rsp]
  007e0	8b 44 24 08	 mov	 eax, DWORD PTR b$[rsp]
  007e4	33 c1		 xor	 eax, ecx
  007e6	89 44 24 08	 mov	 DWORD PTR b$[rsp], eax
  007ea	8b 4c 24 18	 mov	 ecx, DWORD PTR d$[rsp]
  007ee	8b 44 24 24	 mov	 eax, DWORD PTR e$[rsp]
  007f2	33 c1		 xor	 eax, ecx
  007f4	89 44 24 24	 mov	 DWORD PTR e$[rsp], eax
  007f8	8b 0c 24	 mov	 ecx, DWORD PTR a$[rsp]
  007fb	8b 44 24 18	 mov	 eax, DWORD PTR d$[rsp]
  007ff	23 c1		 and	 eax, ecx
  00801	89 44 24 18	 mov	 DWORD PTR d$[rsp], eax
  00805	8b 44 24 24	 mov	 eax, DWORD PTR e$[rsp]
  00809	f7 d0		 not	 eax
  0080b	89 44 24 24	 mov	 DWORD PTR e$[rsp], eax
  0080f	8b 4c 24 24	 mov	 ecx, DWORD PTR e$[rsp]
  00813	8b 44 24 18	 mov	 eax, DWORD PTR d$[rsp]
  00817	33 c1		 xor	 eax, ecx
  00819	89 44 24 18	 mov	 DWORD PTR d$[rsp], eax
  0081d	8b 0c 24	 mov	 ecx, DWORD PTR a$[rsp]
  00820	8b 44 24 24	 mov	 eax, DWORD PTR e$[rsp]
  00824	23 c1		 and	 eax, ecx
  00826	89 44 24 24	 mov	 DWORD PTR e$[rsp], eax
  0082a	8b 4c 24 08	 mov	 ecx, DWORD PTR b$[rsp]
  0082e	8b 44 24 1c	 mov	 eax, DWORD PTR c$[rsp]
  00832	33 c1		 xor	 eax, ecx
  00834	89 44 24 1c	 mov	 DWORD PTR c$[rsp], eax
  00838	8b 4c 24 1c	 mov	 ecx, DWORD PTR c$[rsp]
  0083c	8b 44 24 24	 mov	 eax, DWORD PTR e$[rsp]
  00840	33 c1		 xor	 eax, ecx
  00842	89 44 24 24	 mov	 DWORD PTR e$[rsp], eax
  00846	48 8b 4c 24 10	 mov	 rcx, QWORD PTR k$[rsp]
  0084b	8b 44 24 18	 mov	 eax, DWORD PTR d$[rsp]
  0084f	89 41 10	 mov	 DWORD PTR [rcx+16], eax
  00852	48 8b 4c 24 10	 mov	 rcx, QWORD PTR k$[rsp]
  00857	8b 44 24 24	 mov	 eax, DWORD PTR e$[rsp]
  0085b	89 41 14	 mov	 DWORD PTR [rcx+20], eax
  0085e	48 8b 4c 24 10	 mov	 rcx, QWORD PTR k$[rsp]
  00863	8b 44 24 08	 mov	 eax, DWORD PTR b$[rsp]
  00867	89 41 18	 mov	 DWORD PTR [rcx+24], eax
  0086a	48 8b 4c 24 10	 mov	 rcx, QWORD PTR k$[rsp]
  0086f	8b 04 24	 mov	 eax, DWORD PTR a$[rsp]
  00872	89 41 1c	 mov	 DWORD PTR [rcx+28], eax

; 672  : 		afterS5(LK); afterS5(S6); afterS6(SK);

  00875	48 8b 44 24 10	 mov	 rax, QWORD PTR k$[rsp]
  0087a	8b 40 20	 mov	 eax, DWORD PTR [rax+32]
  0087d	89 04 24	 mov	 DWORD PTR a$[rsp], eax
  00880	48 8b 44 24 10	 mov	 rax, QWORD PTR k$[rsp]
  00885	8b 40 24	 mov	 eax, DWORD PTR [rax+36]
  00888	89 44 24 1c	 mov	 DWORD PTR c$[rsp], eax
  0088c	48 8b 44 24 10	 mov	 rax, QWORD PTR k$[rsp]
  00891	8b 40 28	 mov	 eax, DWORD PTR [rax+40]
  00894	89 44 24 08	 mov	 DWORD PTR b$[rsp], eax
  00898	48 8b 44 24 10	 mov	 rax, QWORD PTR k$[rsp]
  0089d	8b 40 2c	 mov	 eax, DWORD PTR [rax+44]
  008a0	89 44 24 24	 mov	 DWORD PTR e$[rsp], eax
  008a4	8b 44 24 08	 mov	 eax, DWORD PTR b$[rsp]
  008a8	f7 d0		 not	 eax
  008aa	89 44 24 08	 mov	 DWORD PTR b$[rsp], eax
  008ae	8b 44 24 24	 mov	 eax, DWORD PTR e$[rsp]
  008b2	89 44 24 18	 mov	 DWORD PTR d$[rsp], eax
  008b6	8b 0c 24	 mov	 ecx, DWORD PTR a$[rsp]
  008b9	8b 44 24 24	 mov	 eax, DWORD PTR e$[rsp]
  008bd	23 c1		 and	 eax, ecx
  008bf	89 44 24 24	 mov	 DWORD PTR e$[rsp], eax
  008c3	8b 4c 24 18	 mov	 ecx, DWORD PTR d$[rsp]
  008c7	8b 04 24	 mov	 eax, DWORD PTR a$[rsp]
  008ca	33 c1		 xor	 eax, ecx
  008cc	89 04 24	 mov	 DWORD PTR a$[rsp], eax
  008cf	8b 4c 24 08	 mov	 ecx, DWORD PTR b$[rsp]
  008d3	8b 44 24 24	 mov	 eax, DWORD PTR e$[rsp]
  008d7	33 c1		 xor	 eax, ecx
  008d9	89 44 24 24	 mov	 DWORD PTR e$[rsp], eax
  008dd	8b 4c 24 18	 mov	 ecx, DWORD PTR d$[rsp]
  008e1	8b 44 24 08	 mov	 eax, DWORD PTR b$[rsp]
  008e5	0b c1		 or	 eax, ecx
  008e7	89 44 24 08	 mov	 DWORD PTR b$[rsp], eax
  008eb	8b 4c 24 24	 mov	 ecx, DWORD PTR e$[rsp]
  008ef	8b 44 24 1c	 mov	 eax, DWORD PTR c$[rsp]
  008f3	33 c1		 xor	 eax, ecx
  008f5	89 44 24 1c	 mov	 DWORD PTR c$[rsp], eax
  008f9	8b 0c 24	 mov	 ecx, DWORD PTR a$[rsp]
  008fc	8b 44 24 08	 mov	 eax, DWORD PTR b$[rsp]
  00900	33 c1		 xor	 eax, ecx
  00902	89 44 24 08	 mov	 DWORD PTR b$[rsp], eax
  00906	8b 4c 24 1c	 mov	 ecx, DWORD PTR c$[rsp]
  0090a	8b 04 24	 mov	 eax, DWORD PTR a$[rsp]
  0090d	0b c1		 or	 eax, ecx
  0090f	89 04 24	 mov	 DWORD PTR a$[rsp], eax
  00912	8b 4c 24 1c	 mov	 ecx, DWORD PTR c$[rsp]
  00916	8b 44 24 08	 mov	 eax, DWORD PTR b$[rsp]
  0091a	33 c1		 xor	 eax, ecx
  0091c	89 44 24 08	 mov	 DWORD PTR b$[rsp], eax
  00920	8b 0c 24	 mov	 ecx, DWORD PTR a$[rsp]
  00923	8b 44 24 18	 mov	 eax, DWORD PTR d$[rsp]
  00927	33 c1		 xor	 eax, ecx
  00929	89 44 24 18	 mov	 DWORD PTR d$[rsp], eax
  0092d	8b 4c 24 24	 mov	 ecx, DWORD PTR e$[rsp]
  00931	8b 04 24	 mov	 eax, DWORD PTR a$[rsp]
  00934	0b c1		 or	 eax, ecx
  00936	89 04 24	 mov	 DWORD PTR a$[rsp], eax
  00939	8b 4c 24 08	 mov	 ecx, DWORD PTR b$[rsp]
  0093d	8b 04 24	 mov	 eax, DWORD PTR a$[rsp]
  00940	33 c1		 xor	 eax, ecx
  00942	89 04 24	 mov	 DWORD PTR a$[rsp], eax
  00945	8b 4c 24 24	 mov	 ecx, DWORD PTR e$[rsp]
  00949	8b 44 24 18	 mov	 eax, DWORD PTR d$[rsp]
  0094d	33 c1		 xor	 eax, ecx
  0094f	89 44 24 18	 mov	 DWORD PTR d$[rsp], eax
  00953	8b 0c 24	 mov	 ecx, DWORD PTR a$[rsp]
  00956	8b 44 24 18	 mov	 eax, DWORD PTR d$[rsp]
  0095a	33 c1		 xor	 eax, ecx
  0095c	89 44 24 18	 mov	 DWORD PTR d$[rsp], eax
  00960	8b 44 24 24	 mov	 eax, DWORD PTR e$[rsp]
  00964	f7 d0		 not	 eax
  00966	89 44 24 24	 mov	 DWORD PTR e$[rsp], eax
  0096a	8b 4c 24 18	 mov	 ecx, DWORD PTR d$[rsp]
  0096e	8b 44 24 08	 mov	 eax, DWORD PTR b$[rsp]
  00972	23 c1		 and	 eax, ecx
  00974	89 44 24 08	 mov	 DWORD PTR b$[rsp], eax
  00978	8b 4c 24 24	 mov	 ecx, DWORD PTR e$[rsp]
  0097c	8b 44 24 08	 mov	 eax, DWORD PTR b$[rsp]
  00980	33 c1		 xor	 eax, ecx
  00982	89 44 24 08	 mov	 DWORD PTR b$[rsp], eax
  00986	48 8b 4c 24 10	 mov	 rcx, QWORD PTR k$[rsp]
  0098b	8b 04 24	 mov	 eax, DWORD PTR a$[rsp]
  0098e	89 41 20	 mov	 DWORD PTR [rcx+32], eax
  00991	48 8b 4c 24 10	 mov	 rcx, QWORD PTR k$[rsp]
  00996	8b 44 24 1c	 mov	 eax, DWORD PTR c$[rsp]
  0099a	89 41 24	 mov	 DWORD PTR [rcx+36], eax
  0099d	48 8b 4c 24 10	 mov	 rcx, QWORD PTR k$[rsp]
  009a2	8b 44 24 18	 mov	 eax, DWORD PTR d$[rsp]
  009a6	89 41 28	 mov	 DWORD PTR [rcx+40], eax
  009a9	48 8b 4c 24 10	 mov	 rcx, QWORD PTR k$[rsp]
  009ae	8b 44 24 08	 mov	 eax, DWORD PTR b$[rsp]
  009b2	89 41 2c	 mov	 DWORD PTR [rcx+44], eax

; 673  : 		afterS4(LK); afterS4(S5); afterS5(SK);

  009b5	48 8b 44 24 10	 mov	 rax, QWORD PTR k$[rsp]
  009ba	8b 40 30	 mov	 eax, DWORD PTR [rax+48]
  009bd	89 44 24 08	 mov	 DWORD PTR b$[rsp], eax
  009c1	48 8b 44 24 10	 mov	 rax, QWORD PTR k$[rsp]
  009c6	8b 40 34	 mov	 eax, DWORD PTR [rax+52]
  009c9	89 04 24	 mov	 DWORD PTR a$[rsp], eax
  009cc	48 8b 44 24 10	 mov	 rax, QWORD PTR k$[rsp]
  009d1	8b 40 38	 mov	 eax, DWORD PTR [rax+56]
  009d4	89 44 24 24	 mov	 DWORD PTR e$[rsp], eax
  009d8	48 8b 44 24 10	 mov	 rax, QWORD PTR k$[rsp]
  009dd	8b 40 3c	 mov	 eax, DWORD PTR [rax+60]
  009e0	89 44 24 1c	 mov	 DWORD PTR c$[rsp], eax
  009e4	8b 0c 24	 mov	 ecx, DWORD PTR a$[rsp]
  009e7	8b 44 24 08	 mov	 eax, DWORD PTR b$[rsp]
  009eb	33 c1		 xor	 eax, ecx
  009ed	89 44 24 08	 mov	 DWORD PTR b$[rsp], eax
  009f1	8b 4c 24 1c	 mov	 ecx, DWORD PTR c$[rsp]
  009f5	8b 04 24	 mov	 eax, DWORD PTR a$[rsp]
  009f8	33 c1		 xor	 eax, ecx
  009fa	89 04 24	 mov	 DWORD PTR a$[rsp], eax
  009fd	8b 44 24 1c	 mov	 eax, DWORD PTR c$[rsp]
  00a01	f7 d0		 not	 eax
  00a03	89 44 24 1c	 mov	 DWORD PTR c$[rsp], eax
  00a07	8b 04 24	 mov	 eax, DWORD PTR a$[rsp]
  00a0a	89 44 24 18	 mov	 DWORD PTR d$[rsp], eax
  00a0e	8b 4c 24 08	 mov	 ecx, DWORD PTR b$[rsp]
  00a12	8b 04 24	 mov	 eax, DWORD PTR a$[rsp]
  00a15	23 c1		 and	 eax, ecx
  00a17	89 04 24	 mov	 DWORD PTR a$[rsp], eax
  00a1a	8b 4c 24 1c	 mov	 ecx, DWORD PTR c$[rsp]
  00a1e	8b 44 24 24	 mov	 eax, DWORD PTR e$[rsp]
  00a22	33 c1		 xor	 eax, ecx
  00a24	89 44 24 24	 mov	 DWORD PTR e$[rsp], eax
  00a28	8b 4c 24 24	 mov	 ecx, DWORD PTR e$[rsp]
  00a2c	8b 04 24	 mov	 eax, DWORD PTR a$[rsp]
  00a2f	33 c1		 xor	 eax, ecx
  00a31	89 04 24	 mov	 DWORD PTR a$[rsp], eax
  00a34	8b 4c 24 18	 mov	 ecx, DWORD PTR d$[rsp]
  00a38	8b 44 24 24	 mov	 eax, DWORD PTR e$[rsp]
  00a3c	0b c1		 or	 eax, ecx
  00a3e	89 44 24 24	 mov	 DWORD PTR e$[rsp], eax
  00a42	8b 4c 24 1c	 mov	 ecx, DWORD PTR c$[rsp]
  00a46	8b 44 24 18	 mov	 eax, DWORD PTR d$[rsp]
  00a4a	33 c1		 xor	 eax, ecx
  00a4c	89 44 24 18	 mov	 DWORD PTR d$[rsp], eax
  00a50	8b 0c 24	 mov	 ecx, DWORD PTR a$[rsp]
  00a53	8b 44 24 1c	 mov	 eax, DWORD PTR c$[rsp]
  00a57	23 c1		 and	 eax, ecx
  00a59	89 44 24 1c	 mov	 DWORD PTR c$[rsp], eax
  00a5d	8b 4c 24 08	 mov	 ecx, DWORD PTR b$[rsp]
  00a61	8b 44 24 1c	 mov	 eax, DWORD PTR c$[rsp]
  00a65	33 c1		 xor	 eax, ecx
  00a67	89 44 24 1c	 mov	 DWORD PTR c$[rsp], eax
  00a6b	8b 0c 24	 mov	 ecx, DWORD PTR a$[rsp]
  00a6e	8b 44 24 18	 mov	 eax, DWORD PTR d$[rsp]
  00a72	33 c1		 xor	 eax, ecx
  00a74	89 44 24 18	 mov	 DWORD PTR d$[rsp], eax
  00a78	8b 4c 24 24	 mov	 ecx, DWORD PTR e$[rsp]
  00a7c	8b 44 24 18	 mov	 eax, DWORD PTR d$[rsp]
  00a80	33 c1		 xor	 eax, ecx
  00a82	89 44 24 18	 mov	 DWORD PTR d$[rsp], eax
  00a86	8b 4c 24 08	 mov	 ecx, DWORD PTR b$[rsp]
  00a8a	8b 44 24 24	 mov	 eax, DWORD PTR e$[rsp]
  00a8e	33 c1		 xor	 eax, ecx
  00a90	89 44 24 24	 mov	 DWORD PTR e$[rsp], eax
  00a94	8b 4c 24 1c	 mov	 ecx, DWORD PTR c$[rsp]
  00a98	8b 44 24 08	 mov	 eax, DWORD PTR b$[rsp]
  00a9c	23 c1		 and	 eax, ecx
  00a9e	89 44 24 08	 mov	 DWORD PTR b$[rsp], eax
  00aa2	8b 44 24 24	 mov	 eax, DWORD PTR e$[rsp]
  00aa6	f7 d0		 not	 eax
  00aa8	89 44 24 24	 mov	 DWORD PTR e$[rsp], eax
  00aac	8b 4c 24 18	 mov	 ecx, DWORD PTR d$[rsp]
  00ab0	8b 44 24 08	 mov	 eax, DWORD PTR b$[rsp]
  00ab4	33 c1		 xor	 eax, ecx
  00ab6	89 44 24 08	 mov	 DWORD PTR b$[rsp], eax
  00aba	8b 4c 24 1c	 mov	 ecx, DWORD PTR c$[rsp]
  00abe	8b 44 24 18	 mov	 eax, DWORD PTR d$[rsp]
  00ac2	0b c1		 or	 eax, ecx
  00ac4	89 44 24 18	 mov	 DWORD PTR d$[rsp], eax
  00ac8	8b 4c 24 18	 mov	 ecx, DWORD PTR d$[rsp]
  00acc	8b 44 24 24	 mov	 eax, DWORD PTR e$[rsp]
  00ad0	33 c1		 xor	 eax, ecx
  00ad2	89 44 24 24	 mov	 DWORD PTR e$[rsp], eax
  00ad6	48 8b 4c 24 10	 mov	 rcx, QWORD PTR k$[rsp]
  00adb	8b 04 24	 mov	 eax, DWORD PTR a$[rsp]
  00ade	89 41 30	 mov	 DWORD PTR [rcx+48], eax
  00ae1	48 8b 4c 24 10	 mov	 rcx, QWORD PTR k$[rsp]
  00ae6	8b 44 24 1c	 mov	 eax, DWORD PTR c$[rsp]
  00aea	89 41 34	 mov	 DWORD PTR [rcx+52], eax
  00aed	48 8b 4c 24 10	 mov	 rcx, QWORD PTR k$[rsp]
  00af2	8b 44 24 08	 mov	 eax, DWORD PTR b$[rsp]
  00af6	89 41 38	 mov	 DWORD PTR [rcx+56], eax
  00af9	48 8b 4c 24 10	 mov	 rcx, QWORD PTR k$[rsp]
  00afe	8b 44 24 24	 mov	 eax, DWORD PTR e$[rsp]
  00b02	89 41 3c	 mov	 DWORD PTR [rcx+60], eax

; 674  : 		afterS3(LK); afterS3(S4); afterS4(SK);

  00b05	48 8b 44 24 10	 mov	 rax, QWORD PTR k$[rsp]
  00b0a	8b 40 40	 mov	 eax, DWORD PTR [rax+64]
  00b0d	89 44 24 24	 mov	 DWORD PTR e$[rsp], eax
  00b11	48 8b 44 24 10	 mov	 rax, QWORD PTR k$[rsp]
  00b16	8b 40 44	 mov	 eax, DWORD PTR [rax+68]
  00b19	89 44 24 08	 mov	 DWORD PTR b$[rsp], eax
  00b1d	48 8b 44 24 10	 mov	 rax, QWORD PTR k$[rsp]
  00b22	8b 40 48	 mov	 eax, DWORD PTR [rax+72]
  00b25	89 44 24 18	 mov	 DWORD PTR d$[rsp], eax
  00b29	48 8b 44 24 10	 mov	 rax, QWORD PTR k$[rsp]
  00b2e	8b 40 4c	 mov	 eax, DWORD PTR [rax+76]
  00b31	89 44 24 1c	 mov	 DWORD PTR c$[rsp], eax
  00b35	8b 4c 24 1c	 mov	 ecx, DWORD PTR c$[rsp]
  00b39	8b 44 24 08	 mov	 eax, DWORD PTR b$[rsp]
  00b3d	33 c1		 xor	 eax, ecx
  00b3f	89 44 24 08	 mov	 DWORD PTR b$[rsp], eax
  00b43	8b 44 24 1c	 mov	 eax, DWORD PTR c$[rsp]
  00b47	f7 d0		 not	 eax
  00b49	89 44 24 1c	 mov	 DWORD PTR c$[rsp], eax
  00b4d	8b 4c 24 1c	 mov	 ecx, DWORD PTR c$[rsp]
  00b51	8b 44 24 18	 mov	 eax, DWORD PTR d$[rsp]
  00b55	33 c1		 xor	 eax, ecx
  00b57	89 44 24 18	 mov	 DWORD PTR d$[rsp], eax
  00b5b	8b 4c 24 24	 mov	 ecx, DWORD PTR e$[rsp]
  00b5f	8b 44 24 1c	 mov	 eax, DWORD PTR c$[rsp]
  00b63	33 c1		 xor	 eax, ecx
  00b65	89 44 24 1c	 mov	 DWORD PTR c$[rsp], eax
  00b69	8b 44 24 08	 mov	 eax, DWORD PTR b$[rsp]
  00b6d	89 04 24	 mov	 DWORD PTR a$[rsp], eax
  00b70	8b 4c 24 1c	 mov	 ecx, DWORD PTR c$[rsp]
  00b74	8b 44 24 08	 mov	 eax, DWORD PTR b$[rsp]
  00b78	23 c1		 and	 eax, ecx
  00b7a	89 44 24 08	 mov	 DWORD PTR b$[rsp], eax
  00b7e	8b 4c 24 18	 mov	 ecx, DWORD PTR d$[rsp]
  00b82	8b 44 24 08	 mov	 eax, DWORD PTR b$[rsp]
  00b86	33 c1		 xor	 eax, ecx
  00b88	89 44 24 08	 mov	 DWORD PTR b$[rsp], eax
  00b8c	8b 4c 24 1c	 mov	 ecx, DWORD PTR c$[rsp]
  00b90	8b 04 24	 mov	 eax, DWORD PTR a$[rsp]
  00b93	33 c1		 xor	 eax, ecx
  00b95	89 04 24	 mov	 DWORD PTR a$[rsp], eax
  00b98	8b 0c 24	 mov	 ecx, DWORD PTR a$[rsp]
  00b9b	8b 44 24 24	 mov	 eax, DWORD PTR e$[rsp]
  00b9f	33 c1		 xor	 eax, ecx
  00ba1	89 44 24 24	 mov	 DWORD PTR e$[rsp], eax
  00ba5	8b 0c 24	 mov	 ecx, DWORD PTR a$[rsp]
  00ba8	8b 44 24 18	 mov	 eax, DWORD PTR d$[rsp]
  00bac	23 c1		 and	 eax, ecx
  00bae	89 44 24 18	 mov	 DWORD PTR d$[rsp], eax
  00bb2	8b 4c 24 24	 mov	 ecx, DWORD PTR e$[rsp]
  00bb6	8b 44 24 18	 mov	 eax, DWORD PTR d$[rsp]
  00bba	33 c1		 xor	 eax, ecx
  00bbc	89 44 24 18	 mov	 DWORD PTR d$[rsp], eax
  00bc0	8b 4c 24 08	 mov	 ecx, DWORD PTR b$[rsp]
  00bc4	8b 44 24 24	 mov	 eax, DWORD PTR e$[rsp]
  00bc8	23 c1		 and	 eax, ecx
  00bca	89 44 24 24	 mov	 DWORD PTR e$[rsp], eax
  00bce	8b 4c 24 24	 mov	 ecx, DWORD PTR e$[rsp]
  00bd2	8b 44 24 1c	 mov	 eax, DWORD PTR c$[rsp]
  00bd6	33 c1		 xor	 eax, ecx
  00bd8	89 44 24 1c	 mov	 DWORD PTR c$[rsp], eax
  00bdc	8b 4c 24 08	 mov	 ecx, DWORD PTR b$[rsp]
  00be0	8b 04 24	 mov	 eax, DWORD PTR a$[rsp]
  00be3	0b c1		 or	 eax, ecx
  00be5	89 04 24	 mov	 DWORD PTR a$[rsp], eax
  00be8	8b 4c 24 24	 mov	 ecx, DWORD PTR e$[rsp]
  00bec	8b 04 24	 mov	 eax, DWORD PTR a$[rsp]
  00bef	33 c1		 xor	 eax, ecx
  00bf1	89 04 24	 mov	 DWORD PTR a$[rsp], eax
  00bf4	8b 4c 24 1c	 mov	 ecx, DWORD PTR c$[rsp]
  00bf8	8b 44 24 24	 mov	 eax, DWORD PTR e$[rsp]
  00bfc	0b c1		 or	 eax, ecx
  00bfe	89 44 24 24	 mov	 DWORD PTR e$[rsp], eax
  00c02	8b 4c 24 18	 mov	 ecx, DWORD PTR d$[rsp]
  00c06	8b 44 24 24	 mov	 eax, DWORD PTR e$[rsp]
  00c0a	33 c1		 xor	 eax, ecx
  00c0c	89 44 24 24	 mov	 DWORD PTR e$[rsp], eax
  00c10	8b 4c 24 1c	 mov	 ecx, DWORD PTR c$[rsp]
  00c14	8b 44 24 18	 mov	 eax, DWORD PTR d$[rsp]
  00c18	23 c1		 and	 eax, ecx
  00c1a	89 44 24 18	 mov	 DWORD PTR d$[rsp], eax
  00c1e	8b 44 24 24	 mov	 eax, DWORD PTR e$[rsp]
  00c22	f7 d0		 not	 eax
  00c24	89 44 24 24	 mov	 DWORD PTR e$[rsp], eax
  00c28	8b 4c 24 18	 mov	 ecx, DWORD PTR d$[rsp]
  00c2c	8b 04 24	 mov	 eax, DWORD PTR a$[rsp]
  00c2f	33 c1		 xor	 eax, ecx
  00c31	89 04 24	 mov	 DWORD PTR a$[rsp], eax
  00c34	48 8b 4c 24 10	 mov	 rcx, QWORD PTR k$[rsp]
  00c39	8b 44 24 08	 mov	 eax, DWORD PTR b$[rsp]
  00c3d	89 41 40	 mov	 DWORD PTR [rcx+64], eax
  00c40	48 8b 4c 24 10	 mov	 rcx, QWORD PTR k$[rsp]
  00c45	8b 04 24	 mov	 eax, DWORD PTR a$[rsp]
  00c48	89 41 44	 mov	 DWORD PTR [rcx+68], eax
  00c4b	48 8b 4c 24 10	 mov	 rcx, QWORD PTR k$[rsp]
  00c50	8b 44 24 24	 mov	 eax, DWORD PTR e$[rsp]
  00c54	89 41 48	 mov	 DWORD PTR [rcx+72], eax
  00c57	48 8b 4c 24 10	 mov	 rcx, QWORD PTR k$[rsp]
  00c5c	8b 44 24 1c	 mov	 eax, DWORD PTR c$[rsp]
  00c60	89 41 4c	 mov	 DWORD PTR [rcx+76], eax

; 675  : 	}

  00c63	e9 60 f5 ff ff	 jmp	 $LN2@serpent_se
$LN1@serpent_se:

; 676  : 	afterS2(LK); afterS2(S3); afterS3(SK);

  00c68	48 8b 44 24 10	 mov	 rax, QWORD PTR k$[rsp]
  00c6d	8b 40 50	 mov	 eax, DWORD PTR [rax+80]
  00c70	89 04 24	 mov	 DWORD PTR a$[rsp], eax
  00c73	48 8b 44 24 10	 mov	 rax, QWORD PTR k$[rsp]
  00c78	8b 40 54	 mov	 eax, DWORD PTR [rax+84]
  00c7b	89 44 24 24	 mov	 DWORD PTR e$[rsp], eax
  00c7f	48 8b 44 24 10	 mov	 rax, QWORD PTR k$[rsp]
  00c84	8b 40 58	 mov	 eax, DWORD PTR [rax+88]
  00c87	89 44 24 08	 mov	 DWORD PTR b$[rsp], eax
  00c8b	48 8b 44 24 10	 mov	 rax, QWORD PTR k$[rsp]
  00c90	8b 40 5c	 mov	 eax, DWORD PTR [rax+92]
  00c93	89 44 24 18	 mov	 DWORD PTR d$[rsp], eax
  00c97	8b 04 24	 mov	 eax, DWORD PTR a$[rsp]
  00c9a	89 44 24 1c	 mov	 DWORD PTR c$[rsp], eax
  00c9e	8b 4c 24 18	 mov	 ecx, DWORD PTR d$[rsp]
  00ca2	8b 04 24	 mov	 eax, DWORD PTR a$[rsp]
  00ca5	0b c1		 or	 eax, ecx
  00ca7	89 04 24	 mov	 DWORD PTR a$[rsp], eax
  00caa	8b 4c 24 24	 mov	 ecx, DWORD PTR e$[rsp]
  00cae	8b 44 24 18	 mov	 eax, DWORD PTR d$[rsp]
  00cb2	33 c1		 xor	 eax, ecx
  00cb4	89 44 24 18	 mov	 DWORD PTR d$[rsp], eax
  00cb8	8b 4c 24 1c	 mov	 ecx, DWORD PTR c$[rsp]
  00cbc	8b 44 24 24	 mov	 eax, DWORD PTR e$[rsp]
  00cc0	23 c1		 and	 eax, ecx
  00cc2	89 44 24 24	 mov	 DWORD PTR e$[rsp], eax
  00cc6	8b 4c 24 08	 mov	 ecx, DWORD PTR b$[rsp]
  00cca	8b 44 24 1c	 mov	 eax, DWORD PTR c$[rsp]
  00cce	33 c1		 xor	 eax, ecx
  00cd0	89 44 24 1c	 mov	 DWORD PTR c$[rsp], eax
  00cd4	8b 4c 24 18	 mov	 ecx, DWORD PTR d$[rsp]
  00cd8	8b 44 24 08	 mov	 eax, DWORD PTR b$[rsp]
  00cdc	33 c1		 xor	 eax, ecx
  00cde	89 44 24 08	 mov	 DWORD PTR b$[rsp], eax
  00ce2	8b 0c 24	 mov	 ecx, DWORD PTR a$[rsp]
  00ce5	8b 44 24 18	 mov	 eax, DWORD PTR d$[rsp]
  00ce9	23 c1		 and	 eax, ecx
  00ceb	89 44 24 18	 mov	 DWORD PTR d$[rsp], eax
  00cef	8b 4c 24 24	 mov	 ecx, DWORD PTR e$[rsp]
  00cf3	8b 44 24 1c	 mov	 eax, DWORD PTR c$[rsp]
  00cf7	0b c1		 or	 eax, ecx
  00cf9	89 44 24 1c	 mov	 DWORD PTR c$[rsp], eax
  00cfd	8b 4c 24 1c	 mov	 ecx, DWORD PTR c$[rsp]
  00d01	8b 44 24 18	 mov	 eax, DWORD PTR d$[rsp]
  00d05	33 c1		 xor	 eax, ecx
  00d07	89 44 24 18	 mov	 DWORD PTR d$[rsp], eax
  00d0b	8b 4c 24 24	 mov	 ecx, DWORD PTR e$[rsp]
  00d0f	8b 04 24	 mov	 eax, DWORD PTR a$[rsp]
  00d12	33 c1		 xor	 eax, ecx
  00d14	89 04 24	 mov	 DWORD PTR a$[rsp], eax
  00d17	8b 0c 24	 mov	 ecx, DWORD PTR a$[rsp]
  00d1a	8b 44 24 1c	 mov	 eax, DWORD PTR c$[rsp]
  00d1e	23 c1		 and	 eax, ecx
  00d20	89 44 24 1c	 mov	 DWORD PTR c$[rsp], eax
  00d24	8b 4c 24 18	 mov	 ecx, DWORD PTR d$[rsp]
  00d28	8b 44 24 24	 mov	 eax, DWORD PTR e$[rsp]
  00d2c	33 c1		 xor	 eax, ecx
  00d2e	89 44 24 24	 mov	 DWORD PTR e$[rsp], eax
  00d32	8b 4c 24 08	 mov	 ecx, DWORD PTR b$[rsp]
  00d36	8b 44 24 1c	 mov	 eax, DWORD PTR c$[rsp]
  00d3a	33 c1		 xor	 eax, ecx
  00d3c	89 44 24 1c	 mov	 DWORD PTR c$[rsp], eax
  00d40	8b 0c 24	 mov	 ecx, DWORD PTR a$[rsp]
  00d43	8b 44 24 24	 mov	 eax, DWORD PTR e$[rsp]
  00d47	0b c1		 or	 eax, ecx
  00d49	89 44 24 24	 mov	 DWORD PTR e$[rsp], eax
  00d4d	8b 4c 24 08	 mov	 ecx, DWORD PTR b$[rsp]
  00d51	8b 44 24 24	 mov	 eax, DWORD PTR e$[rsp]
  00d55	33 c1		 xor	 eax, ecx
  00d57	89 44 24 24	 mov	 DWORD PTR e$[rsp], eax
  00d5b	8b 4c 24 18	 mov	 ecx, DWORD PTR d$[rsp]
  00d5f	8b 04 24	 mov	 eax, DWORD PTR a$[rsp]
  00d62	33 c1		 xor	 eax, ecx
  00d64	89 04 24	 mov	 DWORD PTR a$[rsp], eax
  00d67	8b 44 24 24	 mov	 eax, DWORD PTR e$[rsp]
  00d6b	89 44 24 08	 mov	 DWORD PTR b$[rsp], eax
  00d6f	8b 4c 24 18	 mov	 ecx, DWORD PTR d$[rsp]
  00d73	8b 44 24 24	 mov	 eax, DWORD PTR e$[rsp]
  00d77	0b c1		 or	 eax, ecx
  00d79	89 44 24 24	 mov	 DWORD PTR e$[rsp], eax
  00d7d	8b 0c 24	 mov	 ecx, DWORD PTR a$[rsp]
  00d80	8b 44 24 24	 mov	 eax, DWORD PTR e$[rsp]
  00d84	33 c1		 xor	 eax, ecx
  00d86	89 44 24 24	 mov	 DWORD PTR e$[rsp], eax
  00d8a	48 8b 4c 24 10	 mov	 rcx, QWORD PTR k$[rsp]
  00d8f	8b 44 24 24	 mov	 eax, DWORD PTR e$[rsp]
  00d93	89 41 50	 mov	 DWORD PTR [rcx+80], eax
  00d96	48 8b 4c 24 10	 mov	 rcx, QWORD PTR k$[rsp]
  00d9b	8b 44 24 08	 mov	 eax, DWORD PTR b$[rsp]
  00d9f	89 41 54	 mov	 DWORD PTR [rcx+84], eax
  00da2	48 8b 4c 24 10	 mov	 rcx, QWORD PTR k$[rsp]
  00da7	8b 44 24 18	 mov	 eax, DWORD PTR d$[rsp]
  00dab	89 41 58	 mov	 DWORD PTR [rcx+88], eax
  00dae	48 8b 4c 24 10	 mov	 rcx, QWORD PTR k$[rsp]
  00db3	8b 44 24 1c	 mov	 eax, DWORD PTR c$[rsp]
  00db7	89 41 5c	 mov	 DWORD PTR [rcx+92], eax

; 677  : }

  00dba	48 83 c4 38	 add	 rsp, 56			; 00000038H
  00dbe	c3		 ret	 0
serpent_set_key ENDP
END
