; Listing generated by Microsoft (R) Optimizing Compiler Version 15.00.30729.01 

	TITLE	c:\home\public\Desktop\projects\ciphershed.build\src\Setup\ComSetup.cpp
	.686P
	.XMM
	include listing.inc
	.model	flat

INCLUDELIB LIBCMT
INCLUDELIB OLDNAMES

PUBLIC	??_C@_0P@GHFPNOJB@bad?5allocation?$AA@		; `string'
PUBLIC	??_C@_07KJLOKDKB@TypeLib?$AA@			; `string'
PUBLIC	??_C@_08KEKAJNJI@Software?$AA@			; `string'
PUBLIC	??_C@_06FDHFNJBJ@SYSTEM?$AA@			; `string'
PUBLIC	??_C@_08LOPHEHKG@SECURITY?$AA@			; `string'
PUBLIC	??_C@_03DDIMFGBA@SAM?$AA@			; `string'
PUBLIC	??_C@_04IHBFOLAC@Mime?$AA@			; `string'
PUBLIC	??_C@_08PPIOJEA@Hardware?$AA@			; `string'
PUBLIC	??_C@_09JKPGEJCH@Interface?$AA@			; `string'
PUBLIC	??_C@_08PICKODJL@FileType?$AA@			; `string'
PUBLIC	??_C@_0BF@HDDNNDFH@Component?5Categories?$AA@	; `string'
PUBLIC	??_C@_05GIBEAPNE@CLSID?$AA@			; `string'
PUBLIC	??_C@_05PDIKPLII@AppID?$AA@			; `string'
PUBLIC	??_C@_06JBKGCNBB@Delete?$AA@			; `string'
PUBLIC	??_C@_08KAAPDIAN@NoRemove?$AA@			; `string'
PUBLIC	??_C@_0M@DBGDLGLL@ForceRemove?$AA@		; `string'
PUBLIC	??_C@_03LAIAPFCB@Val?$AA@			; `string'
PUBLIC	??_C@_01HMGJMAIH@B?$AA@				; `string'
PUBLIC	??_C@_01CKDDGHAB@D?$AA@				; `string'
PUBLIC	??_C@_01PLPBNMEI@M?$AA@				; `string'
PUBLIC	??_C@_01CPLAODJH@S?$AA@				; `string'
PUBLIC	?_pAtlAutoThreadModule@ATL@@3PAUIAtlAutoThreadModule@1@A ; ATL::_pAtlAutoThreadModule
PUBLIC	?_Min@?$AtlLimits@H@ATL@@2HB			; ATL::AtlLimits<int>::_Min
PUBLIC	?_Max@?$AtlLimits@H@ATL@@2HB			; ATL::AtlLimits<int>::_Max
PUBLIC	?_Min@?$AtlLimits@I@ATL@@2IB			; ATL::AtlLimits<unsigned int>::_Min
PUBLIC	?_Max@?$AtlLimits@I@ATL@@2IB			; ATL::AtlLimits<unsigned int>::_Max
PUBLIC	?_Min@?$AtlLimits@J@ATL@@2JB			; ATL::AtlLimits<long>::_Min
PUBLIC	?_Max@?$AtlLimits@J@ATL@@2JB			; ATL::AtlLimits<long>::_Max
PUBLIC	?_Min@?$AtlLimits@K@ATL@@2KB			; ATL::AtlLimits<unsigned long>::_Min
PUBLIC	?_Max@?$AtlLimits@K@ATL@@2KB			; ATL::AtlLimits<unsigned long>::_Max
PUBLIC	?_Min@?$AtlLimits@_J@ATL@@2_JB			; ATL::AtlLimits<__int64>::_Min
PUBLIC	?_Max@?$AtlLimits@_J@ATL@@2_JB			; ATL::AtlLimits<__int64>::_Max
PUBLIC	?_Min@?$AtlLimits@_K@ATL@@2_KB			; ATL::AtlLimits<unsigned __int64>::_Min
PUBLIC	?_Max@?$AtlLimits@_K@ATL@@2_KB			; ATL::AtlLimits<unsigned __int64>::_Max
PUBLIC	?m_bInitFailed@CAtlBaseModule@ATL@@2_NA		; ATL::CAtlBaseModule::m_bInitFailed
PUBLIC	?VT@?$CVarTypeInfo@D@ATL@@2GB			; ATL::CVarTypeInfo<char>::VT
PUBLIC	?pmField@?$CVarTypeInfo@D@ATL@@2QQtagVARIANT@@DQ3@ ; ATL::CVarTypeInfo<char>::pmField
PUBLIC	?VT@?$CVarTypeInfo@E@ATL@@2GB			; ATL::CVarTypeInfo<unsigned char>::VT
PUBLIC	?pmField@?$CVarTypeInfo@E@ATL@@2QQtagVARIANT@@EQ3@ ; ATL::CVarTypeInfo<unsigned char>::pmField
PUBLIC	?VT@?$CVarTypeInfo@PAD@ATL@@2GB			; ATL::CVarTypeInfo<char *>::VT
PUBLIC	?pmField@?$CVarTypeInfo@PAD@ATL@@2QQtagVARIANT@@PADQ3@ ; ATL::CVarTypeInfo<char *>::pmField
PUBLIC	?VT@?$CVarTypeInfo@PAE@ATL@@2GB			; ATL::CVarTypeInfo<unsigned char *>::VT
PUBLIC	?pmField@?$CVarTypeInfo@PAE@ATL@@2QQtagVARIANT@@PAEQ3@ ; ATL::CVarTypeInfo<unsigned char *>::pmField
PUBLIC	?VT@?$CVarTypeInfo@F@ATL@@2GB			; ATL::CVarTypeInfo<short>::VT
PUBLIC	?pmField@?$CVarTypeInfo@F@ATL@@2QQtagVARIANT@@FQ3@ ; ATL::CVarTypeInfo<short>::pmField
PUBLIC	?VT@?$CVarTypeInfo@PAF@ATL@@2GB			; ATL::CVarTypeInfo<short *>::VT
PUBLIC	?pmField@?$CVarTypeInfo@PAF@ATL@@2QQtagVARIANT@@PAFQ3@ ; ATL::CVarTypeInfo<short *>::pmField
PUBLIC	?VT@?$CVarTypeInfo@G@ATL@@2GB			; ATL::CVarTypeInfo<unsigned short>::VT
PUBLIC	?pmField@?$CVarTypeInfo@G@ATL@@2QQtagVARIANT@@GQ3@ ; ATL::CVarTypeInfo<unsigned short>::pmField
PUBLIC	?VT@?$CVarTypeInfo@PAG@ATL@@2GB			; ATL::CVarTypeInfo<unsigned short *>::VT
PUBLIC	?pmField@?$CVarTypeInfo@PAG@ATL@@2QQtagVARIANT@@PAGQ3@ ; ATL::CVarTypeInfo<unsigned short *>::pmField
PUBLIC	?VT@?$CVarTypeInfo@H@ATL@@2GB			; ATL::CVarTypeInfo<int>::VT
PUBLIC	?pmField@?$CVarTypeInfo@H@ATL@@2QQtagVARIANT@@HQ3@ ; ATL::CVarTypeInfo<int>::pmField
PUBLIC	?VT@?$CVarTypeInfo@PAH@ATL@@2GB			; ATL::CVarTypeInfo<int *>::VT
PUBLIC	?pmField@?$CVarTypeInfo@PAH@ATL@@2QQtagVARIANT@@PAHQ3@ ; ATL::CVarTypeInfo<int *>::pmField
PUBLIC	?VT@?$CVarTypeInfo@I@ATL@@2GB			; ATL::CVarTypeInfo<unsigned int>::VT
PUBLIC	?pmField@?$CVarTypeInfo@I@ATL@@2QQtagVARIANT@@IQ3@ ; ATL::CVarTypeInfo<unsigned int>::pmField
PUBLIC	?VT@?$CVarTypeInfo@PAI@ATL@@2GB			; ATL::CVarTypeInfo<unsigned int *>::VT
PUBLIC	?pmField@?$CVarTypeInfo@PAI@ATL@@2QQtagVARIANT@@PAIQ3@ ; ATL::CVarTypeInfo<unsigned int *>::pmField
PUBLIC	?VT@?$CVarTypeInfo@J@ATL@@2GB			; ATL::CVarTypeInfo<long>::VT
PUBLIC	?pmField@?$CVarTypeInfo@J@ATL@@2QQtagVARIANT@@JQ3@ ; ATL::CVarTypeInfo<long>::pmField
PUBLIC	?VT@?$CVarTypeInfo@PAJ@ATL@@2GB			; ATL::CVarTypeInfo<long *>::VT
PUBLIC	?pmField@?$CVarTypeInfo@PAJ@ATL@@2QQtagVARIANT@@PAJQ3@ ; ATL::CVarTypeInfo<long *>::pmField
PUBLIC	?VT@?$CVarTypeInfo@K@ATL@@2GB			; ATL::CVarTypeInfo<unsigned long>::VT
PUBLIC	?pmField@?$CVarTypeInfo@K@ATL@@2QQtagVARIANT@@KQ3@ ; ATL::CVarTypeInfo<unsigned long>::pmField
PUBLIC	?VT@?$CVarTypeInfo@PAK@ATL@@2GB			; ATL::CVarTypeInfo<unsigned long *>::VT
PUBLIC	?pmField@?$CVarTypeInfo@PAK@ATL@@2QQtagVARIANT@@PAKQ3@ ; ATL::CVarTypeInfo<unsigned long *>::pmField
PUBLIC	?VT@?$CVarTypeInfo@_J@ATL@@2GB			; ATL::CVarTypeInfo<__int64>::VT
PUBLIC	?pmField@?$CVarTypeInfo@_J@ATL@@2QQtagVARIANT@@_JQ3@ ; ATL::CVarTypeInfo<__int64>::pmField
PUBLIC	?VT@?$CVarTypeInfo@PA_J@ATL@@2GB		; ATL::CVarTypeInfo<__int64 *>::VT
PUBLIC	?pmField@?$CVarTypeInfo@PA_J@ATL@@2QQtagVARIANT@@PA_JQ3@ ; ATL::CVarTypeInfo<__int64 *>::pmField
PUBLIC	?VT@?$CVarTypeInfo@_K@ATL@@2GB			; ATL::CVarTypeInfo<unsigned __int64>::VT
PUBLIC	?pmField@?$CVarTypeInfo@_K@ATL@@2QQtagVARIANT@@_KQ3@ ; ATL::CVarTypeInfo<unsigned __int64>::pmField
PUBLIC	?VT@?$CVarTypeInfo@PA_K@ATL@@2GB		; ATL::CVarTypeInfo<unsigned __int64 *>::VT
PUBLIC	?pmField@?$CVarTypeInfo@PA_K@ATL@@2QQtagVARIANT@@PA_KQ3@ ; ATL::CVarTypeInfo<unsigned __int64 *>::pmField
PUBLIC	?VT@?$CVarTypeInfo@M@ATL@@2GB			; ATL::CVarTypeInfo<float>::VT
PUBLIC	?pmField@?$CVarTypeInfo@M@ATL@@2QQtagVARIANT@@MQ3@ ; ATL::CVarTypeInfo<float>::pmField
PUBLIC	?VT@?$CVarTypeInfo@PAM@ATL@@2GB			; ATL::CVarTypeInfo<float *>::VT
PUBLIC	?pmField@?$CVarTypeInfo@PAM@ATL@@2QQtagVARIANT@@PAMQ3@ ; ATL::CVarTypeInfo<float *>::pmField
PUBLIC	?VT@?$CVarTypeInfo@N@ATL@@2GB			; ATL::CVarTypeInfo<double>::VT
PUBLIC	?pmField@?$CVarTypeInfo@N@ATL@@2QQtagVARIANT@@NQ3@ ; ATL::CVarTypeInfo<double>::pmField
PUBLIC	?VT@?$CVarTypeInfo@PAN@ATL@@2GB			; ATL::CVarTypeInfo<double *>::VT
PUBLIC	?pmField@?$CVarTypeInfo@PAN@ATL@@2QQtagVARIANT@@PANQ3@ ; ATL::CVarTypeInfo<double *>::pmField
PUBLIC	?VT@?$CVarTypeInfo@UtagVARIANT@@@ATL@@2GB	; ATL::CVarTypeInfo<tagVARIANT>::VT
PUBLIC	?VT@?$CVarTypeInfo@PA_W@ATL@@2GB		; ATL::CVarTypeInfo<wchar_t *>::VT
PUBLIC	?pmField@?$CVarTypeInfo@PA_W@ATL@@2QQtagVARIANT@@PA_WQ3@ ; ATL::CVarTypeInfo<wchar_t *>::pmField
PUBLIC	?VT@?$CVarTypeInfo@PAPA_W@ATL@@2GB		; ATL::CVarTypeInfo<wchar_t * *>::VT
PUBLIC	?pmField@?$CVarTypeInfo@PAPA_W@ATL@@2QQtagVARIANT@@PAPA_WQ3@ ; ATL::CVarTypeInfo<wchar_t * *>::pmField
PUBLIC	?VT@?$CVarTypeInfo@PAUIUnknown@@@ATL@@2GB	; ATL::CVarTypeInfo<IUnknown *>::VT
PUBLIC	?pmField@?$CVarTypeInfo@PAUIUnknown@@@ATL@@2QQtagVARIANT@@PAUIUnknown@@Q3@ ; ATL::CVarTypeInfo<IUnknown *>::pmField
PUBLIC	?VT@?$CVarTypeInfo@PAPAUIUnknown@@@ATL@@2GB	; ATL::CVarTypeInfo<IUnknown * *>::VT
PUBLIC	?pmField@?$CVarTypeInfo@PAPAUIUnknown@@@ATL@@2QQtagVARIANT@@PAPAUIUnknown@@Q3@ ; ATL::CVarTypeInfo<IUnknown * *>::pmField
PUBLIC	?VT@?$CVarTypeInfo@PAUIDispatch@@@ATL@@2GB	; ATL::CVarTypeInfo<IDispatch *>::VT
PUBLIC	?pmField@?$CVarTypeInfo@PAUIDispatch@@@ATL@@2QQtagVARIANT@@PAUIDispatch@@Q3@ ; ATL::CVarTypeInfo<IDispatch *>::pmField
PUBLIC	?VT@?$CVarTypeInfo@PAPAUIDispatch@@@ATL@@2GB	; ATL::CVarTypeInfo<IDispatch * *>::VT
PUBLIC	?pmField@?$CVarTypeInfo@PAPAUIDispatch@@@ATL@@2QQtagVARIANT@@PAPAUIDispatch@@Q3@ ; ATL::CVarTypeInfo<IDispatch * *>::pmField
PUBLIC	?VT@?$CVarTypeInfo@TtagCY@@@ATL@@2GB		; ATL::CVarTypeInfo<tagCY>::VT
PUBLIC	?pmField@?$CVarTypeInfo@TtagCY@@@ATL@@2QQtagVARIANT@@TtagCY@@Q3@ ; ATL::CVarTypeInfo<tagCY>::pmField
PUBLIC	?VT@?$CVarTypeInfo@PATtagCY@@@ATL@@2GB		; ATL::CVarTypeInfo<tagCY *>::VT
PUBLIC	?pmField@?$CVarTypeInfo@PATtagCY@@@ATL@@2QQtagVARIANT@@PATtagCY@@Q3@ ; ATL::CVarTypeInfo<tagCY *>::pmField
PUBLIC	_LIBID_ATLLib
PUBLIC	_CLSID_Registrar
PUBLIC	_IID_IRegistrar
PUBLIC	_IID_IAxWinHostWindow
PUBLIC	_IID_IAxWinAmbientDispatch
PUBLIC	_IID_IInternalConnection
PUBLIC	_IID_IDocHostUIHandlerDispatch
PUBLIC	_IID_IAxWinHostWindowLic
PUBLIC	_IID_IAxWinAmbientDispatchEx
PUBLIC	___pobjMapEntryFirst
PUBLIC	___pobjMapEntryLast
PUBLIC	?_pPerfRegFunc@ATL@@3P6AJPAUHINSTANCE__@@@ZA	; ATL::_pPerfRegFunc
PUBLIC	?_pPerfUnRegFunc@ATL@@3P6AJXZA			; ATL::_pPerfUnRegFunc
PUBLIC	?_AtlRegisterPerUser@ATL@@3_NA			; ATL::_AtlRegisterPerUser
PUBLIC	?_pAtlModule@ATL@@3PAVCAtlModule@1@A		; ATL::_pAtlModule
PUBLIC	?m_libid@CAtlModule@ATL@@2U_GUID@@A		; ATL::CAtlModule::m_libid
PUBLIC	?_pModule@ATL@@3PAVCComModule@1@A		; ATL::_pModule
PUBLIC	?ATL_CREATE_OBJECT@CComApartment@ATL@@2IA	; ATL::CComApartment::ATL_CREATE_OBJECT
PUBLIC	?MAX_VALUE@CRegParser@ATL@@1HB			; ATL::CRegParser::MAX_VALUE
PUBLIC	?MAX_TYPE@CRegParser@ATL@@1HB			; ATL::CRegParser::MAX_TYPE
PUBLIC	?rgszNeverDelete@CRegParser@ATL@@1QBQBDB	; ATL::CRegParser::rgszNeverDelete
PUBLIC	?cbNeverDelete@CRegParser@ATL@@1HB		; ATL::CRegParser::cbNeverDelete
PUBLIC	?_Value@?$_Is_swap_move@U_Swap_move_tag@std@@@std@@2_NB ; std::_Is_swap_move<std::_Swap_move_tag>::_Value
PUBLIC	?collate@?$_Locbase@H@std@@2HB			; std::_Locbase<int>::collate
PUBLIC	?ctype@?$_Locbase@H@std@@2HB			; std::_Locbase<int>::ctype
PUBLIC	?monetary@?$_Locbase@H@std@@2HB			; std::_Locbase<int>::monetary
PUBLIC	?numeric@?$_Locbase@H@std@@2HB			; std::_Locbase<int>::numeric
PUBLIC	?time@?$_Locbase@H@std@@2HB			; std::_Locbase<int>::time
PUBLIC	?messages@?$_Locbase@H@std@@2HB			; std::_Locbase<int>::messages
PUBLIC	?all@?$_Locbase@H@std@@2HB			; std::_Locbase<int>::all
PUBLIC	?none@?$_Locbase@H@std@@2HB			; std::_Locbase<int>::none
PUBLIC	?table_size@?$ctype@D@std@@2IB			; std::ctype<char>::table_size
PUBLIC	?skipws@?$_Iosb@H@std@@2W4_Fmtflags@12@B	; std::_Iosb<int>::skipws
PUBLIC	?unitbuf@?$_Iosb@H@std@@2W4_Fmtflags@12@B	; std::_Iosb<int>::unitbuf
PUBLIC	?uppercase@?$_Iosb@H@std@@2W4_Fmtflags@12@B	; std::_Iosb<int>::uppercase
PUBLIC	?showbase@?$_Iosb@H@std@@2W4_Fmtflags@12@B	; std::_Iosb<int>::showbase
PUBLIC	?showpoint@?$_Iosb@H@std@@2W4_Fmtflags@12@B	; std::_Iosb<int>::showpoint
PUBLIC	?showpos@?$_Iosb@H@std@@2W4_Fmtflags@12@B	; std::_Iosb<int>::showpos
PUBLIC	?left@?$_Iosb@H@std@@2W4_Fmtflags@12@B		; std::_Iosb<int>::left
PUBLIC	?right@?$_Iosb@H@std@@2W4_Fmtflags@12@B		; std::_Iosb<int>::right
PUBLIC	?internal@?$_Iosb@H@std@@2W4_Fmtflags@12@B	; std::_Iosb<int>::internal
PUBLIC	?dec@?$_Iosb@H@std@@2W4_Fmtflags@12@B		; std::_Iosb<int>::dec
PUBLIC	?oct@?$_Iosb@H@std@@2W4_Fmtflags@12@B		; std::_Iosb<int>::oct
PUBLIC	?hex@?$_Iosb@H@std@@2W4_Fmtflags@12@B		; std::_Iosb<int>::hex
PUBLIC	?scientific@?$_Iosb@H@std@@2W4_Fmtflags@12@B	; std::_Iosb<int>::scientific
PUBLIC	?fixed@?$_Iosb@H@std@@2W4_Fmtflags@12@B		; std::_Iosb<int>::fixed
PUBLIC	?hexfloat@?$_Iosb@H@std@@2W4_Fmtflags@12@B	; std::_Iosb<int>::hexfloat
PUBLIC	?boolalpha@?$_Iosb@H@std@@2W4_Fmtflags@12@B	; std::_Iosb<int>::boolalpha
PUBLIC	?_Stdio@?$_Iosb@H@std@@2W4_Fmtflags@12@B	; std::_Iosb<int>::_Stdio
PUBLIC	?adjustfield@?$_Iosb@H@std@@2W4_Fmtflags@12@B	; std::_Iosb<int>::adjustfield
PUBLIC	?basefield@?$_Iosb@H@std@@2W4_Fmtflags@12@B	; std::_Iosb<int>::basefield
PUBLIC	?floatfield@?$_Iosb@H@std@@2W4_Fmtflags@12@B	; std::_Iosb<int>::floatfield
PUBLIC	?goodbit@?$_Iosb@H@std@@2W4_Iostate@12@B	; std::_Iosb<int>::goodbit
PUBLIC	?eofbit@?$_Iosb@H@std@@2W4_Iostate@12@B		; std::_Iosb<int>::eofbit
PUBLIC	?failbit@?$_Iosb@H@std@@2W4_Iostate@12@B	; std::_Iosb<int>::failbit
PUBLIC	?badbit@?$_Iosb@H@std@@2W4_Iostate@12@B		; std::_Iosb<int>::badbit
PUBLIC	?_Hardfail@?$_Iosb@H@std@@2W4_Iostate@12@B	; std::_Iosb<int>::_Hardfail
PUBLIC	?in@?$_Iosb@H@std@@2W4_Openmode@12@B		; std::_Iosb<int>::in
PUBLIC	?out@?$_Iosb@H@std@@2W4_Openmode@12@B		; std::_Iosb<int>::out
PUBLIC	?ate@?$_Iosb@H@std@@2W4_Openmode@12@B		; std::_Iosb<int>::ate
PUBLIC	?app@?$_Iosb@H@std@@2W4_Openmode@12@B		; std::_Iosb<int>::app
PUBLIC	?trunc@?$_Iosb@H@std@@2W4_Openmode@12@B		; std::_Iosb<int>::trunc
PUBLIC	?_Nocreate@?$_Iosb@H@std@@2W4_Openmode@12@B	; std::_Iosb<int>::_Nocreate
PUBLIC	?_Noreplace@?$_Iosb@H@std@@2W4_Openmode@12@B	; std::_Iosb<int>::_Noreplace
PUBLIC	?binary@?$_Iosb@H@std@@2W4_Openmode@12@B	; std::_Iosb<int>::binary
PUBLIC	?beg@?$_Iosb@H@std@@2W4_Seekdir@12@B		; std::_Iosb<int>::beg
PUBLIC	?cur@?$_Iosb@H@std@@2W4_Seekdir@12@B		; std::_Iosb<int>::cur
PUBLIC	?end@?$_Iosb@H@std@@2W4_Seekdir@12@B		; std::_Iosb<int>::end
;	COMDAT ?_pAtlAutoThreadModule@ATL@@3PAUIAtlAutoThreadModule@1@A
_BSS	SEGMENT
?_pAtlAutoThreadModule@ATL@@3PAUIAtlAutoThreadModule@1@A DD 01H DUP (?) ; ATL::_pAtlAutoThreadModule
_BSS	ENDS
;	COMDAT ?m_bInitFailed@CAtlBaseModule@ATL@@2_NA
_BSS	SEGMENT
?m_bInitFailed@CAtlBaseModule@ATL@@2_NA DB 01H DUP (?)	; ATL::CAtlBaseModule::m_bInitFailed
_BSS	ENDS
;	COMDAT ?_pPerfRegFunc@ATL@@3P6AJPAUHINSTANCE__@@@ZA
_BSS	SEGMENT
?_pPerfRegFunc@ATL@@3P6AJPAUHINSTANCE__@@@ZA DD 01H DUP (?) ; ATL::_pPerfRegFunc
_BSS	ENDS
;	COMDAT ?_pPerfUnRegFunc@ATL@@3P6AJXZA
_BSS	SEGMENT
?_pPerfUnRegFunc@ATL@@3P6AJXZA DD 01H DUP (?)		; ATL::_pPerfUnRegFunc
_BSS	ENDS
;	COMDAT ?_AtlRegisterPerUser@ATL@@3_NA
_BSS	SEGMENT
?_AtlRegisterPerUser@ATL@@3_NA DB 01H DUP (?)		; ATL::_AtlRegisterPerUser
_BSS	ENDS
;	COMDAT ?_pAtlModule@ATL@@3PAVCAtlModule@1@A
_BSS	SEGMENT
?_pAtlModule@ATL@@3PAVCAtlModule@1@A DD 01H DUP (?)	; ATL::_pAtlModule
_BSS	ENDS
;	COMDAT ?m_libid@CAtlModule@ATL@@2U_GUID@@A
_BSS	SEGMENT
?m_libid@CAtlModule@ATL@@2U_GUID@@A DB 010H DUP (?)	; ATL::CAtlModule::m_libid
_BSS	ENDS
;	COMDAT ?_pModule@ATL@@3PAVCComModule@1@A
_BSS	SEGMENT
?_pModule@ATL@@3PAVCComModule@1@A DD 01H DUP (?)	; ATL::_pModule
_BSS	ENDS
;	COMDAT ?ATL_CREATE_OBJECT@CComApartment@ATL@@2IA
_BSS	SEGMENT
?ATL_CREATE_OBJECT@CComApartment@ATL@@2IA DD 01H DUP (?) ; ATL::CComApartment::ATL_CREATE_OBJECT
_BSS	ENDS
;	COMDAT ?end@?$_Iosb@H@std@@2W4_Seekdir@12@B
CONST	SEGMENT
?end@?$_Iosb@H@std@@2W4_Seekdir@12@B DD 02H		; std::_Iosb<int>::end
CONST	ENDS
;	COMDAT ?cur@?$_Iosb@H@std@@2W4_Seekdir@12@B
CONST	SEGMENT
?cur@?$_Iosb@H@std@@2W4_Seekdir@12@B DD 01H		; std::_Iosb<int>::cur
CONST	ENDS
;	COMDAT ?beg@?$_Iosb@H@std@@2W4_Seekdir@12@B
CONST	SEGMENT
?beg@?$_Iosb@H@std@@2W4_Seekdir@12@B DD 00H		; std::_Iosb<int>::beg
CONST	ENDS
;	COMDAT ?binary@?$_Iosb@H@std@@2W4_Openmode@12@B
CONST	SEGMENT
?binary@?$_Iosb@H@std@@2W4_Openmode@12@B DD 020H	; std::_Iosb<int>::binary
CONST	ENDS
;	COMDAT ?_Noreplace@?$_Iosb@H@std@@2W4_Openmode@12@B
CONST	SEGMENT
?_Noreplace@?$_Iosb@H@std@@2W4_Openmode@12@B DD 080H	; std::_Iosb<int>::_Noreplace
CONST	ENDS
;	COMDAT ?_Nocreate@?$_Iosb@H@std@@2W4_Openmode@12@B
CONST	SEGMENT
?_Nocreate@?$_Iosb@H@std@@2W4_Openmode@12@B DD 040H	; std::_Iosb<int>::_Nocreate
CONST	ENDS
;	COMDAT ?trunc@?$_Iosb@H@std@@2W4_Openmode@12@B
CONST	SEGMENT
?trunc@?$_Iosb@H@std@@2W4_Openmode@12@B DD 010H		; std::_Iosb<int>::trunc
CONST	ENDS
;	COMDAT ?app@?$_Iosb@H@std@@2W4_Openmode@12@B
CONST	SEGMENT
?app@?$_Iosb@H@std@@2W4_Openmode@12@B DD 08H		; std::_Iosb<int>::app
CONST	ENDS
;	COMDAT ?ate@?$_Iosb@H@std@@2W4_Openmode@12@B
CONST	SEGMENT
?ate@?$_Iosb@H@std@@2W4_Openmode@12@B DD 04H		; std::_Iosb<int>::ate
CONST	ENDS
;	COMDAT ?out@?$_Iosb@H@std@@2W4_Openmode@12@B
CONST	SEGMENT
?out@?$_Iosb@H@std@@2W4_Openmode@12@B DD 02H		; std::_Iosb<int>::out
CONST	ENDS
;	COMDAT ?in@?$_Iosb@H@std@@2W4_Openmode@12@B
CONST	SEGMENT
?in@?$_Iosb@H@std@@2W4_Openmode@12@B DD 01H		; std::_Iosb<int>::in
CONST	ENDS
;	COMDAT ?_Hardfail@?$_Iosb@H@std@@2W4_Iostate@12@B
CONST	SEGMENT
?_Hardfail@?$_Iosb@H@std@@2W4_Iostate@12@B DD 010H	; std::_Iosb<int>::_Hardfail
CONST	ENDS
;	COMDAT ?badbit@?$_Iosb@H@std@@2W4_Iostate@12@B
CONST	SEGMENT
?badbit@?$_Iosb@H@std@@2W4_Iostate@12@B DD 04H		; std::_Iosb<int>::badbit
CONST	ENDS
;	COMDAT ?failbit@?$_Iosb@H@std@@2W4_Iostate@12@B
CONST	SEGMENT
?failbit@?$_Iosb@H@std@@2W4_Iostate@12@B DD 02H		; std::_Iosb<int>::failbit
CONST	ENDS
;	COMDAT ?eofbit@?$_Iosb@H@std@@2W4_Iostate@12@B
CONST	SEGMENT
?eofbit@?$_Iosb@H@std@@2W4_Iostate@12@B DD 01H		; std::_Iosb<int>::eofbit
CONST	ENDS
;	COMDAT ?goodbit@?$_Iosb@H@std@@2W4_Iostate@12@B
CONST	SEGMENT
?goodbit@?$_Iosb@H@std@@2W4_Iostate@12@B DD 00H		; std::_Iosb<int>::goodbit
CONST	ENDS
;	COMDAT ?floatfield@?$_Iosb@H@std@@2W4_Fmtflags@12@B
CONST	SEGMENT
?floatfield@?$_Iosb@H@std@@2W4_Fmtflags@12@B DD 03000H	; std::_Iosb<int>::floatfield
CONST	ENDS
;	COMDAT ?basefield@?$_Iosb@H@std@@2W4_Fmtflags@12@B
CONST	SEGMENT
?basefield@?$_Iosb@H@std@@2W4_Fmtflags@12@B DD 0e00H	; std::_Iosb<int>::basefield
CONST	ENDS
;	COMDAT ?adjustfield@?$_Iosb@H@std@@2W4_Fmtflags@12@B
CONST	SEGMENT
?adjustfield@?$_Iosb@H@std@@2W4_Fmtflags@12@B DD 01c0H	; std::_Iosb<int>::adjustfield
CONST	ENDS
;	COMDAT ?_Stdio@?$_Iosb@H@std@@2W4_Fmtflags@12@B
CONST	SEGMENT
?_Stdio@?$_Iosb@H@std@@2W4_Fmtflags@12@B DD 08000H	; std::_Iosb<int>::_Stdio
CONST	ENDS
;	COMDAT ?boolalpha@?$_Iosb@H@std@@2W4_Fmtflags@12@B
CONST	SEGMENT
?boolalpha@?$_Iosb@H@std@@2W4_Fmtflags@12@B DD 04000H	; std::_Iosb<int>::boolalpha
CONST	ENDS
;	COMDAT ?hexfloat@?$_Iosb@H@std@@2W4_Fmtflags@12@B
CONST	SEGMENT
?hexfloat@?$_Iosb@H@std@@2W4_Fmtflags@12@B DD 03000H	; std::_Iosb<int>::hexfloat
CONST	ENDS
;	COMDAT ?fixed@?$_Iosb@H@std@@2W4_Fmtflags@12@B
CONST	SEGMENT
?fixed@?$_Iosb@H@std@@2W4_Fmtflags@12@B DD 02000H	; std::_Iosb<int>::fixed
CONST	ENDS
;	COMDAT ?scientific@?$_Iosb@H@std@@2W4_Fmtflags@12@B
CONST	SEGMENT
?scientific@?$_Iosb@H@std@@2W4_Fmtflags@12@B DD 01000H	; std::_Iosb<int>::scientific
CONST	ENDS
;	COMDAT ?hex@?$_Iosb@H@std@@2W4_Fmtflags@12@B
CONST	SEGMENT
?hex@?$_Iosb@H@std@@2W4_Fmtflags@12@B DD 0800H		; std::_Iosb<int>::hex
CONST	ENDS
;	COMDAT ?oct@?$_Iosb@H@std@@2W4_Fmtflags@12@B
CONST	SEGMENT
?oct@?$_Iosb@H@std@@2W4_Fmtflags@12@B DD 0400H		; std::_Iosb<int>::oct
CONST	ENDS
;	COMDAT ?dec@?$_Iosb@H@std@@2W4_Fmtflags@12@B
CONST	SEGMENT
?dec@?$_Iosb@H@std@@2W4_Fmtflags@12@B DD 0200H		; std::_Iosb<int>::dec
CONST	ENDS
;	COMDAT ?internal@?$_Iosb@H@std@@2W4_Fmtflags@12@B
CONST	SEGMENT
?internal@?$_Iosb@H@std@@2W4_Fmtflags@12@B DD 0100H	; std::_Iosb<int>::internal
CONST	ENDS
;	COMDAT ?right@?$_Iosb@H@std@@2W4_Fmtflags@12@B
CONST	SEGMENT
?right@?$_Iosb@H@std@@2W4_Fmtflags@12@B DD 080H		; std::_Iosb<int>::right
CONST	ENDS
;	COMDAT ?left@?$_Iosb@H@std@@2W4_Fmtflags@12@B
CONST	SEGMENT
?left@?$_Iosb@H@std@@2W4_Fmtflags@12@B DD 040H		; std::_Iosb<int>::left
CONST	ENDS
;	COMDAT ?showpos@?$_Iosb@H@std@@2W4_Fmtflags@12@B
CONST	SEGMENT
?showpos@?$_Iosb@H@std@@2W4_Fmtflags@12@B DD 020H	; std::_Iosb<int>::showpos
CONST	ENDS
;	COMDAT ?showpoint@?$_Iosb@H@std@@2W4_Fmtflags@12@B
CONST	SEGMENT
?showpoint@?$_Iosb@H@std@@2W4_Fmtflags@12@B DD 010H	; std::_Iosb<int>::showpoint
CONST	ENDS
;	COMDAT ?showbase@?$_Iosb@H@std@@2W4_Fmtflags@12@B
CONST	SEGMENT
?showbase@?$_Iosb@H@std@@2W4_Fmtflags@12@B DD 08H	; std::_Iosb<int>::showbase
CONST	ENDS
;	COMDAT ?uppercase@?$_Iosb@H@std@@2W4_Fmtflags@12@B
CONST	SEGMENT
?uppercase@?$_Iosb@H@std@@2W4_Fmtflags@12@B DD 04H	; std::_Iosb<int>::uppercase
CONST	ENDS
;	COMDAT ?unitbuf@?$_Iosb@H@std@@2W4_Fmtflags@12@B
CONST	SEGMENT
?unitbuf@?$_Iosb@H@std@@2W4_Fmtflags@12@B DD 02H	; std::_Iosb<int>::unitbuf
CONST	ENDS
;	COMDAT ?skipws@?$_Iosb@H@std@@2W4_Fmtflags@12@B
CONST	SEGMENT
?skipws@?$_Iosb@H@std@@2W4_Fmtflags@12@B DD 01H		; std::_Iosb<int>::skipws
CONST	ENDS
;	COMDAT ?table_size@?$ctype@D@std@@2IB
CONST	SEGMENT
?table_size@?$ctype@D@std@@2IB DD 0100H			; std::ctype<char>::table_size
CONST	ENDS
;	COMDAT ?none@?$_Locbase@H@std@@2HB
CONST	SEGMENT
?none@?$_Locbase@H@std@@2HB DD 00H			; std::_Locbase<int>::none
CONST	ENDS
;	COMDAT ?all@?$_Locbase@H@std@@2HB
CONST	SEGMENT
?all@?$_Locbase@H@std@@2HB DD 03fH			; std::_Locbase<int>::all
CONST	ENDS
;	COMDAT ?messages@?$_Locbase@H@std@@2HB
CONST	SEGMENT
?messages@?$_Locbase@H@std@@2HB DD 020H			; std::_Locbase<int>::messages
CONST	ENDS
;	COMDAT ?time@?$_Locbase@H@std@@2HB
CONST	SEGMENT
?time@?$_Locbase@H@std@@2HB DD 010H			; std::_Locbase<int>::time
CONST	ENDS
;	COMDAT ?numeric@?$_Locbase@H@std@@2HB
CONST	SEGMENT
?numeric@?$_Locbase@H@std@@2HB DD 08H			; std::_Locbase<int>::numeric
CONST	ENDS
;	COMDAT ?monetary@?$_Locbase@H@std@@2HB
CONST	SEGMENT
?monetary@?$_Locbase@H@std@@2HB DD 04H			; std::_Locbase<int>::monetary
CONST	ENDS
;	COMDAT ?ctype@?$_Locbase@H@std@@2HB
CONST	SEGMENT
?ctype@?$_Locbase@H@std@@2HB DD 02H			; std::_Locbase<int>::ctype
CONST	ENDS
;	COMDAT ?collate@?$_Locbase@H@std@@2HB
CONST	SEGMENT
?collate@?$_Locbase@H@std@@2HB DD 01H			; std::_Locbase<int>::collate
CONST	ENDS
_DATA	SEGMENT
__bad_alloc_Message DD FLAT:??_C@_0P@GHFPNOJB@bad?5allocation?$AA@
_DATA	ENDS
;	COMDAT ??_C@_0P@GHFPNOJB@bad?5allocation?$AA@
CONST	SEGMENT
??_C@_0P@GHFPNOJB@bad?5allocation?$AA@ DB 'bad allocation', 00H ; `string'
CONST	ENDS
;	COMDAT ?_Value@?$_Is_swap_move@U_Swap_move_tag@std@@@std@@2_NB
CONST	SEGMENT
?_Value@?$_Is_swap_move@U_Swap_move_tag@std@@@std@@2_NB DB 01H ; std::_Is_swap_move<std::_Swap_move_tag>::_Value
CONST	ENDS
;	COMDAT ?cbNeverDelete@CRegParser@ATL@@1HB
CONST	SEGMENT
?cbNeverDelete@CRegParser@ATL@@1HB DD 0cH		; ATL::CRegParser::cbNeverDelete
CONST	ENDS
;	COMDAT ?rgszNeverDelete@CRegParser@ATL@@1QBQBDB
CONST	SEGMENT
?rgszNeverDelete@CRegParser@ATL@@1QBQBDB DD FLAT:??_C@_05PDIKPLII@AppID?$AA@ ; ATL::CRegParser::rgszNeverDelete
	DD	FLAT:??_C@_05GIBEAPNE@CLSID?$AA@
	DD	FLAT:??_C@_0BF@HDDNNDFH@Component?5Categories?$AA@
	DD	FLAT:??_C@_08PICKODJL@FileType?$AA@
	DD	FLAT:??_C@_09JKPGEJCH@Interface?$AA@
	DD	FLAT:??_C@_08PPIOJEA@Hardware?$AA@
	DD	FLAT:??_C@_04IHBFOLAC@Mime?$AA@
	DD	FLAT:??_C@_03DDIMFGBA@SAM?$AA@
	DD	FLAT:??_C@_08LOPHEHKG@SECURITY?$AA@
	DD	FLAT:??_C@_06FDHFNJBJ@SYSTEM?$AA@
	DD	FLAT:??_C@_08KEKAJNJI@Software?$AA@
	DD	FLAT:??_C@_07KJLOKDKB@TypeLib?$AA@
CONST	ENDS
;	COMDAT ??_C@_07KJLOKDKB@TypeLib?$AA@
CONST	SEGMENT
??_C@_07KJLOKDKB@TypeLib?$AA@ DB 'TypeLib', 00H		; `string'
CONST	ENDS
;	COMDAT ??_C@_08KEKAJNJI@Software?$AA@
CONST	SEGMENT
??_C@_08KEKAJNJI@Software?$AA@ DB 'Software', 00H	; `string'
CONST	ENDS
;	COMDAT ??_C@_06FDHFNJBJ@SYSTEM?$AA@
CONST	SEGMENT
??_C@_06FDHFNJBJ@SYSTEM?$AA@ DB 'SYSTEM', 00H		; `string'
CONST	ENDS
;	COMDAT ??_C@_08LOPHEHKG@SECURITY?$AA@
CONST	SEGMENT
??_C@_08LOPHEHKG@SECURITY?$AA@ DB 'SECURITY', 00H	; `string'
CONST	ENDS
;	COMDAT ??_C@_03DDIMFGBA@SAM?$AA@
CONST	SEGMENT
??_C@_03DDIMFGBA@SAM?$AA@ DB 'SAM', 00H			; `string'
CONST	ENDS
;	COMDAT ??_C@_04IHBFOLAC@Mime?$AA@
CONST	SEGMENT
??_C@_04IHBFOLAC@Mime?$AA@ DB 'Mime', 00H		; `string'
CONST	ENDS
;	COMDAT ??_C@_08PPIOJEA@Hardware?$AA@
CONST	SEGMENT
??_C@_08PPIOJEA@Hardware?$AA@ DB 'Hardware', 00H	; `string'
CONST	ENDS
;	COMDAT ??_C@_09JKPGEJCH@Interface?$AA@
CONST	SEGMENT
??_C@_09JKPGEJCH@Interface?$AA@ DB 'Interface', 00H	; `string'
CONST	ENDS
;	COMDAT ??_C@_08PICKODJL@FileType?$AA@
CONST	SEGMENT
??_C@_08PICKODJL@FileType?$AA@ DB 'FileType', 00H	; `string'
CONST	ENDS
;	COMDAT ??_C@_0BF@HDDNNDFH@Component?5Categories?$AA@
CONST	SEGMENT
??_C@_0BF@HDDNNDFH@Component?5Categories?$AA@ DB 'Component Categories', 00H ; `string'
CONST	ENDS
;	COMDAT ??_C@_05GIBEAPNE@CLSID?$AA@
CONST	SEGMENT
??_C@_05GIBEAPNE@CLSID?$AA@ DB 'CLSID', 00H		; `string'
CONST	ENDS
;	COMDAT ??_C@_05PDIKPLII@AppID?$AA@
CONST	SEGMENT
??_C@_05PDIKPLII@AppID?$AA@ DB 'AppID', 00H		; `string'
CONST	ENDS
;	COMDAT ?MAX_TYPE@CRegParser@ATL@@1HB
CONST	SEGMENT
?MAX_TYPE@CRegParser@ATL@@1HB DD 01000H			; ATL::CRegParser::MAX_TYPE
CONST	ENDS
;	COMDAT ?MAX_VALUE@CRegParser@ATL@@1HB
CONST	SEGMENT
?MAX_VALUE@CRegParser@ATL@@1HB DD 01000H		; ATL::CRegParser::MAX_VALUE
CONST	ENDS
;	COMDAT ??_C@_06JBKGCNBB@Delete?$AA@
CONST	SEGMENT
??_C@_06JBKGCNBB@Delete?$AA@ DB 'Delete', 00H		; `string'
CONST	ENDS
;	COMDAT ??_C@_08KAAPDIAN@NoRemove?$AA@
CONST	SEGMENT
??_C@_08KAAPDIAN@NoRemove?$AA@ DB 'NoRemove', 00H	; `string'
CONST	ENDS
;	COMDAT ??_C@_0M@DBGDLGLL@ForceRemove?$AA@
CONST	SEGMENT
??_C@_0M@DBGDLGLL@ForceRemove?$AA@ DB 'ForceRemove', 00H ; `string'
CONST	ENDS
;	COMDAT ??_C@_03LAIAPFCB@Val?$AA@
CONST	SEGMENT
??_C@_03LAIAPFCB@Val?$AA@ DB 'Val', 00H			; `string'
CONST	ENDS
;	COMDAT ??_C@_01HMGJMAIH@B?$AA@
CONST	SEGMENT
??_C@_01HMGJMAIH@B?$AA@ DB 'B', 00H			; `string'
CONST	ENDS
;	COMDAT ??_C@_01CKDDGHAB@D?$AA@
CONST	SEGMENT
??_C@_01CKDDGHAB@D?$AA@ DB 'D', 00H			; `string'
CONST	ENDS
;	COMDAT ??_C@_01PLPBNMEI@M?$AA@
CONST	SEGMENT
??_C@_01PLPBNMEI@M?$AA@ DB 'M', 00H			; `string'
CONST	ENDS
CONST	SEGMENT
_szStringVal DD	FLAT:??_C@_01CPLAODJH@S?$AA@
_multiszStringVal DD FLAT:??_C@_01PLPBNMEI@M?$AA@
_szDwordVal DD	FLAT:??_C@_01CKDDGHAB@D?$AA@
_szBinaryVal DD	FLAT:??_C@_01HMGJMAIH@B?$AA@
_szValToken DD	FLAT:??_C@_03LAIAPFCB@Val?$AA@
_szForceRemove DD FLAT:??_C@_0M@DBGDLGLL@ForceRemove?$AA@
_szNoRemove DD	FLAT:??_C@_08KAAPDIAN@NoRemove?$AA@
_szDelete DD	FLAT:??_C@_06JBKGCNBB@Delete?$AA@
_LIBID_CipherShedMainCom DD 01770f56cH
	DW	07881H
	DW	04591H
	DB	0a1H
	DB	079H
	DB	079H
	DB	0b8H
	DB	00H
	DB	01cH
	DB	07dH
	DB	042H
_LIBID_CipherShedFormatCom DD 0a7df958cH
	DW	0716H
	DW	049e9H
	DB	08cH
	DB	03eH
	DB	053H
	DB	0a7H
	DB	075H
	DB	079H
	DB	075H
	DB	076H
CONST	ENDS
;	COMDAT ??_C@_01CPLAODJH@S?$AA@
CONST	SEGMENT
??_C@_01CPLAODJH@S?$AA@ DB 'S', 00H			; `string'
CONST	ENDS
;	COMDAT ___pobjMapEntryLast
ATL$__z	SEGMENT
___pobjMapEntryLast DD 00H
ATL$__z	ENDS
;	COMDAT ___pobjMapEntryFirst
ATL$__a	SEGMENT
___pobjMapEntryFirst DD 00H
ATL$__a	ENDS
;	COMDAT _IID_IAxWinAmbientDispatchEx
CONST	SEGMENT
_IID_IAxWinAmbientDispatchEx DD 0b2d0778bH
	DW	0ac99H
	DW	04c58H
	DB	0a5H
	DB	0c8H
	DB	0e7H
	DB	072H
	DB	04eH
	DB	053H
	DB	016H
	DB	0b5H
CONST	ENDS
;	COMDAT _IID_IAxWinHostWindowLic
CONST	SEGMENT
_IID_IAxWinHostWindowLic DD 03935bda8H
	DW	04ed9H
	DW	0495cH
	DB	086H
	DB	050H
	DB	0e0H
	DB	01fH
	DB	0c1H
	DB	0e3H
	DB	08aH
	DB	04bH
CONST	ENDS
;	COMDAT _IID_IDocHostUIHandlerDispatch
CONST	SEGMENT
_IID_IDocHostUIHandlerDispatch DD 0425b5af0H
	DW	065f1H
	DW	011d1H
	DB	096H
	DB	011H
	DB	00H
	DB	00H
	DB	0f8H
	DB	01eH
	DB	0dH
	DB	0dH
CONST	ENDS
;	COMDAT _IID_IInternalConnection
CONST	SEGMENT
_IID_IInternalConnection DD 072ad0770H
	DW	06a9fH
	DW	011d1H
	DB	0bcH
	DB	0ecH
	DB	00H
	DB	060H
	DB	08H
	DB	08fH
	DB	044H
	DB	04eH
CONST	ENDS
;	COMDAT _IID_IAxWinAmbientDispatch
CONST	SEGMENT
_IID_IAxWinAmbientDispatch DD 0b6ea2051H
	DW	048aH
	DW	011d1H
	DB	082H
	DB	0b9H
	DB	00H
	DB	0c0H
	DB	04fH
	DB	0b9H
	DB	094H
	DB	02eH
CONST	ENDS
;	COMDAT _IID_IAxWinHostWindow
CONST	SEGMENT
_IID_IAxWinHostWindow DD 0b6ea2050H
	DW	048aH
	DW	011d1H
	DB	082H
	DB	0b9H
	DB	00H
	DB	0c0H
	DB	04fH
	DB	0b9H
	DB	094H
	DB	02eH
CONST	ENDS
;	COMDAT _IID_IRegistrar
CONST	SEGMENT
_IID_IRegistrar DD 044ec053bH
	DW	0400fH
	DW	011d0H
	DB	09dH
	DB	0cdH
	DB	00H
	DB	0a0H
	DB	0c9H
	DB	03H
	DB	091H
	DB	0d3H
CONST	ENDS
;	COMDAT _CLSID_Registrar
CONST	SEGMENT
_CLSID_Registrar DD 044ec053aH
	DW	0400fH
	DW	011d0H
	DB	09dH
	DB	0cdH
	DB	00H
	DB	0a0H
	DB	0c9H
	DB	03H
	DB	091H
	DB	0d3H
CONST	ENDS
;	COMDAT _LIBID_ATLLib
CONST	SEGMENT
_LIBID_ATLLib DD 044ec0535H
	DW	0400fH
	DW	011d0H
	DB	09dH
	DB	0cdH
	DB	00H
	DB	0a0H
	DB	0c9H
	DB	03H
	DB	091H
	DB	0d3H
CONST	ENDS
;	COMDAT ?pmField@?$CVarTypeInfo@PATtagCY@@@ATL@@2QQtagVARIANT@@PATtagCY@@Q3@
CONST	SEGMENT
?pmField@?$CVarTypeInfo@PATtagCY@@@ATL@@2QQtagVARIANT@@PATtagCY@@Q3@ DD 08H ; ATL::CVarTypeInfo<tagCY *>::pmField
CONST	ENDS
;	COMDAT ?VT@?$CVarTypeInfo@PATtagCY@@@ATL@@2GB
CONST	SEGMENT
?VT@?$CVarTypeInfo@PATtagCY@@@ATL@@2GB DW 04006H	; ATL::CVarTypeInfo<tagCY *>::VT
CONST	ENDS
;	COMDAT ?pmField@?$CVarTypeInfo@TtagCY@@@ATL@@2QQtagVARIANT@@TtagCY@@Q3@
CONST	SEGMENT
?pmField@?$CVarTypeInfo@TtagCY@@@ATL@@2QQtagVARIANT@@TtagCY@@Q3@ DD 08H ; ATL::CVarTypeInfo<tagCY>::pmField
CONST	ENDS
;	COMDAT ?VT@?$CVarTypeInfo@TtagCY@@@ATL@@2GB
CONST	SEGMENT
?VT@?$CVarTypeInfo@TtagCY@@@ATL@@2GB DW 06H		; ATL::CVarTypeInfo<tagCY>::VT
CONST	ENDS
;	COMDAT ?pmField@?$CVarTypeInfo@PAPAUIDispatch@@@ATL@@2QQtagVARIANT@@PAPAUIDispatch@@Q3@
CONST	SEGMENT
?pmField@?$CVarTypeInfo@PAPAUIDispatch@@@ATL@@2QQtagVARIANT@@PAPAUIDispatch@@Q3@ DD 08H ; ATL::CVarTypeInfo<IDispatch * *>::pmField
CONST	ENDS
;	COMDAT ?VT@?$CVarTypeInfo@PAPAUIDispatch@@@ATL@@2GB
CONST	SEGMENT
?VT@?$CVarTypeInfo@PAPAUIDispatch@@@ATL@@2GB DW 04009H	; ATL::CVarTypeInfo<IDispatch * *>::VT
CONST	ENDS
;	COMDAT ?pmField@?$CVarTypeInfo@PAUIDispatch@@@ATL@@2QQtagVARIANT@@PAUIDispatch@@Q3@
CONST	SEGMENT
?pmField@?$CVarTypeInfo@PAUIDispatch@@@ATL@@2QQtagVARIANT@@PAUIDispatch@@Q3@ DD 08H ; ATL::CVarTypeInfo<IDispatch *>::pmField
CONST	ENDS
;	COMDAT ?VT@?$CVarTypeInfo@PAUIDispatch@@@ATL@@2GB
CONST	SEGMENT
?VT@?$CVarTypeInfo@PAUIDispatch@@@ATL@@2GB DW 09H	; ATL::CVarTypeInfo<IDispatch *>::VT
CONST	ENDS
;	COMDAT ?pmField@?$CVarTypeInfo@PAPAUIUnknown@@@ATL@@2QQtagVARIANT@@PAPAUIUnknown@@Q3@
CONST	SEGMENT
?pmField@?$CVarTypeInfo@PAPAUIUnknown@@@ATL@@2QQtagVARIANT@@PAPAUIUnknown@@Q3@ DD 08H ; ATL::CVarTypeInfo<IUnknown * *>::pmField
CONST	ENDS
;	COMDAT ?VT@?$CVarTypeInfo@PAPAUIUnknown@@@ATL@@2GB
CONST	SEGMENT
?VT@?$CVarTypeInfo@PAPAUIUnknown@@@ATL@@2GB DW 0400dH	; ATL::CVarTypeInfo<IUnknown * *>::VT
CONST	ENDS
;	COMDAT ?pmField@?$CVarTypeInfo@PAUIUnknown@@@ATL@@2QQtagVARIANT@@PAUIUnknown@@Q3@
CONST	SEGMENT
?pmField@?$CVarTypeInfo@PAUIUnknown@@@ATL@@2QQtagVARIANT@@PAUIUnknown@@Q3@ DD 08H ; ATL::CVarTypeInfo<IUnknown *>::pmField
CONST	ENDS
;	COMDAT ?VT@?$CVarTypeInfo@PAUIUnknown@@@ATL@@2GB
CONST	SEGMENT
?VT@?$CVarTypeInfo@PAUIUnknown@@@ATL@@2GB DW 0dH	; ATL::CVarTypeInfo<IUnknown *>::VT
CONST	ENDS
;	COMDAT ?pmField@?$CVarTypeInfo@PAPA_W@ATL@@2QQtagVARIANT@@PAPA_WQ3@
CONST	SEGMENT
?pmField@?$CVarTypeInfo@PAPA_W@ATL@@2QQtagVARIANT@@PAPA_WQ3@ DD 08H ; ATL::CVarTypeInfo<wchar_t * *>::pmField
CONST	ENDS
;	COMDAT ?VT@?$CVarTypeInfo@PAPA_W@ATL@@2GB
CONST	SEGMENT
?VT@?$CVarTypeInfo@PAPA_W@ATL@@2GB DW 04008H		; ATL::CVarTypeInfo<wchar_t * *>::VT
CONST	ENDS
;	COMDAT ?pmField@?$CVarTypeInfo@PA_W@ATL@@2QQtagVARIANT@@PA_WQ3@
CONST	SEGMENT
?pmField@?$CVarTypeInfo@PA_W@ATL@@2QQtagVARIANT@@PA_WQ3@ DD 08H ; ATL::CVarTypeInfo<wchar_t *>::pmField
CONST	ENDS
;	COMDAT ?VT@?$CVarTypeInfo@PA_W@ATL@@2GB
CONST	SEGMENT
?VT@?$CVarTypeInfo@PA_W@ATL@@2GB DW 08H			; ATL::CVarTypeInfo<wchar_t *>::VT
CONST	ENDS
;	COMDAT ?VT@?$CVarTypeInfo@UtagVARIANT@@@ATL@@2GB
CONST	SEGMENT
?VT@?$CVarTypeInfo@UtagVARIANT@@@ATL@@2GB DW 0cH	; ATL::CVarTypeInfo<tagVARIANT>::VT
CONST	ENDS
;	COMDAT ?pmField@?$CVarTypeInfo@PAN@ATL@@2QQtagVARIANT@@PANQ3@
CONST	SEGMENT
?pmField@?$CVarTypeInfo@PAN@ATL@@2QQtagVARIANT@@PANQ3@ DD 08H ; ATL::CVarTypeInfo<double *>::pmField
CONST	ENDS
;	COMDAT ?VT@?$CVarTypeInfo@PAN@ATL@@2GB
CONST	SEGMENT
?VT@?$CVarTypeInfo@PAN@ATL@@2GB DW 04005H		; ATL::CVarTypeInfo<double *>::VT
CONST	ENDS
;	COMDAT ?pmField@?$CVarTypeInfo@N@ATL@@2QQtagVARIANT@@NQ3@
CONST	SEGMENT
?pmField@?$CVarTypeInfo@N@ATL@@2QQtagVARIANT@@NQ3@ DD 08H ; ATL::CVarTypeInfo<double>::pmField
CONST	ENDS
;	COMDAT ?VT@?$CVarTypeInfo@N@ATL@@2GB
CONST	SEGMENT
?VT@?$CVarTypeInfo@N@ATL@@2GB DW 05H			; ATL::CVarTypeInfo<double>::VT
CONST	ENDS
;	COMDAT ?pmField@?$CVarTypeInfo@PAM@ATL@@2QQtagVARIANT@@PAMQ3@
CONST	SEGMENT
?pmField@?$CVarTypeInfo@PAM@ATL@@2QQtagVARIANT@@PAMQ3@ DD 08H ; ATL::CVarTypeInfo<float *>::pmField
CONST	ENDS
;	COMDAT ?VT@?$CVarTypeInfo@PAM@ATL@@2GB
CONST	SEGMENT
?VT@?$CVarTypeInfo@PAM@ATL@@2GB DW 04004H		; ATL::CVarTypeInfo<float *>::VT
CONST	ENDS
;	COMDAT ?pmField@?$CVarTypeInfo@M@ATL@@2QQtagVARIANT@@MQ3@
CONST	SEGMENT
?pmField@?$CVarTypeInfo@M@ATL@@2QQtagVARIANT@@MQ3@ DD 08H ; ATL::CVarTypeInfo<float>::pmField
CONST	ENDS
;	COMDAT ?VT@?$CVarTypeInfo@M@ATL@@2GB
CONST	SEGMENT
?VT@?$CVarTypeInfo@M@ATL@@2GB DW 04H			; ATL::CVarTypeInfo<float>::VT
CONST	ENDS
;	COMDAT ?pmField@?$CVarTypeInfo@PA_K@ATL@@2QQtagVARIANT@@PA_KQ3@
CONST	SEGMENT
?pmField@?$CVarTypeInfo@PA_K@ATL@@2QQtagVARIANT@@PA_KQ3@ DD 08H ; ATL::CVarTypeInfo<unsigned __int64 *>::pmField
CONST	ENDS
;	COMDAT ?VT@?$CVarTypeInfo@PA_K@ATL@@2GB
CONST	SEGMENT
?VT@?$CVarTypeInfo@PA_K@ATL@@2GB DW 04015H		; ATL::CVarTypeInfo<unsigned __int64 *>::VT
CONST	ENDS
;	COMDAT ?pmField@?$CVarTypeInfo@_K@ATL@@2QQtagVARIANT@@_KQ3@
CONST	SEGMENT
?pmField@?$CVarTypeInfo@_K@ATL@@2QQtagVARIANT@@_KQ3@ DD 08H ; ATL::CVarTypeInfo<unsigned __int64>::pmField
CONST	ENDS
;	COMDAT ?VT@?$CVarTypeInfo@_K@ATL@@2GB
CONST	SEGMENT
?VT@?$CVarTypeInfo@_K@ATL@@2GB DW 015H			; ATL::CVarTypeInfo<unsigned __int64>::VT
CONST	ENDS
;	COMDAT ?pmField@?$CVarTypeInfo@PA_J@ATL@@2QQtagVARIANT@@PA_JQ3@
CONST	SEGMENT
?pmField@?$CVarTypeInfo@PA_J@ATL@@2QQtagVARIANT@@PA_JQ3@ DD 08H ; ATL::CVarTypeInfo<__int64 *>::pmField
CONST	ENDS
;	COMDAT ?VT@?$CVarTypeInfo@PA_J@ATL@@2GB
CONST	SEGMENT
?VT@?$CVarTypeInfo@PA_J@ATL@@2GB DW 04014H		; ATL::CVarTypeInfo<__int64 *>::VT
CONST	ENDS
;	COMDAT ?pmField@?$CVarTypeInfo@_J@ATL@@2QQtagVARIANT@@_JQ3@
CONST	SEGMENT
?pmField@?$CVarTypeInfo@_J@ATL@@2QQtagVARIANT@@_JQ3@ DD 08H ; ATL::CVarTypeInfo<__int64>::pmField
CONST	ENDS
;	COMDAT ?VT@?$CVarTypeInfo@_J@ATL@@2GB
CONST	SEGMENT
?VT@?$CVarTypeInfo@_J@ATL@@2GB DW 014H			; ATL::CVarTypeInfo<__int64>::VT
CONST	ENDS
;	COMDAT ?pmField@?$CVarTypeInfo@PAK@ATL@@2QQtagVARIANT@@PAKQ3@
CONST	SEGMENT
?pmField@?$CVarTypeInfo@PAK@ATL@@2QQtagVARIANT@@PAKQ3@ DD 08H ; ATL::CVarTypeInfo<unsigned long *>::pmField
CONST	ENDS
;	COMDAT ?VT@?$CVarTypeInfo@PAK@ATL@@2GB
CONST	SEGMENT
?VT@?$CVarTypeInfo@PAK@ATL@@2GB DW 04013H		; ATL::CVarTypeInfo<unsigned long *>::VT
CONST	ENDS
;	COMDAT ?pmField@?$CVarTypeInfo@K@ATL@@2QQtagVARIANT@@KQ3@
CONST	SEGMENT
?pmField@?$CVarTypeInfo@K@ATL@@2QQtagVARIANT@@KQ3@ DD 08H ; ATL::CVarTypeInfo<unsigned long>::pmField
CONST	ENDS
;	COMDAT ?VT@?$CVarTypeInfo@K@ATL@@2GB
CONST	SEGMENT
?VT@?$CVarTypeInfo@K@ATL@@2GB DW 013H			; ATL::CVarTypeInfo<unsigned long>::VT
CONST	ENDS
;	COMDAT ?pmField@?$CVarTypeInfo@PAJ@ATL@@2QQtagVARIANT@@PAJQ3@
CONST	SEGMENT
?pmField@?$CVarTypeInfo@PAJ@ATL@@2QQtagVARIANT@@PAJQ3@ DD 08H ; ATL::CVarTypeInfo<long *>::pmField
CONST	ENDS
;	COMDAT ?VT@?$CVarTypeInfo@PAJ@ATL@@2GB
CONST	SEGMENT
?VT@?$CVarTypeInfo@PAJ@ATL@@2GB DW 04003H		; ATL::CVarTypeInfo<long *>::VT
CONST	ENDS
;	COMDAT ?pmField@?$CVarTypeInfo@J@ATL@@2QQtagVARIANT@@JQ3@
CONST	SEGMENT
?pmField@?$CVarTypeInfo@J@ATL@@2QQtagVARIANT@@JQ3@ DD 08H ; ATL::CVarTypeInfo<long>::pmField
CONST	ENDS
;	COMDAT ?VT@?$CVarTypeInfo@J@ATL@@2GB
CONST	SEGMENT
?VT@?$CVarTypeInfo@J@ATL@@2GB DW 03H			; ATL::CVarTypeInfo<long>::VT
CONST	ENDS
;	COMDAT ?pmField@?$CVarTypeInfo@PAI@ATL@@2QQtagVARIANT@@PAIQ3@
CONST	SEGMENT
?pmField@?$CVarTypeInfo@PAI@ATL@@2QQtagVARIANT@@PAIQ3@ DD 08H ; ATL::CVarTypeInfo<unsigned int *>::pmField
CONST	ENDS
;	COMDAT ?VT@?$CVarTypeInfo@PAI@ATL@@2GB
CONST	SEGMENT
?VT@?$CVarTypeInfo@PAI@ATL@@2GB DW 04013H		; ATL::CVarTypeInfo<unsigned int *>::VT
CONST	ENDS
;	COMDAT ?pmField@?$CVarTypeInfo@I@ATL@@2QQtagVARIANT@@IQ3@
CONST	SEGMENT
?pmField@?$CVarTypeInfo@I@ATL@@2QQtagVARIANT@@IQ3@ DD 08H ; ATL::CVarTypeInfo<unsigned int>::pmField
CONST	ENDS
;	COMDAT ?VT@?$CVarTypeInfo@I@ATL@@2GB
CONST	SEGMENT
?VT@?$CVarTypeInfo@I@ATL@@2GB DW 013H			; ATL::CVarTypeInfo<unsigned int>::VT
CONST	ENDS
;	COMDAT ?pmField@?$CVarTypeInfo@PAH@ATL@@2QQtagVARIANT@@PAHQ3@
CONST	SEGMENT
?pmField@?$CVarTypeInfo@PAH@ATL@@2QQtagVARIANT@@PAHQ3@ DD 08H ; ATL::CVarTypeInfo<int *>::pmField
CONST	ENDS
;	COMDAT ?VT@?$CVarTypeInfo@PAH@ATL@@2GB
CONST	SEGMENT
?VT@?$CVarTypeInfo@PAH@ATL@@2GB DW 04003H		; ATL::CVarTypeInfo<int *>::VT
CONST	ENDS
;	COMDAT ?pmField@?$CVarTypeInfo@H@ATL@@2QQtagVARIANT@@HQ3@
CONST	SEGMENT
?pmField@?$CVarTypeInfo@H@ATL@@2QQtagVARIANT@@HQ3@ DD 08H ; ATL::CVarTypeInfo<int>::pmField
CONST	ENDS
;	COMDAT ?VT@?$CVarTypeInfo@H@ATL@@2GB
CONST	SEGMENT
?VT@?$CVarTypeInfo@H@ATL@@2GB DW 03H			; ATL::CVarTypeInfo<int>::VT
CONST	ENDS
;	COMDAT ?pmField@?$CVarTypeInfo@PAG@ATL@@2QQtagVARIANT@@PAGQ3@
CONST	SEGMENT
?pmField@?$CVarTypeInfo@PAG@ATL@@2QQtagVARIANT@@PAGQ3@ DD 08H ; ATL::CVarTypeInfo<unsigned short *>::pmField
CONST	ENDS
;	COMDAT ?VT@?$CVarTypeInfo@PAG@ATL@@2GB
CONST	SEGMENT
?VT@?$CVarTypeInfo@PAG@ATL@@2GB DW 04012H		; ATL::CVarTypeInfo<unsigned short *>::VT
CONST	ENDS
;	COMDAT ?pmField@?$CVarTypeInfo@G@ATL@@2QQtagVARIANT@@GQ3@
CONST	SEGMENT
?pmField@?$CVarTypeInfo@G@ATL@@2QQtagVARIANT@@GQ3@ DD 08H ; ATL::CVarTypeInfo<unsigned short>::pmField
CONST	ENDS
;	COMDAT ?VT@?$CVarTypeInfo@G@ATL@@2GB
CONST	SEGMENT
?VT@?$CVarTypeInfo@G@ATL@@2GB DW 012H			; ATL::CVarTypeInfo<unsigned short>::VT
CONST	ENDS
;	COMDAT ?pmField@?$CVarTypeInfo@PAF@ATL@@2QQtagVARIANT@@PAFQ3@
CONST	SEGMENT
?pmField@?$CVarTypeInfo@PAF@ATL@@2QQtagVARIANT@@PAFQ3@ DD 08H ; ATL::CVarTypeInfo<short *>::pmField
CONST	ENDS
;	COMDAT ?VT@?$CVarTypeInfo@PAF@ATL@@2GB
CONST	SEGMENT
?VT@?$CVarTypeInfo@PAF@ATL@@2GB DW 04002H		; ATL::CVarTypeInfo<short *>::VT
CONST	ENDS
;	COMDAT ?pmField@?$CVarTypeInfo@F@ATL@@2QQtagVARIANT@@FQ3@
CONST	SEGMENT
?pmField@?$CVarTypeInfo@F@ATL@@2QQtagVARIANT@@FQ3@ DD 08H ; ATL::CVarTypeInfo<short>::pmField
CONST	ENDS
;	COMDAT ?VT@?$CVarTypeInfo@F@ATL@@2GB
CONST	SEGMENT
?VT@?$CVarTypeInfo@F@ATL@@2GB DW 02H			; ATL::CVarTypeInfo<short>::VT
CONST	ENDS
;	COMDAT ?pmField@?$CVarTypeInfo@PAE@ATL@@2QQtagVARIANT@@PAEQ3@
CONST	SEGMENT
?pmField@?$CVarTypeInfo@PAE@ATL@@2QQtagVARIANT@@PAEQ3@ DD 08H ; ATL::CVarTypeInfo<unsigned char *>::pmField
CONST	ENDS
;	COMDAT ?VT@?$CVarTypeInfo@PAE@ATL@@2GB
CONST	SEGMENT
?VT@?$CVarTypeInfo@PAE@ATL@@2GB DW 04011H		; ATL::CVarTypeInfo<unsigned char *>::VT
CONST	ENDS
;	COMDAT ?pmField@?$CVarTypeInfo@PAD@ATL@@2QQtagVARIANT@@PADQ3@
CONST	SEGMENT
?pmField@?$CVarTypeInfo@PAD@ATL@@2QQtagVARIANT@@PADQ3@ DD 08H ; ATL::CVarTypeInfo<char *>::pmField
CONST	ENDS
;	COMDAT ?VT@?$CVarTypeInfo@PAD@ATL@@2GB
CONST	SEGMENT
?VT@?$CVarTypeInfo@PAD@ATL@@2GB DW 04010H		; ATL::CVarTypeInfo<char *>::VT
CONST	ENDS
;	COMDAT ?pmField@?$CVarTypeInfo@E@ATL@@2QQtagVARIANT@@EQ3@
CONST	SEGMENT
?pmField@?$CVarTypeInfo@E@ATL@@2QQtagVARIANT@@EQ3@ DD 08H ; ATL::CVarTypeInfo<unsigned char>::pmField
CONST	ENDS
;	COMDAT ?VT@?$CVarTypeInfo@E@ATL@@2GB
CONST	SEGMENT
?VT@?$CVarTypeInfo@E@ATL@@2GB DW 011H			; ATL::CVarTypeInfo<unsigned char>::VT
CONST	ENDS
;	COMDAT ?pmField@?$CVarTypeInfo@D@ATL@@2QQtagVARIANT@@DQ3@
CONST	SEGMENT
?pmField@?$CVarTypeInfo@D@ATL@@2QQtagVARIANT@@DQ3@ DD 08H ; ATL::CVarTypeInfo<char>::pmField
CONST	ENDS
;	COMDAT ?VT@?$CVarTypeInfo@D@ATL@@2GB
CONST	SEGMENT
?VT@?$CVarTypeInfo@D@ATL@@2GB DW 010H			; ATL::CVarTypeInfo<char>::VT
CONST	ENDS
;	COMDAT ?_Max@?$AtlLimits@_K@ATL@@2_KB
CONST	SEGMENT
?_Max@?$AtlLimits@_K@ATL@@2_KB DQ ffffffffffffffffH	; ATL::AtlLimits<unsigned __int64>::_Max
CONST	ENDS
;	COMDAT ?_Min@?$AtlLimits@_K@ATL@@2_KB
CONST	SEGMENT
?_Min@?$AtlLimits@_K@ATL@@2_KB DQ 0000000000000000H	; ATL::AtlLimits<unsigned __int64>::_Min
CONST	ENDS
;	COMDAT ?_Max@?$AtlLimits@_J@ATL@@2_JB
CONST	SEGMENT
?_Max@?$AtlLimits@_J@ATL@@2_JB DQ 7fffffffffffffffH	; ATL::AtlLimits<__int64>::_Max
CONST	ENDS
;	COMDAT ?_Min@?$AtlLimits@_J@ATL@@2_JB
CONST	SEGMENT
?_Min@?$AtlLimits@_J@ATL@@2_JB DQ 8000000000000000H	; ATL::AtlLimits<__int64>::_Min
CONST	ENDS
;	COMDAT ?_Max@?$AtlLimits@K@ATL@@2KB
CONST	SEGMENT
?_Max@?$AtlLimits@K@ATL@@2KB DD 0ffffffffH		; ATL::AtlLimits<unsigned long>::_Max
CONST	ENDS
;	COMDAT ?_Min@?$AtlLimits@K@ATL@@2KB
CONST	SEGMENT
?_Min@?$AtlLimits@K@ATL@@2KB DD 00H			; ATL::AtlLimits<unsigned long>::_Min
CONST	ENDS
;	COMDAT ?_Max@?$AtlLimits@J@ATL@@2JB
CONST	SEGMENT
?_Max@?$AtlLimits@J@ATL@@2JB DD 07fffffffH		; ATL::AtlLimits<long>::_Max
CONST	ENDS
;	COMDAT ?_Min@?$AtlLimits@J@ATL@@2JB
CONST	SEGMENT
?_Min@?$AtlLimits@J@ATL@@2JB DD 080000000H		; ATL::AtlLimits<long>::_Min
CONST	ENDS
;	COMDAT ?_Max@?$AtlLimits@I@ATL@@2IB
CONST	SEGMENT
?_Max@?$AtlLimits@I@ATL@@2IB DD 0ffffffffH		; ATL::AtlLimits<unsigned int>::_Max
CONST	ENDS
;	COMDAT ?_Min@?$AtlLimits@I@ATL@@2IB
CONST	SEGMENT
?_Min@?$AtlLimits@I@ATL@@2IB DD 00H			; ATL::AtlLimits<unsigned int>::_Min
CONST	ENDS
;	COMDAT ?_Max@?$AtlLimits@H@ATL@@2HB
CONST	SEGMENT
?_Max@?$AtlLimits@H@ATL@@2HB DD 07fffffffH		; ATL::AtlLimits<int>::_Max
CONST	ENDS
;	COMDAT ?_Min@?$AtlLimits@H@ATL@@2HB
CONST	SEGMENT
?_Min@?$AtlLimits@H@ATL@@2HB DD 080000000H		; ATL::AtlLimits<int>::_Min
CONST	ENDS
PUBLIC	??_7Thank_you@Define_the_symbol__ATL_MIXED@@6B@	; Define_the_symbol__ATL_MIXED::Thank_you::`vftable'
PUBLIC	??0Thank_you@Define_the_symbol__ATL_MIXED@@QAE@XZ ; Define_the_symbol__ATL_MIXED::Thank_you::Thank_you
PUBLIC	??_R4Thank_you@Define_the_symbol__ATL_MIXED@@6B@ ; Define_the_symbol__ATL_MIXED::Thank_you::`RTTI Complete Object Locator'
PUBLIC	??_R0?AUThank_you@Define_the_symbol__ATL_MIXED@@@8 ; Define_the_symbol__ATL_MIXED::Thank_you `RTTI Type Descriptor'
PUBLIC	??_R3Thank_you@Define_the_symbol__ATL_MIXED@@8	; Define_the_symbol__ATL_MIXED::Thank_you::`RTTI Class Hierarchy Descriptor'
PUBLIC	??_R2Thank_you@Define_the_symbol__ATL_MIXED@@8	; Define_the_symbol__ATL_MIXED::Thank_you::`RTTI Base Class Array'
PUBLIC	??_R1A@?0A@EA@Thank_you@Define_the_symbol__ATL_MIXED@@8 ; Define_the_symbol__ATL_MIXED::Thank_you::`RTTI Base Class Descriptor at (0,-1,0,64)'
PUBLIC	?one@Thank_you@Define_the_symbol__ATL_MIXED@@UAEXXZ ; Define_the_symbol__ATL_MIXED::Thank_you::one
EXTRN	??_7type_info@@6B@:QWORD			; type_info::`vftable'
;	COMDAT ??_R1A@?0A@EA@Thank_you@Define_the_symbol__ATL_MIXED@@8
rdata$r	SEGMENT
??_R1A@?0A@EA@Thank_you@Define_the_symbol__ATL_MIXED@@8 DD FLAT:??_R0?AUThank_you@Define_the_symbol__ATL_MIXED@@@8 ; Define_the_symbol__ATL_MIXED::Thank_you::`RTTI Base Class Descriptor at (0,-1,0,64)'
	DD	00H
	DD	00H
	DD	0ffffffffH
	DD	00H
	DD	040H
	DD	FLAT:??_R3Thank_you@Define_the_symbol__ATL_MIXED@@8
rdata$r	ENDS
;	COMDAT ??_R2Thank_you@Define_the_symbol__ATL_MIXED@@8
rdata$r	SEGMENT
??_R2Thank_you@Define_the_symbol__ATL_MIXED@@8 DD FLAT:??_R1A@?0A@EA@Thank_you@Define_the_symbol__ATL_MIXED@@8 ; Define_the_symbol__ATL_MIXED::Thank_you::`RTTI Base Class Array'
rdata$r	ENDS
;	COMDAT ??_R3Thank_you@Define_the_symbol__ATL_MIXED@@8
rdata$r	SEGMENT
??_R3Thank_you@Define_the_symbol__ATL_MIXED@@8 DD 00H	; Define_the_symbol__ATL_MIXED::Thank_you::`RTTI Class Hierarchy Descriptor'
	DD	00H
	DD	01H
	DD	FLAT:??_R2Thank_you@Define_the_symbol__ATL_MIXED@@8
rdata$r	ENDS
;	COMDAT ??_R0?AUThank_you@Define_the_symbol__ATL_MIXED@@@8
_DATA	SEGMENT
??_R0?AUThank_you@Define_the_symbol__ATL_MIXED@@@8 DD FLAT:??_7type_info@@6B@ ; Define_the_symbol__ATL_MIXED::Thank_you `RTTI Type Descriptor'
	DD	00H
	DB	'.?AUThank_you@Define_the_symbol__ATL_MIXED@@', 00H
_DATA	ENDS
;	COMDAT ??_R4Thank_you@Define_the_symbol__ATL_MIXED@@6B@
rdata$r	SEGMENT
??_R4Thank_you@Define_the_symbol__ATL_MIXED@@6B@ DD 00H	; Define_the_symbol__ATL_MIXED::Thank_you::`RTTI Complete Object Locator'
	DD	00H
	DD	00H
	DD	FLAT:??_R0?AUThank_you@Define_the_symbol__ATL_MIXED@@@8
	DD	FLAT:??_R3Thank_you@Define_the_symbol__ATL_MIXED@@8
rdata$r	ENDS
;	COMDAT ??_7Thank_you@Define_the_symbol__ATL_MIXED@@6B@
CONST	SEGMENT
??_7Thank_you@Define_the_symbol__ATL_MIXED@@6B@ DD FLAT:??_R4Thank_you@Define_the_symbol__ATL_MIXED@@6B@ ; Define_the_symbol__ATL_MIXED::Thank_you::`vftable'
	DD	FLAT:?one@Thank_you@Define_the_symbol__ATL_MIXED@@UAEXXZ
; Function compile flags: /Ogtpy
CONST	ENDS
;	COMDAT ??0Thank_you@Define_the_symbol__ATL_MIXED@@QAE@XZ
_TEXT	SEGMENT
??0Thank_you@Define_the_symbol__ATL_MIXED@@QAE@XZ PROC	; Define_the_symbol__ATL_MIXED::Thank_you::Thank_you, COMDAT
; _this$ = ecx
  00000	8b c1		 mov	 eax, ecx
  00002	c7 00 00 00 00
	00		 mov	 DWORD PTR [eax], OFFSET ??_7Thank_you@Define_the_symbol__ATL_MIXED@@6B@
  00008	c3		 ret	 0
??0Thank_you@Define_the_symbol__ATL_MIXED@@QAE@XZ ENDP	; Define_the_symbol__ATL_MIXED::Thank_you::Thank_you
; Function compile flags: /Ogtpy
; File c:\program files (x86)\microsoft visual studio 9.0\vc\atlmfc\include\atldef.h
_TEXT	ENDS
;	COMDAT ?one@Thank_you@Define_the_symbol__ATL_MIXED@@UAEXXZ
_TEXT	SEGMENT
?one@Thank_you@Define_the_symbol__ATL_MIXED@@UAEXXZ PROC ; Define_the_symbol__ATL_MIXED::Thank_you::one, COMDAT
; _this$ = ecx

; 80   : 	struct Thank_you { virtual void one(){} };

  00000	c3		 ret	 0
?one@Thank_you@Define_the_symbol__ATL_MIXED@@UAEXXZ ENDP ; Define_the_symbol__ATL_MIXED::Thank_you::one
_TEXT	ENDS
PUBLIC	_HRESULT_FROM_WIN32
; Function compile flags: /Ogtpy
; File c:\program files\microsoft sdks\windows\v7.1\include\winerror.h
;	COMDAT _HRESULT_FROM_WIN32
_TEXT	SEGMENT
_x$ = 8							; size = 4
_HRESULT_FROM_WIN32 PROC				; COMDAT

; 23841: FORCEINLINE HRESULT HRESULT_FROM_WIN32(unsigned long x) { return (HRESULT)(x) <= 0 ? (HRESULT)(x) : (HRESULT) (((x) & 0x0000FFFF) | (FACILITY_WIN32 << 16) | 0x80000000);}

  00000	8b 44 24 04	 mov	 eax, DWORD PTR _x$[esp-4]
  00004	85 c0		 test	 eax, eax
  00006	7e 0a		 jle	 SHORT $LN4@HRESULT_FR
  00008	25 ff ff 00 00	 and	 eax, 65535		; 0000ffffH
  0000d	0d 00 00 07 80	 or	 eax, -2147024896	; 80070000H
$LN4@HRESULT_FR:
  00012	c3		 ret	 0
_HRESULT_FROM_WIN32 ENDP
_TEXT	ENDS
PUBLIC	__tcsncpy_s
EXTRN	__mbsnbcpy_s:PROC
; Function compile flags: /Ogtpy
; File c:\program files (x86)\microsoft visual studio 9.0\vc\include\tchar.h
;	COMDAT __tcsncpy_s
_TEXT	SEGMENT
__Destination$ = 8					; size = 4
__Destination_size_chars$ = 12				; size = 4
__Source$ = 16						; size = 4
__Count$ = 20						; size = 4
__tcsncpy_s PROC					; COMDAT

; 1513 :     return _mbsnbcpy_s((unsigned char *)_Destination, _Destination_size_chars, (const unsigned char *)_Source,_Count);

  00000	e9 00 00 00 00	 jmp	 __mbsnbcpy_s
__tcsncpy_s ENDP
_TEXT	ENDS
PUBLIC	__tcsstr
EXTRN	__mbsstr:PROC
; Function compile flags: /Ogtpy
;	COMDAT __tcsstr
_TEXT	SEGMENT
__s1$ = 8						; size = 4
__s2$ = 12						; size = 4
__tcsstr PROC						; COMDAT

; 1548 : _Check_return_ __inline _CRPC _tcsstr(_In_ _CPC _s1,_In_ _CPC _s2) {return (_CRPC)_mbsstr((_CPUC)_s1,(_CPUC)_s2);}

  00000	e9 00 00 00 00	 jmp	 __mbsstr
__tcsstr ENDP
_TEXT	ENDS
PUBLIC	?_tcsstr@@YAPADPADPBD@Z				; _tcsstr
; Function compile flags: /Ogtpy
;	COMDAT ?_tcsstr@@YAPADPADPBD@Z
_TEXT	SEGMENT
__S$ = 8						; size = 4
__P$ = 12						; size = 4
?_tcsstr@@YAPADPADPBD@Z PROC				; _tcsstr, COMDAT

; 2006 :         {return ((char *)_tcsstr((const char *)_S, _P)); }

  00000	e9 00 00 00 00	 jmp	 __mbsstr
?_tcsstr@@YAPADPADPBD@Z ENDP				; _tcsstr
_TEXT	ENDS
PUBLIC	??$AtlMultiply@H@ATL@@YAJPAHHH@Z		; ATL::AtlMultiply<int>
; Function compile flags: /Ogtpy
; File c:\program files (x86)\microsoft visual studio 9.0\vc\atlmfc\include\atlalloc.h
;	COMDAT ??$AtlMultiply@H@ATL@@YAJPAHHH@Z
_TEXT	SEGMENT
_piResult$ = 8						; size = 4
_iLeft$ = 12						; size = 4
_iRight$ = 16						; size = 4
??$AtlMultiply@H@ATL@@YAJPAHHH@Z PROC			; ATL::AtlMultiply<int>, COMDAT

; 126  : 	__int64 i64Result=static_cast<__int64>(iLeft) * static_cast<__int64>(iRight);

  00000	8b 44 24 08	 mov	 eax, DWORD PTR _iLeft$[esp-4]
  00004	f7 6c 24 0c	 imul	 DWORD PTR _iRight$[esp-4]

; 127  : 	if(i64Result>INT_MAX || i64Result < INT_MIN)

  00008	8b c8		 mov	 ecx, eax
  0000a	81 c1 00 00 00
	80		 add	 ecx, -2147483648	; 80000000H
  00010	83 d2 00	 adc	 edx, 0
  00013	85 d2		 test	 edx, edx
  00015	77 10		 ja	 SHORT $LN1@AtlMultipl
  00017	72 05		 jb	 SHORT $LN5@AtlMultipl
  00019	83 f9 ff	 cmp	 ecx, -1
  0001c	77 09		 ja	 SHORT $LN1@AtlMultipl
$LN5@AtlMultipl:

; 130  : 	}
; 131  : 	*piResult=static_cast<int _ATL_W64>(i64Result);

  0001e	8b 4c 24 04	 mov	 ecx, DWORD PTR _piResult$[esp-4]
  00022	89 01		 mov	 DWORD PTR [ecx], eax

; 132  : 	return S_OK;

  00024	33 c0		 xor	 eax, eax

; 133  : }

  00026	c3		 ret	 0
$LN1@AtlMultipl:

; 128  : 	{
; 129  : 		return E_INVALIDARG;

  00027	b8 57 00 07 80	 mov	 eax, -2147024809	; 80070057H

; 133  : }

  0002c	c3		 ret	 0
??$AtlMultiply@H@ATL@@YAJPAHHH@Z ENDP			; ATL::AtlMultiply<int>
_TEXT	ENDS
PUBLIC	??$AtlMultiply@I@ATL@@YAJPAIII@Z		; ATL::AtlMultiply<unsigned int>
; Function compile flags: /Ogtpy
;	COMDAT ??$AtlMultiply@I@ATL@@YAJPAIII@Z
_TEXT	SEGMENT
_piResult$ = 8						; size = 4
_iLeft$ = 12						; size = 4
_iRight$ = 16						; size = 4
??$AtlMultiply@I@ATL@@YAJPAIII@Z PROC			; ATL::AtlMultiply<unsigned int>, COMDAT

; 138  : 	unsigned __int64 i64Result=static_cast<unsigned __int64>(iLeft) * static_cast<unsigned __int64>(iRight);

  00000	8b 44 24 08	 mov	 eax, DWORD PTR _iLeft$[esp-4]
  00004	f7 64 24 0c	 mul	 DWORD PTR _iRight$[esp-4]

; 139  : 	if(i64Result>UINT_MAX)

  00008	85 d2		 test	 edx, edx
  0000a	77 05		 ja	 SHORT $LN4@AtlMultipl@2
  0000c	83 f8 ff	 cmp	 eax, -1
  0000f	76 06		 jbe	 SHORT $LN1@AtlMultipl@2
$LN4@AtlMultipl@2:

; 140  : 	{
; 141  : 		return E_INVALIDARG;

  00011	b8 57 00 07 80	 mov	 eax, -2147024809	; 80070057H

; 145  : }

  00016	c3		 ret	 0
$LN1@AtlMultipl@2:

; 142  : 	}
; 143  : 	*piResult=static_cast<unsigned int _ATL_W64>(i64Result);

  00017	8b 4c 24 04	 mov	 ecx, DWORD PTR _piResult$[esp-4]
  0001b	89 01		 mov	 DWORD PTR [ecx], eax

; 144  : 	return S_OK;

  0001d	33 c0		 xor	 eax, eax

; 145  : }

  0001f	c3		 ret	 0
??$AtlMultiply@I@ATL@@YAJPAIII@Z ENDP			; ATL::AtlMultiply<unsigned int>
_TEXT	ENDS
PUBLIC	??$AtlMultiply@K@ATL@@YAJPAKKK@Z		; ATL::AtlMultiply<unsigned long>
; Function compile flags: /Ogtpy
;	COMDAT ??$AtlMultiply@K@ATL@@YAJPAKKK@Z
_TEXT	SEGMENT
_piResult$ = 8						; size = 4
_iLeft$ = 12						; size = 4
_iRight$ = 16						; size = 4
??$AtlMultiply@K@ATL@@YAJPAKKK@Z PROC			; ATL::AtlMultiply<unsigned long>, COMDAT

; 162  : 	unsigned __int64 i64Result=static_cast<unsigned __int64>(iLeft) * static_cast<unsigned __int64>(iRight);

  00000	8b 44 24 08	 mov	 eax, DWORD PTR _iLeft$[esp-4]
  00004	f7 64 24 0c	 mul	 DWORD PTR _iRight$[esp-4]

; 163  : 	if(i64Result>ULONG_MAX)

  00008	85 d2		 test	 edx, edx
  0000a	77 05		 ja	 SHORT $LN4@AtlMultipl@3
  0000c	83 f8 ff	 cmp	 eax, -1
  0000f	76 06		 jbe	 SHORT $LN1@AtlMultipl@3
$LN4@AtlMultipl@3:

; 164  : 	{
; 165  : 		return E_INVALIDARG;

  00011	b8 57 00 07 80	 mov	 eax, -2147024809	; 80070057H

; 169  : }

  00016	c3		 ret	 0
$LN1@AtlMultipl@3:

; 166  : 	}
; 167  : 	*piResult=static_cast<unsigned long _ATL_W64>(i64Result);

  00017	8b 4c 24 04	 mov	 ecx, DWORD PTR _piResult$[esp-4]
  0001b	89 01		 mov	 DWORD PTR [ecx], eax

; 168  : 	return S_OK;

  0001d	33 c0		 xor	 eax, eax

; 169  : }

  0001f	c3		 ret	 0
??$AtlMultiply@K@ATL@@YAJPAKKK@Z ENDP			; ATL::AtlMultiply<unsigned long>
_TEXT	ENDS
PUBLIC	?AtlCoTaskMemCAlloc@ATL@@YAPAXKK@Z		; ATL::AtlCoTaskMemCAlloc
EXTRN	__imp__CoTaskMemAlloc@4:PROC
; Function compile flags: /Ogtpy
;	COMDAT ?AtlCoTaskMemCAlloc@ATL@@YAPAXKK@Z
_TEXT	SEGMENT
_nCount$ = 8						; size = 4
_nSize$ = 12						; size = 4
?AtlCoTaskMemCAlloc@ATL@@YAPAXKK@Z PROC			; ATL::AtlCoTaskMemCAlloc, COMDAT

; 197  : 	HRESULT hr;
; 198  : 	ULONG nBytes=0;
; 199  : 	if( FAILED(hr=::ATL::AtlMultiply(&nBytes, nCount, nSize)))

  00000	8b 44 24 04	 mov	 eax, DWORD PTR _nCount$[esp-4]
  00004	f7 64 24 08	 mul	 DWORD PTR _nSize$[esp-4]
  00008	85 d2		 test	 edx, edx
  0000a	77 05		 ja	 SHORT $LN8@AtlCoTaskM
  0000c	83 f8 ff	 cmp	 eax, -1
  0000f	76 03		 jbe	 SHORT $LN1@AtlCoTaskM
$LN8@AtlCoTaskM:

; 200  : 	{
; 201  : 		return NULL;

  00011	33 c0		 xor	 eax, eax

; 204  : }

  00013	c3		 ret	 0
$LN1@AtlCoTaskM:

; 202  : 	}
; 203  : 	return ::CoTaskMemAlloc(nBytes);

  00014	50		 push	 eax
  00015	ff 15 00 00 00
	00		 call	 DWORD PTR __imp__CoTaskMemAlloc@4

; 204  : }

  0001b	c3		 ret	 0
?AtlCoTaskMemCAlloc@ATL@@YAPAXKK@Z ENDP			; ATL::AtlCoTaskMemCAlloc
_TEXT	ENDS
PUBLIC	?AtlCoTaskMemRecalloc@ATL@@YAPAXPAXKK@Z		; ATL::AtlCoTaskMemRecalloc
EXTRN	__imp__CoTaskMemRealloc@8:PROC
; Function compile flags: /Ogtpy
;	COMDAT ?AtlCoTaskMemRecalloc@ATL@@YAPAXPAXKK@Z
_TEXT	SEGMENT
_pvMemory$ = 8						; size = 4
_nCount$ = 12						; size = 4
_nSize$ = 16						; size = 4
?AtlCoTaskMemRecalloc@ATL@@YAPAXPAXKK@Z PROC		; ATL::AtlCoTaskMemRecalloc, COMDAT

; 208  : 	HRESULT hr;
; 209  : 	ULONG nBytes=0;
; 210  : 	if( FAILED(hr=::ATL::AtlMultiply(&nBytes, nCount, nSize)))

  00000	8b 44 24 08	 mov	 eax, DWORD PTR _nCount$[esp-4]
  00004	f7 64 24 0c	 mul	 DWORD PTR _nSize$[esp-4]
  00008	85 d2		 test	 edx, edx
  0000a	77 05		 ja	 SHORT $LN8@AtlCoTaskM@2
  0000c	83 f8 ff	 cmp	 eax, -1
  0000f	76 03		 jbe	 SHORT $LN1@AtlCoTaskM@2
$LN8@AtlCoTaskM@2:

; 211  : 	{
; 212  : 		return NULL;

  00011	33 c0		 xor	 eax, eax

; 215  : }

  00013	c3		 ret	 0
$LN1@AtlCoTaskM@2:

; 213  : 	}
; 214  : 	return ::CoTaskMemRealloc(pvMemory, nBytes);

  00014	50		 push	 eax
  00015	8b 44 24 08	 mov	 eax, DWORD PTR _pvMemory$[esp]
  00019	50		 push	 eax
  0001a	ff 15 00 00 00
	00		 call	 DWORD PTR __imp__CoTaskMemRealloc@8

; 215  : }

  00020	c3		 ret	 0
?AtlCoTaskMemRecalloc@ATL@@YAPAXPAXKK@Z ENDP		; ATL::AtlCoTaskMemRecalloc
_TEXT	ENDS
PUBLIC	?Allocate@CCRTAllocator@ATL@@SAPAXI@Z		; ATL::CCRTAllocator::Allocate
EXTRN	_malloc:PROC
; Function compile flags: /Ogtpy
;	COMDAT ?Allocate@CCRTAllocator@ATL@@SAPAXI@Z
_TEXT	SEGMENT
_nBytes$ = 8						; size = 4
?Allocate@CCRTAllocator@ATL@@SAPAXI@Z PROC		; ATL::CCRTAllocator::Allocate, COMDAT

; 243  : 		return malloc(nBytes);

  00000	e9 00 00 00 00	 jmp	 _malloc
?Allocate@CCRTAllocator@ATL@@SAPAXI@Z ENDP		; ATL::CCRTAllocator::Allocate
_TEXT	ENDS
PUBLIC	?Free@CCRTAllocator@ATL@@SAXPAX@Z		; ATL::CCRTAllocator::Free
EXTRN	_free:PROC
; Function compile flags: /Ogtpy
;	COMDAT ?Free@CCRTAllocator@ATL@@SAXPAX@Z
_TEXT	SEGMENT
_p$ = 8							; size = 4
?Free@CCRTAllocator@ATL@@SAXPAX@Z PROC			; ATL::CCRTAllocator::Free, COMDAT

; 248  : 		free(p);

  00000	e9 00 00 00 00	 jmp	 _free
?Free@CCRTAllocator@ATL@@SAXPAX@Z ENDP			; ATL::CCRTAllocator::Free
_TEXT	ENDS
PUBLIC	?_AtlGetConversionACP@ATL@@YGIXZ		; ATL::_AtlGetConversionACP
; Function compile flags: /Ogtpy
; File c:\program files (x86)\microsoft visual studio 9.0\vc\atlmfc\include\atlconv.h
;	COMDAT ?_AtlGetConversionACP@ATL@@YGIXZ
_TEXT	SEGMENT
?_AtlGetConversionACP@ATL@@YGIXZ PROC			; ATL::_AtlGetConversionACP, COMDAT

; 104  : #ifdef _CONVERSION_DONT_USE_THREAD_LOCALE
; 105  : 	return CP_ACP;
; 106  : #else
; 107  : 	return CP_THREAD_ACP;

  00000	b8 03 00 00 00	 mov	 eax, 3

; 108  : #endif
; 109  : }

  00005	c3		 ret	 0
?_AtlGetConversionACP@ATL@@YGIXZ ENDP			; ATL::_AtlGetConversionACP
_TEXT	ENDS
PUBLIC	?AtlA2WHelper@@YGPA_WPA_WPBDHI@Z		; AtlA2WHelper
EXTRN	__imp__MultiByteToWideChar@24:PROC
; Function compile flags: /Ogtpy
;	COMDAT ?AtlA2WHelper@@YGPA_WPA_WPBDHI@Z
_TEXT	SEGMENT
_lpw$ = 8						; size = 4
_lpa$ = 12						; size = 4
_nChars$ = 16						; size = 4
_acp$ = 20						; size = 4
?AtlA2WHelper@@YGPA_WPA_WPBDHI@Z PROC			; AtlA2WHelper, COMDAT

; 536  : {

  00000	56		 push	 esi

; 537  : 	ATLASSERT(lpa != NULL);
; 538  : 	ATLASSERT(lpw != NULL);
; 539  : 	if (lpw == NULL || lpa == NULL)

  00001	8b 74 24 08	 mov	 esi, DWORD PTR _lpw$[esp]
  00005	85 f6		 test	 esi, esi
  00007	74 2c		 je	 SHORT $LN2@AtlA2WHelp
  00009	8b 44 24 0c	 mov	 eax, DWORD PTR _lpa$[esp]
  0000d	85 c0		 test	 eax, eax
  0000f	74 24		 je	 SHORT $LN2@AtlA2WHelp

; 541  : 	// verify that no illegal character present
; 542  : 	// since lpw was allocated based on the size of lpa
; 543  : 	// don't worry about the number of chars
; 544  : 	*lpw = '\0';
; 545  : 	int ret = MultiByteToWideChar(acp, 0, lpa, -1, lpw, nChars);

  00011	8b 54 24 10	 mov	 edx, DWORD PTR _nChars$[esp]
  00015	52		 push	 edx
  00016	56		 push	 esi
  00017	6a ff		 push	 -1
  00019	50		 push	 eax
  0001a	8b 44 24 24	 mov	 eax, DWORD PTR _acp$[esp+16]
  0001e	33 c9		 xor	 ecx, ecx
  00020	51		 push	 ecx
  00021	50		 push	 eax
  00022	66 89 0e	 mov	 WORD PTR [esi], cx
  00025	ff 15 00 00 00
	00		 call	 DWORD PTR __imp__MultiByteToWideChar@24

; 546  : 	if(ret == 0)

  0002b	f7 d8		 neg	 eax
  0002d	1b c0		 sbb	 eax, eax
  0002f	23 c6		 and	 eax, esi
  00031	5e		 pop	 esi

; 547  : 	{
; 548  : 		ATLASSERT(FALSE);
; 549  : 		return NULL;
; 550  : 	}		
; 551  : 	return lpw;
; 552  : }

  00032	c2 10 00	 ret	 16			; 00000010H
$LN2@AtlA2WHelp:

; 540  : 		return NULL;

  00035	33 c0		 xor	 eax, eax
  00037	5e		 pop	 esi

; 547  : 	{
; 548  : 		ATLASSERT(FALSE);
; 549  : 		return NULL;
; 550  : 	}		
; 551  : 	return lpw;
; 552  : }

  00038	c2 10 00	 ret	 16			; 00000010H
?AtlA2WHelper@@YGPA_WPA_WPBDHI@Z ENDP			; AtlA2WHelper
_TEXT	ENDS
PUBLIC	?AtlW2AHelper@@YGPADPADPB_WHI@Z			; AtlW2AHelper
EXTRN	__imp__WideCharToMultiByte@32:PROC
; Function compile flags: /Ogtpy
;	COMDAT ?AtlW2AHelper@@YGPADPADPB_WHI@Z
_TEXT	SEGMENT
_lpa$ = 8						; size = 4
_lpw$ = 12						; size = 4
_nChars$ = 16						; size = 4
_acp$ = 20						; size = 4
?AtlW2AHelper@@YGPADPADPB_WHI@Z PROC			; AtlW2AHelper, COMDAT

; 555  : {

  00000	56		 push	 esi

; 556  : 	ATLASSERT(lpw != NULL);
; 557  : 	ATLASSERT(lpa != NULL);
; 558  : 	if (lpa == NULL || lpw == NULL)

  00001	8b 74 24 08	 mov	 esi, DWORD PTR _lpa$[esp]
  00005	85 f6		 test	 esi, esi
  00007	74 2f		 je	 SHORT $LN2@AtlW2AHelp
  00009	8b 44 24 0c	 mov	 eax, DWORD PTR _lpw$[esp]
  0000d	85 c0		 test	 eax, eax
  0000f	74 27		 je	 SHORT $LN2@AtlW2AHelp

; 560  : 	// verify that no illegal character present
; 561  : 	// since lpa was allocated based on the size of lpw
; 562  : 	// don't worry about the number of chars
; 563  : 	*lpa = '\0';
; 564  : 	int ret = WideCharToMultiByte(acp, 0, lpw, -1, lpa, nChars, NULL, NULL);

  00011	8b 4c 24 10	 mov	 ecx, DWORD PTR _nChars$[esp]
  00015	8b 54 24 14	 mov	 edx, DWORD PTR _acp$[esp]
  00019	6a 00		 push	 0
  0001b	6a 00		 push	 0
  0001d	51		 push	 ecx
  0001e	56		 push	 esi
  0001f	6a ff		 push	 -1
  00021	50		 push	 eax
  00022	6a 00		 push	 0
  00024	52		 push	 edx
  00025	c6 06 00	 mov	 BYTE PTR [esi], 0
  00028	ff 15 00 00 00
	00		 call	 DWORD PTR __imp__WideCharToMultiByte@32

; 565  : 	if(ret == 0)

  0002e	f7 d8		 neg	 eax
  00030	1b c0		 sbb	 eax, eax
  00032	23 c6		 and	 eax, esi
  00034	5e		 pop	 esi

; 566  : 	{
; 567  : 		ATLASSERT(FALSE);
; 568  : 		return NULL;
; 569  : 	}
; 570  : 	return lpa;
; 571  : }

  00035	c2 10 00	 ret	 16			; 00000010H
$LN2@AtlW2AHelp:

; 559  : 		return NULL;

  00038	33 c0		 xor	 eax, eax
  0003a	5e		 pop	 esi

; 566  : 	{
; 567  : 		ATLASSERT(FALSE);
; 568  : 		return NULL;
; 569  : 	}
; 570  : 	return lpa;
; 571  : }

  0003b	c2 10 00	 ret	 16			; 00000010H
?AtlW2AHelper@@YGPADPADPB_WHI@Z ENDP			; AtlW2AHelper
_TEXT	ENDS
PUBLIC	?ocslen@@YAHPB_W@Z				; ocslen
EXTRN	__imp__lstrlenW@4:PROC
; Function compile flags: /Ogtpy
;	COMDAT ?ocslen@@YAHPB_W@Z
_TEXT	SEGMENT
_x$ = 8							; size = 4
?ocslen@@YAHPB_W@Z PROC					; ocslen, COMDAT

; 689  : 	inline int ocslen(_In_z_ LPCOLESTR x) throw() { return lstrlenW(x); }

  00000	8b 44 24 04	 mov	 eax, DWORD PTR _x$[esp-4]
  00004	50		 push	 eax
  00005	ff 15 00 00 00
	00		 call	 DWORD PTR __imp__lstrlenW@4
  0000b	c3		 ret	 0
?ocslen@@YAHPB_W@Z ENDP					; ocslen
_TEXT	ENDS
PUBLIC	?_AtlRaiseException@ATL@@YAXKK@Z		; ATL::_AtlRaiseException
EXTRN	__imp__RaiseException@16:PROC
; Function compile flags: /Ogtpy
; File c:\program files (x86)\microsoft visual studio 9.0\vc\atlmfc\include\atlexcept.h
;	COMDAT ?_AtlRaiseException@ATL@@YAXKK@Z
_TEXT	SEGMENT
_dwExceptionCode$ = 8					; size = 4
_dwExceptionFlags$ = 12					; size = 4
?_AtlRaiseException@ATL@@YAXKK@Z PROC			; ATL::_AtlRaiseException, COMDAT

; 29   : 	RaiseException( dwExceptionCode, dwExceptionFlags, 0, NULL );

  00000	8b 44 24 08	 mov	 eax, DWORD PTR _dwExceptionFlags$[esp-4]
  00004	8b 4c 24 04	 mov	 ecx, DWORD PTR _dwExceptionCode$[esp-4]
  00008	6a 00		 push	 0
  0000a	6a 00		 push	 0
  0000c	50		 push	 eax
  0000d	51		 push	 ecx
  0000e	ff 15 00 00 00
	00		 call	 DWORD PTR __imp__RaiseException@16

; 30   : }

  00014	c3		 ret	 0
?_AtlRaiseException@ATL@@YAXKK@Z ENDP			; ATL::_AtlRaiseException
_TEXT	ENDS
PUBLIC	??0CAtlException@ATL@@QAE@J@Z			; ATL::CAtlException::CAtlException
; Function compile flags: /Ogtpy
;	COMDAT ??0CAtlException@ATL@@QAE@J@Z
_TEXT	SEGMENT
_hr$ = 8						; size = 4
??0CAtlException@ATL@@QAE@J@Z PROC			; ATL::CAtlException::CAtlException, COMDAT
; _this$ = ecx

; 42   : 	{

  00000	8b c1		 mov	 eax, ecx
  00002	8b 4c 24 04	 mov	 ecx, DWORD PTR _hr$[esp-4]
  00006	89 08		 mov	 DWORD PTR [eax], ecx

; 43   : 	}

  00008	c2 04 00	 ret	 4
??0CAtlException@ATL@@QAE@J@Z ENDP			; ATL::CAtlException::CAtlException
_TEXT	ENDS
PUBLIC	__TI1?AVCAtlException@ATL@@
PUBLIC	?AtlThrowImpl@ATL@@YGXJ@Z			; ATL::AtlThrowImpl
PUBLIC	__CTA1?AVCAtlException@ATL@@
PUBLIC	__CT??_R0?AVCAtlException@ATL@@@84
PUBLIC	??_R0?AVCAtlException@ATL@@@8			; ATL::CAtlException `RTTI Type Descriptor'
EXTRN	__CxxThrowException@8:PROC
;	COMDAT ??_R0?AVCAtlException@ATL@@@8
_DATA	SEGMENT
??_R0?AVCAtlException@ATL@@@8 DD FLAT:??_7type_info@@6B@ ; ATL::CAtlException `RTTI Type Descriptor'
	DD	00H
	DB	'.?AVCAtlException@ATL@@', 00H
_DATA	ENDS
;	COMDAT __CT??_R0?AVCAtlException@ATL@@@84
xdata$x	SEGMENT
__CT??_R0?AVCAtlException@ATL@@@84 DD 00H
	DD	FLAT:??_R0?AVCAtlException@ATL@@@8
	DD	00H
	DD	0ffffffffH
	ORG $+4
	DD	04H
	DD	00H
xdata$x	ENDS
;	COMDAT __CTA1?AVCAtlException@ATL@@
xdata$x	SEGMENT
__CTA1?AVCAtlException@ATL@@ DD 01H
	DD	FLAT:__CT??_R0?AVCAtlException@ATL@@@84
xdata$x	ENDS
;	COMDAT __TI1?AVCAtlException@ATL@@
xdata$x	SEGMENT
__TI1?AVCAtlException@ATL@@ DD 00H
	DD	00H
	DD	00H
	DD	FLAT:__CTA1?AVCAtlException@ATL@@
; Function compile flags: /Ogtpy
xdata$x	ENDS
;	COMDAT ?AtlThrowImpl@ATL@@YGXJ@Z
_TEXT	SEGMENT
$T110455 = 8						; size = 4
_hr$ = 8						; size = 4
?AtlThrowImpl@ATL@@YGXJ@Z PROC				; ATL::AtlThrowImpl, COMDAT

; 64   : 	ATLTRACE(atlTraceException, 0, _T("AtlThrow: hr = 0x%x\n"), hr );
; 65   : #ifdef _AFX
; 66   : 	if( hr == E_OUTOFMEMORY )
; 67   : 	{
; 68   : 		AfxThrowMemoryException();
; 69   : 	}
; 70   : 	else
; 71   : 	{
; 72   : 		AfxThrowOleException( hr );
; 73   : 	}
; 74   : #else
; 75   : 	throw CAtlException( hr );

  00000	8b 44 24 04	 mov	 eax, DWORD PTR _hr$[esp-4]
  00004	68 00 00 00 00	 push	 OFFSET __TI1?AVCAtlException@ATL@@
  00009	8d 4c 24 08	 lea	 ecx, DWORD PTR $T110455[esp]
  0000d	51		 push	 ecx
  0000e	89 44 24 0c	 mov	 DWORD PTR $T110455[esp+4], eax
  00012	e8 00 00 00 00	 call	 __CxxThrowException@8
$LN5@AtlThrowIm:
  00017	cc		 int	 3
?AtlThrowImpl@ATL@@YGXJ@Z ENDP				; ATL::AtlThrowImpl
_TEXT	ENDS
PUBLIC	?AtlCrtErrorCheck@ATL@@YAHH@Z			; ATL::AtlCrtErrorCheck
; Function compile flags: /Ogtpy
; File c:\program files (x86)\microsoft visual studio 9.0\vc\atlmfc\include\atlchecked.h
;	COMDAT ?AtlCrtErrorCheck@ATL@@YAHH@Z
_TEXT	SEGMENT
_nError$ = 8						; size = 4
?AtlCrtErrorCheck@ATL@@YAHH@Z PROC			; ATL::AtlCrtErrorCheck, COMDAT

; 32   : 	switch(nError)

  00000	8b 44 24 04	 mov	 eax, DWORD PTR _nError$[esp-4]
  00004	83 f8 50	 cmp	 eax, 80			; 00000050H
  00007	77 22		 ja	 SHORT $LN1@AtlCrtErro
  00009	0f b6 88 00 00
	00 00		 movzx	 ecx, BYTE PTR $LN9@AtlCrtErro[eax]
  00010	ff 24 8d 00 00
	00 00		 jmp	 DWORD PTR $LN11@AtlCrtErro[ecx*4]
$LN4@AtlCrtErro:

; 33   : 	{
; 34   : 	case ENOMEM:
; 35   : 		AtlThrow(E_OUTOFMEMORY);

  00017	68 0e 00 07 80	 push	 -2147024882		; 8007000eH
  0001c	e8 00 00 00 00	 call	 ?AtlThrowImpl@ATL@@YGXJ@Z ; ATL::AtlThrowImpl
$LN3@AtlCrtErro:

; 36   : 		break;
; 37   : 	case EINVAL:
; 38   : 	case ERANGE:
; 39   : 		AtlThrow(E_INVALIDARG);

  00021	68 57 00 07 80	 push	 -2147024809		; 80070057H
  00026	e8 00 00 00 00	 call	 ?AtlThrowImpl@ATL@@YGXJ@Z ; ATL::AtlThrowImpl
$LN1@AtlCrtErro:

; 40   : 		break;
; 41   : 	case 0:
; 42   : 	case STRUNCATE:
; 43   : 		break;
; 44   : 	default:
; 45   : 		AtlThrow(E_FAIL);

  0002b	68 05 40 00 80	 push	 -2147467259		; 80004005H
  00030	e8 00 00 00 00	 call	 ?AtlThrowImpl@ATL@@YGXJ@Z ; ATL::AtlThrowImpl
$LN7@AtlCrtErro:

; 46   : 		break;
; 47   : 	}
; 48   : 	return nError;
; 49   : }

  00035	c3		 ret	 0
$LN10@AtlCrtErro:
  00036	8b ff		 npad	 2
$LN11@AtlCrtErro:
  00038	00 00 00 00	 DD	 $LN7@AtlCrtErro
  0003c	00 00 00 00	 DD	 $LN4@AtlCrtErro
  00040	00 00 00 00	 DD	 $LN3@AtlCrtErro
  00044	00 00 00 00	 DD	 $LN1@AtlCrtErro
$LN9@AtlCrtErro:
  00048	00		 DB	 0
  00049	03		 DB	 3
  0004a	03		 DB	 3
  0004b	03		 DB	 3
  0004c	03		 DB	 3
  0004d	03		 DB	 3
  0004e	03		 DB	 3
  0004f	03		 DB	 3
  00050	03		 DB	 3
  00051	03		 DB	 3
  00052	03		 DB	 3
  00053	03		 DB	 3
  00054	01		 DB	 1
  00055	03		 DB	 3
  00056	03		 DB	 3
  00057	03		 DB	 3
  00058	03		 DB	 3
  00059	03		 DB	 3
  0005a	03		 DB	 3
  0005b	03		 DB	 3
  0005c	03		 DB	 3
  0005d	03		 DB	 3
  0005e	02		 DB	 2
  0005f	03		 DB	 3
  00060	03		 DB	 3
  00061	03		 DB	 3
  00062	03		 DB	 3
  00063	03		 DB	 3
  00064	03		 DB	 3
  00065	03		 DB	 3
  00066	03		 DB	 3
  00067	03		 DB	 3
  00068	03		 DB	 3
  00069	03		 DB	 3
  0006a	02		 DB	 2
  0006b	03		 DB	 3
  0006c	03		 DB	 3
  0006d	03		 DB	 3
  0006e	03		 DB	 3
  0006f	03		 DB	 3
  00070	03		 DB	 3
  00071	03		 DB	 3
  00072	03		 DB	 3
  00073	03		 DB	 3
  00074	03		 DB	 3
  00075	03		 DB	 3
  00076	03		 DB	 3
  00077	03		 DB	 3
  00078	03		 DB	 3
  00079	03		 DB	 3
  0007a	03		 DB	 3
  0007b	03		 DB	 3
  0007c	03		 DB	 3
  0007d	03		 DB	 3
  0007e	03		 DB	 3
  0007f	03		 DB	 3
  00080	03		 DB	 3
  00081	03		 DB	 3
  00082	03		 DB	 3
  00083	03		 DB	 3
  00084	03		 DB	 3
  00085	03		 DB	 3
  00086	03		 DB	 3
  00087	03		 DB	 3
  00088	03		 DB	 3
  00089	03		 DB	 3
  0008a	03		 DB	 3
  0008b	03		 DB	 3
  0008c	03		 DB	 3
  0008d	03		 DB	 3
  0008e	03		 DB	 3
  0008f	03		 DB	 3
  00090	03		 DB	 3
  00091	03		 DB	 3
  00092	03		 DB	 3
  00093	03		 DB	 3
  00094	03		 DB	 3
  00095	03		 DB	 3
  00096	03		 DB	 3
  00097	03		 DB	 3
  00098	00		 DB	 0
?AtlCrtErrorCheck@ATL@@YAHH@Z ENDP			; ATL::AtlCrtErrorCheck
_TEXT	ENDS
PUBLIC	?memcpy_s@Checked@ATL@@YAXPAXIPBXI@Z		; ATL::Checked::memcpy_s
EXTRN	_memcpy_s:PROC
; Function compile flags: /Ogtpy
;	COMDAT ?memcpy_s@Checked@ATL@@YAXPAXIPBXI@Z
_TEXT	SEGMENT
__S1$ = 8						; size = 4
__S1max$ = 12						; size = 4
__S2$ = 16						; size = 4
__N$ = 20						; size = 4
?memcpy_s@Checked@ATL@@YAXPAXIPBXI@Z PROC		; ATL::Checked::memcpy_s, COMDAT

; 65   : 	ATLMFC_CRT_ERRORCHECK(::memcpy_s(_S1, _S1max, _S2, _N));

  00000	8b 44 24 10	 mov	 eax, DWORD PTR __N$[esp-4]
  00004	8b 4c 24 0c	 mov	 ecx, DWORD PTR __S2$[esp-4]
  00008	8b 54 24 08	 mov	 edx, DWORD PTR __S1max$[esp-4]
  0000c	50		 push	 eax
  0000d	8b 44 24 08	 mov	 eax, DWORD PTR __S1$[esp]
  00011	51		 push	 ecx
  00012	52		 push	 edx
  00013	50		 push	 eax
  00014	e8 00 00 00 00	 call	 _memcpy_s
  00019	50		 push	 eax
  0001a	e8 00 00 00 00	 call	 ?AtlCrtErrorCheck@ATL@@YAHH@Z ; ATL::AtlCrtErrorCheck
  0001f	83 c4 14	 add	 esp, 20			; 00000014H

; 66   : }

  00022	c3		 ret	 0
?memcpy_s@Checked@ATL@@YAXPAXIPBXI@Z ENDP		; ATL::Checked::memcpy_s
_TEXT	ENDS
PUBLIC	?tcsncpy_s@Checked@ATL@@YAHPADIPBDI@Z		; ATL::Checked::tcsncpy_s
; Function compile flags: /Ogtpy
;	COMDAT ?tcsncpy_s@Checked@ATL@@YAHPADIPBDI@Z
_TEXT	SEGMENT
__Dest$ = 8						; size = 4
__SizeInChars$ = 12					; size = 4
__Source$ = 16						; size = 4
__Count$ = 20						; size = 4
?tcsncpy_s@Checked@ATL@@YAHPADIPBDI@Z PROC		; ATL::Checked::tcsncpy_s, COMDAT

; 105  : 	return ATLMFC_CRT_ERRORCHECK(::_tcsncpy_s(_Dest, _SizeInChars, _Source,_Count));	

  00000	8b 44 24 10	 mov	 eax, DWORD PTR __Count$[esp-4]
  00004	8b 4c 24 0c	 mov	 ecx, DWORD PTR __Source$[esp-4]
  00008	8b 54 24 08	 mov	 edx, DWORD PTR __SizeInChars$[esp-4]
  0000c	50		 push	 eax
  0000d	8b 44 24 08	 mov	 eax, DWORD PTR __Dest$[esp]
  00011	51		 push	 ecx
  00012	52		 push	 edx
  00013	50		 push	 eax
  00014	e8 00 00 00 00	 call	 __mbsnbcpy_s
  00019	50		 push	 eax
  0001a	e8 00 00 00 00	 call	 ?AtlCrtErrorCheck@ATL@@YAHH@Z ; ATL::AtlCrtErrorCheck
  0001f	83 c4 14	 add	 esp, 20			; 00000014H

; 106  : }

  00022	c3		 ret	 0
?tcsncpy_s@Checked@ATL@@YAHPADIPBDI@Z ENDP		; ATL::Checked::tcsncpy_s
_TEXT	ENDS
PUBLIC	??0CComCriticalSection@ATL@@QAE@XZ		; ATL::CComCriticalSection::CComCriticalSection
; Function compile flags: /Ogtpy
; File c:\program files (x86)\microsoft visual studio 9.0\vc\atlmfc\include\atlcore.h
;	COMDAT ??0CComCriticalSection@ATL@@QAE@XZ
_TEXT	SEGMENT
??0CComCriticalSection@ATL@@QAE@XZ PROC			; ATL::CComCriticalSection::CComCriticalSection, COMDAT
; _this$ = ecx

; 79   : 	CComCriticalSection() throw()

  00000	8b c1		 mov	 eax, ecx

; 80   : 	{
; 81   : 		memset(&m_sec, 0, sizeof(CRITICAL_SECTION));

  00002	33 c9		 xor	 ecx, ecx
  00004	89 08		 mov	 DWORD PTR [eax], ecx
  00006	89 48 04	 mov	 DWORD PTR [eax+4], ecx
  00009	89 48 08	 mov	 DWORD PTR [eax+8], ecx
  0000c	89 48 0c	 mov	 DWORD PTR [eax+12], ecx
  0000f	89 48 10	 mov	 DWORD PTR [eax+16], ecx
  00012	89 48 14	 mov	 DWORD PTR [eax+20], ecx

; 82   : 	}

  00015	c3		 ret	 0
??0CComCriticalSection@ATL@@QAE@XZ ENDP			; ATL::CComCriticalSection::CComCriticalSection
_TEXT	ENDS
PUBLIC	??1CComCriticalSection@ATL@@QAE@XZ		; ATL::CComCriticalSection::~CComCriticalSection
; Function compile flags: /Ogtpy
;	COMDAT ??1CComCriticalSection@ATL@@QAE@XZ
_TEXT	SEGMENT
??1CComCriticalSection@ATL@@QAE@XZ PROC			; ATL::CComCriticalSection::~CComCriticalSection, COMDAT
; _this$ = ecx

; 85   : 	}

  00000	c3		 ret	 0
??1CComCriticalSection@ATL@@QAE@XZ ENDP			; ATL::CComCriticalSection::~CComCriticalSection
_TEXT	ENDS
PUBLIC	?Lock@CComCriticalSection@ATL@@QAEJXZ		; ATL::CComCriticalSection::Lock
EXTRN	__imp__EnterCriticalSection@4:PROC
; Function compile flags: /Ogtpy
;	COMDAT ?Lock@CComCriticalSection@ATL@@QAEJXZ
_TEXT	SEGMENT
?Lock@CComCriticalSection@ATL@@QAEJXZ PROC		; ATL::CComCriticalSection::Lock, COMDAT
; _this$ = ecx

; 88   : 		EnterCriticalSection(&m_sec);

  00000	51		 push	 ecx
  00001	ff 15 00 00 00
	00		 call	 DWORD PTR __imp__EnterCriticalSection@4

; 89   : 		return S_OK;

  00007	33 c0		 xor	 eax, eax

; 90   : 	}

  00009	c3		 ret	 0
?Lock@CComCriticalSection@ATL@@QAEJXZ ENDP		; ATL::CComCriticalSection::Lock
_TEXT	ENDS
PUBLIC	?Unlock@CComCriticalSection@ATL@@QAEJXZ		; ATL::CComCriticalSection::Unlock
EXTRN	__imp__LeaveCriticalSection@4:PROC
; Function compile flags: /Ogtpy
;	COMDAT ?Unlock@CComCriticalSection@ATL@@QAEJXZ
_TEXT	SEGMENT
?Unlock@CComCriticalSection@ATL@@QAEJXZ PROC		; ATL::CComCriticalSection::Unlock, COMDAT
; _this$ = ecx

; 93   : 		LeaveCriticalSection(&m_sec);

  00000	51		 push	 ecx
  00001	ff 15 00 00 00
	00		 call	 DWORD PTR __imp__LeaveCriticalSection@4

; 94   : 		return S_OK;

  00007	33 c0		 xor	 eax, eax

; 95   : 	}

  00009	c3		 ret	 0
?Unlock@CComCriticalSection@ATL@@QAEJXZ ENDP		; ATL::CComCriticalSection::Unlock
_TEXT	ENDS
PUBLIC	?Init@CComCriticalSection@ATL@@QAEJXZ		; ATL::CComCriticalSection::Init
EXTRN	__imp__InitializeCriticalSection@4:PROC
EXTRN	___security_cookie:DWORD
EXTRN	__except_handler4:PROC
;	COMDAT xdata$x
xdata$x	SEGMENT
__sehtable$?Init@CComCriticalSection@ATL@@QAEJXZ DD 0fffffffeH
	DD	00H
	DD	0ffffffd4H
	DD	00H
	DD	0fffffffeH
	DD	FLAT:$LN5@Init
	DD	FLAT:$LN6@Init
; Function compile flags: /Ogtpy
xdata$x	ENDS
;	COMDAT ?Init@CComCriticalSection@ATL@@QAEJXZ
_TEXT	SEGMENT
_hRes$ = -28						; size = 4
__$SEHRec$ = -24					; size = 24
?Init@CComCriticalSection@ATL@@QAEJXZ PROC		; ATL::CComCriticalSection::Init, COMDAT
; _this$ = ecx

; 97   : 	{

  00000	55		 push	 ebp
  00001	8b ec		 mov	 ebp, esp
  00003	6a fe		 push	 -2			; fffffffeH
  00005	68 00 00 00 00	 push	 OFFSET __sehtable$?Init@CComCriticalSection@ATL@@QAEJXZ
  0000a	68 00 00 00 00	 push	 OFFSET __except_handler4
  0000f	64 a1 00 00 00
	00		 mov	 eax, DWORD PTR fs:0
  00015	50		 push	 eax
  00016	83 ec 0c	 sub	 esp, 12			; 0000000cH
  00019	53		 push	 ebx
  0001a	56		 push	 esi
  0001b	57		 push	 edi
  0001c	a1 00 00 00 00	 mov	 eax, DWORD PTR ___security_cookie
  00021	31 45 f8	 xor	 DWORD PTR __$SEHRec$[ebp+16], eax
  00024	33 c5		 xor	 eax, ebp
  00026	50		 push	 eax
  00027	8d 45 f0	 lea	 eax, DWORD PTR __$SEHRec$[ebp+8]
  0002a	64 a3 00 00 00
	00		 mov	 DWORD PTR fs:0, eax
  00030	89 65 e8	 mov	 DWORD PTR __$SEHRec$[ebp], esp

; 98   : 		HRESULT hRes = E_FAIL;
; 99   : 		__try

  00033	c7 45 fc 00 00
	00 00		 mov	 DWORD PTR __$SEHRec$[ebp+20], 0

; 100  : 		{
; 101  : 			InitializeCriticalSection(&m_sec);

  0003a	51		 push	 ecx
  0003b	ff 15 00 00 00
	00		 call	 DWORD PTR __imp__InitializeCriticalSection@4

; 102  : 			hRes = S_OK;

  00041	33 c0		 xor	 eax, eax

; 103  : 		}

  00043	eb 1c		 jmp	 SHORT $LN9@Init
$LN5@Init:

; 104  : 		// structured exception may be raised in low memory situations
; 105  : 		__except(STATUS_NO_MEMORY == GetExceptionCode())

  00045	8b 45 ec	 mov	 eax, DWORD PTR __$SEHRec$[ebp+4]
  00048	8b 08		 mov	 ecx, DWORD PTR [eax]
  0004a	8b 01		 mov	 eax, DWORD PTR [ecx]
  0004c	33 d2		 xor	 edx, edx
  0004e	3d 17 00 00 c0	 cmp	 eax, -1073741801	; c0000017H
  00053	0f 94 c2	 sete	 dl
  00056	8b c2		 mov	 eax, edx
$LN7@Init:
  00058	c3		 ret	 0
$LN6@Init:
  00059	8b 65 e8	 mov	 esp, DWORD PTR __$SEHRec$[ebp]

; 106  : 		{			
; 107  : 			hRes = E_OUTOFMEMORY;		

  0005c	b8 0e 00 07 80	 mov	 eax, -2147024882	; 8007000eH
$LN9@Init:
  00061	89 45 e4	 mov	 DWORD PTR _hRes$[ebp], eax

; 108  : 		}

  00064	c7 45 fc fe ff
	ff ff		 mov	 DWORD PTR __$SEHRec$[ebp+20], -2 ; fffffffeH

; 109  : 		return hRes;
; 110  : 	}

  0006b	8b 4d f0	 mov	 ecx, DWORD PTR __$SEHRec$[ebp+8]
  0006e	64 89 0d 00 00
	00 00		 mov	 DWORD PTR fs:0, ecx
  00075	59		 pop	 ecx
  00076	5f		 pop	 edi
  00077	5e		 pop	 esi
  00078	5b		 pop	 ebx
  00079	8b e5		 mov	 esp, ebp
  0007b	5d		 pop	 ebp
  0007c	c3		 ret	 0
?Init@CComCriticalSection@ATL@@QAEJXZ ENDP		; ATL::CComCriticalSection::Init
_TEXT	ENDS
PUBLIC	?Term@CComCriticalSection@ATL@@QAEJXZ		; ATL::CComCriticalSection::Term
EXTRN	__imp__DeleteCriticalSection@4:PROC
; Function compile flags: /Ogtpy
;	COMDAT ?Term@CComCriticalSection@ATL@@QAEJXZ
_TEXT	SEGMENT
?Term@CComCriticalSection@ATL@@QAEJXZ PROC		; ATL::CComCriticalSection::Term, COMDAT
; _this$ = ecx

; 114  : 		DeleteCriticalSection(&m_sec);

  00000	51		 push	 ecx
  00001	ff 15 00 00 00
	00		 call	 DWORD PTR __imp__DeleteCriticalSection@4

; 115  : 		return S_OK;

  00007	33 c0		 xor	 eax, eax

; 116  : 	}	

  00009	c3		 ret	 0
?Term@CComCriticalSection@ATL@@QAEJXZ ENDP		; ATL::CComCriticalSection::Term
_TEXT	ENDS
PUBLIC	??0CComSafeDeleteCriticalSection@ATL@@QAE@XZ	; ATL::CComSafeDeleteCriticalSection::CComSafeDeleteCriticalSection
; Function compile flags: /Ogtpy
;	COMDAT ??0CComSafeDeleteCriticalSection@ATL@@QAE@XZ
_TEXT	SEGMENT
??0CComSafeDeleteCriticalSection@ATL@@QAE@XZ PROC	; ATL::CComSafeDeleteCriticalSection::CComSafeDeleteCriticalSection, COMDAT
; _this$ = ecx

; 142  : 	{

  00000	8b c1		 mov	 eax, ecx
  00002	33 c9		 xor	 ecx, ecx
  00004	89 08		 mov	 DWORD PTR [eax], ecx
  00006	89 48 04	 mov	 DWORD PTR [eax+4], ecx
  00009	89 48 08	 mov	 DWORD PTR [eax+8], ecx
  0000c	89 48 0c	 mov	 DWORD PTR [eax+12], ecx
  0000f	89 48 10	 mov	 DWORD PTR [eax+16], ecx
  00012	89 48 14	 mov	 DWORD PTR [eax+20], ecx
  00015	88 48 18	 mov	 BYTE PTR [eax+24], cl

; 143  : 	}

  00018	c3		 ret	 0
??0CComSafeDeleteCriticalSection@ATL@@QAE@XZ ENDP	; ATL::CComSafeDeleteCriticalSection::CComSafeDeleteCriticalSection
_TEXT	ENDS
PUBLIC	??1CComSafeDeleteCriticalSection@ATL@@QAE@XZ	; ATL::CComSafeDeleteCriticalSection::~CComSafeDeleteCriticalSection
; Function compile flags: /Ogtpy
;	COMDAT ??1CComSafeDeleteCriticalSection@ATL@@QAE@XZ
_TEXT	SEGMENT
??1CComSafeDeleteCriticalSection@ATL@@QAE@XZ PROC	; ATL::CComSafeDeleteCriticalSection::~CComSafeDeleteCriticalSection, COMDAT
; _this$ = ecx

; 147  : 		if (!m_bInitialized)

  00000	80 79 18 00	 cmp	 BYTE PTR [ecx+24], 0
  00004	74 0b		 je	 SHORT $LN4@CComSafeDe

; 148  : 		{
; 149  : 			return;
; 150  : 		}
; 151  : 		m_bInitialized = false;
; 152  : 		CComCriticalSection::Term();

  00006	51		 push	 ecx
  00007	c6 41 18 00	 mov	 BYTE PTR [ecx+24], 0
  0000b	ff 15 00 00 00
	00		 call	 DWORD PTR __imp__DeleteCriticalSection@4
$LN4@CComSafeDe:

; 153  : 	}

  00011	c3		 ret	 0
??1CComSafeDeleteCriticalSection@ATL@@QAE@XZ ENDP	; ATL::CComSafeDeleteCriticalSection::~CComSafeDeleteCriticalSection
_TEXT	ENDS
PUBLIC	?Init@CComSafeDeleteCriticalSection@ATL@@QAEJXZ	; ATL::CComSafeDeleteCriticalSection::Init
; Function compile flags: /Ogtpy
;	COMDAT ?Init@CComSafeDeleteCriticalSection@ATL@@QAEJXZ
_TEXT	SEGMENT
?Init@CComSafeDeleteCriticalSection@ATL@@QAEJXZ PROC	; ATL::CComSafeDeleteCriticalSection::Init, COMDAT
; _this$ = ecx

; 156  : 	{

  00000	56		 push	 esi
  00001	8b f1		 mov	 esi, ecx

; 157  : 		ATLASSERT( !m_bInitialized );
; 158  : 		HRESULT hr = CComCriticalSection::Init();

  00003	e8 00 00 00 00	 call	 ?Init@CComCriticalSection@ATL@@QAEJXZ ; ATL::CComCriticalSection::Init

; 159  : 		if (SUCCEEDED(hr))

  00008	85 c0		 test	 eax, eax
  0000a	7c 04		 jl	 SHORT $LN1@Init@2

; 160  : 		{
; 161  : 			m_bInitialized = true;

  0000c	c6 46 18 01	 mov	 BYTE PTR [esi+24], 1
$LN1@Init@2:
  00010	5e		 pop	 esi

; 162  : 		}
; 163  : 		return hr;
; 164  : 	}

  00011	c3		 ret	 0
?Init@CComSafeDeleteCriticalSection@ATL@@QAEJXZ ENDP	; ATL::CComSafeDeleteCriticalSection::Init
_TEXT	ENDS
PUBLIC	?Lock@CComSafeDeleteCriticalSection@ATL@@QAEJXZ	; ATL::CComSafeDeleteCriticalSection::Lock
; Function compile flags: /Ogtpy
;	COMDAT ?Lock@CComSafeDeleteCriticalSection@ATL@@QAEJXZ
_TEXT	SEGMENT
?Lock@CComSafeDeleteCriticalSection@ATL@@QAEJXZ PROC	; ATL::CComSafeDeleteCriticalSection::Lock, COMDAT
; _this$ = ecx

; 178  : 		// CComSafeDeleteCriticalSection::Init or CComAutoDeleteCriticalSection::Init
; 179  : 		// not called or failed.
; 180  : 		// m_critsec member of CComObjectRootEx is now of type 
; 181  : 		// CComAutoDeleteCriticalSection. It has to be initialized
; 182  : 		// by calling CComObjectRootEx::_AtlInitialConstruct
; 183  : 		ATLASSUME(m_bInitialized);
; 184  : 		return CComCriticalSection::Lock();

  00000	51		 push	 ecx
  00001	ff 15 00 00 00
	00		 call	 DWORD PTR __imp__EnterCriticalSection@4
  00007	33 c0		 xor	 eax, eax

; 185  : 	}

  00009	c3		 ret	 0
?Lock@CComSafeDeleteCriticalSection@ATL@@QAEJXZ ENDP	; ATL::CComSafeDeleteCriticalSection::Lock
_TEXT	ENDS
PUBLIC	?AtlHresultFromLastError@ATL@@YAJXZ		; ATL::AtlHresultFromLastError
EXTRN	__imp__GetLastError@0:PROC
; Function compile flags: /Ogtpy
; File c:\program files (x86)\microsoft visual studio 9.0\vc\atlmfc\include\atlcomcli.h
;	COMDAT ?AtlHresultFromLastError@ATL@@YAJXZ
_TEXT	SEGMENT
?AtlHresultFromLastError@ATL@@YAJXZ PROC		; ATL::AtlHresultFromLastError, COMDAT

; 33   : 	DWORD dwErr = ::GetLastError();

  00000	ff 15 00 00 00
	00		 call	 DWORD PTR __imp__GetLastError@0

; 34   : 	return HRESULT_FROM_WIN32(dwErr);

  00006	85 c0		 test	 eax, eax
  00008	7e 0a		 jle	 SHORT $LN6@AtlHresult
  0000a	25 ff ff 00 00	 and	 eax, 65535		; 0000ffffH
  0000f	0d 00 00 07 80	 or	 eax, -2147024896	; 80070000H
$LN6@AtlHresult:

; 35   : }

  00014	c3		 ret	 0
?AtlHresultFromLastError@ATL@@YAJXZ ENDP		; ATL::AtlHresultFromLastError
_TEXT	ENDS
PUBLIC	?AtlHresultFromWin32@ATL@@YAJK@Z		; ATL::AtlHresultFromWin32
; Function compile flags: /Ogtpy
;	COMDAT ?AtlHresultFromWin32@ATL@@YAJK@Z
_TEXT	SEGMENT
_nError$ = 8						; size = 4
?AtlHresultFromWin32@ATL@@YAJK@Z PROC			; ATL::AtlHresultFromWin32, COMDAT

; 39   : 	return( HRESULT_FROM_WIN32( nError ) );

  00000	8b 44 24 04	 mov	 eax, DWORD PTR _nError$[esp-4]
  00004	85 c0		 test	 eax, eax
  00006	7e 0a		 jle	 SHORT $LN6@AtlHresult@2
  00008	25 ff ff 00 00	 and	 eax, 65535		; 0000ffffH
  0000d	0d 00 00 07 80	 or	 eax, -2147024896	; 80070000H
$LN6@AtlHresult@2:

; 40   : }

  00012	c3		 ret	 0
?AtlHresultFromWin32@ATL@@YAJK@Z ENDP			; ATL::AtlHresultFromWin32
_TEXT	ENDS
PUBLIC	??0CRegKey@ATL@@QAE@XZ				; ATL::CRegKey::CRegKey
; Function compile flags: /Ogtpy
; File c:\program files (x86)\microsoft visual studio 9.0\vc\atlmfc\include\atlbase.h
;	COMDAT ??0CRegKey@ATL@@QAE@XZ
_TEXT	SEGMENT
??0CRegKey@ATL@@QAE@XZ PROC				; ATL::CRegKey::CRegKey, COMDAT
; _this$ = ecx

; 5190 : {

  00000	8b c1		 mov	 eax, ecx
  00002	c7 00 00 00 00
	00		 mov	 DWORD PTR [eax], 0
  00008	c7 40 04 00 00
	00 00		 mov	 DWORD PTR [eax+4], 0

; 5191 : }

  0000f	c3		 ret	 0
??0CRegKey@ATL@@QAE@XZ ENDP				; ATL::CRegKey::CRegKey
_TEXT	ENDS
PUBLIC	??BCRegKey@ATL@@QBEPAUHKEY__@@XZ		; ATL::CRegKey::operator HKEY__ *
; Function compile flags: /Ogtpy
;	COMDAT ??BCRegKey@ATL@@QBEPAUHKEY__@@XZ
_TEXT	SEGMENT
??BCRegKey@ATL@@QBEPAUHKEY__@@XZ PROC			; ATL::CRegKey::operator HKEY__ *, COMDAT
; _this$ = ecx

; 5219 : {return m_hKey;}

  00000	8b 01		 mov	 eax, DWORD PTR [ecx]
  00002	c3		 ret	 0
??BCRegKey@ATL@@QBEPAUHKEY__@@XZ ENDP			; ATL::CRegKey::operator HKEY__ *
_TEXT	ENDS
PUBLIC	?Detach@CRegKey@ATL@@QAEPAUHKEY__@@XZ		; ATL::CRegKey::Detach
; Function compile flags: /Ogtpy
;	COMDAT ?Detach@CRegKey@ATL@@QAEPAUHKEY__@@XZ
_TEXT	SEGMENT
?Detach@CRegKey@ATL@@QAEPAUHKEY__@@XZ PROC		; ATL::CRegKey::Detach, COMDAT
; _this$ = ecx

; 5223 : 	HKEY hKey = m_hKey;

  00000	8b 01		 mov	 eax, DWORD PTR [ecx]

; 5224 : 	m_hKey = NULL;

  00002	c7 01 00 00 00
	00		 mov	 DWORD PTR [ecx], 0

; 5225 : 	m_samWOW64 = 0;

  00008	c7 41 04 00 00
	00 00		 mov	 DWORD PTR [ecx+4], 0

; 5226 : 	return hKey;
; 5227 : }

  0000f	c3		 ret	 0
?Detach@CRegKey@ATL@@QAEPAUHKEY__@@XZ ENDP		; ATL::CRegKey::Detach
_TEXT	ENDS
PUBLIC	?Attach@CRegKey@ATL@@QAEXPAUHKEY__@@@Z		; ATL::CRegKey::Attach
; Function compile flags: /Ogtpy
;	COMDAT ?Attach@CRegKey@ATL@@QAEXPAUHKEY__@@@Z
_TEXT	SEGMENT
_hKey$ = 8						; size = 4
?Attach@CRegKey@ATL@@QAEXPAUHKEY__@@@Z PROC		; ATL::CRegKey::Attach, COMDAT
; _this$ = ecx

; 5231 : 	ATLASSUME(m_hKey == NULL);
; 5232 : 	m_hKey = hKey;

  00000	8b 44 24 04	 mov	 eax, DWORD PTR _hKey$[esp-4]
  00004	89 01		 mov	 DWORD PTR [ecx], eax

; 5233 : 	m_samWOW64 = 0;

  00006	c7 41 04 00 00
	00 00		 mov	 DWORD PTR [ecx+4], 0

; 5234 : }

  0000d	c2 04 00	 ret	 4
?Attach@CRegKey@ATL@@QAEXPAUHKEY__@@@Z ENDP		; ATL::CRegKey::Attach
_TEXT	ENDS
PUBLIC	?pfnRegDeleteKeyEx@?5??DeleteSubKey@CRegKey@ATL@@QAEJPBD@Z@4P6GJPAUHKEY__@@0KK@ZA ; `ATL::CRegKey::DeleteSubKey'::`6'::pfnRegDeleteKeyEx
PUBLIC	??_C@_0BA@KECIECLD@RegDeleteKeyExA?$AA@		; `string'
PUBLIC	??_C@_0N@DOHINHCI@Advapi32?4dll?$AA@		; `string'
PUBLIC	?bInitialized@?5??DeleteSubKey@CRegKey@ATL@@QAEJPBD@Z@4_NA ; `ATL::CRegKey::DeleteSubKey'::`6'::bInitialized
PUBLIC	?DeleteSubKey@CRegKey@ATL@@QAEJPBD@Z		; ATL::CRegKey::DeleteSubKey
EXTRN	__imp__RegDeleteKeyA@8:PROC
EXTRN	__imp__GetProcAddress@8:PROC
EXTRN	__imp__GetModuleHandleA@4:PROC
;	COMDAT ?pfnRegDeleteKeyEx@?5??DeleteSubKey@CRegKey@ATL@@QAEJPBD@Z@4P6GJPAUHKEY__@@0KK@ZA
_BSS	SEGMENT
?pfnRegDeleteKeyEx@?5??DeleteSubKey@CRegKey@ATL@@QAEJPBD@Z@4P6GJPAUHKEY__@@0KK@ZA DD 01H DUP (?) ; `ATL::CRegKey::DeleteSubKey'::`6'::pfnRegDeleteKeyEx
_BSS	ENDS
;	COMDAT ?bInitialized@?5??DeleteSubKey@CRegKey@ATL@@QAEJPBD@Z@4_NA
_BSS	SEGMENT
?bInitialized@?5??DeleteSubKey@CRegKey@ATL@@QAEJPBD@Z@4_NA DB 01H DUP (?) ; `ATL::CRegKey::DeleteSubKey'::`6'::bInitialized
_BSS	ENDS
;	COMDAT ??_C@_0BA@KECIECLD@RegDeleteKeyExA?$AA@
CONST	SEGMENT
??_C@_0BA@KECIECLD@RegDeleteKeyExA?$AA@ DB 'RegDeleteKeyExA', 00H ; `string'
CONST	ENDS
;	COMDAT ??_C@_0N@DOHINHCI@Advapi32?4dll?$AA@
CONST	SEGMENT
??_C@_0N@DOHINHCI@Advapi32?4dll?$AA@ DB 'Advapi32.dll', 00H ; `string'
; Function compile flags: /Ogtpy
CONST	ENDS
;	COMDAT ?DeleteSubKey@CRegKey@ATL@@QAEJPBD@Z
_TEXT	SEGMENT
_lpszSubKey$ = 8					; size = 4
?DeleteSubKey@CRegKey@ATL@@QAEJPBD@Z PROC		; ATL::CRegKey::DeleteSubKey, COMDAT
; _this$ = ecx

; 5238 : 	ATLASSUME(m_hKey != NULL);
; 5239 : 
; 5240 : #if WINVER >= 0x0501
; 5241 : 	typedef LSTATUS (WINAPI * PFNRegDeleteKeyEx)(HKEY, LPCTSTR, REGSAM, DWORD);
; 5242 : 	static bool bInitialized = false;
; 5243 : 	static PFNRegDeleteKeyEx pfnRegDeleteKeyEx = NULL;
; 5244 : 
; 5245 : 	if (!bInitialized)

  00000	80 3d 00 00 00
	00 00		 cmp	 BYTE PTR ?bInitialized@?5??DeleteSubKey@CRegKey@ATL@@QAEJPBD@Z@4_NA, 0 ; `ATL::CRegKey::DeleteSubKey'::`6'::bInitialized
  00007	56		 push	 esi
  00008	8b f1		 mov	 esi, ecx
  0000a	75 27		 jne	 SHORT $LN13@DeleteSubK

; 5246 : 	{
; 5247 : 		HMODULE hAdvapi32 = GetModuleHandle(_T("Advapi32.dll"));

  0000c	68 00 00 00 00	 push	 OFFSET ??_C@_0N@DOHINHCI@Advapi32?4dll?$AA@
  00011	ff 15 00 00 00
	00		 call	 DWORD PTR __imp__GetModuleHandleA@4

; 5248 : 		if (hAdvapi32 != NULL)

  00017	85 c0		 test	 eax, eax
  00019	74 11		 je	 SHORT $LN12@DeleteSubK

; 5249 : 		{
; 5250 : #ifdef _UNICODE
; 5251 : 			pfnRegDeleteKeyEx = (PFNRegDeleteKeyEx)GetProcAddress(hAdvapi32, "RegDeleteKeyExW");
; 5252 : #else
; 5253 : 			pfnRegDeleteKeyEx = (PFNRegDeleteKeyEx)GetProcAddress(hAdvapi32, "RegDeleteKeyExA");

  0001b	68 00 00 00 00	 push	 OFFSET ??_C@_0BA@KECIECLD@RegDeleteKeyExA?$AA@
  00020	50		 push	 eax
  00021	ff 15 00 00 00
	00		 call	 DWORD PTR __imp__GetProcAddress@8
  00027	a3 00 00 00 00	 mov	 DWORD PTR ?pfnRegDeleteKeyEx@?5??DeleteSubKey@CRegKey@ATL@@QAEJPBD@Z@4P6GJPAUHKEY__@@0KK@ZA, eax ; `ATL::CRegKey::DeleteSubKey'::`6'::pfnRegDeleteKeyEx
$LN12@DeleteSubK:

; 5254 : #endif	// _UNICODE
; 5255 : 		}
; 5256 : 		bInitialized = true;

  0002c	c6 05 00 00 00
	00 01		 mov	 BYTE PTR ?bInitialized@?5??DeleteSubKey@CRegKey@ATL@@QAEJPBD@Z@4_NA, 1 ; `ATL::CRegKey::DeleteSubKey'::`6'::bInitialized
$LN13@DeleteSubK:

; 5257 : 	}
; 5258 : 
; 5259 : 	if (pfnRegDeleteKeyEx != NULL)

  00033	a1 00 00 00 00	 mov	 eax, DWORD PTR ?pfnRegDeleteKeyEx@?5??DeleteSubKey@CRegKey@ATL@@QAEJPBD@Z@4P6GJPAUHKEY__@@0KK@ZA ; `ATL::CRegKey::DeleteSubKey'::`6'::pfnRegDeleteKeyEx

; 5260 : 	{
; 5261 : 		return pfnRegDeleteKeyEx(m_hKey, lpszSubKey, m_samWOW64, 0);

  00038	8b 54 24 08	 mov	 edx, DWORD PTR _lpszSubKey$[esp]
  0003c	85 c0		 test	 eax, eax
  0003e	74 10		 je	 SHORT $LN1@DeleteSubK
  00040	8b 4e 04	 mov	 ecx, DWORD PTR [esi+4]
  00043	6a 00		 push	 0
  00045	51		 push	 ecx
  00046	8b 0e		 mov	 ecx, DWORD PTR [esi]
  00048	52		 push	 edx
  00049	51		 push	 ecx
  0004a	ff d0		 call	 eax
  0004c	5e		 pop	 esi

; 5267 : }

  0004d	c2 04 00	 ret	 4
$LN1@DeleteSubK:

; 5262 : 	}
; 5263 : 
; 5264 : #endif	// WINVER
; 5265 : 
; 5266 : 	return RegDeleteKey(m_hKey, lpszSubKey);

  00050	8b 06		 mov	 eax, DWORD PTR [esi]
  00052	52		 push	 edx
  00053	50		 push	 eax
  00054	ff 15 00 00 00
	00		 call	 DWORD PTR __imp__RegDeleteKeyA@8
  0005a	5e		 pop	 esi

; 5267 : }

  0005b	c2 04 00	 ret	 4
?DeleteSubKey@CRegKey@ATL@@QAEJPBD@Z ENDP		; ATL::CRegKey::DeleteSubKey
_TEXT	ENDS
PUBLIC	?DeleteValue@CRegKey@ATL@@QAEJPBD@Z		; ATL::CRegKey::DeleteValue
EXTRN	__imp__RegDeleteValueA@8:PROC
; Function compile flags: /Ogtpy
;	COMDAT ?DeleteValue@CRegKey@ATL@@QAEJPBD@Z
_TEXT	SEGMENT
_lpszValue$ = 8						; size = 4
?DeleteValue@CRegKey@ATL@@QAEJPBD@Z PROC		; ATL::CRegKey::DeleteValue, COMDAT
; _this$ = ecx

; 5271 : 	ATLASSUME(m_hKey != NULL);
; 5272 : 	return RegDeleteValue(m_hKey, (LPTSTR)lpszValue);

  00000	8b 44 24 04	 mov	 eax, DWORD PTR _lpszValue$[esp-4]
  00004	8b 09		 mov	 ecx, DWORD PTR [ecx]
  00006	50		 push	 eax
  00007	51		 push	 ecx
  00008	ff 15 00 00 00
	00		 call	 DWORD PTR __imp__RegDeleteValueA@8

; 5273 : }

  0000e	c2 04 00	 ret	 4
?DeleteValue@CRegKey@ATL@@QAEJPBD@Z ENDP		; ATL::CRegKey::DeleteValue
_TEXT	ENDS
PUBLIC	?Close@CRegKey@ATL@@QAEJXZ			; ATL::CRegKey::Close
EXTRN	__imp__RegCloseKey@4:PROC
; Function compile flags: /Ogtpy
;	COMDAT ?Close@CRegKey@ATL@@QAEJXZ
_TEXT	SEGMENT
?Close@CRegKey@ATL@@QAEJXZ PROC				; ATL::CRegKey::Close, COMDAT
; _this$ = ecx

; 5276 : {

  00000	56		 push	 esi
  00001	8b f1		 mov	 esi, ecx

; 5277 : 	LONG lRes = ERROR_SUCCESS;
; 5278 : 	if (m_hKey != NULL)

  00003	8b 0e		 mov	 ecx, DWORD PTR [esi]
  00005	33 c0		 xor	 eax, eax
  00007	85 c9		 test	 ecx, ecx
  00009	74 16		 je	 SHORT $LN4@Close

; 5279 : 	{
; 5280 : 		lRes = RegCloseKey(m_hKey);

  0000b	51		 push	 ecx
  0000c	ff 15 00 00 00
	00		 call	 DWORD PTR __imp__RegCloseKey@4

; 5281 : 		m_hKey = NULL;

  00012	c7 06 00 00 00
	00		 mov	 DWORD PTR [esi], 0

; 5282 : 	}
; 5283 : 	m_samWOW64 = 0;

  00018	c7 46 04 00 00
	00 00		 mov	 DWORD PTR [esi+4], 0
  0001f	5e		 pop	 esi

; 5284 : 	return lRes;
; 5285 : }

  00020	c3		 ret	 0
$LN4@Close:

; 5282 : 	}
; 5283 : 	m_samWOW64 = 0;

  00021	89 46 04	 mov	 DWORD PTR [esi+4], eax
  00024	5e		 pop	 esi

; 5284 : 	return lRes;
; 5285 : }

  00025	c3		 ret	 0
?Close@CRegKey@ATL@@QAEJXZ ENDP				; ATL::CRegKey::Close
_TEXT	ENDS
PUBLIC	?Create@CRegKey@ATL@@QAEJPAUHKEY__@@PBDPADKKPAU_SECURITY_ATTRIBUTES@@PAK@Z ; ATL::CRegKey::Create
EXTRN	__imp__RegCreateKeyExA@36:PROC
; Function compile flags: /Ogtpy
;	COMDAT ?Create@CRegKey@ATL@@QAEJPAUHKEY__@@PBDPADKKPAU_SECURITY_ATTRIBUTES@@PAK@Z
_TEXT	SEGMENT
_hKey$ = -4						; size = 4
_hKeyParent$ = 8					; size = 4
_lpszKeyName$ = 12					; size = 4
_lpszClass$ = 16					; size = 4
_dwOptions$ = 20					; size = 4
_samDesired$ = 24					; size = 4
_dw$ = 28						; size = 4
_lpSecAttr$ = 28					; size = 4
_lpdwDisposition$ = 32					; size = 4
?Create@CRegKey@ATL@@QAEJPAUHKEY__@@PBDPADKKPAU_SECURITY_ATTRIBUTES@@PAK@Z PROC ; ATL::CRegKey::Create, COMDAT
; _this$ = ecx

; 5318 : {

  00000	51		 push	 ecx

; 5319 : 	ATLASSERT(hKeyParent != NULL);
; 5320 : 	DWORD dw;
; 5321 : 	HKEY hKey = NULL;
; 5322 : 	LONG lRes = RegCreateKeyEx(hKeyParent, lpszKeyName, 0,
; 5323 : 		lpszClass, dwOptions, samDesired, lpSecAttr, &hKey, &dw);

  00001	8b 54 24 1c	 mov	 edx, DWORD PTR _lpSecAttr$[esp]
  00005	56		 push	 esi
  00006	57		 push	 edi
  00007	8b 7c 24 20	 mov	 edi, DWORD PTR _samDesired$[esp+8]
  0000b	8b f1		 mov	 esi, ecx
  0000d	8d 44 24 24	 lea	 eax, DWORD PTR _dw$[esp+8]
  00011	50		 push	 eax
  00012	8b 44 24 20	 mov	 eax, DWORD PTR _dwOptions$[esp+12]
  00016	8d 4c 24 0c	 lea	 ecx, DWORD PTR _hKey$[esp+16]
  0001a	51		 push	 ecx
  0001b	8b 4c 24 20	 mov	 ecx, DWORD PTR _lpszClass$[esp+16]
  0001f	52		 push	 edx
  00020	8b 54 24 20	 mov	 edx, DWORD PTR _lpszKeyName$[esp+20]
  00024	57		 push	 edi
  00025	50		 push	 eax
  00026	8b 44 24 24	 mov	 eax, DWORD PTR _hKeyParent$[esp+28]
  0002a	51		 push	 ecx
  0002b	6a 00		 push	 0
  0002d	52		 push	 edx
  0002e	50		 push	 eax
  0002f	c7 44 24 2c 00
	00 00 00	 mov	 DWORD PTR _hKey$[esp+48], 0
  00037	ff 15 00 00 00
	00		 call	 DWORD PTR __imp__RegCreateKeyExA@36

; 5324 : 	if (lpdwDisposition != NULL)

  0003d	8b 4c 24 28	 mov	 ecx, DWORD PTR _lpdwDisposition$[esp+8]
  00041	85 c9		 test	 ecx, ecx
  00043	74 06		 je	 SHORT $LN2@Create

; 5325 : 		*lpdwDisposition = dw;

  00045	8b 54 24 24	 mov	 edx, DWORD PTR _dw$[esp+8]
  00049	89 11		 mov	 DWORD PTR [ecx], edx
$LN2@Create:

; 5326 : 	if (lRes == ERROR_SUCCESS)

  0004b	85 c0		 test	 eax, eax
  0004d	75 22		 jne	 SHORT $LN1@Create

; 5327 : 	{
; 5328 : 		lRes = Close();

  0004f	8b 0e		 mov	 ecx, DWORD PTR [esi]
  00051	85 c9		 test	 ecx, ecx
  00053	74 0d		 je	 SHORT $LN5@Create
  00055	51		 push	 ecx
  00056	ff 15 00 00 00
	00		 call	 DWORD PTR __imp__RegCloseKey@4
  0005c	c7 06 00 00 00
	00		 mov	 DWORD PTR [esi], 0
$LN5@Create:

; 5329 : 		m_hKey = hKey;

  00062	8b 4c 24 08	 mov	 ecx, DWORD PTR _hKey$[esp+12]

; 5330 : #if WINVER >= 0x0501
; 5331 : 		m_samWOW64 = samDesired & (KEY_WOW64_32KEY | KEY_WOW64_64KEY);

  00066	81 e7 00 03 00
	00		 and	 edi, 768		; 00000300H
  0006c	89 0e		 mov	 DWORD PTR [esi], ecx
  0006e	89 7e 04	 mov	 DWORD PTR [esi+4], edi
$LN1@Create:
  00071	5f		 pop	 edi
  00072	5e		 pop	 esi

; 5332 : #endif
; 5333 : 	}
; 5334 : 	return lRes;
; 5335 : }

  00073	59		 pop	 ecx
  00074	c2 1c 00	 ret	 28			; 0000001cH
?Create@CRegKey@ATL@@QAEJPAUHKEY__@@PBDPADKKPAU_SECURITY_ATTRIBUTES@@PAK@Z ENDP ; ATL::CRegKey::Create
_TEXT	ENDS
PUBLIC	?Open@CRegKey@ATL@@QAEJPAUHKEY__@@PBDK@Z	; ATL::CRegKey::Open
EXTRN	__imp__RegOpenKeyExA@20:PROC
; Function compile flags: /Ogtpy
;	COMDAT ?Open@CRegKey@ATL@@QAEJPAUHKEY__@@PBDK@Z
_TEXT	SEGMENT
_hKey$ = -4						; size = 4
_hKeyParent$ = 8					; size = 4
_lpszKeyName$ = 12					; size = 4
_samDesired$ = 16					; size = 4
?Open@CRegKey@ATL@@QAEJPAUHKEY__@@PBDK@Z PROC		; ATL::CRegKey::Open, COMDAT
; _this$ = ecx

; 5338 : {

  00000	51		 push	 ecx

; 5339 : 	ATLASSUME(hKeyParent != NULL);
; 5340 : 	HKEY hKey = NULL;
; 5341 : 	LONG lRes = RegOpenKeyEx(hKeyParent, lpszKeyName, 0, samDesired, &hKey);

  00001	8b 54 24 08	 mov	 edx, DWORD PTR _hKeyParent$[esp]
  00005	56		 push	 esi
  00006	57		 push	 edi
  00007	8b 7c 24 18	 mov	 edi, DWORD PTR _samDesired$[esp+8]
  0000b	8d 44 24 08	 lea	 eax, DWORD PTR _hKey$[esp+12]
  0000f	50		 push	 eax
  00010	57		 push	 edi
  00011	8b f1		 mov	 esi, ecx
  00013	8b 4c 24 1c	 mov	 ecx, DWORD PTR _lpszKeyName$[esp+16]
  00017	6a 00		 push	 0
  00019	51		 push	 ecx
  0001a	52		 push	 edx
  0001b	c7 44 24 1c 00
	00 00 00	 mov	 DWORD PTR _hKey$[esp+32], 0
  00023	ff 15 00 00 00
	00		 call	 DWORD PTR __imp__RegOpenKeyExA@20

; 5342 : 	if (lRes == ERROR_SUCCESS)

  00029	85 c0		 test	 eax, eax
  0002b	75 22		 jne	 SHORT $LN1@Open

; 5343 : 	{
; 5344 : 		lRes = Close();

  0002d	8b 0e		 mov	 ecx, DWORD PTR [esi]
  0002f	85 c9		 test	 ecx, ecx
  00031	74 0d		 je	 SHORT $LN10@Open
  00033	51		 push	 ecx
  00034	ff 15 00 00 00
	00		 call	 DWORD PTR __imp__RegCloseKey@4
  0003a	c7 06 00 00 00
	00		 mov	 DWORD PTR [esi], 0
$LN10@Open:

; 5345 : 		ATLASSERT(lRes == ERROR_SUCCESS);
; 5346 : 		m_hKey = hKey;

  00040	8b 4c 24 08	 mov	 ecx, DWORD PTR _hKey$[esp+12]

; 5347 : #if WINVER >= 0x0501
; 5348 : 		m_samWOW64 = samDesired & (KEY_WOW64_32KEY | KEY_WOW64_64KEY);

  00044	81 e7 00 03 00
	00		 and	 edi, 768		; 00000300H
  0004a	89 0e		 mov	 DWORD PTR [esi], ecx
  0004c	89 7e 04	 mov	 DWORD PTR [esi+4], edi
$LN1@Open:
  0004f	5f		 pop	 edi
  00050	5e		 pop	 esi

; 5349 : #endif
; 5350 : 	}
; 5351 : 	return lRes;
; 5352 : }

  00051	59		 pop	 ecx
  00052	c2 0c 00	 ret	 12			; 0000000cH
?Open@CRegKey@ATL@@QAEJPAUHKEY__@@PBDK@Z ENDP		; ATL::CRegKey::Open
_TEXT	ENDS
PUBLIC	?SetDWORDValue@CRegKey@ATL@@QAEJPBDK@Z		; ATL::CRegKey::SetDWORDValue
EXTRN	__imp__RegSetValueExA@24:PROC
; Function compile flags: /Ogtpy
;	COMDAT ?SetDWORDValue@CRegKey@ATL@@QAEJPBDK@Z
_TEXT	SEGMENT
_pszValueName$ = 8					; size = 4
_dwValue$ = 12						; size = 4
?SetDWORDValue@CRegKey@ATL@@QAEJPBDK@Z PROC		; ATL::CRegKey::SetDWORDValue, COMDAT
; _this$ = ecx

; 5653 : 	ATLASSUME(m_hKey != NULL);
; 5654 : 	return ::RegSetValueEx(m_hKey, pszValueName, NULL, REG_DWORD, reinterpret_cast<const BYTE*>(&dwValue), sizeof(DWORD));

  00000	8b 54 24 04	 mov	 edx, DWORD PTR _pszValueName$[esp-4]
  00004	6a 04		 push	 4
  00006	8d 44 24 0c	 lea	 eax, DWORD PTR _dwValue$[esp]
  0000a	50		 push	 eax
  0000b	8b 01		 mov	 eax, DWORD PTR [ecx]
  0000d	6a 04		 push	 4
  0000f	6a 00		 push	 0
  00011	52		 push	 edx
  00012	50		 push	 eax
  00013	ff 15 00 00 00
	00		 call	 DWORD PTR __imp__RegSetValueExA@24

; 5655 : }

  00019	c2 08 00	 ret	 8
?SetDWORDValue@CRegKey@ATL@@QAEJPBDK@Z ENDP		; ATL::CRegKey::SetDWORDValue
_TEXT	ENDS
PUBLIC	?SetStringValue@CRegKey@ATL@@QAEJPBD0K@Z	; ATL::CRegKey::SetStringValue
EXTRN	__imp__lstrlenA@4:PROC
; Function compile flags: /Ogtpy
;	COMDAT ?SetStringValue@CRegKey@ATL@@QAEJPBD0K@Z
_TEXT	SEGMENT
_pszValueName$ = 8					; size = 4
_pszValue$ = 12						; size = 4
_dwType$ = 16						; size = 4
?SetStringValue@CRegKey@ATL@@QAEJPBD0K@Z PROC		; ATL::CRegKey::SetStringValue, COMDAT
; _this$ = ecx

; 5664 : {

  00000	56		 push	 esi

; 5665 : 	ATLASSUME(m_hKey != NULL);
; 5666 : 	ATLENSURE_RETURN_VAL(pszValue != NULL, ERROR_INVALID_DATA);

  00001	8b 74 24 0c	 mov	 esi, DWORD PTR _pszValue$[esp]
  00005	57		 push	 edi
  00006	8b f9		 mov	 edi, ecx
  00008	85 f6		 test	 esi, esi
  0000a	75 08		 jne	 SHORT $LN3@SetStringV
  0000c	5f		 pop	 edi
  0000d	8d 46 0d	 lea	 eax, DWORD PTR [esi+13]
  00010	5e		 pop	 esi

; 5670 : }

  00011	c2 0c 00	 ret	 12			; 0000000cH
$LN3@SetStringV:

; 5667 : 	ATLASSERT((dwType == REG_SZ) || (dwType == REG_EXPAND_SZ));
; 5668 : 
; 5669 : 	return ::RegSetValueEx(m_hKey, pszValueName, NULL, dwType, reinterpret_cast<const BYTE*>(pszValue), (lstrlen(pszValue)+1)*sizeof(TCHAR));

  00014	56		 push	 esi
  00015	ff 15 00 00 00
	00		 call	 DWORD PTR __imp__lstrlenA@4
  0001b	8b 4c 24 0c	 mov	 ecx, DWORD PTR _pszValueName$[esp+4]
  0001f	8b 17		 mov	 edx, DWORD PTR [edi]
  00021	40		 inc	 eax
  00022	50		 push	 eax
  00023	8b 44 24 18	 mov	 eax, DWORD PTR _dwType$[esp+8]
  00027	56		 push	 esi
  00028	50		 push	 eax
  00029	6a 00		 push	 0
  0002b	51		 push	 ecx
  0002c	52		 push	 edx
  0002d	ff 15 00 00 00
	00		 call	 DWORD PTR __imp__RegSetValueExA@24
  00033	5f		 pop	 edi
  00034	5e		 pop	 esi

; 5670 : }

  00035	c2 0c 00	 ret	 12			; 0000000cH
?SetStringValue@CRegKey@ATL@@QAEJPBD0K@Z ENDP		; ATL::CRegKey::SetStringValue
_TEXT	ENDS
PUBLIC	?SetMultiStringValue@CRegKey@ATL@@QAEJPBD0@Z	; ATL::CRegKey::SetMultiStringValue
; Function compile flags: /Ogtpy
;	COMDAT ?SetMultiStringValue@CRegKey@ATL@@QAEJPBD0@Z
_TEXT	SEGMENT
_this$ = -4						; size = 4
_pszValueName$ = 8					; size = 4
_pszValue$ = 12						; size = 4
?SetMultiStringValue@CRegKey@ATL@@QAEJPBD0@Z PROC	; ATL::CRegKey::SetMultiStringValue, COMDAT
; _this$ = ecx

; 5673 : {

  00000	51		 push	 ecx
  00001	55		 push	 ebp

; 5674 : 	LPCTSTR pszTemp;
; 5675 : 	ULONG nBytes;
; 5676 : 	ULONG nLength;
; 5677 : 
; 5678 : 	ATLASSUME(m_hKey != NULL);
; 5679 : 	ATLENSURE_RETURN_VAL(pszValue != NULL, ERROR_INVALID_DATA);

  00002	8b 6c 24 10	 mov	 ebp, DWORD PTR _pszValue$[esp+4]
  00006	89 4c 24 04	 mov	 DWORD PTR _this$[esp+8], ecx
  0000a	85 ed		 test	 ebp, ebp
  0000c	75 08		 jne	 SHORT $LN6@SetMultiSt
  0000e	8d 45 0d	 lea	 eax, DWORD PTR [ebp+13]
  00011	5d		 pop	 ebp

; 5695 : }

  00012	59		 pop	 ecx
  00013	c2 08 00	 ret	 8
$LN6@SetMultiSt:
  00016	53		 push	 ebx

; 5680 : 
; 5681 : 	// Find the total length (in bytes) of all of the strings, including the
; 5682 : 	// terminating '\0' of each string, and the second '\0' that terminates
; 5683 : 	// the list.
; 5684 : 	nBytes = 0;
; 5685 : 	pszTemp = pszValue;

  00017	8b 1d 00 00 00
	00		 mov	 ebx, DWORD PTR __imp__lstrlenA@4
  0001d	56		 push	 esi
  0001e	57		 push	 edi
  0001f	33 ff		 xor	 edi, edi
  00021	8b f5		 mov	 esi, ebp
$LL3@SetMultiSt:

; 5686 : 	do
; 5687 : 	{
; 5688 : 		nLength = lstrlen(pszTemp)+1;

  00023	56		 push	 esi
  00024	ff d3		 call	 ebx
  00026	40		 inc	 eax

; 5689 : 		pszTemp += nLength;

  00027	03 f0		 add	 esi, eax

; 5690 : 		nBytes += nLength*sizeof(TCHAR);

  00029	03 f8		 add	 edi, eax

; 5691 : 	} while (nLength != 1);

  0002b	83 f8 01	 cmp	 eax, 1
  0002e	75 f3		 jne	 SHORT $LL3@SetMultiSt

; 5692 : 
; 5693 : 	return ::RegSetValueEx(m_hKey, pszValueName, NULL, REG_MULTI_SZ, reinterpret_cast<const BYTE*>(pszValue),
; 5694 : 		nBytes);

  00030	8b 44 24 18	 mov	 eax, DWORD PTR _pszValueName$[esp+16]
  00034	8b 4c 24 10	 mov	 ecx, DWORD PTR _this$[esp+20]
  00038	8b 11		 mov	 edx, DWORD PTR [ecx]
  0003a	57		 push	 edi
  0003b	55		 push	 ebp
  0003c	6a 07		 push	 7
  0003e	6a 00		 push	 0
  00040	50		 push	 eax
  00041	52		 push	 edx
  00042	ff 15 00 00 00
	00		 call	 DWORD PTR __imp__RegSetValueExA@24
  00048	5f		 pop	 edi
  00049	5e		 pop	 esi
  0004a	5b		 pop	 ebx
  0004b	5d		 pop	 ebp

; 5695 : }

  0004c	59		 pop	 ecx
  0004d	c2 08 00	 ret	 8
?SetMultiStringValue@CRegKey@ATL@@QAEJPBD0@Z ENDP	; ATL::CRegKey::SetMultiStringValue
_TEXT	ENDS
PUBLIC	?IsEqualKey@CExpansionVectorEqualHelper@ATL@@SA_NQAD0@Z ; ATL::CExpansionVectorEqualHelper::IsEqualKey
EXTRN	__imp__lstrcmpiA@8:PROC
; Function compile flags: /Ogtpy
; File c:\program files (x86)\microsoft visual studio 9.0\vc\atlmfc\include\statreg.h
;	COMDAT ?IsEqualKey@CExpansionVectorEqualHelper@ATL@@SA_NQAD0@Z
_TEXT	SEGMENT
_k1$ = 8						; size = 4
_k2$ = 12						; size = 4
?IsEqualKey@CExpansionVectorEqualHelper@ATL@@SA_NQAD0@Z PROC ; ATL::CExpansionVectorEqualHelper::IsEqualKey, COMDAT

; 75   : 		if (lstrcmpi(k1, k2) == 0)

  00000	8b 44 24 08	 mov	 eax, DWORD PTR _k2$[esp-4]
  00004	8b 4c 24 04	 mov	 ecx, DWORD PTR _k1$[esp-4]
  00008	50		 push	 eax
  00009	51		 push	 ecx
  0000a	ff 15 00 00 00
	00		 call	 DWORD PTR __imp__lstrcmpiA@8
  00010	85 c0		 test	 eax, eax
  00012	0f 94 c0	 sete	 al

; 76   : 			return true;
; 77   : 		return false;
; 78   : 	}

  00015	c3		 ret	 0
?IsEqualKey@CExpansionVectorEqualHelper@ATL@@SA_NQAD0@Z ENDP ; ATL::CExpansionVectorEqualHelper::IsEqualKey
_TEXT	ENDS
PUBLIC	?GenerateError@CRegParser@ATL@@IAEJI@Z		; ATL::CRegParser::GenerateError
; Function compile flags: /Ogtpy
;	COMDAT ?GenerateError@CRegParser@ATL@@IAEJI@Z
_TEXT	SEGMENT
___formal$ = 8						; size = 4
?GenerateError@CRegParser@ATL@@IAEJI@Z PROC		; ATL::CRegParser::GenerateError, COMDAT
; _this$ = ecx

; 170  : 	HRESULT GenerateError(UINT) {return DISP_E_EXCEPTION;}

  00000	b8 09 00 02 80	 mov	 eax, -2147352567	; 80020009H
  00005	c2 04 00	 ret	 4
?GenerateError@CRegParser@ATL@@IAEJI@Z ENDP		; ATL::CRegParser::GenerateError
_TEXT	ENDS
PUBLIC	?EndOfVar@CRegParser@ATL@@IAEHXZ		; ATL::CRegParser::EndOfVar
EXTRN	__imp__CharNextA@4:PROC
; Function compile flags: /Ogtpy
;	COMDAT ?EndOfVar@CRegParser@ATL@@IAEHXZ
_TEXT	SEGMENT
?EndOfVar@CRegParser@ATL@@IAEHXZ PROC			; ATL::CRegParser::EndOfVar, COMDAT
; _this$ = ecx

; 174  : 	BOOL    EndOfVar() { return chQuote == *m_pchCur && chQuote != *CharNext(m_pchCur); }

  00000	8b 01		 mov	 eax, DWORD PTR [ecx]
  00002	80 38 27	 cmp	 BYTE PTR [eax], 39	; 00000027H
  00005	75 12		 jne	 SHORT $LN3@EndOfVar
  00007	50		 push	 eax
  00008	ff 15 00 00 00
	00		 call	 DWORD PTR __imp__CharNextA@4
  0000e	80 38 27	 cmp	 BYTE PTR [eax], 39	; 00000027H
  00011	74 06		 je	 SHORT $LN3@EndOfVar
  00013	b8 01 00 00 00	 mov	 eax, 1
  00018	c3		 ret	 0
$LN3@EndOfVar:
  00019	33 c0		 xor	 eax, eax
  0001b	c3		 ret	 0
?EndOfVar@CRegParser@ATL@@IAEHXZ ENDP			; ATL::CRegParser::EndOfVar
_TEXT	ENDS
PUBLIC	??0CParseBuffer@CRegParser@ATL@@QAE@H@Z		; ATL::CRegParser::CParseBuffer::CParseBuffer
; Function compile flags: /Ogtpy
;	COMDAT ??0CParseBuffer@CRegParser@ATL@@QAE@H@Z
_TEXT	SEGMENT
_nInitial$ = 8						; size = 4
??0CParseBuffer@CRegParser@ATL@@QAE@H@Z PROC		; ATL::CRegParser::CParseBuffer::CParseBuffer, COMDAT
; _this$ = ecx

; 191  : 		{
; 192  : 			if (nInitial < 100)

  00000	8b 44 24 04	 mov	 eax, DWORD PTR _nInitial$[esp-4]
  00004	83 f8 64	 cmp	 eax, 100		; 00000064H
  00007	56		 push	 esi
  00008	8b f1		 mov	 esi, ecx
  0000a	7d 05		 jge	 SHORT $LN2@CParseBuff

; 193  : 				nInitial = 1000;

  0000c	b8 e8 03 00 00	 mov	 eax, 1000		; 000003e8H
$LN2@CParseBuff:

; 194  : 			nPos = 0;
; 195  : 			nSize = nInitial;
; 196  : 			p = (LPTSTR) ::ATL::AtlCoTaskMemCAlloc(nSize,static_cast<ULONG>(sizeof(TCHAR)));

  00011	33 c9		 xor	 ecx, ecx
  00013	c7 06 00 00 00
	00		 mov	 DWORD PTR [esi], 0
  00019	89 46 04	 mov	 DWORD PTR [esi+4], eax
  0001c	77 05		 ja	 SHORT $LN12@CParseBuff
  0001e	83 f8 ff	 cmp	 eax, -1
  00021	76 04		 jbe	 SHORT $LN5@CParseBuff
$LN12@CParseBuff:
  00023	33 c0		 xor	 eax, eax
  00025	eb 07		 jmp	 SHORT $LN6@CParseBuff
$LN5@CParseBuff:
  00027	50		 push	 eax
  00028	ff 15 00 00 00
	00		 call	 DWORD PTR __imp__CoTaskMemAlloc@4
$LN6@CParseBuff:
  0002e	89 46 08	 mov	 DWORD PTR [esi+8], eax

; 197  : 			if (p != NULL)

  00031	85 c0		 test	 eax, eax
  00033	74 03		 je	 SHORT $LN13@CParseBuff

; 198  : 				*p = NULL;

  00035	c6 00 00	 mov	 BYTE PTR [eax], 0
$LN13@CParseBuff:

; 199  : 		}

  00038	8b c6		 mov	 eax, esi
  0003a	5e		 pop	 esi
  0003b	c2 04 00	 ret	 4
??0CParseBuffer@CRegParser@ATL@@QAE@H@Z ENDP		; ATL::CRegParser::CParseBuffer::CParseBuffer
_TEXT	ENDS
PUBLIC	??1CParseBuffer@CRegParser@ATL@@QAE@XZ		; ATL::CRegParser::CParseBuffer::~CParseBuffer
EXTRN	__imp__CoTaskMemFree@4:PROC
; Function compile flags: /Ogtpy
;	COMDAT ??1CParseBuffer@CRegParser@ATL@@QAE@XZ
_TEXT	SEGMENT
??1CParseBuffer@CRegParser@ATL@@QAE@XZ PROC		; ATL::CRegParser::CParseBuffer::~CParseBuffer, COMDAT
; _this$ = ecx

; 202  : 			CoTaskMemFree(p);

  00000	8b 41 08	 mov	 eax, DWORD PTR [ecx+8]
  00003	50		 push	 eax
  00004	ff 15 00 00 00
	00		 call	 DWORD PTR __imp__CoTaskMemFree@4

; 203  : 		}

  0000a	c3		 ret	 0
??1CParseBuffer@CRegParser@ATL@@QAE@XZ ENDP		; ATL::CRegParser::CParseBuffer::~CParseBuffer
_TEXT	ENDS
PUBLIC	?Append@CParseBuffer@CRegParser@ATL@@QAEHPBDH@Z	; ATL::CRegParser::CParseBuffer::Append
; Function compile flags: /Ogtpy
;	COMDAT ?Append@CParseBuffer@CRegParser@ATL@@QAEHPBDH@Z
_TEXT	SEGMENT
_pch$ = 8						; size = 4
_nChars$ = 12						; size = 4
?Append@CParseBuffer@CRegParser@ATL@@QAEHPBDH@Z PROC	; ATL::CRegParser::CParseBuffer::Append, COMDAT
; _this$ = ecx

; 205  : 		{

  00000	56		 push	 esi
  00001	8b f1		 mov	 esi, ecx

; 206  : 			ATLASSERT(p != NULL);
; 207  : 			int newSize = nPos + nChars + 1;

  00003	8b 06		 mov	 eax, DWORD PTR [esi]
  00005	57		 push	 edi
  00006	8b 7c 24 10	 mov	 edi, DWORD PTR _nChars$[esp+4]
  0000a	8d 4c 38 01	 lea	 ecx, DWORD PTR [eax+edi+1]

; 208  : 			if ((newSize <= nPos) || (newSize <= nChars))

  0000e	3b c8		 cmp	 ecx, eax
  00010	7e 7d		 jle	 SHORT $LN8@Append
  00012	3b cf		 cmp	 ecx, edi
  00014	7e 79		 jle	 SHORT $LN8@Append

; 210  : 
; 211  : 			if (newSize >= nSize)

  00016	3b 4e 04	 cmp	 ecx, DWORD PTR [esi+4]
  00019	7c 35		 jl	 SHORT $LN7@Append
  0001b	eb 03 8d 49 00	 npad	 5
$LL6@Append:

; 212  : 			{
; 213  : 				while (newSize >= nSize) {
; 214  : 					if (nSize > INT_MAX / 2)

  00020	8b 46 04	 mov	 eax, DWORD PTR [esi+4]
  00023	3d ff ff ff 3f	 cmp	 eax, 1073741823		; 3fffffffH
  00028	7f 65		 jg	 SHORT $LN8@Append

; 215  : 					return FALSE;
; 216  : 					nSize *= 2;

  0002a	03 c0		 add	 eax, eax
  0002c	3b c8		 cmp	 ecx, eax
  0002e	89 46 04	 mov	 DWORD PTR [esi+4], eax
  00031	7d ed		 jge	 SHORT $LL6@Append

; 217  : 				}
; 218  : 				LPTSTR pTemp = (LPTSTR)::ATL::AtlCoTaskMemRecalloc(p, nSize, sizeof(TCHAR));

  00033	33 c9		 xor	 ecx, ecx
  00035	8b 56 08	 mov	 edx, DWORD PTR [esi+8]
  00038	77 55		 ja	 SHORT $LN8@Append
  0003a	72 05		 jb	 SHORT $LN23@Append
  0003c	83 f8 ff	 cmp	 eax, -1
  0003f	77 4e		 ja	 SHORT $LN8@Append
$LN23@Append:
  00041	50		 push	 eax
  00042	52		 push	 edx
  00043	ff 15 00 00 00
	00		 call	 DWORD PTR __imp__CoTaskMemRealloc@8

; 219  : 				if (pTemp == NULL)

  00049	85 c0		 test	 eax, eax

; 220  : 					return FALSE;

  0004b	74 42		 je	 SHORT $LN8@Append

; 221  : 				p = pTemp;

  0004d	89 46 08	 mov	 DWORD PTR [esi+8], eax
$LN7@Append:

; 222  : 			}
; 223  : 			if ((nPos < 0) || (nPos >= nSize) || nSize - nPos > nSize)

  00050	8b 06		 mov	 eax, DWORD PTR [esi]
  00052	85 c0		 test	 eax, eax
  00054	7c 39		 jl	 SHORT $LN8@Append
  00056	8b 56 04	 mov	 edx, DWORD PTR [esi+4]
  00059	3b c2		 cmp	 eax, edx
  0005b	7d 32		 jge	 SHORT $LN8@Append
  0005d	8b ca		 mov	 ecx, edx
  0005f	2b c8		 sub	 ecx, eax
  00061	3b ca		 cmp	 ecx, edx
  00063	7f 2a		 jg	 SHORT $LN8@Append

; 224  : 				return FALSE;
; 225  : 
; 226  : #pragma warning(push)
; 227  : #pragma warning(disable: 22008)
; 228  : 			/* Prefast false warning is fired here despite the all above checks */
; 229  : 			Checked::memcpy_s(p + nPos, (nSize-nPos) * sizeof(TCHAR), pch, int(nChars * sizeof(TCHAR)));

  00065	8b 54 24 0c	 mov	 edx, DWORD PTR _pch$[esp+4]
  00069	57		 push	 edi
  0006a	52		 push	 edx
  0006b	51		 push	 ecx
  0006c	8b 4e 08	 mov	 ecx, DWORD PTR [esi+8]
  0006f	03 c8		 add	 ecx, eax
  00071	51		 push	 ecx
  00072	e8 00 00 00 00	 call	 ?memcpy_s@Checked@ATL@@YAXPAXIPBXI@Z ; ATL::Checked::memcpy_s

; 230  : 			nPos += nChars;
; 231  : 			*(p + nPos) = NULL;

  00077	8b 56 08	 mov	 edx, DWORD PTR [esi+8]
  0007a	83 c4 10	 add	 esp, 16			; 00000010H
  0007d	01 3e		 add	 DWORD PTR [esi], edi
  0007f	8b 06		 mov	 eax, DWORD PTR [esi]
  00081	5f		 pop	 edi
  00082	c6 04 10 00	 mov	 BYTE PTR [eax+edx], 0

; 232  : #pragma warning(pop)
; 233  : 			return TRUE;			

  00086	b8 01 00 00 00	 mov	 eax, 1
  0008b	5e		 pop	 esi

; 234  : 		}

  0008c	c2 08 00	 ret	 8
$LN8@Append:
  0008f	5f		 pop	 edi

; 209  : 				return FALSE;

  00090	33 c0		 xor	 eax, eax
  00092	5e		 pop	 esi

; 234  : 		}

  00093	c2 08 00	 ret	 8
?Append@CParseBuffer@CRegParser@ATL@@QAEHPBDH@Z ENDP	; ATL::CRegParser::CParseBuffer::Append
_TEXT	ENDS
PUBLIC	?AddChar@CParseBuffer@CRegParser@ATL@@QAEHPBD@Z	; ATL::CRegParser::CParseBuffer::AddChar
; Function compile flags: /Ogtpy
;	COMDAT ?AddChar@CParseBuffer@CRegParser@ATL@@QAEHPBD@Z
_TEXT	SEGMENT
_pch$ = 8						; size = 4
?AddChar@CParseBuffer@CRegParser@ATL@@QAEHPBD@Z PROC	; ATL::CRegParser::CParseBuffer::AddChar, COMDAT
; _this$ = ecx

; 237  : 		{

  00000	56		 push	 esi

; 238  : #ifndef _UNICODE		
; 239  : 			int nChars = int(CharNext(pch) - pch);

  00001	8b 74 24 08	 mov	 esi, DWORD PTR _pch$[esp]
  00005	57		 push	 edi
  00006	56		 push	 esi
  00007	8b f9		 mov	 edi, ecx
  00009	ff 15 00 00 00
	00		 call	 DWORD PTR __imp__CharNextA@4
  0000f	2b c6		 sub	 eax, esi

; 240  : #else
; 241  : 			int nChars = 1;
; 242  : #endif
; 243  : 			return Append(pch, nChars);

  00011	50		 push	 eax
  00012	56		 push	 esi
  00013	8b cf		 mov	 ecx, edi
  00015	e8 00 00 00 00	 call	 ?Append@CParseBuffer@CRegParser@ATL@@QAEHPBDH@Z ; ATL::CRegParser::CParseBuffer::Append
  0001a	5f		 pop	 edi
  0001b	5e		 pop	 esi

; 244  : 
; 245  : 		}

  0001c	c2 04 00	 ret	 4
?AddChar@CParseBuffer@CRegParser@ATL@@QAEHPBD@Z ENDP	; ATL::CRegParser::CParseBuffer::AddChar
_TEXT	ENDS
PUBLIC	?Detach@CParseBuffer@CRegParser@ATL@@QAEPADXZ	; ATL::CRegParser::CParseBuffer::Detach
; Function compile flags: /Ogtpy
;	COMDAT ?Detach@CParseBuffer@CRegParser@ATL@@QAEPADXZ
_TEXT	SEGMENT
?Detach@CParseBuffer@CRegParser@ATL@@QAEPADXZ PROC	; ATL::CRegParser::CParseBuffer::Detach, COMDAT
; _this$ = ecx

; 262  : 			LPTSTR lp = p;

  00000	8b 41 08	 mov	 eax, DWORD PTR [ecx+8]

; 263  : 			p = NULL;

  00003	33 d2		 xor	 edx, edx
  00005	89 51 08	 mov	 DWORD PTR [ecx+8], edx

; 264  : 			nSize = nPos = 0;

  00008	89 11		 mov	 DWORD PTR [ecx], edx
  0000a	89 51 04	 mov	 DWORD PTR [ecx+4], edx

; 265  : 			return lp;
; 266  : 		}

  0000d	c3		 ret	 0
?Detach@CParseBuffer@CRegParser@ATL@@QAEPADXZ ENDP	; ATL::CRegParser::CParseBuffer::Detach
_TEXT	ENDS
PUBLIC	?FinalConstruct@CRegObject@ATL@@QAEJXZ		; ATL::CRegObject::FinalConstruct
; Function compile flags: /Ogtpy
;	COMDAT ?FinalConstruct@CRegObject@ATL@@QAEJXZ
_TEXT	SEGMENT
?FinalConstruct@CRegObject@ATL@@QAEJXZ PROC		; ATL::CRegObject::FinalConstruct, COMDAT
; _this$ = ecx

; 301  : 	HRESULT FinalConstruct() { return m_csMap.Init(); }

  00000	56		 push	 esi
  00001	8d 71 10	 lea	 esi, DWORD PTR [ecx+16]
  00004	8b ce		 mov	 ecx, esi
  00006	e8 00 00 00 00	 call	 ?Init@CComCriticalSection@ATL@@QAEJXZ ; ATL::CComCriticalSection::Init
  0000b	85 c0		 test	 eax, eax
  0000d	7c 04		 jl	 SHORT $LN3@FinalConst
  0000f	c6 46 18 01	 mov	 BYTE PTR [esi+24], 1
$LN3@FinalConst:
  00013	5e		 pop	 esi
  00014	c3		 ret	 0
?FinalConstruct@CRegObject@ATL@@QAEJXZ ENDP		; ATL::CRegObject::FinalConstruct
_TEXT	ENDS
PUBLIC	?FinalRelease@CRegObject@ATL@@QAEXXZ		; ATL::CRegObject::FinalRelease
; Function compile flags: /Ogtpy
;	COMDAT ?FinalRelease@CRegObject@ATL@@QAEXXZ
_TEXT	SEGMENT
?FinalRelease@CRegObject@ATL@@QAEXXZ PROC		; ATL::CRegObject::FinalRelease, COMDAT
; _this$ = ecx

; 302  : 	void FinalRelease() {}

  00000	c3		 ret	 0
?FinalRelease@CRegObject@ATL@@QAEXXZ ENDP		; ATL::CRegObject::FinalRelease
_TEXT	ENDS
PUBLIC	??1CComAutoDeleteCriticalSection@ATL@@QAE@XZ	; ATL::CComAutoDeleteCriticalSection::~CComAutoDeleteCriticalSection
; Function compile flags: /Ogtpy
;	COMDAT ??1CComAutoDeleteCriticalSection@ATL@@QAE@XZ
_TEXT	SEGMENT
??1CComAutoDeleteCriticalSection@ATL@@QAE@XZ PROC	; ATL::CComAutoDeleteCriticalSection::~CComAutoDeleteCriticalSection, COMDAT
; _this$ = ecx
  00000	80 79 18 00	 cmp	 BYTE PTR [ecx+24], 0
  00004	74 0b		 je	 SHORT $LN6@CComAutoDe
  00006	51		 push	 ecx
  00007	c6 41 18 00	 mov	 BYTE PTR [ecx+24], 0
  0000b	ff 15 00 00 00
	00		 call	 DWORD PTR __imp__DeleteCriticalSection@4
$LN6@CComAutoDe:
  00011	c3		 ret	 0
??1CComAutoDeleteCriticalSection@ATL@@QAE@XZ ENDP	; ATL::CComAutoDeleteCriticalSection::~CComAutoDeleteCriticalSection
_TEXT	ENDS
PUBLIC	?map@?1??VTFromRegType@CRegParser@ATL@@KAHPBDAAG@Z@4QBUtypemap@?1??123@KAH01@Z@B ; `ATL::CRegParser::VTFromRegType'::`2'::map
PUBLIC	??_B?1??VTFromRegType@CRegParser@ATL@@KAHPBDAAG@Z@51 ; `ATL::CRegParser::VTFromRegType'::`2'::`local static guard'
PUBLIC	?VTFromRegType@CRegParser@ATL@@KAHPBDAAG@Z	; ATL::CRegParser::VTFromRegType
;	COMDAT ?map@?1??VTFromRegType@CRegParser@ATL@@KAHPBDAAG@Z@4QBUtypemap@?1??123@KAH01@Z@B
_BSS	SEGMENT
?map@?1??VTFromRegType@CRegParser@ATL@@KAHPBDAAG@Z@4QBUtypemap@?1??123@KAH01@Z@B DQ 04H DUP (?) ; `ATL::CRegParser::VTFromRegType'::`2'::map
_BSS	ENDS
;	COMDAT ??_B?1??VTFromRegType@CRegParser@ATL@@KAHPBDAAG@Z@51
_BSS	SEGMENT
??_B?1??VTFromRegType@CRegParser@ATL@@KAHPBDAAG@Z@51 DD 01H DUP (?) ; `ATL::CRegParser::VTFromRegType'::`2'::`local static guard'
; Function compile flags: /Ogtpy
_BSS	ENDS
;	COMDAT ?VTFromRegType@CRegParser@ATL@@KAHPBDAAG@Z
_TEXT	SEGMENT
_szValueType$ = 8					; size = 4
_vt$ = 12						; size = 4
?VTFromRegType@CRegParser@ATL@@KAHPBDAAG@Z PROC		; ATL::CRegParser::VTFromRegType, COMDAT

; 652  : 	struct typemap
; 653  : 	{
; 654  : 		LPCTSTR lpsz;
; 655  : 		VARTYPE vt;
; 656  : 	};
; 657  : #pragma warning (push)
; 658  : #pragma warning (disable : 4640)	// construction of local static object is not thread-safe
; 659  : 
; 660  : 	static const typemap map[] = {
; 661  : 		{szStringVal, VT_BSTR},

  00000	f6 05 00 00 00
	00 01		 test	 BYTE PTR ??_B?1??VTFromRegType@CRegParser@ATL@@KAHPBDAAG@Z@51, 1
  00007	75 5d		 jne	 SHORT $LN12@VTFromRegT
  00009	83 0d 00 00 00
	00 01		 or	 DWORD PTR ??_B?1??VTFromRegType@CRegParser@ATL@@KAHPBDAAG@Z@51, 1
  00010	b8 08 00 00 00	 mov	 eax, 8
  00015	66 a3 04 00 00
	00		 mov	 WORD PTR ?map@?1??VTFromRegType@CRegParser@ATL@@KAHPBDAAG@Z@4QBUtypemap@?1??123@KAH01@Z@B+4, ax

; 662  : 		{multiszStringVal, VT_BSTR | VT_BYREF},

  0001b	b9 08 40 00 00	 mov	 ecx, 16392		; 00004008H

; 663  : 		{szDwordVal,  VT_UI4},

  00020	ba 13 00 00 00	 mov	 edx, 19			; 00000013H

; 664  : 		{szBinaryVal, VT_UI1}

  00025	b8 11 00 00 00	 mov	 eax, 17			; 00000011H
  0002a	c7 05 00 00 00
	00 00 00 00 00	 mov	 DWORD PTR ?map@?1??VTFromRegType@CRegParser@ATL@@KAHPBDAAG@Z@4QBUtypemap@?1??123@KAH01@Z@B, OFFSET ??_C@_01CPLAODJH@S?$AA@
  00034	c7 05 08 00 00
	00 00 00 00 00	 mov	 DWORD PTR ?map@?1??VTFromRegType@CRegParser@ATL@@KAHPBDAAG@Z@4QBUtypemap@?1??123@KAH01@Z@B+8, OFFSET ??_C@_01PLPBNMEI@M?$AA@
  0003e	66 89 0d 0c 00
	00 00		 mov	 WORD PTR ?map@?1??VTFromRegType@CRegParser@ATL@@KAHPBDAAG@Z@4QBUtypemap@?1??123@KAH01@Z@B+12, cx
  00045	c7 05 10 00 00
	00 00 00 00 00	 mov	 DWORD PTR ?map@?1??VTFromRegType@CRegParser@ATL@@KAHPBDAAG@Z@4QBUtypemap@?1??123@KAH01@Z@B+16, OFFSET ??_C@_01CKDDGHAB@D?$AA@
  0004f	66 89 15 14 00
	00 00		 mov	 WORD PTR ?map@?1??VTFromRegType@CRegParser@ATL@@KAHPBDAAG@Z@4QBUtypemap@?1??123@KAH01@Z@B+20, dx
  00056	c7 05 18 00 00
	00 00 00 00 00	 mov	 DWORD PTR ?map@?1??VTFromRegType@CRegParser@ATL@@KAHPBDAAG@Z@4QBUtypemap@?1??123@KAH01@Z@B+24, OFFSET ??_C@_01HMGJMAIH@B?$AA@
  00060	66 a3 1c 00 00
	00		 mov	 WORD PTR ?map@?1??VTFromRegType@CRegParser@ATL@@KAHPBDAAG@Z@4QBUtypemap@?1??123@KAH01@Z@B+28, ax
$LN12@VTFromRegT:
  00066	53		 push	 ebx

; 665  : 	};
; 666  : 
; 667  : #pragma warning (pop)
; 668  : 
; 669  : 	for (int i=0;i<sizeof(map)/sizeof(typemap);i++)

  00067	8b 1d 00 00 00
	00		 mov	 ebx, DWORD PTR __imp__lstrcmpiA@8
  0006d	56		 push	 esi
  0006e	57		 push	 edi
  0006f	8b 7c 24 10	 mov	 edi, DWORD PTR _szValueType$[esp+8]
  00073	33 f6		 xor	 esi, esi
$LL4@VTFromRegT:

; 670  : 	{
; 671  : 		if (!lstrcmpi(szValueType, map[i].lpsz))

  00075	8b 0c f5 00 00
	00 00		 mov	 ecx, DWORD PTR ?map@?1??VTFromRegType@CRegParser@ATL@@KAHPBDAAG@Z@4QBUtypemap@?1??123@KAH01@Z@B[esi*8]
  0007c	51		 push	 ecx
  0007d	57		 push	 edi
  0007e	ff d3		 call	 ebx
  00080	85 c0		 test	 eax, eax
  00082	74 0c		 je	 SHORT $LN10@VTFromRegT
  00084	46		 inc	 esi
  00085	83 fe 04	 cmp	 esi, 4
  00088	72 eb		 jb	 SHORT $LL4@VTFromRegT
  0008a	5f		 pop	 edi
  0008b	5e		 pop	 esi

; 675  : 		}
; 676  : 	}
; 677  : 
; 678  : 	return FALSE;

  0008c	33 c0		 xor	 eax, eax
  0008e	5b		 pop	 ebx

; 679  : 
; 680  : }

  0008f	c3		 ret	 0
$LN10@VTFromRegT:

; 672  : 		{
; 673  : 			vt = map[i].vt;

  00090	66 8b 14 f5 04
	00 00 00	 mov	 dx, WORD PTR ?map@?1??VTFromRegType@CRegParser@ATL@@KAHPBDAAG@Z@4QBUtypemap@?1??123@KAH01@Z@B[esi*8+4]
  00098	8b 44 24 14	 mov	 eax, DWORD PTR _vt$[esp+8]
  0009c	5f		 pop	 edi
  0009d	5e		 pop	 esi
  0009e	66 89 10	 mov	 WORD PTR [eax], dx

; 674  : 			return TRUE;

  000a1	b8 01 00 00 00	 mov	 eax, 1
  000a6	5b		 pop	 ebx

; 679  : 
; 680  : }

  000a7	c3		 ret	 0
?VTFromRegType@CRegParser@ATL@@KAHPBDAAG@Z ENDP		; ATL::CRegParser::VTFromRegType
_TEXT	ENDS
PUBLIC	?ChToByte@CRegParser@ATL@@KAED@Z		; ATL::CRegParser::ChToByte
; Function compile flags: /Ogtpy
;	COMDAT ?ChToByte@CRegParser@ATL@@KAED@Z
_TEXT	SEGMENT
_ch$ = 8						; size = 1
?ChToByte@CRegParser@ATL@@KAED@Z PROC			; ATL::CRegParser::ChToByte, COMDAT

; 684  : 	switch (ch)

  00000	0f be 4c 24 04	 movsx	 ecx, BYTE PTR _ch$[esp-4]
  00005	8d 41 d0	 lea	 eax, DWORD PTR [ecx-48]
  00008	83 f8 36	 cmp	 eax, 54			; 00000036H
  0000b	77 16		 ja	 SHORT $LN1@ChToByte
  0000d	0f b6 90 00 00
	00 00		 movzx	 edx, BYTE PTR $LN9@ChToByte[eax]
  00014	ff 24 95 00 00
	00 00		 jmp	 DWORD PTR $LN10@ChToByte[edx*4]
$LN3@ChToByte:

; 685  : 	{
; 686  : 		case '0':
; 687  : 		case '1':
; 688  : 		case '2':
; 689  : 		case '3':
; 690  : 		case '4':
; 691  : 		case '5':
; 692  : 		case '6':
; 693  : 		case '7':
; 694  : 		case '8':
; 695  : 		case '9':
; 696  : 				return (BYTE) (ch - '0');
; 697  : 		case 'A':
; 698  : 		case 'B':
; 699  : 		case 'C':
; 700  : 		case 'D':
; 701  : 		case 'E':
; 702  : 		case 'F':
; 703  : 				return (BYTE) (10 + (ch - 'A'));

  0001b	8d 41 c9	 lea	 eax, DWORD PTR [ecx-55]

; 715  : 	}
; 716  : }

  0001e	c3		 ret	 0
$LN2@ChToByte:

; 704  : 		case 'a':
; 705  : 		case 'b':
; 706  : 		case 'c':
; 707  : 		case 'd':
; 708  : 		case 'e':
; 709  : 		case 'f':
; 710  : 				return (BYTE) (10 + (ch - 'a'));

  0001f	8d 41 a9	 lea	 eax, DWORD PTR [ecx-87]

; 715  : 	}
; 716  : }

  00022	c3		 ret	 0
$LN1@ChToByte:

; 711  : 		default:
; 712  : 				ATLASSERT(FALSE);
; 713  : 				ATLTRACE(atlTraceRegistrar, 0, _T("Bogus value %c passed as binary Hex value\n"), ch);
; 714  : 				return 0;

  00023	32 c0		 xor	 al, al
$LN5@ChToByte:

; 715  : 	}
; 716  : }

  00025	c3		 ret	 0
  00026	8b ff		 npad	 2
$LN10@ChToByte:
  00028	00 00 00 00	 DD	 $LN5@ChToByte
  0002c	00 00 00 00	 DD	 $LN3@ChToByte
  00030	00 00 00 00	 DD	 $LN2@ChToByte
  00034	00 00 00 00	 DD	 $LN1@ChToByte
$LN9@ChToByte:
  00038	00		 DB	 0
  00039	00		 DB	 0
  0003a	00		 DB	 0
  0003b	00		 DB	 0
  0003c	00		 DB	 0
  0003d	00		 DB	 0
  0003e	00		 DB	 0
  0003f	00		 DB	 0
  00040	00		 DB	 0
  00041	00		 DB	 0
  00042	03		 DB	 3
  00043	03		 DB	 3
  00044	03		 DB	 3
  00045	03		 DB	 3
  00046	03		 DB	 3
  00047	03		 DB	 3
  00048	03		 DB	 3
  00049	01		 DB	 1
  0004a	01		 DB	 1
  0004b	01		 DB	 1
  0004c	01		 DB	 1
  0004d	01		 DB	 1
  0004e	01		 DB	 1
  0004f	03		 DB	 3
  00050	03		 DB	 3
  00051	03		 DB	 3
  00052	03		 DB	 3
  00053	03		 DB	 3
  00054	03		 DB	 3
  00055	03		 DB	 3
  00056	03		 DB	 3
  00057	03		 DB	 3
  00058	03		 DB	 3
  00059	03		 DB	 3
  0005a	03		 DB	 3
  0005b	03		 DB	 3
  0005c	03		 DB	 3
  0005d	03		 DB	 3
  0005e	03		 DB	 3
  0005f	03		 DB	 3
  00060	03		 DB	 3
  00061	03		 DB	 3
  00062	03		 DB	 3
  00063	03		 DB	 3
  00064	03		 DB	 3
  00065	03		 DB	 3
  00066	03		 DB	 3
  00067	03		 DB	 3
  00068	03		 DB	 3
  00069	02		 DB	 2
  0006a	02		 DB	 2
  0006b	02		 DB	 2
  0006c	02		 DB	 2
  0006d	02		 DB	 2
  0006e	02		 DB	 2
?ChToByte@CRegParser@ATL@@KAED@Z ENDP			; ATL::CRegParser::ChToByte
_TEXT	ENDS
PUBLIC	?map@?1??HKeyFromString@CRegParser@ATL@@KAPAUHKEY__@@PAD@Z@4QBUkeymap@?1??123@KAPAU4@0@Z@B ; `ATL::CRegParser::HKeyFromString'::`2'::map
PUBLIC	?HKeyFromString@CRegParser@ATL@@KAPAUHKEY__@@PAD@Z ; ATL::CRegParser::HKeyFromString
PUBLIC	??_C@_04OHBKMIBJ@HKCR?$AA@			; `string'
PUBLIC	??_C@_04KIFLFONO@HKCU?$AA@			; `string'
PUBLIC	??_C@_04CBBMIBLK@HKLM?$AA@			; `string'
PUBLIC	??_C@_03DLBIJLAB@HKU?$AA@			; `string'
PUBLIC	??_C@_04OFOCGAOH@HKPD?$AA@			; `string'
PUBLIC	??_C@_04POMNGLEL@HKDD?$AA@			; `string'
PUBLIC	??_C@_04LEMDOLAJ@HKCC?$AA@			; `string'
PUBLIC	??_C@_0BC@JBJOLKMF@HKEY_CLASSES_ROOT?$AA@	; `string'
PUBLIC	??_C@_0BC@GMMMKLBI@HKEY_CURRENT_USER?$AA@	; `string'
PUBLIC	??_C@_0BD@GIIFIKDM@HKEY_LOCAL_MACHINE?$AA@	; `string'
PUBLIC	??_C@_0L@OEMMANAM@HKEY_USERS?$AA@		; `string'
PUBLIC	??_C@_0BG@IDBEHNDO@HKEY_PERFORMANCE_DATA?$AA@	; `string'
PUBLIC	??_C@_0O@MJDLIIGK@HKEY_DYN_DATA?$AA@		; `string'
PUBLIC	??_C@_0BE@NLNNHLLF@HKEY_CURRENT_CONFIG?$AA@	; `string'
;	COMDAT ??_C@_0BE@NLNNHLLF@HKEY_CURRENT_CONFIG?$AA@
CONST	SEGMENT
??_C@_0BE@NLNNHLLF@HKEY_CURRENT_CONFIG?$AA@ DB 'HKEY_CURRENT_CONFIG', 00H ; `string'
CONST	ENDS
;	COMDAT ??_C@_0O@MJDLIIGK@HKEY_DYN_DATA?$AA@
CONST	SEGMENT
??_C@_0O@MJDLIIGK@HKEY_DYN_DATA?$AA@ DB 'HKEY_DYN_DATA', 00H ; `string'
CONST	ENDS
;	COMDAT ??_C@_0BG@IDBEHNDO@HKEY_PERFORMANCE_DATA?$AA@
CONST	SEGMENT
??_C@_0BG@IDBEHNDO@HKEY_PERFORMANCE_DATA?$AA@ DB 'HKEY_PERFORMANCE_DATA', 00H ; `string'
CONST	ENDS
;	COMDAT ??_C@_0L@OEMMANAM@HKEY_USERS?$AA@
CONST	SEGMENT
??_C@_0L@OEMMANAM@HKEY_USERS?$AA@ DB 'HKEY_USERS', 00H	; `string'
CONST	ENDS
;	COMDAT ??_C@_0BD@GIIFIKDM@HKEY_LOCAL_MACHINE?$AA@
CONST	SEGMENT
??_C@_0BD@GIIFIKDM@HKEY_LOCAL_MACHINE?$AA@ DB 'HKEY_LOCAL_MACHINE', 00H ; `string'
CONST	ENDS
;	COMDAT ??_C@_0BC@GMMMKLBI@HKEY_CURRENT_USER?$AA@
CONST	SEGMENT
??_C@_0BC@GMMMKLBI@HKEY_CURRENT_USER?$AA@ DB 'HKEY_CURRENT_USER', 00H ; `string'
CONST	ENDS
;	COMDAT ??_C@_0BC@JBJOLKMF@HKEY_CLASSES_ROOT?$AA@
CONST	SEGMENT
??_C@_0BC@JBJOLKMF@HKEY_CLASSES_ROOT?$AA@ DB 'HKEY_CLASSES_ROOT', 00H ; `string'
CONST	ENDS
;	COMDAT ??_C@_04LEMDOLAJ@HKCC?$AA@
CONST	SEGMENT
??_C@_04LEMDOLAJ@HKCC?$AA@ DB 'HKCC', 00H		; `string'
CONST	ENDS
;	COMDAT ??_C@_04POMNGLEL@HKDD?$AA@
CONST	SEGMENT
??_C@_04POMNGLEL@HKDD?$AA@ DB 'HKDD', 00H		; `string'
CONST	ENDS
;	COMDAT ??_C@_04OFOCGAOH@HKPD?$AA@
CONST	SEGMENT
??_C@_04OFOCGAOH@HKPD?$AA@ DB 'HKPD', 00H		; `string'
CONST	ENDS
;	COMDAT ??_C@_03DLBIJLAB@HKU?$AA@
CONST	SEGMENT
??_C@_03DLBIJLAB@HKU?$AA@ DB 'HKU', 00H			; `string'
CONST	ENDS
;	COMDAT ??_C@_04CBBMIBLK@HKLM?$AA@
CONST	SEGMENT
??_C@_04CBBMIBLK@HKLM?$AA@ DB 'HKLM', 00H		; `string'
CONST	ENDS
;	COMDAT ??_C@_04KIFLFONO@HKCU?$AA@
CONST	SEGMENT
??_C@_04KIFLFONO@HKCU?$AA@ DB 'HKCU', 00H		; `string'
CONST	ENDS
;	COMDAT ??_C@_04OHBKMIBJ@HKCR?$AA@
CONST	SEGMENT
??_C@_04OHBKMIBJ@HKCR?$AA@ DB 'HKCR', 00H		; `string'
CONST	ENDS
;	COMDAT ?map@?1??HKeyFromString@CRegParser@ATL@@KAPAUHKEY__@@PAD@Z@4QBUkeymap@?1??123@KAPAU4@0@Z@B
CONST	SEGMENT
?map@?1??HKeyFromString@CRegParser@ATL@@KAPAUHKEY__@@PAD@Z@4QBUkeymap@?1??123@KAPAU4@0@Z@B DD FLAT:??_C@_04OHBKMIBJ@HKCR?$AA@ ; `ATL::CRegParser::HKeyFromString'::`2'::map
	DD	080000000H
	DD	FLAT:??_C@_04KIFLFONO@HKCU?$AA@
	DD	080000001H
	DD	FLAT:??_C@_04CBBMIBLK@HKLM?$AA@
	DD	080000002H
	DD	FLAT:??_C@_03DLBIJLAB@HKU?$AA@
	DD	080000003H
	DD	FLAT:??_C@_04OFOCGAOH@HKPD?$AA@
	DD	080000004H
	DD	FLAT:??_C@_04POMNGLEL@HKDD?$AA@
	DD	080000006H
	DD	FLAT:??_C@_04LEMDOLAJ@HKCC?$AA@
	DD	080000005H
	DD	FLAT:??_C@_0BC@JBJOLKMF@HKEY_CLASSES_ROOT?$AA@
	DD	080000000H
	DD	FLAT:??_C@_0BC@GMMMKLBI@HKEY_CURRENT_USER?$AA@
	DD	080000001H
	DD	FLAT:??_C@_0BD@GIIFIKDM@HKEY_LOCAL_MACHINE?$AA@
	DD	080000002H
	DD	FLAT:??_C@_0L@OEMMANAM@HKEY_USERS?$AA@
	DD	080000003H
	DD	FLAT:??_C@_0BG@IDBEHNDO@HKEY_PERFORMANCE_DATA?$AA@
	DD	080000004H
	DD	FLAT:??_C@_0O@MJDLIIGK@HKEY_DYN_DATA?$AA@
	DD	080000006H
	DD	FLAT:??_C@_0BE@NLNNHLLF@HKEY_CURRENT_CONFIG?$AA@
	DD	080000005H
; Function compile flags: /Ogtpy
CONST	ENDS
;	COMDAT ?HKeyFromString@CRegParser@ATL@@KAPAUHKEY__@@PAD@Z
_TEXT	SEGMENT
_szToken$ = 8						; size = 4
?HKeyFromString@CRegParser@ATL@@KAPAUHKEY__@@PAD@Z PROC	; ATL::CRegParser::HKeyFromString, COMDAT

; 719  : {

  00000	53		 push	 ebx

; 720  : 	struct keymap
; 721  : 	{
; 722  : 		LPCTSTR lpsz;
; 723  : 		HKEY hkey;
; 724  : 	};
; 725  : 	static const keymap map[] = {
; 726  : 		{_T("HKCR"), HKEY_CLASSES_ROOT},
; 727  : 		{_T("HKCU"), HKEY_CURRENT_USER},
; 728  : 		{_T("HKLM"), HKEY_LOCAL_MACHINE},
; 729  : 		{_T("HKU"),  HKEY_USERS},
; 730  : 		{_T("HKPD"), HKEY_PERFORMANCE_DATA},
; 731  : 		{_T("HKDD"), HKEY_DYN_DATA},
; 732  : 		{_T("HKCC"), HKEY_CURRENT_CONFIG},
; 733  : 		{_T("HKEY_CLASSES_ROOT"), HKEY_CLASSES_ROOT},
; 734  : 		{_T("HKEY_CURRENT_USER"), HKEY_CURRENT_USER},
; 735  : 		{_T("HKEY_LOCAL_MACHINE"), HKEY_LOCAL_MACHINE},
; 736  : 		{_T("HKEY_USERS"), HKEY_USERS},
; 737  : 		{_T("HKEY_PERFORMANCE_DATA"), HKEY_PERFORMANCE_DATA},
; 738  : 		{_T("HKEY_DYN_DATA"), HKEY_DYN_DATA},
; 739  : 		{_T("HKEY_CURRENT_CONFIG"), HKEY_CURRENT_CONFIG}
; 740  : 	};
; 741  : 
; 742  : 	for (int i=0;i<sizeof(map)/sizeof(keymap);i++)

  00001	8b 1d 00 00 00
	00		 mov	 ebx, DWORD PTR __imp__lstrcmpiA@8
  00007	56		 push	 esi
  00008	57		 push	 edi
  00009	8b 7c 24 10	 mov	 edi, DWORD PTR _szToken$[esp+8]
  0000d	33 f6		 xor	 esi, esi
  0000f	90		 npad	 1
$LL4@HKeyFromSt:

; 743  : 	{
; 744  : 		if (!lstrcmpi(szToken, map[i].lpsz))

  00010	8b 04 f5 00 00
	00 00		 mov	 eax, DWORD PTR ?map@?1??HKeyFromString@CRegParser@ATL@@KAPAUHKEY__@@PAD@Z@4QBUkeymap@?1??123@KAPAU4@0@Z@B[esi*8]
  00017	50		 push	 eax
  00018	57		 push	 edi
  00019	ff d3		 call	 ebx
  0001b	85 c0		 test	 eax, eax
  0001d	74 0c		 je	 SHORT $LN8@HKeyFromSt
  0001f	46		 inc	 esi
  00020	83 fe 0e	 cmp	 esi, 14			; 0000000eH
  00023	72 eb		 jb	 SHORT $LL4@HKeyFromSt
  00025	5f		 pop	 edi
  00026	5e		 pop	 esi

; 746  : 	}
; 747  : 	return NULL;

  00027	33 c0		 xor	 eax, eax
  00029	5b		 pop	 ebx

; 748  : }

  0002a	c3		 ret	 0
$LN8@HKeyFromSt:

; 745  : 			return map[i].hkey;

  0002b	8b 04 f5 04 00
	00 00		 mov	 eax, DWORD PTR ?map@?1??HKeyFromString@CRegParser@ATL@@KAPAUHKEY__@@PAD@Z@4QBUkeymap@?1??123@KAPAU4@0@Z@B[esi*8+4]
  00032	5f		 pop	 edi
  00033	5e		 pop	 esi
  00034	5b		 pop	 ebx

; 748  : }

  00035	c3		 ret	 0
?HKeyFromString@CRegParser@ATL@@KAPAUHKEY__@@PAD@Z ENDP	; ATL::CRegParser::HKeyFromString
_TEXT	ENDS
PUBLIC	?StrChrA@CRegParser@ATL@@KAPADPADD@Z		; ATL::CRegParser::StrChrA
; Function compile flags: /Ogtpy
;	COMDAT ?StrChrA@CRegParser@ATL@@KAPADPADD@Z
_TEXT	SEGMENT
_lpsz$ = 8						; size = 4
_ch$ = 12						; size = 1
?StrChrA@CRegParser@ATL@@KAPADPADD@Z PROC		; ATL::CRegParser::StrChrA, COMDAT

; 752  : 	LPTSTR p = NULL;
; 753  : 
; 754  : 	if (lpsz == NULL)

  00000	8b 44 24 04	 mov	 eax, DWORD PTR _lpsz$[esp-4]
  00004	57		 push	 edi
  00005	33 ff		 xor	 edi, edi
  00007	85 c0		 test	 eax, eax
  00009	75 02		 jne	 SHORT $LN7@StrChrA
  0000b	5f		 pop	 edi

; 767  : }

  0000c	c3		 ret	 0
$LN7@StrChrA:

; 755  : 		return NULL;
; 756  : 	
; 757  : 	while (*lpsz)

  0000d	8a 08		 mov	 cl, BYTE PTR [eax]
  0000f	84 c9		 test	 cl, cl
  00011	74 24		 je	 SHORT $LN2@StrChrA
  00013	53		 push	 ebx
  00014	8a 5c 24 10	 mov	 bl, BYTE PTR _ch$[esp+4]
  00018	56		 push	 esi
  00019	8b 35 00 00 00
	00		 mov	 esi, DWORD PTR __imp__CharNextA@4
  0001f	90		 npad	 1
$LL3@StrChrA:

; 758  : 	{
; 759  : 		if (*lpsz == ch)

  00020	3a cb		 cmp	 cl, bl
  00022	74 0f		 je	 SHORT $LN8@StrChrA

; 762  : 			break;
; 763  : 		}
; 764  : 		lpsz = CharNext(lpsz);

  00024	50		 push	 eax
  00025	ff d6		 call	 esi
  00027	8a 08		 mov	 cl, BYTE PTR [eax]
  00029	84 c9		 test	 cl, cl
  0002b	75 f3		 jne	 SHORT $LL3@StrChrA
  0002d	5e		 pop	 esi
  0002e	5b		 pop	 ebx

; 765  : 	}
; 766  : 	return p;

  0002f	8b c7		 mov	 eax, edi
  00031	5f		 pop	 edi

; 767  : }

  00032	c3		 ret	 0
$LN8@StrChrA:
  00033	5e		 pop	 esi

; 760  : 		{
; 761  : 			p = lpsz;

  00034	8b f8		 mov	 edi, eax
  00036	5b		 pop	 ebx
$LN2@StrChrA:

; 765  : 	}
; 766  : 	return p;

  00037	8b c7		 mov	 eax, edi
  00039	5f		 pop	 edi

; 767  : }

  0003a	c3		 ret	 0
?StrChrA@CRegParser@ATL@@KAPADPADD@Z ENDP		; ATL::CRegParser::StrChrA
_TEXT	ENDS
PUBLIC	??0CRegParser@ATL@@QAE@PAVCRegObject@1@@Z	; ATL::CRegParser::CRegParser
; Function compile flags: /Ogtpy
;	COMDAT ??0CRegParser@ATL@@QAE@PAVCRegObject@1@@Z
_TEXT	SEGMENT
_pRegObj$ = 8						; size = 4
??0CRegParser@ATL@@QAE@PAVCRegObject@1@@Z PROC		; ATL::CRegParser::CRegParser, COMDAT
; _this$ = ecx

; 770  : {

  00000	8b c1		 mov	 eax, ecx

; 771  : 	m_pRegObj           = pRegObj;

  00002	8b 4c 24 04	 mov	 ecx, DWORD PTR _pRegObj$[esp-4]
  00006	89 48 04	 mov	 DWORD PTR [eax+4], ecx

; 772  : 	m_pchCur            = NULL;

  00009	c7 00 00 00 00
	00		 mov	 DWORD PTR [eax], 0

; 773  : }

  0000f	c2 04 00	 ret	 4
??0CRegParser@ATL@@QAE@PAVCRegObject@1@@Z ENDP		; ATL::CRegParser::CRegParser
_TEXT	ENDS
PUBLIC	?IsSpace@CRegParser@ATL@@IAEHD@Z		; ATL::CRegParser::IsSpace
; Function compile flags: /Ogtpy
;	COMDAT ?IsSpace@CRegParser@ATL@@IAEHD@Z
_TEXT	SEGMENT
_ch$ = 8						; size = 1
?IsSpace@CRegParser@ATL@@IAEHD@Z PROC			; ATL::CRegParser::IsSpace, COMDAT
; _this$ = ecx

; 777  : 	switch (ch)

  00000	0f be 44 24 04	 movsx	 eax, BYTE PTR _ch$[esp-4]
  00005	83 c0 f7	 add	 eax, -9			; fffffff7H
  00008	83 f8 17	 cmp	 eax, 23			; 00000017H
  0000b	77 16		 ja	 SHORT $LN2@IsSpace
  0000d	0f b6 80 00 00
	00 00		 movzx	 eax, BYTE PTR $LN6@IsSpace[eax]
  00014	ff 24 85 00 00
	00 00		 jmp	 DWORD PTR $LN7@IsSpace[eax*4]
$LN1@IsSpace:

; 778  : 	{
; 779  : 		case _T(' '):
; 780  : 		case _T('\t'):
; 781  : 		case _T('\r'):
; 782  : 		case _T('\n'):
; 783  : 				return TRUE;

  0001b	b8 01 00 00 00	 mov	 eax, 1

; 787  : }

  00020	c2 04 00	 ret	 4
$LN2@IsSpace:

; 784  : 	}
; 785  : 
; 786  : 	return FALSE;

  00023	33 c0		 xor	 eax, eax

; 787  : }

  00025	c2 04 00	 ret	 4
$LN7@IsSpace:
  00028	00 00 00 00	 DD	 $LN1@IsSpace
  0002c	00 00 00 00	 DD	 $LN2@IsSpace
$LN6@IsSpace:
  00030	00		 DB	 0
  00031	00		 DB	 0
  00032	01		 DB	 1
  00033	01		 DB	 1
  00034	00		 DB	 0
  00035	01		 DB	 1
  00036	01		 DB	 1
  00037	01		 DB	 1
  00038	01		 DB	 1
  00039	01		 DB	 1
  0003a	01		 DB	 1
  0003b	01		 DB	 1
  0003c	01		 DB	 1
  0003d	01		 DB	 1
  0003e	01		 DB	 1
  0003f	01		 DB	 1
  00040	01		 DB	 1
  00041	01		 DB	 1
  00042	01		 DB	 1
  00043	01		 DB	 1
  00044	01		 DB	 1
  00045	01		 DB	 1
  00046	01		 DB	 1
  00047	00		 DB	 0
?IsSpace@CRegParser@ATL@@IAEHD@Z ENDP			; ATL::CRegParser::IsSpace
_TEXT	ENDS
PUBLIC	?SkipWhiteSpace@CRegParser@ATL@@IAEXXZ		; ATL::CRegParser::SkipWhiteSpace
; Function compile flags: /Ogtpy
;	COMDAT ?SkipWhiteSpace@CRegParser@ATL@@IAEXXZ
_TEXT	SEGMENT
?SkipWhiteSpace@CRegParser@ATL@@IAEXXZ PROC		; ATL::CRegParser::SkipWhiteSpace, COMDAT
; _this$ = ecx

; 790  : {

  00000	56		 push	 esi
  00001	57		 push	 edi
  00002	8b 3d 00 00 00
	00		 mov	 edi, DWORD PTR __imp__CharNextA@4
  00008	8b f1		 mov	 esi, ecx
  0000a	8d 9b 00 00 00
	00		 npad	 6
$LL2@SkipWhiteS:

; 791  : 	while(IsSpace(*m_pchCur))

  00010	8b 06		 mov	 eax, DWORD PTR [esi]
  00012	0f be 08	 movsx	 ecx, BYTE PTR [eax]
  00015	83 c1 f7	 add	 ecx, -9			; fffffff7H
  00018	83 f9 17	 cmp	 ecx, 23			; 00000017H
  0001b	77 15		 ja	 SHORT $LN6@SkipWhiteS
  0001d	0f b6 89 00 00
	00 00		 movzx	 ecx, BYTE PTR $LN12@SkipWhiteS[ecx]
  00024	ff 24 8d 00 00
	00 00		 jmp	 DWORD PTR $LN13@SkipWhiteS[ecx*4]
$LN5@SkipWhiteS:

; 792  : 		m_pchCur = CharNext(m_pchCur);

  0002b	50		 push	 eax
  0002c	ff d7		 call	 edi
  0002e	89 06		 mov	 DWORD PTR [esi], eax
  00030	eb de		 jmp	 SHORT $LL2@SkipWhiteS

; 791  : 	while(IsSpace(*m_pchCur))

$LN6@SkipWhiteS:
  00032	5f		 pop	 edi
  00033	5e		 pop	 esi

; 793  : }

  00034	c3		 ret	 0
  00035	8d 49 00	 npad	 3
$LN13@SkipWhiteS:
  00038	00 00 00 00	 DD	 $LN5@SkipWhiteS
  0003c	00 00 00 00	 DD	 $LN6@SkipWhiteS
$LN12@SkipWhiteS:
  00040	00		 DB	 0
  00041	00		 DB	 0
  00042	01		 DB	 1
  00043	01		 DB	 1
  00044	00		 DB	 0
  00045	01		 DB	 1
  00046	01		 DB	 1
  00047	01		 DB	 1
  00048	01		 DB	 1
  00049	01		 DB	 1
  0004a	01		 DB	 1
  0004b	01		 DB	 1
  0004c	01		 DB	 1
  0004d	01		 DB	 1
  0004e	01		 DB	 1
  0004f	01		 DB	 1
  00050	01		 DB	 1
  00051	01		 DB	 1
  00052	01		 DB	 1
  00053	01		 DB	 1
  00054	01		 DB	 1
  00055	01		 DB	 1
  00056	01		 DB	 1
  00057	00		 DB	 0
?SkipWhiteSpace@CRegParser@ATL@@IAEXXZ ENDP		; ATL::CRegParser::SkipWhiteSpace
_TEXT	ENDS
PUBLIC	?NextToken@CRegParser@ATL@@IAEJPAD@Z		; ATL::CRegParser::NextToken
; Function compile flags: /Ogtpy
;	COMDAT ?NextToken@CRegParser@ATL@@IAEJPAD@Z
_TEXT	SEGMENT
_szOrig$ = 8						; size = 4
_szToken$ = 8						; size = 4
?NextToken@CRegParser@ATL@@IAEJPAD@Z PROC		; ATL::CRegParser::NextToken, COMDAT
; _this$ = ecx

; 798  : {

  00000	56		 push	 esi
  00001	8b f1		 mov	 esi, ecx

; 799  : 	SkipWhiteSpace();

  00003	e8 00 00 00 00	 call	 ?SkipWhiteSpace@CRegParser@ATL@@IAEXXZ ; ATL::CRegParser::SkipWhiteSpace

; 800  : 
; 801  : 	// NextToken cannot be called at EOS
; 802  : 	if (NULL == *m_pchCur)

  00008	8b 0e		 mov	 ecx, DWORD PTR [esi]
  0000a	8a 01		 mov	 al, BYTE PTR [ecx]
  0000c	84 c0		 test	 al, al
  0000e	75 09		 jne	 SHORT $LN17@NextToken

; 803  : 		return GenerateError(E_ATL_UNEXPECTED_EOS);

  00010	b8 09 00 02 80	 mov	 eax, -2147352567	; 80020009H
  00015	5e		 pop	 esi

; 861  : }

  00016	c2 04 00	 ret	 4
$LN17@NextToken:
  00019	53		 push	 ebx

; 804  : #pragma warning(pop)
; 805  : 
; 806  : 	LPCTSTR szOrig = szToken;

  0001a	8b 5c 24 0c	 mov	 ebx, DWORD PTR _szToken$[esp+4]
  0001e	55		 push	 ebp

; 807  : 	// handle quoted value / key
; 808  : 	if (chQuote == *m_pchCur)
; 809  : 	{
; 810  : 		m_pchCur = CharNext(m_pchCur);

  0001f	8b 2d 00 00 00
	00		 mov	 ebp, DWORD PTR __imp__CharNextA@4
  00025	57		 push	 edi
  00026	89 5c 24 14	 mov	 DWORD PTR _szOrig$[esp+12], ebx
  0002a	3c 27		 cmp	 al, 39			; 00000027H
  0002c	75 74		 jne	 SHORT $LL6@NextToken
  0002e	51		 push	 ecx
  0002f	ff d5		 call	 ebp
  00031	89 06		 mov	 DWORD PTR [esi], eax

; 811  : 
; 812  : 		while (NULL != *m_pchCur && !EndOfVar())

  00033	80 38 00	 cmp	 BYTE PTR [eax], 0
  00036	74 50		 je	 SHORT $LN14@NextToken
$LL15@NextToken:
  00038	8b 06		 mov	 eax, DWORD PTR [esi]
  0003a	80 38 27	 cmp	 BYTE PTR [eax], 39	; 00000027H
  0003d	75 08		 jne	 SHORT $LN24@NextToken
  0003f	50		 push	 eax
  00040	ff d5		 call	 ebp
  00042	80 38 27	 cmp	 BYTE PTR [eax], 39	; 00000027H
  00045	75 41		 jne	 SHORT $LN14@NextToken
$LN24@NextToken:

; 813  : 		{
; 814  : 			if (chQuote == *m_pchCur) // If it is a quote that means we must skip it

  00047	8b 06		 mov	 eax, DWORD PTR [esi]
  00049	80 38 27	 cmp	 BYTE PTR [eax], 39	; 00000027H
  0004c	75 05		 jne	 SHORT $LN13@NextToken

; 815  : 				m_pchCur = CharNext(m_pchCur);

  0004e	50		 push	 eax
  0004f	ff d5		 call	 ebp
  00051	89 06		 mov	 DWORD PTR [esi], eax
$LN13@NextToken:

; 816  : 
; 817  : 			LPTSTR pchPrev = m_pchCur;

  00053	8b 3e		 mov	 edi, DWORD PTR [esi]

; 818  : 			m_pchCur = CharNext(m_pchCur);

  00055	57		 push	 edi
  00056	ff d5		 call	 ebp

; 819  : 
; 820  : 			INT_PTR nChars = m_pchCur - pchPrev;
; 821  : 
; 822  : 			// Make sure we have room for nChars plus terminating NULL
; 823  : 			if ((szToken + nChars + 1) >= szOrig + MAX_VALUE)

  00058	8b 54 24 14	 mov	 edx, DWORD PTR _szOrig$[esp+12]
  0005c	89 06		 mov	 DWORD PTR [esi], eax
  0005e	2b c7		 sub	 eax, edi
  00060	8d 4c 18 01	 lea	 ecx, DWORD PTR [eax+ebx+1]
  00064	81 c2 00 10 00
	00		 add	 edx, 4096		; 00001000H
  0006a	3b ca		 cmp	 ecx, edx
  0006c	0f 83 8c 00 00
	00		 jae	 $LN42@NextToken

; 824  : 				return GenerateError(E_ATL_VALUE_TOO_LARGE);
; 825  : 
; 826  : 			for (int i = 0; i < (int)nChars; i++, szToken++, pchPrev++)

  00072	85 c0		 test	 eax, eax
  00074	7e 0b		 jle	 SHORT $LN9@NextToken
$LL11@NextToken:

; 827  : 				*szToken = *pchPrev;

  00076	8a 0f		 mov	 cl, BYTE PTR [edi]
  00078	88 0b		 mov	 BYTE PTR [ebx], cl
  0007a	43		 inc	 ebx
  0007b	47		 inc	 edi
  0007c	83 e8 01	 sub	 eax, 1
  0007f	75 f5		 jne	 SHORT $LL11@NextToken
$LN9@NextToken:

; 811  : 
; 812  : 		while (NULL != *m_pchCur && !EndOfVar())

  00081	8b 16		 mov	 edx, DWORD PTR [esi]
  00083	80 3a 00	 cmp	 BYTE PTR [edx], 0
  00086	75 b0		 jne	 SHORT $LL15@NextToken
$LN14@NextToken:

; 828  : 		}
; 829  : 
; 830  : 		if (NULL == *m_pchCur)

  00088	8b 06		 mov	 eax, DWORD PTR [esi]
  0008a	80 38 00	 cmp	 BYTE PTR [eax], 0

; 831  : 		{
; 832  : 			ATLTRACE(atlTraceRegistrar, 0, _T("NextToken : Unexpected End of File\n"));
; 833  : 			return GenerateError(E_ATL_UNEXPECTED_EOS);

  0008d	74 6f		 je	 SHORT $LN42@NextToken

; 834  : 		}
; 835  : 
; 836  : 		*szToken = NULL;

  0008f	c6 03 00	 mov	 BYTE PTR [ebx], 0

; 837  : 		m_pchCur = CharNext(m_pchCur);

  00092	8b 0e		 mov	 ecx, DWORD PTR [esi]
  00094	51		 push	 ecx
  00095	ff d5		 call	 ebp
  00097	5f		 pop	 edi
  00098	5d		 pop	 ebp
  00099	89 06		 mov	 DWORD PTR [esi], eax
  0009b	5b		 pop	 ebx

; 859  : 	}
; 860  : 	return S_OK;

  0009c	33 c0		 xor	 eax, eax
  0009e	5e		 pop	 esi

; 861  : }

  0009f	c2 04 00	 ret	 4
$LL6@NextToken:

; 838  : 	}
; 839  : 
; 840  : 	else
; 841  : 	{   
; 842  : 		// Handle non-quoted ie parse up till first "White Space"
; 843  : 		while (NULL != *m_pchCur && !IsSpace(*m_pchCur))

  000a2	8b 3e		 mov	 edi, DWORD PTR [esi]
  000a4	0f be 07	 movsx	 eax, BYTE PTR [edi]
  000a7	83 c0 f7	 add	 eax, -9			; fffffff7H
  000aa	83 f8 17	 cmp	 eax, 23			; 00000017H
  000ad	77 0e		 ja	 SHORT $LN31@NextToken
  000af	0f b6 90 00 00
	00 00		 movzx	 edx, BYTE PTR $LN50@NextToken[eax]
  000b6	ff 24 95 00 00
	00 00		 jmp	 DWORD PTR $LN56@NextToken[edx*4]
$LN31@NextToken:

; 844  : 		{
; 845  : 			LPTSTR pchPrev = m_pchCur;
; 846  : 			m_pchCur = CharNext(m_pchCur);

  000bd	57		 push	 edi
  000be	ff d5		 call	 ebp

; 847  : 
; 848  : 			INT_PTR nChars = m_pchCur - pchPrev;
; 849  : 
; 850  : 			// Make sure we have room for nChars plus terminating NULL
; 851  : 			if ((szToken + nChars + 1) >= szOrig + MAX_VALUE)

  000c0	8b 54 24 14	 mov	 edx, DWORD PTR _szOrig$[esp+12]
  000c4	89 06		 mov	 DWORD PTR [esi], eax
  000c6	2b c7		 sub	 eax, edi
  000c8	8d 4c 18 01	 lea	 ecx, DWORD PTR [eax+ebx+1]
  000cc	81 c2 00 10 00
	00		 add	 edx, 4096		; 00001000H
  000d2	3b ca		 cmp	 ecx, edx
  000d4	73 28		 jae	 SHORT $LN42@NextToken

; 853  : 
; 854  : 			for (int i = 0; i < (int)nChars; i++, szToken++, pchPrev++)

  000d6	85 c0		 test	 eax, eax
  000d8	7e 11		 jle	 SHORT $LN1@NextToken
  000da	8d 9b 00 00 00
	00		 npad	 6
$LL3@NextToken:

; 855  : 				*szToken = *pchPrev;

  000e0	8a 0f		 mov	 cl, BYTE PTR [edi]
  000e2	88 0b		 mov	 BYTE PTR [ebx], cl
  000e4	43		 inc	 ebx
  000e5	47		 inc	 edi
  000e6	83 e8 01	 sub	 eax, 1
  000e9	75 f5		 jne	 SHORT $LL3@NextToken
$LN1@NextToken:

; 838  : 	}
; 839  : 
; 840  : 	else
; 841  : 	{   
; 842  : 		// Handle non-quoted ie parse up till first "White Space"
; 843  : 		while (NULL != *m_pchCur && !IsSpace(*m_pchCur))

  000eb	8b 16		 mov	 edx, DWORD PTR [esi]
  000ed	80 3a 00	 cmp	 BYTE PTR [edx], 0
  000f0	75 b0		 jne	 SHORT $LL6@NextToken
$LN5@NextToken:
  000f2	5f		 pop	 edi
  000f3	5d		 pop	 ebp

; 856  : 		}
; 857  : 
; 858  : 		*szToken = NULL;

  000f4	c6 03 00	 mov	 BYTE PTR [ebx], 0
  000f7	5b		 pop	 ebx

; 859  : 	}
; 860  : 	return S_OK;

  000f8	33 c0		 xor	 eax, eax
  000fa	5e		 pop	 esi

; 861  : }

  000fb	c2 04 00	 ret	 4
$LN42@NextToken:
  000fe	5f		 pop	 edi
  000ff	5d		 pop	 ebp
  00100	5b		 pop	 ebx

; 852  : 				return GenerateError(E_ATL_VALUE_TOO_LARGE);

  00101	b8 09 00 02 80	 mov	 eax, -2147352567	; 80020009H
  00106	5e		 pop	 esi

; 861  : }

  00107	c2 04 00	 ret	 4
  0010a	8b ff		 npad	 2
$LN56@NextToken:
  0010c	00 00 00 00	 DD	 $LN5@NextToken
  00110	00 00 00 00	 DD	 $LN31@NextToken
$LN50@NextToken:
  00114	00		 DB	 0
  00115	00		 DB	 0
  00116	01		 DB	 1
  00117	01		 DB	 1
  00118	00		 DB	 0
  00119	01		 DB	 1
  0011a	01		 DB	 1
  0011b	01		 DB	 1
  0011c	01		 DB	 1
  0011d	01		 DB	 1
  0011e	01		 DB	 1
  0011f	01		 DB	 1
  00120	01		 DB	 1
  00121	01		 DB	 1
  00122	01		 DB	 1
  00123	01		 DB	 1
  00124	01		 DB	 1
  00125	01		 DB	 1
  00126	01		 DB	 1
  00127	01		 DB	 1
  00128	01		 DB	 1
  00129	01		 DB	 1
  0012a	01		 DB	 1
  0012b	00		 DB	 0
?NextToken@CRegParser@ATL@@IAEJPAD@Z ENDP		; ATL::CRegParser::NextToken
_TEXT	ENDS
PUBLIC	?CanForceRemoveKey@CRegParser@ATL@@IAEHPBD@Z	; ATL::CRegParser::CanForceRemoveKey
; Function compile flags: /Ogtpy
;	COMDAT ?CanForceRemoveKey@CRegParser@ATL@@IAEHPBD@Z
_TEXT	SEGMENT
_szKey$ = 8						; size = 4
?CanForceRemoveKey@CRegParser@ATL@@IAEHPBD@Z PROC	; ATL::CRegParser::CanForceRemoveKey, COMDAT
; _this$ = ecx

; 995  : {

  00000	53		 push	 ebx

; 996  : 	for (int iNoDel = 0; iNoDel < cbNeverDelete; iNoDel++)

  00001	8b 1d 00 00 00
	00		 mov	 ebx, DWORD PTR __imp__lstrcmpiA@8
  00007	56		 push	 esi
  00008	57		 push	 edi
  00009	8b 7c 24 10	 mov	 edi, DWORD PTR _szKey$[esp+8]
  0000d	be 00 00 00 00	 mov	 esi, OFFSET ?rgszNeverDelete@CRegParser@ATL@@1QBQBDB ; ATL::CRegParser::rgszNeverDelete
$LL4@CanForceRe:

; 997  : 		if (!lstrcmpi(szKey, rgszNeverDelete[iNoDel]))

  00012	8b 06		 mov	 eax, DWORD PTR [esi]
  00014	50		 push	 eax
  00015	57		 push	 edi
  00016	ff d3		 call	 ebx
  00018	85 c0		 test	 eax, eax
  0001a	74 16		 je	 SHORT $LN8@CanForceRe
  0001c	83 c6 04	 add	 esi, 4
  0001f	81 fe 30 00 00
	00		 cmp	 esi, OFFSET ?rgszNeverDelete@CRegParser@ATL@@1QBQBDB+48
  00025	7c eb		 jl	 SHORT $LL4@CanForceRe
  00027	5f		 pop	 edi
  00028	5e		 pop	 esi

; 999  : 
; 1000 : 	return TRUE;

  00029	b8 01 00 00 00	 mov	 eax, 1
  0002e	5b		 pop	 ebx

; 1001 : }

  0002f	c2 04 00	 ret	 4
$LN8@CanForceRe:
  00032	5f		 pop	 edi
  00033	5e		 pop	 esi

; 998  : 			 return FALSE;                       // We cannot delete it

  00034	33 c0		 xor	 eax, eax
  00036	5b		 pop	 ebx

; 1001 : }

  00037	c2 04 00	 ret	 4
?CanForceRemoveKey@CRegParser@ATL@@IAEHPBD@Z ENDP	; ATL::CRegParser::CanForceRemoveKey
_TEXT	ENDS
PUBLIC	?HasSubKeys@CRegParser@ATL@@IAEHPAUHKEY__@@@Z	; ATL::CRegParser::HasSubKeys
EXTRN	__imp__RegQueryInfoKeyA@48:PROC
; Function compile flags: /Ogtpy
;	COMDAT ?HasSubKeys@CRegParser@ATL@@IAEHPAUHKEY__@@@Z
_TEXT	SEGMENT
_cbSubKeys$ = -4					; size = 4
_hkey$ = 8						; size = 4
?HasSubKeys@CRegParser@ATL@@IAEHPAUHKEY__@@@Z PROC	; ATL::CRegParser::HasSubKeys, COMDAT
; _this$ = ecx

; 1004 : {

  00000	51		 push	 ecx

; 1005 : 	DWORD       cbSubKeys = 0;
; 1006 : 
; 1007 : 	if (RegQueryInfoKey(hkey, NULL, NULL, NULL,
; 1008 : 							   &cbSubKeys, NULL, NULL,
; 1009 : 							   NULL, NULL, NULL, NULL, NULL) != ERROR_SUCCESS)

  00001	8b 4c 24 08	 mov	 ecx, DWORD PTR _hkey$[esp]
  00005	6a 00		 push	 0
  00007	6a 00		 push	 0
  00009	6a 00		 push	 0
  0000b	6a 00		 push	 0
  0000d	6a 00		 push	 0
  0000f	6a 00		 push	 0
  00011	6a 00		 push	 0
  00013	8d 44 24 1c	 lea	 eax, DWORD PTR _cbSubKeys$[esp+32]
  00017	50		 push	 eax
  00018	6a 00		 push	 0
  0001a	6a 00		 push	 0
  0001c	6a 00		 push	 0
  0001e	51		 push	 ecx
  0001f	c7 44 24 30 00
	00 00 00	 mov	 DWORD PTR _cbSubKeys$[esp+52], 0
  00027	ff 15 00 00 00
	00		 call	 DWORD PTR __imp__RegQueryInfoKeyA@48
  0002d	85 c0		 test	 eax, eax
  0002f	74 06		 je	 SHORT $LN1@HasSubKeys

; 1010 : 	{
; 1011 : 		ATLTRACE(atlTraceRegistrar, 0, _T("Should not be here!!\n"));
; 1012 : 		ATLASSERT(FALSE);
; 1013 : 		return FALSE;

  00031	33 c0		 xor	 eax, eax

; 1017 : }

  00033	59		 pop	 ecx
  00034	c2 04 00	 ret	 4
$LN1@HasSubKeys:

; 1014 : 	}
; 1015 : 
; 1016 : 	return cbSubKeys > 0;

  00037	33 d2		 xor	 edx, edx
  00039	3b 14 24	 cmp	 edx, DWORD PTR _cbSubKeys$[esp+4]
  0003c	1b c0		 sbb	 eax, eax
  0003e	f7 d8		 neg	 eax

; 1017 : }

  00040	59		 pop	 ecx
  00041	c2 04 00	 ret	 4
?HasSubKeys@CRegParser@ATL@@IAEHPAUHKEY__@@@Z ENDP	; ATL::CRegParser::HasSubKeys
_TEXT	ENDS
PUBLIC	__$ArrayPad$
PUBLIC	?SkipAssignment@CRegParser@ATL@@IAEJPAD@Z	; ATL::CRegParser::SkipAssignment
EXTRN	@__security_check_cookie@4:PROC
EXTRN	__chkstk:PROC
; Function compile flags: /Ogtpy
;	COMDAT ?SkipAssignment@CRegParser@ATL@@IAEJPAD@Z
_TEXT	SEGMENT
_szValue$ = -4100					; size = 4096
__$ArrayPad$ = -4					; size = 4
_szToken$ = 8						; size = 4
?SkipAssignment@CRegParser@ATL@@IAEJPAD@Z PROC		; ATL::CRegParser::SkipAssignment, COMDAT
; _this$ = ecx

; 1048 : {

  00000	b8 04 10 00 00	 mov	 eax, 4100		; 00001004H
  00005	e8 00 00 00 00	 call	 __chkstk
  0000a	a1 00 00 00 00	 mov	 eax, DWORD PTR ___security_cookie
  0000f	33 c4		 xor	 eax, esp
  00011	89 84 24 00 10
	00 00		 mov	 DWORD PTR __$ArrayPad$[esp+4100], eax
  00018	56		 push	 esi
  00019	57		 push	 edi
  0001a	8b bc 24 10 10
	00 00		 mov	 edi, DWORD PTR _szToken$[esp+4104]

; 1049 : 	HRESULT hr;
; 1050 : 	TCHAR szValue[MAX_VALUE];
; 1051 : 
; 1052 : 	if (*szToken == chEquals)

  00021	80 3f 3d	 cmp	 BYTE PTR [edi], 61	; 0000003dH
  00024	8b f1		 mov	 esi, ecx
  00026	75 2d		 jne	 SHORT $LN1@SkipAssign

; 1053 : 	{
; 1054 : 		if (FAILED(hr = NextToken(szToken)))

  00028	57		 push	 edi
  00029	e8 00 00 00 00	 call	 ?NextToken@CRegParser@ATL@@IAEJPAD@Z ; ATL::CRegParser::NextToken
  0002e	85 c0		 test	 eax, eax

; 1055 : 			return hr;

  00030	7c 25		 jl	 SHORT $LN5@SkipAssign

; 1056 : 		// Skip assignment
; 1057 : 		SkipWhiteSpace();

  00032	8b ce		 mov	 ecx, esi
  00034	e8 00 00 00 00	 call	 ?SkipWhiteSpace@CRegParser@ATL@@IAEXXZ ; ATL::CRegParser::SkipWhiteSpace

; 1058 : 		if (FAILED(hr = NextToken(szValue)))

  00039	8d 44 24 08	 lea	 eax, DWORD PTR _szValue$[esp+4108]
  0003d	50		 push	 eax
  0003e	8b ce		 mov	 ecx, esi
  00040	e8 00 00 00 00	 call	 ?NextToken@CRegParser@ATL@@IAEJPAD@Z ; ATL::CRegParser::NextToken
  00045	85 c0		 test	 eax, eax

; 1059 : 			return hr;

  00047	7c 0e		 jl	 SHORT $LN5@SkipAssign

; 1060 : 		if (FAILED(hr = NextToken(szToken)))

  00049	57		 push	 edi
  0004a	8b ce		 mov	 ecx, esi
  0004c	e8 00 00 00 00	 call	 ?NextToken@CRegParser@ATL@@IAEJPAD@Z ; ATL::CRegParser::NextToken
  00051	85 c0		 test	 eax, eax

; 1061 : 			return hr;

  00053	7c 02		 jl	 SHORT $LN5@SkipAssign
$LN1@SkipAssign:

; 1062 : 	}
; 1063 : 
; 1064 : 	return S_OK;

  00055	33 c0		 xor	 eax, eax
$LN5@SkipAssign:

; 1065 : }

  00057	8b 8c 24 08 10
	00 00		 mov	 ecx, DWORD PTR __$ArrayPad$[esp+4108]
  0005e	5f		 pop	 edi
  0005f	5e		 pop	 esi
  00060	33 cc		 xor	 ecx, esp
  00062	e8 00 00 00 00	 call	 @__security_check_cookie@4
  00067	81 c4 04 10 00
	00		 add	 esp, 4100		; 00001004H
  0006d	c2 04 00	 ret	 4
?SkipAssignment@CRegParser@ATL@@IAEJPAD@Z ENDP		; ATL::CRegParser::SkipAssignment
_TEXT	ENDS
PUBLIC	??0CComAutoDeleteCriticalSection@ATL@@QAE@XZ	; ATL::CComAutoDeleteCriticalSection::CComAutoDeleteCriticalSection
; Function compile flags: /Ogtpy
;	COMDAT ??0CComAutoDeleteCriticalSection@ATL@@QAE@XZ
_TEXT	SEGMENT
??0CComAutoDeleteCriticalSection@ATL@@QAE@XZ PROC	; ATL::CComAutoDeleteCriticalSection::CComAutoDeleteCriticalSection, COMDAT
; _this$ = ecx
  00000	8b c1		 mov	 eax, ecx
  00002	33 c9		 xor	 ecx, ecx
  00004	89 08		 mov	 DWORD PTR [eax], ecx
  00006	89 48 04	 mov	 DWORD PTR [eax+4], ecx
  00009	89 48 08	 mov	 DWORD PTR [eax+8], ecx
  0000c	89 48 0c	 mov	 DWORD PTR [eax+12], ecx
  0000f	89 48 10	 mov	 DWORD PTR [eax+16], ecx
  00012	89 48 14	 mov	 DWORD PTR [eax+20], ecx
  00015	88 48 18	 mov	 BYTE PTR [eax+24], cl
  00018	c3		 ret	 0
??0CComAutoDeleteCriticalSection@ATL@@QAE@XZ ENDP	; ATL::CComAutoDeleteCriticalSection::CComAutoDeleteCriticalSection
_TEXT	ENDS
PUBLIC	??0IUnknown@@QAE@XZ				; IUnknown::IUnknown
; Function compile flags: /Ogtpy
;	COMDAT ??0IUnknown@@QAE@XZ
_TEXT	SEGMENT
??0IUnknown@@QAE@XZ PROC				; IUnknown::IUnknown, COMDAT
; _this$ = ecx
  00000	8b c1		 mov	 eax, ecx
  00002	c3		 ret	 0
??0IUnknown@@QAE@XZ ENDP				; IUnknown::IUnknown
_TEXT	ENDS
PUBLIC	?AtlGetPerUserRegistration@ATL@@YGJPA_N@Z	; ATL::AtlGetPerUserRegistration
; Function compile flags: /Ogtpy
; File c:\program files (x86)\microsoft visual studio 9.0\vc\atlmfc\include\atlbase.h
;	COMDAT ?AtlGetPerUserRegistration@ATL@@YGJPA_N@Z
_TEXT	SEGMENT
_pbEnabled$ = 8						; size = 4
?AtlGetPerUserRegistration@ATL@@YGJPA_N@Z PROC		; ATL::AtlGetPerUserRegistration, COMDAT

; 6459 : 	if (pbEnabled == NULL)

  00000	8b 44 24 04	 mov	 eax, DWORD PTR _pbEnabled$[esp-4]
  00004	85 c0		 test	 eax, eax
  00006	75 08		 jne	 SHORT $LN1@AtlGetPerU

; 6460 : 		return E_POINTER;

  00008	b8 03 40 00 80	 mov	 eax, -2147467261	; 80004003H

; 6464 : }

  0000d	c2 04 00	 ret	 4
$LN1@AtlGetPerU:

; 6461 : 
; 6462 : 	*pbEnabled = _AtlRegisterPerUser;

  00010	8a 0d 00 00 00
	00		 mov	 cl, BYTE PTR ?_AtlRegisterPerUser@ATL@@3_NA ; ATL::_AtlRegisterPerUser
  00016	88 08		 mov	 BYTE PTR [eax], cl

; 6463 : 	return S_OK;

  00018	33 c0		 xor	 eax, eax

; 6464 : }

  0001a	c2 04 00	 ret	 4
?AtlGetPerUserRegistration@ATL@@YGJPA_N@Z ENDP		; ATL::AtlGetPerUserRegistration
_TEXT	ENDS
PUBLIC	??_7_com_error@@6B@				; _com_error::`vftable'
PUBLIC	??0_com_error@@QAE@JPAUIErrorInfo@@_N@Z		; _com_error::_com_error
PUBLIC	??_R4_com_error@@6B@				; _com_error::`RTTI Complete Object Locator'
PUBLIC	??_R0?AV_com_error@@@8				; _com_error `RTTI Type Descriptor'
PUBLIC	??_R3_com_error@@8				; _com_error::`RTTI Class Hierarchy Descriptor'
PUBLIC	??_R2_com_error@@8				; _com_error::`RTTI Base Class Array'
PUBLIC	??_R1A@?0A@EA@_com_error@@8			; _com_error::`RTTI Base Class Descriptor at (0,-1,0,64)'
EXTRN	??_E_com_error@@UAEPAXI@Z:PROC			; _com_error::`vector deleting destructor'
;	COMDAT ??_R1A@?0A@EA@_com_error@@8
; File c:\program files (x86)\microsoft visual studio 9.0\vc\include\comdef.h
rdata$r	SEGMENT
??_R1A@?0A@EA@_com_error@@8 DD FLAT:??_R0?AV_com_error@@@8 ; _com_error::`RTTI Base Class Descriptor at (0,-1,0,64)'
	DD	00H
	DD	00H
	DD	0ffffffffH
	DD	00H
	DD	040H
	DD	FLAT:??_R3_com_error@@8
rdata$r	ENDS
;	COMDAT ??_R2_com_error@@8
rdata$r	SEGMENT
??_R2_com_error@@8 DD FLAT:??_R1A@?0A@EA@_com_error@@8	; _com_error::`RTTI Base Class Array'
rdata$r	ENDS
;	COMDAT ??_R3_com_error@@8
rdata$r	SEGMENT
??_R3_com_error@@8 DD 00H				; _com_error::`RTTI Class Hierarchy Descriptor'
	DD	00H
	DD	01H
	DD	FLAT:??_R2_com_error@@8
rdata$r	ENDS
;	COMDAT ??_R0?AV_com_error@@@8
_DATA	SEGMENT
??_R0?AV_com_error@@@8 DD FLAT:??_7type_info@@6B@	; _com_error `RTTI Type Descriptor'
	DD	00H
	DB	'.?AV_com_error@@', 00H
_DATA	ENDS
;	COMDAT ??_R4_com_error@@6B@
rdata$r	SEGMENT
??_R4_com_error@@6B@ DD 00H				; _com_error::`RTTI Complete Object Locator'
	DD	00H
	DD	00H
	DD	FLAT:??_R0?AV_com_error@@@8
	DD	FLAT:??_R3_com_error@@8
rdata$r	ENDS
;	COMDAT ??_7_com_error@@6B@
CONST	SEGMENT
??_7_com_error@@6B@ DD FLAT:??_R4_com_error@@6B@	; _com_error::`vftable'
	DD	FLAT:??_E_com_error@@UAEPAXI@Z
; Function compile flags: /Ogtpy
CONST	ENDS
;	COMDAT ??0_com_error@@QAE@JPAUIErrorInfo@@_N@Z
_TEXT	SEGMENT
_hr$ = 8						; size = 4
_perrinfo$ = 12						; size = 4
_fAddRef$ = 16						; size = 1
??0_com_error@@QAE@JPAUIErrorInfo@@_N@Z PROC		; _com_error::_com_error, COMDAT
; _this$ = ecx

; 134  : {

  00000	8b 44 24 04	 mov	 eax, DWORD PTR _hr$[esp-4]
  00004	56		 push	 esi
  00005	8b f1		 mov	 esi, ecx
  00007	89 46 04	 mov	 DWORD PTR [esi+4], eax
  0000a	8b 44 24 0c	 mov	 eax, DWORD PTR _perrinfo$[esp]
  0000e	c7 06 00 00 00
	00		 mov	 DWORD PTR [esi], OFFSET ??_7_com_error@@6B@
  00014	89 46 08	 mov	 DWORD PTR [esi+8], eax
  00017	c7 46 0c 00 00
	00 00		 mov	 DWORD PTR [esi+12], 0

; 135  :     if (m_perrinfo != NULL && fAddRef) {

  0001e	85 c0		 test	 eax, eax
  00020	74 0f		 je	 SHORT $LN5@com_error
  00022	80 7c 24 10 00	 cmp	 BYTE PTR _fAddRef$[esp], 0
  00027	74 08		 je	 SHORT $LN5@com_error

; 136  :         m_perrinfo->AddRef();

  00029	8b 08		 mov	 ecx, DWORD PTR [eax]
  0002b	8b 51 04	 mov	 edx, DWORD PTR [ecx+4]
  0002e	50		 push	 eax
  0002f	ff d2		 call	 edx
$LN5@com_error:

; 137  :     }
; 138  : }

  00031	8b c6		 mov	 eax, esi
  00033	5e		 pop	 esi
  00034	c2 0c 00	 ret	 12			; 0000000cH
??0_com_error@@QAE@JPAUIErrorInfo@@_N@Z ENDP		; _com_error::_com_error
_TEXT	ENDS
PUBLIC	??1_com_error@@UAE@XZ				; _com_error::~_com_error
EXTRN	__imp__LocalFree@4:PROC
; Function compile flags: /Ogtpy
;	COMDAT ??1_com_error@@UAE@XZ
_TEXT	SEGMENT
??1_com_error@@UAE@XZ PROC				; _com_error::~_com_error, COMDAT
; _this$ = ecx

; 149  : {

  00000	56		 push	 esi
  00001	8b f1		 mov	 esi, ecx

; 150  :     if (m_perrinfo != NULL) {

  00003	8b 46 08	 mov	 eax, DWORD PTR [esi+8]
  00006	c7 06 00 00 00
	00		 mov	 DWORD PTR [esi], OFFSET ??_7_com_error@@6B@
  0000c	85 c0		 test	 eax, eax
  0000e	74 08		 je	 SHORT $LN2@com_error@2

; 151  :         m_perrinfo->Release();

  00010	8b 08		 mov	 ecx, DWORD PTR [eax]
  00012	8b 51 08	 mov	 edx, DWORD PTR [ecx+8]
  00015	50		 push	 eax
  00016	ff d2		 call	 edx
$LN2@com_error@2:

; 152  :     }
; 153  :     if (m_pszMsg != NULL) {

  00018	8b 76 0c	 mov	 esi, DWORD PTR [esi+12]
  0001b	85 f6		 test	 esi, esi
  0001d	74 07		 je	 SHORT $LN1@com_error@2

; 154  :         LocalFree((HLOCAL)m_pszMsg);

  0001f	56		 push	 esi
  00020	ff 15 00 00 00
	00		 call	 DWORD PTR __imp__LocalFree@4
$LN1@com_error@2:
  00026	5e		 pop	 esi

; 155  :     }
; 156  : }

  00027	c3		 ret	 0
??1_com_error@@UAE@XZ ENDP				; _com_error::~_com_error
_TEXT	ENDS
PUBLIC	?HRESULTToWCode@_com_error@@SAGJ@Z		; _com_error::HRESULTToWCode
; Function compile flags: /Ogtpy
;	COMDAT ?HRESULTToWCode@_com_error@@SAGJ@Z
_TEXT	SEGMENT
_hr$ = 8						; size = 4
?HRESULTToWCode@_com_error@@SAGJ@Z PROC			; _com_error::HRESULTToWCode, COMDAT

; 275  :     return (hr >= WCODE_HRESULT_FIRST && hr <= WCODE_HRESULT_LAST)
; 276  :         ? WORD(hr - WCODE_HRESULT_FIRST)
; 277  :         : 0;

  00000	8b 44 24 04	 mov	 eax, DWORD PTR _hr$[esp-4]
  00004	8d 88 00 fe fb
	7f		 lea	 ecx, DWORD PTR [eax+2147220992]
  0000a	81 f9 ff fd 00
	00		 cmp	 ecx, 65023		; 0000fdffH
  00010	77 09		 ja	 SHORT $LN3@HRESULTToW
  00012	05 00 fe ff ff	 add	 eax, -512		; fffffe00H
  00017	0f b7 c0	 movzx	 eax, ax

; 278  : }

  0001a	c3		 ret	 0
$LN3@HRESULTToW:

; 275  :     return (hr >= WCODE_HRESULT_FIRST && hr <= WCODE_HRESULT_LAST)
; 276  :         ? WORD(hr - WCODE_HRESULT_FIRST)
; 277  :         : 0;

  0001b	33 c0		 xor	 eax, eax

; 278  : }

  0001d	c3		 ret	 0
?HRESULTToWCode@_com_error@@SAGJ@Z ENDP			; _com_error::HRESULTToWCode
_TEXT	ENDS
PUBLIC	??0?$CAtlSafeAllocBufferManager@VCCRTAllocator@ATL@@@_ATL_SAFE_ALLOCA_IMPL@ATL@@QAE@XZ ; ATL::_ATL_SAFE_ALLOCA_IMPL::CAtlSafeAllocBufferManager<ATL::CCRTAllocator>::CAtlSafeAllocBufferManager<ATL::CCRTAllocator>
; Function compile flags: /Ogtpy
; File c:\program files (x86)\microsoft visual studio 9.0\vc\atlmfc\include\atlalloc.h
;	COMDAT ??0?$CAtlSafeAllocBufferManager@VCCRTAllocator@ATL@@@_ATL_SAFE_ALLOCA_IMPL@ATL@@QAE@XZ
_TEXT	SEGMENT
??0?$CAtlSafeAllocBufferManager@VCCRTAllocator@ATL@@@_ATL_SAFE_ALLOCA_IMPL@ATL@@QAE@XZ PROC ; ATL::_ATL_SAFE_ALLOCA_IMPL::CAtlSafeAllocBufferManager<ATL::CCRTAllocator>::CAtlSafeAllocBufferManager<ATL::CCRTAllocator>, COMDAT
; _this$ = ecx

; 640  : 	CAtlSafeAllocBufferManager() : m_pHead(NULL) {};

  00000	8b c1		 mov	 eax, ecx
  00002	c7 00 00 00 00
	00		 mov	 DWORD PTR [eax], 0
  00008	c3		 ret	 0
??0?$CAtlSafeAllocBufferManager@VCCRTAllocator@ATL@@@_ATL_SAFE_ALLOCA_IMPL@ATL@@QAE@XZ ENDP ; ATL::_ATL_SAFE_ALLOCA_IMPL::CAtlSafeAllocBufferManager<ATL::CCRTAllocator>::CAtlSafeAllocBufferManager<ATL::CCRTAllocator>
_TEXT	ENDS
PUBLIC	??1?$CAtlSafeAllocBufferManager@VCCRTAllocator@ATL@@@_ATL_SAFE_ALLOCA_IMPL@ATL@@QAE@XZ ; ATL::_ATL_SAFE_ALLOCA_IMPL::CAtlSafeAllocBufferManager<ATL::CCRTAllocator>::~CAtlSafeAllocBufferManager<ATL::CCRTAllocator>
; Function compile flags: /Ogtpy
;	COMDAT ??1?$CAtlSafeAllocBufferManager@VCCRTAllocator@ATL@@@_ATL_SAFE_ALLOCA_IMPL@ATL@@QAE@XZ
_TEXT	SEGMENT
??1?$CAtlSafeAllocBufferManager@VCCRTAllocator@ATL@@@_ATL_SAFE_ALLOCA_IMPL@ATL@@QAE@XZ PROC ; ATL::_ATL_SAFE_ALLOCA_IMPL::CAtlSafeAllocBufferManager<ATL::CCRTAllocator>::~CAtlSafeAllocBufferManager<ATL::CCRTAllocator>, COMDAT
; _this$ = ecx

; 654  : 	{

  00000	56		 push	 esi
  00001	8b f1		 mov	 esi, ecx

; 655  : 		// Walk the list and free the buffers
; 656  : 		while (m_pHead != NULL)

  00003	83 3e 00	 cmp	 DWORD PTR [esi], 0
  00006	74 14		 je	 SHORT $LN1@CAtlSafeAl
$LL2@CAtlSafeAl:

; 657  : 		{
; 658  : 			CAtlSafeAllocBufferNode* p = m_pHead;

  00008	8b 06		 mov	 eax, DWORD PTR [esi]

; 659  : 			m_pHead = m_pHead->m_pNext;

  0000a	8b 08		 mov	 ecx, DWORD PTR [eax]

; 660  : 			Allocator::Free(p);

  0000c	50		 push	 eax
  0000d	89 0e		 mov	 DWORD PTR [esi], ecx
  0000f	e8 00 00 00 00	 call	 _free
  00014	83 c4 04	 add	 esp, 4
  00017	83 3e 00	 cmp	 DWORD PTR [esi], 0
  0001a	75 ec		 jne	 SHORT $LL2@CAtlSafeAl
$LN1@CAtlSafeAl:
  0001c	5e		 pop	 esi

; 661  : 		}
; 662  : 	}

  0001d	c3		 ret	 0
??1?$CAtlSafeAllocBufferManager@VCCRTAllocator@ATL@@@_ATL_SAFE_ALLOCA_IMPL@ATL@@QAE@XZ ENDP ; ATL::_ATL_SAFE_ALLOCA_IMPL::CAtlSafeAllocBufferManager<ATL::CCRTAllocator>::~CAtlSafeAllocBufferManager<ATL::CCRTAllocator>
_TEXT	ENDS
PUBLIC	??0?$CSimpleMap@PADPA_WVCExpansionVectorEqualHelper@ATL@@@ATL@@QAE@XZ ; ATL::CSimpleMap<char *,wchar_t *,ATL::CExpansionVectorEqualHelper>::CSimpleMap<char *,wchar_t *,ATL::CExpansionVectorEqualHelper>
; Function compile flags: /Ogtpy
; File c:\program files (x86)\microsoft visual studio 9.0\vc\atlmfc\include\atlsimpcoll.h
;	COMDAT ??0?$CSimpleMap@PADPA_WVCExpansionVectorEqualHelper@ATL@@@ATL@@QAE@XZ
_TEXT	SEGMENT
??0?$CSimpleMap@PADPA_WVCExpansionVectorEqualHelper@ATL@@@ATL@@QAE@XZ PROC ; ATL::CSimpleMap<char *,wchar_t *,ATL::CExpansionVectorEqualHelper>::CSimpleMap<char *,wchar_t *,ATL::CExpansionVectorEqualHelper>, COMDAT
; _this$ = ecx

; 297  : 	{ }

  00000	8b c1		 mov	 eax, ecx
  00002	33 c9		 xor	 ecx, ecx
  00004	89 08		 mov	 DWORD PTR [eax], ecx
  00006	89 48 04	 mov	 DWORD PTR [eax+4], ecx
  00009	89 48 08	 mov	 DWORD PTR [eax+8], ecx
  0000c	c3		 ret	 0
??0?$CSimpleMap@PADPA_WVCExpansionVectorEqualHelper@ATL@@@ATL@@QAE@XZ ENDP ; ATL::CSimpleMap<char *,wchar_t *,ATL::CExpansionVectorEqualHelper>::CSimpleMap<char *,wchar_t *,ATL::CExpansionVectorEqualHelper>
_TEXT	ENDS
PUBLIC	?GetSize@?$CSimpleMap@PADPA_WVCExpansionVectorEqualHelper@ATL@@@ATL@@QBEHXZ ; ATL::CSimpleMap<char *,wchar_t *,ATL::CExpansionVectorEqualHelper>::GetSize
; Function compile flags: /Ogtpy
;	COMDAT ?GetSize@?$CSimpleMap@PADPA_WVCExpansionVectorEqualHelper@ATL@@@ATL@@QBEHXZ
_TEXT	SEGMENT
?GetSize@?$CSimpleMap@PADPA_WVCExpansionVectorEqualHelper@ATL@@@ATL@@QBEHXZ PROC ; ATL::CSimpleMap<char *,wchar_t *,ATL::CExpansionVectorEqualHelper>::GetSize, COMDAT
; _this$ = ecx

; 307  : 		return m_nSize;

  00000	8b 41 08	 mov	 eax, DWORD PTR [ecx+8]

; 308  : 	}

  00003	c3		 ret	 0
?GetSize@?$CSimpleMap@PADPA_WVCExpansionVectorEqualHelper@ATL@@@ATL@@QBEHXZ ENDP ; ATL::CSimpleMap<char *,wchar_t *,ATL::CExpansionVectorEqualHelper>::GetSize
_TEXT	ENDS
PUBLIC	?RemoveAll@?$CSimpleMap@PADPA_WVCExpansionVectorEqualHelper@ATL@@@ATL@@QAEXXZ ; ATL::CSimpleMap<char *,wchar_t *,ATL::CExpansionVectorEqualHelper>::RemoveAll
; Function compile flags: /Ogtpy
;	COMDAT ?RemoveAll@?$CSimpleMap@PADPA_WVCExpansionVectorEqualHelper@ATL@@@ATL@@QAEXXZ
_TEXT	SEGMENT
?RemoveAll@?$CSimpleMap@PADPA_WVCExpansionVectorEqualHelper@ATL@@@ATL@@QAEXXZ PROC ; ATL::CSimpleMap<char *,wchar_t *,ATL::CExpansionVectorEqualHelper>::RemoveAll, COMDAT
; _this$ = ecx

; 356  : 	{

  00000	56		 push	 esi
  00001	8b f1		 mov	 esi, ecx

; 357  : 		if(m_aKey != NULL)

  00003	8b 06		 mov	 eax, DWORD PTR [esi]
  00005	85 c0		 test	 eax, eax
  00007	74 0f		 je	 SHORT $LN5@RemoveAll

; 358  : 		{
; 359  : 			for(int i = 0; i < m_nSize; i++)
; 360  : 			{
; 361  : 				m_aKey[i].~TKey();
; 362  : 				m_aVal[i].~TVal();
; 363  : 			}
; 364  : 			free(m_aKey);

  00009	50		 push	 eax
  0000a	e8 00 00 00 00	 call	 _free
  0000f	83 c4 04	 add	 esp, 4

; 365  : 			m_aKey = NULL;

  00012	c7 06 00 00 00
	00		 mov	 DWORD PTR [esi], 0
$LN5@RemoveAll:

; 366  : 		}
; 367  : 		if(m_aVal != NULL)

  00018	8b 46 04	 mov	 eax, DWORD PTR [esi+4]
  0001b	85 c0		 test	 eax, eax
  0001d	74 10		 je	 SHORT $LN10@RemoveAll

; 368  : 		{
; 369  : 			free(m_aVal);

  0001f	50		 push	 eax
  00020	e8 00 00 00 00	 call	 _free
  00025	83 c4 04	 add	 esp, 4

; 370  : 			m_aVal = NULL;

  00028	c7 46 04 00 00
	00 00		 mov	 DWORD PTR [esi+4], 0
$LN10@RemoveAll:

; 371  : 		}
; 372  : 
; 373  : 		m_nSize = 0;

  0002f	c7 46 08 00 00
	00 00		 mov	 DWORD PTR [esi+8], 0
  00036	5e		 pop	 esi

; 374  : 	}

  00037	c3		 ret	 0
?RemoveAll@?$CSimpleMap@PADPA_WVCExpansionVectorEqualHelper@ATL@@@ATL@@QAEXXZ ENDP ; ATL::CSimpleMap<char *,wchar_t *,ATL::CExpansionVectorEqualHelper>::RemoveAll
_TEXT	ENDS
PUBLIC	?GetKeyAt@?$CSimpleMap@PADPA_WVCExpansionVectorEqualHelper@ATL@@@ATL@@QBEAAPADH@Z ; ATL::CSimpleMap<char *,wchar_t *,ATL::CExpansionVectorEqualHelper>::GetKeyAt
; Function compile flags: /Ogtpy
;	COMDAT ?GetKeyAt@?$CSimpleMap@PADPA_WVCExpansionVectorEqualHelper@ATL@@@ATL@@QBEAAPADH@Z
_TEXT	SEGMENT
_nIndex$ = 8						; size = 4
?GetKeyAt@?$CSimpleMap@PADPA_WVCExpansionVectorEqualHelper@ATL@@@ATL@@QBEAAPADH@Z PROC ; ATL::CSimpleMap<char *,wchar_t *,ATL::CExpansionVectorEqualHelper>::GetKeyAt, COMDAT
; _this$ = ecx

; 402  : 		ATLASSERT(nIndex >= 0 && nIndex < m_nSize);
; 403  : 		if(nIndex < 0 || nIndex >= m_nSize)

  00000	8b 44 24 04	 mov	 eax, DWORD PTR _nIndex$[esp-4]
  00004	85 c0		 test	 eax, eax
  00006	7c 0d		 jl	 SHORT $LN1@GetKeyAt
  00008	3b 41 08	 cmp	 eax, DWORD PTR [ecx+8]
  0000b	7d 08		 jge	 SHORT $LN1@GetKeyAt

; 404  : 			_AtlRaiseException((DWORD)EXCEPTION_ARRAY_BOUNDS_EXCEEDED);
; 405  : 			
; 406  : 		return m_aKey[nIndex];

  0000d	8b 09		 mov	 ecx, DWORD PTR [ecx]
  0000f	8d 04 81	 lea	 eax, DWORD PTR [ecx+eax*4]

; 407  : 	}

  00012	c2 04 00	 ret	 4
$LN1@GetKeyAt:
  00015	6a 00		 push	 0
  00017	6a 00		 push	 0
  00019	6a 01		 push	 1
  0001b	68 8c 00 00 c0	 push	 -1073741684		; c000008cH
  00020	ff 15 00 00 00
	00		 call	 DWORD PTR __imp__RaiseException@16
$LN7@GetKeyAt:
  00026	cc		 int	 3
?GetKeyAt@?$CSimpleMap@PADPA_WVCExpansionVectorEqualHelper@ATL@@@ATL@@QBEAAPADH@Z ENDP ; ATL::CSimpleMap<char *,wchar_t *,ATL::CExpansionVectorEqualHelper>::GetKeyAt
_TEXT	ENDS
PUBLIC	?GetValueAt@?$CSimpleMap@PADPA_WVCExpansionVectorEqualHelper@ATL@@@ATL@@QBEAAPA_WH@Z ; ATL::CSimpleMap<char *,wchar_t *,ATL::CExpansionVectorEqualHelper>::GetValueAt
; Function compile flags: /Ogtpy
;	COMDAT ?GetValueAt@?$CSimpleMap@PADPA_WVCExpansionVectorEqualHelper@ATL@@@ATL@@QBEAAPA_WH@Z
_TEXT	SEGMENT
_nIndex$ = 8						; size = 4
?GetValueAt@?$CSimpleMap@PADPA_WVCExpansionVectorEqualHelper@ATL@@@ATL@@QBEAAPA_WH@Z PROC ; ATL::CSimpleMap<char *,wchar_t *,ATL::CExpansionVectorEqualHelper>::GetValueAt, COMDAT
; _this$ = ecx

; 410  : 		ATLASSERT(nIndex >= 0 && nIndex < m_nSize);
; 411  : 		if(nIndex < 0 || nIndex >= m_nSize)

  00000	8b 44 24 04	 mov	 eax, DWORD PTR _nIndex$[esp-4]
  00004	85 c0		 test	 eax, eax
  00006	7c 0e		 jl	 SHORT $LN1@GetValueAt
  00008	3b 41 08	 cmp	 eax, DWORD PTR [ecx+8]
  0000b	7d 09		 jge	 SHORT $LN1@GetValueAt

; 412  : 			_AtlRaiseException((DWORD)EXCEPTION_ARRAY_BOUNDS_EXCEEDED);	
; 413  : 			
; 414  : 		return m_aVal[nIndex];

  0000d	8b 49 04	 mov	 ecx, DWORD PTR [ecx+4]
  00010	8d 04 81	 lea	 eax, DWORD PTR [ecx+eax*4]

; 415  : 	}

  00013	c2 04 00	 ret	 4
$LN1@GetValueAt:
  00016	6a 00		 push	 0
  00018	6a 00		 push	 0
  0001a	6a 01		 push	 1
  0001c	68 8c 00 00 c0	 push	 -1073741684		; c000008cH
  00021	ff 15 00 00 00
	00		 call	 DWORD PTR __imp__RaiseException@16
$LN7@GetValueAt:
  00027	cc		 int	 3
?GetValueAt@?$CSimpleMap@PADPA_WVCExpansionVectorEqualHelper@ATL@@@ATL@@QBEAAPA_WH@Z ENDP ; ATL::CSimpleMap<char *,wchar_t *,ATL::CExpansionVectorEqualHelper>::GetValueAt
_TEXT	ENDS
PUBLIC	??0?$CAutoVectorPtr@D@ATL@@QAE@XZ		; ATL::CAutoVectorPtr<char>::CAutoVectorPtr<char>
; Function compile flags: /Ogtpy
; File c:\program files (x86)\microsoft visual studio 9.0\vc\atlmfc\include\atlbase.h
;	COMDAT ??0?$CAutoVectorPtr@D@ATL@@QAE@XZ
_TEXT	SEGMENT
??0?$CAutoVectorPtr@D@ATL@@QAE@XZ PROC			; ATL::CAutoVectorPtr<char>::CAutoVectorPtr<char>, COMDAT
; _this$ = ecx

; 605  : 	{

  00000	8b c1		 mov	 eax, ecx
  00002	c7 00 00 00 00
	00		 mov	 DWORD PTR [eax], 0

; 606  : 	}

  00008	c3		 ret	 0
??0?$CAutoVectorPtr@D@ATL@@QAE@XZ ENDP			; ATL::CAutoVectorPtr<char>::CAutoVectorPtr<char>
_TEXT	ENDS
PUBLIC	?Attach@?$CAutoVectorPtr@D@ATL@@QAEXPAD@Z	; ATL::CAutoVectorPtr<char>::Attach
; Function compile flags: /Ogtpy
;	COMDAT ?Attach@?$CAutoVectorPtr@D@ATL@@QAEXPAD@Z
_TEXT	SEGMENT
_p$ = 8							; size = 4
?Attach@?$CAutoVectorPtr@D@ATL@@QAEXPAD@Z PROC		; ATL::CAutoVectorPtr<char>::Attach, COMDAT
; _this$ = ecx

; 686  : 		ATLASSUME( m_p == NULL );
; 687  : 		m_p = p;

  00000	8b 44 24 04	 mov	 eax, DWORD PTR _p$[esp-4]
  00004	89 01		 mov	 DWORD PTR [ecx], eax

; 688  : 	}

  00006	c2 04 00	 ret	 4
?Attach@?$CAutoVectorPtr@D@ATL@@QAEXPAD@Z ENDP		; ATL::CAutoVectorPtr<char>::Attach
_TEXT	ENDS
PUBLIC	?Detach@?$CAutoVectorPtr@D@ATL@@QAEPADXZ	; ATL::CAutoVectorPtr<char>::Detach
; Function compile flags: /Ogtpy
;	COMDAT ?Detach@?$CAutoVectorPtr@D@ATL@@QAEPADXZ
_TEXT	SEGMENT
?Detach@?$CAutoVectorPtr@D@ATL@@QAEPADXZ PROC		; ATL::CAutoVectorPtr<char>::Detach, COMDAT
; _this$ = ecx

; 692  : 		T* p;
; 693  : 
; 694  : 		p = m_p;

  00000	8b 01		 mov	 eax, DWORD PTR [ecx]

; 695  : 		m_p = NULL;

  00002	c7 01 00 00 00
	00		 mov	 DWORD PTR [ecx], 0

; 696  : 
; 697  : 		return( p );
; 698  : 	}

  00008	c3		 ret	 0
?Detach@?$CAutoVectorPtr@D@ATL@@QAEPADXZ ENDP		; ATL::CAutoVectorPtr<char>::Detach
_TEXT	ENDS
PUBLIC	??0?$CAutoVectorPtr@_W@ATL@@QAE@XZ		; ATL::CAutoVectorPtr<wchar_t>::CAutoVectorPtr<wchar_t>
; Function compile flags: /Ogtpy
;	COMDAT ??0?$CAutoVectorPtr@_W@ATL@@QAE@XZ
_TEXT	SEGMENT
??0?$CAutoVectorPtr@_W@ATL@@QAE@XZ PROC			; ATL::CAutoVectorPtr<wchar_t>::CAutoVectorPtr<wchar_t>, COMDAT
; _this$ = ecx

; 605  : 	{

  00000	8b c1		 mov	 eax, ecx
  00002	c7 00 00 00 00
	00		 mov	 DWORD PTR [eax], 0

; 606  : 	}

  00008	c3		 ret	 0
??0?$CAutoVectorPtr@_W@ATL@@QAE@XZ ENDP			; ATL::CAutoVectorPtr<wchar_t>::CAutoVectorPtr<wchar_t>
_TEXT	ENDS
PUBLIC	?Attach@?$CAutoVectorPtr@_W@ATL@@QAEXPA_W@Z	; ATL::CAutoVectorPtr<wchar_t>::Attach
; Function compile flags: /Ogtpy
;	COMDAT ?Attach@?$CAutoVectorPtr@_W@ATL@@QAEXPA_W@Z
_TEXT	SEGMENT
_p$ = 8							; size = 4
?Attach@?$CAutoVectorPtr@_W@ATL@@QAEXPA_W@Z PROC	; ATL::CAutoVectorPtr<wchar_t>::Attach, COMDAT
; _this$ = ecx

; 686  : 		ATLASSUME( m_p == NULL );
; 687  : 		m_p = p;

  00000	8b 44 24 04	 mov	 eax, DWORD PTR _p$[esp-4]
  00004	89 01		 mov	 DWORD PTR [ecx], eax

; 688  : 	}

  00006	c2 04 00	 ret	 4
?Attach@?$CAutoVectorPtr@_W@ATL@@QAEXPA_W@Z ENDP	; ATL::CAutoVectorPtr<wchar_t>::Attach
_TEXT	ENDS
PUBLIC	?Detach@?$CAutoVectorPtr@_W@ATL@@QAEPA_WXZ	; ATL::CAutoVectorPtr<wchar_t>::Detach
; Function compile flags: /Ogtpy
;	COMDAT ?Detach@?$CAutoVectorPtr@_W@ATL@@QAEPA_WXZ
_TEXT	SEGMENT
?Detach@?$CAutoVectorPtr@_W@ATL@@QAEPA_WXZ PROC		; ATL::CAutoVectorPtr<wchar_t>::Detach, COMDAT
; _this$ = ecx

; 692  : 		T* p;
; 693  : 
; 694  : 		p = m_p;

  00000	8b 01		 mov	 eax, DWORD PTR [ecx]

; 695  : 		m_p = NULL;

  00002	c7 01 00 00 00
	00		 mov	 DWORD PTR [ecx], 0

; 696  : 
; 697  : 		return( p );
; 698  : 	}

  00008	c3		 ret	 0
?Detach@?$CAutoVectorPtr@_W@ATL@@QAEPA_WXZ ENDP		; ATL::CAutoVectorPtr<wchar_t>::Detach
_TEXT	ENDS
PUBLIC	??0?$CTempBuffer@D$0EAA@VCCRTAllocator@ATL@@@ATL@@QAE@XZ ; ATL::CTempBuffer<char,1024,ATL::CCRTAllocator>::CTempBuffer<char,1024,ATL::CCRTAllocator>
; Function compile flags: /Ogtpy
; File c:\program files (x86)\microsoft visual studio 9.0\vc\atlmfc\include\atlalloc.h
;	COMDAT ??0?$CTempBuffer@D$0EAA@VCCRTAllocator@ATL@@@ATL@@QAE@XZ
_TEXT	SEGMENT
??0?$CTempBuffer@D$0EAA@VCCRTAllocator@ATL@@@ATL@@QAE@XZ PROC ; ATL::CTempBuffer<char,1024,ATL::CCRTAllocator>::CTempBuffer<char,1024,ATL::CCRTAllocator>, COMDAT
; _this$ = ecx

; 455  : 	{

  00000	8b c1		 mov	 eax, ecx
  00002	c7 00 00 00 00
	00		 mov	 DWORD PTR [eax], 0

; 456  : 	}

  00008	c3		 ret	 0
??0?$CTempBuffer@D$0EAA@VCCRTAllocator@ATL@@@ATL@@QAE@XZ ENDP ; ATL::CTempBuffer<char,1024,ATL::CCRTAllocator>::CTempBuffer<char,1024,ATL::CCRTAllocator>
_TEXT	ENDS
PUBLIC	??B?$CTempBuffer@D$0EAA@VCCRTAllocator@ATL@@@ATL@@QBEPADXZ ; ATL::CTempBuffer<char,1024,ATL::CCRTAllocator>::operator char *
; Function compile flags: /Ogtpy
;	COMDAT ??B?$CTempBuffer@D$0EAA@VCCRTAllocator@ATL@@@ATL@@QBEPADXZ
_TEXT	SEGMENT
??B?$CTempBuffer@D$0EAA@VCCRTAllocator@ATL@@@ATL@@QBEPADXZ PROC ; ATL::CTempBuffer<char,1024,ATL::CCRTAllocator>::operator char *, COMDAT
; _this$ = ecx

; 473  : 		return( m_p );

  00000	8b 01		 mov	 eax, DWORD PTR [ecx]

; 474  : 	}

  00002	c3		 ret	 0
??B?$CTempBuffer@D$0EAA@VCCRTAllocator@ATL@@@ATL@@QBEPADXZ ENDP ; ATL::CTempBuffer<char,1024,ATL::CCRTAllocator>::operator char *
_TEXT	ENDS
PUBLIC	??0?$CTempBuffer@D$0BAA@VCCRTAllocator@ATL@@@ATL@@QAE@XZ ; ATL::CTempBuffer<char,256,ATL::CCRTAllocator>::CTempBuffer<char,256,ATL::CCRTAllocator>
; Function compile flags: /Ogtpy
;	COMDAT ??0?$CTempBuffer@D$0BAA@VCCRTAllocator@ATL@@@ATL@@QAE@XZ
_TEXT	SEGMENT
??0?$CTempBuffer@D$0BAA@VCCRTAllocator@ATL@@@ATL@@QAE@XZ PROC ; ATL::CTempBuffer<char,256,ATL::CCRTAllocator>::CTempBuffer<char,256,ATL::CCRTAllocator>, COMDAT
; _this$ = ecx

; 455  : 	{

  00000	8b c1		 mov	 eax, ecx
  00002	c7 00 00 00 00
	00		 mov	 DWORD PTR [eax], 0

; 456  : 	}

  00008	c3		 ret	 0
??0?$CTempBuffer@D$0BAA@VCCRTAllocator@ATL@@@ATL@@QAE@XZ ENDP ; ATL::CTempBuffer<char,256,ATL::CCRTAllocator>::CTempBuffer<char,256,ATL::CCRTAllocator>
_TEXT	ENDS
PUBLIC	??B?$CTempBuffer@D$0BAA@VCCRTAllocator@ATL@@@ATL@@QBEPADXZ ; ATL::CTempBuffer<char,256,ATL::CCRTAllocator>::operator char *
; Function compile flags: /Ogtpy
;	COMDAT ??B?$CTempBuffer@D$0BAA@VCCRTAllocator@ATL@@@ATL@@QBEPADXZ
_TEXT	SEGMENT
??B?$CTempBuffer@D$0BAA@VCCRTAllocator@ATL@@@ATL@@QBEPADXZ PROC ; ATL::CTempBuffer<char,256,ATL::CCRTAllocator>::operator char *, COMDAT
; _this$ = ecx

; 473  : 		return( m_p );

  00000	8b 01		 mov	 eax, DWORD PTR [ecx]

; 474  : 	}

  00002	c3		 ret	 0
??B?$CTempBuffer@D$0BAA@VCCRTAllocator@ATL@@@ATL@@QBEPADXZ ENDP ; ATL::CTempBuffer<char,256,ATL::CCRTAllocator>::operator char *
_TEXT	ENDS
PUBLIC	??0?$CTempBuffer@E$0BAA@VCCRTAllocator@ATL@@@ATL@@QAE@XZ ; ATL::CTempBuffer<unsigned char,256,ATL::CCRTAllocator>::CTempBuffer<unsigned char,256,ATL::CCRTAllocator>
; Function compile flags: /Ogtpy
;	COMDAT ??0?$CTempBuffer@E$0BAA@VCCRTAllocator@ATL@@@ATL@@QAE@XZ
_TEXT	SEGMENT
??0?$CTempBuffer@E$0BAA@VCCRTAllocator@ATL@@@ATL@@QAE@XZ PROC ; ATL::CTempBuffer<unsigned char,256,ATL::CCRTAllocator>::CTempBuffer<unsigned char,256,ATL::CCRTAllocator>, COMDAT
; _this$ = ecx

; 455  : 	{

  00000	8b c1		 mov	 eax, ecx
  00002	c7 00 00 00 00
	00		 mov	 DWORD PTR [eax], 0

; 456  : 	}

  00008	c3		 ret	 0
??0?$CTempBuffer@E$0BAA@VCCRTAllocator@ATL@@@ATL@@QAE@XZ ENDP ; ATL::CTempBuffer<unsigned char,256,ATL::CCRTAllocator>::CTempBuffer<unsigned char,256,ATL::CCRTAllocator>
_TEXT	ENDS
PUBLIC	??B?$CTempBuffer@E$0BAA@VCCRTAllocator@ATL@@@ATL@@QBEPAEXZ ; ATL::CTempBuffer<unsigned char,256,ATL::CCRTAllocator>::operator unsigned char *
; Function compile flags: /Ogtpy
;	COMDAT ??B?$CTempBuffer@E$0BAA@VCCRTAllocator@ATL@@@ATL@@QBEPAEXZ
_TEXT	SEGMENT
??B?$CTempBuffer@E$0BAA@VCCRTAllocator@ATL@@@ATL@@QBEPAEXZ PROC ; ATL::CTempBuffer<unsigned char,256,ATL::CCRTAllocator>::operator unsigned char *, COMDAT
; _this$ = ecx

; 473  : 		return( m_p );

  00000	8b 01		 mov	 eax, DWORD PTR [ecx]

; 474  : 	}

  00002	c3		 ret	 0
??B?$CTempBuffer@E$0BAA@VCCRTAllocator@ATL@@@ATL@@QBEPAEXZ ENDP ; ATL::CTempBuffer<unsigned char,256,ATL::CCRTAllocator>::operator unsigned char *
_TEXT	ENDS
PUBLIC	??1?$CComPtrBase@UITypeLib@@@ATL@@QAE@XZ	; ATL::CComPtrBase<ITypeLib>::~CComPtrBase<ITypeLib>
; Function compile flags: /Ogtpy
; File c:\program files (x86)\microsoft visual studio 9.0\vc\atlmfc\include\atlcomcli.h
;	COMDAT ??1?$CComPtrBase@UITypeLib@@@ATL@@QAE@XZ
_TEXT	SEGMENT
??1?$CComPtrBase@UITypeLib@@@ATL@@QAE@XZ PROC		; ATL::CComPtrBase<ITypeLib>::~CComPtrBase<ITypeLib>, COMDAT
; _this$ = ecx

; 151  : 		if (p)

  00000	8b 01		 mov	 eax, DWORD PTR [ecx]
  00002	85 c0		 test	 eax, eax
  00004	74 08		 je	 SHORT $LN1@CComPtrBas

; 152  : 			p->Release();

  00006	8b 08		 mov	 ecx, DWORD PTR [eax]
  00008	8b 51 08	 mov	 edx, DWORD PTR [ecx+8]
  0000b	50		 push	 eax
  0000c	ff d2		 call	 edx
$LN1@CComPtrBas:

; 153  : 	}

  0000e	c3		 ret	 0
??1?$CComPtrBase@UITypeLib@@@ATL@@QAE@XZ ENDP		; ATL::CComPtrBase<ITypeLib>::~CComPtrBase<ITypeLib>
_TEXT	ENDS
PUBLIC	??B?$CComPtrBase@UITypeLib@@@ATL@@QBEPAUITypeLib@@XZ ; ATL::CComPtrBase<ITypeLib>::operator ITypeLib *
; Function compile flags: /Ogtpy
;	COMDAT ??B?$CComPtrBase@UITypeLib@@@ATL@@QBEPAUITypeLib@@XZ
_TEXT	SEGMENT
??B?$CComPtrBase@UITypeLib@@@ATL@@QBEPAUITypeLib@@XZ PROC ; ATL::CComPtrBase<ITypeLib>::operator ITypeLib *, COMDAT
; _this$ = ecx

; 156  : 		return p;

  00000	8b 01		 mov	 eax, DWORD PTR [ecx]

; 157  : 	}

  00002	c3		 ret	 0
??B?$CComPtrBase@UITypeLib@@@ATL@@QBEPAUITypeLib@@XZ ENDP ; ATL::CComPtrBase<ITypeLib>::operator ITypeLib *
_TEXT	ENDS
PUBLIC	??I?$CComPtrBase@UITypeLib@@@ATL@@QAEPAPAUITypeLib@@XZ ; ATL::CComPtrBase<ITypeLib>::operator&
; Function compile flags: /Ogtpy
;	COMDAT ??I?$CComPtrBase@UITypeLib@@@ATL@@QAEPAPAUITypeLib@@XZ
_TEXT	SEGMENT
??I?$CComPtrBase@UITypeLib@@@ATL@@QAEPAPAUITypeLib@@XZ PROC ; ATL::CComPtrBase<ITypeLib>::operator&, COMDAT
; _this$ = ecx

; 166  : 	{

  00000	8b c1		 mov	 eax, ecx

; 167  : 		ATLASSERT(p==NULL);
; 168  : 		return &p;
; 169  : 	}

  00002	c3		 ret	 0
??I?$CComPtrBase@UITypeLib@@@ATL@@QAEPAPAUITypeLib@@XZ ENDP ; ATL::CComPtrBase<ITypeLib>::operator&
_TEXT	ENDS
PUBLIC	?FindKey@?$CSimpleMap@PADPA_WVCExpansionVectorEqualHelper@ATL@@@ATL@@QBEHABQAD@Z ; ATL::CSimpleMap<char *,wchar_t *,ATL::CExpansionVectorEqualHelper>::FindKey
; Function compile flags: /Ogtpy
; File c:\program files (x86)\microsoft visual studio 9.0\vc\atlmfc\include\atlsimpcoll.h
;	COMDAT ?FindKey@?$CSimpleMap@PADPA_WVCExpansionVectorEqualHelper@ATL@@@ATL@@QBEHABQAD@Z
_TEXT	SEGMENT
_key$ = 8						; size = 4
?FindKey@?$CSimpleMap@PADPA_WVCExpansionVectorEqualHelper@ATL@@@ATL@@QBEHABQAD@Z PROC ; ATL::CSimpleMap<char *,wchar_t *,ATL::CExpansionVectorEqualHelper>::FindKey, COMDAT
; _this$ = ecx

; 418  : 	{

  00000	53		 push	 ebx
  00001	55		 push	 ebp
  00002	56		 push	 esi
  00003	57		 push	 edi
  00004	8b f9		 mov	 edi, ecx

; 419  : 		for(int i = 0; i < m_nSize; i++)

  00006	33 f6		 xor	 esi, esi
  00008	39 77 08	 cmp	 DWORD PTR [edi+8], esi
  0000b	7e 1f		 jle	 SHORT $LN2@FindKey
  0000d	8b 5c 24 14	 mov	 ebx, DWORD PTR _key$[esp+12]
  00011	8b 2d 00 00 00
	00		 mov	 ebp, DWORD PTR __imp__lstrcmpiA@8
$LL4@FindKey:

; 420  : 		{
; 421  : 			if(TEqual::IsEqualKey(m_aKey[i], key))

  00017	8b 03		 mov	 eax, DWORD PTR [ebx]
  00019	8b 0f		 mov	 ecx, DWORD PTR [edi]
  0001b	8b 0c b1	 mov	 ecx, DWORD PTR [ecx+esi*4]
  0001e	50		 push	 eax
  0001f	51		 push	 ecx
  00020	ff d5		 call	 ebp
  00022	85 c0		 test	 eax, eax
  00024	74 10		 je	 SHORT $LN11@FindKey
  00026	46		 inc	 esi
  00027	3b 77 08	 cmp	 esi, DWORD PTR [edi+8]
  0002a	7c eb		 jl	 SHORT $LL4@FindKey
$LN2@FindKey:
  0002c	5f		 pop	 edi
  0002d	5e		 pop	 esi
  0002e	5d		 pop	 ebp

; 423  : 		}
; 424  : 		return -1;  // not found

  0002f	83 c8 ff	 or	 eax, -1
  00032	5b		 pop	 ebx

; 425  : 	}

  00033	c2 04 00	 ret	 4
$LN11@FindKey:
  00036	5f		 pop	 edi

; 422  : 				return i;

  00037	8b c6		 mov	 eax, esi
  00039	5e		 pop	 esi
  0003a	5d		 pop	 ebp
  0003b	5b		 pop	 ebx

; 425  : 	}

  0003c	c2 04 00	 ret	 4
?FindKey@?$CSimpleMap@PADPA_WVCExpansionVectorEqualHelper@ATL@@@ATL@@QBEHABQAD@Z ENDP ; ATL::CSimpleMap<char *,wchar_t *,ATL::CExpansionVectorEqualHelper>::FindKey
_TEXT	ENDS
PUBLIC	?Free@?$CAutoVectorPtr@D@ATL@@QAEXXZ		; ATL::CAutoVectorPtr<char>::Free
EXTRN	??_V@YAXPAX@Z:PROC				; operator delete[]
; Function compile flags: /Ogtpy
; File c:\program files (x86)\microsoft visual studio 9.0\vc\atlmfc\include\atlbase.h
;	COMDAT ?Free@?$CAutoVectorPtr@D@ATL@@QAEXXZ
_TEXT	SEGMENT
?Free@?$CAutoVectorPtr@D@ATL@@QAEXXZ PROC		; ATL::CAutoVectorPtr<char>::Free, COMDAT
; _this$ = ecx

; 701  : 	{

  00000	56		 push	 esi
  00001	8b f1		 mov	 esi, ecx

; 702  : 		delete[] m_p;

  00003	8b 06		 mov	 eax, DWORD PTR [esi]
  00005	50		 push	 eax
  00006	e8 00 00 00 00	 call	 ??_V@YAXPAX@Z		; operator delete[]
  0000b	83 c4 04	 add	 esp, 4

; 703  : 		m_p = NULL;

  0000e	c7 06 00 00 00
	00		 mov	 DWORD PTR [esi], 0
  00014	5e		 pop	 esi

; 704  : 	}

  00015	c3		 ret	 0
?Free@?$CAutoVectorPtr@D@ATL@@QAEXXZ ENDP		; ATL::CAutoVectorPtr<char>::Free
_TEXT	ENDS
PUBLIC	?Free@?$CAutoVectorPtr@_W@ATL@@QAEXXZ		; ATL::CAutoVectorPtr<wchar_t>::Free
; Function compile flags: /Ogtpy
;	COMDAT ?Free@?$CAutoVectorPtr@_W@ATL@@QAEXXZ
_TEXT	SEGMENT
?Free@?$CAutoVectorPtr@_W@ATL@@QAEXXZ PROC		; ATL::CAutoVectorPtr<wchar_t>::Free, COMDAT
; _this$ = ecx

; 701  : 	{

  00000	56		 push	 esi
  00001	8b f1		 mov	 esi, ecx

; 702  : 		delete[] m_p;

  00003	8b 06		 mov	 eax, DWORD PTR [esi]
  00005	50		 push	 eax
  00006	e8 00 00 00 00	 call	 ??_V@YAXPAX@Z		; operator delete[]
  0000b	83 c4 04	 add	 esp, 4

; 703  : 		m_p = NULL;

  0000e	c7 06 00 00 00
	00		 mov	 DWORD PTR [esi], 0
  00014	5e		 pop	 esi

; 704  : 	}

  00015	c3		 ret	 0
?Free@?$CAutoVectorPtr@_W@ATL@@QAEXXZ ENDP		; ATL::CAutoVectorPtr<wchar_t>::Free
_TEXT	ENDS
PUBLIC	?FreeHeap@?$CTempBuffer@D$0EAA@VCCRTAllocator@ATL@@@ATL@@AAEXXZ ; ATL::CTempBuffer<char,1024,ATL::CCRTAllocator>::FreeHeap
; Function compile flags: /Ogtpy
; File c:\program files (x86)\microsoft visual studio 9.0\vc\atlmfc\include\atlalloc.h
;	COMDAT ?FreeHeap@?$CTempBuffer@D$0EAA@VCCRTAllocator@ATL@@@ATL@@AAEXXZ
_TEXT	SEGMENT
?FreeHeap@?$CTempBuffer@D$0EAA@VCCRTAllocator@ATL@@@ATL@@AAEXXZ PROC ; ATL::CTempBuffer<char,1024,ATL::CCRTAllocator>::FreeHeap, COMDAT
; _this$ = ecx

; 558  : 		Allocator::Free( m_p );

  00000	8b 01		 mov	 eax, DWORD PTR [ecx]
  00002	50		 push	 eax
  00003	e8 00 00 00 00	 call	 _free
  00008	59		 pop	 ecx

; 559  : 	}

  00009	c3		 ret	 0
?FreeHeap@?$CTempBuffer@D$0EAA@VCCRTAllocator@ATL@@@ATL@@AAEXXZ ENDP ; ATL::CTempBuffer<char,1024,ATL::CCRTAllocator>::FreeHeap
_TEXT	ENDS
PUBLIC	?FreeHeap@?$CTempBuffer@D$0BAA@VCCRTAllocator@ATL@@@ATL@@AAEXXZ ; ATL::CTempBuffer<char,256,ATL::CCRTAllocator>::FreeHeap
; Function compile flags: /Ogtpy
;	COMDAT ?FreeHeap@?$CTempBuffer@D$0BAA@VCCRTAllocator@ATL@@@ATL@@AAEXXZ
_TEXT	SEGMENT
?FreeHeap@?$CTempBuffer@D$0BAA@VCCRTAllocator@ATL@@@ATL@@AAEXXZ PROC ; ATL::CTempBuffer<char,256,ATL::CCRTAllocator>::FreeHeap, COMDAT
; _this$ = ecx

; 558  : 		Allocator::Free( m_p );

  00000	8b 01		 mov	 eax, DWORD PTR [ecx]
  00002	50		 push	 eax
  00003	e8 00 00 00 00	 call	 _free
  00008	59		 pop	 ecx

; 559  : 	}

  00009	c3		 ret	 0
?FreeHeap@?$CTempBuffer@D$0BAA@VCCRTAllocator@ATL@@@ATL@@AAEXXZ ENDP ; ATL::CTempBuffer<char,256,ATL::CCRTAllocator>::FreeHeap
_TEXT	ENDS
PUBLIC	?FreeHeap@?$CTempBuffer@E$0BAA@VCCRTAllocator@ATL@@@ATL@@AAEXXZ ; ATL::CTempBuffer<unsigned char,256,ATL::CCRTAllocator>::FreeHeap
; Function compile flags: /Ogtpy
;	COMDAT ?FreeHeap@?$CTempBuffer@E$0BAA@VCCRTAllocator@ATL@@@ATL@@AAEXXZ
_TEXT	SEGMENT
?FreeHeap@?$CTempBuffer@E$0BAA@VCCRTAllocator@ATL@@@ATL@@AAEXXZ PROC ; ATL::CTempBuffer<unsigned char,256,ATL::CCRTAllocator>::FreeHeap, COMDAT
; _this$ = ecx

; 558  : 		Allocator::Free( m_p );

  00000	8b 01		 mov	 eax, DWORD PTR [ecx]
  00002	50		 push	 eax
  00003	e8 00 00 00 00	 call	 _free
  00008	59		 pop	 ecx

; 559  : 	}

  00009	c3		 ret	 0
?FreeHeap@?$CTempBuffer@E$0BAA@VCCRTAllocator@ATL@@@ATL@@AAEXXZ ENDP ; ATL::CTempBuffer<unsigned char,256,ATL::CCRTAllocator>::FreeHeap
_TEXT	ENDS
PUBLIC	??0?$CComPtrBase@UITypeLib@@@ATL@@IAE@XZ	; ATL::CComPtrBase<ITypeLib>::CComPtrBase<ITypeLib>
; Function compile flags: /Ogtpy
; File c:\program files (x86)\microsoft visual studio 9.0\vc\atlmfc\include\atlcomcli.h
;	COMDAT ??0?$CComPtrBase@UITypeLib@@@ATL@@IAE@XZ
_TEXT	SEGMENT
??0?$CComPtrBase@UITypeLib@@@ATL@@IAE@XZ PROC		; ATL::CComPtrBase<ITypeLib>::CComPtrBase<ITypeLib>, COMDAT
; _this$ = ecx

; 131  : 	CComPtrBase() throw()

  00000	8b c1		 mov	 eax, ecx

; 132  : 	{
; 133  : 		p = NULL;

  00002	c7 00 00 00 00
	00		 mov	 DWORD PTR [eax], 0

; 134  : 	}

  00008	c3		 ret	 0
??0?$CComPtrBase@UITypeLib@@@ATL@@IAE@XZ ENDP		; ATL::CComPtrBase<ITypeLib>::CComPtrBase<ITypeLib>
_TEXT	ENDS
PUBLIC	?GetData@CAtlSafeAllocBufferNode@?$CAtlSafeAllocBufferManager@VCCRTAllocator@ATL@@@_ATL_SAFE_ALLOCA_IMPL@ATL@@QAEPAXXZ ; ATL::_ATL_SAFE_ALLOCA_IMPL::CAtlSafeAllocBufferManager<ATL::CCRTAllocator>::CAtlSafeAllocBufferNode::GetData
; Function compile flags: /Ogtpy
; File c:\program files (x86)\microsoft visual studio 9.0\vc\atlmfc\include\atlalloc.h
;	COMDAT ?GetData@CAtlSafeAllocBufferNode@?$CAtlSafeAllocBufferManager@VCCRTAllocator@ATL@@@_ATL_SAFE_ALLOCA_IMPL@ATL@@QAEPAXXZ
_TEXT	SEGMENT
?GetData@CAtlSafeAllocBufferNode@?$CAtlSafeAllocBufferManager@VCCRTAllocator@ATL@@@_ATL_SAFE_ALLOCA_IMPL@ATL@@QAEPAXXZ PROC ; ATL::_ATL_SAFE_ALLOCA_IMPL::CAtlSafeAllocBufferManager<ATL::CCRTAllocator>::CAtlSafeAllocBufferNode::GetData, COMDAT
; _this$ = ecx

; 633  : 			return (this + 1);

  00000	8d 41 08	 lea	 eax, DWORD PTR [ecx+8]

; 634  : 		}

  00003	c3		 ret	 0
?GetData@CAtlSafeAllocBufferNode@?$CAtlSafeAllocBufferManager@VCCRTAllocator@ATL@@@_ATL_SAFE_ALLOCA_IMPL@ATL@@QAEPAXXZ ENDP ; ATL::_ATL_SAFE_ALLOCA_IMPL::CAtlSafeAllocBufferManager<ATL::CCRTAllocator>::CAtlSafeAllocBufferNode::GetData
_TEXT	ENDS
PUBLIC	?AllocateHeap@?$CTempBuffer@D$0EAA@VCCRTAllocator@ATL@@@ATL@@AAEXI@Z ; ATL::CTempBuffer<char,1024,ATL::CCRTAllocator>::AllocateHeap
; Function compile flags: /Ogtpy
;	COMDAT ?AllocateHeap@?$CTempBuffer@D$0EAA@VCCRTAllocator@ATL@@@ATL@@AAEXI@Z
_TEXT	SEGMENT
_nBytes$ = 8						; size = 4
?AllocateHeap@?$CTempBuffer@D$0EAA@VCCRTAllocator@ATL@@@ATL@@AAEXI@Z PROC ; ATL::CTempBuffer<char,1024,ATL::CCRTAllocator>::AllocateHeap, COMDAT
; _this$ = ecx

; 538  : 		T* p = static_cast< T* >( Allocator::Allocate( nBytes ) );

  00000	8b 44 24 04	 mov	 eax, DWORD PTR _nBytes$[esp-4]
  00004	56		 push	 esi
  00005	50		 push	 eax
  00006	8b f1		 mov	 esi, ecx
  00008	e8 00 00 00 00	 call	 _malloc
  0000d	83 c4 04	 add	 esp, 4

; 539  : 		if( p == NULL )

  00010	85 c0		 test	 eax, eax
  00012	75 0a		 jne	 SHORT $LN1@AllocateHe

; 540  : 		{
; 541  : 			AtlThrow( E_OUTOFMEMORY );

  00014	68 0e 00 07 80	 push	 -2147024882		; 8007000eH
  00019	e8 00 00 00 00	 call	 ?AtlThrowImpl@ATL@@YGXJ@Z ; ATL::AtlThrowImpl
$LN1@AllocateHe:

; 542  : 		}
; 543  : 		m_p = p;

  0001e	89 06		 mov	 DWORD PTR [esi], eax
  00020	5e		 pop	 esi

; 544  : 	}

  00021	c2 04 00	 ret	 4
$LN6@AllocateHe:
?AllocateHeap@?$CTempBuffer@D$0EAA@VCCRTAllocator@ATL@@@ATL@@AAEXI@Z ENDP ; ATL::CTempBuffer<char,1024,ATL::CCRTAllocator>::AllocateHeap
_TEXT	ENDS
PUBLIC	?AllocateHeap@?$CTempBuffer@D$0BAA@VCCRTAllocator@ATL@@@ATL@@AAEXI@Z ; ATL::CTempBuffer<char,256,ATL::CCRTAllocator>::AllocateHeap
; Function compile flags: /Ogtpy
;	COMDAT ?AllocateHeap@?$CTempBuffer@D$0BAA@VCCRTAllocator@ATL@@@ATL@@AAEXI@Z
_TEXT	SEGMENT
_nBytes$ = 8						; size = 4
?AllocateHeap@?$CTempBuffer@D$0BAA@VCCRTAllocator@ATL@@@ATL@@AAEXI@Z PROC ; ATL::CTempBuffer<char,256,ATL::CCRTAllocator>::AllocateHeap, COMDAT
; _this$ = ecx

; 538  : 		T* p = static_cast< T* >( Allocator::Allocate( nBytes ) );

  00000	8b 44 24 04	 mov	 eax, DWORD PTR _nBytes$[esp-4]
  00004	56		 push	 esi
  00005	50		 push	 eax
  00006	8b f1		 mov	 esi, ecx
  00008	e8 00 00 00 00	 call	 _malloc
  0000d	83 c4 04	 add	 esp, 4

; 539  : 		if( p == NULL )

  00010	85 c0		 test	 eax, eax
  00012	75 0a		 jne	 SHORT $LN1@AllocateHe@2

; 540  : 		{
; 541  : 			AtlThrow( E_OUTOFMEMORY );

  00014	68 0e 00 07 80	 push	 -2147024882		; 8007000eH
  00019	e8 00 00 00 00	 call	 ?AtlThrowImpl@ATL@@YGXJ@Z ; ATL::AtlThrowImpl
$LN1@AllocateHe@2:

; 542  : 		}
; 543  : 		m_p = p;

  0001e	89 06		 mov	 DWORD PTR [esi], eax
  00020	5e		 pop	 esi

; 544  : 	}

  00021	c2 04 00	 ret	 4
$LN6@AllocateHe@2:
?AllocateHeap@?$CTempBuffer@D$0BAA@VCCRTAllocator@ATL@@@ATL@@AAEXI@Z ENDP ; ATL::CTempBuffer<char,256,ATL::CCRTAllocator>::AllocateHeap
_TEXT	ENDS
PUBLIC	?AllocateHeap@?$CTempBuffer@E$0BAA@VCCRTAllocator@ATL@@@ATL@@AAEXI@Z ; ATL::CTempBuffer<unsigned char,256,ATL::CCRTAllocator>::AllocateHeap
; Function compile flags: /Ogtpy
;	COMDAT ?AllocateHeap@?$CTempBuffer@E$0BAA@VCCRTAllocator@ATL@@@ATL@@AAEXI@Z
_TEXT	SEGMENT
_nBytes$ = 8						; size = 4
?AllocateHeap@?$CTempBuffer@E$0BAA@VCCRTAllocator@ATL@@@ATL@@AAEXI@Z PROC ; ATL::CTempBuffer<unsigned char,256,ATL::CCRTAllocator>::AllocateHeap, COMDAT
; _this$ = ecx

; 538  : 		T* p = static_cast< T* >( Allocator::Allocate( nBytes ) );

  00000	8b 44 24 04	 mov	 eax, DWORD PTR _nBytes$[esp-4]
  00004	56		 push	 esi
  00005	50		 push	 eax
  00006	8b f1		 mov	 esi, ecx
  00008	e8 00 00 00 00	 call	 _malloc
  0000d	83 c4 04	 add	 esp, 4

; 539  : 		if( p == NULL )

  00010	85 c0		 test	 eax, eax
  00012	75 0a		 jne	 SHORT $LN1@AllocateHe@3

; 540  : 		{
; 541  : 			AtlThrow( E_OUTOFMEMORY );

  00014	68 0e 00 07 80	 push	 -2147024882		; 8007000eH
  00019	e8 00 00 00 00	 call	 ?AtlThrowImpl@ATL@@YGXJ@Z ; ATL::AtlThrowImpl
$LN1@AllocateHe@3:

; 542  : 		}
; 543  : 		m_p = p;

  0001e	89 06		 mov	 DWORD PTR [esi], eax
  00020	5e		 pop	 esi

; 544  : 	}

  00021	c2 04 00	 ret	 4
$LN6@AllocateHe@3:
?AllocateHeap@?$CTempBuffer@E$0BAA@VCCRTAllocator@ATL@@@ATL@@AAEXI@Z ENDP ; ATL::CTempBuffer<unsigned char,256,ATL::CCRTAllocator>::AllocateHeap
_TEXT	ENDS
PUBLIC	??0?$Wrapper@PAD@?$CSimpleMap@PADPA_WVCExpansionVectorEqualHelper@ATL@@@ATL@@QAE@ABQAD@Z ; ATL::CSimpleMap<char *,wchar_t *,ATL::CExpansionVectorEqualHelper>::Wrapper<char *>::Wrapper<char *>
; Function compile flags: /Ogtpy
; File c:\program files (x86)\microsoft visual studio 9.0\vc\atlmfc\include\atlsimpcoll.h
;	COMDAT ??0?$Wrapper@PAD@?$CSimpleMap@PADPA_WVCExpansionVectorEqualHelper@ATL@@@ATL@@QAE@ABQAD@Z
_TEXT	SEGMENT
__t$ = 8						; size = 4
??0?$Wrapper@PAD@?$CSimpleMap@PADPA_WVCExpansionVectorEqualHelper@ATL@@@ATL@@QAE@ABQAD@Z PROC ; ATL::CSimpleMap<char *,wchar_t *,ATL::CExpansionVectorEqualHelper>::Wrapper<char *>::Wrapper<char *>, COMDAT
; _this$ = ecx

; 452  : 		{

  00000	8b c1		 mov	 eax, ecx
  00002	8b 4c 24 04	 mov	 ecx, DWORD PTR __t$[esp-4]
  00006	8b 11		 mov	 edx, DWORD PTR [ecx]
  00008	89 10		 mov	 DWORD PTR [eax], edx

; 453  : 		}

  0000a	c2 04 00	 ret	 4
??0?$Wrapper@PAD@?$CSimpleMap@PADPA_WVCExpansionVectorEqualHelper@ATL@@@ATL@@QAE@ABQAD@Z ENDP ; ATL::CSimpleMap<char *,wchar_t *,ATL::CExpansionVectorEqualHelper>::Wrapper<char *>::Wrapper<char *>
_TEXT	ENDS
PUBLIC	??0?$Wrapper@PA_W@?$CSimpleMap@PADPA_WVCExpansionVectorEqualHelper@ATL@@@ATL@@QAE@ABQA_W@Z ; ATL::CSimpleMap<char *,wchar_t *,ATL::CExpansionVectorEqualHelper>::Wrapper<wchar_t *>::Wrapper<wchar_t *>
; Function compile flags: /Ogtpy
;	COMDAT ??0?$Wrapper@PA_W@?$CSimpleMap@PADPA_WVCExpansionVectorEqualHelper@ATL@@@ATL@@QAE@ABQA_W@Z
_TEXT	SEGMENT
__t$ = 8						; size = 4
??0?$Wrapper@PA_W@?$CSimpleMap@PADPA_WVCExpansionVectorEqualHelper@ATL@@@ATL@@QAE@ABQA_W@Z PROC ; ATL::CSimpleMap<char *,wchar_t *,ATL::CExpansionVectorEqualHelper>::Wrapper<wchar_t *>::Wrapper<wchar_t *>, COMDAT
; _this$ = ecx

; 452  : 		{

  00000	8b c1		 mov	 eax, ecx
  00002	8b 4c 24 04	 mov	 ecx, DWORD PTR __t$[esp-4]
  00006	8b 11		 mov	 edx, DWORD PTR [ecx]
  00008	89 10		 mov	 DWORD PTR [eax], edx

; 453  : 		}

  0000a	c2 04 00	 ret	 4
??0?$Wrapper@PA_W@?$CSimpleMap@PADPA_WVCExpansionVectorEqualHelper@ATL@@@ATL@@QAE@ABQA_W@Z ENDP ; ATL::CSimpleMap<char *,wchar_t *,ATL::CExpansionVectorEqualHelper>::Wrapper<wchar_t *>::Wrapper<wchar_t *>
_TEXT	ENDS
PUBLIC	??$AtlAdd@K@ATL@@YAJPAKKK@Z			; ATL::AtlAdd<unsigned long>
; Function compile flags: /Ogtpy
; File c:\program files (x86)\microsoft visual studio 9.0\vc\atlmfc\include\atlalloc.h
;	COMDAT ??$AtlAdd@K@ATL@@YAJPAKKK@Z
_TEXT	SEGMENT
_ptResult$ = 8						; size = 4
_tLeft$ = 12						; size = 4
_tRight$ = 16						; size = 4
??$AtlAdd@K@ATL@@YAJPAKKK@Z PROC			; ATL::AtlAdd<unsigned long>, COMDAT

; 96   : 	if(::ATL::AtlLimits<T>::_Max-tLeft < tRight)

  00000	8b 44 24 08	 mov	 eax, DWORD PTR _tLeft$[esp-4]
  00004	8b 4c 24 0c	 mov	 ecx, DWORD PTR _tRight$[esp-4]
  00008	83 ca ff	 or	 edx, -1
  0000b	2b d0		 sub	 edx, eax
  0000d	3b d1		 cmp	 edx, ecx
  0000f	73 06		 jae	 SHORT $LN1@AtlAdd

; 97   : 	{
; 98   : 		return E_INVALIDARG;

  00011	b8 57 00 07 80	 mov	 eax, -2147024809	; 80070057H

; 102  : }

  00016	c3		 ret	 0
$LN1@AtlAdd:

; 99   : 	}
; 100  : 	*ptResult= tLeft + tRight;

  00017	03 c1		 add	 eax, ecx
  00019	8b 4c 24 04	 mov	 ecx, DWORD PTR _ptResult$[esp-4]
  0001d	89 01		 mov	 DWORD PTR [ecx], eax

; 101  : 	return S_OK;

  0001f	33 c0		 xor	 eax, eax

; 102  : }

  00021	c3		 ret	 0
??$AtlAdd@K@ATL@@YAJPAKKK@Z ENDP			; ATL::AtlAdd<unsigned long>
_TEXT	ENDS
PUBLIC	??$AtlAddThrow@K@ATL@@YAKKK@Z			; ATL::AtlAddThrow<unsigned long>
; Function compile flags: /Ogtpy
;	COMDAT ??$AtlAddThrow@K@ATL@@YAKKK@Z
_TEXT	SEGMENT
_tLeft$ = 8						; size = 4
_tRight$ = 12						; size = 4
??$AtlAddThrow@K@ATL@@YAKKK@Z PROC			; ATL::AtlAddThrow<unsigned long>, COMDAT

; 186  : 	T tResult;
; 187  : 	HRESULT hr=AtlAdd(&tResult, tLeft, tRight);

  00000	8b 44 24 04	 mov	 eax, DWORD PTR _tLeft$[esp-4]
  00004	8b 4c 24 08	 mov	 ecx, DWORD PTR _tRight$[esp-4]
  00008	83 ca ff	 or	 edx, -1
  0000b	2b d0		 sub	 edx, eax
  0000d	3b d1		 cmp	 edx, ecx
  0000f	72 03		 jb	 SHORT $LN7@AtlAddThro
  00011	03 c1		 add	 eax, ecx

; 188  : 	if(FAILED(hr))
; 189  : 	{
; 190  : 		AtlThrow(hr);
; 191  : 	}
; 192  : 	return tResult;
; 193  : }

  00013	c3		 ret	 0
$LN7@AtlAddThro:
  00014	68 57 00 07 80	 push	 -2147024809		; 80070057H
  00019	e8 00 00 00 00	 call	 ?AtlThrowImpl@ATL@@YGXJ@Z ; ATL::AtlThrowImpl
$LN8@AtlAddThro:
  0001e	cc		 int	 3
??$AtlAddThrow@K@ATL@@YAKKK@Z ENDP			; ATL::AtlAddThrow<unsigned long>
_TEXT	ENDS
PUBLIC	??$AtlMultiplyThrow@I@ATL@@YAIII@Z		; ATL::AtlMultiplyThrow<unsigned int>
; Function compile flags: /Ogtpy
;	COMDAT ??$AtlMultiplyThrow@I@ATL@@YAIII@Z
_TEXT	SEGMENT
_tLeft$ = 8						; size = 4
_tRight$ = 12						; size = 4
??$AtlMultiplyThrow@I@ATL@@YAIII@Z PROC			; ATL::AtlMultiplyThrow<unsigned int>, COMDAT

; 174  : 	T tResult;
; 175  : 	HRESULT hr=AtlMultiply(&tResult, tLeft, tRight);

  00000	8b 44 24 04	 mov	 eax, DWORD PTR _tLeft$[esp-4]
  00004	f7 64 24 08	 mul	 DWORD PTR _tRight$[esp-4]
  00008	85 d2		 test	 edx, edx
  0000a	77 05		 ja	 SHORT $LN8@AtlMultipl@4
  0000c	83 f8 ff	 cmp	 eax, -1

; 176  : 	if(FAILED(hr))

  0000f	76 0a		 jbe	 SHORT $LN2@AtlMultipl@4
$LN8@AtlMultipl@4:

; 177  : 	{
; 178  : 		AtlThrow(hr);

  00011	68 57 00 07 80	 push	 -2147024809		; 80070057H
  00016	e8 00 00 00 00	 call	 ?AtlThrowImpl@ATL@@YGXJ@Z ; ATL::AtlThrowImpl
$LN2@AtlMultipl@4:

; 179  : 	}
; 180  : 	return tResult;
; 181  : }

  0001b	c3		 ret	 0
$LN9@AtlMultipl@4:
??$AtlMultiplyThrow@I@ATL@@YAIII@Z ENDP			; ATL::AtlMultiplyThrow<unsigned int>
_TEXT	ENDS
PUBLIC	??$?2PAD@?$Wrapper@PAD@?$CSimpleMap@PADPA_WVCExpansionVectorEqualHelper@ATL@@@ATL@@SAPAXIPAPAD@Z ; ATL::CSimpleMap<char *,wchar_t *,ATL::CExpansionVectorEqualHelper>::Wrapper<char *>::operator new<char *>
; Function compile flags: /Ogtpy
; File c:\program files (x86)\microsoft visual studio 9.0\vc\atlmfc\include\atlsimpcoll.h
;	COMDAT ??$?2PAD@?$Wrapper@PAD@?$CSimpleMap@PADPA_WVCExpansionVectorEqualHelper@ATL@@@ATL@@SAPAXIPAPAD@Z
_TEXT	SEGMENT
___formal$ = 8						; size = 4
_p$ = 12						; size = 4
??$?2PAD@?$Wrapper@PAD@?$CSimpleMap@PADPA_WVCExpansionVectorEqualHelper@ATL@@@ATL@@SAPAXIPAPAD@Z PROC ; ATL::CSimpleMap<char *,wchar_t *,ATL::CExpansionVectorEqualHelper>::Wrapper<char *>::operator new<char *>, COMDAT

; 456  : 		{
; 457  : 			return p;

  00000	8b 44 24 08	 mov	 eax, DWORD PTR _p$[esp-4]

; 458  : 		}

  00004	c3		 ret	 0
??$?2PAD@?$Wrapper@PAD@?$CSimpleMap@PADPA_WVCExpansionVectorEqualHelper@ATL@@@ATL@@SAPAXIPAPAD@Z ENDP ; ATL::CSimpleMap<char *,wchar_t *,ATL::CExpansionVectorEqualHelper>::Wrapper<char *>::operator new<char *>
_TEXT	ENDS
PUBLIC	??$?3PAD@?$Wrapper@PAD@?$CSimpleMap@PADPA_WVCExpansionVectorEqualHelper@ATL@@@ATL@@SAXPAXPAPAD@Z ; ATL::CSimpleMap<char *,wchar_t *,ATL::CExpansionVectorEqualHelper>::Wrapper<char *>::operator delete<char *>
; Function compile flags: /Ogtpy
;	COMDAT ??$?3PAD@?$Wrapper@PAD@?$CSimpleMap@PADPA_WVCExpansionVectorEqualHelper@ATL@@@ATL@@SAXPAXPAPAD@Z
_TEXT	SEGMENT
___formal$ = 8						; size = 4
___formal$ = 12						; size = 4
??$?3PAD@?$Wrapper@PAD@?$CSimpleMap@PADPA_WVCExpansionVectorEqualHelper@ATL@@@ATL@@SAXPAXPAPAD@Z PROC ; ATL::CSimpleMap<char *,wchar_t *,ATL::CExpansionVectorEqualHelper>::Wrapper<char *>::operator delete<char *>, COMDAT

; 461  : 		{
; 462  : 		}

  00000	c3		 ret	 0
??$?3PAD@?$Wrapper@PAD@?$CSimpleMap@PADPA_WVCExpansionVectorEqualHelper@ATL@@@ATL@@SAXPAXPAPAD@Z ENDP ; ATL::CSimpleMap<char *,wchar_t *,ATL::CExpansionVectorEqualHelper>::Wrapper<char *>::operator delete<char *>
_TEXT	ENDS
PUBLIC	??$?2PA_W@?$Wrapper@PA_W@?$CSimpleMap@PADPA_WVCExpansionVectorEqualHelper@ATL@@@ATL@@SAPAXIPAPA_W@Z ; ATL::CSimpleMap<char *,wchar_t *,ATL::CExpansionVectorEqualHelper>::Wrapper<wchar_t *>::operator new<wchar_t *>
; Function compile flags: /Ogtpy
;	COMDAT ??$?2PA_W@?$Wrapper@PA_W@?$CSimpleMap@PADPA_WVCExpansionVectorEqualHelper@ATL@@@ATL@@SAPAXIPAPA_W@Z
_TEXT	SEGMENT
___formal$ = 8						; size = 4
_p$ = 12						; size = 4
??$?2PA_W@?$Wrapper@PA_W@?$CSimpleMap@PADPA_WVCExpansionVectorEqualHelper@ATL@@@ATL@@SAPAXIPAPA_W@Z PROC ; ATL::CSimpleMap<char *,wchar_t *,ATL::CExpansionVectorEqualHelper>::Wrapper<wchar_t *>::operator new<wchar_t *>, COMDAT

; 456  : 		{
; 457  : 			return p;

  00000	8b 44 24 08	 mov	 eax, DWORD PTR _p$[esp-4]

; 458  : 		}

  00004	c3		 ret	 0
??$?2PA_W@?$Wrapper@PA_W@?$CSimpleMap@PADPA_WVCExpansionVectorEqualHelper@ATL@@@ATL@@SAPAXIPAPA_W@Z ENDP ; ATL::CSimpleMap<char *,wchar_t *,ATL::CExpansionVectorEqualHelper>::Wrapper<wchar_t *>::operator new<wchar_t *>
_TEXT	ENDS
PUBLIC	??$?3PA_W@?$Wrapper@PA_W@?$CSimpleMap@PADPA_WVCExpansionVectorEqualHelper@ATL@@@ATL@@SAXPAXPAPA_W@Z ; ATL::CSimpleMap<char *,wchar_t *,ATL::CExpansionVectorEqualHelper>::Wrapper<wchar_t *>::operator delete<wchar_t *>
; Function compile flags: /Ogtpy
;	COMDAT ??$?3PA_W@?$Wrapper@PA_W@?$CSimpleMap@PADPA_WVCExpansionVectorEqualHelper@ATL@@@ATL@@SAXPAXPAPA_W@Z
_TEXT	SEGMENT
___formal$ = 8						; size = 4
___formal$ = 12						; size = 4
??$?3PA_W@?$Wrapper@PA_W@?$CSimpleMap@PADPA_WVCExpansionVectorEqualHelper@ATL@@@ATL@@SAXPAXPAPA_W@Z PROC ; ATL::CSimpleMap<char *,wchar_t *,ATL::CExpansionVectorEqualHelper>::Wrapper<wchar_t *>::operator delete<wchar_t *>, COMDAT

; 461  : 		{
; 462  : 		}

  00000	c3		 ret	 0
??$?3PA_W@?$Wrapper@PA_W@?$CSimpleMap@PADPA_WVCExpansionVectorEqualHelper@ATL@@@ATL@@SAXPAXPAPA_W@Z ENDP ; ATL::CSimpleMap<char *,wchar_t *,ATL::CExpansionVectorEqualHelper>::Wrapper<wchar_t *>::operator delete<wchar_t *>
_TEXT	ENDS
PUBLIC	__$ArrayPad$
PUBLIC	?_AtlVerifyStackAvailable@_ATL_SAFE_ALLOCA_IMPL@ATL@@YA_NK@Z ; ATL::_ATL_SAFE_ALLOCA_IMPL::_AtlVerifyStackAvailable
EXTRN	__resetstkoflw:PROC
EXTRN	__alloca_probe_16:PROC
;	COMDAT xdata$x
; File c:\program files (x86)\microsoft visual studio 9.0\vc\atlmfc\include\atlalloc.h
xdata$x	SEGMENT
__sehtable$?_AtlVerifyStackAvailable@_ATL_SAFE_ALLOCA_IMPL@ATL@@YA_NK@Z DD 0ffffffe4H
	DD	00H
	DD	0ffffffccH
	DD	00H
	DD	0fffffffeH
	DD	FLAT:$LN7@AtlVerifyS
	DD	FLAT:$LN8@AtlVerifyS
; Function compile flags: /Ogtpy
xdata$x	ENDS
;	COMDAT ?_AtlVerifyStackAvailable@_ATL_SAFE_ALLOCA_IMPL@ATL@@YA_NK@Z
_TEXT	SEGMENT
_size$68575 = -36					; size = 4
_bStackAvailable$ = -29					; size = 1
__$ArrayPad$ = -28					; size = 4
__$SEHRec$ = -24					; size = 24
_Size$ = 8						; size = 4
?_AtlVerifyStackAvailable@_ATL_SAFE_ALLOCA_IMPL@ATL@@YA_NK@Z PROC ; ATL::_ATL_SAFE_ALLOCA_IMPL::_AtlVerifyStackAvailable, COMDAT

; 585  : {

  00000	55		 push	 ebp
  00001	8b ec		 mov	 ebp, esp
  00003	6a fe		 push	 -2			; fffffffeH
  00005	68 00 00 00 00	 push	 OFFSET __sehtable$?_AtlVerifyStackAvailable@_ATL_SAFE_ALLOCA_IMPL@ATL@@YA_NK@Z
  0000a	68 00 00 00 00	 push	 OFFSET __except_handler4
  0000f	64 a1 00 00 00
	00		 mov	 eax, DWORD PTR fs:0
  00015	50		 push	 eax
  00016	83 ec 14	 sub	 esp, 20			; 00000014H
  00019	a1 00 00 00 00	 mov	 eax, DWORD PTR ___security_cookie
  0001e	31 45 f8	 xor	 DWORD PTR __$SEHRec$[ebp+16], eax
  00021	33 c5		 xor	 eax, ebp
  00023	89 45 e4	 mov	 DWORD PTR __$ArrayPad$[ebp], eax
  00026	53		 push	 ebx
  00027	56		 push	 esi
  00028	57		 push	 edi
  00029	50		 push	 eax
  0002a	8d 45 f0	 lea	 eax, DWORD PTR __$SEHRec$[ebp+8]
  0002d	64 a3 00 00 00
	00		 mov	 DWORD PTR fs:0, eax
  00033	89 65 e8	 mov	 DWORD PTR __$SEHRec$[ebp], esp

; 586  :     bool bStackAvailable = true;

  00036	b3 01		 mov	 bl, 1

; 587  : 
; 588  :     __try

  00038	33 f6		 xor	 esi, esi
  0003a	89 75 fc	 mov	 DWORD PTR __$SEHRec$[ebp+20], esi

; 589  :     {
; 590  : 		SIZE_T size=0;

  0003d	89 75 dc	 mov	 DWORD PTR _size$68575[ebp], esi

; 591  : 		HRESULT hrAdd=::ATL::AtlAdd(&size, Size, static_cast<SIZE_T>(_ATL_STACK_MARGIN));

  00040	68 00 20 00 00	 push	 8192			; 00002000H
  00045	8b 45 08	 mov	 eax, DWORD PTR _Size$[ebp]
  00048	50		 push	 eax
  00049	8d 4d dc	 lea	 ecx, DWORD PTR _size$68575[ebp]
  0004c	51		 push	 ecx
  0004d	e8 00 00 00 00	 call	 ??$AtlAdd@K@ATL@@YAJPAKKK@Z ; ATL::AtlAdd<unsigned long>
  00052	83 c4 0c	 add	 esp, 12			; 0000000cH

; 592  : 		if(FAILED(hrAdd))

  00055	3b c6		 cmp	 eax, esi
  00057	7d 07		 jge	 SHORT $LN2@AtlVerifyS

; 593  : 		{
; 594  : 			ATLASSERT(FALSE);
; 595  : 			bStackAvailable = false;

  00059	32 db		 xor	 bl, bl
  0005b	88 5d e3	 mov	 BYTE PTR _bStackAvailable$[ebp], bl

; 596  : 		}
; 597  : 		else

  0005e	eb 2e		 jmp	 SHORT $LN1@AtlVerifyS
$LN2@AtlVerifyS:

; 598  : 		{
; 599  : 			PVOID p = _alloca(size);

  00060	8b 45 dc	 mov	 eax, DWORD PTR _size$68575[ebp]
  00063	e8 00 00 00 00	 call	 __alloca_probe_16
  00068	89 65 e8	 mov	 DWORD PTR __$SEHRec$[ebp], esp

; 600  : 			(p);
; 601  : 		}
; 602  :     }

  0006b	eb 21		 jmp	 SHORT $LN1@AtlVerifyS
$LN7@AtlVerifyS:

; 603  :     __except ((EXCEPTION_STACK_OVERFLOW == GetExceptionCode()) ?
; 604  :                    EXCEPTION_EXECUTE_HANDLER :
; 605  :                    EXCEPTION_CONTINUE_SEARCH)

  0006d	8b 55 ec	 mov	 edx, DWORD PTR __$SEHRec$[ebp+4]
  00070	8b 02		 mov	 eax, DWORD PTR [edx]
  00072	8b 00		 mov	 eax, DWORD PTR [eax]
  00074	33 c9		 xor	 ecx, ecx
  00076	3d fd 00 00 c0	 cmp	 eax, -1073741571	; c00000fdH
  0007b	0f 94 c1	 sete	 cl
  0007e	8b c1		 mov	 eax, ecx
$LN9@AtlVerifyS:
  00080	c3		 ret	 0
$LN8@AtlVerifyS:
  00081	8b 65 e8	 mov	 esp, DWORD PTR __$SEHRec$[ebp]

; 606  :     {
; 607  :         bStackAvailable = false;

  00084	32 db		 xor	 bl, bl
  00086	88 5d e3	 mov	 BYTE PTR _bStackAvailable$[ebp], bl

; 608  :         _resetstkoflw();

  00089	e8 00 00 00 00	 call	 __resetstkoflw
$LN1@AtlVerifyS:

; 609  :     }

  0008e	c7 45 fc fe ff
	ff ff		 mov	 DWORD PTR __$SEHRec$[ebp+20], -2 ; fffffffeH

; 610  :     return bStackAvailable;

  00095	8a c3		 mov	 al, bl

; 611  : }

  00097	8d 65 cc	 lea	 esp, DWORD PTR [ebp-52]
  0009a	8b 4d f0	 mov	 ecx, DWORD PTR __$SEHRec$[ebp+8]
  0009d	64 89 0d 00 00
	00 00		 mov	 DWORD PTR fs:0, ecx
  000a4	59		 pop	 ecx
  000a5	5f		 pop	 edi
  000a6	5e		 pop	 esi
  000a7	5b		 pop	 ebx
  000a8	8b 4d e4	 mov	 ecx, DWORD PTR __$ArrayPad$[ebp]
  000ab	33 cd		 xor	 ecx, ebp
  000ad	e8 00 00 00 00	 call	 @__security_check_cookie@4
  000b2	8b e5		 mov	 esp, ebp
  000b4	5d		 pop	 ebp
  000b5	c3		 ret	 0
?_AtlVerifyStackAvailable@_ATL_SAFE_ALLOCA_IMPL@ATL@@YA_NK@Z ENDP ; ATL::_ATL_SAFE_ALLOCA_IMPL::_AtlVerifyStackAvailable
_TEXT	ENDS
PUBLIC	??1CRegKey@ATL@@QAE@XZ				; ATL::CRegKey::~CRegKey
; Function compile flags: /Ogtpy
; File c:\program files (x86)\microsoft visual studio 9.0\vc\atlmfc\include\atlbase.h
;	COMDAT ??1CRegKey@ATL@@QAE@XZ
_TEXT	SEGMENT
??1CRegKey@ATL@@QAE@XZ PROC				; ATL::CRegKey::~CRegKey, COMDAT
; _this$ = ecx

; 5205 : {Close();}

  00000	56		 push	 esi
  00001	8b f1		 mov	 esi, ecx
  00003	8b 06		 mov	 eax, DWORD PTR [esi]
  00005	85 c0		 test	 eax, eax
  00007	74 0d		 je	 SHORT $LN6@CRegKey
  00009	50		 push	 eax
  0000a	ff 15 00 00 00
	00		 call	 DWORD PTR __imp__RegCloseKey@4
  00010	c7 06 00 00 00
	00		 mov	 DWORD PTR [esi], 0
$LN6@CRegKey:
  00016	c7 46 04 00 00
	00 00		 mov	 DWORD PTR [esi+4], 0
  0001d	5e		 pop	 esi
  0001e	c3		 ret	 0
??1CRegKey@ATL@@QAE@XZ ENDP				; ATL::CRegKey::~CRegKey
_TEXT	ENDS
PUBLIC	_lpszKey$GSCopy$
PUBLIC	_this$GSCopy$
PUBLIC	__$ArrayPad$
PUBLIC	?RecurseDeleteKey@CRegKey@ATL@@QAEJPBD@Z	; ATL::CRegKey::RecurseDeleteKey
EXTRN	__imp__RegEnumKeyExA@32:PROC
; Function compile flags: /Ogtpy
;	COMDAT ?RecurseDeleteKey@CRegKey@ATL@@QAEJPBD@Z
_TEXT	SEGMENT
_key$ = -296						; size = 8
_dwSize$ = -288						; size = 4
_hKey$111000 = -284					; size = 4
_this$GSCopy$ = -280					; size = 4
_lpszKey$GSCopy$ = -276					; size = 4
_time$ = -272						; size = 8
_szBuffer$ = -264					; size = 256
__$ArrayPad$ = -4					; size = 4
_lpszKey$ = 8						; size = 4
?RecurseDeleteKey@CRegKey@ATL@@QAEJPBD@Z PROC		; ATL::CRegKey::RecurseDeleteKey, COMDAT
; _this$ = ecx

; 5731 : {

  00000	55		 push	 ebp
  00001	8b ec		 mov	 ebp, esp
  00003	83 e4 f8	 and	 esp, -8			; fffffff8H
  00006	81 ec 2c 01 00
	00		 sub	 esp, 300		; 0000012cH
  0000c	a1 00 00 00 00	 mov	 eax, DWORD PTR ___security_cookie
  00011	33 c4		 xor	 eax, esp
  00013	89 84 24 28 01
	00 00		 mov	 DWORD PTR __$ArrayPad$[esp+300], eax

; 5732 : 	CRegKey key;
; 5733 : 	LONG lRes = key.Open(m_hKey, lpszKey, KEY_READ | KEY_WRITE | m_samWOW64);

  0001a	8b 01		 mov	 eax, DWORD PTR [ecx]
  0001c	8b 55 08	 mov	 edx, DWORD PTR _lpszKey$[ebp]
  0001f	53		 push	 ebx
  00020	56		 push	 esi
  00021	8b 71 04	 mov	 esi, DWORD PTR [ecx+4]
  00024	57		 push	 edi

; 5752 : 	}
; 5753 : 	key.Close();

  00025	89 4c 24 20	 mov	 DWORD PTR _this$GSCopy$[esp+312], ecx
  00029	8d 4c 24 1c	 lea	 ecx, DWORD PTR _hKey$111000[esp+312]
  0002d	51		 push	 ecx
  0002e	33 db		 xor	 ebx, ebx
  00030	81 ce 1f 00 02
	00		 or	 esi, 131103		; 0002001fH
  00036	56		 push	 esi
  00037	53		 push	 ebx
  00038	52		 push	 edx
  00039	50		 push	 eax
  0003a	89 54 24 38	 mov	 DWORD PTR _lpszKey$GSCopy$[esp+332], edx
  0003e	89 5c 24 24	 mov	 DWORD PTR _key$[esp+332], ebx
  00042	89 5c 24 28	 mov	 DWORD PTR _key$[esp+336], ebx
  00046	89 5c 24 30	 mov	 DWORD PTR _hKey$111000[esp+332], ebx
  0004a	ff 15 00 00 00
	00		 call	 DWORD PTR __imp__RegOpenKeyExA@20
  00050	8b 4c 24 10	 mov	 ecx, DWORD PTR _key$[esp+312]
  00054	8b f8		 mov	 edi, eax
  00056	3b fb		 cmp	 edi, ebx
  00058	75 25		 jne	 SHORT $LN43@RecurseDel
  0005a	33 c0		 xor	 eax, eax
  0005c	3b cb		 cmp	 ecx, ebx
  0005e	74 07		 je	 SHORT $LN19@RecurseDel
  00060	51		 push	 ecx
  00061	ff 15 00 00 00
	00		 call	 DWORD PTR __imp__RegCloseKey@4
$LN19@RecurseDel:
  00067	8b 4c 24 1c	 mov	 ecx, DWORD PTR _hKey$111000[esp+312]
  0006b	81 e6 00 03 00
	00		 and	 esi, 768		; 00000300H
  00071	8b f8		 mov	 edi, eax
  00073	89 4c 24 10	 mov	 DWORD PTR _key$[esp+312], ecx
  00077	89 74 24 14	 mov	 DWORD PTR _key$[esp+316], esi
  0007b	3b c3		 cmp	 eax, ebx
  0007d	74 24		 je	 SHORT $LN5@RecurseDel
$LN43@RecurseDel:

; 5734 : 	if (lRes != ERROR_SUCCESS)
; 5735 : 	{
; 5736 : 		if (lRes != ERROR_FILE_NOT_FOUND && lRes != ERROR_PATH_NOT_FOUND)
; 5737 : 		{
; 5738 : 			ATLTRACE(atlTraceCOM, 0, _T("CRegKey::RecurseDeleteKey : Failed to Open Key %s(Error = %d)\n"), lpszKey, lRes);
; 5739 : 		}
; 5740 : 		return lRes;

  0007f	3b cb		 cmp	 ecx, ebx
  00081	74 07		 je	 SHORT $LN24@RecurseDel
  00083	51		 push	 ecx
  00084	ff 15 00 00 00
	00		 call	 DWORD PTR __imp__RegCloseKey@4
$LN24@RecurseDel:
  0008a	8b c7		 mov	 eax, edi

; 5755 : }

  0008c	5f		 pop	 edi
  0008d	5e		 pop	 esi
  0008e	5b		 pop	 ebx
  0008f	8b 8c 24 28 01
	00 00		 mov	 ecx, DWORD PTR __$ArrayPad$[esp+300]
  00096	33 cc		 xor	 ecx, esp
  00098	e8 00 00 00 00	 call	 @__security_check_cookie@4
  0009d	8b e5		 mov	 esp, ebp
  0009f	5d		 pop	 ebp
  000a0	c2 04 00	 ret	 4
$LN5@RecurseDel:

; 5741 : 	}
; 5742 : 	FILETIME time;
; 5743 : 	DWORD dwSize = 256;
; 5744 : 	TCHAR szBuffer[256];
; 5745 : 	while (RegEnumKeyEx(key.m_hKey, 0, szBuffer, &dwSize, NULL, NULL, NULL,
; 5746 : 		&time)==ERROR_SUCCESS)

  000a3	8b 35 00 00 00
	00		 mov	 esi, DWORD PTR __imp__RegEnumKeyExA@32
  000a9	8d 54 24 28	 lea	 edx, DWORD PTR _time$[esp+312]
  000ad	52		 push	 edx
  000ae	53		 push	 ebx
  000af	53		 push	 ebx
  000b0	53		 push	 ebx
  000b1	8d 44 24 28	 lea	 eax, DWORD PTR _dwSize$[esp+328]
  000b5	50		 push	 eax
  000b6	8d 54 24 44	 lea	 edx, DWORD PTR _szBuffer$[esp+332]
  000ba	52		 push	 edx
  000bb	53		 push	 ebx
  000bc	51		 push	 ecx
  000bd	c7 44 24 38 00
	01 00 00	 mov	 DWORD PTR _dwSize$[esp+344], 256 ; 00000100H
  000c5	ff d6		 call	 esi
  000c7	85 c0		 test	 eax, eax
  000c9	75 3f		 jne	 SHORT $LN2@RecurseDel
  000cb	eb 03 8d 49 00	 npad	 5
$LL3@RecurseDel:

; 5747 : 	{
; 5748 : 		lRes = key.RecurseDeleteKey(szBuffer);

  000d0	8d 44 24 30	 lea	 eax, DWORD PTR _szBuffer$[esp+312]
  000d4	50		 push	 eax
  000d5	8d 4c 24 14	 lea	 ecx, DWORD PTR _key$[esp+316]
  000d9	e8 00 00 00 00	 call	 ?RecurseDeleteKey@CRegKey@ATL@@QAEJPBD@Z ; ATL::CRegKey::RecurseDeleteKey
  000de	8b f8		 mov	 edi, eax

; 5749 : 		if (lRes != ERROR_SUCCESS)

  000e0	3b fb		 cmp	 edi, ebx
  000e2	75 75		 jne	 SHORT $LN41@RecurseDel
  000e4	8d 4c 24 28	 lea	 ecx, DWORD PTR _time$[esp+312]
  000e8	51		 push	 ecx
  000e9	8b 4c 24 14	 mov	 ecx, DWORD PTR _key$[esp+316]
  000ed	53		 push	 ebx
  000ee	53		 push	 ebx
  000ef	53		 push	 ebx
  000f0	8d 54 24 28	 lea	 edx, DWORD PTR _dwSize$[esp+328]
  000f4	52		 push	 edx
  000f5	8d 44 24 44	 lea	 eax, DWORD PTR _szBuffer$[esp+332]
  000f9	50		 push	 eax
  000fa	53		 push	 ebx
  000fb	51		 push	 ecx

; 5751 : 		dwSize = 256;

  000fc	c7 44 24 38 00
	01 00 00	 mov	 DWORD PTR _dwSize$[esp+344], 256 ; 00000100H
  00104	ff d6		 call	 esi
  00106	85 c0		 test	 eax, eax
  00108	74 c6		 je	 SHORT $LL3@RecurseDel
$LN2@RecurseDel:

; 5752 : 	}
; 5753 : 	key.Close();

  0010a	8b 44 24 10	 mov	 eax, DWORD PTR _key$[esp+312]
  0010e	3b c3		 cmp	 eax, ebx
  00110	74 0b		 je	 SHORT $LN32@RecurseDel
  00112	50		 push	 eax
  00113	ff 15 00 00 00
	00		 call	 DWORD PTR __imp__RegCloseKey@4
  00119	89 5c 24 10	 mov	 DWORD PTR _key$[esp+312], ebx
$LN32@RecurseDel:

; 5754 : 	return DeleteSubKey(lpszKey);

  0011d	8b 54 24 24	 mov	 edx, DWORD PTR _lpszKey$GSCopy$[esp+312]
  00121	8b 4c 24 20	 mov	 ecx, DWORD PTR _this$GSCopy$[esp+312]
  00125	52		 push	 edx
  00126	89 5c 24 18	 mov	 DWORD PTR _key$[esp+320], ebx
  0012a	e8 00 00 00 00	 call	 ?DeleteSubKey@CRegKey@ATL@@QAEJPBD@Z ; ATL::CRegKey::DeleteSubKey
  0012f	8b f0		 mov	 esi, eax
  00131	8b 44 24 10	 mov	 eax, DWORD PTR _key$[esp+312]
  00135	3b c3		 cmp	 eax, ebx
  00137	74 07		 je	 SHORT $LN37@RecurseDel
  00139	50		 push	 eax
  0013a	ff 15 00 00 00
	00		 call	 DWORD PTR __imp__RegCloseKey@4
$LN37@RecurseDel:
  00140	8b c6		 mov	 eax, esi

; 5755 : }

  00142	5f		 pop	 edi
  00143	5e		 pop	 esi
  00144	5b		 pop	 ebx
  00145	8b 8c 24 28 01
	00 00		 mov	 ecx, DWORD PTR __$ArrayPad$[esp+300]
  0014c	33 cc		 xor	 ecx, esp
  0014e	e8 00 00 00 00	 call	 @__security_check_cookie@4
  00153	8b e5		 mov	 esp, ebp
  00155	5d		 pop	 ebp
  00156	c2 04 00	 ret	 4
$LN41@RecurseDel:

; 5750 : 			return lRes;

  00159	8b 44 24 10	 mov	 eax, DWORD PTR _key$[esp+312]
  0015d	3b c3		 cmp	 eax, ebx
  0015f	74 07		 je	 SHORT $LN29@RecurseDel
  00161	50		 push	 eax
  00162	ff 15 00 00 00
	00		 call	 DWORD PTR __imp__RegCloseKey@4
$LN29@RecurseDel:

; 5755 : }

  00168	8b 8c 24 34 01
	00 00		 mov	 ecx, DWORD PTR __$ArrayPad$[esp+312]
  0016f	8b c7		 mov	 eax, edi
  00171	5f		 pop	 edi
  00172	5e		 pop	 esi
  00173	5b		 pop	 ebx
  00174	33 cc		 xor	 ecx, esp
  00176	e8 00 00 00 00	 call	 @__security_check_cookie@4
  0017b	8b e5		 mov	 esp, ebp
  0017d	5d		 pop	 ebp
  0017e	c2 04 00	 ret	 4
?RecurseDeleteKey@CRegKey@ATL@@QAEJPBD@Z ENDP		; ATL::CRegKey::RecurseDeleteKey
_TEXT	ENDS
PUBLIC	?ClearReplacements@CExpansionVector@ATL@@QAEJXZ	; ATL::CExpansionVector::ClearReplacements
; Function compile flags: /Ogtpy
; File c:\program files (x86)\microsoft visual studio 9.0\vc\atlmfc\include\statreg.h
;	COMDAT ?ClearReplacements@CExpansionVector@ATL@@QAEJXZ
_TEXT	SEGMENT
?ClearReplacements@CExpansionVector@ATL@@QAEJXZ PROC	; ATL::CExpansionVector::ClearReplacements, COMDAT
; _this$ = ecx

; 134  : 	{

  00000	56		 push	 esi
  00001	57		 push	 edi
  00002	8b f1		 mov	 esi, ecx

; 135  : 		for (int i = 0; i < GetSize(); i++)

  00004	33 ff		 xor	 edi, edi
  00006	39 7e 08	 cmp	 DWORD PTR [esi+8], edi
  00009	7e 36		 jle	 SHORT $LN1@ClearRepla
  0000b	eb 03 8d 49 00	 npad	 5
$LL3@ClearRepla:

; 136  : 		{
; 137  : 			delete []GetKeyAt(i);

  00010	85 ff		 test	 edi, edi
  00012	7c 65		 jl	 SHORT $LN31@ClearRepla
  00014	3b 7e 08	 cmp	 edi, DWORD PTR [esi+8]
  00017	7d 60		 jge	 SHORT $LN31@ClearRepla
  00019	8b 06		 mov	 eax, DWORD PTR [esi]
  0001b	8b 0c b8	 mov	 ecx, DWORD PTR [eax+edi*4]
  0001e	51		 push	 ecx
  0001f	e8 00 00 00 00	 call	 ??_V@YAXPAX@Z		; operator delete[]
  00024	83 c4 04	 add	 esp, 4

; 138  : 			delete []GetValueAt(i);

  00027	3b 7e 08	 cmp	 edi, DWORD PTR [esi+8]
  0002a	7d 4d		 jge	 SHORT $LN31@ClearRepla
  0002c	8b 56 04	 mov	 edx, DWORD PTR [esi+4]
  0002f	8b 04 ba	 mov	 eax, DWORD PTR [edx+edi*4]
  00032	50		 push	 eax
  00033	e8 00 00 00 00	 call	 ??_V@YAXPAX@Z		; operator delete[]
  00038	47		 inc	 edi
  00039	83 c4 04	 add	 esp, 4
  0003c	3b 7e 08	 cmp	 edi, DWORD PTR [esi+8]
  0003f	7c cf		 jl	 SHORT $LL3@ClearRepla
$LN1@ClearRepla:

; 139  : 		}
; 140  : 		RemoveAll();

  00041	8b 06		 mov	 eax, DWORD PTR [esi]
  00043	85 c0		 test	 eax, eax
  00045	74 0f		 je	 SHORT $LN25@ClearRepla
  00047	50		 push	 eax
  00048	e8 00 00 00 00	 call	 _free
  0004d	83 c4 04	 add	 esp, 4
  00050	c7 06 00 00 00
	00		 mov	 DWORD PTR [esi], 0
$LN25@ClearRepla:
  00056	8b 46 04	 mov	 eax, DWORD PTR [esi+4]
  00059	85 c0		 test	 eax, eax
  0005b	74 10		 je	 SHORT $LN21@ClearRepla
  0005d	50		 push	 eax
  0005e	e8 00 00 00 00	 call	 _free
  00063	83 c4 04	 add	 esp, 4
  00066	c7 46 04 00 00
	00 00		 mov	 DWORD PTR [esi+4], 0
$LN21@ClearRepla:
  0006d	5f		 pop	 edi
  0006e	c7 46 08 00 00
	00 00		 mov	 DWORD PTR [esi+8], 0

; 141  : 		return S_OK;

  00075	33 c0		 xor	 eax, eax
  00077	5e		 pop	 esi

; 142  : 	}

  00078	c3		 ret	 0
$LN31@ClearRepla:
  00079	6a 00		 push	 0
  0007b	6a 00		 push	 0
  0007d	6a 01		 push	 1
  0007f	68 8c 00 00 c0	 push	 -1073741684		; c000008cH
  00084	ff 15 00 00 00
	00		 call	 DWORD PTR __imp__RaiseException@16
$LN34@ClearRepla:
  0008a	cc		 int	 3
?ClearReplacements@CExpansionVector@ATL@@QAEJXZ ENDP	; ATL::CExpansionVector::ClearReplacements
_TEXT	ENDS
PUBLIC	?ClearReplacements@CRegObject@ATL@@UAGJXZ	; ATL::CRegObject::ClearReplacements
; Function compile flags: /Ogtpy
;	COMDAT ?ClearReplacements@CRegObject@ATL@@UAGJXZ
_TEXT	SEGMENT
_this$ = 8						; size = 4
?ClearReplacements@CRegObject@ATL@@UAGJXZ PROC		; ATL::CRegObject::ClearReplacements, COMDAT

; 539  : {

  00000	56		 push	 esi
  00001	57		 push	 edi

; 540  : 	m_csMap.Lock();

  00002	8b 7c 24 0c	 mov	 edi, DWORD PTR _this$[esp+4]
  00006	8d 77 10	 lea	 esi, DWORD PTR [edi+16]
  00009	56		 push	 esi
  0000a	ff 15 00 00 00
	00		 call	 DWORD PTR __imp__EnterCriticalSection@4

; 541  : 	HRESULT hr = m_RepMap.ClearReplacements();

  00010	8d 4f 04	 lea	 ecx, DWORD PTR [edi+4]
  00013	e8 00 00 00 00	 call	 ?ClearReplacements@CExpansionVector@ATL@@QAEJXZ ; ATL::CExpansionVector::ClearReplacements

; 542  : 	m_csMap.Unlock();

  00018	56		 push	 esi
  00019	8b f8		 mov	 edi, eax
  0001b	ff 15 00 00 00
	00		 call	 DWORD PTR __imp__LeaveCriticalSection@4

; 543  : 	return hr;

  00021	8b c7		 mov	 eax, edi
  00023	5f		 pop	 edi
  00024	5e		 pop	 esi

; 544  : }

  00025	c2 04 00	 ret	 4
?ClearReplacements@CRegObject@ATL@@UAGJXZ ENDP		; ATL::CRegObject::ClearReplacements
_TEXT	ENDS
PUBLIC	??0IRegistrarBase@@QAE@XZ			; IRegistrarBase::IRegistrarBase
; Function compile flags: /Ogtpy
;	COMDAT ??0IRegistrarBase@@QAE@XZ
_TEXT	SEGMENT
??0IRegistrarBase@@QAE@XZ PROC				; IRegistrarBase::IRegistrarBase, COMDAT
; _this$ = ecx
  00000	8b c1		 mov	 eax, ecx
  00002	c3		 ret	 0
??0IRegistrarBase@@QAE@XZ ENDP				; IRegistrarBase::IRegistrarBase
_TEXT	ENDS
PUBLIC	??1?$CComPtr@UITypeLib@@@ATL@@QAE@XZ		; ATL::CComPtr<ITypeLib>::~CComPtr<ITypeLib>
; Function compile flags: /Ogtpy
;	COMDAT ??1?$CComPtr@UITypeLib@@@ATL@@QAE@XZ
_TEXT	SEGMENT
??1?$CComPtr@UITypeLib@@@ATL@@QAE@XZ PROC		; ATL::CComPtr<ITypeLib>::~CComPtr<ITypeLib>, COMDAT
; _this$ = ecx
  00000	8b 01		 mov	 eax, DWORD PTR [ecx]
  00002	85 c0		 test	 eax, eax
  00004	74 08		 je	 SHORT $LN3@CComPtr
  00006	8b 08		 mov	 ecx, DWORD PTR [eax]
  00008	8b 51 08	 mov	 edx, DWORD PTR [ecx+8]
  0000b	50		 push	 eax
  0000c	ff d2		 call	 edx
$LN3@CComPtr:
  0000e	c3		 ret	 0
??1?$CComPtr@UITypeLib@@@ATL@@QAE@XZ ENDP		; ATL::CComPtr<ITypeLib>::~CComPtr<ITypeLib>
_TEXT	ENDS
EXTRN	??3@YAXPAX@Z:PROC				; operator delete
; Function compile flags: /Ogtpy
;	COMDAT ??_G_com_error@@UAEPAXI@Z
_TEXT	SEGMENT
___flags$ = 8						; size = 4
??_G_com_error@@UAEPAXI@Z PROC				; _com_error::`scalar deleting destructor', COMDAT
; _this$ = ecx
  00000	56		 push	 esi
  00001	8b f1		 mov	 esi, ecx
  00003	8b 46 08	 mov	 eax, DWORD PTR [esi+8]
  00006	c7 06 00 00 00
	00		 mov	 DWORD PTR [esi], OFFSET ??_7_com_error@@6B@
  0000c	85 c0		 test	 eax, eax
  0000e	74 08		 je	 SHORT $LN5@scalar
  00010	8b 08		 mov	 ecx, DWORD PTR [eax]
  00012	8b 51 08	 mov	 edx, DWORD PTR [ecx+8]
  00015	50		 push	 eax
  00016	ff d2		 call	 edx
$LN5@scalar:
  00018	8b 46 0c	 mov	 eax, DWORD PTR [esi+12]
  0001b	85 c0		 test	 eax, eax
  0001d	74 07		 je	 SHORT $LN4@scalar
  0001f	50		 push	 eax
  00020	ff 15 00 00 00
	00		 call	 DWORD PTR __imp__LocalFree@4
$LN4@scalar:
  00026	f6 44 24 08 01	 test	 BYTE PTR ___flags$[esp], 1
  0002b	74 09		 je	 SHORT $LN8@scalar
  0002d	56		 push	 esi
  0002e	e8 00 00 00 00	 call	 ??3@YAXPAX@Z		; operator delete
  00033	83 c4 04	 add	 esp, 4
$LN8@scalar:
  00036	8b c6		 mov	 eax, esi
  00038	5e		 pop	 esi
  00039	c2 04 00	 ret	 4
??_G_com_error@@UAEPAXI@Z ENDP				; _com_error::`scalar deleting destructor'
_TEXT	ENDS
PUBLIC	?WCode@_com_error@@QBEGXZ			; _com_error::WCode
; Function compile flags: /Ogtpy
; File c:\program files (x86)\microsoft visual studio 9.0\vc\include\comdef.h
;	COMDAT ?WCode@_com_error@@QBEGXZ
_TEXT	SEGMENT
?WCode@_com_error@@QBEGXZ PROC				; _com_error::WCode, COMDAT
; _this$ = ecx

; 174  :     return HRESULTToWCode(m_hresult);

  00000	8b 41 04	 mov	 eax, DWORD PTR [ecx+4]
  00003	8d 88 00 fe fb
	7f		 lea	 ecx, DWORD PTR [eax+2147220992]
  00009	81 f9 ff fd 00
	00		 cmp	 ecx, 65023		; 0000fdffH
  0000f	77 09		 ja	 SHORT $LN5@WCode
  00011	05 00 fe ff ff	 add	 eax, -512		; fffffe00H
  00016	0f b7 c0	 movzx	 eax, ax

; 175  : }

  00019	c3		 ret	 0

; 174  :     return HRESULTToWCode(m_hresult);

$LN5@WCode:
  0001a	33 c0		 xor	 eax, eax

; 175  : }

  0001c	c3		 ret	 0
?WCode@_com_error@@QBEGXZ ENDP				; _com_error::WCode
_TEXT	ENDS
PUBLIC	??_C@_0BF@IPPGFENJ@Unknown?5error?50x?$CF0lX?$AA@ ; `string'
PUBLIC	??_C@_0BE@NNIJINN@IDispatch?5error?5?$CD?$CFd?$AA@ ; `string'
PUBLIC	?ErrorMessage@_com_error@@QBEPBDXZ		; _com_error::ErrorMessage
EXTRN	_sprintf_s:PROC
EXTRN	__imp__LocalAlloc@8:PROC
EXTRN	__imp__FormatMessageA@28:PROC
;	COMDAT ??_C@_0BF@IPPGFENJ@Unknown?5error?50x?$CF0lX?$AA@
CONST	SEGMENT
??_C@_0BF@IPPGFENJ@Unknown?5error?50x?$CF0lX?$AA@ DB 'Unknown error 0x%0l'
	DB	'X', 00H					; `string'
CONST	ENDS
;	COMDAT ??_C@_0BE@NNIJINN@IDispatch?5error?5?$CD?$CFd?$AA@
CONST	SEGMENT
??_C@_0BE@NNIJINN@IDispatch?5error?5?$CD?$CFd?$AA@ DB 'IDispatch error #%'
	DB	'd', 00H					; `string'
; Function compile flags: /Ogtpy
CONST	ENDS
;	COMDAT ?ErrorMessage@_com_error@@QBEPBDXZ
_TEXT	SEGMENT
?ErrorMessage@_com_error@@QBEPBDXZ PROC			; _com_error::ErrorMessage, COMDAT
; _this$ = ecx

; 232  : {

  00000	56		 push	 esi
  00001	57		 push	 edi
  00002	8b f9		 mov	 edi, ecx

; 233  :     if (m_pszMsg == NULL) {

  00004	83 7f 0c 00	 cmp	 DWORD PTR [edi+12], 0
  00008	8d 77 0c	 lea	 esi, DWORD PTR [edi+12]
  0000b	0f 85 95 00 00
	00		 jne	 $LN21@ErrorMessa

; 234  :         FormatMessage(FORMAT_MESSAGE_ALLOCATE_BUFFER|
; 235  :                           FORMAT_MESSAGE_FROM_SYSTEM|
; 236  :                           FORMAT_MESSAGE_IGNORE_INSERTS,
; 237  :                       NULL,
; 238  :                       m_hresult,
; 239  :                       MAKELANGID(LANG_NEUTRAL, SUBLANG_DEFAULT),
; 240  :                       (LPTSTR)&m_pszMsg,
; 241  :                       0,
; 242  :                       NULL);

  00011	8b 47 04	 mov	 eax, DWORD PTR [edi+4]
  00014	6a 00		 push	 0
  00016	6a 00		 push	 0
  00018	56		 push	 esi
  00019	68 00 04 00 00	 push	 1024			; 00000400H
  0001e	50		 push	 eax
  0001f	6a 00		 push	 0
  00021	68 00 13 00 00	 push	 4864			; 00001300H
  00026	ff 15 00 00 00
	00		 call	 DWORD PTR __imp__FormatMessageA@28

; 243  :         if (m_pszMsg != NULL) {

  0002c	8b 06		 mov	 eax, DWORD PTR [esi]
  0002e	85 c0		 test	 eax, eax
  00030	74 31		 je	 SHORT $LN7@ErrorMessa

; 244  :             int nLen = lstrlen(m_pszMsg);

  00032	50		 push	 eax
  00033	ff 15 00 00 00
	00		 call	 DWORD PTR __imp__lstrlenA@4

; 245  :             if (nLen > 1 && m_pszMsg[nLen - 1] == '\n') {

  00039	83 f8 01	 cmp	 eax, 1
  0003c	7e 68		 jle	 SHORT $LN21@ErrorMessa
  0003e	8b 0e		 mov	 ecx, DWORD PTR [esi]
  00040	80 7c 08 ff 0a	 cmp	 BYTE PTR [eax+ecx-1], 10 ; 0000000aH
  00045	8d 4c 08 ff	 lea	 ecx, DWORD PTR [eax+ecx-1]
  00049	75 5b		 jne	 SHORT $LN21@ErrorMessa

; 246  :                 m_pszMsg[nLen - 1] = 0;

  0004b	c6 01 00	 mov	 BYTE PTR [ecx], 0

; 247  :                 if (m_pszMsg[nLen - 2] == '\r') {

  0004e	8b 16		 mov	 edx, DWORD PTR [esi]
  00050	80 7c 10 fe 0d	 cmp	 BYTE PTR [eax+edx-2], 13 ; 0000000dH
  00055	8d 44 10 fe	 lea	 eax, DWORD PTR [eax+edx-2]
  00059	75 66		 jne	 SHORT $LN19@ErrorMessa

; 248  :                         m_pszMsg[nLen - 2] = 0;

  0005b	c6 00 00	 mov	 BYTE PTR [eax], 0

; 261  :                 }
; 262  :             }
; 263  :         }
; 264  :     }
; 265  :     return m_pszMsg;

  0005e	8b 06		 mov	 eax, DWORD PTR [esi]
  00060	5f		 pop	 edi
  00061	5e		 pop	 esi

; 266  : }

  00062	c3		 ret	 0
$LN7@ErrorMessa:

; 249  :                 }
; 250  :             }
; 251  :         } 
; 252  :         else {
; 253  :             m_pszMsg = (LPTSTR)LocalAlloc(0, 32 * sizeof(TCHAR));

  00063	6a 20		 push	 32			; 00000020H
  00065	6a 00		 push	 0
  00067	ff 15 00 00 00
	00		 call	 DWORD PTR __imp__LocalAlloc@8
  0006d	89 06		 mov	 DWORD PTR [esi], eax

; 254  :             if (m_pszMsg != NULL) {

  0006f	85 c0		 test	 eax, eax
  00071	74 35		 je	 SHORT $LN1@ErrorMessa

; 255  :                 WORD wCode = WCode();

  00073	8b 4f 04	 mov	 ecx, DWORD PTR [edi+4]
  00076	8d 91 00 fe fb
	7f		 lea	 edx, DWORD PTR [ecx+2147220992]
  0007c	81 fa ff fd 00
	00		 cmp	 edx, 65023		; 0000fdffH
  00082	77 27		 ja	 SHORT $LN2@ErrorMessa
  00084	8d 91 00 fe ff
	ff		 lea	 edx, DWORD PTR [ecx-512]
  0008a	0f b7 d2	 movzx	 edx, dx

; 256  :                 if (wCode != 0) {

  0008d	66 85 d2	 test	 dx, dx
  00090	74 19		 je	 SHORT $LN2@ErrorMessa

; 257  :                     _COM_PRINTF_S_1(m_pszMsg, 32, TEXT("IDispatch error #%d"), wCode);

  00092	0f b7 ca	 movzx	 ecx, dx
  00095	51		 push	 ecx
  00096	68 00 00 00 00	 push	 OFFSET ??_C@_0BE@NNIJINN@IDispatch?5error?5?$CD?$CFd?$AA@

; 258  :                 } 
; 259  :                 else {
; 260  :                     _COM_PRINTF_S_1(m_pszMsg, 32, TEXT("Unknown error 0x%0lX"), m_hresult);

  0009b	6a 20		 push	 32			; 00000020H
  0009d	50		 push	 eax
  0009e	e8 00 00 00 00	 call	 _sprintf_s
  000a3	83 c4 10	 add	 esp, 16			; 00000010H
$LN21@ErrorMessa:

; 261  :                 }
; 262  :             }
; 263  :         }
; 264  :     }
; 265  :     return m_pszMsg;

  000a6	8b 06		 mov	 eax, DWORD PTR [esi]
$LN1@ErrorMessa:
  000a8	5f		 pop	 edi
  000a9	5e		 pop	 esi

; 266  : }

  000aa	c3		 ret	 0
$LN2@ErrorMessa:

; 258  :                 } 
; 259  :                 else {
; 260  :                     _COM_PRINTF_S_1(m_pszMsg, 32, TEXT("Unknown error 0x%0lX"), m_hresult);

  000ab	51		 push	 ecx
  000ac	68 00 00 00 00	 push	 OFFSET ??_C@_0BF@IPPGFENJ@Unknown?5error?50x?$CF0lX?$AA@
  000b1	6a 20		 push	 32			; 00000020H
  000b3	50		 push	 eax
  000b4	e8 00 00 00 00	 call	 _sprintf_s

; 261  :                 }
; 262  :             }
; 263  :         }
; 264  :     }
; 265  :     return m_pszMsg;

  000b9	8b 06		 mov	 eax, DWORD PTR [esi]
  000bb	83 c4 10	 add	 esp, 16			; 00000010H
  000be	5f		 pop	 edi
  000bf	5e		 pop	 esi

; 266  : }

  000c0	c3		 ret	 0
$LN19@ErrorMessa:
  000c1	5f		 pop	 edi

; 261  :                 }
; 262  :             }
; 263  :         }
; 264  :     }
; 265  :     return m_pszMsg;

  000c2	8b c2		 mov	 eax, edx
  000c4	5e		 pop	 esi

; 266  : }

  000c5	c3		 ret	 0
?ErrorMessage@_com_error@@QBEPBDXZ ENDP			; _com_error::ErrorMessage
_TEXT	ENDS
PUBLIC	?Allocate@?$CAtlSafeAllocBufferManager@VCCRTAllocator@ATL@@@_ATL_SAFE_ALLOCA_IMPL@ATL@@QAEPAXK@Z ; ATL::_ATL_SAFE_ALLOCA_IMPL::CAtlSafeAllocBufferManager<ATL::CCRTAllocator>::Allocate
; Function compile flags: /Ogtpy
; File c:\program files (x86)\microsoft visual studio 9.0\vc\atlmfc\include\atlalloc.h
;	COMDAT ?Allocate@?$CAtlSafeAllocBufferManager@VCCRTAllocator@ATL@@@_ATL_SAFE_ALLOCA_IMPL@ATL@@QAEPAXK@Z
_TEXT	SEGMENT
_nRequestedSize$ = 8					; size = 4
?Allocate@?$CAtlSafeAllocBufferManager@VCCRTAllocator@ATL@@@_ATL_SAFE_ALLOCA_IMPL@ATL@@QAEPAXK@Z PROC ; ATL::_ATL_SAFE_ALLOCA_IMPL::CAtlSafeAllocBufferManager<ATL::CCRTAllocator>::Allocate, COMDAT
; _this$ = ecx

; 643  : 		CAtlSafeAllocBufferNode *p = (CAtlSafeAllocBufferNode*)Allocator::Allocate(::ATL::AtlAddThrow(nRequestedSize, static_cast<SIZE_T>(sizeof(CAtlSafeAllocBufferNode))));

  00000	8b 44 24 04	 mov	 eax, DWORD PTR _nRequestedSize$[esp-4]
  00004	56		 push	 esi
  00005	8b f1		 mov	 esi, ecx
  00007	83 c9 ff	 or	 ecx, -1
  0000a	2b c8		 sub	 ecx, eax
  0000c	83 f9 08	 cmp	 ecx, 8
  0000f	72 14		 jb	 SHORT $LN15@Allocate
  00011	83 c0 08	 add	 eax, 8
  00014	50		 push	 eax
  00015	e8 00 00 00 00	 call	 _malloc
  0001a	83 c4 04	 add	 esp, 4

; 644  : 		if (p == NULL)

  0001d	85 c0		 test	 eax, eax
  0001f	75 0e		 jne	 SHORT $LN1@Allocate
  00021	5e		 pop	 esi

; 652  : 	}

  00022	c2 04 00	 ret	 4
$LN15@Allocate:

; 643  : 		CAtlSafeAllocBufferNode *p = (CAtlSafeAllocBufferNode*)Allocator::Allocate(::ATL::AtlAddThrow(nRequestedSize, static_cast<SIZE_T>(sizeof(CAtlSafeAllocBufferNode))));

  00025	68 57 00 07 80	 push	 -2147024809		; 80070057H
  0002a	e8 00 00 00 00	 call	 ?AtlThrowImpl@ATL@@YGXJ@Z ; ATL::AtlThrowImpl
$LN1@Allocate:

; 645  : 			return NULL;
; 646  : 		
; 647  : 		// Add buffer to the list
; 648  : 		p->m_pNext = m_pHead;

  0002f	8b 16		 mov	 edx, DWORD PTR [esi]
  00031	89 10		 mov	 DWORD PTR [eax], edx

; 649  : 		m_pHead = p;

  00033	89 06		 mov	 DWORD PTR [esi], eax

; 650  : 		
; 651  : 		return p->GetData();

  00035	83 c0 08	 add	 eax, 8
  00038	5e		 pop	 esi

; 652  : 	}

  00039	c2 04 00	 ret	 4
$LN16@Allocate:
?Allocate@?$CAtlSafeAllocBufferManager@VCCRTAllocator@ATL@@@_ATL_SAFE_ALLOCA_IMPL@ATL@@QAEPAXK@Z ENDP ; ATL::_ATL_SAFE_ALLOCA_IMPL::CAtlSafeAllocBufferManager<ATL::CCRTAllocator>::Allocate
_TEXT	ENDS
PUBLIC	??1?$CSimpleMap@PADPA_WVCExpansionVectorEqualHelper@ATL@@@ATL@@QAE@XZ ; ATL::CSimpleMap<char *,wchar_t *,ATL::CExpansionVectorEqualHelper>::~CSimpleMap<char *,wchar_t *,ATL::CExpansionVectorEqualHelper>
; Function compile flags: /Ogtpy
; File c:\program files (x86)\microsoft visual studio 9.0\vc\atlmfc\include\atlsimpcoll.h
;	COMDAT ??1?$CSimpleMap@PADPA_WVCExpansionVectorEqualHelper@ATL@@@ATL@@QAE@XZ
_TEXT	SEGMENT
??1?$CSimpleMap@PADPA_WVCExpansionVectorEqualHelper@ATL@@@ATL@@QAE@XZ PROC ; ATL::CSimpleMap<char *,wchar_t *,ATL::CExpansionVectorEqualHelper>::~CSimpleMap<char *,wchar_t *,ATL::CExpansionVectorEqualHelper>, COMDAT
; _this$ = ecx

; 300  : 	{

  00000	56		 push	 esi
  00001	8b f1		 mov	 esi, ecx

; 301  : 		RemoveAll();	

  00003	8b 06		 mov	 eax, DWORD PTR [esi]
  00005	85 c0		 test	 eax, eax
  00007	74 0f		 je	 SHORT $LN7@CSimpleMap
  00009	50		 push	 eax
  0000a	e8 00 00 00 00	 call	 _free
  0000f	83 c4 04	 add	 esp, 4
  00012	c7 06 00 00 00
	00		 mov	 DWORD PTR [esi], 0
$LN7@CSimpleMap:
  00018	8b 46 04	 mov	 eax, DWORD PTR [esi+4]
  0001b	85 c0		 test	 eax, eax
  0001d	74 10		 je	 SHORT $LN12@CSimpleMap
  0001f	50		 push	 eax
  00020	e8 00 00 00 00	 call	 _free
  00025	83 c4 04	 add	 esp, 4
  00028	c7 46 04 00 00
	00 00		 mov	 DWORD PTR [esi+4], 0
$LN12@CSimpleMap:
  0002f	c7 46 08 00 00
	00 00		 mov	 DWORD PTR [esi+8], 0
  00036	5e		 pop	 esi

; 302  : 	}

  00037	c3		 ret	 0
??1?$CSimpleMap@PADPA_WVCExpansionVectorEqualHelper@ATL@@@ATL@@QAE@XZ ENDP ; ATL::CSimpleMap<char *,wchar_t *,ATL::CExpansionVectorEqualHelper>::~CSimpleMap<char *,wchar_t *,ATL::CExpansionVectorEqualHelper>
_TEXT	ENDS
PUBLIC	?Lookup@?$CSimpleMap@PADPA_WVCExpansionVectorEqualHelper@ATL@@@ATL@@QBEPA_WABQAD@Z ; ATL::CSimpleMap<char *,wchar_t *,ATL::CExpansionVectorEqualHelper>::Lookup
; Function compile flags: /Ogtpy
;	COMDAT ?Lookup@?$CSimpleMap@PADPA_WVCExpansionVectorEqualHelper@ATL@@@ATL@@QBEPA_WABQAD@Z
_TEXT	SEGMENT
_key$ = 8						; size = 4
?Lookup@?$CSimpleMap@PADPA_WVCExpansionVectorEqualHelper@ATL@@@ATL@@QBEPA_WABQAD@Z PROC ; ATL::CSimpleMap<char *,wchar_t *,ATL::CExpansionVectorEqualHelper>::Lookup, COMDAT
; _this$ = ecx

; 388  : 		int nIndex = FindKey(key);

  00000	8b 44 24 04	 mov	 eax, DWORD PTR _key$[esp-4]
  00004	56		 push	 esi
  00005	50		 push	 eax
  00006	8b f1		 mov	 esi, ecx
  00008	e8 00 00 00 00	 call	 ?FindKey@?$CSimpleMap@PADPA_WVCExpansionVectorEqualHelper@ATL@@@ATL@@QBEHABQAD@Z ; ATL::CSimpleMap<char *,wchar_t *,ATL::CExpansionVectorEqualHelper>::FindKey

; 389  : 		if(nIndex == -1)

  0000d	83 f8 ff	 cmp	 eax, -1
  00010	75 06		 jne	 SHORT $LN1@Lookup

; 390  : 			return NULL;    // must be able to convert

  00012	33 c0		 xor	 eax, eax
  00014	5e		 pop	 esi

; 392  : 	}

  00015	c2 04 00	 ret	 4
$LN1@Lookup:

; 391  : 		return GetValueAt(nIndex);

  00018	85 c0		 test	 eax, eax
  0001a	7c 0f		 jl	 SHORT $LN4@Lookup
  0001c	3b 46 08	 cmp	 eax, DWORD PTR [esi+8]
  0001f	7d 0a		 jge	 SHORT $LN4@Lookup
  00021	8b 4e 04	 mov	 ecx, DWORD PTR [esi+4]
  00024	8b 04 81	 mov	 eax, DWORD PTR [ecx+eax*4]
  00027	5e		 pop	 esi

; 392  : 	}

  00028	c2 04 00	 ret	 4
$LN4@Lookup:
  0002b	6a 00		 push	 0
  0002d	6a 00		 push	 0
  0002f	6a 01		 push	 1
  00031	68 8c 00 00 c0	 push	 -1073741684		; c000008cH
  00036	ff 15 00 00 00
	00		 call	 DWORD PTR __imp__RaiseException@16
$LN11@Lookup:
  0003c	cc		 int	 3
?Lookup@?$CSimpleMap@PADPA_WVCExpansionVectorEqualHelper@ATL@@@ATL@@QBEPA_WABQAD@Z ENDP ; ATL::CSimpleMap<char *,wchar_t *,ATL::CExpansionVectorEqualHelper>::Lookup
_TEXT	ENDS
PUBLIC	??1?$CAutoVectorPtr@D@ATL@@QAE@XZ		; ATL::CAutoVectorPtr<char>::~CAutoVectorPtr<char>
; Function compile flags: /Ogtpy
; File c:\program files (x86)\microsoft visual studio 9.0\vc\atlmfc\include\atlbase.h
;	COMDAT ??1?$CAutoVectorPtr@D@ATL@@QAE@XZ
_TEXT	SEGMENT
??1?$CAutoVectorPtr@D@ATL@@QAE@XZ PROC			; ATL::CAutoVectorPtr<char>::~CAutoVectorPtr<char>, COMDAT
; _this$ = ecx

; 616  : 	{

  00000	56		 push	 esi
  00001	8b f1		 mov	 esi, ecx

; 617  : 		Free();

  00003	8b 06		 mov	 eax, DWORD PTR [esi]
  00005	50		 push	 eax
  00006	e8 00 00 00 00	 call	 ??_V@YAXPAX@Z		; operator delete[]
  0000b	83 c4 04	 add	 esp, 4
  0000e	c7 06 00 00 00
	00		 mov	 DWORD PTR [esi], 0
  00014	5e		 pop	 esi

; 618  : 	}

  00015	c3		 ret	 0
??1?$CAutoVectorPtr@D@ATL@@QAE@XZ ENDP			; ATL::CAutoVectorPtr<char>::~CAutoVectorPtr<char>
_TEXT	ENDS
PUBLIC	??1?$CAutoVectorPtr@_W@ATL@@QAE@XZ		; ATL::CAutoVectorPtr<wchar_t>::~CAutoVectorPtr<wchar_t>
; Function compile flags: /Ogtpy
;	COMDAT ??1?$CAutoVectorPtr@_W@ATL@@QAE@XZ
_TEXT	SEGMENT
??1?$CAutoVectorPtr@_W@ATL@@QAE@XZ PROC			; ATL::CAutoVectorPtr<wchar_t>::~CAutoVectorPtr<wchar_t>, COMDAT
; _this$ = ecx

; 616  : 	{

  00000	56		 push	 esi
  00001	8b f1		 mov	 esi, ecx

; 617  : 		Free();

  00003	8b 06		 mov	 eax, DWORD PTR [esi]
  00005	50		 push	 eax
  00006	e8 00 00 00 00	 call	 ??_V@YAXPAX@Z		; operator delete[]
  0000b	83 c4 04	 add	 esp, 4
  0000e	c7 06 00 00 00
	00		 mov	 DWORD PTR [esi], 0
  00014	5e		 pop	 esi

; 618  : 	}

  00015	c3		 ret	 0
??1?$CAutoVectorPtr@_W@ATL@@QAE@XZ ENDP			; ATL::CAutoVectorPtr<wchar_t>::~CAutoVectorPtr<wchar_t>
_TEXT	ENDS
PUBLIC	??1?$CTempBuffer@D$0EAA@VCCRTAllocator@ATL@@@ATL@@QAE@XZ ; ATL::CTempBuffer<char,1024,ATL::CCRTAllocator>::~CTempBuffer<char,1024,ATL::CCRTAllocator>
; Function compile flags: /Ogtpy
; File c:\program files (x86)\microsoft visual studio 9.0\vc\atlmfc\include\atlalloc.h
;	COMDAT ??1?$CTempBuffer@D$0EAA@VCCRTAllocator@ATL@@@ATL@@QAE@XZ
_TEXT	SEGMENT
??1?$CTempBuffer@D$0EAA@VCCRTAllocator@ATL@@@ATL@@QAE@XZ PROC ; ATL::CTempBuffer<char,1024,ATL::CCRTAllocator>::~CTempBuffer<char,1024,ATL::CCRTAllocator>, COMDAT
; _this$ = ecx

; 465  : 		if( m_p != reinterpret_cast< T* >( m_abFixedBuffer ) )

  00000	8d 41 04	 lea	 eax, DWORD PTR [ecx+4]
  00003	39 01		 cmp	 DWORD PTR [ecx], eax
  00005	74 05		 je	 SHORT $LN1@CTempBuffe

; 466  : 		{
; 467  : 			FreeHeap();

  00007	e9 00 00 00 00	 jmp	 ?FreeHeap@?$CTempBuffer@D$0EAA@VCCRTAllocator@ATL@@@ATL@@AAEXXZ ; ATL::CTempBuffer<char,1024,ATL::CCRTAllocator>::FreeHeap
$LN1@CTempBuffe:

; 468  : 		}
; 469  : 	}

  0000c	c3		 ret	 0
??1?$CTempBuffer@D$0EAA@VCCRTAllocator@ATL@@@ATL@@QAE@XZ ENDP ; ATL::CTempBuffer<char,1024,ATL::CCRTAllocator>::~CTempBuffer<char,1024,ATL::CCRTAllocator>
_TEXT	ENDS
PUBLIC	??1?$CTempBuffer@D$0BAA@VCCRTAllocator@ATL@@@ATL@@QAE@XZ ; ATL::CTempBuffer<char,256,ATL::CCRTAllocator>::~CTempBuffer<char,256,ATL::CCRTAllocator>
; Function compile flags: /Ogtpy
;	COMDAT ??1?$CTempBuffer@D$0BAA@VCCRTAllocator@ATL@@@ATL@@QAE@XZ
_TEXT	SEGMENT
??1?$CTempBuffer@D$0BAA@VCCRTAllocator@ATL@@@ATL@@QAE@XZ PROC ; ATL::CTempBuffer<char,256,ATL::CCRTAllocator>::~CTempBuffer<char,256,ATL::CCRTAllocator>, COMDAT
; _this$ = ecx

; 465  : 		if( m_p != reinterpret_cast< T* >( m_abFixedBuffer ) )

  00000	8d 41 04	 lea	 eax, DWORD PTR [ecx+4]
  00003	39 01		 cmp	 DWORD PTR [ecx], eax
  00005	74 05		 je	 SHORT $LN1@CTempBuffe@2

; 466  : 		{
; 467  : 			FreeHeap();

  00007	e9 00 00 00 00	 jmp	 ?FreeHeap@?$CTempBuffer@D$0BAA@VCCRTAllocator@ATL@@@ATL@@AAEXXZ ; ATL::CTempBuffer<char,256,ATL::CCRTAllocator>::FreeHeap
$LN1@CTempBuffe@2:

; 468  : 		}
; 469  : 	}

  0000c	c3		 ret	 0
??1?$CTempBuffer@D$0BAA@VCCRTAllocator@ATL@@@ATL@@QAE@XZ ENDP ; ATL::CTempBuffer<char,256,ATL::CCRTAllocator>::~CTempBuffer<char,256,ATL::CCRTAllocator>
_TEXT	ENDS
PUBLIC	??1?$CTempBuffer@E$0BAA@VCCRTAllocator@ATL@@@ATL@@QAE@XZ ; ATL::CTempBuffer<unsigned char,256,ATL::CCRTAllocator>::~CTempBuffer<unsigned char,256,ATL::CCRTAllocator>
; Function compile flags: /Ogtpy
;	COMDAT ??1?$CTempBuffer@E$0BAA@VCCRTAllocator@ATL@@@ATL@@QAE@XZ
_TEXT	SEGMENT
??1?$CTempBuffer@E$0BAA@VCCRTAllocator@ATL@@@ATL@@QAE@XZ PROC ; ATL::CTempBuffer<unsigned char,256,ATL::CCRTAllocator>::~CTempBuffer<unsigned char,256,ATL::CCRTAllocator>, COMDAT
; _this$ = ecx

; 465  : 		if( m_p != reinterpret_cast< T* >( m_abFixedBuffer ) )

  00000	8d 41 04	 lea	 eax, DWORD PTR [ecx+4]
  00003	39 01		 cmp	 DWORD PTR [ecx], eax
  00005	74 05		 je	 SHORT $LN1@CTempBuffe@3

; 466  : 		{
; 467  : 			FreeHeap();

  00007	e9 00 00 00 00	 jmp	 ?FreeHeap@?$CTempBuffer@E$0BAA@VCCRTAllocator@ATL@@@ATL@@AAEXXZ ; ATL::CTempBuffer<unsigned char,256,ATL::CCRTAllocator>::FreeHeap
$LN1@CTempBuffe@3:

; 468  : 		}
; 469  : 	}

  0000c	c3		 ret	 0
??1?$CTempBuffer@E$0BAA@VCCRTAllocator@ATL@@@ATL@@QAE@XZ ENDP ; ATL::CTempBuffer<unsigned char,256,ATL::CCRTAllocator>::~CTempBuffer<unsigned char,256,ATL::CCRTAllocator>
_TEXT	ENDS
PUBLIC	??0?$CComPtr@UITypeLib@@@ATL@@QAE@XZ		; ATL::CComPtr<ITypeLib>::CComPtr<ITypeLib>
; Function compile flags: /Ogtpy
; File c:\program files (x86)\microsoft visual studio 9.0\vc\atlmfc\include\atlcomcli.h
;	COMDAT ??0?$CComPtr@UITypeLib@@@ATL@@QAE@XZ
_TEXT	SEGMENT
??0?$CComPtr@UITypeLib@@@ATL@@QAE@XZ PROC		; ATL::CComPtr<ITypeLib>::CComPtr<ITypeLib>, COMDAT
; _this$ = ecx

; 276  : 	CComPtr() throw()

  00000	8b c1		 mov	 eax, ecx
  00002	c7 00 00 00 00
	00		 mov	 DWORD PTR [eax], 0

; 277  : 	{
; 278  : 	}

  00008	c3		 ret	 0
??0?$CComPtr@UITypeLib@@@ATL@@QAE@XZ ENDP		; ATL::CComPtr<ITypeLib>::CComPtr<ITypeLib>
_TEXT	ENDS
PUBLIC	?InternalSetAtIndex@?$CSimpleMap@PADPA_WVCExpansionVectorEqualHelper@ATL@@@ATL@@QAEXHABQADABQA_W@Z ; ATL::CSimpleMap<char *,wchar_t *,ATL::CExpansionVectorEqualHelper>::InternalSetAtIndex
; Function compile flags: /Ogtpy
; File c:\program files (x86)\microsoft visual studio 9.0\vc\atlmfc\include\atlsimpcoll.h
;	COMDAT ?InternalSetAtIndex@?$CSimpleMap@PADPA_WVCExpansionVectorEqualHelper@ATL@@@ATL@@QAEXHABQADABQA_W@Z
_TEXT	SEGMENT
_nIndex$ = 8						; size = 4
_key$ = 12						; size = 4
_val$ = 16						; size = 4
?InternalSetAtIndex@?$CSimpleMap@PADPA_WVCExpansionVectorEqualHelper@ATL@@@ATL@@QAEXHABQADABQA_W@Z PROC ; ATL::CSimpleMap<char *,wchar_t *,ATL::CExpansionVectorEqualHelper>::InternalSetAtIndex, COMDAT
; _this$ = ecx

; 467  : 		new(m_aKey + nIndex) Wrapper<TKey>(key);

  00000	8b 54 24 04	 mov	 edx, DWORD PTR _nIndex$[esp-4]
  00004	8b 01		 mov	 eax, DWORD PTR [ecx]
  00006	03 d2		 add	 edx, edx
  00008	03 d2		 add	 edx, edx
  0000a	03 c2		 add	 eax, edx
  0000c	74 0a		 je	 SHORT $LN3@InternalSe
  0000e	56		 push	 esi
  0000f	8b 74 24 0c	 mov	 esi, DWORD PTR _key$[esp]
  00013	8b 36		 mov	 esi, DWORD PTR [esi]
  00015	89 30		 mov	 DWORD PTR [eax], esi
  00017	5e		 pop	 esi
$LN3@InternalSe:

; 468  : 		new(m_aVal + nIndex) Wrapper<TVal>(val);

  00018	8b 49 04	 mov	 ecx, DWORD PTR [ecx+4]
  0001b	03 ca		 add	 ecx, edx
  0001d	74 08		 je	 SHORT $LN5@InternalSe
  0001f	8b 44 24 0c	 mov	 eax, DWORD PTR _val$[esp-4]
  00023	8b 10		 mov	 edx, DWORD PTR [eax]
  00025	89 11		 mov	 DWORD PTR [ecx], edx
$LN5@InternalSe:

; 469  : 	}

  00027	c2 0c 00	 ret	 12			; 0000000cH
?InternalSetAtIndex@?$CSimpleMap@PADPA_WVCExpansionVectorEqualHelper@ATL@@@ATL@@QAEXHABQADABQA_W@Z ENDP ; ATL::CSimpleMap<char *,wchar_t *,ATL::CExpansionVectorEqualHelper>::InternalSetAtIndex
_TEXT	ENDS
PUBLIC	?AllocateBytes@?$CTempBuffer@D$0EAA@VCCRTAllocator@ATL@@@ATL@@QAEPADI@Z ; ATL::CTempBuffer<char,1024,ATL::CCRTAllocator>::AllocateBytes
; Function compile flags: /Ogtpy
; File c:\program files (x86)\microsoft visual studio 9.0\vc\atlmfc\include\atlalloc.h
;	COMDAT ?AllocateBytes@?$CTempBuffer@D$0EAA@VCCRTAllocator@ATL@@@ATL@@QAEPADI@Z
_TEXT	SEGMENT
_nBytes$ = 8						; size = 4
?AllocateBytes@?$CTempBuffer@D$0EAA@VCCRTAllocator@ATL@@@ATL@@QAEPADI@Z PROC ; ATL::CTempBuffer<char,1024,ATL::CCRTAllocator>::AllocateBytes, COMDAT
; _this$ = ecx

; 522  : 		ATLASSERT( m_p == NULL );
; 523  : 		if( nBytes > t_nFixedBytes )

  00000	8b 44 24 04	 mov	 eax, DWORD PTR _nBytes$[esp-4]
  00004	56		 push	 esi
  00005	8b f1		 mov	 esi, ecx
  00007	3d 00 04 00 00	 cmp	 eax, 1024		; 00000400H
  0000c	76 0c		 jbe	 SHORT $LN2@AllocateBy

; 524  : 		{
; 525  : 			AllocateHeap( nBytes );

  0000e	50		 push	 eax
  0000f	e8 00 00 00 00	 call	 ?AllocateHeap@?$CTempBuffer@D$0EAA@VCCRTAllocator@ATL@@@ATL@@AAEXI@Z ; ATL::CTempBuffer<char,1024,ATL::CCRTAllocator>::AllocateHeap

; 530  : 		}
; 531  : 
; 532  : 		return( m_p );

  00014	8b 06		 mov	 eax, DWORD PTR [esi]
  00016	5e		 pop	 esi

; 533  : 	}

  00017	c2 04 00	 ret	 4
$LN2@AllocateBy:

; 526  : 		}
; 527  : 		else
; 528  : 		{
; 529  : 			m_p = reinterpret_cast< T* >( m_abFixedBuffer );

  0001a	8d 46 04	 lea	 eax, DWORD PTR [esi+4]
  0001d	89 06		 mov	 DWORD PTR [esi], eax
  0001f	5e		 pop	 esi

; 533  : 	}

  00020	c2 04 00	 ret	 4
?AllocateBytes@?$CTempBuffer@D$0EAA@VCCRTAllocator@ATL@@@ATL@@QAEPADI@Z ENDP ; ATL::CTempBuffer<char,1024,ATL::CCRTAllocator>::AllocateBytes
_TEXT	ENDS
PUBLIC	?AllocateBytes@?$CTempBuffer@D$0BAA@VCCRTAllocator@ATL@@@ATL@@QAEPADI@Z ; ATL::CTempBuffer<char,256,ATL::CCRTAllocator>::AllocateBytes
; Function compile flags: /Ogtpy
;	COMDAT ?AllocateBytes@?$CTempBuffer@D$0BAA@VCCRTAllocator@ATL@@@ATL@@QAEPADI@Z
_TEXT	SEGMENT
_nBytes$ = 8						; size = 4
?AllocateBytes@?$CTempBuffer@D$0BAA@VCCRTAllocator@ATL@@@ATL@@QAEPADI@Z PROC ; ATL::CTempBuffer<char,256,ATL::CCRTAllocator>::AllocateBytes, COMDAT
; _this$ = ecx

; 522  : 		ATLASSERT( m_p == NULL );
; 523  : 		if( nBytes > t_nFixedBytes )

  00000	8b 44 24 04	 mov	 eax, DWORD PTR _nBytes$[esp-4]
  00004	56		 push	 esi
  00005	8b f1		 mov	 esi, ecx
  00007	3d 00 01 00 00	 cmp	 eax, 256		; 00000100H
  0000c	76 0c		 jbe	 SHORT $LN2@AllocateBy@2

; 524  : 		{
; 525  : 			AllocateHeap( nBytes );

  0000e	50		 push	 eax
  0000f	e8 00 00 00 00	 call	 ?AllocateHeap@?$CTempBuffer@D$0BAA@VCCRTAllocator@ATL@@@ATL@@AAEXI@Z ; ATL::CTempBuffer<char,256,ATL::CCRTAllocator>::AllocateHeap

; 530  : 		}
; 531  : 
; 532  : 		return( m_p );

  00014	8b 06		 mov	 eax, DWORD PTR [esi]
  00016	5e		 pop	 esi

; 533  : 	}

  00017	c2 04 00	 ret	 4
$LN2@AllocateBy@2:

; 526  : 		}
; 527  : 		else
; 528  : 		{
; 529  : 			m_p = reinterpret_cast< T* >( m_abFixedBuffer );

  0001a	8d 46 04	 lea	 eax, DWORD PTR [esi+4]
  0001d	89 06		 mov	 DWORD PTR [esi], eax
  0001f	5e		 pop	 esi

; 533  : 	}

  00020	c2 04 00	 ret	 4
?AllocateBytes@?$CTempBuffer@D$0BAA@VCCRTAllocator@ATL@@@ATL@@QAEPADI@Z ENDP ; ATL::CTempBuffer<char,256,ATL::CCRTAllocator>::AllocateBytes
_TEXT	ENDS
PUBLIC	?AllocateBytes@?$CTempBuffer@E$0BAA@VCCRTAllocator@ATL@@@ATL@@QAEPAEI@Z ; ATL::CTempBuffer<unsigned char,256,ATL::CCRTAllocator>::AllocateBytes
; Function compile flags: /Ogtpy
;	COMDAT ?AllocateBytes@?$CTempBuffer@E$0BAA@VCCRTAllocator@ATL@@@ATL@@QAEPAEI@Z
_TEXT	SEGMENT
_nBytes$ = 8						; size = 4
?AllocateBytes@?$CTempBuffer@E$0BAA@VCCRTAllocator@ATL@@@ATL@@QAEPAEI@Z PROC ; ATL::CTempBuffer<unsigned char,256,ATL::CCRTAllocator>::AllocateBytes, COMDAT
; _this$ = ecx

; 522  : 		ATLASSERT( m_p == NULL );
; 523  : 		if( nBytes > t_nFixedBytes )

  00000	8b 44 24 04	 mov	 eax, DWORD PTR _nBytes$[esp-4]
  00004	56		 push	 esi
  00005	8b f1		 mov	 esi, ecx
  00007	3d 00 01 00 00	 cmp	 eax, 256		; 00000100H
  0000c	76 0c		 jbe	 SHORT $LN2@AllocateBy@3

; 524  : 		{
; 525  : 			AllocateHeap( nBytes );

  0000e	50		 push	 eax
  0000f	e8 00 00 00 00	 call	 ?AllocateHeap@?$CTempBuffer@E$0BAA@VCCRTAllocator@ATL@@@ATL@@AAEXI@Z ; ATL::CTempBuffer<unsigned char,256,ATL::CCRTAllocator>::AllocateHeap

; 530  : 		}
; 531  : 
; 532  : 		return( m_p );

  00014	8b 06		 mov	 eax, DWORD PTR [esi]
  00016	5e		 pop	 esi

; 533  : 	}

  00017	c2 04 00	 ret	 4
$LN2@AllocateBy@3:

; 526  : 		}
; 527  : 		else
; 528  : 		{
; 529  : 			m_p = reinterpret_cast< T* >( m_abFixedBuffer );

  0001a	8d 46 04	 lea	 eax, DWORD PTR [esi+4]
  0001d	89 06		 mov	 DWORD PTR [esi], eax
  0001f	5e		 pop	 esi

; 533  : 	}

  00020	c2 04 00	 ret	 4
?AllocateBytes@?$CTempBuffer@E$0BAA@VCCRTAllocator@ATL@@@ATL@@QAEPAEI@Z ENDP ; ATL::CTempBuffer<unsigned char,256,ATL::CCRTAllocator>::AllocateBytes
_TEXT	ENDS
PUBLIC	??1CExpansionVector@ATL@@QAE@XZ			; ATL::CExpansionVector::~CExpansionVector
; Function compile flags: /Ogtpy
; File c:\program files (x86)\microsoft visual studio 9.0\vc\atlmfc\include\statreg.h
;	COMDAT ??1CExpansionVector@ATL@@QAE@XZ
_TEXT	SEGMENT
??1CExpansionVector@ATL@@QAE@XZ PROC			; ATL::CExpansionVector::~CExpansionVector, COMDAT
; _this$ = ecx

; 92   : 	{

  00000	56		 push	 esi
  00001	8b f1		 mov	 esi, ecx

; 93   : 		 ClearReplacements();

  00003	e8 00 00 00 00	 call	 ?ClearReplacements@CExpansionVector@ATL@@QAEJXZ ; ATL::CExpansionVector::ClearReplacements

; 94   : 	}

  00008	8b 06		 mov	 eax, DWORD PTR [esi]
  0000a	85 c0		 test	 eax, eax
  0000c	74 0f		 je	 SHORT $LN10@CExpansion
  0000e	50		 push	 eax
  0000f	e8 00 00 00 00	 call	 _free
  00014	83 c4 04	 add	 esp, 4
  00017	c7 06 00 00 00
	00		 mov	 DWORD PTR [esi], 0
$LN10@CExpansion:
  0001d	8b 46 04	 mov	 eax, DWORD PTR [esi+4]
  00020	85 c0		 test	 eax, eax
  00022	74 10		 je	 SHORT $LN15@CExpansion
  00024	50		 push	 eax
  00025	e8 00 00 00 00	 call	 _free
  0002a	83 c4 04	 add	 esp, 4
  0002d	c7 46 04 00 00
	00 00		 mov	 DWORD PTR [esi+4], 0
$LN15@CExpansion:
  00034	c7 46 08 00 00
	00 00		 mov	 DWORD PTR [esi+8], 0
  0003b	5e		 pop	 esi
  0003c	c3		 ret	 0
??1CExpansionVector@ATL@@QAE@XZ ENDP			; ATL::CExpansionVector::~CExpansionVector
_TEXT	ENDS
PUBLIC	__$ArrayPad$
PUBLIC	?AddString@CParseBuffer@CRegParser@ATL@@QAEHPB_W@Z ; ATL::CRegParser::CParseBuffer::AddString
EXTRN	___CxxFrameHandler3:PROC
EXTRN	__allmul:PROC
;	COMDAT xdata$x
; File c:\program files (x86)\microsoft visual studio 9.0\vc\atlmfc\include\atlalloc.h
xdata$x	SEGMENT
__unwindtable$?AddString@CParseBuffer@CRegParser@ATL@@QAEHPB_W@Z DD 0ffffffffH
	DD	FLAT:__unwindfunclet$?AddString@CParseBuffer@CRegParser@ATL@@QAEHPB_W@Z$0
__ehfuncinfo$?AddString@CParseBuffer@CRegParser@ATL@@QAEHPB_W@Z DD 019930522H
	DD	01H
	DD	FLAT:__unwindtable$?AddString@CParseBuffer@CRegParser@ATL@@QAEHPB_W@Z
	DD	2 DUP(00H)
	DD	2 DUP(00H)
	DD	00H
	DD	01H
; Function compile flags: /Ogtpy
; File c:\program files (x86)\microsoft visual studio 9.0\vc\atlmfc\include\statreg.h
xdata$x	ENDS
;	COMDAT ?AddString@CParseBuffer@CRegParser@ATL@@QAEHPB_W@Z
_TEXT	SEGMENT
_this$ = -24						; size = 4
__AtlSafeAllocaManager$ = -20				; size = 4
__$ArrayPad$ = -16					; size = 4
__$EHRec$ = -12						; size = 12
_lpsz$ = 8						; size = 4
?AddString@CParseBuffer@CRegParser@ATL@@QAEHPB_W@Z PROC	; ATL::CRegParser::CParseBuffer::AddString, COMDAT
; _this$ = ecx

; 247  : 		{

  00000	55		 push	 ebp
  00001	8b ec		 mov	 ebp, esp
  00003	6a ff		 push	 -1
  00005	68 00 00 00 00	 push	 __ehhandler$?AddString@CParseBuffer@CRegParser@ATL@@QAEHPB_W@Z
  0000a	64 a1 00 00 00
	00		 mov	 eax, DWORD PTR fs:0
  00010	50		 push	 eax
  00011	83 ec 0c	 sub	 esp, 12			; 0000000cH
  00014	a1 00 00 00 00	 mov	 eax, DWORD PTR ___security_cookie
  00019	33 c5		 xor	 eax, ebp
  0001b	89 45 f0	 mov	 DWORD PTR __$ArrayPad$[ebp], eax
  0001e	53		 push	 ebx
  0001f	56		 push	 esi
  00020	57		 push	 edi
  00021	50		 push	 eax
  00022	8d 45 f4	 lea	 eax, DWORD PTR __$EHRec$[ebp]
  00025	64 a3 00 00 00
	00		 mov	 DWORD PTR fs:0, eax
  0002b	89 4d e8	 mov	 DWORD PTR _this$[ebp], ecx

; 248  : 			if (lpsz == NULL)

  0002e	8b 5d 08	 mov	 ebx, DWORD PTR _lpsz$[ebp]
  00031	33 f6		 xor	 esi, esi
  00033	3b de		 cmp	 ebx, esi

; 249  : 			{
; 250  : 				return FALSE;

  00035	74 7e		 je	 SHORT $LN20@AddString

; 251  : 			}
; 252  : 			USES_CONVERSION_EX;

  00037	89 75 ec	 mov	 DWORD PTR __AtlSafeAllocaManager$[ebp], esi

; 253  : 			LPCTSTR lpszT = OLE2CT_EX(lpsz, _ATL_SAFE_ALLOCA_DEF_THRESHOLD);

  0003a	53		 push	 ebx
  0003b	89 75 fc	 mov	 DWORD PTR __$EHRec$[ebp+8], esi
  0003e	ff 15 00 00 00
	00		 call	 DWORD PTR __imp__lstrlenW@4
  00044	56		 push	 esi
  00045	40		 inc	 eax
  00046	99		 cdq
  00047	6a 02		 push	 2
  00049	52		 push	 edx
  0004a	50		 push	 eax
  0004b	e8 00 00 00 00	 call	 __allmul
  00050	8b f8		 mov	 edi, eax
