; Listing generated by Microsoft (R) Optimizing Compiler Version 15.00.30729.01 

	TITLE	c:\Users\Public\Desktop\projects\ciphershed\src\Common\util\csstringutil.cpp
	.686P
	.XMM
	include listing.inc
	.model	flat

INCLUDELIB LIBCMT
INCLUDELIB OLDNAMES

PUBLIC	??_C@_0P@GHFPNOJB@bad?5allocation?$AA@		; `string'
PUBLIC	?_Value@?$_Is_swap_move@U_Swap_move_tag@std@@@std@@2_NB ; std::_Is_swap_move<std::_Swap_move_tag>::_Value
PUBLIC	?collate@?$_Locbase@H@std@@2HB			; std::_Locbase<int>::collate
PUBLIC	?ctype@?$_Locbase@H@std@@2HB			; std::_Locbase<int>::ctype
PUBLIC	?monetary@?$_Locbase@H@std@@2HB			; std::_Locbase<int>::monetary
PUBLIC	?numeric@?$_Locbase@H@std@@2HB			; std::_Locbase<int>::numeric
PUBLIC	?time@?$_Locbase@H@std@@2HB			; std::_Locbase<int>::time
PUBLIC	?messages@?$_Locbase@H@std@@2HB			; std::_Locbase<int>::messages
PUBLIC	?all@?$_Locbase@H@std@@2HB			; std::_Locbase<int>::all
PUBLIC	?none@?$_Locbase@H@std@@2HB			; std::_Locbase<int>::none
PUBLIC	?table_size@?$ctype@D@std@@2IB			; std::ctype<char>::table_size
PUBLIC	?skipws@?$_Iosb@H@std@@2W4_Fmtflags@12@B	; std::_Iosb<int>::skipws
PUBLIC	?unitbuf@?$_Iosb@H@std@@2W4_Fmtflags@12@B	; std::_Iosb<int>::unitbuf
PUBLIC	?uppercase@?$_Iosb@H@std@@2W4_Fmtflags@12@B	; std::_Iosb<int>::uppercase
PUBLIC	?showbase@?$_Iosb@H@std@@2W4_Fmtflags@12@B	; std::_Iosb<int>::showbase
PUBLIC	?showpoint@?$_Iosb@H@std@@2W4_Fmtflags@12@B	; std::_Iosb<int>::showpoint
PUBLIC	?showpos@?$_Iosb@H@std@@2W4_Fmtflags@12@B	; std::_Iosb<int>::showpos
PUBLIC	?left@?$_Iosb@H@std@@2W4_Fmtflags@12@B		; std::_Iosb<int>::left
PUBLIC	?right@?$_Iosb@H@std@@2W4_Fmtflags@12@B		; std::_Iosb<int>::right
PUBLIC	?internal@?$_Iosb@H@std@@2W4_Fmtflags@12@B	; std::_Iosb<int>::internal
PUBLIC	?dec@?$_Iosb@H@std@@2W4_Fmtflags@12@B		; std::_Iosb<int>::dec
PUBLIC	?oct@?$_Iosb@H@std@@2W4_Fmtflags@12@B		; std::_Iosb<int>::oct
PUBLIC	?hex@?$_Iosb@H@std@@2W4_Fmtflags@12@B		; std::_Iosb<int>::hex
PUBLIC	?scientific@?$_Iosb@H@std@@2W4_Fmtflags@12@B	; std::_Iosb<int>::scientific
PUBLIC	?fixed@?$_Iosb@H@std@@2W4_Fmtflags@12@B		; std::_Iosb<int>::fixed
PUBLIC	?hexfloat@?$_Iosb@H@std@@2W4_Fmtflags@12@B	; std::_Iosb<int>::hexfloat
PUBLIC	?boolalpha@?$_Iosb@H@std@@2W4_Fmtflags@12@B	; std::_Iosb<int>::boolalpha
PUBLIC	?_Stdio@?$_Iosb@H@std@@2W4_Fmtflags@12@B	; std::_Iosb<int>::_Stdio
PUBLIC	?adjustfield@?$_Iosb@H@std@@2W4_Fmtflags@12@B	; std::_Iosb<int>::adjustfield
PUBLIC	?basefield@?$_Iosb@H@std@@2W4_Fmtflags@12@B	; std::_Iosb<int>::basefield
PUBLIC	?floatfield@?$_Iosb@H@std@@2W4_Fmtflags@12@B	; std::_Iosb<int>::floatfield
PUBLIC	?goodbit@?$_Iosb@H@std@@2W4_Iostate@12@B	; std::_Iosb<int>::goodbit
PUBLIC	?eofbit@?$_Iosb@H@std@@2W4_Iostate@12@B		; std::_Iosb<int>::eofbit
PUBLIC	?failbit@?$_Iosb@H@std@@2W4_Iostate@12@B	; std::_Iosb<int>::failbit
PUBLIC	?badbit@?$_Iosb@H@std@@2W4_Iostate@12@B		; std::_Iosb<int>::badbit
PUBLIC	?_Hardfail@?$_Iosb@H@std@@2W4_Iostate@12@B	; std::_Iosb<int>::_Hardfail
PUBLIC	?in@?$_Iosb@H@std@@2W4_Openmode@12@B		; std::_Iosb<int>::in
PUBLIC	?out@?$_Iosb@H@std@@2W4_Openmode@12@B		; std::_Iosb<int>::out
PUBLIC	?ate@?$_Iosb@H@std@@2W4_Openmode@12@B		; std::_Iosb<int>::ate
PUBLIC	?app@?$_Iosb@H@std@@2W4_Openmode@12@B		; std::_Iosb<int>::app
PUBLIC	?trunc@?$_Iosb@H@std@@2W4_Openmode@12@B		; std::_Iosb<int>::trunc
PUBLIC	?_Nocreate@?$_Iosb@H@std@@2W4_Openmode@12@B	; std::_Iosb<int>::_Nocreate
PUBLIC	?_Noreplace@?$_Iosb@H@std@@2W4_Openmode@12@B	; std::_Iosb<int>::_Noreplace
PUBLIC	?binary@?$_Iosb@H@std@@2W4_Openmode@12@B	; std::_Iosb<int>::binary
PUBLIC	?beg@?$_Iosb@H@std@@2W4_Seekdir@12@B		; std::_Iosb<int>::beg
PUBLIC	?cur@?$_Iosb@H@std@@2W4_Seekdir@12@B		; std::_Iosb<int>::cur
PUBLIC	?end@?$_Iosb@H@std@@2W4_Seekdir@12@B		; std::_Iosb<int>::end
PUBLIC	?value@?$integral_constant@_N$0A@@tr1@std@@2_NB	; std::tr1::integral_constant<bool,0>::value
PUBLIC	?value@?$integral_constant@_N$00@tr1@std@@2_NB	; std::tr1::integral_constant<bool,1>::value
;	COMDAT ?value@?$integral_constant@_N$00@tr1@std@@2_NB
CONST	SEGMENT
?value@?$integral_constant@_N$00@tr1@std@@2_NB DB 01H	; std::tr1::integral_constant<bool,1>::value
CONST	ENDS
;	COMDAT ?value@?$integral_constant@_N$0A@@tr1@std@@2_NB
CONST	SEGMENT
?value@?$integral_constant@_N$0A@@tr1@std@@2_NB DB 00H	; std::tr1::integral_constant<bool,0>::value
CONST	ENDS
;	COMDAT ?end@?$_Iosb@H@std@@2W4_Seekdir@12@B
CONST	SEGMENT
?end@?$_Iosb@H@std@@2W4_Seekdir@12@B DD 02H		; std::_Iosb<int>::end
CONST	ENDS
;	COMDAT ?cur@?$_Iosb@H@std@@2W4_Seekdir@12@B
CONST	SEGMENT
?cur@?$_Iosb@H@std@@2W4_Seekdir@12@B DD 01H		; std::_Iosb<int>::cur
CONST	ENDS
;	COMDAT ?beg@?$_Iosb@H@std@@2W4_Seekdir@12@B
CONST	SEGMENT
?beg@?$_Iosb@H@std@@2W4_Seekdir@12@B DD 00H		; std::_Iosb<int>::beg
CONST	ENDS
;	COMDAT ?binary@?$_Iosb@H@std@@2W4_Openmode@12@B
CONST	SEGMENT
?binary@?$_Iosb@H@std@@2W4_Openmode@12@B DD 020H	; std::_Iosb<int>::binary
CONST	ENDS
;	COMDAT ?_Noreplace@?$_Iosb@H@std@@2W4_Openmode@12@B
CONST	SEGMENT
?_Noreplace@?$_Iosb@H@std@@2W4_Openmode@12@B DD 080H	; std::_Iosb<int>::_Noreplace
CONST	ENDS
;	COMDAT ?_Nocreate@?$_Iosb@H@std@@2W4_Openmode@12@B
CONST	SEGMENT
?_Nocreate@?$_Iosb@H@std@@2W4_Openmode@12@B DD 040H	; std::_Iosb<int>::_Nocreate
CONST	ENDS
;	COMDAT ?trunc@?$_Iosb@H@std@@2W4_Openmode@12@B
CONST	SEGMENT
?trunc@?$_Iosb@H@std@@2W4_Openmode@12@B DD 010H		; std::_Iosb<int>::trunc
CONST	ENDS
;	COMDAT ?app@?$_Iosb@H@std@@2W4_Openmode@12@B
CONST	SEGMENT
?app@?$_Iosb@H@std@@2W4_Openmode@12@B DD 08H		; std::_Iosb<int>::app
CONST	ENDS
;	COMDAT ?ate@?$_Iosb@H@std@@2W4_Openmode@12@B
CONST	SEGMENT
?ate@?$_Iosb@H@std@@2W4_Openmode@12@B DD 04H		; std::_Iosb<int>::ate
CONST	ENDS
;	COMDAT ?out@?$_Iosb@H@std@@2W4_Openmode@12@B
CONST	SEGMENT
?out@?$_Iosb@H@std@@2W4_Openmode@12@B DD 02H		; std::_Iosb<int>::out
CONST	ENDS
;	COMDAT ?in@?$_Iosb@H@std@@2W4_Openmode@12@B
CONST	SEGMENT
?in@?$_Iosb@H@std@@2W4_Openmode@12@B DD 01H		; std::_Iosb<int>::in
CONST	ENDS
;	COMDAT ?_Hardfail@?$_Iosb@H@std@@2W4_Iostate@12@B
CONST	SEGMENT
?_Hardfail@?$_Iosb@H@std@@2W4_Iostate@12@B DD 010H	; std::_Iosb<int>::_Hardfail
CONST	ENDS
;	COMDAT ?badbit@?$_Iosb@H@std@@2W4_Iostate@12@B
CONST	SEGMENT
?badbit@?$_Iosb@H@std@@2W4_Iostate@12@B DD 04H		; std::_Iosb<int>::badbit
CONST	ENDS
;	COMDAT ?failbit@?$_Iosb@H@std@@2W4_Iostate@12@B
CONST	SEGMENT
?failbit@?$_Iosb@H@std@@2W4_Iostate@12@B DD 02H		; std::_Iosb<int>::failbit
CONST	ENDS
;	COMDAT ?eofbit@?$_Iosb@H@std@@2W4_Iostate@12@B
CONST	SEGMENT
?eofbit@?$_Iosb@H@std@@2W4_Iostate@12@B DD 01H		; std::_Iosb<int>::eofbit
CONST	ENDS
;	COMDAT ?goodbit@?$_Iosb@H@std@@2W4_Iostate@12@B
CONST	SEGMENT
?goodbit@?$_Iosb@H@std@@2W4_Iostate@12@B DD 00H		; std::_Iosb<int>::goodbit
CONST	ENDS
;	COMDAT ?floatfield@?$_Iosb@H@std@@2W4_Fmtflags@12@B
CONST	SEGMENT
?floatfield@?$_Iosb@H@std@@2W4_Fmtflags@12@B DD 03000H	; std::_Iosb<int>::floatfield
CONST	ENDS
;	COMDAT ?basefield@?$_Iosb@H@std@@2W4_Fmtflags@12@B
CONST	SEGMENT
?basefield@?$_Iosb@H@std@@2W4_Fmtflags@12@B DD 0e00H	; std::_Iosb<int>::basefield
CONST	ENDS
;	COMDAT ?adjustfield@?$_Iosb@H@std@@2W4_Fmtflags@12@B
CONST	SEGMENT
?adjustfield@?$_Iosb@H@std@@2W4_Fmtflags@12@B DD 01c0H	; std::_Iosb<int>::adjustfield
CONST	ENDS
;	COMDAT ?_Stdio@?$_Iosb@H@std@@2W4_Fmtflags@12@B
CONST	SEGMENT
?_Stdio@?$_Iosb@H@std@@2W4_Fmtflags@12@B DD 08000H	; std::_Iosb<int>::_Stdio
CONST	ENDS
;	COMDAT ?boolalpha@?$_Iosb@H@std@@2W4_Fmtflags@12@B
CONST	SEGMENT
?boolalpha@?$_Iosb@H@std@@2W4_Fmtflags@12@B DD 04000H	; std::_Iosb<int>::boolalpha
CONST	ENDS
;	COMDAT ?hexfloat@?$_Iosb@H@std@@2W4_Fmtflags@12@B
CONST	SEGMENT
?hexfloat@?$_Iosb@H@std@@2W4_Fmtflags@12@B DD 03000H	; std::_Iosb<int>::hexfloat
CONST	ENDS
;	COMDAT ?fixed@?$_Iosb@H@std@@2W4_Fmtflags@12@B
CONST	SEGMENT
?fixed@?$_Iosb@H@std@@2W4_Fmtflags@12@B DD 02000H	; std::_Iosb<int>::fixed
CONST	ENDS
;	COMDAT ?scientific@?$_Iosb@H@std@@2W4_Fmtflags@12@B
CONST	SEGMENT
?scientific@?$_Iosb@H@std@@2W4_Fmtflags@12@B DD 01000H	; std::_Iosb<int>::scientific
CONST	ENDS
;	COMDAT ?hex@?$_Iosb@H@std@@2W4_Fmtflags@12@B
CONST	SEGMENT
?hex@?$_Iosb@H@std@@2W4_Fmtflags@12@B DD 0800H		; std::_Iosb<int>::hex
CONST	ENDS
;	COMDAT ?oct@?$_Iosb@H@std@@2W4_Fmtflags@12@B
CONST	SEGMENT
?oct@?$_Iosb@H@std@@2W4_Fmtflags@12@B DD 0400H		; std::_Iosb<int>::oct
CONST	ENDS
;	COMDAT ?dec@?$_Iosb@H@std@@2W4_Fmtflags@12@B
CONST	SEGMENT
?dec@?$_Iosb@H@std@@2W4_Fmtflags@12@B DD 0200H		; std::_Iosb<int>::dec
CONST	ENDS
;	COMDAT ?internal@?$_Iosb@H@std@@2W4_Fmtflags@12@B
CONST	SEGMENT
?internal@?$_Iosb@H@std@@2W4_Fmtflags@12@B DD 0100H	; std::_Iosb<int>::internal
CONST	ENDS
;	COMDAT ?right@?$_Iosb@H@std@@2W4_Fmtflags@12@B
CONST	SEGMENT
?right@?$_Iosb@H@std@@2W4_Fmtflags@12@B DD 080H		; std::_Iosb<int>::right
CONST	ENDS
;	COMDAT ?left@?$_Iosb@H@std@@2W4_Fmtflags@12@B
CONST	SEGMENT
?left@?$_Iosb@H@std@@2W4_Fmtflags@12@B DD 040H		; std::_Iosb<int>::left
CONST	ENDS
;	COMDAT ?showpos@?$_Iosb@H@std@@2W4_Fmtflags@12@B
CONST	SEGMENT
?showpos@?$_Iosb@H@std@@2W4_Fmtflags@12@B DD 020H	; std::_Iosb<int>::showpos
CONST	ENDS
;	COMDAT ?showpoint@?$_Iosb@H@std@@2W4_Fmtflags@12@B
CONST	SEGMENT
?showpoint@?$_Iosb@H@std@@2W4_Fmtflags@12@B DD 010H	; std::_Iosb<int>::showpoint
CONST	ENDS
;	COMDAT ?showbase@?$_Iosb@H@std@@2W4_Fmtflags@12@B
CONST	SEGMENT
?showbase@?$_Iosb@H@std@@2W4_Fmtflags@12@B DD 08H	; std::_Iosb<int>::showbase
CONST	ENDS
;	COMDAT ?uppercase@?$_Iosb@H@std@@2W4_Fmtflags@12@B
CONST	SEGMENT
?uppercase@?$_Iosb@H@std@@2W4_Fmtflags@12@B DD 04H	; std::_Iosb<int>::uppercase
CONST	ENDS
;	COMDAT ?unitbuf@?$_Iosb@H@std@@2W4_Fmtflags@12@B
CONST	SEGMENT
?unitbuf@?$_Iosb@H@std@@2W4_Fmtflags@12@B DD 02H	; std::_Iosb<int>::unitbuf
CONST	ENDS
;	COMDAT ?skipws@?$_Iosb@H@std@@2W4_Fmtflags@12@B
CONST	SEGMENT
?skipws@?$_Iosb@H@std@@2W4_Fmtflags@12@B DD 01H		; std::_Iosb<int>::skipws
CONST	ENDS
;	COMDAT ?table_size@?$ctype@D@std@@2IB
CONST	SEGMENT
?table_size@?$ctype@D@std@@2IB DD 0100H			; std::ctype<char>::table_size
CONST	ENDS
;	COMDAT ?none@?$_Locbase@H@std@@2HB
CONST	SEGMENT
?none@?$_Locbase@H@std@@2HB DD 00H			; std::_Locbase<int>::none
CONST	ENDS
;	COMDAT ?all@?$_Locbase@H@std@@2HB
CONST	SEGMENT
?all@?$_Locbase@H@std@@2HB DD 03fH			; std::_Locbase<int>::all
CONST	ENDS
;	COMDAT ?messages@?$_Locbase@H@std@@2HB
CONST	SEGMENT
?messages@?$_Locbase@H@std@@2HB DD 020H			; std::_Locbase<int>::messages
CONST	ENDS
;	COMDAT ?time@?$_Locbase@H@std@@2HB
CONST	SEGMENT
?time@?$_Locbase@H@std@@2HB DD 010H			; std::_Locbase<int>::time
CONST	ENDS
;	COMDAT ?numeric@?$_Locbase@H@std@@2HB
CONST	SEGMENT
?numeric@?$_Locbase@H@std@@2HB DD 08H			; std::_Locbase<int>::numeric
CONST	ENDS
;	COMDAT ?monetary@?$_Locbase@H@std@@2HB
CONST	SEGMENT
?monetary@?$_Locbase@H@std@@2HB DD 04H			; std::_Locbase<int>::monetary
CONST	ENDS
;	COMDAT ?ctype@?$_Locbase@H@std@@2HB
CONST	SEGMENT
?ctype@?$_Locbase@H@std@@2HB DD 02H			; std::_Locbase<int>::ctype
CONST	ENDS
;	COMDAT ?collate@?$_Locbase@H@std@@2HB
CONST	SEGMENT
?collate@?$_Locbase@H@std@@2HB DD 01H			; std::_Locbase<int>::collate
CONST	ENDS
;	COMDAT ?_Value@?$_Is_swap_move@U_Swap_move_tag@std@@@std@@2_NB
CONST	SEGMENT
?_Value@?$_Is_swap_move@U_Swap_move_tag@std@@@std@@2_NB DB 01H ; std::_Is_swap_move<std::_Swap_move_tag>::_Value
CONST	ENDS
_DATA	SEGMENT
__bad_alloc_Message DD FLAT:??_C@_0P@GHFPNOJB@bad?5allocation?$AA@
_DATA	ENDS
;	COMDAT ??_C@_0P@GHFPNOJB@bad?5allocation?$AA@
CONST	SEGMENT
??_C@_0P@GHFPNOJB@bad?5allocation?$AA@ DB 'bad allocation', 00H ; `string'
CONST	ENDS
PUBLIC	??_7bad_alloc@std@@6B@				; std::bad_alloc::`vftable'
PUBLIC	??0bad_alloc@std@@QAE@PBD@Z			; std::bad_alloc::bad_alloc
PUBLIC	??_R4bad_alloc@std@@6B@				; std::bad_alloc::`RTTI Complete Object Locator'
PUBLIC	??_R0?AVbad_alloc@std@@@8			; std::bad_alloc `RTTI Type Descriptor'
PUBLIC	??_R3bad_alloc@std@@8				; std::bad_alloc::`RTTI Class Hierarchy Descriptor'
PUBLIC	??_R2bad_alloc@std@@8				; std::bad_alloc::`RTTI Base Class Array'
PUBLIC	??_R1A@?0A@EA@bad_alloc@std@@8			; std::bad_alloc::`RTTI Base Class Descriptor at (0,-1,0,64)'
PUBLIC	??_R1A@?0A@EA@exception@std@@8			; std::exception::`RTTI Base Class Descriptor at (0,-1,0,64)'
PUBLIC	??_R0?AVexception@std@@@8			; std::exception `RTTI Type Descriptor'
PUBLIC	??_R3exception@std@@8				; std::exception::`RTTI Class Hierarchy Descriptor'
PUBLIC	??_R2exception@std@@8				; std::exception::`RTTI Base Class Array'
EXTRN	??0exception@std@@QAE@ABQBD@Z:PROC		; std::exception::exception
EXTRN	??_7type_info@@6B@:QWORD			; type_info::`vftable'
EXTRN	??_Ebad_alloc@std@@UAEPAXI@Z:PROC		; std::bad_alloc::`vector deleting destructor'
EXTRN	?what@exception@std@@UBEPBDXZ:PROC		; std::exception::what
;	COMDAT ??_R2exception@std@@8
; File c:\program files (x86)\microsoft visual studio 9.0\vc\include\exception
rdata$r	SEGMENT
??_R2exception@std@@8 DD FLAT:??_R1A@?0A@EA@exception@std@@8 ; std::exception::`RTTI Base Class Array'
rdata$r	ENDS
;	COMDAT ??_R3exception@std@@8
rdata$r	SEGMENT
??_R3exception@std@@8 DD 00H				; std::exception::`RTTI Class Hierarchy Descriptor'
	DD	00H
	DD	01H
	DD	FLAT:??_R2exception@std@@8
rdata$r	ENDS
;	COMDAT ??_R0?AVexception@std@@@8
_DATA	SEGMENT
??_R0?AVexception@std@@@8 DD FLAT:??_7type_info@@6B@	; std::exception `RTTI Type Descriptor'
	DD	00H
	DB	'.?AVexception@std@@', 00H
_DATA	ENDS
;	COMDAT ??_R1A@?0A@EA@exception@std@@8
rdata$r	SEGMENT
??_R1A@?0A@EA@exception@std@@8 DD FLAT:??_R0?AVexception@std@@@8 ; std::exception::`RTTI Base Class Descriptor at (0,-1,0,64)'
	DD	00H
	DD	00H
	DD	0ffffffffH
	DD	00H
	DD	040H
	DD	FLAT:??_R3exception@std@@8
rdata$r	ENDS
;	COMDAT ??_R1A@?0A@EA@bad_alloc@std@@8
rdata$r	SEGMENT
??_R1A@?0A@EA@bad_alloc@std@@8 DD FLAT:??_R0?AVbad_alloc@std@@@8 ; std::bad_alloc::`RTTI Base Class Descriptor at (0,-1,0,64)'
	DD	01H
	DD	00H
	DD	0ffffffffH
	DD	00H
	DD	040H
	DD	FLAT:??_R3bad_alloc@std@@8
rdata$r	ENDS
;	COMDAT ??_R2bad_alloc@std@@8
rdata$r	SEGMENT
??_R2bad_alloc@std@@8 DD FLAT:??_R1A@?0A@EA@bad_alloc@std@@8 ; std::bad_alloc::`RTTI Base Class Array'
	DD	FLAT:??_R1A@?0A@EA@exception@std@@8
rdata$r	ENDS
;	COMDAT ??_R3bad_alloc@std@@8
rdata$r	SEGMENT
??_R3bad_alloc@std@@8 DD 00H				; std::bad_alloc::`RTTI Class Hierarchy Descriptor'
	DD	00H
	DD	02H
	DD	FLAT:??_R2bad_alloc@std@@8
rdata$r	ENDS
;	COMDAT ??_R0?AVbad_alloc@std@@@8
_DATA	SEGMENT
??_R0?AVbad_alloc@std@@@8 DD FLAT:??_7type_info@@6B@	; std::bad_alloc `RTTI Type Descriptor'
	DD	00H
	DB	'.?AVbad_alloc@std@@', 00H
_DATA	ENDS
;	COMDAT ??_R4bad_alloc@std@@6B@
rdata$r	SEGMENT
??_R4bad_alloc@std@@6B@ DD 00H				; std::bad_alloc::`RTTI Complete Object Locator'
	DD	00H
	DD	00H
	DD	FLAT:??_R0?AVbad_alloc@std@@@8
	DD	FLAT:??_R3bad_alloc@std@@8
rdata$r	ENDS
;	COMDAT ??_7bad_alloc@std@@6B@
CONST	SEGMENT
??_7bad_alloc@std@@6B@ DD FLAT:??_R4bad_alloc@std@@6B@	; std::bad_alloc::`vftable'
	DD	FLAT:??_Ebad_alloc@std@@UAEPAXI@Z
	DD	FLAT:?what@exception@std@@UBEPBDXZ
; Function compile flags: /Ogtpy
CONST	ENDS
;	COMDAT ??0bad_alloc@std@@QAE@PBD@Z
_TEXT	SEGMENT
__Message$ = 8						; size = 4
??0bad_alloc@std@@QAE@PBD@Z PROC			; std::bad_alloc::bad_alloc, COMDAT
; _this$ = ecx

; 371  : 		{	// construct from message string

  00000	56		 push	 esi
  00001	8d 44 24 08	 lea	 eax, DWORD PTR __Message$[esp]
  00005	50		 push	 eax
  00006	8b f1		 mov	 esi, ecx
  00008	e8 00 00 00 00	 call	 ??0exception@std@@QAE@ABQBD@Z ; std::exception::exception
  0000d	c7 06 00 00 00
	00		 mov	 DWORD PTR [esi], OFFSET ??_7bad_alloc@std@@6B@

; 372  : 		}

  00013	8b c6		 mov	 eax, esi
  00015	5e		 pop	 esi
  00016	c2 04 00	 ret	 4
??0bad_alloc@std@@QAE@PBD@Z ENDP			; std::bad_alloc::bad_alloc
_TEXT	ENDS
PUBLIC	??1bad_alloc@std@@UAE@XZ			; std::bad_alloc::~bad_alloc
EXTRN	??1exception@std@@UAE@XZ:PROC			; std::exception::~exception
; Function compile flags: /Ogtpy
;	COMDAT ??1bad_alloc@std@@UAE@XZ
_TEXT	SEGMENT
??1bad_alloc@std@@UAE@XZ PROC				; std::bad_alloc::~bad_alloc, COMDAT
; _this$ = ecx

; 380  : 		{	// destroy the object

  00000	c7 01 00 00 00
	00		 mov	 DWORD PTR [ecx], OFFSET ??_7bad_alloc@std@@6B@

; 381  : 		}

  00006	e9 00 00 00 00	 jmp	 ??1exception@std@@UAE@XZ ; std::exception::~exception
??1bad_alloc@std@@UAE@XZ ENDP				; std::bad_alloc::~bad_alloc
_TEXT	ENDS
EXTRN	??3@YAXPAX@Z:PROC				; operator delete
; Function compile flags: /Ogtpy
;	COMDAT ??_Gbad_alloc@std@@UAEPAXI@Z
_TEXT	SEGMENT
___flags$ = 8						; size = 4
??_Gbad_alloc@std@@UAEPAXI@Z PROC			; std::bad_alloc::`scalar deleting destructor', COMDAT
; _this$ = ecx
  00000	56		 push	 esi
  00001	8b f1		 mov	 esi, ecx
  00003	c7 06 00 00 00
	00		 mov	 DWORD PTR [esi], OFFSET ??_7bad_alloc@std@@6B@
  00009	e8 00 00 00 00	 call	 ??1exception@std@@UAE@XZ ; std::exception::~exception
  0000e	f6 44 24 08 01	 test	 BYTE PTR ___flags$[esp], 1
  00013	74 09		 je	 SHORT $LN6@scalar
  00015	56		 push	 esi
  00016	e8 00 00 00 00	 call	 ??3@YAXPAX@Z		; operator delete
  0001b	83 c4 04	 add	 esp, 4
$LN6@scalar:
  0001e	8b c6		 mov	 eax, esi
  00020	5e		 pop	 esi
  00021	c2 04 00	 ret	 4
??_Gbad_alloc@std@@UAEPAXI@Z ENDP			; std::bad_alloc::`scalar deleting destructor'
_TEXT	ENDS
PUBLIC	_wmemcpy_s
EXTRN	_memcpy_s:PROC
; Function compile flags: /Ogtpy
; File c:\program files (x86)\microsoft visual studio 9.0\vc\include\wchar.h
;	COMDAT _wmemcpy_s
_TEXT	SEGMENT
__S1$ = 8						; size = 4
__N1$ = 12						; size = 4
__S2$ = 16						; size = 4
__N$ = 20						; size = 4
_wmemcpy_s PROC						; COMDAT

; 1232 : #pragma warning( push )
; 1233 : #pragma warning( disable : 6386 )
; 1234 :             return memcpy_s(_S1, _N1*sizeof(wchar_t), _S2, _N*sizeof(wchar_t));

  00000	8b 44 24 10	 mov	 eax, DWORD PTR __N$[esp-4]
  00004	8d 0c 00	 lea	 ecx, DWORD PTR [eax+eax]
  00007	89 4c 24 10	 mov	 DWORD PTR __N$[esp-4], ecx
  0000b	8b 44 24 08	 mov	 eax, DWORD PTR __N1$[esp-4]
  0000f	8d 0c 00	 lea	 ecx, DWORD PTR [eax+eax]
  00012	89 4c 24 08	 mov	 DWORD PTR __N1$[esp-4], ecx
  00016	e9 00 00 00 00	 jmp	 _memcpy_s
_wmemcpy_s ENDP
_TEXT	ENDS
PUBLIC	_wmemmove_s
EXTRN	_memmove_s:PROC
; Function compile flags: /Ogtpy
;	COMDAT _wmemmove_s
_TEXT	SEGMENT
__S1$ = 8						; size = 4
__N1$ = 12						; size = 4
__S2$ = 16						; size = 4
__N$ = 20						; size = 4
_wmemmove_s PROC					; COMDAT

; 1252 : #pragma warning( push )
; 1253 : #pragma warning( disable : 6386 )
; 1254 :             return memmove_s(_S1, _N1*sizeof(wchar_t), _S2, _N*sizeof(wchar_t));

  00000	8b 44 24 10	 mov	 eax, DWORD PTR __N$[esp-4]
  00004	8d 0c 00	 lea	 ecx, DWORD PTR [eax+eax]
  00007	89 4c 24 10	 mov	 DWORD PTR __N$[esp-4], ecx
  0000b	8b 44 24 08	 mov	 eax, DWORD PTR __N1$[esp-4]
  0000f	8d 0c 00	 lea	 ecx, DWORD PTR [eax+eax]
  00012	89 4c 24 08	 mov	 DWORD PTR __N1$[esp-4], ecx
  00016	e9 00 00 00 00	 jmp	 _memmove_s
_wmemmove_s ENDP
_TEXT	ENDS
PUBLIC	?assign@?$char_traits@_W@std@@SAXAA_WAB_W@Z	; std::char_traits<wchar_t>::assign
; Function compile flags: /Ogtpy
; File c:\program files (x86)\microsoft visual studio 9.0\vc\include\iosfwd
;	COMDAT ?assign@?$char_traits@_W@std@@SAXAA_WAB_W@Z
_TEXT	SEGMENT
__Left$ = 8						; size = 4
__Right$ = 12						; size = 4
?assign@?$char_traits@_W@std@@SAXAA_WAB_W@Z PROC	; std::char_traits<wchar_t>::assign, COMDAT

; 310  : 		_Left = _Right;

  00000	8b 44 24 08	 mov	 eax, DWORD PTR __Right$[esp-4]
  00004	66 8b 08	 mov	 cx, WORD PTR [eax]
  00007	8b 54 24 04	 mov	 edx, DWORD PTR __Left$[esp-4]
  0000b	66 89 0a	 mov	 WORD PTR [edx], cx

; 311  : 		}

  0000e	c3		 ret	 0
?assign@?$char_traits@_W@std@@SAXAA_WAB_W@Z ENDP	; std::char_traits<wchar_t>::assign
_TEXT	ENDS
PUBLIC	?length@?$char_traits@_W@std@@SAIPB_W@Z		; std::char_traits<wchar_t>::length
; Function compile flags: /Ogtpy
;	COMDAT ?length@?$char_traits@_W@std@@SAIPB_W@Z
_TEXT	SEGMENT
__First$ = 8						; size = 4
?length@?$char_traits@_W@std@@SAIPB_W@Z PROC		; std::char_traits<wchar_t>::length, COMDAT

; 333  : //		_DEBUG_POINTER(_First);
; 334  : 		return (::wcslen(_First));

  00000	8b 44 24 04	 mov	 eax, DWORD PTR __First$[esp-4]
  00004	8d 50 02	 lea	 edx, DWORD PTR [eax+2]
$LL3@length:
  00007	66 8b 08	 mov	 cx, WORD PTR [eax]
  0000a	83 c0 02	 add	 eax, 2
  0000d	66 85 c9	 test	 cx, cx
  00010	75 f5		 jne	 SHORT $LL3@length
  00012	2b c2		 sub	 eax, edx
  00014	d1 f8		 sar	 eax, 1

; 335  : 		}

  00016	c3		 ret	 0
?length@?$char_traits@_W@std@@SAIPB_W@Z ENDP		; std::char_traits<wchar_t>::length
_TEXT	ENDS
PUBLIC	?_Copy_s@?$char_traits@_W@std@@SAPA_WPA_WIPB_WI@Z ; std::char_traits<wchar_t>::_Copy_s
; Function compile flags: /Ogtpy
;	COMDAT ?_Copy_s@?$char_traits@_W@std@@SAPA_WPA_WIPB_WI@Z
_TEXT	SEGMENT
__First1$ = 8						; size = 4
__Size_in_words$ = 12					; size = 4
__First2$ = 16						; size = 4
__Count$ = 20						; size = 4
?_Copy_s@?$char_traits@_W@std@@SAPA_WPA_WIPB_WI@Z PROC	; std::char_traits<wchar_t>::_Copy_s, COMDAT

; 348  : //		_DEBUG_POINTER(_First1);
; 349  : //		_DEBUG_POINTER(_First2);
; 350  : 		_CRT_SECURE_WMEMCPY(_First1, _Size_in_words, _First2, _Count);

  00000	8b 44 24 10	 mov	 eax, DWORD PTR __Count$[esp-4]
  00004	8b 54 24 0c	 mov	 edx, DWORD PTR __First2$[esp-4]
  00008	56		 push	 esi
  00009	8b 74 24 08	 mov	 esi, DWORD PTR __First1$[esp]
  0000d	8d 0c 00	 lea	 ecx, DWORD PTR [eax+eax]
  00010	8b 44 24 0c	 mov	 eax, DWORD PTR __Size_in_words$[esp]
  00014	51		 push	 ecx
  00015	52		 push	 edx
  00016	8d 0c 00	 lea	 ecx, DWORD PTR [eax+eax]
  00019	51		 push	 ecx
  0001a	56		 push	 esi
  0001b	e8 00 00 00 00	 call	 _memcpy_s
  00020	83 c4 10	 add	 esp, 16			; 00000010H

; 351  : 		return _First1;

  00023	8b c6		 mov	 eax, esi
  00025	5e		 pop	 esi

; 352  : 		}

  00026	c3		 ret	 0
?_Copy_s@?$char_traits@_W@std@@SAPA_WPA_WIPB_WI@Z ENDP	; std::char_traits<wchar_t>::_Copy_s
_TEXT	ENDS
PUBLIC	?_Move_s@?$char_traits@_W@std@@SAPA_WPA_WIPB_WI@Z ; std::char_traits<wchar_t>::_Move_s
; Function compile flags: /Ogtpy
;	COMDAT ?_Move_s@?$char_traits@_W@std@@SAPA_WPA_WIPB_WI@Z
_TEXT	SEGMENT
__First1$ = 8						; size = 4
__Size_in_words$ = 12					; size = 4
__First2$ = 16						; size = 4
__Count$ = 20						; size = 4
?_Move_s@?$char_traits@_W@std@@SAPA_WPA_WIPB_WI@Z PROC	; std::char_traits<wchar_t>::_Move_s, COMDAT

; 372  : //		_DEBUG_POINTER(_First1);
; 373  : //		_DEBUG_POINTER(_First2);
; 374  : 		_CRT_SECURE_WMEMMOVE(_First1, _Size_in_words, _First2, _Count);

  00000	8b 44 24 10	 mov	 eax, DWORD PTR __Count$[esp-4]
  00004	8b 54 24 0c	 mov	 edx, DWORD PTR __First2$[esp-4]
  00008	56		 push	 esi
  00009	8b 74 24 08	 mov	 esi, DWORD PTR __First1$[esp]
  0000d	8d 0c 00	 lea	 ecx, DWORD PTR [eax+eax]
  00010	8b 44 24 0c	 mov	 eax, DWORD PTR __Size_in_words$[esp]
  00014	51		 push	 ecx
  00015	52		 push	 edx
  00016	8d 0c 00	 lea	 ecx, DWORD PTR [eax+eax]
  00019	51		 push	 ecx
  0001a	56		 push	 esi
  0001b	e8 00 00 00 00	 call	 _memmove_s
  00020	83 c4 10	 add	 esp, 16			; 00000010H

; 375  : 		return (_Elem *)_First1;

  00023	8b c6		 mov	 eax, esi
  00025	5e		 pop	 esi

; 376  : 		}

  00026	c3		 ret	 0
?_Move_s@?$char_traits@_W@std@@SAPA_WPA_WIPB_WI@Z ENDP	; std::char_traits<wchar_t>::_Move_s
_TEXT	ENDS
PUBLIC	?assign@?$char_traits@D@std@@SAXAADABD@Z	; std::char_traits<char>::assign
; Function compile flags: /Ogtpy
;	COMDAT ?assign@?$char_traits@D@std@@SAXAADABD@Z
_TEXT	SEGMENT
__Left$ = 8						; size = 4
__Right$ = 12						; size = 4
?assign@?$char_traits@D@std@@SAXAADABD@Z PROC		; std::char_traits<char>::assign, COMDAT

; 425  : 		_Left = _Right;

  00000	8b 44 24 08	 mov	 eax, DWORD PTR __Right$[esp-4]
  00004	8a 08		 mov	 cl, BYTE PTR [eax]
  00006	8b 54 24 04	 mov	 edx, DWORD PTR __Left$[esp-4]
  0000a	88 0a		 mov	 BYTE PTR [edx], cl

; 426  : 		}

  0000c	c3		 ret	 0
?assign@?$char_traits@D@std@@SAXAADABD@Z ENDP		; std::char_traits<char>::assign
_TEXT	ENDS
PUBLIC	?length@?$char_traits@D@std@@SAIPBD@Z		; std::char_traits<char>::length
; Function compile flags: /Ogtpy
;	COMDAT ?length@?$char_traits@D@std@@SAIPBD@Z
_TEXT	SEGMENT
__First$ = 8						; size = 4
?length@?$char_traits@D@std@@SAIPBD@Z PROC		; std::char_traits<char>::length, COMDAT

; 448  : //		_DEBUG_POINTER(_First);
; 449  : 		return (::strlen(_First));

  00000	8b 44 24 04	 mov	 eax, DWORD PTR __First$[esp-4]
  00004	8d 50 01	 lea	 edx, DWORD PTR [eax+1]
$LL3@length@2:
  00007	8a 08		 mov	 cl, BYTE PTR [eax]
  00009	40		 inc	 eax
  0000a	84 c9		 test	 cl, cl
  0000c	75 f9		 jne	 SHORT $LL3@length@2
  0000e	2b c2		 sub	 eax, edx

; 450  : 		}

  00010	c3		 ret	 0
?length@?$char_traits@D@std@@SAIPBD@Z ENDP		; std::char_traits<char>::length
_TEXT	ENDS
PUBLIC	?_Copy_s@?$char_traits@D@std@@SAPADPADIPBDI@Z	; std::char_traits<char>::_Copy_s
; Function compile flags: /Ogtpy
;	COMDAT ?_Copy_s@?$char_traits@D@std@@SAPADPADIPBDI@Z
_TEXT	SEGMENT
__First1$ = 8						; size = 4
__Size_in_bytes$ = 12					; size = 4
__First2$ = 16						; size = 4
__Count$ = 20						; size = 4
?_Copy_s@?$char_traits@D@std@@SAPADPADIPBDI@Z PROC	; std::char_traits<char>::_Copy_s, COMDAT

; 463  : //		_DEBUG_POINTER(_First1);
; 464  : //		_DEBUG_POINTER(_First2);
; 465  : 		_CRT_SECURE_MEMCPY(_First1, _Size_in_bytes, _First2, _Count);

  00000	8b 44 24 10	 mov	 eax, DWORD PTR __Count$[esp-4]
  00004	8b 4c 24 0c	 mov	 ecx, DWORD PTR __First2$[esp-4]
  00008	8b 54 24 08	 mov	 edx, DWORD PTR __Size_in_bytes$[esp-4]
  0000c	56		 push	 esi
  0000d	8b 74 24 08	 mov	 esi, DWORD PTR __First1$[esp]
  00011	50		 push	 eax
  00012	51		 push	 ecx
  00013	52		 push	 edx
  00014	56		 push	 esi
  00015	e8 00 00 00 00	 call	 _memcpy_s
  0001a	83 c4 10	 add	 esp, 16			; 00000010H

; 466  : 		return _First1;

  0001d	8b c6		 mov	 eax, esi
  0001f	5e		 pop	 esi

; 467  : 		}

  00020	c3		 ret	 0
?_Copy_s@?$char_traits@D@std@@SAPADPADIPBDI@Z ENDP	; std::char_traits<char>::_Copy_s
_TEXT	ENDS
PUBLIC	?_Move_s@?$char_traits@D@std@@SAPADPADIPBDI@Z	; std::char_traits<char>::_Move_s
; Function compile flags: /Ogtpy
;	COMDAT ?_Move_s@?$char_traits@D@std@@SAPADPADIPBDI@Z
_TEXT	SEGMENT
__First1$ = 8						; size = 4
__Size_in_bytes$ = 12					; size = 4
__First2$ = 16						; size = 4
__Count$ = 20						; size = 4
?_Move_s@?$char_traits@D@std@@SAPADPADIPBDI@Z PROC	; std::char_traits<char>::_Move_s, COMDAT

; 487  : //		_DEBUG_POINTER(_First1);
; 488  : //		_DEBUG_POINTER(_First2);
; 489  : 		_CRT_SECURE_MEMMOVE(_First1, _Size_in_bytes, _First2, _Count);

  00000	8b 44 24 10	 mov	 eax, DWORD PTR __Count$[esp-4]
  00004	8b 4c 24 0c	 mov	 ecx, DWORD PTR __First2$[esp-4]
  00008	8b 54 24 08	 mov	 edx, DWORD PTR __Size_in_bytes$[esp-4]
  0000c	56		 push	 esi
  0000d	8b 74 24 08	 mov	 esi, DWORD PTR __First1$[esp]
  00011	50		 push	 eax
  00012	51		 push	 ecx
  00013	52		 push	 edx
  00014	56		 push	 esi
  00015	e8 00 00 00 00	 call	 _memmove_s
  0001a	83 c4 10	 add	 esp, 16			; 00000010H

; 490  : 		return _First1;

  0001d	8b c6		 mov	 eax, esi
  0001f	5e		 pop	 esi

; 491  : 		}

  00020	c3		 ret	 0
?_Move_s@?$char_traits@D@std@@SAPADPADIPBDI@Z ENDP	; std::char_traits<char>::_Move_s
_TEXT	ENDS
PUBLIC	?assign@?$char_traits@D@std@@SAPADPADID@Z	; std::char_traits<char>::assign
EXTRN	_memset:PROC
; Function compile flags: /Ogtpy
;	COMDAT ?assign@?$char_traits@D@std@@SAPADPADID@Z
_TEXT	SEGMENT
__First$ = 8						; size = 4
__Count$ = 12						; size = 4
__Ch$ = 16						; size = 1
?assign@?$char_traits@D@std@@SAPADPADID@Z PROC		; std::char_traits<char>::assign, COMDAT

; 495  : //		_DEBUG_POINTER(_First);
; 496  : 		return ((_Elem *)::memset(_First, _Ch, _Count));

  00000	8b 44 24 08	 mov	 eax, DWORD PTR __Count$[esp-4]
  00004	0f be 4c 24 0c	 movsx	 ecx, BYTE PTR __Ch$[esp-4]
  00009	8b 54 24 04	 mov	 edx, DWORD PTR __First$[esp-4]
  0000d	50		 push	 eax
  0000e	51		 push	 ecx
  0000f	52		 push	 edx
  00010	e8 00 00 00 00	 call	 _memset
  00015	83 c4 0c	 add	 esp, 12			; 0000000cH

; 497  : 		}

  00018	c3		 ret	 0
?assign@?$char_traits@D@std@@SAPADPADID@Z ENDP		; std::char_traits<char>::assign
_TEXT	ENDS
PUBLIC	??0_Iterator_base_secure@std@@QAE@XZ		; std::_Iterator_base_secure::_Iterator_base_secure
; Function compile flags: /Ogtpy
; File c:\program files (x86)\microsoft visual studio 9.0\vc\include\xutility
;	COMDAT ??0_Iterator_base_secure@std@@QAE@XZ
_TEXT	SEGMENT
??0_Iterator_base_secure@std@@QAE@XZ PROC		; std::_Iterator_base_secure::_Iterator_base_secure, COMDAT
; _this$ = ecx

; 567  : 		{

  00000	8b c1		 mov	 eax, ecx
  00002	c7 00 00 00 00
	00		 mov	 DWORD PTR [eax], 0

; 568  : 		}

  00008	c3		 ret	 0
??0_Iterator_base_secure@std@@QAE@XZ ENDP		; std::_Iterator_base_secure::_Iterator_base_secure
_TEXT	ENDS
PUBLIC	?_Has_container@_Iterator_base_secure@std@@QBE_NXZ ; std::_Iterator_base_secure::_Has_container
; Function compile flags: /Ogtpy
;	COMDAT ?_Has_container@_Iterator_base_secure@std@@QBE_NXZ
_TEXT	SEGMENT
?_Has_container@_Iterator_base_secure@std@@QBE_NXZ PROC	; std::_Iterator_base_secure::_Has_container, COMDAT
; _this$ = ecx

; 582  : 		return _Mycont != 0;

  00000	33 c0		 xor	 eax, eax
  00002	39 01		 cmp	 DWORD PTR [ecx], eax
  00004	0f 95 c0	 setne	 al

; 583  : 		}

  00007	c3		 ret	 0
?_Has_container@_Iterator_base_secure@std@@QBE_NXZ ENDP	; std::_Iterator_base_secure::_Has_container
_TEXT	ENDS
PUBLIC	??_7Exception@CipherShed@@6B@			; CipherShed::Exception::`vftable'
PUBLIC	??0Exception@CipherShed@@QAE@XZ			; CipherShed::Exception::Exception
PUBLIC	??_R4Exception@CipherShed@@6B@			; CipherShed::Exception::`RTTI Complete Object Locator'
PUBLIC	??_R0?AUException@CipherShed@@@8		; CipherShed::Exception `RTTI Type Descriptor'
PUBLIC	??_R3Exception@CipherShed@@8			; CipherShed::Exception::`RTTI Class Hierarchy Descriptor'
PUBLIC	??_R2Exception@CipherShed@@8			; CipherShed::Exception::`RTTI Base Class Array'
PUBLIC	??_R1A@?0A@EA@Exception@CipherShed@@8		; CipherShed::Exception::`RTTI Base Class Descriptor at (0,-1,0,64)'
EXTRN	__purecall:PROC
;	COMDAT ??_R1A@?0A@EA@Exception@CipherShed@@8
rdata$r	SEGMENT
??_R1A@?0A@EA@Exception@CipherShed@@8 DD FLAT:??_R0?AUException@CipherShed@@@8 ; CipherShed::Exception::`RTTI Base Class Descriptor at (0,-1,0,64)'
	DD	00H
	DD	00H
	DD	0ffffffffH
	DD	00H
	DD	040H
	DD	FLAT:??_R3Exception@CipherShed@@8
rdata$r	ENDS
;	COMDAT ??_R2Exception@CipherShed@@8
rdata$r	SEGMENT
??_R2Exception@CipherShed@@8 DD FLAT:??_R1A@?0A@EA@Exception@CipherShed@@8 ; CipherShed::Exception::`RTTI Base Class Array'
rdata$r	ENDS
;	COMDAT ??_R3Exception@CipherShed@@8
rdata$r	SEGMENT
??_R3Exception@CipherShed@@8 DD 00H			; CipherShed::Exception::`RTTI Class Hierarchy Descriptor'
	DD	00H
	DD	01H
	DD	FLAT:??_R2Exception@CipherShed@@8
rdata$r	ENDS
;	COMDAT ??_R0?AUException@CipherShed@@@8
_DATA	SEGMENT
??_R0?AUException@CipherShed@@@8 DD FLAT:??_7type_info@@6B@ ; CipherShed::Exception `RTTI Type Descriptor'
	DD	00H
	DB	'.?AUException@CipherShed@@', 00H
_DATA	ENDS
;	COMDAT ??_R4Exception@CipherShed@@6B@
rdata$r	SEGMENT
??_R4Exception@CipherShed@@6B@ DD 00H			; CipherShed::Exception::`RTTI Complete Object Locator'
	DD	00H
	DD	00H
	DD	FLAT:??_R0?AUException@CipherShed@@@8
	DD	FLAT:??_R3Exception@CipherShed@@8
rdata$r	ENDS
;	COMDAT ??_7Exception@CipherShed@@6B@
CONST	SEGMENT
??_7Exception@CipherShed@@6B@ DD FLAT:??_R4Exception@CipherShed@@6B@ ; CipherShed::Exception::`vftable'
	DD	FLAT:__purecall
; Function compile flags: /Ogtpy
CONST	ENDS
;	COMDAT ??0Exception@CipherShed@@QAE@XZ
_TEXT	SEGMENT
??0Exception@CipherShed@@QAE@XZ PROC			; CipherShed::Exception::Exception, COMDAT
; _this$ = ecx
  00000	8b c1		 mov	 eax, ecx
  00002	c7 00 00 00 00
	00		 mov	 DWORD PTR [eax], OFFSET ??_7Exception@CipherShed@@6B@
  00008	c3		 ret	 0
??0Exception@CipherShed@@QAE@XZ ENDP			; CipherShed::Exception::Exception
_TEXT	ENDS
PUBLIC	??_7Container@ForEach@CipherShed@@6B@		; CipherShed::ForEach::Container::`vftable'
PUBLIC	??0Container@ForEach@CipherShed@@QAE@XZ		; CipherShed::ForEach::Container::Container
PUBLIC	??_R4Container@ForEach@CipherShed@@6B@		; CipherShed::ForEach::Container::`RTTI Complete Object Locator'
PUBLIC	??_R0?AUContainer@ForEach@CipherShed@@@8	; CipherShed::ForEach::Container `RTTI Type Descriptor'
PUBLIC	??_R3Container@ForEach@CipherShed@@8		; CipherShed::ForEach::Container::`RTTI Class Hierarchy Descriptor'
PUBLIC	??_R2Container@ForEach@CipherShed@@8		; CipherShed::ForEach::Container::`RTTI Base Class Array'
PUBLIC	??_R1A@?0A@EA@Container@ForEach@CipherShed@@8	; CipherShed::ForEach::Container::`RTTI Base Class Descriptor at (0,-1,0,64)'
EXTRN	??_EContainer@ForEach@CipherShed@@UAEPAXI@Z:PROC ; CipherShed::ForEach::Container::`vector deleting destructor'
;	COMDAT ??_R1A@?0A@EA@Container@ForEach@CipherShed@@8
; File c:\users\public\desktop\projects\ciphershed\src\platform\foreach.h
rdata$r	SEGMENT
??_R1A@?0A@EA@Container@ForEach@CipherShed@@8 DD FLAT:??_R0?AUContainer@ForEach@CipherShed@@@8 ; CipherShed::ForEach::Container::`RTTI Base Class Descriptor at (0,-1,0,64)'
	DD	00H
	DD	00H
	DD	0ffffffffH
	DD	00H
	DD	040H
	DD	FLAT:??_R3Container@ForEach@CipherShed@@8
rdata$r	ENDS
;	COMDAT ??_R2Container@ForEach@CipherShed@@8
rdata$r	SEGMENT
??_R2Container@ForEach@CipherShed@@8 DD FLAT:??_R1A@?0A@EA@Container@ForEach@CipherShed@@8 ; CipherShed::ForEach::Container::`RTTI Base Class Array'
rdata$r	ENDS
;	COMDAT ??_R3Container@ForEach@CipherShed@@8
rdata$r	SEGMENT
??_R3Container@ForEach@CipherShed@@8 DD 00H		; CipherShed::ForEach::Container::`RTTI Class Hierarchy Descriptor'
	DD	00H
	DD	01H
	DD	FLAT:??_R2Container@ForEach@CipherShed@@8
rdata$r	ENDS
;	COMDAT ??_R0?AUContainer@ForEach@CipherShed@@@8
_DATA	SEGMENT
??_R0?AUContainer@ForEach@CipherShed@@@8 DD FLAT:??_7type_info@@6B@ ; CipherShed::ForEach::Container `RTTI Type Descriptor'
	DD	00H
	DB	'.?AUContainer@ForEach@CipherShed@@', 00H
_DATA	ENDS
;	COMDAT ??_R4Container@ForEach@CipherShed@@6B@
rdata$r	SEGMENT
??_R4Container@ForEach@CipherShed@@6B@ DD 00H		; CipherShed::ForEach::Container::`RTTI Complete Object Locator'
	DD	00H
	DD	00H
	DD	FLAT:??_R0?AUContainer@ForEach@CipherShed@@@8
	DD	FLAT:??_R3Container@ForEach@CipherShed@@8
rdata$r	ENDS
;	COMDAT ??_7Container@ForEach@CipherShed@@6B@
CONST	SEGMENT
??_7Container@ForEach@CipherShed@@6B@ DD FLAT:??_R4Container@ForEach@CipherShed@@6B@ ; CipherShed::ForEach::Container::`vftable'
	DD	FLAT:??_EContainer@ForEach@CipherShed@@UAEPAXI@Z
	DD	FLAT:__purecall
	DD	FLAT:__purecall
; Function compile flags: /Ogtpy
CONST	ENDS
;	COMDAT ??0Container@ForEach@CipherShed@@QAE@XZ
_TEXT	SEGMENT
??0Container@ForEach@CipherShed@@QAE@XZ PROC		; CipherShed::ForEach::Container::Container, COMDAT
; _this$ = ecx

; 19   : 			Container () : InnerContinue (true), InnerEndCondition (false) { }

  00000	8b c1		 mov	 eax, ecx
  00002	c7 00 00 00 00
	00		 mov	 DWORD PTR [eax], OFFSET ??_7Container@ForEach@CipherShed@@6B@
  00008	c6 40 04 01	 mov	 BYTE PTR [eax+4], 1
  0000c	c6 40 05 00	 mov	 BYTE PTR [eax+5], 0
  00010	c3		 ret	 0
??0Container@ForEach@CipherShed@@QAE@XZ ENDP		; CipherShed::ForEach::Container::Container
_TEXT	ENDS
PUBLIC	??1Container@ForEach@CipherShed@@UAE@XZ		; CipherShed::ForEach::Container::~Container
; Function compile flags: /Ogtpy
;	COMDAT ??1Container@ForEach@CipherShed@@UAE@XZ
_TEXT	SEGMENT
??1Container@ForEach@CipherShed@@UAE@XZ PROC		; CipherShed::ForEach::Container::~Container, COMDAT
; _this$ = ecx

; 20   : 			virtual ~Container () { }

  00000	c7 01 00 00 00
	00		 mov	 DWORD PTR [ecx], OFFSET ??_7Container@ForEach@CipherShed@@6B@
  00006	c3		 ret	 0
??1Container@ForEach@CipherShed@@UAE@XZ ENDP		; CipherShed::ForEach::Container::~Container
_TEXT	ENDS
PUBLIC	?Continue@Container@ForEach@CipherShed@@QBEXXZ	; CipherShed::ForEach::Container::Continue
; Function compile flags: /Ogtpy
;	COMDAT ?Continue@Container@ForEach@CipherShed@@QBEXXZ
_TEXT	SEGMENT
?Continue@Container@ForEach@CipherShed@@QBEXXZ PROC	; CipherShed::ForEach::Container::Continue, COMDAT
; _this$ = ecx

; 22   : 			void Continue () const { InnerContinue = true; }

  00000	c6 41 04 01	 mov	 BYTE PTR [ecx+4], 1
  00004	c3		 ret	 0
?Continue@Container@ForEach@CipherShed@@QBEXXZ ENDP	; CipherShed::ForEach::Container::Continue
_TEXT	ENDS
PUBLIC	?InnerIsNotEnd@Container@ForEach@CipherShed@@QBE_NXZ ; CipherShed::ForEach::Container::InnerIsNotEnd
; Function compile flags: /Ogtpy
;	COMDAT ?InnerIsNotEnd@Container@ForEach@CipherShed@@QBE_NXZ
_TEXT	SEGMENT
?InnerIsNotEnd@Container@ForEach@CipherShed@@QBE_NXZ PROC ; CipherShed::ForEach::Container::InnerIsNotEnd, COMDAT
; _this$ = ecx

; 23   : 			bool InnerIsNotEnd () const { return InnerEndCondition = !InnerEndCondition; }

  00000	80 79 05 00	 cmp	 BYTE PTR [ecx+5], 0
  00004	0f 94 c0	 sete	 al
  00007	88 41 05	 mov	 BYTE PTR [ecx+5], al
  0000a	c3		 ret	 0
?InnerIsNotEnd@Container@ForEach@CipherShed@@QBE_NXZ ENDP ; CipherShed::ForEach::Container::InnerIsNotEnd
; Function compile flags: /Ogtpy
_TEXT	ENDS
;	COMDAT ??_GContainer@ForEach@CipherShed@@UAEPAXI@Z
_TEXT	SEGMENT
___flags$ = 8						; size = 4
??_GContainer@ForEach@CipherShed@@UAEPAXI@Z PROC	; CipherShed::ForEach::Container::`scalar deleting destructor', COMDAT
; _this$ = ecx
  00000	f6 44 24 04 01	 test	 BYTE PTR ___flags$[esp-4], 1
  00005	56		 push	 esi
  00006	8b f1		 mov	 esi, ecx
  00008	c7 06 00 00 00
	00		 mov	 DWORD PTR [esi], OFFSET ??_7Container@ForEach@CipherShed@@6B@
  0000e	74 09		 je	 SHORT $LN6@scalar@2
  00010	56		 push	 esi
  00011	e8 00 00 00 00	 call	 ??3@YAXPAX@Z		; operator delete
  00016	83 c4 04	 add	 esp, 4
$LN6@scalar@2:
  00019	8b c6		 mov	 eax, esi
  0001b	5e		 pop	 esi
  0001c	c2 04 00	 ret	 4
??_GContainer@ForEach@CipherShed@@UAEPAXI@Z ENDP	; CipherShed::ForEach::Container::`scalar deleting destructor'
_TEXT	ENDS
PUBLIC	_UpperCaseCopy
EXTRN	_toupper:PROC
; Function compile flags: /Ogtpy
; File c:\users\public\desktop\projects\ciphershed\src\common\util\csstringutil.cpp
;	COMDAT _UpperCaseCopy
_TEXT	SEGMENT
_lpszDest$ = 8						; size = 4
_lpszSource$ = 12					; size = 4
_UpperCaseCopy PROC					; COMDAT

; 13   : {

  00000	53		 push	 ebx

; 14   : 	int i = strlen (lpszSource);

  00001	8b 5c 24 0c	 mov	 ebx, DWORD PTR _lpszSource$[esp]
  00005	56		 push	 esi
  00006	8b f3		 mov	 esi, ebx
  00008	8d 4e 01	 lea	 ecx, DWORD PTR [esi+1]
  0000b	eb 03 8d 49 00	 npad	 5
$LL7@UpperCaseC:
  00010	8a 06		 mov	 al, BYTE PTR [esi]
  00012	46		 inc	 esi
  00013	84 c0		 test	 al, al
  00015	75 f9		 jne	 SHORT $LL7@UpperCaseC

; 15   : 
; 16   : 	lpszDest[i] = 0;

  00017	8b 44 24 0c	 mov	 eax, DWORD PTR _lpszDest$[esp+4]
  0001b	2b f1		 sub	 esi, ecx

; 17   : 	while (--i >= 0)

  0001d	83 ee 01	 sub	 esi, 1
  00020	c6 44 06 01 00	 mov	 BYTE PTR [esi+eax+1], 0
  00025	78 1f		 js	 SHORT $LN1@UpperCaseC
  00027	57		 push	 edi
  00028	8d 3c 06	 lea	 edi, DWORD PTR [esi+eax]
  0002b	2b d8		 sub	 ebx, eax
  0002d	8d 49 00	 npad	 3
$LL2@UpperCaseC:

; 18   : 	{
; 19   : 		lpszDest[i] = (char) toupper (lpszSource[i]);

  00030	0f be 04 3b	 movsx	 eax, BYTE PTR [ebx+edi]
  00034	50		 push	 eax
  00035	e8 00 00 00 00	 call	 _toupper
  0003a	88 07		 mov	 BYTE PTR [edi], al
  0003c	4e		 dec	 esi
  0003d	83 c4 04	 add	 esp, 4
  00040	4f		 dec	 edi
  00041	85 f6		 test	 esi, esi
  00043	7d eb		 jge	 SHORT $LL2@UpperCaseC
  00045	5f		 pop	 edi
$LN1@UpperCaseC:
  00046	5e		 pop	 esi
  00047	5b		 pop	 ebx

; 20   : 	}
; 21   : }

  00048	c3		 ret	 0
_UpperCaseCopy ENDP
_TEXT	ENDS
PUBLIC	??_C@_11LOCGONAA@?$AA?$AA@			; `string'
PUBLIC	_ToUNICODE
EXTRN	_free:PROC
EXTRN	__imp__MultiByteToWideChar@24:PROC
EXTRN	_err_malloc:PROC
;	COMDAT ??_C@_11LOCGONAA@?$AA?$AA@
CONST	SEGMENT
??_C@_11LOCGONAA@?$AA?$AA@ DB 00H, 00H			; `string'
; Function compile flags: /Ogtpy
CONST	ENDS
;	COMDAT _ToUNICODE
_TEXT	SEGMENT
_lpszText$ = 8						; size = 4
_ToUNICODE PROC						; COMDAT

; 63   : {

  00000	56		 push	 esi

; 64   : 	int j = strlen (lpszText);

  00001	8b 74 24 08	 mov	 esi, DWORD PTR _lpszText$[esp]
  00005	8b c6		 mov	 eax, esi
  00007	57		 push	 edi
  00008	8d 50 01	 lea	 edx, DWORD PTR [eax+1]
  0000b	eb 03 8d 49 00	 npad	 5
$LL13@ToUNICODE:
  00010	8a 08		 mov	 cl, BYTE PTR [eax]
  00012	40		 inc	 eax
  00013	84 c9		 test	 cl, cl
  00015	75 f9		 jne	 SHORT $LL13@ToUNICODE
  00017	2b c2		 sub	 eax, edx
  00019	8b f8		 mov	 edi, eax

; 65   : 	if (j == 0)

  0001b	75 1b		 jne	 SHORT $LN4@ToUNICODE

; 66   : 	{
; 67   : 		wcscpy ((LPWSTR) lpszText, (LPWSTR) WIDE (""));

  0001d	b8 00 00 00 00	 mov	 eax, OFFSET ??_C@_11LOCGONAA@?$AA?$AA@
  00022	8b d6		 mov	 edx, esi
  00024	2b d0		 sub	 edx, eax
$LL7@ToUNICODE:
  00026	0f b7 08	 movzx	 ecx, WORD PTR [eax]
  00029	66 89 0c 02	 mov	 WORD PTR [edx+eax], cx
  0002d	83 c0 02	 add	 eax, 2
  00030	66 85 c9	 test	 cx, cx
  00033	75 f1		 jne	 SHORT $LL7@ToUNICODE
  00035	5f		 pop	 edi
  00036	5e		 pop	 esi

; 79   : 	}
; 80   : }

  00037	c3		 ret	 0
$LN4@ToUNICODE:

; 68   : 		return;
; 69   : 	}
; 70   : 	else
; 71   : 	{
; 72   : 		LPWSTR lpszNewText = (LPWSTR) err_malloc ((j + 1) * 2);

  00038	8d 44 3f 02	 lea	 eax, DWORD PTR [edi+edi+2]
  0003c	53		 push	 ebx
  0003d	50		 push	 eax
  0003e	e8 00 00 00 00	 call	 _err_malloc
  00043	83 c4 04	 add	 esp, 4

; 73   : 		j = MultiByteToWideChar (CP_ACP, 0L, lpszText, -1, lpszNewText, j + 1);

  00046	47		 inc	 edi
  00047	57		 push	 edi
  00048	8b d8		 mov	 ebx, eax
  0004a	53		 push	 ebx
  0004b	6a ff		 push	 -1
  0004d	56		 push	 esi
  0004e	6a 00		 push	 0
  00050	6a 00		 push	 0
  00052	ff 15 00 00 00
	00		 call	 DWORD PTR __imp__MultiByteToWideChar@24

; 74   : 		if (j > 0)
; 75   : 			wcscpy ((LPWSTR) lpszText, lpszNewText);

  00058	8b d6		 mov	 edx, esi
  0005a	85 c0		 test	 eax, eax
  0005c	7e 20		 jle	 SHORT $LN2@ToUNICODE
  0005e	8b c3		 mov	 eax, ebx
  00060	2b d3		 sub	 edx, ebx
$LL8@ToUNICODE:
  00062	0f b7 08	 movzx	 ecx, WORD PTR [eax]
  00065	66 89 0c 02	 mov	 WORD PTR [edx+eax], cx
  00069	83 c0 02	 add	 eax, 2
  0006c	66 85 c9	 test	 cx, cx
  0006f	75 f1		 jne	 SHORT $LL8@ToUNICODE

; 78   : 		free (lpszNewText);

  00071	53		 push	 ebx
  00072	e8 00 00 00 00	 call	 _free
  00077	83 c4 04	 add	 esp, 4
  0007a	5b		 pop	 ebx
  0007b	5f		 pop	 edi
  0007c	5e		 pop	 esi

; 79   : 	}
; 80   : }

  0007d	c3		 ret	 0
$LN2@ToUNICODE:

; 76   : 		else
; 77   : 			wcscpy ((LPWSTR) lpszText, (LPWSTR) WIDE (""));

  0007e	b8 00 00 00 00	 mov	 eax, OFFSET ??_C@_11LOCGONAA@?$AA?$AA@
  00083	2b d0		 sub	 edx, eax
$LL9@ToUNICODE:
  00085	0f b7 08	 movzx	 ecx, WORD PTR [eax]
  00088	66 89 0c 02	 mov	 WORD PTR [edx+eax], cx
  0008c	83 c0 02	 add	 eax, 2
  0008f	66 85 c9	 test	 cx, cx
  00092	75 f1		 jne	 SHORT $LL9@ToUNICODE

; 78   : 		free (lpszNewText);

  00094	53		 push	 ebx
  00095	e8 00 00 00 00	 call	 _free
  0009a	83 c4 04	 add	 esp, 4
  0009d	5b		 pop	 ebx
  0009e	5f		 pop	 edi
  0009f	5e		 pop	 esi

; 79   : 	}
; 80   : }

  000a0	c3		 ret	 0
_ToUNICODE ENDP
_TEXT	ENDS
PUBLIC	_LowerCaseCopy
EXTRN	_tolower:PROC
; Function compile flags: /Ogtpy
;	COMDAT _LowerCaseCopy
_TEXT	SEGMENT
_lpszDest$ = 8						; size = 4
_lpszSource$ = 12					; size = 4
_LowerCaseCopy PROC					; COMDAT

; 135  : {

  00000	53		 push	 ebx

; 136  : 	int i = strlen (lpszSource);

  00001	8b 5c 24 0c	 mov	 ebx, DWORD PTR _lpszSource$[esp]
  00005	56		 push	 esi
  00006	8b f3		 mov	 esi, ebx
  00008	8d 4e 01	 lea	 ecx, DWORD PTR [esi+1]
  0000b	eb 03 8d 49 00	 npad	 5
$LL7@LowerCaseC:
  00010	8a 06		 mov	 al, BYTE PTR [esi]
  00012	46		 inc	 esi
  00013	84 c0		 test	 al, al
  00015	75 f9		 jne	 SHORT $LL7@LowerCaseC

; 137  : 
; 138  : 	lpszDest[i] = 0;

  00017	8b 44 24 0c	 mov	 eax, DWORD PTR _lpszDest$[esp+4]
  0001b	2b f1		 sub	 esi, ecx

; 139  : 	while (--i >= 0)

  0001d	83 ee 01	 sub	 esi, 1
  00020	c6 44 06 01 00	 mov	 BYTE PTR [esi+eax+1], 0
  00025	78 1f		 js	 SHORT $LN1@LowerCaseC
  00027	57		 push	 edi
  00028	8d 3c 06	 lea	 edi, DWORD PTR [esi+eax]
  0002b	2b d8		 sub	 ebx, eax
  0002d	8d 49 00	 npad	 3
$LL2@LowerCaseC:

; 140  : 	{
; 141  : 		lpszDest[i] = (char) tolower (lpszSource[i]);

  00030	0f be 04 3b	 movsx	 eax, BYTE PTR [ebx+edi]
  00034	50		 push	 eax
  00035	e8 00 00 00 00	 call	 _tolower
  0003a	88 07		 mov	 BYTE PTR [edi], al
  0003c	4e		 dec	 esi
  0003d	83 c4 04	 add	 esp, 4
  00040	4f		 dec	 edi
  00041	85 f6		 test	 esi, esi
  00043	7d eb		 jge	 SHORT $LL2@LowerCaseC
  00045	5f		 pop	 edi
$LN1@LowerCaseC:
  00046	5e		 pop	 esi
  00047	5b		 pop	 ebx

; 142  : 	}
; 143  : 
; 144  : }

  00048	c3		 ret	 0
_LowerCaseCopy ENDP
_TEXT	ENDS
PUBLIC	_LeftPadString
; Function compile flags: /Ogtpy
;	COMDAT _LeftPadString
_TEXT	SEGMENT
_szTmp$ = 8						; size = 4
_len$ = 12						; size = 4
_targetLen$ = 16					; size = 4
_filler$ = 20						; size = 1
_LeftPadString PROC					; COMDAT

; 157  : 	int i;
; 158  : 
; 159  : 	if (targetLen <= len)

  00000	8b 54 24 08	 mov	 edx, DWORD PTR _len$[esp-4]
  00004	57		 push	 edi
  00005	8b 7c 24 10	 mov	 edi, DWORD PTR _targetLen$[esp]
  00009	3b fa		 cmp	 edi, edx
  0000b	7e 45		 jle	 SHORT $LN5@LeftPadStr
  0000d	53		 push	 ebx

; 160  : 		return;
; 161  : 
; 162  : 	for (i = targetLen-1; i >= (targetLen-len); i--)

  0000e	8b 5c 24 0c	 mov	 ebx, DWORD PTR _szTmp$[esp+4]
  00012	56		 push	 esi
  00013	8b f7		 mov	 esi, edi
  00015	8d 47 ff	 lea	 eax, DWORD PTR [edi-1]
  00018	2b f2		 sub	 esi, edx
  0001a	3b c6		 cmp	 eax, esi
  0001c	7c 1e		 jl	 SHORT $LN1@LeftPadStr
  0001e	8d 0c 18	 lea	 ecx, DWORD PTR [eax+ebx]
  00021	2b c6		 sub	 eax, esi
  00023	2b d7		 sub	 edx, edi
  00025	40		 inc	 eax
  00026	55		 push	 ebp
  00027	8b e8		 mov	 ebp, eax
  00029	8d a4 24 00 00
	00 00		 npad	 7
$LL3@LeftPadStr:

; 163  : 		szTmp [i] = szTmp [i-(targetLen-len)];

  00030	8a 04 0a	 mov	 al, BYTE PTR [edx+ecx]
  00033	88 01		 mov	 BYTE PTR [ecx], al
  00035	49		 dec	 ecx
  00036	83 ed 01	 sub	 ebp, 1
  00039	75 f5		 jne	 SHORT $LL3@LeftPadStr
  0003b	5d		 pop	 ebp
$LN1@LeftPadStr:

; 164  : 
; 165  : 	memset (szTmp, filler, targetLen-len);

  0003c	0f be 4c 24 1c	 movsx	 ecx, BYTE PTR _filler$[esp+8]
  00041	56		 push	 esi
  00042	51		 push	 ecx
  00043	53		 push	 ebx
  00044	e8 00 00 00 00	 call	 _memset
  00049	83 c4 0c	 add	 esp, 12			; 0000000cH
  0004c	5e		 pop	 esi

; 166  : 	szTmp [targetLen] = 0;

  0004d	c6 04 3b 00	 mov	 BYTE PTR [ebx+edi], 0
  00051	5b		 pop	 ebx
$LN5@LeftPadStr:
  00052	5f		 pop	 edi

; 167  : }

  00053	c3		 ret	 0
_LeftPadString ENDP
_TEXT	ENDS
PUBLIC	_ToSBCS
EXTRN	__imp__WideCharToMultiByte@32:PROC
; Function compile flags: /Ogtpy
;	COMDAT _ToSBCS
_TEXT	SEGMENT
_lpszText$ = 8						; size = 4
_ToSBCS	PROC						; COMDAT

; 177  : {

  00000	53		 push	 ebx

; 178  : 	int j = wcslen (lpszText);

  00001	8b 5c 24 08	 mov	 ebx, DWORD PTR _lpszText$[esp]
  00005	8b c3		 mov	 eax, ebx
  00007	8d 50 02	 lea	 edx, DWORD PTR [eax+2]
  0000a	8d 9b 00 00 00
	00		 npad	 6
$LL9@ToSBCS:
  00010	66 8b 08	 mov	 cx, WORD PTR [eax]
  00013	83 c0 02	 add	 eax, 2
  00016	66 85 c9	 test	 cx, cx
  00019	75 f5		 jne	 SHORT $LL9@ToSBCS
  0001b	2b c2		 sub	 eax, edx
  0001d	d1 f8		 sar	 eax, 1

; 179  : 	if (j == 0)

  0001f	75 04		 jne	 SHORT $LN4@ToSBCS

; 180  : 	{
; 181  : 		strcpy ((char *) lpszText, "");

  00021	88 0b		 mov	 BYTE PTR [ebx], cl
  00023	5b		 pop	 ebx

; 193  : 	}
; 194  : }

  00024	c3		 ret	 0
$LN4@ToSBCS:
  00025	56		 push	 esi

; 182  : 		return;
; 183  : 	}
; 184  : 	else
; 185  : 	{
; 186  : 		char *lpszNewText = (char *) err_malloc (j + 1);

  00026	8d 70 01	 lea	 esi, DWORD PTR [eax+1]
  00029	57		 push	 edi
  0002a	56		 push	 esi
  0002b	e8 00 00 00 00	 call	 _err_malloc
  00030	83 c4 04	 add	 esp, 4

; 187  : 		j = WideCharToMultiByte (CP_ACP, 0L, lpszText, -1, lpszNewText, j + 1, NULL, NULL);

  00033	6a 00		 push	 0
  00035	6a 00		 push	 0
  00037	56		 push	 esi
  00038	8b f8		 mov	 edi, eax
  0003a	57		 push	 edi
  0003b	6a ff		 push	 -1
  0003d	53		 push	 ebx
  0003e	6a 00		 push	 0
  00040	6a 00		 push	 0
  00042	ff 15 00 00 00
	00		 call	 DWORD PTR __imp__WideCharToMultiByte@32

; 188  : 		if (j > 0)

  00048	85 c0		 test	 eax, eax
  0004a	7e 1d		 jle	 SHORT $LN2@ToSBCS

; 189  : 			strcpy ((char *) lpszText, lpszNewText);

  0004c	8b d3		 mov	 edx, ebx
  0004e	8b c7		 mov	 eax, edi
  00050	2b d7		 sub	 edx, edi
$LL7@ToSBCS:
  00052	8a 08		 mov	 cl, BYTE PTR [eax]
  00054	88 0c 02	 mov	 BYTE PTR [edx+eax], cl
  00057	40		 inc	 eax
  00058	84 c9		 test	 cl, cl
  0005a	75 f6		 jne	 SHORT $LL7@ToSBCS

; 190  : 		else
; 191  : 			strcpy ((char *) lpszText, "");
; 192  : 		free (lpszNewText);

  0005c	57		 push	 edi
  0005d	e8 00 00 00 00	 call	 _free
  00062	83 c4 04	 add	 esp, 4
  00065	5f		 pop	 edi
  00066	5e		 pop	 esi
  00067	5b		 pop	 ebx

; 193  : 	}
; 194  : }

  00068	c3		 ret	 0
$LN2@ToSBCS:

; 190  : 		else
; 191  : 			strcpy ((char *) lpszText, "");
; 192  : 		free (lpszNewText);

  00069	57		 push	 edi
  0006a	c6 03 00	 mov	 BYTE PTR [ebx], 0
  0006d	e8 00 00 00 00	 call	 _free
  00072	83 c4 04	 add	 esp, 4
  00075	5f		 pop	 edi
  00076	5e		 pop	 esi
  00077	5b		 pop	 ebx

; 193  : 	}
; 194  : }

  00078	c3		 ret	 0
_ToSBCS	ENDP
_TEXT	ENDS
PUBLIC	?size@?$basic_string@DU?$char_traits@D@std@@V?$allocator@D@2@@std@@QBEIXZ ; std::basic_string<char,std::char_traits<char>,std::allocator<char> >::size
; Function compile flags: /Ogtpy
; File c:\program files (x86)\microsoft visual studio 9.0\vc\include\xstring
;	COMDAT ?size@?$basic_string@DU?$char_traits@D@std@@V?$allocator@D@2@@std@@QBEIXZ
_TEXT	SEGMENT
?size@?$basic_string@DU?$char_traits@D@std@@V?$allocator@D@2@@std@@QBEIXZ PROC ; std::basic_string<char,std::char_traits<char>,std::allocator<char> >::size, COMDAT
; _this$ = ecx

; 1666 : 		return (_Mysize);

  00000	8b 41 14	 mov	 eax, DWORD PTR [ecx+20]

; 1667 : 		}

  00003	c3		 ret	 0
?size@?$basic_string@DU?$char_traits@D@std@@V?$allocator@D@2@@std@@QBEIXZ ENDP ; std::basic_string<char,std::char_traits<char>,std::allocator<char> >::size
_TEXT	ENDS
PUBLIC	?empty@?$basic_string@DU?$char_traits@D@std@@V?$allocator@D@2@@std@@QBE_NXZ ; std::basic_string<char,std::char_traits<char>,std::allocator<char> >::empty
; Function compile flags: /Ogtpy
;	COMDAT ?empty@?$basic_string@DU?$char_traits@D@std@@V?$allocator@D@2@@std@@QBE_NXZ
_TEXT	SEGMENT
?empty@?$basic_string@DU?$char_traits@D@std@@V?$allocator@D@2@@std@@QBE_NXZ PROC ; std::basic_string<char,std::char_traits<char>,std::allocator<char> >::empty, COMDAT
; _this$ = ecx

; 1705 : 		return (_Mysize == 0);

  00000	33 c0		 xor	 eax, eax
  00002	39 41 14	 cmp	 DWORD PTR [ecx+20], eax
  00005	0f 94 c0	 sete	 al

; 1706 : 		}

  00008	c3		 ret	 0
?empty@?$basic_string@DU?$char_traits@D@std@@V?$allocator@D@2@@std@@QBE_NXZ ENDP ; std::basic_string<char,std::char_traits<char>,std::allocator<char> >::empty
_TEXT	ENDS
PUBLIC	?size@?$basic_string@_WU?$char_traits@_W@std@@V?$allocator@_W@2@@std@@QBEIXZ ; std::basic_string<wchar_t,std::char_traits<wchar_t>,std::allocator<wchar_t> >::size
; Function compile flags: /Ogtpy
;	COMDAT ?size@?$basic_string@_WU?$char_traits@_W@std@@V?$allocator@_W@2@@std@@QBEIXZ
_TEXT	SEGMENT
?size@?$basic_string@_WU?$char_traits@_W@std@@V?$allocator@_W@2@@std@@QBEIXZ PROC ; std::basic_string<wchar_t,std::char_traits<wchar_t>,std::allocator<wchar_t> >::size, COMDAT
; _this$ = ecx

; 1666 : 		return (_Mysize);

  00000	8b 41 14	 mov	 eax, DWORD PTR [ecx+20]

; 1667 : 		}

  00003	c3		 ret	 0
?size@?$basic_string@_WU?$char_traits@_W@std@@V?$allocator@_W@2@@std@@QBEIXZ ENDP ; std::basic_string<wchar_t,std::char_traits<wchar_t>,std::allocator<wchar_t> >::size
_TEXT	ENDS
PUBLIC	?empty@?$basic_string@_WU?$char_traits@_W@std@@V?$allocator@_W@2@@std@@QBE_NXZ ; std::basic_string<wchar_t,std::char_traits<wchar_t>,std::allocator<wchar_t> >::empty
; Function compile flags: /Ogtpy
;	COMDAT ?empty@?$basic_string@_WU?$char_traits@_W@std@@V?$allocator@_W@2@@std@@QBE_NXZ
_TEXT	SEGMENT
?empty@?$basic_string@_WU?$char_traits@_W@std@@V?$allocator@_W@2@@std@@QBE_NXZ PROC ; std::basic_string<wchar_t,std::char_traits<wchar_t>,std::allocator<wchar_t> >::empty, COMDAT
; _this$ = ecx

; 1705 : 		return (_Mysize == 0);

  00000	33 c0		 xor	 eax, eax
  00002	39 41 14	 cmp	 DWORD PTR [ecx+20], eax
  00005	0f 94 c0	 sete	 al

; 1706 : 		}

  00008	c3		 ret	 0
?empty@?$basic_string@_WU?$char_traits@_W@std@@V?$allocator@_W@2@@std@@QBE_NXZ ENDP ; std::basic_string<wchar_t,std::char_traits<wchar_t>,std::allocator<wchar_t> >::empty
_TEXT	ENDS
PUBLIC	?_Myptr@?$basic_string@DU?$char_traits@D@std@@V?$allocator@D@2@@std@@IAEPADXZ ; std::basic_string<char,std::char_traits<char>,std::allocator<char> >::_Myptr
; Function compile flags: /Ogtpy
;	COMDAT ?_Myptr@?$basic_string@DU?$char_traits@D@std@@V?$allocator@D@2@@std@@IAEPADXZ
_TEXT	SEGMENT
?_Myptr@?$basic_string@DU?$char_traits@D@std@@V?$allocator@D@2@@std@@IAEPADXZ PROC ; std::basic_string<char,std::char_traits<char>,std::allocator<char> >::_Myptr, COMDAT
; _this$ = ecx

; 2170 : 		return (_BUF_SIZE <= _Myres ? _Bx._Ptr : _Bx._Buf);

  00000	83 79 18 10	 cmp	 DWORD PTR [ecx+24], 16	; 00000010H
  00004	72 04		 jb	 SHORT $LN3@Myptr
  00006	8b 41 04	 mov	 eax, DWORD PTR [ecx+4]

; 2171 : 		}

  00009	c3		 ret	 0
$LN3@Myptr:

; 2170 : 		return (_BUF_SIZE <= _Myres ? _Bx._Ptr : _Bx._Buf);

  0000a	8d 41 04	 lea	 eax, DWORD PTR [ecx+4]

; 2171 : 		}

  0000d	c3		 ret	 0
?_Myptr@?$basic_string@DU?$char_traits@D@std@@V?$allocator@D@2@@std@@IAEPADXZ ENDP ; std::basic_string<char,std::char_traits<char>,std::allocator<char> >::_Myptr
_TEXT	ENDS
PUBLIC	?_Myptr@?$basic_string@DU?$char_traits@D@std@@V?$allocator@D@2@@std@@IBEPBDXZ ; std::basic_string<char,std::char_traits<char>,std::allocator<char> >::_Myptr
; Function compile flags: /Ogtpy
;	COMDAT ?_Myptr@?$basic_string@DU?$char_traits@D@std@@V?$allocator@D@2@@std@@IBEPBDXZ
_TEXT	SEGMENT
?_Myptr@?$basic_string@DU?$char_traits@D@std@@V?$allocator@D@2@@std@@IBEPBDXZ PROC ; std::basic_string<char,std::char_traits<char>,std::allocator<char> >::_Myptr, COMDAT
; _this$ = ecx

; 2175 : 		return (_BUF_SIZE <= _Myres ? _Bx._Ptr : _Bx._Buf);

  00000	83 79 18 10	 cmp	 DWORD PTR [ecx+24], 16	; 00000010H
  00004	72 04		 jb	 SHORT $LN3@Myptr@2
  00006	8b 41 04	 mov	 eax, DWORD PTR [ecx+4]

; 2176 : 		}

  00009	c3		 ret	 0
$LN3@Myptr@2:

; 2175 : 		return (_BUF_SIZE <= _Myres ? _Bx._Ptr : _Bx._Buf);

  0000a	8d 41 04	 lea	 eax, DWORD PTR [ecx+4]

; 2176 : 		}

  0000d	c3		 ret	 0
?_Myptr@?$basic_string@DU?$char_traits@D@std@@V?$allocator@D@2@@std@@IBEPBDXZ ENDP ; std::basic_string<char,std::char_traits<char>,std::allocator<char> >::_Myptr
_TEXT	ENDS
PUBLIC	??0?$allocator@D@std@@QAE@XZ			; std::allocator<char>::allocator<char>
; Function compile flags: /Ogtpy
; File c:\program files (x86)\microsoft visual studio 9.0\vc\include\xmemory
;	COMDAT ??0?$allocator@D@std@@QAE@XZ
_TEXT	SEGMENT
??0?$allocator@D@std@@QAE@XZ PROC			; std::allocator<char>::allocator<char>, COMDAT
; _this$ = ecx

; 119  : 	allocator() _THROW0()

  00000	8b c1		 mov	 eax, ecx

; 120  : 		{	// construct default allocator (do nothing)
; 121  : 		}

  00002	c3		 ret	 0
??0?$allocator@D@std@@QAE@XZ ENDP			; std::allocator<char>::allocator<char>
_TEXT	ENDS
PUBLIC	?_Myptr@?$basic_string@_WU?$char_traits@_W@std@@V?$allocator@_W@2@@std@@IBEPB_WXZ ; std::basic_string<wchar_t,std::char_traits<wchar_t>,std::allocator<wchar_t> >::_Myptr
; Function compile flags: /Ogtpy
; File c:\program files (x86)\microsoft visual studio 9.0\vc\include\xstring
;	COMDAT ?_Myptr@?$basic_string@_WU?$char_traits@_W@std@@V?$allocator@_W@2@@std@@IBEPB_WXZ
_TEXT	SEGMENT
?_Myptr@?$basic_string@_WU?$char_traits@_W@std@@V?$allocator@_W@2@@std@@IBEPB_WXZ PROC ; std::basic_string<wchar_t,std::char_traits<wchar_t>,std::allocator<wchar_t> >::_Myptr, COMDAT
; _this$ = ecx

; 2175 : 		return (_BUF_SIZE <= _Myres ? _Bx._Ptr : _Bx._Buf);

  00000	83 79 18 08	 cmp	 DWORD PTR [ecx+24], 8
  00004	72 04		 jb	 SHORT $LN3@Myptr@3
  00006	8b 41 04	 mov	 eax, DWORD PTR [ecx+4]

; 2176 : 		}

  00009	c3		 ret	 0
$LN3@Myptr@3:

; 2175 : 		return (_BUF_SIZE <= _Myres ? _Bx._Ptr : _Bx._Buf);

  0000a	8d 41 04	 lea	 eax, DWORD PTR [ecx+4]

; 2176 : 		}

  0000d	c3		 ret	 0
?_Myptr@?$basic_string@_WU?$char_traits@_W@std@@V?$allocator@_W@2@@std@@IBEPB_WXZ ENDP ; std::basic_string<wchar_t,std::char_traits<wchar_t>,std::allocator<wchar_t> >::_Myptr
_TEXT	ENDS
PUBLIC	??0?$allocator@_W@std@@QAE@XZ			; std::allocator<wchar_t>::allocator<wchar_t>
; Function compile flags: /Ogtpy
; File c:\program files (x86)\microsoft visual studio 9.0\vc\include\xmemory
;	COMDAT ??0?$allocator@_W@std@@QAE@XZ
_TEXT	SEGMENT
??0?$allocator@_W@std@@QAE@XZ PROC			; std::allocator<wchar_t>::allocator<wchar_t>, COMDAT
; _this$ = ecx

; 119  : 	allocator() _THROW0()

  00000	8b c1		 mov	 eax, ecx

; 120  : 		{	// construct default allocator (do nothing)
; 121  : 		}

  00002	c3		 ret	 0
??0?$allocator@_W@std@@QAE@XZ ENDP			; std::allocator<wchar_t>::allocator<wchar_t>
_TEXT	ENDS
PUBLIC	?_Chassign@?$basic_string@DU?$char_traits@D@std@@V?$allocator@D@2@@std@@IAEXIID@Z ; std::basic_string<char,std::char_traits<char>,std::allocator<char> >::_Chassign
; Function compile flags: /Ogtpy
; File c:\program files (x86)\microsoft visual studio 9.0\vc\include\xstring
;	COMDAT ?_Chassign@?$basic_string@DU?$char_traits@D@std@@V?$allocator@D@2@@std@@IAEXIID@Z
_TEXT	SEGMENT
__Off$ = 8						; size = 4
__Count$ = 12						; size = 4
__Ch$ = 16						; size = 1
?_Chassign@?$basic_string@DU?$char_traits@D@std@@V?$allocator@D@2@@std@@IAEXIID@Z PROC ; std::basic_string<char,std::char_traits<char>,std::allocator<char> >::_Chassign, COMDAT
; _this$ = ecx

; 2076 : 		if (_Count == 1)

  00000	8b 44 24 08	 mov	 eax, DWORD PTR __Count$[esp-4]
  00004	83 f8 01	 cmp	 eax, 1
  00007	75 28		 jne	 SHORT $LN2@Chassign

; 2077 : 			_Traits::assign(*(_Myptr() + _Off), _Ch);

  00009	83 79 18 10	 cmp	 DWORD PTR [ecx+24], 16	; 00000010H
  0000d	72 11		 jb	 SHORT $LN7@Chassign
  0000f	8b 49 04	 mov	 ecx, DWORD PTR [ecx+4]
  00012	8a 44 24 0c	 mov	 al, BYTE PTR __Ch$[esp-4]
  00016	8b 54 24 04	 mov	 edx, DWORD PTR __Off$[esp-4]
  0001a	88 04 11	 mov	 BYTE PTR [ecx+edx], al

; 2080 : 		}

  0001d	c2 0c 00	 ret	 12			; 0000000cH

; 2077 : 			_Traits::assign(*(_Myptr() + _Off), _Ch);

$LN7@Chassign:
  00020	8a 44 24 0c	 mov	 al, BYTE PTR __Ch$[esp-4]
  00024	8b 54 24 04	 mov	 edx, DWORD PTR __Off$[esp-4]
  00028	83 c1 04	 add	 ecx, 4
  0002b	88 04 11	 mov	 BYTE PTR [ecx+edx], al

; 2080 : 		}

  0002e	c2 0c 00	 ret	 12			; 0000000cH
$LN2@Chassign:

; 2078 : 		else
; 2079 : 			_Traits::assign(_Myptr() + _Off, _Count, _Ch);

  00031	83 79 18 10	 cmp	 DWORD PTR [ecx+24], 16	; 00000010H
  00035	72 05		 jb	 SHORT $LN13@Chassign
  00037	8b 49 04	 mov	 ecx, DWORD PTR [ecx+4]
  0003a	eb 03		 jmp	 SHORT $LN14@Chassign
$LN13@Chassign:
  0003c	83 c1 04	 add	 ecx, 4
$LN14@Chassign:
  0003f	8b 54 24 04	 mov	 edx, DWORD PTR __Off$[esp-4]
  00043	50		 push	 eax
  00044	0f be 44 24 10	 movsx	 eax, BYTE PTR __Ch$[esp]
  00049	50		 push	 eax
  0004a	03 ca		 add	 ecx, edx
  0004c	51		 push	 ecx
  0004d	e8 00 00 00 00	 call	 _memset
  00052	83 c4 0c	 add	 esp, 12			; 0000000cH

; 2080 : 		}

  00055	c2 0c 00	 ret	 12			; 0000000cH
?_Chassign@?$basic_string@DU?$char_traits@D@std@@V?$allocator@D@2@@std@@IAEXIID@Z ENDP ; std::basic_string<char,std::char_traits<char>,std::allocator<char> >::_Chassign
_TEXT	ENDS
PUBLIC	?_Eos@?$basic_string@DU?$char_traits@D@std@@V?$allocator@D@2@@std@@IAEXI@Z ; std::basic_string<char,std::char_traits<char>,std::allocator<char> >::_Eos
; Function compile flags: /Ogtpy
;	COMDAT ?_Eos@?$basic_string@DU?$char_traits@D@std@@V?$allocator@D@2@@std@@IAEXI@Z
_TEXT	SEGMENT
__Newsize$ = 8						; size = 4
?_Eos@?$basic_string@DU?$char_traits@D@std@@V?$allocator@D@2@@std@@IAEXI@Z PROC ; std::basic_string<char,std::char_traits<char>,std::allocator<char> >::_Eos, COMDAT
; _this$ = ecx

; 2114 : 		_Traits::assign(_Myptr()[_Mysize = _Newsize], _Elem());

  00000	83 79 18 10	 cmp	 DWORD PTR [ecx+24], 16	; 00000010H
  00004	8b 44 24 04	 mov	 eax, DWORD PTR __Newsize$[esp-4]
  00008	89 41 14	 mov	 DWORD PTR [ecx+20], eax
  0000b	72 0a		 jb	 SHORT $LN5@Eos
  0000d	8b 49 04	 mov	 ecx, DWORD PTR [ecx+4]
  00010	c6 04 01 00	 mov	 BYTE PTR [ecx+eax], 0

; 2115 : 		}

  00014	c2 04 00	 ret	 4

; 2114 : 		_Traits::assign(_Myptr()[_Mysize = _Newsize], _Elem());

$LN5@Eos:
  00017	c6 44 01 04 00	 mov	 BYTE PTR [ecx+eax+4], 0

; 2115 : 		}

  0001c	c2 04 00	 ret	 4
?_Eos@?$basic_string@DU?$char_traits@D@std@@V?$allocator@D@2@@std@@IAEXI@Z ENDP ; std::basic_string<char,std::char_traits<char>,std::allocator<char> >::_Eos
_TEXT	ENDS
PUBLIC	??0?$allocator@D@std@@QAE@ABV01@@Z		; std::allocator<char>::allocator<char>
; Function compile flags: /Ogtpy
; File c:\program files (x86)\microsoft visual studio 9.0\vc\include\xmemory
;	COMDAT ??0?$allocator@D@std@@QAE@ABV01@@Z
_TEXT	SEGMENT
___formal$ = 8						; size = 4
??0?$allocator@D@std@@QAE@ABV01@@Z PROC			; std::allocator<char>::allocator<char>, COMDAT
; _this$ = ecx

; 123  : 	allocator(const allocator<_Ty>&) _THROW0()

  00000	8b c1		 mov	 eax, ecx

; 124  : 		{	// construct by copying (do nothing)
; 125  : 		}

  00002	c2 04 00	 ret	 4
??0?$allocator@D@std@@QAE@ABV01@@Z ENDP			; std::allocator<char>::allocator<char>
_TEXT	ENDS
PUBLIC	?deallocate@?$allocator@D@std@@QAEXPADI@Z	; std::allocator<char>::deallocate
; Function compile flags: /Ogtpy
;	COMDAT ?deallocate@?$allocator@D@std@@QAEXPADI@Z
_TEXT	SEGMENT
__Ptr$ = 8						; size = 4
___formal$ = 12						; size = 4
?deallocate@?$allocator@D@std@@QAEXPADI@Z PROC		; std::allocator<char>::deallocate, COMDAT
; _this$ = ecx

; 140  : 		::operator delete(_Ptr);

  00000	8b 44 24 04	 mov	 eax, DWORD PTR __Ptr$[esp-4]
  00004	50		 push	 eax
  00005	e8 00 00 00 00	 call	 ??3@YAXPAX@Z		; operator delete
  0000a	59		 pop	 ecx

; 141  : 		}

  0000b	c2 08 00	 ret	 8
?deallocate@?$allocator@D@std@@QAEXPADI@Z ENDP		; std::allocator<char>::deallocate
_TEXT	ENDS
PUBLIC	?_Myptr@?$basic_string@_WU?$char_traits@_W@std@@V?$allocator@_W@2@@std@@IAEPA_WXZ ; std::basic_string<wchar_t,std::char_traits<wchar_t>,std::allocator<wchar_t> >::_Myptr
; Function compile flags: /Ogtpy
; File c:\program files (x86)\microsoft visual studio 9.0\vc\include\xstring
;	COMDAT ?_Myptr@?$basic_string@_WU?$char_traits@_W@std@@V?$allocator@_W@2@@std@@IAEPA_WXZ
_TEXT	SEGMENT
?_Myptr@?$basic_string@_WU?$char_traits@_W@std@@V?$allocator@_W@2@@std@@IAEPA_WXZ PROC ; std::basic_string<wchar_t,std::char_traits<wchar_t>,std::allocator<wchar_t> >::_Myptr, COMDAT
; _this$ = ecx

; 2170 : 		return (_BUF_SIZE <= _Myres ? _Bx._Ptr : _Bx._Buf);

  00000	83 79 18 08	 cmp	 DWORD PTR [ecx+24], 8
  00004	72 04		 jb	 SHORT $LN3@Myptr@4
  00006	8b 41 04	 mov	 eax, DWORD PTR [ecx+4]

; 2171 : 		}

  00009	c3		 ret	 0
$LN3@Myptr@4:

; 2170 : 		return (_BUF_SIZE <= _Myres ? _Bx._Ptr : _Bx._Buf);

  0000a	8d 41 04	 lea	 eax, DWORD PTR [ecx+4]

; 2171 : 		}

  0000d	c3		 ret	 0
?_Myptr@?$basic_string@_WU?$char_traits@_W@std@@V?$allocator@_W@2@@std@@IAEPA_WXZ ENDP ; std::basic_string<wchar_t,std::char_traits<wchar_t>,std::allocator<wchar_t> >::_Myptr
_TEXT	ENDS
PUBLIC	??0?$allocator@_W@std@@QAE@ABV01@@Z		; std::allocator<wchar_t>::allocator<wchar_t>
; Function compile flags: /Ogtpy
; File c:\program files (x86)\microsoft visual studio 9.0\vc\include\xmemory
;	COMDAT ??0?$allocator@_W@std@@QAE@ABV01@@Z
_TEXT	SEGMENT
___formal$ = 8						; size = 4
??0?$allocator@_W@std@@QAE@ABV01@@Z PROC		; std::allocator<wchar_t>::allocator<wchar_t>, COMDAT
; _this$ = ecx

; 123  : 	allocator(const allocator<_Ty>&) _THROW0()

  00000	8b c1		 mov	 eax, ecx

; 124  : 		{	// construct by copying (do nothing)
; 125  : 		}

  00002	c2 04 00	 ret	 4
??0?$allocator@_W@std@@QAE@ABV01@@Z ENDP		; std::allocator<wchar_t>::allocator<wchar_t>
_TEXT	ENDS
PUBLIC	?deallocate@?$allocator@_W@std@@QAEXPA_WI@Z	; std::allocator<wchar_t>::deallocate
; Function compile flags: /Ogtpy
;	COMDAT ?deallocate@?$allocator@_W@std@@QAEXPA_WI@Z
_TEXT	SEGMENT
__Ptr$ = 8						; size = 4
___formal$ = 12						; size = 4
?deallocate@?$allocator@_W@std@@QAEXPA_WI@Z PROC	; std::allocator<wchar_t>::deallocate, COMDAT
; _this$ = ecx

; 140  : 		::operator delete(_Ptr);

  00000	8b 44 24 04	 mov	 eax, DWORD PTR __Ptr$[esp-4]
  00004	50		 push	 eax
  00005	e8 00 00 00 00	 call	 ??3@YAXPAX@Z		; operator delete
  0000a	59		 pop	 ecx

; 141  : 		}

  0000b	c2 08 00	 ret	 8
?deallocate@?$allocator@_W@std@@QAEXPA_WI@Z ENDP	; std::allocator<wchar_t>::deallocate
_TEXT	ENDS
PUBLIC	?_Inside@?$basic_string@DU?$char_traits@D@std@@V?$allocator@D@2@@std@@IAE_NPBD@Z ; std::basic_string<char,std::char_traits<char>,std::allocator<char> >::_Inside
; Function compile flags: /Ogtpy
; File c:\program files (x86)\microsoft visual studio 9.0\vc\include\xstring
;	COMDAT ?_Inside@?$basic_string@DU?$char_traits@D@std@@V?$allocator@D@2@@std@@IAE_NPBD@Z
_TEXT	SEGMENT
__Ptr$ = 8						; size = 4
?_Inside@?$basic_string@DU?$char_traits@D@std@@V?$allocator@D@2@@std@@IAE_NPBD@Z PROC ; std::basic_string<char,std::char_traits<char>,std::allocator<char> >::_Inside, COMDAT
; _this$ = ecx

; 2133 : 		{	// test if _Ptr points inside string

  00000	56		 push	 esi
  00001	57		 push	 edi

; 2134 : 		if (_Ptr == 0 || _Ptr < _Myptr() || _Myptr() + _Mysize <= _Ptr)

  00002	8b 7c 24 0c	 mov	 edi, DWORD PTR __Ptr$[esp+4]
  00006	85 ff		 test	 edi, edi
  00008	74 2c		 je	 SHORT $LN2@Inside
  0000a	8b 71 18	 mov	 esi, DWORD PTR [ecx+24]
  0000d	8d 41 04	 lea	 eax, DWORD PTR [ecx+4]
  00010	83 fe 10	 cmp	 esi, 16			; 00000010H
  00013	72 04		 jb	 SHORT $LN8@Inside
  00015	8b 10		 mov	 edx, DWORD PTR [eax]
  00017	eb 02		 jmp	 SHORT $LN9@Inside
$LN8@Inside:
  00019	8b d0		 mov	 edx, eax
$LN9@Inside:
  0001b	3b fa		 cmp	 edi, edx
  0001d	72 17		 jb	 SHORT $LN2@Inside
  0001f	83 fe 10	 cmp	 esi, 16			; 00000010H
  00022	72 02		 jb	 SHORT $LN12@Inside
  00024	8b 00		 mov	 eax, DWORD PTR [eax]
$LN12@Inside:
  00026	8b 49 14	 mov	 ecx, DWORD PTR [ecx+20]
  00029	03 c8		 add	 ecx, eax
  0002b	3b cf		 cmp	 ecx, edi
  0002d	76 07		 jbe	 SHORT $LN2@Inside
  0002f	5f		 pop	 edi

; 2136 : 		else
; 2137 : 			return (true);

  00030	b0 01		 mov	 al, 1
  00032	5e		 pop	 esi

; 2138 : 		}

  00033	c2 04 00	 ret	 4
$LN2@Inside:
  00036	5f		 pop	 edi

; 2135 : 			return (false);	// don't ask

  00037	32 c0		 xor	 al, al
  00039	5e		 pop	 esi

; 2138 : 		}

  0003a	c2 04 00	 ret	 4
?_Inside@?$basic_string@DU?$char_traits@D@std@@V?$allocator@D@2@@std@@IAE_NPBD@Z ENDP ; std::basic_string<char,std::char_traits<char>,std::allocator<char> >::_Inside
_TEXT	ENDS
PUBLIC	?_Inside@?$basic_string@_WU?$char_traits@_W@std@@V?$allocator@_W@2@@std@@IAE_NPB_W@Z ; std::basic_string<wchar_t,std::char_traits<wchar_t>,std::allocator<wchar_t> >::_Inside
; Function compile flags: /Ogtpy
;	COMDAT ?_Inside@?$basic_string@_WU?$char_traits@_W@std@@V?$allocator@_W@2@@std@@IAE_NPB_W@Z
_TEXT	SEGMENT
__Ptr$ = 8						; size = 4
?_Inside@?$basic_string@_WU?$char_traits@_W@std@@V?$allocator@_W@2@@std@@IAE_NPB_W@Z PROC ; std::basic_string<wchar_t,std::char_traits<wchar_t>,std::allocator<wchar_t> >::_Inside, COMDAT
; _this$ = ecx

; 2133 : 		{	// test if _Ptr points inside string

  00000	56		 push	 esi
  00001	57		 push	 edi

; 2134 : 		if (_Ptr == 0 || _Ptr < _Myptr() || _Myptr() + _Mysize <= _Ptr)

  00002	8b 7c 24 0c	 mov	 edi, DWORD PTR __Ptr$[esp+4]
  00006	85 ff		 test	 edi, edi
  00008	74 2d		 je	 SHORT $LN2@Inside@2
  0000a	8b 71 18	 mov	 esi, DWORD PTR [ecx+24]
  0000d	8d 41 04	 lea	 eax, DWORD PTR [ecx+4]
  00010	83 fe 08	 cmp	 esi, 8
  00013	72 04		 jb	 SHORT $LN8@Inside@2
  00015	8b 10		 mov	 edx, DWORD PTR [eax]
  00017	eb 02		 jmp	 SHORT $LN9@Inside@2
$LN8@Inside@2:
  00019	8b d0		 mov	 edx, eax
$LN9@Inside@2:
  0001b	3b fa		 cmp	 edi, edx
  0001d	72 18		 jb	 SHORT $LN2@Inside@2
  0001f	83 fe 08	 cmp	 esi, 8
  00022	72 02		 jb	 SHORT $LN12@Inside@2
  00024	8b 00		 mov	 eax, DWORD PTR [eax]
$LN12@Inside@2:
  00026	8b 49 14	 mov	 ecx, DWORD PTR [ecx+20]
  00029	8d 14 48	 lea	 edx, DWORD PTR [eax+ecx*2]
  0002c	3b d7		 cmp	 edx, edi
  0002e	76 07		 jbe	 SHORT $LN2@Inside@2
  00030	5f		 pop	 edi

; 2136 : 		else
; 2137 : 			return (true);

  00031	b0 01		 mov	 al, 1
  00033	5e		 pop	 esi

; 2138 : 		}

  00034	c2 04 00	 ret	 4
$LN2@Inside@2:
  00037	5f		 pop	 edi

; 2135 : 			return (false);	// don't ask

  00038	32 c0		 xor	 al, al
  0003a	5e		 pop	 esi

; 2138 : 		}

  0003b	c2 04 00	 ret	 4
?_Inside@?$basic_string@_WU?$char_traits@_W@std@@V?$allocator@_W@2@@std@@IAE_NPB_W@Z ENDP ; std::basic_string<wchar_t,std::char_traits<wchar_t>,std::allocator<wchar_t> >::_Inside
_TEXT	ENDS
PUBLIC	?max_size@?$allocator@D@std@@QBEIXZ		; std::allocator<char>::max_size
; Function compile flags: /Ogtpy
; File c:\program files (x86)\microsoft visual studio 9.0\vc\include\xmemory
;	COMDAT ?max_size@?$allocator@D@std@@QBEIXZ
_TEXT	SEGMENT
?max_size@?$allocator@D@std@@QBEIXZ PROC		; std::allocator<char>::max_size, COMDAT
; _this$ = ecx

; 165  : 		_SIZT _Count = (_SIZT)(-1) / sizeof (_Ty);
; 166  : 		return (0 < _Count ? _Count : 1);

  00000	83 c8 ff	 or	 eax, -1

; 167  : 		}

  00003	c3		 ret	 0
?max_size@?$allocator@D@std@@QBEIXZ ENDP		; std::allocator<char>::max_size
_TEXT	ENDS
PUBLIC	?max_size@?$allocator@_W@std@@QBEIXZ		; std::allocator<wchar_t>::max_size
; Function compile flags: /Ogtpy
;	COMDAT ?max_size@?$allocator@_W@std@@QBEIXZ
_TEXT	SEGMENT
?max_size@?$allocator@_W@std@@QBEIXZ PROC		; std::allocator<wchar_t>::max_size, COMDAT
; _this$ = ecx

; 165  : 		_SIZT _Count = (_SIZT)(-1) / sizeof (_Ty);
; 166  : 		return (0 < _Count ? _Count : 1);

  00000	b8 ff ff ff 7f	 mov	 eax, 2147483647		; 7fffffffH

; 167  : 		}

  00005	c3		 ret	 0
?max_size@?$allocator@_W@std@@QBEIXZ ENDP		; std::allocator<wchar_t>::max_size
_TEXT	ENDS
PUBLIC	??$ToTypeWrapper@V?$basic_string@DU?$char_traits@D@std@@V?$allocator@D@2@@std@@@ForEach@CipherShed@@SA?AU?$TypeWrapper@V?$basic_string@DU?$char_traits@D@std@@V?$allocator@D@2@@std@@@01@ABV?$basic_string@DU?$char_traits@D@std@@V?$allocator@D@2@@std@@@Z ; CipherShed::ForEach::ToTypeWrapper<std::basic_string<char,std::char_traits<char>,std::allocator<char> > >
; Function compile flags: /Ogtpy
; File c:\users\public\desktop\projects\ciphershed\src\platform\foreach.h
;	COMDAT ??$ToTypeWrapper@V?$basic_string@DU?$char_traits@D@std@@V?$allocator@D@2@@std@@@ForEach@CipherShed@@SA?AU?$TypeWrapper@V?$basic_string@DU?$char_traits@D@std@@V?$allocator@D@2@@std@@@01@ABV?$basic_string@DU?$char_traits@D@std@@V?$allocator@D@2@@std@@@Z
_TEXT	SEGMENT
_x$ = 8							; size = 4
??$ToTypeWrapper@V?$basic_string@DU?$char_traits@D@std@@V?$allocator@D@2@@std@@@ForEach@CipherShed@@SA?AU?$TypeWrapper@V?$basic_string@DU?$char_traits@D@std@@V?$allocator@D@2@@std@@@01@ABV?$basic_string@DU?$char_traits@D@std@@V?$allocator@D@2@@std@@@Z PROC ; CipherShed::ForEach::ToTypeWrapper<std::basic_string<char,std::char_traits<char>,std::allocator<char> > >, COMDAT

; 85   : 		static TypeWrapper <T> ToTypeWrapper (const T &x) { return TypeWrapper <T> (); }

  00000	32 c0		 xor	 al, al
  00002	c3		 ret	 0
??$ToTypeWrapper@V?$basic_string@DU?$char_traits@D@std@@V?$allocator@D@2@@std@@@ForEach@CipherShed@@SA?AU?$TypeWrapper@V?$basic_string@DU?$char_traits@D@std@@V?$allocator@D@2@@std@@@01@ABV?$basic_string@DU?$char_traits@D@std@@V?$allocator@D@2@@std@@@Z ENDP ; CipherShed::ForEach::ToTypeWrapper<std::basic_string<char,std::char_traits<char>,std::allocator<char> > >
_TEXT	ENDS
PUBLIC	??$?BV?$basic_string@DU?$char_traits@D@std@@V?$allocator@D@2@@std@@@TypeWrapperDummy@ForEach@CipherShed@@QBE?AU?$TypeWrapper@V?$basic_string@DU?$char_traits@D@std@@V?$allocator@D@2@@std@@@12@XZ ; CipherShed::ForEach::TypeWrapperDummy::operator<std::basic_string<char,std::char_traits<char>,std::allocator<char> > > CipherShed::ForEach::TypeWrapper<std::basic_string<char,std::char_traits<char>,std::allocator<char> > >
; Function compile flags: /Ogtpy
;	COMDAT ??$?BV?$basic_string@DU?$char_traits@D@std@@V?$allocator@D@2@@std@@@TypeWrapperDummy@ForEach@CipherShed@@QBE?AU?$TypeWrapper@V?$basic_string@DU?$char_traits@D@std@@V?$allocator@D@2@@std@@@12@XZ
_TEXT	SEGMENT
___$ReturnUdt$ = 8					; size = 4
??$?BV?$basic_string@DU?$char_traits@D@std@@V?$allocator@D@2@@std@@@TypeWrapperDummy@ForEach@CipherShed@@QBE?AU?$TypeWrapper@V?$basic_string@DU?$char_traits@D@std@@V?$allocator@D@2@@std@@@12@XZ PROC ; CipherShed::ForEach::TypeWrapperDummy::operator<std::basic_string<char,std::char_traits<char>,std::allocator<char> > > CipherShed::ForEach::TypeWrapper<std::basic_string<char,std::char_traits<char>,std::allocator<char> > >, COMDAT
; _this$ = ecx

; 90   : 			operator TypeWrapper <T> () const { return TypeWrapper <T> (); }

  00000	8b 44 24 04	 mov	 eax, DWORD PTR ___$ReturnUdt$[esp-4]
  00004	c2 04 00	 ret	 4
??$?BV?$basic_string@DU?$char_traits@D@std@@V?$allocator@D@2@@std@@@TypeWrapperDummy@ForEach@CipherShed@@QBE?AU?$TypeWrapper@V?$basic_string@DU?$char_traits@D@std@@V?$allocator@D@2@@std@@@12@XZ ENDP ; CipherShed::ForEach::TypeWrapperDummy::operator<std::basic_string<char,std::char_traits<char>,std::allocator<char> > > CipherShed::ForEach::TypeWrapper<std::basic_string<char,std::char_traits<char>,std::allocator<char> > >
_TEXT	ENDS
PUBLIC	??$GetContainerForward@V?$basic_string@DU?$char_traits@D@std@@V?$allocator@D@2@@std@@@ForEach@CipherShed@@SAABU?$ContainerForward@V?$basic_string@DU?$char_traits@D@std@@V?$allocator@D@2@@std@@@01@ABUContainer@01@ABU?$TypeWrapper@V?$basic_string@DU?$char_traits@D@std@@V?$allocator@D@2@@std@@@01@@Z ; CipherShed::ForEach::GetContainerForward<std::basic_string<char,std::char_traits<char>,std::allocator<char> > >
; Function compile flags: /Ogtpy
;	COMDAT ??$GetContainerForward@V?$basic_string@DU?$char_traits@D@std@@V?$allocator@D@2@@std@@@ForEach@CipherShed@@SAABU?$ContainerForward@V?$basic_string@DU?$char_traits@D@std@@V?$allocator@D@2@@std@@@01@ABUContainer@01@ABU?$TypeWrapper@V?$basic_string@DU?$char_traits@D@std@@V?$allocator@D@2@@std@@@01@@Z
_TEXT	SEGMENT
_forEachContainer$ = 8					; size = 4
___formal$ = 12						; size = 4
??$GetContainerForward@V?$basic_string@DU?$char_traits@D@std@@V?$allocator@D@2@@std@@@ForEach@CipherShed@@SAABU?$ContainerForward@V?$basic_string@DU?$char_traits@D@std@@V?$allocator@D@2@@std@@@01@ABUContainer@01@ABU?$TypeWrapper@V?$basic_string@DU?$char_traits@D@std@@V?$allocator@D@2@@std@@@01@@Z PROC ; CipherShed::ForEach::GetContainerForward<std::basic_string<char,std::char_traits<char>,std::allocator<char> > >, COMDAT

; 96   : 			return static_cast <const ContainerForward <T> &> (forEachContainer);

  00000	8b 44 24 04	 mov	 eax, DWORD PTR _forEachContainer$[esp-4]

; 97   : 		}

  00004	c3		 ret	 0
??$GetContainerForward@V?$basic_string@DU?$char_traits@D@std@@V?$allocator@D@2@@std@@@ForEach@CipherShed@@SAABU?$ContainerForward@V?$basic_string@DU?$char_traits@D@std@@V?$allocator@D@2@@std@@@01@ABUContainer@01@ABU?$TypeWrapper@V?$basic_string@DU?$char_traits@D@std@@V?$allocator@D@2@@std@@@01@@Z ENDP ; CipherShed::ForEach::GetContainerForward<std::basic_string<char,std::char_traits<char>,std::allocator<char> > >
_TEXT	ENDS
PUBLIC	__TI2?AVbad_alloc@std@@
PUBLIC	??$_Allocate@D@std@@YAPADIPAD@Z			; std::_Allocate<char>
PUBLIC	__CTA2?AVbad_alloc@std@@
PUBLIC	__CT??_R0?AVbad_alloc@std@@@8??0bad_alloc@std@@QAE@ABV01@@Z12
PUBLIC	??0bad_alloc@std@@QAE@ABV01@@Z			; std::bad_alloc::bad_alloc
PUBLIC	__CT??_R0?AVexception@std@@@8??0exception@std@@QAE@ABV01@@Z12
EXTRN	??2@YAPAXI@Z:PROC				; operator new
EXTRN	__CxxThrowException@8:PROC
EXTRN	??0exception@std@@QAE@ABV01@@Z:PROC		; std::exception::exception
;	COMDAT __CT??_R0?AVexception@std@@@8??0exception@std@@QAE@ABV01@@Z12
; File c:\program files (x86)\microsoft visual studio 9.0\vc\include\exception
xdata$x	SEGMENT
__CT??_R0?AVexception@std@@@8??0exception@std@@QAE@ABV01@@Z12 DD 00H
	DD	FLAT:??_R0?AVexception@std@@@8
	DD	00H
	DD	0ffffffffH
	ORG $+4
	DD	0cH
	DD	FLAT:??0exception@std@@QAE@ABV01@@Z
xdata$x	ENDS
;	COMDAT __CT??_R0?AVbad_alloc@std@@@8??0bad_alloc@std@@QAE@ABV01@@Z12
xdata$x	SEGMENT
__CT??_R0?AVbad_alloc@std@@@8??0bad_alloc@std@@QAE@ABV01@@Z12 DD 00H
	DD	FLAT:??_R0?AVbad_alloc@std@@@8
	DD	00H
	DD	0ffffffffH
	ORG $+4
	DD	0cH
	DD	FLAT:??0bad_alloc@std@@QAE@ABV01@@Z
xdata$x	ENDS
;	COMDAT __CTA2?AVbad_alloc@std@@
xdata$x	SEGMENT
__CTA2?AVbad_alloc@std@@ DD 02H
	DD	FLAT:__CT??_R0?AVbad_alloc@std@@@8??0bad_alloc@std@@QAE@ABV01@@Z12
	DD	FLAT:__CT??_R0?AVexception@std@@@8??0exception@std@@QAE@ABV01@@Z12
xdata$x	ENDS
;	COMDAT __TI2?AVbad_alloc@std@@
xdata$x	SEGMENT
__TI2?AVbad_alloc@std@@ DD 00H
	DD	FLAT:??1bad_alloc@std@@UAE@XZ
	DD	00H
	DD	FLAT:__CTA2?AVbad_alloc@std@@
; Function compile flags: /Ogtpy
; File c:\program files (x86)\microsoft visual studio 9.0\vc\include\xmemory
xdata$x	ENDS
;	COMDAT ??$_Allocate@D@std@@YAPADIPAD@Z
_TEXT	SEGMENT
$T118630 = -12						; size = 12
$T118635 = 8						; size = 4
__Count$ = 8						; size = 4
___formal$ = 12						; size = 4
??$_Allocate@D@std@@YAPADIPAD@Z PROC			; std::_Allocate<char>, COMDAT

; 37   : 	if (_Count <= 0)

  00000	8b 4c 24 04	 mov	 ecx, DWORD PTR __Count$[esp-4]
  00004	83 ec 0c	 sub	 esp, 12			; 0000000cH
  00007	85 c9		 test	 ecx, ecx
  00009	77 0f		 ja	 SHORT $LN3@Allocate

; 38   : 		_Count = 0;

  0000b	33 c9		 xor	 ecx, ecx
$LN1@Allocate:

; 41   : 
; 42   : 		// allocate storage for _Count elements of type _Ty
; 43   : 	return ((_Ty _FARQ *)::operator new(_Count * sizeof (_Ty)));

  0000d	51		 push	 ecx
  0000e	e8 00 00 00 00	 call	 ??2@YAPAXI@Z		; operator new
  00013	83 c4 04	 add	 esp, 4

; 44   : 	}

  00016	83 c4 0c	 add	 esp, 12			; 0000000cH
  00019	c3		 ret	 0
$LN3@Allocate:

; 39   : 	else if (((_SIZT)(-1) / _Count) < sizeof (_Ty))

  0001a	83 c8 ff	 or	 eax, -1
  0001d	33 d2		 xor	 edx, edx
  0001f	f7 f1		 div	 ecx
  00021	83 f8 01	 cmp	 eax, 1
  00024	73 e7		 jae	 SHORT $LN1@Allocate

; 40   : 		_THROW_NCEE(std::bad_alloc, NULL);

  00026	8d 44 24 10	 lea	 eax, DWORD PTR $T118635[esp+8]
  0002a	50		 push	 eax
  0002b	8d 4c 24 04	 lea	 ecx, DWORD PTR $T118630[esp+16]
  0002f	c7 44 24 14 00
	00 00 00	 mov	 DWORD PTR $T118635[esp+12], 0
  00037	e8 00 00 00 00	 call	 ??0exception@std@@QAE@ABQBD@Z ; std::exception::exception
  0003c	68 00 00 00 00	 push	 OFFSET __TI2?AVbad_alloc@std@@
  00041	8d 4c 24 04	 lea	 ecx, DWORD PTR $T118630[esp+16]
  00045	51		 push	 ecx
  00046	c7 44 24 08 00
	00 00 00	 mov	 DWORD PTR $T118630[esp+20], OFFSET ??_7bad_alloc@std@@6B@
  0004e	e8 00 00 00 00	 call	 __CxxThrowException@8
$LN8@Allocate:
  00053	cc		 int	 3
??$_Allocate@D@std@@YAPADIPAD@Z ENDP			; std::_Allocate<char>
_TEXT	ENDS
PUBLIC	??$_Allocate@_W@std@@YAPA_WIPA_W@Z		; std::_Allocate<wchar_t>
; Function compile flags: /Ogtpy
;	COMDAT ??$_Allocate@_W@std@@YAPA_WIPA_W@Z
_TEXT	SEGMENT
$T118639 = -12						; size = 12
$T118643 = 8						; size = 4
__Count$ = 8						; size = 4
___formal$ = 12						; size = 4
??$_Allocate@_W@std@@YAPA_WIPA_W@Z PROC			; std::_Allocate<wchar_t>, COMDAT

; 37   : 	if (_Count <= 0)

  00000	8b 4c 24 04	 mov	 ecx, DWORD PTR __Count$[esp-4]
  00004	83 ec 0c	 sub	 esp, 12			; 0000000cH
  00007	85 c9		 test	 ecx, ecx
  00009	77 12		 ja	 SHORT $LN3@Allocate@2

; 38   : 		_Count = 0;

  0000b	33 c9		 xor	 ecx, ecx
$LN1@Allocate@2:

; 41   : 
; 42   : 		// allocate storage for _Count elements of type _Ty
; 43   : 	return ((_Ty _FARQ *)::operator new(_Count * sizeof (_Ty)));

  0000d	8d 14 09	 lea	 edx, DWORD PTR [ecx+ecx]
  00010	52		 push	 edx
  00011	e8 00 00 00 00	 call	 ??2@YAPAXI@Z		; operator new
  00016	83 c4 04	 add	 esp, 4

; 44   : 	}

  00019	83 c4 0c	 add	 esp, 12			; 0000000cH
  0001c	c3		 ret	 0
$LN3@Allocate@2:

; 39   : 	else if (((_SIZT)(-1) / _Count) < sizeof (_Ty))

  0001d	83 c8 ff	 or	 eax, -1
  00020	33 d2		 xor	 edx, edx
  00022	f7 f1		 div	 ecx
  00024	83 f8 02	 cmp	 eax, 2
  00027	73 e4		 jae	 SHORT $LN1@Allocate@2

; 40   : 		_THROW_NCEE(std::bad_alloc, NULL);

  00029	8d 44 24 10	 lea	 eax, DWORD PTR $T118643[esp+8]
  0002d	50		 push	 eax
  0002e	8d 4c 24 04	 lea	 ecx, DWORD PTR $T118639[esp+16]
  00032	c7 44 24 14 00
	00 00 00	 mov	 DWORD PTR $T118643[esp+12], 0
  0003a	e8 00 00 00 00	 call	 ??0exception@std@@QAE@ABQBD@Z ; std::exception::exception
  0003f	68 00 00 00 00	 push	 OFFSET __TI2?AVbad_alloc@std@@
  00044	8d 4c 24 04	 lea	 ecx, DWORD PTR $T118639[esp+16]
  00048	51		 push	 ecx
  00049	c7 44 24 08 00
	00 00 00	 mov	 DWORD PTR $T118639[esp+20], OFFSET ??_7bad_alloc@std@@6B@
  00051	e8 00 00 00 00	 call	 __CxxThrowException@8
$LN8@Allocate@2:
  00056	cc		 int	 3
??$_Allocate@_W@std@@YAPA_WIPA_W@Z ENDP			; std::_Allocate<wchar_t>
; Function compile flags: /Ogtpy
_TEXT	ENDS
;	COMDAT ??0bad_alloc@std@@QAE@ABV01@@Z
_TEXT	SEGMENT
___that$ = 8						; size = 4
??0bad_alloc@std@@QAE@ABV01@@Z PROC			; std::bad_alloc::bad_alloc, COMDAT
; _this$ = ecx
  00000	8b 44 24 04	 mov	 eax, DWORD PTR ___that$[esp-4]
  00004	56		 push	 esi
  00005	50		 push	 eax
  00006	8b f1		 mov	 esi, ecx
  00008	e8 00 00 00 00	 call	 ??0exception@std@@QAE@ABV01@@Z ; std::exception::exception
  0000d	c7 06 00 00 00
	00		 mov	 DWORD PTR [esi], OFFSET ??_7bad_alloc@std@@6B@
  00013	8b c6		 mov	 eax, esi
  00015	5e		 pop	 esi
  00016	c2 04 00	 ret	 4
??0bad_alloc@std@@QAE@ABV01@@Z ENDP			; std::bad_alloc::bad_alloc
_TEXT	ENDS
PUBLIC	??0?$_Ranit_base@DHPBDABDV_Iterator_base_secure@std@@@std@@QAE@XZ ; std::_Ranit_base<char,int,char const *,char const &,std::_Iterator_base_secure>::_Ranit_base<char,int,char const *,char const &,std::_Iterator_base_secure>
; Function compile flags: /Ogtpy
;	COMDAT ??0?$_Ranit_base@DHPBDABDV_Iterator_base_secure@std@@@std@@QAE@XZ
_TEXT	SEGMENT
??0?$_Ranit_base@DHPBDABDV_Iterator_base_secure@std@@@std@@QAE@XZ PROC ; std::_Ranit_base<char,int,char const *,char const &,std::_Iterator_base_secure>::_Ranit_base<char,int,char const *,char const &,std::_Iterator_base_secure>, COMDAT
; _this$ = ecx
  00000	8b c1		 mov	 eax, ecx
  00002	c7 00 00 00 00
	00		 mov	 DWORD PTR [eax], 0
  00008	c3		 ret	 0
??0?$_Ranit_base@DHPBDABDV_Iterator_base_secure@std@@@std@@QAE@XZ ENDP ; std::_Ranit_base<char,int,char const *,char const &,std::_Iterator_base_secure>::_Ranit_base<char,int,char const *,char const &,std::_Iterator_base_secure>
_TEXT	ENDS
PUBLIC	??$_Char_traits_cat@U?$char_traits@D@std@@@std@@YA?AU_Secure_char_traits_tag@0@XZ ; std::_Char_traits_cat<std::char_traits<char> >
; Function compile flags: /Ogtpy
; File c:\program files (x86)\microsoft visual studio 9.0\vc\include\iosfwd
;	COMDAT ??$_Char_traits_cat@U?$char_traits@D@std@@@std@@YA?AU_Secure_char_traits_tag@0@XZ
_TEXT	SEGMENT
__Secure$ = -1						; size = 1
??$_Char_traits_cat@U?$char_traits@D@std@@@std@@YA?AU_Secure_char_traits_tag@0@XZ PROC ; std::_Char_traits_cat<std::char_traits<char> >, COMDAT

; 575  : 	{

  00000	51		 push	 ecx

; 576  : 		typename _Char_traits_category<_Traits>::_Secure_char_traits _Secure;
; 577  : 		return (_Secure);

  00001	8a 44 24 03	 mov	 al, BYTE PTR __Secure$[esp+4]

; 578  : 	}

  00005	59		 pop	 ecx
  00006	c3		 ret	 0
??$_Char_traits_cat@U?$char_traits@D@std@@@std@@YA?AU_Secure_char_traits_tag@0@XZ ENDP ; std::_Char_traits_cat<std::char_traits<char> >
_TEXT	ENDS
PUBLIC	??$copy_s@U?$char_traits@D@std@@@_Traits_helper@std@@YAPADPADIPBDIU_Secure_char_traits_tag@1@@Z ; std::_Traits_helper::copy_s<std::char_traits<char> >
; Function compile flags: /Ogtpy
;	COMDAT ??$copy_s@U?$char_traits@D@std@@@_Traits_helper@std@@YAPADPADIPBDIU_Secure_char_traits_tag@1@@Z
_TEXT	SEGMENT
__First1$ = 8						; size = 4
__Size$ = 12						; size = 4
__First2$ = 16						; size = 4
__Count$ = 20						; size = 4
___formal$ = 24						; size = 1
??$copy_s@U?$char_traits@D@std@@@_Traits_helper@std@@YAPADPADIPBDIU_Secure_char_traits_tag@1@@Z PROC ; std::_Traits_helper::copy_s<std::char_traits<char> >, COMDAT

; 597  : 		return _Traits::_Copy_s(_First1, _Size, _First2, _Count);

  00000	8b 44 24 10	 mov	 eax, DWORD PTR __Count$[esp-4]
  00004	8b 4c 24 0c	 mov	 ecx, DWORD PTR __First2$[esp-4]
  00008	8b 54 24 08	 mov	 edx, DWORD PTR __Size$[esp-4]
  0000c	56		 push	 esi
  0000d	8b 74 24 08	 mov	 esi, DWORD PTR __First1$[esp]
  00011	50		 push	 eax
  00012	51		 push	 ecx
  00013	52		 push	 edx
  00014	56		 push	 esi
  00015	e8 00 00 00 00	 call	 _memcpy_s
  0001a	83 c4 10	 add	 esp, 16			; 00000010H
  0001d	8b c6		 mov	 eax, esi
  0001f	5e		 pop	 esi

; 598  : 	}

  00020	c3		 ret	 0
??$copy_s@U?$char_traits@D@std@@@_Traits_helper@std@@YAPADPADIPBDIU_Secure_char_traits_tag@1@@Z ENDP ; std::_Traits_helper::copy_s<std::char_traits<char> >
_TEXT	ENDS
PUBLIC	??$_Char_traits_cat@U?$char_traits@_W@std@@@std@@YA?AU_Secure_char_traits_tag@0@XZ ; std::_Char_traits_cat<std::char_traits<wchar_t> >
; Function compile flags: /Ogtpy
;	COMDAT ??$_Char_traits_cat@U?$char_traits@_W@std@@@std@@YA?AU_Secure_char_traits_tag@0@XZ
_TEXT	SEGMENT
__Secure$ = -1						; size = 1
??$_Char_traits_cat@U?$char_traits@_W@std@@@std@@YA?AU_Secure_char_traits_tag@0@XZ PROC ; std::_Char_traits_cat<std::char_traits<wchar_t> >, COMDAT

; 575  : 	{

  00000	51		 push	 ecx

; 576  : 		typename _Char_traits_category<_Traits>::_Secure_char_traits _Secure;
; 577  : 		return (_Secure);

  00001	8a 44 24 03	 mov	 al, BYTE PTR __Secure$[esp+4]

; 578  : 	}

  00005	59		 pop	 ecx
  00006	c3		 ret	 0
??$_Char_traits_cat@U?$char_traits@_W@std@@@std@@YA?AU_Secure_char_traits_tag@0@XZ ENDP ; std::_Char_traits_cat<std::char_traits<wchar_t> >
_TEXT	ENDS
PUBLIC	??$copy_s@U?$char_traits@_W@std@@@_Traits_helper@std@@YAPA_WPA_WIPB_WIU_Secure_char_traits_tag@1@@Z ; std::_Traits_helper::copy_s<std::char_traits<wchar_t> >
; Function compile flags: /Ogtpy
;	COMDAT ??$copy_s@U?$char_traits@_W@std@@@_Traits_helper@std@@YAPA_WPA_WIPB_WIU_Secure_char_traits_tag@1@@Z
_TEXT	SEGMENT
__First1$ = 8						; size = 4
__Size$ = 12						; size = 4
__First2$ = 16						; size = 4
__Count$ = 20						; size = 4
___formal$ = 24						; size = 1
??$copy_s@U?$char_traits@_W@std@@@_Traits_helper@std@@YAPA_WPA_WIPB_WIU_Secure_char_traits_tag@1@@Z PROC ; std::_Traits_helper::copy_s<std::char_traits<wchar_t> >, COMDAT

; 597  : 		return _Traits::_Copy_s(_First1, _Size, _First2, _Count);

  00000	8b 44 24 10	 mov	 eax, DWORD PTR __Count$[esp-4]
  00004	8b 54 24 0c	 mov	 edx, DWORD PTR __First2$[esp-4]
  00008	56		 push	 esi
  00009	8b 74 24 08	 mov	 esi, DWORD PTR __First1$[esp]
  0000d	8d 0c 00	 lea	 ecx, DWORD PTR [eax+eax]
  00010	8b 44 24 0c	 mov	 eax, DWORD PTR __Size$[esp]
  00014	51		 push	 ecx
  00015	52		 push	 edx
  00016	8d 0c 00	 lea	 ecx, DWORD PTR [eax+eax]
  00019	51		 push	 ecx
  0001a	56		 push	 esi
  0001b	e8 00 00 00 00	 call	 _memcpy_s
  00020	83 c4 10	 add	 esp, 16			; 00000010H
  00023	8b c6		 mov	 eax, esi
  00025	5e		 pop	 esi

; 598  : 	}

  00026	c3		 ret	 0
??$copy_s@U?$char_traits@_W@std@@@_Traits_helper@std@@YAPA_WPA_WIPB_WIU_Secure_char_traits_tag@1@@Z ENDP ; std::_Traits_helper::copy_s<std::char_traits<wchar_t> >
_TEXT	ENDS
PUBLIC	??$move_s@U?$char_traits@D@std@@@_Traits_helper@std@@YAPADPADIPBDIU_Secure_char_traits_tag@1@@Z ; std::_Traits_helper::move_s<std::char_traits<char> >
; Function compile flags: /Ogtpy
;	COMDAT ??$move_s@U?$char_traits@D@std@@@_Traits_helper@std@@YAPADPADIPBDIU_Secure_char_traits_tag@1@@Z
_TEXT	SEGMENT
__First1$ = 8						; size = 4
__Size$ = 12						; size = 4
__First2$ = 16						; size = 4
__Count$ = 20						; size = 4
___formal$ = 24						; size = 1
??$move_s@U?$char_traits@D@std@@@_Traits_helper@std@@YAPADPADIPBDIU_Secure_char_traits_tag@1@@Z PROC ; std::_Traits_helper::move_s<std::char_traits<char> >, COMDAT

; 624  : 		return _Traits::_Move_s(_First1, _Size, _First2, _Count);

  00000	8b 44 24 10	 mov	 eax, DWORD PTR __Count$[esp-4]
  00004	8b 4c 24 0c	 mov	 ecx, DWORD PTR __First2$[esp-4]
  00008	8b 54 24 08	 mov	 edx, DWORD PTR __Size$[esp-4]
  0000c	56		 push	 esi
  0000d	8b 74 24 08	 mov	 esi, DWORD PTR __First1$[esp]
  00011	50		 push	 eax
  00012	51		 push	 ecx
  00013	52		 push	 edx
  00014	56		 push	 esi
  00015	e8 00 00 00 00	 call	 _memmove_s
  0001a	83 c4 10	 add	 esp, 16			; 00000010H
  0001d	8b c6		 mov	 eax, esi
  0001f	5e		 pop	 esi

; 625  : 	}

  00020	c3		 ret	 0
??$move_s@U?$char_traits@D@std@@@_Traits_helper@std@@YAPADPADIPBDIU_Secure_char_traits_tag@1@@Z ENDP ; std::_Traits_helper::move_s<std::char_traits<char> >
_TEXT	ENDS
PUBLIC	??$move_s@U?$char_traits@_W@std@@@_Traits_helper@std@@YAPA_WPA_WIPB_WIU_Secure_char_traits_tag@1@@Z ; std::_Traits_helper::move_s<std::char_traits<wchar_t> >
; Function compile flags: /Ogtpy
;	COMDAT ??$move_s@U?$char_traits@_W@std@@@_Traits_helper@std@@YAPA_WPA_WIPB_WIU_Secure_char_traits_tag@1@@Z
_TEXT	SEGMENT
__First1$ = 8						; size = 4
__Size$ = 12						; size = 4
__First2$ = 16						; size = 4
__Count$ = 20						; size = 4
___formal$ = 24						; size = 1
??$move_s@U?$char_traits@_W@std@@@_Traits_helper@std@@YAPA_WPA_WIPB_WIU_Secure_char_traits_tag@1@@Z PROC ; std::_Traits_helper::move_s<std::char_traits<wchar_t> >, COMDAT

; 624  : 		return _Traits::_Move_s(_First1, _Size, _First2, _Count);

  00000	8b 44 24 10	 mov	 eax, DWORD PTR __Count$[esp-4]
  00004	8b 54 24 0c	 mov	 edx, DWORD PTR __First2$[esp-4]
  00008	56		 push	 esi
  00009	8b 74 24 08	 mov	 esi, DWORD PTR __First1$[esp]
  0000d	8d 0c 00	 lea	 ecx, DWORD PTR [eax+eax]
  00010	8b 44 24 0c	 mov	 eax, DWORD PTR __Size$[esp]
  00014	51		 push	 ecx
  00015	52		 push	 edx
  00016	8d 0c 00	 lea	 ecx, DWORD PTR [eax+eax]
  00019	51		 push	 ecx
  0001a	56		 push	 esi
  0001b	e8 00 00 00 00	 call	 _memmove_s
  00020	83 c4 10	 add	 esp, 16			; 00000010H
  00023	8b c6		 mov	 eax, esi
  00025	5e		 pop	 esi

; 625  : 	}

  00026	c3		 ret	 0
??$move_s@U?$char_traits@_W@std@@@_Traits_helper@std@@YAPA_WPA_WIPB_WIU_Secure_char_traits_tag@1@@Z ENDP ; std::_Traits_helper::move_s<std::char_traits<wchar_t> >
_TEXT	ENDS
PUBLIC	??_7SystemException@CipherShed@@6B@		; CipherShed::SystemException::`vftable'
PUBLIC	??0SystemException@CipherShed@@QAE@XZ		; CipherShed::SystemException::SystemException
PUBLIC	??_R4SystemException@CipherShed@@6B@		; CipherShed::SystemException::`RTTI Complete Object Locator'
PUBLIC	??_R0?AUSystemException@CipherShed@@@8		; CipherShed::SystemException `RTTI Type Descriptor'
PUBLIC	??_R3SystemException@CipherShed@@8		; CipherShed::SystemException::`RTTI Class Hierarchy Descriptor'
PUBLIC	??_R2SystemException@CipherShed@@8		; CipherShed::SystemException::`RTTI Base Class Array'
PUBLIC	??_R1A@?0A@EA@SystemException@CipherShed@@8	; CipherShed::SystemException::`RTTI Base Class Descriptor at (0,-1,0,64)'
PUBLIC	?Show@SystemException@CipherShed@@UBEXPAUHWND__@@@Z ; CipherShed::SystemException::Show
EXTRN	__imp__GetLastError@0:PROC
;	COMDAT ??_R1A@?0A@EA@SystemException@CipherShed@@8
; File c:\users\public\desktop\projects\ciphershed\src\common\exception.h
rdata$r	SEGMENT
??_R1A@?0A@EA@SystemException@CipherShed@@8 DD FLAT:??_R0?AUSystemException@CipherShed@@@8 ; CipherShed::SystemException::`RTTI Base Class Descriptor at (0,-1,0,64)'
	DD	01H
	DD	00H
	DD	0ffffffffH
	DD	00H
	DD	040H
	DD	FLAT:??_R3SystemException@CipherShed@@8
rdata$r	ENDS
;	COMDAT ??_R2SystemException@CipherShed@@8
rdata$r	SEGMENT
??_R2SystemException@CipherShed@@8 DD FLAT:??_R1A@?0A@EA@SystemException@CipherShed@@8 ; CipherShed::SystemException::`RTTI Base Class Array'
	DD	FLAT:??_R1A@?0A@EA@Exception@CipherShed@@8
rdata$r	ENDS
;	COMDAT ??_R3SystemException@CipherShed@@8
rdata$r	SEGMENT
??_R3SystemException@CipherShed@@8 DD 00H		; CipherShed::SystemException::`RTTI Class Hierarchy Descriptor'
	DD	00H
	DD	02H
	DD	FLAT:??_R2SystemException@CipherShed@@8
rdata$r	ENDS
;	COMDAT ??_R0?AUSystemException@CipherShed@@@8
_DATA	SEGMENT
??_R0?AUSystemException@CipherShed@@@8 DD FLAT:??_7type_info@@6B@ ; CipherShed::SystemException `RTTI Type Descriptor'
	DD	00H
	DB	'.?AUSystemException@CipherShed@@', 00H
_DATA	ENDS
;	COMDAT ??_R4SystemException@CipherShed@@6B@
rdata$r	SEGMENT
??_R4SystemException@CipherShed@@6B@ DD 00H		; CipherShed::SystemException::`RTTI Complete Object Locator'
	DD	00H
	DD	00H
	DD	FLAT:??_R0?AUSystemException@CipherShed@@@8
	DD	FLAT:??_R3SystemException@CipherShed@@8
rdata$r	ENDS
;	COMDAT ??_7SystemException@CipherShed@@6B@
CONST	SEGMENT
??_7SystemException@CipherShed@@6B@ DD FLAT:??_R4SystemException@CipherShed@@6B@ ; CipherShed::SystemException::`vftable'
	DD	FLAT:?Show@SystemException@CipherShed@@UBEXPAUHWND__@@@Z
; Function compile flags: /Ogtpy
CONST	ENDS
;	COMDAT ??0SystemException@CipherShed@@QAE@XZ
_TEXT	SEGMENT
??0SystemException@CipherShed@@QAE@XZ PROC		; CipherShed::SystemException::SystemException, COMDAT
; _this$ = ecx

; 25   : 		SystemException () : ErrorCode (GetLastError()) { }

  00000	56		 push	 esi
  00001	8b f1		 mov	 esi, ecx
  00003	c7 06 00 00 00
	00		 mov	 DWORD PTR [esi], OFFSET ??_7SystemException@CipherShed@@6B@
  00009	ff 15 00 00 00
	00		 call	 DWORD PTR __imp__GetLastError@0
  0000f	89 46 04	 mov	 DWORD PTR [esi+4], eax
  00012	8b c6		 mov	 eax, esi
  00014	5e		 pop	 esi
  00015	c3		 ret	 0
??0SystemException@CipherShed@@QAE@XZ ENDP		; CipherShed::SystemException::SystemException
_TEXT	ENDS
EXTRN	_handleWin32Error:PROC
EXTRN	__imp__SetLastError@4:PROC
; Function compile flags: /Ogtpy
;	COMDAT ?Show@SystemException@CipherShed@@UBEXPAUHWND__@@@Z
_TEXT	SEGMENT
_parent$ = 8						; size = 4
?Show@SystemException@CipherShed@@UBEXPAUHWND__@@@Z PROC ; CipherShed::SystemException::Show, COMDAT
; _this$ = ecx

; 29   : 			SetLastError (ErrorCode);

  00000	8b 41 04	 mov	 eax, DWORD PTR [ecx+4]
  00003	50		 push	 eax
  00004	ff 15 00 00 00
	00		 call	 DWORD PTR __imp__SetLastError@4

; 30   : 			handleWin32Error (parent);

  0000a	8b 4c 24 04	 mov	 ecx, DWORD PTR _parent$[esp-4]
  0000e	51		 push	 ecx
  0000f	e8 00 00 00 00	 call	 _handleWin32Error
  00014	59		 pop	 ecx

; 31   : 		}

  00015	c2 04 00	 ret	 4
?Show@SystemException@CipherShed@@UBEXPAUHWND__@@@Z ENDP ; CipherShed::SystemException::Show
_TEXT	ENDS
PUBLIC	?c_str@?$basic_string@DU?$char_traits@D@std@@V?$allocator@D@2@@std@@QBEPBDXZ ; std::basic_string<char,std::char_traits<char>,std::allocator<char> >::c_str
; Function compile flags: /Ogtpy
; File c:\program files (x86)\microsoft visual studio 9.0\vc\include\xstring
;	COMDAT ?c_str@?$basic_string@DU?$char_traits@D@std@@V?$allocator@D@2@@std@@QBEPBDXZ
_TEXT	SEGMENT
?c_str@?$basic_string@DU?$char_traits@D@std@@V?$allocator@D@2@@std@@QBEPBDXZ PROC ; std::basic_string<char,std::char_traits<char>,std::allocator<char> >::c_str, COMDAT
; _this$ = ecx

; 1651 : 		return (_Myptr());

  00000	83 79 18 10	 cmp	 DWORD PTR [ecx+24], 16	; 00000010H
  00004	72 04		 jb	 SHORT $LN5@c_str
  00006	8b 41 04	 mov	 eax, DWORD PTR [ecx+4]

; 1652 : 		}

  00009	c3		 ret	 0

; 1651 : 		return (_Myptr());

$LN5@c_str:
  0000a	8d 41 04	 lea	 eax, DWORD PTR [ecx+4]

; 1652 : 		}

  0000d	c3		 ret	 0
?c_str@?$basic_string@DU?$char_traits@D@std@@V?$allocator@D@2@@std@@QBEPBDXZ ENDP ; std::basic_string<char,std::char_traits<char>,std::allocator<char> >::c_str
_TEXT	ENDS
PUBLIC	?c_str@?$basic_string@_WU?$char_traits@_W@std@@V?$allocator@_W@2@@std@@QBEPB_WXZ ; std::basic_string<wchar_t,std::char_traits<wchar_t>,std::allocator<wchar_t> >::c_str
; Function compile flags: /Ogtpy
;	COMDAT ?c_str@?$basic_string@_WU?$char_traits@_W@std@@V?$allocator@_W@2@@std@@QBEPB_WXZ
_TEXT	SEGMENT
?c_str@?$basic_string@_WU?$char_traits@_W@std@@V?$allocator@_W@2@@std@@QBEPB_WXZ PROC ; std::basic_string<wchar_t,std::char_traits<wchar_t>,std::allocator<wchar_t> >::c_str, COMDAT
; _this$ = ecx

; 1651 : 		return (_Myptr());

  00000	83 79 18 08	 cmp	 DWORD PTR [ecx+24], 8
  00004	72 04		 jb	 SHORT $LN5@c_str@2
  00006	8b 41 04	 mov	 eax, DWORD PTR [ecx+4]

; 1652 : 		}

  00009	c3		 ret	 0

; 1651 : 		return (_Myptr());

$LN5@c_str@2:
  0000a	8d 41 04	 lea	 eax, DWORD PTR [ecx+4]

; 1652 : 		}

  0000d	c3		 ret	 0
?c_str@?$basic_string@_WU?$char_traits@_W@std@@V?$allocator@_W@2@@std@@QBEPB_WXZ ENDP ; std::basic_string<wchar_t,std::char_traits<wchar_t>,std::allocator<wchar_t> >::c_str
_TEXT	ENDS
PUBLIC	??D?$_String_const_iterator@DU?$char_traits@D@std@@V?$allocator@D@2@@std@@QBEABDXZ ; std::_String_const_iterator<char,std::char_traits<char>,std::allocator<char> >::operator*
EXTRN	__invalid_parameter_noinfo:PROC
; Function compile flags: /Ogtpy
;	COMDAT ??D?$_String_const_iterator@DU?$char_traits@D@std@@V?$allocator@D@2@@std@@QBEABDXZ
_TEXT	SEGMENT
??D?$_String_const_iterator@DU?$char_traits@D@std@@V?$allocator@D@2@@std@@QBEABDXZ PROC ; std::_String_const_iterator<char,std::char_traits<char>,std::allocator<char> >::operator*, COMDAT
; _this$ = ecx

; 104  : 		{	// return designated object

  00000	56		 push	 esi
  00001	8b f1		 mov	 esi, ecx

; 105  : 
; 106  :  #if _HAS_ITERATOR_DEBUGGING
; 107  : 		if (this->_Mycont == 0 || _Myptr == 0
; 108  : 			|| _Myptr < ((_Mystring *)this->_Mycont)->_Myptr()
; 109  : 			|| ((_Mystring *)this->_Mycont)->_Myptr()
; 110  : 				+ ((_Mystring *)this->_Mycont)->_Mysize <= _Myptr)
; 111  : 			{
; 112  : 			_DEBUG_ERROR("string iterator not dereferencable");
; 113  : 			_SCL_SECURE_OUT_OF_RANGE;
; 114  : 			}
; 115  : 		__analysis_assume(_Myptr != 0);
; 116  :  #else
; 117  : 		if (this->_Mycont != _IGNORE_MYCONT)

  00003	8b 06		 mov	 eax, DWORD PTR [esi]
  00005	83 f8 fc	 cmp	 eax, -4			; fffffffcH
  00008	74 28		 je	 SHORT $LN18@operator

; 118  : 		{
; 119  : 			_SCL_SECURE_VALIDATE(this->_Has_container());

  0000a	85 c0		 test	 eax, eax
  0000c	75 05		 jne	 SHORT $LN7@operator
  0000e	e8 00 00 00 00	 call	 __invalid_parameter_noinfo
$LN7@operator:

; 120  : 			_SCL_SECURE_VALIDATE_RANGE(_Myptr < (((_Mystring *)this->_Mycont)->_Myptr() + ((_Mystring *)(this->_Mycont))->_Mysize));

  00013	8b 06		 mov	 eax, DWORD PTR [esi]
  00015	83 78 18 10	 cmp	 DWORD PTR [eax+24], 16	; 00000010H
  00019	72 05		 jb	 SHORT $LN16@operator
  0001b	8b 48 04	 mov	 ecx, DWORD PTR [eax+4]
  0001e	eb 03		 jmp	 SHORT $LN17@operator
$LN16@operator:
  00020	8d 48 04	 lea	 ecx, DWORD PTR [eax+4]
$LN17@operator:
  00023	8b 40 14	 mov	 eax, DWORD PTR [eax+20]
  00026	03 c1		 add	 eax, ecx
  00028	39 46 04	 cmp	 DWORD PTR [esi+4], eax
  0002b	72 05		 jb	 SHORT $LN18@operator
  0002d	e8 00 00 00 00	 call	 __invalid_parameter_noinfo
$LN18@operator:

; 121  : 		}
; 122  :  #endif /* _HAS_ITERATOR_DEBUGGING */
; 123  : 
; 124  : 		return (*_Myptr);

  00032	8b 46 04	 mov	 eax, DWORD PTR [esi+4]
  00035	5e		 pop	 esi

; 125  : 		}

  00036	c3		 ret	 0
??D?$_String_const_iterator@DU?$char_traits@D@std@@V?$allocator@D@2@@std@@QBEABDXZ ENDP ; std::_String_const_iterator<char,std::char_traits<char>,std::allocator<char> >::operator*
_TEXT	ENDS
PUBLIC	??0?$_String_val@DV?$allocator@D@std@@@std@@IAE@V?$allocator@D@1@@Z ; std::_String_val<char,std::allocator<char> >::_String_val<char,std::allocator<char> >
; Function compile flags: /Ogtpy
;	COMDAT ??0?$_String_val@DV?$allocator@D@std@@@std@@IAE@V?$allocator@D@1@@Z
_TEXT	SEGMENT
__Al$ = 8						; size = 1
??0?$_String_val@DV?$allocator@D@std@@@std@@IAE@V?$allocator@D@1@@Z PROC ; std::_String_val<char,std::allocator<char> >::_String_val<char,std::allocator<char> >, COMDAT
; _this$ = ecx

; 472  : 		{	// construct allocator from _Al

  00000	8b c1		 mov	 eax, ecx

; 473  : 		}

  00002	c2 04 00	 ret	 4
??0?$_String_val@DV?$allocator@D@std@@@std@@IAE@V?$allocator@D@1@@Z ENDP ; std::_String_val<char,std::allocator<char> >::_String_val<char,std::allocator<char> >
_TEXT	ENDS
PUBLIC	??0?$_String_val@DV?$allocator@D@std@@@std@@QAE@ABV01@@Z ; std::_String_val<char,std::allocator<char> >::_String_val<char,std::allocator<char> >
; Function compile flags: /Ogtpy
;	COMDAT ??0?$_String_val@DV?$allocator@D@std@@@std@@QAE@ABV01@@Z
_TEXT	SEGMENT
__Right$ = 8						; size = 4
??0?$_String_val@DV?$allocator@D@std@@@std@@QAE@ABV01@@Z PROC ; std::_String_val<char,std::allocator<char> >::_String_val<char,std::allocator<char> >, COMDAT
; _this$ = ecx

; 478  : 		{	// copy constructor

  00000	8b c1		 mov	 eax, ecx

; 479  : #if defined(_DEBUG)
; 480  : 		if (_Right._Myfirstiter == _IGNORE_MYITERLIST)
; 481  : 			{
; 482  : 			this->_Myfirstiter = _IGNORE_MYITERLIST;
; 483  : 			}
; 484  : #endif
; 485  : 		}

  00002	c2 04 00	 ret	 4
??0?$_String_val@DV?$allocator@D@std@@@std@@QAE@ABV01@@Z ENDP ; std::_String_val<char,std::allocator<char> >::_String_val<char,std::allocator<char> >
_TEXT	ENDS
PUBLIC	??0?$_String_val@_WV?$allocator@_W@std@@@std@@IAE@V?$allocator@_W@1@@Z ; std::_String_val<wchar_t,std::allocator<wchar_t> >::_String_val<wchar_t,std::allocator<wchar_t> >
; Function compile flags: /Ogtpy
;	COMDAT ??0?$_String_val@_WV?$allocator@_W@std@@@std@@IAE@V?$allocator@_W@1@@Z
_TEXT	SEGMENT
__Al$ = 8						; size = 1
??0?$_String_val@_WV?$allocator@_W@std@@@std@@IAE@V?$allocator@_W@1@@Z PROC ; std::_String_val<wchar_t,std::allocator<wchar_t> >::_String_val<wchar_t,std::allocator<wchar_t> >, COMDAT
; _this$ = ecx

; 472  : 		{	// construct allocator from _Al

  00000	8b c1		 mov	 eax, ecx

; 473  : 		}

  00002	c2 04 00	 ret	 4
??0?$_String_val@_WV?$allocator@_W@std@@@std@@IAE@V?$allocator@_W@1@@Z ENDP ; std::_String_val<wchar_t,std::allocator<wchar_t> >::_String_val<wchar_t,std::allocator<wchar_t> >
_TEXT	ENDS
PUBLIC	?_Eos@?$basic_string@_WU?$char_traits@_W@std@@V?$allocator@_W@2@@std@@IAEXI@Z ; std::basic_string<wchar_t,std::char_traits<wchar_t>,std::allocator<wchar_t> >::_Eos
; Function compile flags: /Ogtpy
;	COMDAT ?_Eos@?$basic_string@_WU?$char_traits@_W@std@@V?$allocator@_W@2@@std@@IAEXI@Z
_TEXT	SEGMENT
__Newsize$ = 8						; size = 4
?_Eos@?$basic_string@_WU?$char_traits@_W@std@@V?$allocator@_W@2@@std@@IAEXI@Z PROC ; std::basic_string<wchar_t,std::char_traits<wchar_t>,std::allocator<wchar_t> >::_Eos, COMDAT
; _this$ = ecx

; 2114 : 		_Traits::assign(_Myptr()[_Mysize = _Newsize], _Elem());

  00000	8b 44 24 04	 mov	 eax, DWORD PTR __Newsize$[esp-4]
  00004	33 d2		 xor	 edx, edx
  00006	83 79 18 08	 cmp	 DWORD PTR [ecx+24], 8
  0000a	89 41 14	 mov	 DWORD PTR [ecx+20], eax
  0000d	72 0a		 jb	 SHORT $LN5@Eos@2
  0000f	8b 49 04	 mov	 ecx, DWORD PTR [ecx+4]
  00012	66 89 14 41	 mov	 WORD PTR [ecx+eax*2], dx

; 2115 : 		}

  00016	c2 04 00	 ret	 4

; 2114 : 		_Traits::assign(_Myptr()[_Mysize = _Newsize], _Elem());

$LN5@Eos@2:
  00019	66 89 54 41 04	 mov	 WORD PTR [ecx+eax*2+4], dx

; 2115 : 		}

  0001e	c2 04 00	 ret	 4
?_Eos@?$basic_string@_WU?$char_traits@_W@std@@V?$allocator@_W@2@@std@@IAEXI@Z ENDP ; std::basic_string<wchar_t,std::char_traits<wchar_t>,std::allocator<wchar_t> >::_Eos
_TEXT	ENDS
PUBLIC	?max_size@?$basic_string@DU?$char_traits@D@std@@V?$allocator@D@2@@std@@QBEIXZ ; std::basic_string<char,std::char_traits<char>,std::allocator<char> >::max_size
; Function compile flags: /Ogtpy
;	COMDAT ?max_size@?$basic_string@DU?$char_traits@D@std@@V?$allocator@D@2@@std@@QBEIXZ
_TEXT	SEGMENT
?max_size@?$basic_string@DU?$char_traits@D@std@@V?$allocator@D@2@@std@@QBEIXZ PROC ; std::basic_string<char,std::char_traits<char>,std::allocator<char> >::max_size, COMDAT
; _this$ = ecx

; 1671 : 		size_type _Num = _Mybase::_Alval.max_size();
; 1672 : 		return (_Num <= 1 ? 1 : _Num - 1);

  00000	b8 fe ff ff ff	 mov	 eax, -2			; fffffffeH

; 1673 : 		}

  00005	c3		 ret	 0
?max_size@?$basic_string@DU?$char_traits@D@std@@V?$allocator@D@2@@std@@QBEIXZ ENDP ; std::basic_string<char,std::char_traits<char>,std::allocator<char> >::max_size
_TEXT	ENDS
PUBLIC	?max_size@?$basic_string@_WU?$char_traits@_W@std@@V?$allocator@_W@2@@std@@QBEIXZ ; std::basic_string<wchar_t,std::char_traits<wchar_t>,std::allocator<wchar_t> >::max_size
; Function compile flags: /Ogtpy
;	COMDAT ?max_size@?$basic_string@_WU?$char_traits@_W@std@@V?$allocator@_W@2@@std@@QBEIXZ
_TEXT	SEGMENT
?max_size@?$basic_string@_WU?$char_traits@_W@std@@V?$allocator@_W@2@@std@@QBEIXZ PROC ; std::basic_string<wchar_t,std::char_traits<wchar_t>,std::allocator<wchar_t> >::max_size, COMDAT
; _this$ = ecx

; 1671 : 		size_type _Num = _Mybase::_Alval.max_size();
; 1672 : 		return (_Num <= 1 ? 1 : _Num - 1);

  00000	b8 fe ff ff 7f	 mov	 eax, 2147483646		; 7ffffffeH

; 1673 : 		}

  00005	c3		 ret	 0
?max_size@?$basic_string@_WU?$char_traits@_W@std@@V?$allocator@_W@2@@std@@QBEIXZ ENDP ; std::basic_string<wchar_t,std::char_traits<wchar_t>,std::allocator<wchar_t> >::max_size
_TEXT	ENDS
PUBLIC	?allocate@?$allocator@D@std@@QAEPADI@Z		; std::allocator<char>::allocate
; Function compile flags: /Ogtpy
; File c:\program files (x86)\microsoft visual studio 9.0\vc\include\xmemory
;	COMDAT ?allocate@?$allocator@D@std@@QAEPADI@Z
_TEXT	SEGMENT
__Count$ = 8						; size = 4
?allocate@?$allocator@D@std@@QAEPADI@Z PROC		; std::allocator<char>::allocate, COMDAT
; _this$ = ecx

; 145  : 		return (_Allocate(_Count, (pointer)0));

  00000	8b 44 24 04	 mov	 eax, DWORD PTR __Count$[esp-4]
  00004	6a 00		 push	 0
  00006	50		 push	 eax
  00007	e8 00 00 00 00	 call	 ??$_Allocate@D@std@@YAPADIPAD@Z ; std::_Allocate<char>
  0000c	83 c4 08	 add	 esp, 8

; 146  : 		}

  0000f	c2 04 00	 ret	 4
?allocate@?$allocator@D@std@@QAEPADI@Z ENDP		; std::allocator<char>::allocate
_TEXT	ENDS
PUBLIC	?allocate@?$allocator@_W@std@@QAEPA_WI@Z	; std::allocator<wchar_t>::allocate
; Function compile flags: /Ogtpy
;	COMDAT ?allocate@?$allocator@_W@std@@QAEPA_WI@Z
_TEXT	SEGMENT
__Count$ = 8						; size = 4
?allocate@?$allocator@_W@std@@QAEPA_WI@Z PROC		; std::allocator<wchar_t>::allocate, COMDAT
; _this$ = ecx

; 145  : 		return (_Allocate(_Count, (pointer)0));

  00000	8b 44 24 04	 mov	 eax, DWORD PTR __Count$[esp-4]
  00004	6a 00		 push	 0
  00006	50		 push	 eax
  00007	e8 00 00 00 00	 call	 ??$_Allocate@_W@std@@YAPA_WIPA_W@Z ; std::_Allocate<wchar_t>
  0000c	83 c4 08	 add	 esp, 8

; 146  : 		}

  0000f	c2 04 00	 ret	 4
?allocate@?$allocator@_W@std@@QAEPA_WI@Z ENDP		; std::allocator<wchar_t>::allocate
_TEXT	ENDS
PUBLIC	??$copy_s@U?$char_traits@D@std@@@_Traits_helper@std@@YAPADPADIPBDI@Z ; std::_Traits_helper::copy_s<std::char_traits<char> >
; Function compile flags: /Ogtpy
; File c:\program files (x86)\microsoft visual studio 9.0\vc\include\iosfwd
;	COMDAT ??$copy_s@U?$char_traits@D@std@@@_Traits_helper@std@@YAPADPADIPBDI@Z
_TEXT	SEGMENT
__First1$ = 8						; size = 4
__Size$ = 12						; size = 4
__First2$ = 16						; size = 4
__Count$ = 20						; size = 4
??$copy_s@U?$char_traits@D@std@@@_Traits_helper@std@@YAPADPADIPBDI@Z PROC ; std::_Traits_helper::copy_s<std::char_traits<char> >, COMDAT

; 589  : 		return copy_s<_Traits>(_First1, _Size, _First2, _Count, _Char_traits_cat<_Traits>());

  00000	8b 44 24 10	 mov	 eax, DWORD PTR __Count$[esp-4]
  00004	8b 4c 24 0c	 mov	 ecx, DWORD PTR __First2$[esp-4]
  00008	8b 54 24 08	 mov	 edx, DWORD PTR __Size$[esp-4]
  0000c	56		 push	 esi
  0000d	8b 74 24 08	 mov	 esi, DWORD PTR __First1$[esp]
  00011	50		 push	 eax
  00012	51		 push	 ecx
  00013	52		 push	 edx
  00014	56		 push	 esi
  00015	e8 00 00 00 00	 call	 _memcpy_s
  0001a	83 c4 10	 add	 esp, 16			; 00000010H
  0001d	8b c6		 mov	 eax, esi
  0001f	5e		 pop	 esi

; 590  : 	}

  00020	c3		 ret	 0
??$copy_s@U?$char_traits@D@std@@@_Traits_helper@std@@YAPADPADIPBDI@Z ENDP ; std::_Traits_helper::copy_s<std::char_traits<char> >
_TEXT	ENDS
PUBLIC	??$copy_s@U?$char_traits@_W@std@@@_Traits_helper@std@@YAPA_WPA_WIPB_WI@Z ; std::_Traits_helper::copy_s<std::char_traits<wchar_t> >
; Function compile flags: /Ogtpy
;	COMDAT ??$copy_s@U?$char_traits@_W@std@@@_Traits_helper@std@@YAPA_WPA_WIPB_WI@Z
_TEXT	SEGMENT
__First1$ = 8						; size = 4
__Size$ = 12						; size = 4
__First2$ = 16						; size = 4
__Count$ = 20						; size = 4
??$copy_s@U?$char_traits@_W@std@@@_Traits_helper@std@@YAPA_WPA_WIPB_WI@Z PROC ; std::_Traits_helper::copy_s<std::char_traits<wchar_t> >, COMDAT

; 589  : 		return copy_s<_Traits>(_First1, _Size, _First2, _Count, _Char_traits_cat<_Traits>());

  00000	8b 44 24 10	 mov	 eax, DWORD PTR __Count$[esp-4]
  00004	8b 54 24 0c	 mov	 edx, DWORD PTR __First2$[esp-4]
  00008	56		 push	 esi
  00009	8b 74 24 08	 mov	 esi, DWORD PTR __First1$[esp]
  0000d	8d 0c 00	 lea	 ecx, DWORD PTR [eax+eax]
  00010	8b 44 24 0c	 mov	 eax, DWORD PTR __Size$[esp]
  00014	51		 push	 ecx
  00015	52		 push	 edx
  00016	8d 0c 00	 lea	 ecx, DWORD PTR [eax+eax]
  00019	51		 push	 ecx
  0001a	56		 push	 esi
  0001b	e8 00 00 00 00	 call	 _memcpy_s
  00020	83 c4 10	 add	 esp, 16			; 00000010H
  00023	8b c6		 mov	 eax, esi
  00025	5e		 pop	 esi

; 590  : 	}

  00026	c3		 ret	 0
??$copy_s@U?$char_traits@_W@std@@@_Traits_helper@std@@YAPA_WPA_WIPB_WI@Z ENDP ; std::_Traits_helper::copy_s<std::char_traits<wchar_t> >
_TEXT	ENDS
PUBLIC	??$move_s@U?$char_traits@D@std@@@_Traits_helper@std@@YAPADPADIPBDI@Z ; std::_Traits_helper::move_s<std::char_traits<char> >
; Function compile flags: /Ogtpy
;	COMDAT ??$move_s@U?$char_traits@D@std@@@_Traits_helper@std@@YAPADPADIPBDI@Z
_TEXT	SEGMENT
__First1$ = 8						; size = 4
__Size$ = 12						; size = 4
__First2$ = 16						; size = 4
__Count$ = 20						; size = 4
??$move_s@U?$char_traits@D@std@@@_Traits_helper@std@@YAPADPADIPBDI@Z PROC ; std::_Traits_helper::move_s<std::char_traits<char> >, COMDAT

; 616  : 		return move_s<_Traits>(_First1, _Size, _First2, _Count, _Char_traits_cat<_Traits>());

  00000	8b 44 24 10	 mov	 eax, DWORD PTR __Count$[esp-4]
  00004	8b 4c 24 0c	 mov	 ecx, DWORD PTR __First2$[esp-4]
  00008	8b 54 24 08	 mov	 edx, DWORD PTR __Size$[esp-4]
  0000c	56		 push	 esi
  0000d	8b 74 24 08	 mov	 esi, DWORD PTR __First1$[esp]
  00011	50		 push	 eax
  00012	51		 push	 ecx
  00013	52		 push	 edx
  00014	56		 push	 esi
  00015	e8 00 00 00 00	 call	 _memmove_s
  0001a	83 c4 10	 add	 esp, 16			; 00000010H
  0001d	8b c6		 mov	 eax, esi
  0001f	5e		 pop	 esi

; 617  : 	}

  00020	c3		 ret	 0
??$move_s@U?$char_traits@D@std@@@_Traits_helper@std@@YAPADPADIPBDI@Z ENDP ; std::_Traits_helper::move_s<std::char_traits<char> >
_TEXT	ENDS
PUBLIC	??$move_s@U?$char_traits@_W@std@@@_Traits_helper@std@@YAPA_WPA_WIPB_WI@Z ; std::_Traits_helper::move_s<std::char_traits<wchar_t> >
; Function compile flags: /Ogtpy
;	COMDAT ??$move_s@U?$char_traits@_W@std@@@_Traits_helper@std@@YAPA_WPA_WIPB_WI@Z
_TEXT	SEGMENT
__First1$ = 8						; size = 4
__Size$ = 12						; size = 4
__First2$ = 16						; size = 4
__Count$ = 20						; size = 4
??$move_s@U?$char_traits@_W@std@@@_Traits_helper@std@@YAPA_WPA_WIPB_WI@Z PROC ; std::_Traits_helper::move_s<std::char_traits<wchar_t> >, COMDAT

; 616  : 		return move_s<_Traits>(_First1, _Size, _First2, _Count, _Char_traits_cat<_Traits>());

  00000	8b 44 24 10	 mov	 eax, DWORD PTR __Count$[esp-4]
  00004	8b 54 24 0c	 mov	 edx, DWORD PTR __First2$[esp-4]
  00008	56		 push	 esi
  00009	8b 74 24 08	 mov	 esi, DWORD PTR __First1$[esp]
  0000d	8d 0c 00	 lea	 ecx, DWORD PTR [eax+eax]
  00010	8b 44 24 0c	 mov	 eax, DWORD PTR __Size$[esp]
  00014	51		 push	 ecx
  00015	52		 push	 edx
  00016	8d 0c 00	 lea	 ecx, DWORD PTR [eax+eax]
  00019	51		 push	 ecx
  0001a	56		 push	 esi
  0001b	e8 00 00 00 00	 call	 _memmove_s
  00020	83 c4 10	 add	 esp, 16			; 00000010H
  00023	8b c6		 mov	 eax, esi
  00025	5e		 pop	 esi

; 617  : 	}

  00026	c3		 ret	 0
??$move_s@U?$char_traits@_W@std@@@_Traits_helper@std@@YAPA_WPA_WIPB_WI@Z ENDP ; std::_Traits_helper::move_s<std::char_traits<wchar_t> >
_TEXT	ENDS
PUBLIC	??0?$_String_const_iterator@DU?$char_traits@D@std@@V?$allocator@D@2@@std@@QAE@PBDPBV_Container_base_secure@1@@Z ; std::_String_const_iterator<char,std::char_traits<char>,std::allocator<char> >::_String_const_iterator<char,std::char_traits<char>,std::allocator<char> >
; Function compile flags: /Ogtpy
; File c:\program files (x86)\microsoft visual studio 9.0\vc\include\xstring
;	COMDAT ??0?$_String_const_iterator@DU?$char_traits@D@std@@V?$allocator@D@2@@std@@QAE@PBDPBV_Container_base_secure@1@@Z
_TEXT	SEGMENT
__Ptr$ = 8						; size = 4
__Pstring$ = 12						; size = 4
??0?$_String_const_iterator@DU?$char_traits@D@std@@V?$allocator@D@2@@std@@QAE@PBDPBV_Container_base_secure@1@@Z PROC ; std::_String_const_iterator<char,std::char_traits<char>,std::allocator<char> >::_String_const_iterator<char,std::char_traits<char>,std::allocator<char> >, COMDAT
; _this$ = ecx

; 83   : 		__CLR_OR_THIS_CALL _String_const_iterator(pointer _Ptr, const _Container_base_secure *_Pstring)

  00000	53		 push	 ebx

; 84   : 			{	// construct with pointer _Ptr
; 85   : 			_SCL_SECURE_VALIDATE(

  00001	8b 5c 24 08	 mov	 ebx, DWORD PTR __Ptr$[esp]
  00005	56		 push	 esi
  00006	8b 74 24 10	 mov	 esi, DWORD PTR __Pstring$[esp+4]
  0000a	57		 push	 edi
  0000b	8b f9		 mov	 edi, ecx
  0000d	c7 07 00 00 00
	00		 mov	 DWORD PTR [edi], 0
  00013	85 f6		 test	 esi, esi
  00015	74 29		 je	 SHORT $LN4@String_con
  00017	85 db		 test	 ebx, ebx
  00019	74 25		 je	 SHORT $LN4@String_con
  0001b	8b 56 18	 mov	 edx, DWORD PTR [esi+24]
  0001e	8d 46 04	 lea	 eax, DWORD PTR [esi+4]
  00021	83 fa 10	 cmp	 edx, 16			; 00000010H
  00024	72 04		 jb	 SHORT $LN14@String_con
  00026	8b 08		 mov	 ecx, DWORD PTR [eax]
  00028	eb 02		 jmp	 SHORT $LN15@String_con
$LN14@String_con:
  0002a	8b c8		 mov	 ecx, eax
$LN15@String_con:
  0002c	3b cb		 cmp	 ecx, ebx
  0002e	77 10		 ja	 SHORT $LN4@String_con
  00030	83 fa 10	 cmp	 edx, 16			; 00000010H
  00033	72 02		 jb	 SHORT $LN18@String_con
  00035	8b 00		 mov	 eax, DWORD PTR [eax]
$LN18@String_con:
  00037	8b 4e 14	 mov	 ecx, DWORD PTR [esi+20]
  0003a	03 c8		 add	 ecx, eax
  0003c	3b d9		 cmp	 ebx, ecx
  0003e	76 05		 jbe	 SHORT $LN3@String_con
$LN4@String_con:

; 86   : 				_Pstring != NULL && 
; 87   : 				_Ptr != NULL && 
; 88   : 				((_Mystring *)_Pstring)->_Myptr() <= _Ptr && _Ptr <= (((_Mystring *)_Pstring)->_Myptr() + ((_Mystring *)_Pstring)->_Mysize));

  00040	e8 00 00 00 00	 call	 __invalid_parameter_noinfo
$LN3@String_con:

; 89   : 			this->_Mycont = _Pstring;

  00045	89 37		 mov	 DWORD PTR [edi], esi

; 90   : 			_Myptr = _Ptr;

  00047	89 5f 04	 mov	 DWORD PTR [edi+4], ebx

; 91   : 			}

  0004a	8b c7		 mov	 eax, edi
  0004c	5f		 pop	 edi
  0004d	5e		 pop	 esi
  0004e	5b		 pop	 ebx
  0004f	c2 08 00	 ret	 8
??0?$_String_const_iterator@DU?$char_traits@D@std@@V?$allocator@D@2@@std@@QAE@PBDPBV_Container_base_secure@1@@Z ENDP ; std::_String_const_iterator<char,std::char_traits<char>,std::allocator<char> >::_String_const_iterator<char,std::char_traits<char>,std::allocator<char> >
_TEXT	ENDS
PUBLIC	?_Tidy@?$basic_string@DU?$char_traits@D@std@@V?$allocator@D@2@@std@@IAEX_NI@Z ; std::basic_string<char,std::char_traits<char>,std::allocator<char> >::_Tidy
; Function compile flags: /Ogtpy
;	COMDAT ?_Tidy@?$basic_string@DU?$char_traits@D@std@@V?$allocator@D@2@@std@@IAEX_NI@Z
_TEXT	SEGMENT
__Built$ = 8						; size = 1
__Newsize$ = 12						; size = 4
?_Tidy@?$basic_string@DU?$char_traits@D@std@@V?$allocator@D@2@@std@@IAEX_NI@Z PROC ; std::basic_string<char,std::char_traits<char>,std::allocator<char> >::_Tidy, COMDAT
; _this$ = ecx

; 2149 : 		if (!_Built)

  00000	80 7c 24 04 00	 cmp	 BYTE PTR __Built$[esp-4], 0
  00005	56		 push	 esi
  00006	57		 push	 edi
  00007	8b 7c 24 10	 mov	 edi, DWORD PTR __Newsize$[esp+4]
  0000b	8b f1		 mov	 esi, ecx
  0000d	74 27		 je	 SHORT $LN15@Tidy

; 2150 : 			;
; 2151 : 		else if (_BUF_SIZE <= _Myres)

  0000f	83 7e 18 10	 cmp	 DWORD PTR [esi+24], 16	; 00000010H
  00013	72 21		 jb	 SHORT $LN15@Tidy

; 2152 : 			{	// copy any leftovers to small buffer and deallocate
; 2153 : 			_Elem *_Ptr = _Bx._Ptr;

  00015	8d 46 04	 lea	 eax, DWORD PTR [esi+4]
  00018	53		 push	 ebx
  00019	8b 18		 mov	 ebx, DWORD PTR [eax]

; 2154 : 			if (0 < _Newsize)

  0001b	85 ff		 test	 edi, edi
  0001d	76 0d		 jbe	 SHORT $LN13@Tidy

; 2155 : 				_Traits_helper::copy_s<_Traits>(_Bx._Buf, _BUF_SIZE, _Ptr, _Newsize);

  0001f	57		 push	 edi
  00020	53		 push	 ebx
  00021	6a 10		 push	 16			; 00000010H
  00023	50		 push	 eax
  00024	e8 00 00 00 00	 call	 _memcpy_s
  00029	83 c4 10	 add	 esp, 16			; 00000010H
$LN13@Tidy:

; 2156 : 			_Mybase::_Alval.deallocate(_Ptr, _Myres + 1);

  0002c	53		 push	 ebx
  0002d	e8 00 00 00 00	 call	 ??3@YAXPAX@Z		; operator delete
  00032	83 c4 04	 add	 esp, 4
  00035	5b		 pop	 ebx
$LN15@Tidy:

; 2157 : 			}
; 2158 : 		_Myres = _BUF_SIZE - 1;
; 2159 : 		_Eos(_Newsize);

  00036	89 7e 14	 mov	 DWORD PTR [esi+20], edi
  00039	c7 46 18 0f 00
	00 00		 mov	 DWORD PTR [esi+24], 15	; 0000000fH
  00040	c6 44 3e 04 00	 mov	 BYTE PTR [esi+edi+4], 0
  00045	5f		 pop	 edi
  00046	5e		 pop	 esi

; 2160 : 		}

  00047	c2 08 00	 ret	 8
?_Tidy@?$basic_string@DU?$char_traits@D@std@@V?$allocator@D@2@@std@@IAEX_NI@Z ENDP ; std::basic_string<char,std::char_traits<char>,std::allocator<char> >::_Tidy
_TEXT	ENDS
PUBLIC	?_Tidy@?$basic_string@_WU?$char_traits@_W@std@@V?$allocator@_W@2@@std@@IAEX_NI@Z ; std::basic_string<wchar_t,std::char_traits<wchar_t>,std::allocator<wchar_t> >::_Tidy
; Function compile flags: /Ogtpy
;	COMDAT ?_Tidy@?$basic_string@_WU?$char_traits@_W@std@@V?$allocator@_W@2@@std@@IAEX_NI@Z
_TEXT	SEGMENT
__Built$ = 8						; size = 1
__Newsize$ = 12						; size = 4
?_Tidy@?$basic_string@_WU?$char_traits@_W@std@@V?$allocator@_W@2@@std@@IAEX_NI@Z PROC ; std::basic_string<wchar_t,std::char_traits<wchar_t>,std::allocator<wchar_t> >::_Tidy, COMDAT
; _this$ = ecx

; 2149 : 		if (!_Built)

  00000	80 7c 24 04 00	 cmp	 BYTE PTR __Built$[esp-4], 0
  00005	56		 push	 esi
  00006	57		 push	 edi
  00007	8b 7c 24 10	 mov	 edi, DWORD PTR __Newsize$[esp+4]
  0000b	8b f1		 mov	 esi, ecx
  0000d	74 2a		 je	 SHORT $LN17@Tidy@2

; 2150 : 			;
; 2151 : 		else if (_BUF_SIZE <= _Myres)

  0000f	83 7e 18 08	 cmp	 DWORD PTR [esi+24], 8
  00013	72 24		 jb	 SHORT $LN17@Tidy@2

; 2152 : 			{	// copy any leftovers to small buffer and deallocate
; 2153 : 			_Elem *_Ptr = _Bx._Ptr;

  00015	8d 46 04	 lea	 eax, DWORD PTR [esi+4]
  00018	53		 push	 ebx
  00019	8b 18		 mov	 ebx, DWORD PTR [eax]

; 2154 : 			if (0 < _Newsize)

  0001b	85 ff		 test	 edi, edi
  0001d	76 10		 jbe	 SHORT $LN15@Tidy@2

; 2155 : 				_Traits_helper::copy_s<_Traits>(_Bx._Buf, _BUF_SIZE, _Ptr, _Newsize);

  0001f	8d 0c 3f	 lea	 ecx, DWORD PTR [edi+edi]
  00022	51		 push	 ecx
  00023	53		 push	 ebx
  00024	6a 10		 push	 16			; 00000010H
  00026	50		 push	 eax
  00027	e8 00 00 00 00	 call	 _memcpy_s
  0002c	83 c4 10	 add	 esp, 16			; 00000010H
$LN15@Tidy@2:

; 2156 : 			_Mybase::_Alval.deallocate(_Ptr, _Myres + 1);

  0002f	53		 push	 ebx
  00030	e8 00 00 00 00	 call	 ??3@YAXPAX@Z		; operator delete
  00035	83 c4 04	 add	 esp, 4
  00038	5b		 pop	 ebx
$LN17@Tidy@2:

; 2157 : 			}
; 2158 : 		_Myres = _BUF_SIZE - 1;
; 2159 : 		_Eos(_Newsize);

  00039	89 7e 14	 mov	 DWORD PTR [esi+20], edi
  0003c	c7 46 18 07 00
	00 00		 mov	 DWORD PTR [esi+24], 7
  00043	33 d2		 xor	 edx, edx
  00045	66 89 54 7e 04	 mov	 WORD PTR [esi+edi*2+4], dx
  0004a	5f		 pop	 edi
  0004b	5e		 pop	 esi

; 2160 : 		}

  0004c	c2 08 00	 ret	 8
?_Tidy@?$basic_string@_WU?$char_traits@_W@std@@V?$allocator@_W@2@@std@@IAEX_NI@Z ENDP ; std::basic_string<wchar_t,std::char_traits<wchar_t>,std::allocator<wchar_t> >::_Tidy
_TEXT	ENDS
PUBLIC	?erase@?$basic_string@DU?$char_traits@D@std@@V?$allocator@D@2@@std@@QAEAAV12@II@Z ; std::basic_string<char,std::char_traits<char>,std::allocator<char> >::erase
EXTRN	?_Xran@_String_base@std@@SAXXZ:PROC		; std::_String_base::_Xran
; Function compile flags: /Ogtpy
;	COMDAT ?erase@?$basic_string@DU?$char_traits@D@std@@V?$allocator@D@2@@std@@QAEAAV12@II@Z
_TEXT	SEGMENT
tv130 = 8						; size = 4
__Off$ = 8						; size = 4
__Count$ = 12						; size = 4
?erase@?$basic_string@DU?$char_traits@D@std@@V?$allocator@D@2@@std@@QAEAAV12@II@Z PROC ; std::basic_string<char,std::char_traits<char>,std::allocator<char> >::erase, COMDAT
; _this$ = ecx

; 1262 : 		{	// erase elements [_Off, _Off + _Count)

  00000	53		 push	 ebx

; 1263 : 		if (_Mysize < _Off)

  00001	8b 5c 24 08	 mov	 ebx, DWORD PTR __Off$[esp]
  00005	56		 push	 esi
  00006	8b f1		 mov	 esi, ecx
  00008	57		 push	 edi
  00009	39 5e 14	 cmp	 DWORD PTR [esi+20], ebx
  0000c	73 05		 jae	 SHORT $LN3@erase

; 1264 : 			_String_base::_Xran();	// _Off off end

  0000e	e8 00 00 00 00	 call	 ?_Xran@_String_base@std@@SAXXZ ; std::_String_base::_Xran
$LN3@erase:

; 1265 : 		if (_Mysize - _Off < _Count)

  00013	8b 46 14	 mov	 eax, DWORD PTR [esi+20]
  00016	8b 7c 24 14	 mov	 edi, DWORD PTR __Count$[esp+8]
  0001a	2b c3		 sub	 eax, ebx
  0001c	3b c7		 cmp	 eax, edi
  0001e	73 02		 jae	 SHORT $LN2@erase

; 1266 : 			_Count = _Mysize - _Off;	// trim _Count

  00020	8b f8		 mov	 edi, eax
$LN2@erase:

; 1267 : 		if (0 < _Count)

  00022	85 ff		 test	 edi, edi
  00024	76 55		 jbe	 SHORT $LN30@erase

; 1268 : 			{	// move elements down
; 1269 : 			_Traits_helper::move_s<_Traits>(_Myptr() + _Off, _Myres - _Off, _Myptr() + _Off + _Count,
; 1270 : 				_Mysize - _Off - _Count);

  00026	8b 4e 18	 mov	 ecx, DWORD PTR [esi+24]
  00029	55		 push	 ebp
  0002a	8d 6e 04	 lea	 ebp, DWORD PTR [esi+4]
  0002d	83 f9 10	 cmp	 ecx, 16			; 00000010H
  00030	72 09		 jb	 SHORT $LN8@erase
  00032	8b 55 00	 mov	 edx, DWORD PTR [ebp]
  00035	89 54 24 14	 mov	 DWORD PTR tv130[esp+12], edx
  00039	eb 04		 jmp	 SHORT $LN9@erase
$LN8@erase:
  0003b	89 6c 24 14	 mov	 DWORD PTR tv130[esp+12], ebp
$LN9@erase:
  0003f	83 f9 10	 cmp	 ecx, 16			; 00000010H
  00042	72 05		 jb	 SHORT $LN12@erase
  00044	8b 55 00	 mov	 edx, DWORD PTR [ebp]
  00047	eb 02		 jmp	 SHORT $LN13@erase
$LN12@erase:
  00049	8b d5		 mov	 edx, ebp
$LN13@erase:
  0004b	2b c7		 sub	 eax, edi
  0004d	50		 push	 eax
  0004e	8b 44 24 18	 mov	 eax, DWORD PTR tv130[esp+16]
  00052	03 c3		 add	 eax, ebx
  00054	03 c7		 add	 eax, edi
  00056	50		 push	 eax
  00057	2b cb		 sub	 ecx, ebx
  00059	51		 push	 ecx
  0005a	03 d3		 add	 edx, ebx
  0005c	52		 push	 edx
  0005d	e8 00 00 00 00	 call	 _memmove_s

; 1271 : 			size_type _Newsize = _Mysize - _Count;

  00062	8b 46 14	 mov	 eax, DWORD PTR [esi+20]
  00065	2b c7		 sub	 eax, edi
  00067	83 c4 10	 add	 esp, 16			; 00000010H

; 1272 : 			_Eos(_Newsize);

  0006a	83 7e 18 10	 cmp	 DWORD PTR [esi+24], 16	; 00000010H
  0006e	89 46 14	 mov	 DWORD PTR [esi+20], eax
  00071	72 03		 jb	 SHORT $LN26@erase
  00073	8b 6d 00	 mov	 ebp, DWORD PTR [ebp]
$LN26@erase:
  00076	c6 04 28 00	 mov	 BYTE PTR [eax+ebp], 0
  0007a	5d		 pop	 ebp
$LN30@erase:
  0007b	5f		 pop	 edi

; 1273 : 			}
; 1274 : 		return (*this);

  0007c	8b c6		 mov	 eax, esi
  0007e	5e		 pop	 esi
  0007f	5b		 pop	 ebx

; 1275 : 		}

  00080	c2 08 00	 ret	 8
?erase@?$basic_string@DU?$char_traits@D@std@@V?$allocator@D@2@@std@@QAEAAV12@II@Z ENDP ; std::basic_string<char,std::char_traits<char>,std::allocator<char> >::erase
_TEXT	ENDS
PUBLIC	?erase@?$basic_string@_WU?$char_traits@_W@std@@V?$allocator@_W@2@@std@@QAEAAV12@II@Z ; std::basic_string<wchar_t,std::char_traits<wchar_t>,std::allocator<wchar_t> >::erase
; Function compile flags: /Ogtpy
;	COMDAT ?erase@?$basic_string@_WU?$char_traits@_W@std@@V?$allocator@_W@2@@std@@QAEAAV12@II@Z
_TEXT	SEGMENT
tv133 = 8						; size = 4
__Off$ = 8						; size = 4
tv139 = 12						; size = 4
__Count$ = 12						; size = 4
?erase@?$basic_string@_WU?$char_traits@_W@std@@V?$allocator@_W@2@@std@@QAEAAV12@II@Z PROC ; std::basic_string<wchar_t,std::char_traits<wchar_t>,std::allocator<wchar_t> >::erase, COMDAT
; _this$ = ecx

; 1262 : 		{	// erase elements [_Off, _Off + _Count)

  00000	53		 push	 ebx

; 1263 : 		if (_Mysize < _Off)

  00001	8b 5c 24 08	 mov	 ebx, DWORD PTR __Off$[esp]
  00005	56		 push	 esi
  00006	8b f1		 mov	 esi, ecx
  00008	57		 push	 edi
  00009	39 5e 14	 cmp	 DWORD PTR [esi+20], ebx
  0000c	73 05		 jae	 SHORT $LN3@erase@2

; 1264 : 			_String_base::_Xran();	// _Off off end

  0000e	e8 00 00 00 00	 call	 ?_Xran@_String_base@std@@SAXXZ ; std::_String_base::_Xran
$LN3@erase@2:

; 1265 : 		if (_Mysize - _Off < _Count)

  00013	8b 46 14	 mov	 eax, DWORD PTR [esi+20]
  00016	8b 7c 24 14	 mov	 edi, DWORD PTR __Count$[esp+8]
  0001a	2b c3		 sub	 eax, ebx
  0001c	3b c7		 cmp	 eax, edi
  0001e	73 02		 jae	 SHORT $LN2@erase@2

; 1266 : 			_Count = _Mysize - _Off;	// trim _Count

  00020	8b f8		 mov	 edi, eax
$LN2@erase@2:

; 1267 : 		if (0 < _Count)

  00022	85 ff		 test	 edi, edi
  00024	76 69		 jbe	 SHORT $LN32@erase@2

; 1268 : 			{	// move elements down
; 1269 : 			_Traits_helper::move_s<_Traits>(_Myptr() + _Off, _Myres - _Off, _Myptr() + _Off + _Count,
; 1270 : 				_Mysize - _Off - _Count);

  00026	8b 4e 18	 mov	 ecx, DWORD PTR [esi+24]
  00029	55		 push	 ebp
  0002a	8d 6e 04	 lea	 ebp, DWORD PTR [esi+4]
  0002d	83 f9 08	 cmp	 ecx, 8
  00030	72 09		 jb	 SHORT $LN8@erase@2
  00032	8b 55 00	 mov	 edx, DWORD PTR [ebp]
  00035	89 54 24 14	 mov	 DWORD PTR tv133[esp+12], edx
  00039	eb 04		 jmp	 SHORT $LN9@erase@2
$LN8@erase@2:
  0003b	89 6c 24 14	 mov	 DWORD PTR tv133[esp+12], ebp
$LN9@erase@2:
  0003f	83 f9 08	 cmp	 ecx, 8
  00042	72 09		 jb	 SHORT $LN12@erase@2
  00044	8b 55 00	 mov	 edx, DWORD PTR [ebp]
  00047	89 54 24 18	 mov	 DWORD PTR tv139[esp+12], edx
  0004b	eb 04		 jmp	 SHORT $LN13@erase@2
$LN12@erase@2:
  0004d	89 6c 24 18	 mov	 DWORD PTR tv139[esp+12], ebp
$LN13@erase@2:
  00051	8b 54 24 14	 mov	 edx, DWORD PTR tv133[esp+12]
  00055	2b c7		 sub	 eax, edi
  00057	03 c0		 add	 eax, eax
  00059	50		 push	 eax
  0005a	8d 04 3b	 lea	 eax, DWORD PTR [ebx+edi]
  0005d	8d 04 42	 lea	 eax, DWORD PTR [edx+eax*2]
  00060	2b cb		 sub	 ecx, ebx
  00062	50		 push	 eax
  00063	03 c9		 add	 ecx, ecx
  00065	51		 push	 ecx
  00066	8b 4c 24 24	 mov	 ecx, DWORD PTR tv139[esp+24]
  0006a	8d 14 59	 lea	 edx, DWORD PTR [ecx+ebx*2]
  0006d	52		 push	 edx
  0006e	e8 00 00 00 00	 call	 _memmove_s

; 1271 : 			size_type _Newsize = _Mysize - _Count;

  00073	8b 46 14	 mov	 eax, DWORD PTR [esi+20]
  00076	2b c7		 sub	 eax, edi
  00078	83 c4 10	 add	 esp, 16			; 00000010H

; 1272 : 			_Eos(_Newsize);

  0007b	83 7e 18 08	 cmp	 DWORD PTR [esi+24], 8
  0007f	89 46 14	 mov	 DWORD PTR [esi+20], eax
  00082	72 03		 jb	 SHORT $LN28@erase@2
  00084	8b 6d 00	 mov	 ebp, DWORD PTR [ebp]
$LN28@erase@2:
  00087	33 c9		 xor	 ecx, ecx
  00089	66 89 4c 45 00	 mov	 WORD PTR [ebp+eax*2], cx
  0008e	5d		 pop	 ebp
$LN32@erase@2:
  0008f	5f		 pop	 edi

; 1273 : 			}
; 1274 : 		return (*this);

  00090	8b c6		 mov	 eax, esi
  00092	5e		 pop	 esi
  00093	5b		 pop	 ebx

; 1275 : 		}

  00094	c2 08 00	 ret	 8
?erase@?$basic_string@_WU?$char_traits@_W@std@@V?$allocator@_W@2@@std@@QAEAAV12@II@Z ENDP ; std::basic_string<wchar_t,std::char_traits<wchar_t>,std::allocator<wchar_t> >::erase
_TEXT	ENDS
PUBLIC	?_Copy@?$basic_string@DU?$char_traits@D@std@@V?$allocator@D@2@@std@@IAEXII@Z ; std::basic_string<char,std::char_traits<char>,std::allocator<char> >::_Copy
EXTRN	___security_cookie:DWORD
EXTRN	___CxxFrameHandler3:PROC
EXTRN	@__security_check_cookie@4:PROC
;	COMDAT xdata$x
; File c:\program files (x86)\microsoft visual studio 9.0\vc\include\iosfwd
xdata$x	SEGMENT
__catchsym$?_Copy@?$basic_string@DU?$char_traits@D@std@@V?$allocator@D@2@@std@@IAEXII@Z$5 DD 040H
	DD	00H
	DD	00H
	DD	FLAT:__catch$?_Copy@?$basic_string@DU?$char_traits@D@std@@V?$allocator@D@2@@std@@IAEXII@Z$0
__catchsym$?_Copy@?$basic_string@DU?$char_traits@D@std@@V?$allocator@D@2@@std@@IAEXII@Z$4 DD 040H
	DD	00H
	DD	00H
	DD	FLAT:__catch$?_Copy@?$basic_string@DU?$char_traits@D@std@@V?$allocator@D@2@@std@@IAEXII@Z$1
__unwindtable$?_Copy@?$basic_string@DU?$char_traits@D@std@@V?$allocator@D@2@@std@@IAEXII@Z DD 0ffffffffH
	DD	00H
	DD	0ffffffffH
	DD	00H
	DD	01H
	DD	00H
	DD	01H
	DD	00H
__ehfuncinfo$?_Copy@?$basic_string@DU?$char_traits@D@std@@V?$allocator@D@2@@std@@IAEXII@Z DD 019930522H
	DD	04H
	DD	FLAT:__unwindtable$?_Copy@?$basic_string@DU?$char_traits@D@std@@V?$allocator@D@2@@std@@IAEXII@Z
	DD	02H
	DD	FLAT:__tryblocktable$?_Copy@?$basic_string@DU?$char_traits@D@std@@V?$allocator@D@2@@std@@IAEXII@Z
	DD	2 DUP(00H)
	DD	00H
	DD	01H
__tryblocktable$?_Copy@?$basic_string@DU?$char_traits@D@std@@V?$allocator@D@2@@std@@IAEXII@Z DD 02H
	DD	02H
	DD	03H
	DD	01H
	DD	FLAT:__catchsym$?_Copy@?$basic_string@DU?$char_traits@D@std@@V?$allocator@D@2@@std@@IAEXII@Z$4
	DD	00H
	DD	00H
	DD	03H
	DD	01H
	DD	FLAT:__catchsym$?_Copy@?$basic_string@DU?$char_traits@D@std@@V?$allocator@D@2@@std@@IAEXII@Z$5
; Function compile flags: /Ogtpy
; File c:\program files (x86)\microsoft visual studio 9.0\vc\include\xstring
xdata$x	ENDS
;	COMDAT ?_Copy@?$basic_string@DU?$char_traits@D@std@@V?$allocator@D@2@@std@@IAEXII@Z
_TEXT	SEGMENT
__Newres$ = -24						; size = 4
_this$ = -20						; size = 4
__$EHRec$ = -16						; size = 16
__Ptr$ = 8						; size = 4
__Newsize$ = 8						; size = 4
__Oldlen$ = 12						; size = 4
?_Copy@?$basic_string@DU?$char_traits@D@std@@V?$allocator@D@2@@std@@IAEXII@Z PROC ; std::basic_string<char,std::char_traits<char>,std::allocator<char> >::_Copy, COMDAT
; _this$ = ecx

; 2083 : 		{	// copy _Oldlen elements to newly allocated buffer

  00000	55		 push	 ebp
  00001	8b ec		 mov	 ebp, esp
  00003	6a ff		 push	 -1
  00005	68 00 00 00 00	 push	 __ehhandler$?_Copy@?$basic_string@DU?$char_traits@D@std@@V?$allocator@D@2@@std@@IAEXII@Z
  0000a	64 a1 00 00 00
	00		 mov	 eax, DWORD PTR fs:0
  00010	50		 push	 eax
  00011	83 ec 0c	 sub	 esp, 12			; 0000000cH
  00014	53		 push	 ebx
  00015	56		 push	 esi
  00016	57		 push	 edi
  00017	a1 00 00 00 00	 mov	 eax, DWORD PTR ___security_cookie
  0001c	33 c5		 xor	 eax, ebp
  0001e	50		 push	 eax
  0001f	8d 45 f4	 lea	 eax, DWORD PTR __$EHRec$[ebp+4]
  00022	64 a3 00 00 00
	00		 mov	 DWORD PTR fs:0, eax
  00028	89 65 f0	 mov	 DWORD PTR __$EHRec$[ebp], esp
  0002b	8b f9		 mov	 edi, ecx
  0002d	89 7d ec	 mov	 DWORD PTR _this$[ebp], edi

; 2084 : 		size_type _Newres = _Newsize | _ALLOC_MASK;

  00030	8b 45 08	 mov	 eax, DWORD PTR __Newsize$[ebp]
  00033	8b f0		 mov	 esi, eax
  00035	83 ce 0f	 or	 esi, 15			; 0000000fH

; 2085 : 		if (max_size() < _Newres)

  00038	83 fe fe	 cmp	 esi, -2			; fffffffeH
  0003b	76 04		 jbe	 SHORT $LN6@Copy

; 2086 : 			_Newres = _Newsize;	// undo roundup if too big

  0003d	8b f0		 mov	 esi, eax

; 2087 : 		else if (_Newres / 3 < _Myres / 2

  0003f	eb 22		 jmp	 SHORT $LN4@Copy
$LN6@Copy:

; 2088 : 			&& _Myres <= max_size() - _Myres / 2)

  00041	8b 5f 18	 mov	 ebx, DWORD PTR [edi+24]
  00044	b8 ab aa aa aa	 mov	 eax, -1431655765	; aaaaaaabH
  00049	f7 e6		 mul	 esi
  0004b	8b cb		 mov	 ecx, ebx
  0004d	d1 e9		 shr	 ecx, 1
  0004f	d1 ea		 shr	 edx, 1
  00051	3b d1		 cmp	 edx, ecx
  00053	73 0e		 jae	 SHORT $LN4@Copy
  00055	b8 fe ff ff ff	 mov	 eax, -2			; fffffffeH
  0005a	2b c1		 sub	 eax, ecx
  0005c	3b d8		 cmp	 ebx, eax
  0005e	77 03		 ja	 SHORT $LN4@Copy

; 2089 : 			_Newres = _Myres + _Myres / 2;	// grow exponentially if possible

  00060	8d 34 19	 lea	 esi, DWORD PTR [ecx+ebx]
$LN4@Copy:

; 2090 : 		_Elem *_Ptr = 0;
; 2091 : 
; 2092 : 		_TRY_BEGIN
; 2093 : 			_Ptr = _Mybase::_Alval.allocate(_Newres + 1);

  00063	8d 4e 01	 lea	 ecx, DWORD PTR [esi+1]
  00066	6a 00		 push	 0
  00068	51		 push	 ecx
  00069	c7 45 fc 00 00
	00 00		 mov	 DWORD PTR __$EHRec$[ebp+12], 0
  00070	e8 00 00 00 00	 call	 ??$_Allocate@D@std@@YAPADIPAD@Z ; std::_Allocate<char>
  00075	83 c4 08	 add	 esp, 8
  00078	89 45 08	 mov	 DWORD PTR __Ptr$[ebp], eax
  0007b	eb 28		 jmp	 SHORT $LN16@Copy
__catch$?_Copy@?$basic_string@DU?$char_traits@D@std@@V?$allocator@D@2@@std@@IAEXII@Z$0:

; 2094 : 		_CATCH_ALL
; 2095 : 			_Newres = _Newsize;	// allocation failed, undo roundup and retry

  0007d	8b 45 08	 mov	 eax, DWORD PTR __Newsize$[ebp]
  00080	89 65 f0	 mov	 DWORD PTR __$EHRec$[ebp], esp
  00083	89 45 e8	 mov	 DWORD PTR __Newres$[ebp], eax

; 2096 : 			_TRY_BEGIN
; 2097 : 				_Ptr = _Mybase::_Alval.allocate(_Newres + 1);

  00086	40		 inc	 eax
  00087	6a 00		 push	 0
  00089	50		 push	 eax
  0008a	c6 45 fc 02	 mov	 BYTE PTR __$EHRec$[ebp+12], 2
  0008e	e8 00 00 00 00	 call	 ??$_Allocate@D@std@@YAPADIPAD@Z ; std::_Allocate<char>
  00093	89 45 08	 mov	 DWORD PTR __Ptr$[ebp], eax
  00096	83 c4 08	 add	 esp, 8

; 2101 : 			_CATCH_END
; 2102 : 		_CATCH_END

  00099	b8 00 00 00 00	 mov	 eax, $LN106@Copy
  0009e	c3		 ret	 0
$LN106@Copy:
  0009f	8b 7d ec	 mov	 edi, DWORD PTR _this$[ebp]
  000a2	8b 75 e8	 mov	 esi, DWORD PTR __Newres$[ebp]
$LN16@Copy:

; 2103 : 
; 2104 : 		if (0 < _Oldlen)

  000a5	8b 5d 0c	 mov	 ebx, DWORD PTR __Oldlen$[ebp]
  000a8	85 db		 test	 ebx, ebx
  000aa	76 20		 jbe	 SHORT $LN71@Copy

; 2105 : 			_Traits_helper::copy_s<_Traits>(_Ptr, _Newres + 1, _Myptr(), _Oldlen);	// copy existing elements

  000ac	83 7f 18 10	 cmp	 DWORD PTR [edi+24], 16	; 00000010H
  000b0	72 05		 jb	 SHORT $LN63@Copy
  000b2	8b 47 04	 mov	 eax, DWORD PTR [edi+4]
  000b5	eb 03		 jmp	 SHORT $LN64@Copy
$LN63@Copy:
  000b7	8d 47 04	 lea	 eax, DWORD PTR [edi+4]
$LN64@Copy:
  000ba	53		 push	 ebx
  000bb	50		 push	 eax
  000bc	8b 45 08	 mov	 eax, DWORD PTR __Ptr$[ebp]
  000bf	8d 56 01	 lea	 edx, DWORD PTR [esi+1]
  000c2	52		 push	 edx
  000c3	50		 push	 eax
  000c4	e8 00 00 00 00	 call	 _memcpy_s
  000c9	83 c4 10	 add	 esp, 16			; 00000010H
$LN71@Copy:

; 2106 : 		_Tidy(true);

  000cc	83 7f 18 10	 cmp	 DWORD PTR [edi+24], 16	; 00000010H
  000d0	72 0c		 jb	 SHORT $LN87@Copy
  000d2	8b 4f 04	 mov	 ecx, DWORD PTR [edi+4]
  000d5	51		 push	 ecx
  000d6	e8 00 00 00 00	 call	 ??3@YAXPAX@Z		; operator delete
  000db	83 c4 04	 add	 esp, 4
$LN87@Copy:

; 2107 : 		_Bx._Ptr = _Ptr;

  000de	8b 4d 08	 mov	 ecx, DWORD PTR __Ptr$[ebp]
  000e1	8d 47 04	 lea	 eax, DWORD PTR [edi+4]
  000e4	c6 00 00	 mov	 BYTE PTR [eax], 0
  000e7	89 08		 mov	 DWORD PTR [eax], ecx

; 2108 : 		_Myres = _Newres;

  000e9	89 77 18	 mov	 DWORD PTR [edi+24], esi

; 2109 : 		_Eos(_Oldlen);

  000ec	89 5f 14	 mov	 DWORD PTR [edi+20], ebx
  000ef	83 fe 10	 cmp	 esi, 16			; 00000010H
  000f2	72 02		 jb	 SHORT $LN101@Copy
  000f4	8b c1		 mov	 eax, ecx
$LN101@Copy:
  000f6	c6 04 18 00	 mov	 BYTE PTR [eax+ebx], 0

; 2110 : 		}

  000fa	8b 4d f4	 mov	 ecx, DWORD PTR __$EHRec$[ebp+4]
  000fd	64 89 0d 00 00
	00 00		 mov	 DWORD PTR fs:0, ecx
  00104	59		 pop	 ecx
  00105	5f		 pop	 edi
  00106	5e		 pop	 esi
  00107	5b		 pop	 ebx
  00108	8b e5		 mov	 esp, ebp
  0010a	5d		 pop	 ebp
  0010b	c2 08 00	 ret	 8
__catch$?_Copy@?$basic_string@DU?$char_traits@D@std@@V?$allocator@D@2@@std@@IAEXII@Z$1:

; 2098 : 			_CATCH_ALL
; 2099 : 			_Tidy(true);	// failed again, discard storage and reraise

  0010e	8b 75 ec	 mov	 esi, DWORD PTR _this$[ebp]
  00111	83 7e 18 10	 cmp	 DWORD PTR [esi+24], 16	; 00000010H
  00115	72 0c		 jb	 SHORT $LN51@Copy
  00117	8b 56 04	 mov	 edx, DWORD PTR [esi+4]
  0011a	52		 push	 edx
  0011b	e8 00 00 00 00	 call	 ??3@YAXPAX@Z		; operator delete
  00120	83 c4 04	 add	 esp, 4
$LN51@Copy:

; 2100 : 			_RERAISE;

  00123	6a 00		 push	 0
  00125	c7 46 18 0f 00
	00 00		 mov	 DWORD PTR [esi+24], 15	; 0000000fH
  0012c	c7 46 14 00 00
	00 00		 mov	 DWORD PTR [esi+20], 0
  00133	6a 00		 push	 0
  00135	c6 46 04 00	 mov	 BYTE PTR [esi+4], 0
  00139	e8 00 00 00 00	 call	 __CxxThrowException@8
$LN109@Copy:
  0013e	cc		 int	 3
_TEXT	ENDS
;	COMDAT text$x
text$x	SEGMENT
__ehhandler$?_Copy@?$basic_string@DU?$char_traits@D@std@@V?$allocator@D@2@@std@@IAEXII@Z:
  00000	8b 54 24 08	 mov	 edx, DWORD PTR [esp+8]
  00004	8d 42 0c	 lea	 eax, DWORD PTR [edx+12]
  00007	8b 4a e4	 mov	 ecx, DWORD PTR [edx-28]
  0000a	33 c8		 xor	 ecx, eax
  0000c	e8 00 00 00 00	 call	 @__security_check_cookie@4
  00011	b8 00 00 00 00	 mov	 eax, OFFSET __ehfuncinfo$?_Copy@?$basic_string@DU?$char_traits@D@std@@V?$allocator@D@2@@std@@IAEXII@Z
  00016	e9 00 00 00 00	 jmp	 ___CxxFrameHandler3
text$x	ENDS
?_Copy@?$basic_string@DU?$char_traits@D@std@@V?$allocator@D@2@@std@@IAEXII@Z ENDP ; std::basic_string<char,std::char_traits<char>,std::allocator<char> >::_Copy
PUBLIC	?_Copy@?$basic_string@_WU?$char_traits@_W@std@@V?$allocator@_W@2@@std@@IAEXII@Z ; std::basic_string<wchar_t,std::char_traits<wchar_t>,std::allocator<wchar_t> >::_Copy
;	COMDAT xdata$x
; File c:\program files (x86)\microsoft visual studio 9.0\vc\include\iosfwd
xdata$x	SEGMENT
__catchsym$?_Copy@?$basic_string@_WU?$char_traits@_W@std@@V?$allocator@_W@2@@std@@IAEXII@Z$5 DD 040H
	DD	00H
	DD	00H
	DD	FLAT:__catch$?_Copy@?$basic_string@_WU?$char_traits@_W@std@@V?$allocator@_W@2@@std@@IAEXII@Z$0
__catchsym$?_Copy@?$basic_string@_WU?$char_traits@_W@std@@V?$allocator@_W@2@@std@@IAEXII@Z$4 DD 040H
	DD	00H
	DD	00H
	DD	FLAT:__catch$?_Copy@?$basic_string@_WU?$char_traits@_W@std@@V?$allocator@_W@2@@std@@IAEXII@Z$1
__unwindtable$?_Copy@?$basic_string@_WU?$char_traits@_W@std@@V?$allocator@_W@2@@std@@IAEXII@Z DD 0ffffffffH
	DD	00H
	DD	0ffffffffH
	DD	00H
	DD	01H
	DD	00H
	DD	01H
	DD	00H
__ehfuncinfo$?_Copy@?$basic_string@_WU?$char_traits@_W@std@@V?$allocator@_W@2@@std@@IAEXII@Z DD 019930522H
	DD	04H
	DD	FLAT:__unwindtable$?_Copy@?$basic_string@_WU?$char_traits@_W@std@@V?$allocator@_W@2@@std@@IAEXII@Z
	DD	02H
	DD	FLAT:__tryblocktable$?_Copy@?$basic_string@_WU?$char_traits@_W@std@@V?$allocator@_W@2@@std@@IAEXII@Z
	DD	2 DUP(00H)
	DD	00H
	DD	01H
__tryblocktable$?_Copy@?$basic_string@_WU?$char_traits@_W@std@@V?$allocator@_W@2@@std@@IAEXII@Z DD 02H
	DD	02H
	DD	03H
	DD	01H
	DD	FLAT:__catchsym$?_Copy@?$basic_string@_WU?$char_traits@_W@std@@V?$allocator@_W@2@@std@@IAEXII@Z$4
	DD	00H
	DD	00H
	DD	03H
	DD	01H
	DD	FLAT:__catchsym$?_Copy@?$basic_string@_WU?$char_traits@_W@std@@V?$allocator@_W@2@@std@@IAEXII@Z$5
; Function compile flags: /Ogtpy
; File c:\program files (x86)\microsoft visual studio 9.0\vc\include\xstring
xdata$x	ENDS
;	COMDAT ?_Copy@?$basic_string@_WU?$char_traits@_W@std@@V?$allocator@_W@2@@std@@IAEXII@Z
_TEXT	SEGMENT
__Ptr$ = -24						; size = 4
_this$ = -20						; size = 4
__$EHRec$ = -16						; size = 16
__Newres$ = 8						; size = 4
__Newsize$ = 8						; size = 4
__Oldlen$ = 12						; size = 4
?_Copy@?$basic_string@_WU?$char_traits@_W@std@@V?$allocator@_W@2@@std@@IAEXII@Z PROC ; std::basic_string<wchar_t,std::char_traits<wchar_t>,std::allocator<wchar_t> >::_Copy, COMDAT
; _this$ = ecx

; 2083 : 		{	// copy _Oldlen elements to newly allocated buffer

  00000	55		 push	 ebp
  00001	8b ec		 mov	 ebp, esp
  00003	6a ff		 push	 -1
  00005	68 00 00 00 00	 push	 __ehhandler$?_Copy@?$basic_string@_WU?$char_traits@_W@std@@V?$allocator@_W@2@@std@@IAEXII@Z
  0000a	64 a1 00 00 00
	00		 mov	 eax, DWORD PTR fs:0
  00010	50		 push	 eax
  00011	83 ec 0c	 sub	 esp, 12			; 0000000cH
  00014	53		 push	 ebx
  00015	56		 push	 esi
  00016	57		 push	 edi
  00017	a1 00 00 00 00	 mov	 eax, DWORD PTR ___security_cookie
  0001c	33 c5		 xor	 eax, ebp
  0001e	50		 push	 eax
  0001f	8d 45 f4	 lea	 eax, DWORD PTR __$EHRec$[ebp+4]
  00022	64 a3 00 00 00
	00		 mov	 DWORD PTR fs:0, eax
  00028	89 65 f0	 mov	 DWORD PTR __$EHRec$[ebp], esp
  0002b	8b f9		 mov	 edi, ecx
  0002d	89 7d ec	 mov	 DWORD PTR _this$[ebp], edi

; 2084 : 		size_type _Newres = _Newsize | _ALLOC_MASK;

  00030	8b 45 08	 mov	 eax, DWORD PTR __Newsize$[ebp]
  00033	8b f0		 mov	 esi, eax
  00035	83 ce 07	 or	 esi, 7

; 2085 : 		if (max_size() < _Newres)

  00038	81 fe fe ff ff
	7f		 cmp	 esi, 2147483646		; 7ffffffeH
  0003e	76 04		 jbe	 SHORT $LN6@Copy@2

; 2086 : 			_Newres = _Newsize;	// undo roundup if too big

  00040	8b f0		 mov	 esi, eax

; 2087 : 		else if (_Newres / 3 < _Myres / 2

  00042	eb 22		 jmp	 SHORT $LN4@Copy@2
$LN6@Copy@2:

; 2088 : 			&& _Myres <= max_size() - _Myres / 2)

  00044	8b 5f 18	 mov	 ebx, DWORD PTR [edi+24]
  00047	b8 ab aa aa aa	 mov	 eax, -1431655765	; aaaaaaabH
  0004c	f7 e6		 mul	 esi
  0004e	8b cb		 mov	 ecx, ebx
  00050	d1 e9		 shr	 ecx, 1
  00052	d1 ea		 shr	 edx, 1
  00054	3b d1		 cmp	 edx, ecx
  00056	73 0e		 jae	 SHORT $LN4@Copy@2
  00058	b8 fe ff ff 7f	 mov	 eax, 2147483646		; 7ffffffeH
  0005d	2b c1		 sub	 eax, ecx
  0005f	3b d8		 cmp	 ebx, eax
  00061	77 03		 ja	 SHORT $LN4@Copy@2

; 2089 : 			_Newres = _Myres + _Myres / 2;	// grow exponentially if possible

  00063	8d 34 19	 lea	 esi, DWORD PTR [ecx+ebx]
$LN4@Copy@2:

; 2090 : 		_Elem *_Ptr = 0;
; 2091 : 
; 2092 : 		_TRY_BEGIN
; 2093 : 			_Ptr = _Mybase::_Alval.allocate(_Newres + 1);

  00066	8d 4e 01	 lea	 ecx, DWORD PTR [esi+1]
  00069	6a 00		 push	 0
  0006b	51		 push	 ecx
  0006c	c7 45 fc 00 00
	00 00		 mov	 DWORD PTR __$EHRec$[ebp+12], 0
  00073	e8 00 00 00 00	 call	 ??$_Allocate@_W@std@@YAPA_WIPA_W@Z ; std::_Allocate<wchar_t>
  00078	83 c4 08	 add	 esp, 8
  0007b	8b d8		 mov	 ebx, eax
  0007d	eb 2b		 jmp	 SHORT $LN16@Copy@2
__catch$?_Copy@?$basic_string@_WU?$char_traits@_W@std@@V?$allocator@_W@2@@std@@IAEXII@Z$0:

; 2094 : 		_CATCH_ALL
; 2095 : 			_Newres = _Newsize;	// allocation failed, undo roundup and retry

  0007f	8b 45 08	 mov	 eax, DWORD PTR __Newsize$[ebp]
  00082	89 65 f0	 mov	 DWORD PTR __$EHRec$[ebp], esp
  00085	89 45 08	 mov	 DWORD PTR __Newres$[ebp], eax

; 2096 : 			_TRY_BEGIN
; 2097 : 				_Ptr = _Mybase::_Alval.allocate(_Newres + 1);

  00088	40		 inc	 eax
  00089	6a 00		 push	 0
  0008b	50		 push	 eax
  0008c	c6 45 fc 02	 mov	 BYTE PTR __$EHRec$[ebp+12], 2
  00090	e8 00 00 00 00	 call	 ??$_Allocate@_W@std@@YAPA_WIPA_W@Z ; std::_Allocate<wchar_t>
  00095	89 45 e8	 mov	 DWORD PTR __Ptr$[ebp], eax
  00098	83 c4 08	 add	 esp, 8

; 2101 : 			_CATCH_END
; 2102 : 		_CATCH_END

  0009b	b8 00 00 00 00	 mov	 eax, $LN112@Copy@2
  000a0	c3		 ret	 0
$LN112@Copy@2:
  000a1	8b 7d ec	 mov	 edi, DWORD PTR _this$[ebp]
  000a4	8b 75 08	 mov	 esi, DWORD PTR __Newres$[ebp]
  000a7	8b 5d e8	 mov	 ebx, DWORD PTR __Ptr$[ebp]
$LN16@Copy@2:

; 2103 : 
; 2104 : 		if (0 < _Oldlen)

  000aa	8b 4d 0c	 mov	 ecx, DWORD PTR __Oldlen$[ebp]
  000ad	85 c9		 test	 ecx, ecx
  000af	76 24		 jbe	 SHORT $LN75@Copy@2

; 2105 : 			_Traits_helper::copy_s<_Traits>(_Ptr, _Newres + 1, _Myptr(), _Oldlen);	// copy existing elements

  000b1	83 7f 18 08	 cmp	 DWORD PTR [edi+24], 8
  000b5	72 05		 jb	 SHORT $LN65@Copy@2
  000b7	8b 47 04	 mov	 eax, DWORD PTR [edi+4]
  000ba	eb 03		 jmp	 SHORT $LN66@Copy@2
$LN65@Copy@2:
  000bc	8d 47 04	 lea	 eax, DWORD PTR [edi+4]
$LN66@Copy@2:
  000bf	8d 14 09	 lea	 edx, DWORD PTR [ecx+ecx]
  000c2	52		 push	 edx
  000c3	50		 push	 eax
  000c4	8d 44 36 02	 lea	 eax, DWORD PTR [esi+esi+2]
  000c8	50		 push	 eax
  000c9	53		 push	 ebx
  000ca	e8 00 00 00 00	 call	 _memcpy_s
  000cf	8b 4d 0c	 mov	 ecx, DWORD PTR __Oldlen$[ebp]
  000d2	83 c4 10	 add	 esp, 16			; 00000010H
$LN75@Copy@2:

; 2106 : 		_Tidy(true);

  000d5	83 7f 18 08	 cmp	 DWORD PTR [edi+24], 8
  000d9	72 0f		 jb	 SHORT $LN93@Copy@2
  000db	8b 4f 04	 mov	 ecx, DWORD PTR [edi+4]
  000de	51		 push	 ecx
  000df	e8 00 00 00 00	 call	 ??3@YAXPAX@Z		; operator delete
  000e4	8b 4d 0c	 mov	 ecx, DWORD PTR __Oldlen$[ebp]
  000e7	83 c4 04	 add	 esp, 4
$LN93@Copy@2:
  000ea	8d 47 04	 lea	 eax, DWORD PTR [edi+4]
  000ed	33 d2		 xor	 edx, edx

; 2107 : 		_Bx._Ptr = _Ptr;

  000ef	89 18		 mov	 DWORD PTR [eax], ebx

; 2108 : 		_Myres = _Newres;

  000f1	89 77 18	 mov	 DWORD PTR [edi+24], esi

; 2109 : 		_Eos(_Oldlen);

  000f4	89 4f 14	 mov	 DWORD PTR [edi+20], ecx
  000f7	83 fe 08	 cmp	 esi, 8
  000fa	72 02		 jb	 SHORT $LN107@Copy@2
  000fc	8b c3		 mov	 eax, ebx
$LN107@Copy@2:
  000fe	33 d2		 xor	 edx, edx
  00100	66 89 14 48	 mov	 WORD PTR [eax+ecx*2], dx

; 2110 : 		}

  00104	8b 4d f4	 mov	 ecx, DWORD PTR __$EHRec$[ebp+4]
  00107	64 89 0d 00 00
	00 00		 mov	 DWORD PTR fs:0, ecx
  0010e	59		 pop	 ecx
  0010f	5f		 pop	 edi
  00110	5e		 pop	 esi
  00111	5b		 pop	 ebx
  00112	8b e5		 mov	 esp, ebp
  00114	5d		 pop	 ebp
  00115	c2 08 00	 ret	 8
__catch$?_Copy@?$basic_string@_WU?$char_traits@_W@std@@V?$allocator@_W@2@@std@@IAEXII@Z$1:

; 2098 : 			_CATCH_ALL
; 2099 : 			_Tidy(true);	// failed again, discard storage and reraise

  00118	8b 75 ec	 mov	 esi, DWORD PTR _this$[ebp]
  0011b	83 7e 18 08	 cmp	 DWORD PTR [esi+24], 8
  0011f	72 0c		 jb	 SHORT $LN53@Copy@2
  00121	8b 46 04	 mov	 eax, DWORD PTR [esi+4]
  00124	50		 push	 eax
  00125	e8 00 00 00 00	 call	 ??3@YAXPAX@Z		; operator delete
  0012a	83 c4 04	 add	 esp, 4
$LN53@Copy@2:
  0012d	33 c9		 xor	 ecx, ecx

; 2100 : 			_RERAISE;

  0012f	51		 push	 ecx
  00130	c7 46 18 07 00
	00 00		 mov	 DWORD PTR [esi+24], 7
  00137	c7 46 14 00 00
	00 00		 mov	 DWORD PTR [esi+20], 0
  0013e	51		 push	 ecx
  0013f	66 89 4e 04	 mov	 WORD PTR [esi+4], cx
  00143	e8 00 00 00 00	 call	 __CxxThrowException@8
$LN115@Copy@2:
  00148	cc		 int	 3
_TEXT	ENDS
;	COMDAT text$x
text$x	SEGMENT
__ehhandler$?_Copy@?$basic_string@_WU?$char_traits@_W@std@@V?$allocator@_W@2@@std@@IAEXII@Z:
  00000	8b 54 24 08	 mov	 edx, DWORD PTR [esp+8]
  00004	8d 42 0c	 lea	 eax, DWORD PTR [edx+12]
  00007	8b 4a e4	 mov	 ecx, DWORD PTR [edx-28]
  0000a	33 c8		 xor	 ecx, eax
  0000c	e8 00 00 00 00	 call	 @__security_check_cookie@4
  00011	b8 00 00 00 00	 mov	 eax, OFFSET __ehfuncinfo$?_Copy@?$basic_string@_WU?$char_traits@_W@std@@V?$allocator@_W@2@@std@@IAEXII@Z
  00016	e9 00 00 00 00	 jmp	 ___CxxFrameHandler3
text$x	ENDS
?_Copy@?$basic_string@_WU?$char_traits@_W@std@@V?$allocator@_W@2@@std@@IAEXII@Z ENDP ; std::basic_string<wchar_t,std::char_traits<wchar_t>,std::allocator<wchar_t> >::_Copy
PUBLIC	?begin@?$basic_string@DU?$char_traits@D@std@@V?$allocator@D@2@@std@@QBE?AV?$_String_const_iterator@DU?$char_traits@D@std@@V?$allocator@D@2@@2@XZ ; std::basic_string<char,std::char_traits<char>,std::allocator<char> >::begin
; Function compile flags: /Ogtpy
;	COMDAT ?begin@?$basic_string@DU?$char_traits@D@std@@V?$allocator@D@2@@std@@QBE?AV?$_String_const_iterator@DU?$char_traits@D@std@@V?$allocator@D@2@@2@XZ
_TEXT	SEGMENT
___$ReturnUdt$ = 8					; size = 4
?begin@?$basic_string@DU?$char_traits@D@std@@V?$allocator@D@2@@std@@QBE?AV?$_String_const_iterator@DU?$char_traits@D@std@@V?$allocator@D@2@@2@XZ PROC ; std::basic_string<char,std::char_traits<char>,std::allocator<char> >::begin, COMDAT
; _this$ = ecx

; 1507 : 		return (_STRING_CONST_ITERATOR(_Myptr()));

  00000	83 79 18 10	 cmp	 DWORD PTR [ecx+24], 16	; 00000010H
  00004	72 17		 jb	 SHORT $LN5@begin
  00006	8b 41 04	 mov	 eax, DWORD PTR [ecx+4]
  00009	56		 push	 esi
  0000a	8b 74 24 08	 mov	 esi, DWORD PTR ___$ReturnUdt$[esp]
  0000e	51		 push	 ecx
  0000f	50		 push	 eax
  00010	8b ce		 mov	 ecx, esi
  00012	e8 00 00 00 00	 call	 ??0?$_String_const_iterator@DU?$char_traits@D@std@@V?$allocator@D@2@@std@@QAE@PBDPBV_Container_base_secure@1@@Z ; std::_String_const_iterator<char,std::char_traits<char>,std::allocator<char> >::_String_const_iterator<char,std::char_traits<char>,std::allocator<char> >
  00017	8b c6		 mov	 eax, esi
  00019	5e		 pop	 esi

; 1508 : 		}

  0001a	c2 04 00	 ret	 4

; 1507 : 		return (_STRING_CONST_ITERATOR(_Myptr()));

$LN5@begin:
  0001d	56		 push	 esi
  0001e	8b 74 24 08	 mov	 esi, DWORD PTR ___$ReturnUdt$[esp]
  00022	8d 41 04	 lea	 eax, DWORD PTR [ecx+4]
  00025	51		 push	 ecx
  00026	50		 push	 eax
  00027	8b ce		 mov	 ecx, esi
  00029	e8 00 00 00 00	 call	 ??0?$_String_const_iterator@DU?$char_traits@D@std@@V?$allocator@D@2@@std@@QAE@PBDPBV_Container_base_secure@1@@Z ; std::_String_const_iterator<char,std::char_traits<char>,std::allocator<char> >::_String_const_iterator<char,std::char_traits<char>,std::allocator<char> >
  0002e	8b c6		 mov	 eax, esi
  00030	5e		 pop	 esi

; 1508 : 		}

  00031	c2 04 00	 ret	 4
?begin@?$basic_string@DU?$char_traits@D@std@@V?$allocator@D@2@@std@@QBE?AV?$_String_const_iterator@DU?$char_traits@D@std@@V?$allocator@D@2@@2@XZ ENDP ; std::basic_string<char,std::char_traits<char>,std::allocator<char> >::begin
_TEXT	ENDS
PUBLIC	?end@?$basic_string@DU?$char_traits@D@std@@V?$allocator@D@2@@std@@QBE?AV?$_String_const_iterator@DU?$char_traits@D@std@@V?$allocator@D@2@@2@XZ ; std::basic_string<char,std::char_traits<char>,std::allocator<char> >::end
; Function compile flags: /Ogtpy
;	COMDAT ?end@?$basic_string@DU?$char_traits@D@std@@V?$allocator@D@2@@std@@QBE?AV?$_String_const_iterator@DU?$char_traits@D@std@@V?$allocator@D@2@@2@XZ
_TEXT	SEGMENT
___$ReturnUdt$ = 8					; size = 4
?end@?$basic_string@DU?$char_traits@D@std@@V?$allocator@D@2@@std@@QBE?AV?$_String_const_iterator@DU?$char_traits@D@std@@V?$allocator@D@2@@2@XZ PROC ; std::basic_string<char,std::char_traits<char>,std::allocator<char> >::end, COMDAT
; _this$ = ecx

; 1517 : 		return (_STRING_CONST_ITERATOR(_Myptr() + _Mysize));

  00000	83 79 18 10	 cmp	 DWORD PTR [ecx+24], 16	; 00000010H
  00004	72 05		 jb	 SHORT $LN5@end
  00006	8b 41 04	 mov	 eax, DWORD PTR [ecx+4]
  00009	eb 03		 jmp	 SHORT $LN6@end
$LN5@end:
  0000b	8d 41 04	 lea	 eax, DWORD PTR [ecx+4]
$LN6@end:
  0000e	56		 push	 esi
  0000f	8b 74 24 08	 mov	 esi, DWORD PTR ___$ReturnUdt$[esp]
  00013	51		 push	 ecx
  00014	8b 49 14	 mov	 ecx, DWORD PTR [ecx+20]
  00017	03 c8		 add	 ecx, eax
  00019	51		 push	 ecx
  0001a	8b ce		 mov	 ecx, esi
  0001c	e8 00 00 00 00	 call	 ??0?$_String_const_iterator@DU?$char_traits@D@std@@V?$allocator@D@2@@std@@QAE@PBDPBV_Container_base_secure@1@@Z ; std::_String_const_iterator<char,std::char_traits<char>,std::allocator<char> >::_String_const_iterator<char,std::char_traits<char>,std::allocator<char> >
  00021	8b c6		 mov	 eax, esi
  00023	5e		 pop	 esi

; 1518 : 		}

  00024	c2 04 00	 ret	 4
?end@?$basic_string@DU?$char_traits@D@std@@V?$allocator@D@2@@std@@QBE?AV?$_String_const_iterator@DU?$char_traits@D@std@@V?$allocator@D@2@@2@XZ ENDP ; std::basic_string<char,std::char_traits<char>,std::allocator<char> >::end
_TEXT	ENDS
PUBLIC	??0?$basic_string@DU?$char_traits@D@std@@V?$allocator@D@2@@std@@QAE@XZ ; std::basic_string<char,std::char_traits<char>,std::allocator<char> >::basic_string<char,std::char_traits<char>,std::allocator<char> >
; Function compile flags: /Ogtpy
;	COMDAT ??0?$basic_string@DU?$char_traits@D@std@@V?$allocator@D@2@@std@@QAE@XZ
_TEXT	SEGMENT
??0?$basic_string@DU?$char_traits@D@std@@V?$allocator@D@2@@std@@QAE@XZ PROC ; std::basic_string<char,std::char_traits<char>,std::allocator<char> >::basic_string<char,std::char_traits<char>,std::allocator<char> >, COMDAT
; _this$ = ecx

; 565  : 		{	// construct empty string

  00000	8b c1		 mov	 eax, ecx

; 566  : 		_Tidy();

  00002	33 c9		 xor	 ecx, ecx
  00004	c7 40 18 0f 00
	00 00		 mov	 DWORD PTR [eax+24], 15	; 0000000fH
  0000b	89 48 14	 mov	 DWORD PTR [eax+20], ecx
  0000e	88 48 04	 mov	 BYTE PTR [eax+4], cl

; 567  : 		}

  00011	c3		 ret	 0
??0?$basic_string@DU?$char_traits@D@std@@V?$allocator@D@2@@std@@QAE@XZ ENDP ; std::basic_string<char,std::char_traits<char>,std::allocator<char> >::basic_string<char,std::char_traits<char>,std::allocator<char> >
_TEXT	ENDS
PUBLIC	??1?$basic_string@DU?$char_traits@D@std@@V?$allocator@D@2@@std@@QAE@XZ ; std::basic_string<char,std::char_traits<char>,std::allocator<char> >::~basic_string<char,std::char_traits<char>,std::allocator<char> >
; Function compile flags: /Ogtpy
;	COMDAT ??1?$basic_string@DU?$char_traits@D@std@@V?$allocator@D@2@@std@@QAE@XZ
_TEXT	SEGMENT
??1?$basic_string@DU?$char_traits@D@std@@V?$allocator@D@2@@std@@QAE@XZ PROC ; std::basic_string<char,std::char_traits<char>,std::allocator<char> >::~basic_string<char,std::char_traits<char>,std::allocator<char> >, COMDAT
; _this$ = ecx

; 905  : 		{	// destroy the string

  00000	56		 push	 esi
  00001	8b f1		 mov	 esi, ecx

; 906  : 		_Tidy(true);

  00003	83 7e 18 10	 cmp	 DWORD PTR [esi+24], 16	; 00000010H
  00007	72 0c		 jb	 SHORT $LN17@basic_stri
  00009	8b 46 04	 mov	 eax, DWORD PTR [esi+4]
  0000c	50		 push	 eax
  0000d	e8 00 00 00 00	 call	 ??3@YAXPAX@Z		; operator delete
  00012	83 c4 04	 add	 esp, 4
$LN17@basic_stri:
  00015	33 c0		 xor	 eax, eax
  00017	c7 46 18 0f 00
	00 00		 mov	 DWORD PTR [esi+24], 15	; 0000000fH
  0001e	89 46 14	 mov	 DWORD PTR [esi+20], eax
  00021	88 46 04	 mov	 BYTE PTR [esi+4], al
  00024	5e		 pop	 esi

; 907  : 		}

  00025	c3		 ret	 0
??1?$basic_string@DU?$char_traits@D@std@@V?$allocator@D@2@@std@@QAE@XZ ENDP ; std::basic_string<char,std::char_traits<char>,std::allocator<char> >::~basic_string<char,std::char_traits<char>,std::allocator<char> >
_TEXT	ENDS
PUBLIC	??0?$basic_string@_WU?$char_traits@_W@std@@V?$allocator@_W@2@@std@@QAE@XZ ; std::basic_string<wchar_t,std::char_traits<wchar_t>,std::allocator<wchar_t> >::basic_string<wchar_t,std::char_traits<wchar_t>,std::allocator<wchar_t> >
; Function compile flags: /Ogtpy
;	COMDAT ??0?$basic_string@_WU?$char_traits@_W@std@@V?$allocator@_W@2@@std@@QAE@XZ
_TEXT	SEGMENT
??0?$basic_string@_WU?$char_traits@_W@std@@V?$allocator@_W@2@@std@@QAE@XZ PROC ; std::basic_string<wchar_t,std::char_traits<wchar_t>,std::allocator<wchar_t> >::basic_string<wchar_t,std::char_traits<wchar_t>,std::allocator<wchar_t> >, COMDAT
; _this$ = ecx

; 565  : 		{	// construct empty string

  00000	8b c1		 mov	 eax, ecx

; 566  : 		_Tidy();

  00002	33 c9		 xor	 ecx, ecx
  00004	c7 40 18 07 00
	00 00		 mov	 DWORD PTR [eax+24], 7
  0000b	c7 40 14 00 00
	00 00		 mov	 DWORD PTR [eax+20], 0
  00012	66 89 48 04	 mov	 WORD PTR [eax+4], cx

; 567  : 		}

  00016	c3		 ret	 0
??0?$basic_string@_WU?$char_traits@_W@std@@V?$allocator@_W@2@@std@@QAE@XZ ENDP ; std::basic_string<wchar_t,std::char_traits<wchar_t>,std::allocator<wchar_t> >::basic_string<wchar_t,std::char_traits<wchar_t>,std::allocator<wchar_t> >
_TEXT	ENDS
PUBLIC	??1?$basic_string@_WU?$char_traits@_W@std@@V?$allocator@_W@2@@std@@QAE@XZ ; std::basic_string<wchar_t,std::char_traits<wchar_t>,std::allocator<wchar_t> >::~basic_string<wchar_t,std::char_traits<wchar_t>,std::allocator<wchar_t> >
; Function compile flags: /Ogtpy
;	COMDAT ??1?$basic_string@_WU?$char_traits@_W@std@@V?$allocator@_W@2@@std@@QAE@XZ
_TEXT	SEGMENT
??1?$basic_string@_WU?$char_traits@_W@std@@V?$allocator@_W@2@@std@@QAE@XZ PROC ; std::basic_string<wchar_t,std::char_traits<wchar_t>,std::allocator<wchar_t> >::~basic_string<wchar_t,std::char_traits<wchar_t>,std::allocator<wchar_t> >, COMDAT
; _this$ = ecx

; 905  : 		{	// destroy the string

  00000	56		 push	 esi
  00001	8b f1		 mov	 esi, ecx

; 906  : 		_Tidy(true);

  00003	83 7e 18 08	 cmp	 DWORD PTR [esi+24], 8
  00007	72 0c		 jb	 SHORT $LN19@basic_stri@2
  00009	8b 46 04	 mov	 eax, DWORD PTR [esi+4]
  0000c	50		 push	 eax
  0000d	e8 00 00 00 00	 call	 ??3@YAXPAX@Z		; operator delete
  00012	83 c4 04	 add	 esp, 4
$LN19@basic_stri@2:
  00015	c7 46 18 07 00
	00 00		 mov	 DWORD PTR [esi+24], 7
  0001c	c7 46 14 00 00
	00 00		 mov	 DWORD PTR [esi+20], 0
  00023	33 c9		 xor	 ecx, ecx
  00025	66 89 4e 04	 mov	 WORD PTR [esi+4], cx
  00029	5e		 pop	 esi

; 907  : 		}

  0002a	c3		 ret	 0
??1?$basic_string@_WU?$char_traits@_W@std@@V?$allocator@_W@2@@std@@QAE@XZ ENDP ; std::basic_string<wchar_t,std::char_traits<wchar_t>,std::allocator<wchar_t> >::~basic_string<wchar_t,std::char_traits<wchar_t>,std::allocator<wchar_t> >
_TEXT	ENDS
PUBLIC	?_Grow@?$basic_string@DU?$char_traits@D@std@@V?$allocator@D@2@@std@@IAE_NI_N@Z ; std::basic_string<char,std::char_traits<char>,std::allocator<char> >::_Grow
EXTRN	?_Xlen@_String_base@std@@SAXXZ:PROC		; std::_String_base::_Xlen
; Function compile flags: /Ogtpy
;	COMDAT ?_Grow@?$basic_string@DU?$char_traits@D@std@@V?$allocator@D@2@@std@@IAE_NI_N@Z
_TEXT	SEGMENT
__Newsize$ = 8						; size = 4
__Trim$ = 12						; size = 1
?_Grow@?$basic_string@DU?$char_traits@D@std@@V?$allocator@D@2@@std@@IAE_NI_N@Z PROC ; std::basic_string<char,std::char_traits<char>,std::allocator<char> >::_Grow, COMDAT
; _this$ = ecx

; 2119 : 		{	// ensure buffer is big enough, trim to size if _Trim is true

  00000	53		 push	 ebx

; 2120 : 			if (max_size() < _Newsize)

  00001	8b 5c 24 08	 mov	 ebx, DWORD PTR __Newsize$[esp]
  00005	56		 push	 esi
  00006	8b f1		 mov	 esi, ecx
  00008	83 fb fe	 cmp	 ebx, -2			; fffffffeH
  0000b	76 05		 jbe	 SHORT $LN6@Grow

; 2121 : 			_String_base::_Xlen();	// result too long

  0000d	e8 00 00 00 00	 call	 ?_Xlen@_String_base@std@@SAXXZ ; std::_String_base::_Xlen
$LN6@Grow:

; 2122 : 		if (_Myres < _Newsize)

  00012	8b 46 18	 mov	 eax, DWORD PTR [esi+24]
  00015	3b c3		 cmp	 eax, ebx
  00017	73 19		 jae	 SHORT $LN5@Grow

; 2123 : 			_Copy(_Newsize, _Mysize);	// reallocate to grow

  00019	8b 46 14	 mov	 eax, DWORD PTR [esi+20]
  0001c	50		 push	 eax
  0001d	53		 push	 ebx
  0001e	8b ce		 mov	 ecx, esi
  00020	e8 00 00 00 00	 call	 ?_Copy@?$basic_string@DU?$char_traits@D@std@@V?$allocator@D@2@@std@@IAEXII@Z ; std::basic_string<char,std::char_traits<char>,std::allocator<char> >::_Copy

; 2129 : 		return (0 < _Newsize);	// return true only if more work to do

  00025	33 c9		 xor	 ecx, ecx
  00027	3b cb		 cmp	 ecx, ebx
  00029	1b c0		 sbb	 eax, eax
  0002b	5e		 pop	 esi
  0002c	f7 d8		 neg	 eax
  0002e	5b		 pop	 ebx

; 2130 : 		}

  0002f	c2 08 00	 ret	 8
$LN5@Grow:

; 2124 : 		else if (_Trim && _Newsize < _BUF_SIZE)

  00032	80 7c 24 10 00	 cmp	 BYTE PTR __Trim$[esp+4], 0
  00037	74 52		 je	 SHORT $LN3@Grow
  00039	83 fb 10	 cmp	 ebx, 16			; 00000010H
  0003c	73 4d		 jae	 SHORT $LN3@Grow
  0003e	57		 push	 edi

; 2125 : 			_Tidy(true,	// copy and deallocate if trimming to small string
; 2126 : 				_Newsize < _Mysize ? _Newsize : _Mysize);

  0003f	8b 7e 14	 mov	 edi, DWORD PTR [esi+20]
  00042	3b df		 cmp	 ebx, edi
  00044	73 02		 jae	 SHORT $LN9@Grow
  00046	8b fb		 mov	 edi, ebx
$LN9@Grow:
  00048	83 f8 10	 cmp	 eax, 16			; 00000010H
  0004b	72 21		 jb	 SHORT $LN33@Grow
  0004d	8d 46 04	 lea	 eax, DWORD PTR [esi+4]
  00050	55		 push	 ebp
  00051	8b 28		 mov	 ebp, DWORD PTR [eax]
  00053	85 ff		 test	 edi, edi
  00055	76 0d		 jbe	 SHORT $LN31@Grow
  00057	57		 push	 edi
  00058	55		 push	 ebp
  00059	6a 10		 push	 16			; 00000010H
  0005b	50		 push	 eax
  0005c	e8 00 00 00 00	 call	 _memcpy_s
  00061	83 c4 10	 add	 esp, 16			; 00000010H
$LN31@Grow:
  00064	55		 push	 ebp
  00065	e8 00 00 00 00	 call	 ??3@YAXPAX@Z		; operator delete
  0006a	83 c4 04	 add	 esp, 4
  0006d	5d		 pop	 ebp
$LN33@Grow:
  0006e	89 7e 14	 mov	 DWORD PTR [esi+20], edi
  00071	c7 46 18 0f 00
	00 00		 mov	 DWORD PTR [esi+24], 15	; 0000000fH

; 2129 : 		return (0 < _Newsize);	// return true only if more work to do

  00078	33 c9		 xor	 ecx, ecx
  0007a	c6 44 3e 04 00	 mov	 BYTE PTR [esi+edi+4], 0
  0007f	3b cb		 cmp	 ecx, ebx
  00081	5f		 pop	 edi
  00082	1b c0		 sbb	 eax, eax
  00084	5e		 pop	 esi
  00085	f7 d8		 neg	 eax
  00087	5b		 pop	 ebx

; 2130 : 		}

  00088	c2 08 00	 ret	 8
$LN3@Grow:

; 2127 : 		else if (_Newsize == 0)

  0008b	85 db		 test	 ebx, ebx
  0008d	75 20		 jne	 SHORT $LN49@Grow

; 2128 : 			_Eos(0);	// new size is zero, just null terminate

  0008f	89 5e 14	 mov	 DWORD PTR [esi+20], ebx
  00092	83 f8 10	 cmp	 eax, 16			; 00000010H
  00095	72 12		 jb	 SHORT $LN47@Grow
  00097	8b 76 04	 mov	 esi, DWORD PTR [esi+4]

; 2129 : 		return (0 < _Newsize);	// return true only if more work to do

  0009a	33 c9		 xor	 ecx, ecx
  0009c	3b cb		 cmp	 ecx, ebx
  0009e	88 1e		 mov	 BYTE PTR [esi], bl
  000a0	1b c0		 sbb	 eax, eax
  000a2	5e		 pop	 esi
  000a3	f7 d8		 neg	 eax
  000a5	5b		 pop	 ebx

; 2130 : 		}

  000a6	c2 08 00	 ret	 8

; 2128 : 			_Eos(0);	// new size is zero, just null terminate

$LN47@Grow:
  000a9	83 c6 04	 add	 esi, 4
  000ac	c6 06 00	 mov	 BYTE PTR [esi], 0
$LN49@Grow:

; 2129 : 		return (0 < _Newsize);	// return true only if more work to do

  000af	33 c9		 xor	 ecx, ecx
  000b1	3b cb		 cmp	 ecx, ebx
  000b3	1b c0		 sbb	 eax, eax
  000b5	5e		 pop	 esi
  000b6	f7 d8		 neg	 eax
  000b8	5b		 pop	 ebx

; 2130 : 		}

  000b9	c2 08 00	 ret	 8
?_Grow@?$basic_string@DU?$char_traits@D@std@@V?$allocator@D@2@@std@@IAE_NI_N@Z ENDP ; std::basic_string<char,std::char_traits<char>,std::allocator<char> >::_Grow
_TEXT	ENDS
PUBLIC	?_Grow@?$basic_string@_WU?$char_traits@_W@std@@V?$allocator@_W@2@@std@@IAE_NI_N@Z ; std::basic_string<wchar_t,std::char_traits<wchar_t>,std::allocator<wchar_t> >::_Grow
; Function compile flags: /Ogtpy
;	COMDAT ?_Grow@?$basic_string@_WU?$char_traits@_W@std@@V?$allocator@_W@2@@std@@IAE_NI_N@Z
_TEXT	SEGMENT
__Newsize$ = 8						; size = 4
__Trim$ = 12						; size = 1
?_Grow@?$basic_string@_WU?$char_traits@_W@std@@V?$allocator@_W@2@@std@@IAE_NI_N@Z PROC ; std::basic_string<wchar_t,std::char_traits<wchar_t>,std::allocator<wchar_t> >::_Grow, COMDAT
; _this$ = ecx

; 2119 : 		{	// ensure buffer is big enough, trim to size if _Trim is true

  00000	55		 push	 ebp

; 2120 : 			if (max_size() < _Newsize)

  00001	8b 6c 24 08	 mov	 ebp, DWORD PTR __Newsize$[esp]
  00005	56		 push	 esi
  00006	8b f1		 mov	 esi, ecx
  00008	81 fd fe ff ff
	7f		 cmp	 ebp, 2147483646		; 7ffffffeH
  0000e	76 05		 jbe	 SHORT $LN6@Grow@2

; 2121 : 			_String_base::_Xlen();	// result too long

  00010	e8 00 00 00 00	 call	 ?_Xlen@_String_base@std@@SAXXZ ; std::_String_base::_Xlen
$LN6@Grow@2:

; 2122 : 		if (_Myres < _Newsize)

  00015	8b 46 18	 mov	 eax, DWORD PTR [esi+24]
  00018	3b c5		 cmp	 eax, ebp
  0001a	73 19		 jae	 SHORT $LN5@Grow@2

; 2123 : 			_Copy(_Newsize, _Mysize);	// reallocate to grow

  0001c	8b 46 14	 mov	 eax, DWORD PTR [esi+20]
  0001f	50		 push	 eax
  00020	55		 push	 ebp
  00021	8b ce		 mov	 ecx, esi
  00023	e8 00 00 00 00	 call	 ?_Copy@?$basic_string@_WU?$char_traits@_W@std@@V?$allocator@_W@2@@std@@IAEXII@Z ; std::basic_string<wchar_t,std::char_traits<wchar_t>,std::allocator<wchar_t> >::_Copy

; 2129 : 		return (0 < _Newsize);	// return true only if more work to do

  00028	33 c9		 xor	 ecx, ecx
  0002a	3b cd		 cmp	 ecx, ebp
  0002c	1b c0		 sbb	 eax, eax
  0002e	5e		 pop	 esi
  0002f	f7 d8		 neg	 eax
  00031	5d		 pop	 ebp

; 2130 : 		}

  00032	c2 08 00	 ret	 8
$LN5@Grow@2:

; 2124 : 		else if (_Trim && _Newsize < _BUF_SIZE)

  00035	80 7c 24 10 00	 cmp	 BYTE PTR __Trim$[esp+4], 0
  0003a	74 57		 je	 SHORT $LN3@Grow@2
  0003c	83 fd 08	 cmp	 ebp, 8
  0003f	73 52		 jae	 SHORT $LN3@Grow@2
  00041	57		 push	 edi

; 2125 : 			_Tidy(true,	// copy and deallocate if trimming to small string
; 2126 : 				_Newsize < _Mysize ? _Newsize : _Mysize);

  00042	8b 7e 14	 mov	 edi, DWORD PTR [esi+20]
  00045	3b ef		 cmp	 ebp, edi
  00047	73 02		 jae	 SHORT $LN9@Grow@2
  00049	8b fd		 mov	 edi, ebp
$LN9@Grow@2:
  0004b	83 f8 08	 cmp	 eax, 8
  0004e	72 24		 jb	 SHORT $LN35@Grow@2
  00050	8d 46 04	 lea	 eax, DWORD PTR [esi+4]
  00053	53		 push	 ebx
  00054	8b 18		 mov	 ebx, DWORD PTR [eax]
  00056	85 ff		 test	 edi, edi
  00058	76 10		 jbe	 SHORT $LN33@Grow@2
  0005a	8d 0c 3f	 lea	 ecx, DWORD PTR [edi+edi]
  0005d	51		 push	 ecx
  0005e	53		 push	 ebx
  0005f	6a 10		 push	 16			; 00000010H
  00061	50		 push	 eax
  00062	e8 00 00 00 00	 call	 _memcpy_s
  00067	83 c4 10	 add	 esp, 16			; 00000010H
$LN33@Grow@2:
  0006a	53		 push	 ebx
  0006b	e8 00 00 00 00	 call	 ??3@YAXPAX@Z		; operator delete
  00070	83 c4 04	 add	 esp, 4
  00073	5b		 pop	 ebx
$LN35@Grow@2:
  00074	33 d2		 xor	 edx, edx
  00076	89 7e 14	 mov	 DWORD PTR [esi+20], edi
  00079	c7 46 18 07 00
	00 00		 mov	 DWORD PTR [esi+24], 7

; 2129 : 		return (0 < _Newsize);	// return true only if more work to do

  00080	33 c9		 xor	 ecx, ecx
  00082	66 89 54 7e 04	 mov	 WORD PTR [esi+edi*2+4], dx
  00087	3b cd		 cmp	 ecx, ebp
  00089	5f		 pop	 edi
  0008a	1b c0		 sbb	 eax, eax
  0008c	5e		 pop	 esi
  0008d	f7 d8		 neg	 eax
  0008f	5d		 pop	 ebp

; 2130 : 		}

  00090	c2 08 00	 ret	 8
$LN3@Grow@2:

; 2127 : 		else if (_Newsize == 0)

  00093	85 ed		 test	 ebp, ebp
  00095	75 25		 jne	 SHORT $LN51@Grow@2

; 2128 : 			_Eos(0);	// new size is zero, just null terminate

  00097	89 6e 14	 mov	 DWORD PTR [esi+20], ebp
  0009a	83 f8 08	 cmp	 eax, 8
  0009d	72 15		 jb	 SHORT $LN49@Grow@2
  0009f	8b 76 04	 mov	 esi, DWORD PTR [esi+4]
  000a2	33 c0		 xor	 eax, eax

; 2129 : 		return (0 < _Newsize);	// return true only if more work to do

  000a4	33 c9		 xor	 ecx, ecx
  000a6	3b cd		 cmp	 ecx, ebp
  000a8	66 89 06	 mov	 WORD PTR [esi], ax
  000ab	1b c0		 sbb	 eax, eax
  000ad	5e		 pop	 esi
  000ae	f7 d8		 neg	 eax
  000b0	5d		 pop	 ebp

; 2130 : 		}

  000b1	c2 08 00	 ret	 8

; 2128 : 			_Eos(0);	// new size is zero, just null terminate

$LN49@Grow@2:
  000b4	83 c6 04	 add	 esi, 4
  000b7	33 c0		 xor	 eax, eax
  000b9	66 89 06	 mov	 WORD PTR [esi], ax
$LN51@Grow@2:

; 2129 : 		return (0 < _Newsize);	// return true only if more work to do

  000bc	33 c9		 xor	 ecx, ecx
  000be	3b cd		 cmp	 ecx, ebp
  000c0	1b c0		 sbb	 eax, eax
  000c2	5e		 pop	 esi
  000c3	f7 d8		 neg	 eax
  000c5	5d		 pop	 ebp

; 2130 : 		}

  000c6	c2 08 00	 ret	 8
?_Grow@?$basic_string@_WU?$char_traits@_W@std@@V?$allocator@_W@2@@std@@IAE_NI_N@Z ENDP ; std::basic_string<wchar_t,std::char_traits<wchar_t>,std::allocator<wchar_t> >::_Grow
_TEXT	ENDS
PUBLIC	??1?$ContainerForward@V?$basic_string@DU?$char_traits@D@std@@V?$allocator@D@2@@std@@@ForEach@CipherShed@@UAE@XZ ; CipherShed::ForEach::ContainerForward<std::basic_string<char,std::char_traits<char>,std::allocator<char> > >::~ContainerForward<std::basic_string<char,std::char_traits<char>,std::allocator<char> > >
; Function compile flags: /Ogtpy
;	COMDAT ??1?$ContainerForward@V?$basic_string@DU?$char_traits@D@std@@V?$allocator@D@2@@std@@@ForEach@CipherShed@@UAE@XZ
_TEXT	SEGMENT
??1?$ContainerForward@V?$basic_string@DU?$char_traits@D@std@@V?$allocator@D@2@@std@@@ForEach@CipherShed@@UAE@XZ PROC ; CipherShed::ForEach::ContainerForward<std::basic_string<char,std::char_traits<char>,std::allocator<char> > >::~ContainerForward<std::basic_string<char,std::char_traits<char>,std::allocator<char> > >, COMDAT
; _this$ = ecx
  00000	56		 push	 esi
  00001	8b f1		 mov	 esi, ecx
  00003	83 7e 20 10	 cmp	 DWORD PTR [esi+32], 16	; 00000010H
  00007	72 0c		 jb	 SHORT $LN21@ContainerF
  00009	8b 46 0c	 mov	 eax, DWORD PTR [esi+12]
  0000c	50		 push	 eax
  0000d	e8 00 00 00 00	 call	 ??3@YAXPAX@Z		; operator delete
  00012	83 c4 04	 add	 esp, 4
$LN21@ContainerF:
  00015	33 c0		 xor	 eax, eax
  00017	c7 46 20 0f 00
	00 00		 mov	 DWORD PTR [esi+32], 15	; 0000000fH
  0001e	89 46 1c	 mov	 DWORD PTR [esi+28], eax
  00021	88 46 0c	 mov	 BYTE PTR [esi+12], al
  00024	c7 06 00 00 00
	00		 mov	 DWORD PTR [esi], OFFSET ??_7Container@ForEach@CipherShed@@6B@
  0002a	5e		 pop	 esi
  0002b	c3		 ret	 0
??1?$ContainerForward@V?$basic_string@DU?$char_traits@D@std@@V?$allocator@D@2@@std@@@ForEach@CipherShed@@UAE@XZ ENDP ; CipherShed::ForEach::ContainerForward<std::basic_string<char,std::char_traits<char>,std::allocator<char> > >::~ContainerForward<std::basic_string<char,std::char_traits<char>,std::allocator<char> > >
_TEXT	ENDS
PUBLIC	?append@?$basic_string@DU?$char_traits@D@std@@V?$allocator@D@2@@std@@QAEAAV12@ID@Z ; std::basic_string<char,std::char_traits<char>,std::allocator<char> >::append
; Function compile flags: /Ogtpy
;	COMDAT ?append@?$basic_string@DU?$char_traits@D@std@@V?$allocator@D@2@@std@@QAEAAV12@ID@Z
_TEXT	SEGMENT
__Count$ = 8						; size = 4
__Ch$ = 12						; size = 1
?append@?$basic_string@DU?$char_traits@D@std@@V?$allocator@D@2@@std@@QAEAAV12@ID@Z PROC ; std::basic_string<char,std::char_traits<char>,std::allocator<char> >::append, COMDAT
; _this$ = ecx

; 998  : 		{	// append _Count * _Ch

  00000	53		 push	 ebx

; 999  : 			if (npos - _Mysize <= _Count)

  00001	8b 5c 24 08	 mov	 ebx, DWORD PTR __Count$[esp]
  00005	56		 push	 esi
  00006	83 c8 ff	 or	 eax, -1
  00009	8b f1		 mov	 esi, ecx
  0000b	2b 46 14	 sub	 eax, DWORD PTR [esi+20]
  0000e	3b c3		 cmp	 eax, ebx
  00010	77 05		 ja	 SHORT $LN2@append

; 1000 : 			_String_base::_Xlen();	// result too long

  00012	e8 00 00 00 00	 call	 ?_Xlen@_String_base@std@@SAXXZ ; std::_String_base::_Xlen
$LN2@append:

; 1001 : 
; 1002 : 		size_type _Num;
; 1003 : 		if (0 < _Count && _Grow(_Num = _Mysize + _Count))

  00017	85 db		 test	 ebx, ebx
  00019	0f 86 80 00 00
	00		 jbe	 $LN63@append
  0001f	57		 push	 edi
  00020	8b 7e 14	 mov	 edi, DWORD PTR [esi+20]
  00023	03 fb		 add	 edi, ebx
  00025	83 ff fe	 cmp	 edi, -2			; fffffffeH
  00028	76 05		 jbe	 SHORT $LN10@append
  0002a	e8 00 00 00 00	 call	 ?_Xlen@_String_base@std@@SAXXZ ; std::_String_base::_Xlen
$LN10@append:
  0002f	8b 46 18	 mov	 eax, DWORD PTR [esi+24]
  00032	3b c7		 cmp	 eax, edi
  00034	73 39		 jae	 SHORT $LN9@append
  00036	8b 4e 14	 mov	 ecx, DWORD PTR [esi+20]
  00039	51		 push	 ecx
  0003a	57		 push	 edi
  0003b	8b ce		 mov	 ecx, esi
  0003d	e8 00 00 00 00	 call	 ?_Copy@?$basic_string@DU?$char_traits@D@std@@V?$allocator@D@2@@std@@IAEXII@Z ; std::basic_string<char,std::char_traits<char>,std::allocator<char> >::_Copy
  00042	85 ff		 test	 edi, edi
$LN66@append:
  00044	76 58		 jbe	 SHORT $LN64@append

; 1004 : 			{	// make room and append new stuff using assign
; 1005 : 			_Chassign(_Mysize, _Count, _Ch);

  00046	8b 54 24 14	 mov	 edx, DWORD PTR __Ch$[esp+8]
  0004a	8b 46 14	 mov	 eax, DWORD PTR [esi+20]
  0004d	52		 push	 edx
  0004e	53		 push	 ebx
  0004f	50		 push	 eax
  00050	8b ce		 mov	 ecx, esi
  00052	e8 00 00 00 00	 call	 ?_Chassign@?$basic_string@DU?$char_traits@D@std@@V?$allocator@D@2@@std@@IAEXIID@Z ; std::basic_string<char,std::char_traits<char>,std::allocator<char> >::_Chassign

; 1006 : 			_Eos(_Num);

  00057	83 7e 18 10	 cmp	 DWORD PTR [esi+24], 16	; 00000010H
  0005b	89 7e 14	 mov	 DWORD PTR [esi+20], edi
  0005e	72 37		 jb	 SHORT $LN59@append
  00060	8b 46 04	 mov	 eax, DWORD PTR [esi+4]
  00063	c6 04 38 00	 mov	 BYTE PTR [eax+edi], 0
  00067	5f		 pop	 edi

; 1007 : 			}
; 1008 : 		return (*this);

  00068	8b c6		 mov	 eax, esi
  0006a	5e		 pop	 esi
  0006b	5b		 pop	 ebx

; 1009 : 		}

  0006c	c2 08 00	 ret	 8

; 1001 : 
; 1002 : 		size_type _Num;
; 1003 : 		if (0 < _Count && _Grow(_Num = _Mysize + _Count))

$LN9@append:
  0006f	85 ff		 test	 edi, edi
  00071	75 d1		 jne	 SHORT $LN66@append
  00073	89 7e 14	 mov	 DWORD PTR [esi+20], edi
  00076	83 f8 10	 cmp	 eax, 16			; 00000010H
  00079	72 0e		 jb	 SHORT $LN51@append
  0007b	8b 46 04	 mov	 eax, DWORD PTR [esi+4]
  0007e	5f		 pop	 edi
  0007f	c6 00 00	 mov	 BYTE PTR [eax], 0

; 1007 : 			}
; 1008 : 		return (*this);

  00082	8b c6		 mov	 eax, esi
  00084	5e		 pop	 esi
  00085	5b		 pop	 ebx

; 1009 : 		}

  00086	c2 08 00	 ret	 8

; 1001 : 
; 1002 : 		size_type _Num;
; 1003 : 		if (0 < _Count && _Grow(_Num = _Mysize + _Count))

$LN51@append:
  00089	8d 46 04	 lea	 eax, DWORD PTR [esi+4]
  0008c	5f		 pop	 edi
  0008d	c6 00 00	 mov	 BYTE PTR [eax], 0

; 1007 : 			}
; 1008 : 		return (*this);

  00090	8b c6		 mov	 eax, esi
  00092	5e		 pop	 esi
  00093	5b		 pop	 ebx

; 1009 : 		}

  00094	c2 08 00	 ret	 8

; 1006 : 			_Eos(_Num);

$LN59@append:
  00097	8d 46 04	 lea	 eax, DWORD PTR [esi+4]
  0009a	c6 04 38 00	 mov	 BYTE PTR [eax+edi], 0
$LN64@append:
  0009e	5f		 pop	 edi
$LN63@append:

; 1007 : 			}
; 1008 : 		return (*this);

  0009f	8b c6		 mov	 eax, esi
  000a1	5e		 pop	 esi
  000a2	5b		 pop	 ebx

; 1009 : 		}

  000a3	c2 08 00	 ret	 8
?append@?$basic_string@DU?$char_traits@D@std@@V?$allocator@D@2@@std@@QAEAAV12@ID@Z ENDP ; std::basic_string<char,std::char_traits<char>,std::allocator<char> >::append
_TEXT	ENDS
PUBLIC	?assign@?$basic_string@DU?$char_traits@D@std@@V?$allocator@D@2@@std@@QAEAAV12@ABV12@II@Z ; std::basic_string<char,std::char_traits<char>,std::allocator<char> >::assign
; Function compile flags: /Ogtpy
;	COMDAT ?assign@?$basic_string@DU?$char_traits@D@std@@V?$allocator@D@2@@std@@QAEAAV12@ABV12@II@Z
_TEXT	SEGMENT
__Right$ = 8						; size = 4
__Roff$ = 12						; size = 4
__Count$ = 16						; size = 4
?assign@?$basic_string@DU?$char_traits@D@std@@V?$allocator@D@2@@std@@QAEAAV12@ABV12@II@Z PROC ; std::basic_string<char,std::char_traits<char>,std::allocator<char> >::assign, COMDAT
; _this$ = ecx

; 1046 : 		{	// assign _Right [_Roff, _Roff + _Count)

  00000	53		 push	 ebx

; 1047 : 		if (_Right.size() < _Roff)

  00001	8b 5c 24 08	 mov	 ebx, DWORD PTR __Right$[esp]
  00005	55		 push	 ebp
  00006	8b 6c 24 10	 mov	 ebp, DWORD PTR __Roff$[esp+4]
  0000a	56		 push	 esi
  0000b	57		 push	 edi
  0000c	8b f1		 mov	 esi, ecx
  0000e	39 6b 14	 cmp	 DWORD PTR [ebx+20], ebp
  00011	73 05		 jae	 SHORT $LN5@assign

; 1048 : 			_String_base::_Xran();	// _Roff off end

  00013	e8 00 00 00 00	 call	 ?_Xran@_String_base@std@@SAXXZ ; std::_String_base::_Xran
$LN5@assign:

; 1049 : 		size_type _Num = _Right.size() - _Roff;

  00018	8b 7b 14	 mov	 edi, DWORD PTR [ebx+20]

; 1050 : 		if (_Count < _Num)

  0001b	8b 44 24 1c	 mov	 eax, DWORD PTR __Count$[esp+12]
  0001f	2b fd		 sub	 edi, ebp
  00021	3b c7		 cmp	 eax, edi
  00023	73 02		 jae	 SHORT $LN4@assign

; 1051 : 			_Num = _Count;	// trim _Num to size

  00025	8b f8		 mov	 edi, eax
$LN4@assign:

; 1052 : 
; 1053 : 		if (this == &_Right)

  00027	3b f3		 cmp	 esi, ebx
  00029	75 1f		 jne	 SHORT $LN3@assign

; 1054 : 			erase((size_type)(_Roff + _Num)), erase(0, _Roff);	// substring

  0002b	6a ff		 push	 -1
  0002d	03 fd		 add	 edi, ebp
  0002f	57		 push	 edi
  00030	8b ce		 mov	 ecx, esi
  00032	e8 00 00 00 00	 call	 ?erase@?$basic_string@DU?$char_traits@D@std@@V?$allocator@D@2@@std@@QAEAAV12@II@Z ; std::basic_string<char,std::char_traits<char>,std::allocator<char> >::erase
  00037	55		 push	 ebp
  00038	6a 00		 push	 0
  0003a	8b ce		 mov	 ecx, esi
  0003c	e8 00 00 00 00	 call	 ?erase@?$basic_string@DU?$char_traits@D@std@@V?$allocator@D@2@@std@@QAEAAV12@II@Z ; std::basic_string<char,std::char_traits<char>,std::allocator<char> >::erase
  00041	5f		 pop	 edi

; 1059 : 			}
; 1060 : 		return (*this);

  00042	8b c6		 mov	 eax, esi
  00044	5e		 pop	 esi
  00045	5d		 pop	 ebp
  00046	5b		 pop	 ebx

; 1061 : 		}

  00047	c2 0c 00	 ret	 12			; 0000000cH
$LN3@assign:

; 1055 : 		else if (_Grow(_Num))

  0004a	83 ff fe	 cmp	 edi, -2			; fffffffeH
  0004d	76 05		 jbe	 SHORT $LN17@assign
  0004f	e8 00 00 00 00	 call	 ?_Xlen@_String_base@std@@SAXXZ ; std::_String_base::_Xlen
$LN17@assign:
  00054	8b 46 18	 mov	 eax, DWORD PTR [esi+24]
  00057	3b c7		 cmp	 eax, edi
  00059	73 1b		 jae	 SHORT $LN16@assign
  0005b	8b 46 14	 mov	 eax, DWORD PTR [esi+20]
  0005e	50		 push	 eax
  0005f	57		 push	 edi
  00060	8b ce		 mov	 ecx, esi
  00062	e8 00 00 00 00	 call	 ?_Copy@?$basic_string@DU?$char_traits@D@std@@V?$allocator@D@2@@std@@IAEXII@Z ; std::basic_string<char,std::char_traits<char>,std::allocator<char> >::_Copy
  00067	85 ff		 test	 edi, edi
$LN87@assign:
  00069	76 66		 jbe	 SHORT $LN86@assign

; 1056 : 			{	// make room and assign new stuff
; 1057 : 			_Traits_helper::copy_s<_Traits>(_Myptr(), _Myres, _Right._Myptr() + _Roff, _Num);

  0006b	83 7b 18 10	 cmp	 DWORD PTR [ebx+24], 16	; 00000010H
  0006f	72 2f		 jb	 SHORT $LN64@assign
  00071	8b 53 04	 mov	 edx, DWORD PTR [ebx+4]
  00074	eb 2d		 jmp	 SHORT $LN65@assign

; 1055 : 		else if (_Grow(_Num))

$LN16@assign:
  00076	85 ff		 test	 edi, edi
  00078	75 ef		 jne	 SHORT $LN87@assign
  0007a	89 7e 14	 mov	 DWORD PTR [esi+20], edi
  0007d	83 f8 10	 cmp	 eax, 16			; 00000010H
  00080	72 0f		 jb	 SHORT $LN58@assign
  00082	8b 46 04	 mov	 eax, DWORD PTR [esi+4]
  00085	5f		 pop	 edi
  00086	c6 00 00	 mov	 BYTE PTR [eax], 0

; 1059 : 			}
; 1060 : 		return (*this);

  00089	8b c6		 mov	 eax, esi
  0008b	5e		 pop	 esi
  0008c	5d		 pop	 ebp
  0008d	5b		 pop	 ebx

; 1061 : 		}

  0008e	c2 0c 00	 ret	 12			; 0000000cH

; 1055 : 		else if (_Grow(_Num))

$LN58@assign:
  00091	8d 46 04	 lea	 eax, DWORD PTR [esi+4]
  00094	5f		 pop	 edi
  00095	c6 00 00	 mov	 BYTE PTR [eax], 0

; 1059 : 			}
; 1060 : 		return (*this);

  00098	8b c6		 mov	 eax, esi
  0009a	5e		 pop	 esi
  0009b	5d		 pop	 ebp
  0009c	5b		 pop	 ebx

; 1061 : 		}

  0009d	c2 0c 00	 ret	 12			; 0000000cH

; 1056 : 			{	// make room and assign new stuff
; 1057 : 			_Traits_helper::copy_s<_Traits>(_Myptr(), _Myres, _Right._Myptr() + _Roff, _Num);

$LN64@assign:
  000a0	8d 53 04	 lea	 edx, DWORD PTR [ebx+4]
$LN65@assign:
  000a3	8b 4e 18	 mov	 ecx, DWORD PTR [esi+24]
  000a6	8d 5e 04	 lea	 ebx, DWORD PTR [esi+4]
  000a9	83 f9 10	 cmp	 ecx, 16			; 00000010H
  000ac	72 04		 jb	 SHORT $LN68@assign
  000ae	8b 03		 mov	 eax, DWORD PTR [ebx]
  000b0	eb 02		 jmp	 SHORT $LN69@assign
$LN68@assign:
  000b2	8b c3		 mov	 eax, ebx
$LN69@assign:
  000b4	57		 push	 edi
  000b5	03 d5		 add	 edx, ebp
  000b7	52		 push	 edx
  000b8	51		 push	 ecx
  000b9	50		 push	 eax
  000ba	e8 00 00 00 00	 call	 _memcpy_s
  000bf	83 c4 10	 add	 esp, 16			; 00000010H

; 1058 : 			_Eos(_Num);

  000c2	83 7e 18 10	 cmp	 DWORD PTR [esi+24], 16	; 00000010H
  000c6	89 7e 14	 mov	 DWORD PTR [esi+20], edi
  000c9	72 02		 jb	 SHORT $LN82@assign
  000cb	8b 1b		 mov	 ebx, DWORD PTR [ebx]
$LN82@assign:
  000cd	c6 04 3b 00	 mov	 BYTE PTR [ebx+edi], 0
$LN86@assign:
  000d1	5f		 pop	 edi

; 1059 : 			}
; 1060 : 		return (*this);

  000d2	8b c6		 mov	 eax, esi
  000d4	5e		 pop	 esi
  000d5	5d		 pop	 ebp
  000d6	5b		 pop	 ebx

; 1061 : 		}

  000d7	c2 0c 00	 ret	 12			; 0000000cH
?assign@?$basic_string@DU?$char_traits@D@std@@V?$allocator@D@2@@std@@QAEAAV12@ABV12@II@Z ENDP ; std::basic_string<char,std::char_traits<char>,std::allocator<char> >::assign
_TEXT	ENDS
PUBLIC	?assign@?$basic_string@_WU?$char_traits@_W@std@@V?$allocator@_W@2@@std@@QAEAAV12@ABV12@II@Z ; std::basic_string<wchar_t,std::char_traits<wchar_t>,std::allocator<wchar_t> >::assign
; Function compile flags: /Ogtpy
;	COMDAT ?assign@?$basic_string@_WU?$char_traits@_W@std@@V?$allocator@_W@2@@std@@QAEAAV12@ABV12@II@Z
_TEXT	SEGMENT
__Right$ = 8						; size = 4
__Roff$ = 12						; size = 4
__Count$ = 16						; size = 4
?assign@?$basic_string@_WU?$char_traits@_W@std@@V?$allocator@_W@2@@std@@QAEAAV12@ABV12@II@Z PROC ; std::basic_string<wchar_t,std::char_traits<wchar_t>,std::allocator<wchar_t> >::assign, COMDAT
; _this$ = ecx

; 1046 : 		{	// assign _Right [_Roff, _Roff + _Count)

  00000	53		 push	 ebx

; 1047 : 		if (_Right.size() < _Roff)

  00001	8b 5c 24 0c	 mov	 ebx, DWORD PTR __Roff$[esp]
  00005	55		 push	 ebp
  00006	8b 6c 24 0c	 mov	 ebp, DWORD PTR __Right$[esp+4]
  0000a	56		 push	 esi
  0000b	57		 push	 edi
  0000c	8b f1		 mov	 esi, ecx
  0000e	39 5d 14	 cmp	 DWORD PTR [ebp+20], ebx
  00011	73 05		 jae	 SHORT $LN5@assign@2

; 1048 : 			_String_base::_Xran();	// _Roff off end

  00013	e8 00 00 00 00	 call	 ?_Xran@_String_base@std@@SAXXZ ; std::_String_base::_Xran
$LN5@assign@2:

; 1049 : 		size_type _Num = _Right.size() - _Roff;

  00018	8b 7d 14	 mov	 edi, DWORD PTR [ebp+20]

; 1050 : 		if (_Count < _Num)

  0001b	8b 44 24 1c	 mov	 eax, DWORD PTR __Count$[esp+12]
  0001f	2b fb		 sub	 edi, ebx
  00021	3b c7		 cmp	 eax, edi
  00023	73 02		 jae	 SHORT $LN4@assign@2

; 1051 : 			_Num = _Count;	// trim _Num to size

  00025	8b f8		 mov	 edi, eax
$LN4@assign@2:

; 1052 : 
; 1053 : 		if (this == &_Right)

  00027	3b f5		 cmp	 esi, ebp
  00029	75 1f		 jne	 SHORT $LN3@assign@2

; 1054 : 			erase((size_type)(_Roff + _Num)), erase(0, _Roff);	// substring

  0002b	6a ff		 push	 -1
  0002d	03 fb		 add	 edi, ebx
  0002f	57		 push	 edi
  00030	8b ce		 mov	 ecx, esi
  00032	e8 00 00 00 00	 call	 ?erase@?$basic_string@_WU?$char_traits@_W@std@@V?$allocator@_W@2@@std@@QAEAAV12@II@Z ; std::basic_string<wchar_t,std::char_traits<wchar_t>,std::allocator<wchar_t> >::erase
  00037	53		 push	 ebx
  00038	6a 00		 push	 0
  0003a	8b ce		 mov	 ecx, esi
  0003c	e8 00 00 00 00	 call	 ?erase@?$basic_string@_WU?$char_traits@_W@std@@V?$allocator@_W@2@@std@@QAEAAV12@II@Z ; std::basic_string<wchar_t,std::char_traits<wchar_t>,std::allocator<wchar_t> >::erase
  00041	5f		 pop	 edi

; 1059 : 			}
; 1060 : 		return (*this);

  00042	8b c6		 mov	 eax, esi
  00044	5e		 pop	 esi
  00045	5d		 pop	 ebp
  00046	5b		 pop	 ebx

; 1061 : 		}

  00047	c2 0c 00	 ret	 12			; 0000000cH
$LN3@assign@2:

; 1055 : 		else if (_Grow(_Num))

  0004a	81 ff fe ff ff
	7f		 cmp	 edi, 2147483646		; 7ffffffeH
  00050	76 05		 jbe	 SHORT $LN17@assign@2
  00052	e8 00 00 00 00	 call	 ?_Xlen@_String_base@std@@SAXXZ ; std::_String_base::_Xlen
$LN17@assign@2:
  00057	8b 46 18	 mov	 eax, DWORD PTR [esi+24]
  0005a	3b c7		 cmp	 eax, edi
  0005c	73 1b		 jae	 SHORT $LN16@assign@2
  0005e	8b 46 14	 mov	 eax, DWORD PTR [esi+20]
  00061	50		 push	 eax
  00062	57		 push	 edi
  00063	8b ce		 mov	 ecx, esi
  00065	e8 00 00 00 00	 call	 ?_Copy@?$basic_string@_WU?$char_traits@_W@std@@V?$allocator@_W@2@@std@@IAEXII@Z ; std::basic_string<wchar_t,std::char_traits<wchar_t>,std::allocator<wchar_t> >::_Copy
  0006a	85 ff		 test	 edi, edi
$LN91@assign@2:
  0006c	76 7a		 jbe	 SHORT $LN90@assign@2

; 1056 : 			{	// make room and assign new stuff
; 1057 : 			_Traits_helper::copy_s<_Traits>(_Myptr(), _Myres, _Right._Myptr() + _Roff, _Num);

  0006e	83 7d 18 08	 cmp	 DWORD PTR [ebp+24], 8
  00072	72 33		 jb	 SHORT $LN66@assign@2
  00074	8b 4d 04	 mov	 ecx, DWORD PTR [ebp+4]
  00077	eb 31		 jmp	 SHORT $LN67@assign@2

; 1055 : 		else if (_Grow(_Num))

$LN16@assign@2:
  00079	85 ff		 test	 edi, edi
  0007b	75 ef		 jne	 SHORT $LN91@assign@2
  0007d	89 7e 14	 mov	 DWORD PTR [esi+20], edi
  00080	83 f8 08	 cmp	 eax, 8
  00083	72 11		 jb	 SHORT $LN60@assign@2
  00085	8b 46 04	 mov	 eax, DWORD PTR [esi+4]
  00088	33 c9		 xor	 ecx, ecx
  0008a	5f		 pop	 edi
  0008b	66 89 08	 mov	 WORD PTR [eax], cx

; 1059 : 			}
; 1060 : 		return (*this);

  0008e	8b c6		 mov	 eax, esi
  00090	5e		 pop	 esi
  00091	5d		 pop	 ebp
  00092	5b		 pop	 ebx

; 1061 : 		}

  00093	c2 0c 00	 ret	 12			; 0000000cH

; 1055 : 		else if (_Grow(_Num))

$LN60@assign@2:
  00096	8d 46 04	 lea	 eax, DWORD PTR [esi+4]
  00099	33 c9		 xor	 ecx, ecx
  0009b	5f		 pop	 edi
  0009c	66 89 08	 mov	 WORD PTR [eax], cx

; 1059 : 			}
; 1060 : 		return (*this);

  0009f	8b c6		 mov	 eax, esi
  000a1	5e		 pop	 esi
  000a2	5d		 pop	 ebp
  000a3	5b		 pop	 ebx

; 1061 : 		}

  000a4	c2 0c 00	 ret	 12			; 0000000cH

; 1056 : 			{	// make room and assign new stuff
; 1057 : 			_Traits_helper::copy_s<_Traits>(_Myptr(), _Myres, _Right._Myptr() + _Roff, _Num);

$LN66@assign@2:
  000a7	8d 4d 04	 lea	 ecx, DWORD PTR [ebp+4]
$LN67@assign@2:
  000aa	83 7e 18 08	 cmp	 DWORD PTR [esi+24], 8
  000ae	8d 6e 04	 lea	 ebp, DWORD PTR [esi+4]
  000b1	72 05		 jb	 SHORT $LN70@assign@2
  000b3	8b 45 00	 mov	 eax, DWORD PTR [ebp]
  000b6	eb 02		 jmp	 SHORT $LN71@assign@2
$LN70@assign@2:
  000b8	8b c5		 mov	 eax, ebp
$LN71@assign@2:
  000ba	8b 54 24 18	 mov	 edx, DWORD PTR __Roff$[esp+12]
  000be	8d 0c 51	 lea	 ecx, DWORD PTR [ecx+edx*2]
  000c1	8d 1c 3f	 lea	 ebx, DWORD PTR [edi+edi]
  000c4	53		 push	 ebx
  000c5	51		 push	 ecx
  000c6	8b 4e 18	 mov	 ecx, DWORD PTR [esi+24]
  000c9	8d 14 09	 lea	 edx, DWORD PTR [ecx+ecx]
  000cc	52		 push	 edx
  000cd	50		 push	 eax
  000ce	e8 00 00 00 00	 call	 _memcpy_s
  000d3	83 c4 10	 add	 esp, 16			; 00000010H

; 1058 : 			_Eos(_Num);

  000d6	83 7e 18 08	 cmp	 DWORD PTR [esi+24], 8
  000da	89 7e 14	 mov	 DWORD PTR [esi+20], edi
  000dd	72 03		 jb	 SHORT $LN86@assign@2
  000df	8b 6d 00	 mov	 ebp, DWORD PTR [ebp]
$LN86@assign@2:
  000e2	33 c0		 xor	 eax, eax
  000e4	66 89 04 2b	 mov	 WORD PTR [ebx+ebp], ax
$LN90@assign@2:
  000e8	5f		 pop	 edi

; 1059 : 			}
; 1060 : 		return (*this);

  000e9	8b c6		 mov	 eax, esi
  000eb	5e		 pop	 esi
  000ec	5d		 pop	 ebp
  000ed	5b		 pop	 ebx

; 1061 : 		}

  000ee	c2 0c 00	 ret	 12			; 0000000cH
?assign@?$basic_string@_WU?$char_traits@_W@std@@V?$allocator@_W@2@@std@@QAEAAV12@ABV12@II@Z ENDP ; std::basic_string<wchar_t,std::char_traits<wchar_t>,std::allocator<wchar_t> >::assign
_TEXT	ENDS
PUBLIC	?assign@?$basic_string@DU?$char_traits@D@std@@V?$allocator@D@2@@std@@QAEAAV12@PBDI@Z ; std::basic_string<char,std::char_traits<char>,std::allocator<char> >::assign
; Function compile flags: /Ogtpy
;	COMDAT ?assign@?$basic_string@DU?$char_traits@D@std@@V?$allocator@D@2@@std@@QAEAAV12@PBDI@Z
_TEXT	SEGMENT
__Ptr$ = 8						; size = 4
__Count$ = 12						; size = 4
?assign@?$basic_string@DU?$char_traits@D@std@@V?$allocator@D@2@@std@@QAEAAV12@PBDI@Z PROC ; std::basic_string<char,std::char_traits<char>,std::allocator<char> >::assign, COMDAT
; _this$ = ecx

; 1064 : 		{	// assign [_Ptr, _Ptr + _Count)

  00000	55		 push	 ebp

; 1065 : 
; 1066 :  #if _HAS_ITERATOR_DEBUGGING
; 1067 : 		if (_Count != 0)
; 1068 : 			_DEBUG_POINTER(_Ptr);
; 1069 :  #endif /* _HAS_ITERATOR_DEBUGGING */
; 1070 : 
; 1071 : 		if (_Inside(_Ptr))

  00001	8b 6c 24 08	 mov	 ebp, DWORD PTR __Ptr$[esp]
  00005	56		 push	 esi
  00006	57		 push	 edi
  00007	8b f1		 mov	 esi, ecx
  00009	85 ed		 test	 ebp, ebp
  0000b	74 46		 je	 SHORT $LN93@assign@3
  0000d	8b 56 18	 mov	 edx, DWORD PTR [esi+24]
  00010	8d 46 04	 lea	 eax, DWORD PTR [esi+4]
  00013	83 fa 10	 cmp	 edx, 16			; 00000010H
  00016	72 04		 jb	 SHORT $LN12@assign@3
  00018	8b 08		 mov	 ecx, DWORD PTR [eax]
  0001a	eb 02		 jmp	 SHORT $LN13@assign@3
$LN12@assign@3:
  0001c	8b c8		 mov	 ecx, eax
$LN13@assign@3:
  0001e	3b e9		 cmp	 ebp, ecx
  00020	72 31		 jb	 SHORT $LN93@assign@3
  00022	83 fa 10	 cmp	 edx, 16			; 00000010H
  00025	72 04		 jb	 SHORT $LN16@assign@3
  00027	8b 08		 mov	 ecx, DWORD PTR [eax]
  00029	eb 02		 jmp	 SHORT $LN17@assign@3
$LN16@assign@3:
  0002b	8b c8		 mov	 ecx, eax
$LN17@assign@3:
  0002d	8b 7e 14	 mov	 edi, DWORD PTR [esi+20]
  00030	03 f9		 add	 edi, ecx
  00032	3b fd		 cmp	 edi, ebp
  00034	76 1d		 jbe	 SHORT $LN93@assign@3

; 1072 : 			return (assign(*this, _Ptr - _Myptr(), _Count));	// substring

  00036	83 fa 10	 cmp	 edx, 16			; 00000010H
  00039	72 02		 jb	 SHORT $LN20@assign@3
  0003b	8b 00		 mov	 eax, DWORD PTR [eax]
$LN20@assign@3:
  0003d	8b 4c 24 14	 mov	 ecx, DWORD PTR __Count$[esp+8]
  00041	51		 push	 ecx
  00042	2b e8		 sub	 ebp, eax
  00044	55		 push	 ebp
  00045	56		 push	 esi
  00046	8b ce		 mov	 ecx, esi
  00048	e8 00 00 00 00	 call	 ?assign@?$basic_string@DU?$char_traits@D@std@@V?$allocator@D@2@@std@@QAEAAV12@ABV12@II@Z ; std::basic_string<char,std::char_traits<char>,std::allocator<char> >::assign
  0004d	5f		 pop	 edi
  0004e	5e		 pop	 esi
  0004f	5d		 pop	 ebp

; 1080 : 		}

  00050	c2 08 00	 ret	 8
$LN93@assign@3:

; 1073 : 
; 1074 : 		if (_Grow(_Count))

  00053	8b 7c 24 14	 mov	 edi, DWORD PTR __Count$[esp+8]
  00057	83 ff fe	 cmp	 edi, -2			; fffffffeH
  0005a	76 05		 jbe	 SHORT $LN27@assign@3
  0005c	e8 00 00 00 00	 call	 ?_Xlen@_String_base@std@@SAXXZ ; std::_String_base::_Xlen
$LN27@assign@3:
  00061	8b 46 18	 mov	 eax, DWORD PTR [esi+24]
  00064	3b c7		 cmp	 eax, edi
  00066	73 20		 jae	 SHORT $LN26@assign@3
  00068	8b 56 14	 mov	 edx, DWORD PTR [esi+20]
  0006b	52		 push	 edx
  0006c	57		 push	 edi
  0006d	8b ce		 mov	 ecx, esi
  0006f	e8 00 00 00 00	 call	 ?_Copy@?$basic_string@DU?$char_traits@D@std@@V?$allocator@D@2@@std@@IAEXII@Z ; std::basic_string<char,std::char_traits<char>,std::allocator<char> >::_Copy
  00074	85 ff		 test	 edi, edi
$LN94@assign@3:
  00076	76 56		 jbe	 SHORT $LN90@assign@3

; 1075 : 			{	// make room and assign new stuff
; 1076 : 			_Traits_helper::copy_s<_Traits>(_Myptr(), _Myres, _Ptr, _Count);

  00078	8b 4e 18	 mov	 ecx, DWORD PTR [esi+24]
  0007b	53		 push	 ebx
  0007c	8d 5e 04	 lea	 ebx, DWORD PTR [esi+4]
  0007f	83 f9 10	 cmp	 ecx, 16			; 00000010H
  00082	72 2c		 jb	 SHORT $LN74@assign@3
  00084	8b 03		 mov	 eax, DWORD PTR [ebx]
  00086	eb 2a		 jmp	 SHORT $LN75@assign@3

; 1073 : 
; 1074 : 		if (_Grow(_Count))

$LN26@assign@3:
  00088	85 ff		 test	 edi, edi
  0008a	75 ea		 jne	 SHORT $LN94@assign@3
  0008c	89 7e 14	 mov	 DWORD PTR [esi+20], edi
  0008f	83 f8 10	 cmp	 eax, 16			; 00000010H
  00092	72 0e		 jb	 SHORT $LN68@assign@3
  00094	8b 46 04	 mov	 eax, DWORD PTR [esi+4]
  00097	5f		 pop	 edi
  00098	c6 00 00	 mov	 BYTE PTR [eax], 0

; 1078 : 			}
; 1079 : 		return (*this);

  0009b	8b c6		 mov	 eax, esi
  0009d	5e		 pop	 esi
  0009e	5d		 pop	 ebp

; 1080 : 		}

  0009f	c2 08 00	 ret	 8

; 1073 : 
; 1074 : 		if (_Grow(_Count))

$LN68@assign@3:
  000a2	8d 46 04	 lea	 eax, DWORD PTR [esi+4]
  000a5	5f		 pop	 edi
  000a6	c6 00 00	 mov	 BYTE PTR [eax], 0

; 1078 : 			}
; 1079 : 		return (*this);

  000a9	8b c6		 mov	 eax, esi
  000ab	5e		 pop	 esi
  000ac	5d		 pop	 ebp

; 1080 : 		}

  000ad	c2 08 00	 ret	 8

; 1075 : 			{	// make room and assign new stuff
; 1076 : 			_Traits_helper::copy_s<_Traits>(_Myptr(), _Myres, _Ptr, _Count);

$LN74@assign@3:
  000b0	8b c3		 mov	 eax, ebx
$LN75@assign@3:
  000b2	57		 push	 edi
  000b3	55		 push	 ebp
  000b4	51		 push	 ecx
  000b5	50		 push	 eax
  000b6	e8 00 00 00 00	 call	 _memcpy_s
  000bb	83 c4 10	 add	 esp, 16			; 00000010H

; 1077 : 			_Eos(_Count);

  000be	83 7e 18 10	 cmp	 DWORD PTR [esi+24], 16	; 00000010H
  000c2	89 7e 14	 mov	 DWORD PTR [esi+20], edi
  000c5	72 02		 jb	 SHORT $LN88@assign@3
  000c7	8b 1b		 mov	 ebx, DWORD PTR [ebx]
$LN88@assign@3:
  000c9	c6 04 3b 00	 mov	 BYTE PTR [ebx+edi], 0
  000cd	5b		 pop	 ebx
$LN90@assign@3:
  000ce	5f		 pop	 edi

; 1078 : 			}
; 1079 : 		return (*this);

  000cf	8b c6		 mov	 eax, esi
  000d1	5e		 pop	 esi
  000d2	5d		 pop	 ebp

; 1080 : 		}

  000d3	c2 08 00	 ret	 8
?assign@?$basic_string@DU?$char_traits@D@std@@V?$allocator@D@2@@std@@QAEAAV12@PBDI@Z ENDP ; std::basic_string<char,std::char_traits<char>,std::allocator<char> >::assign
_TEXT	ENDS
PUBLIC	?assign@?$basic_string@_WU?$char_traits@_W@std@@V?$allocator@_W@2@@std@@QAEAAV12@PB_WI@Z ; std::basic_string<wchar_t,std::char_traits<wchar_t>,std::allocator<wchar_t> >::assign
; Function compile flags: /Ogtpy
;	COMDAT ?assign@?$basic_string@_WU?$char_traits@_W@std@@V?$allocator@_W@2@@std@@QAEAAV12@PB_WI@Z
_TEXT	SEGMENT
__Ptr$ = 8						; size = 4
__Count$ = 12						; size = 4
?assign@?$basic_string@_WU?$char_traits@_W@std@@V?$allocator@_W@2@@std@@QAEAAV12@PB_WI@Z PROC ; std::basic_string<wchar_t,std::char_traits<wchar_t>,std::allocator<wchar_t> >::assign, COMDAT
; _this$ = ecx

; 1064 : 		{	// assign [_Ptr, _Ptr + _Count)

  00000	53		 push	 ebx
  00001	56		 push	 esi
  00002	8b f1		 mov	 esi, ecx

; 1065 : 
; 1066 :  #if _HAS_ITERATOR_DEBUGGING
; 1067 : 		if (_Count != 0)
; 1068 : 			_DEBUG_POINTER(_Ptr);
; 1069 :  #endif /* _HAS_ITERATOR_DEBUGGING */
; 1070 : 
; 1071 : 		if (_Inside(_Ptr))

  00004	8b 4c 24 0c	 mov	 ecx, DWORD PTR __Ptr$[esp+4]
  00008	57		 push	 edi
  00009	85 c9		 test	 ecx, ecx
  0000b	74 49		 je	 SHORT $LN97@assign@4
  0000d	8b 7e 18	 mov	 edi, DWORD PTR [esi+24]
  00010	8d 46 04	 lea	 eax, DWORD PTR [esi+4]
  00013	83 ff 08	 cmp	 edi, 8
  00016	72 04		 jb	 SHORT $LN12@assign@4
  00018	8b 10		 mov	 edx, DWORD PTR [eax]
  0001a	eb 02		 jmp	 SHORT $LN13@assign@4
$LN12@assign@4:
  0001c	8b d0		 mov	 edx, eax
$LN13@assign@4:
  0001e	3b ca		 cmp	 ecx, edx
  00020	72 34		 jb	 SHORT $LN97@assign@4
  00022	83 ff 08	 cmp	 edi, 8
  00025	72 04		 jb	 SHORT $LN16@assign@4
  00027	8b 10		 mov	 edx, DWORD PTR [eax]
  00029	eb 02		 jmp	 SHORT $LN17@assign@4
$LN16@assign@4:
  0002b	8b d0		 mov	 edx, eax
$LN17@assign@4:
  0002d	8b 5e 14	 mov	 ebx, DWORD PTR [esi+20]
  00030	8d 14 5a	 lea	 edx, DWORD PTR [edx+ebx*2]
  00033	3b d1		 cmp	 edx, ecx
  00035	76 1f		 jbe	 SHORT $LN97@assign@4

; 1072 : 			return (assign(*this, _Ptr - _Myptr(), _Count));	// substring

  00037	83 ff 08	 cmp	 edi, 8
  0003a	72 02		 jb	 SHORT $LN20@assign@4
  0003c	8b 00		 mov	 eax, DWORD PTR [eax]
$LN20@assign@4:
  0003e	8b 54 24 14	 mov	 edx, DWORD PTR __Count$[esp+8]
  00042	2b c8		 sub	 ecx, eax
  00044	52		 push	 edx
  00045	d1 f9		 sar	 ecx, 1
  00047	51		 push	 ecx
  00048	56		 push	 esi
  00049	8b ce		 mov	 ecx, esi
  0004b	e8 00 00 00 00	 call	 ?assign@?$basic_string@_WU?$char_traits@_W@std@@V?$allocator@_W@2@@std@@QAEAAV12@ABV12@II@Z ; std::basic_string<wchar_t,std::char_traits<wchar_t>,std::allocator<wchar_t> >::assign
  00050	5f		 pop	 edi
  00051	5e		 pop	 esi
  00052	5b		 pop	 ebx

; 1080 : 		}

  00053	c2 08 00	 ret	 8
$LN97@assign@4:

; 1073 : 
; 1074 : 		if (_Grow(_Count))

  00056	8b 7c 24 14	 mov	 edi, DWORD PTR __Count$[esp+8]
  0005a	81 ff fe ff ff
	7f		 cmp	 edi, 2147483646		; 7ffffffeH
  00060	76 05		 jbe	 SHORT $LN27@assign@4
  00062	e8 00 00 00 00	 call	 ?_Xlen@_String_base@std@@SAXXZ ; std::_String_base::_Xlen
$LN27@assign@4:
  00067	8b 46 18	 mov	 eax, DWORD PTR [esi+24]
  0006a	3b c7		 cmp	 eax, edi
  0006c	73 21		 jae	 SHORT $LN26@assign@4
  0006e	8b 46 14	 mov	 eax, DWORD PTR [esi+20]
  00071	50		 push	 eax
  00072	57		 push	 edi
  00073	8b ce		 mov	 ecx, esi
  00075	e8 00 00 00 00	 call	 ?_Copy@?$basic_string@_WU?$char_traits@_W@std@@V?$allocator@_W@2@@std@@IAEXII@Z ; std::basic_string<wchar_t,std::char_traits<wchar_t>,std::allocator<wchar_t> >::_Copy
  0007a	85 ff		 test	 edi, edi
$LN98@assign@4:
  0007c	76 67		 jbe	 SHORT $LN94@assign@4

; 1075 : 			{	// make room and assign new stuff
; 1076 : 			_Traits_helper::copy_s<_Traits>(_Myptr(), _Myres, _Ptr, _Count);

  0007e	8b 4e 18	 mov	 ecx, DWORD PTR [esi+24]
  00081	55		 push	 ebp
  00082	8d 6e 04	 lea	 ebp, DWORD PTR [esi+4]
  00085	83 f9 08	 cmp	 ecx, 8
  00088	72 31		 jb	 SHORT $LN76@assign@4
  0008a	8b 45 00	 mov	 eax, DWORD PTR [ebp]
  0008d	eb 2e		 jmp	 SHORT $LN77@assign@4

; 1073 : 
; 1074 : 		if (_Grow(_Count))

$LN26@assign@4:
  0008f	85 ff		 test	 edi, edi
  00091	75 e9		 jne	 SHORT $LN98@assign@4
  00093	89 7e 14	 mov	 DWORD PTR [esi+20], edi
  00096	83 f8 08	 cmp	 eax, 8
  00099	72 10		 jb	 SHORT $LN70@assign@4
  0009b	8b 46 04	 mov	 eax, DWORD PTR [esi+4]
  0009e	33 c9		 xor	 ecx, ecx
  000a0	5f		 pop	 edi
  000a1	66 89 08	 mov	 WORD PTR [eax], cx

; 1078 : 			}
; 1079 : 		return (*this);

  000a4	8b c6		 mov	 eax, esi
  000a6	5e		 pop	 esi
  000a7	5b		 pop	 ebx

; 1080 : 		}

  000a8	c2 08 00	 ret	 8

; 1073 : 
; 1074 : 		if (_Grow(_Count))

$LN70@assign@4:
  000ab	8d 46 04	 lea	 eax, DWORD PTR [esi+4]
  000ae	33 c9		 xor	 ecx, ecx
  000b0	5f		 pop	 edi
  000b1	66 89 08	 mov	 WORD PTR [eax], cx

; 1078 : 			}
; 1079 : 		return (*this);

  000b4	8b c6		 mov	 eax, esi
  000b6	5e		 pop	 esi
  000b7	5b		 pop	 ebx

; 1080 : 		}

  000b8	c2 08 00	 ret	 8

; 1075 : 			{	// make room and assign new stuff
; 1076 : 			_Traits_helper::copy_s<_Traits>(_Myptr(), _Myres, _Ptr, _Count);

$LN76@assign@4:
  000bb	8b c5		 mov	 eax, ebp
$LN77@assign@4:
  000bd	8b 54 24 14	 mov	 edx, DWORD PTR __Ptr$[esp+12]
  000c1	8d 1c 3f	 lea	 ebx, DWORD PTR [edi+edi]
  000c4	53		 push	 ebx
  000c5	52		 push	 edx
  000c6	03 c9		 add	 ecx, ecx
  000c8	51		 push	 ecx
  000c9	50		 push	 eax
  000ca	e8 00 00 00 00	 call	 _memcpy_s
  000cf	83 c4 10	 add	 esp, 16			; 00000010H

; 1077 : 			_Eos(_Count);

  000d2	83 7e 18 08	 cmp	 DWORD PTR [esi+24], 8
  000d6	89 7e 14	 mov	 DWORD PTR [esi+20], edi
  000d9	72 03		 jb	 SHORT $LN92@assign@4
  000db	8b 6d 00	 mov	 ebp, DWORD PTR [ebp]
$LN92@assign@4:
  000de	33 d2		 xor	 edx, edx
  000e0	66 89 14 2b	 mov	 WORD PTR [ebx+ebp], dx
  000e4	5d		 pop	 ebp
$LN94@assign@4:
  000e5	5f		 pop	 edi

; 1078 : 			}
; 1079 : 		return (*this);

  000e6	8b c6		 mov	 eax, esi
  000e8	5e		 pop	 esi
  000e9	5b		 pop	 ebx

; 1080 : 		}

  000ea	c2 08 00	 ret	 8
?assign@?$basic_string@_WU?$char_traits@_W@std@@V?$allocator@_W@2@@std@@QAEAAV12@PB_WI@Z ENDP ; std::basic_string<wchar_t,std::char_traits<wchar_t>,std::allocator<wchar_t> >::assign
_TEXT	ENDS
PUBLIC	??0?$basic_string@DU?$char_traits@D@std@@V?$allocator@D@2@@std@@QAE@ABV01@@Z ; std::basic_string<char,std::char_traits<char>,std::allocator<char> >::basic_string<char,std::char_traits<char>,std::allocator<char> >
; Function compile flags: /Ogtpy
;	COMDAT ??0?$basic_string@DU?$char_traits@D@std@@V?$allocator@D@2@@std@@QAE@ABV01@@Z
_TEXT	SEGMENT
__Right$ = 8						; size = 4
??0?$basic_string@DU?$char_traits@D@std@@V?$allocator@D@2@@std@@QAE@ABV01@@Z PROC ; std::basic_string<char,std::char_traits<char>,std::allocator<char> >::basic_string<char,std::char_traits<char>,std::allocator<char> >, COMDAT
; _this$ = ecx

; 721  : 		{	// construct by copying _Right

  00000	56		 push	 esi

; 722  : 		_Tidy();

  00001	33 c0		 xor	 eax, eax
  00003	8b f1		 mov	 esi, ecx

; 723  : 		assign(_Right, 0, npos);

  00005	6a ff		 push	 -1
  00007	89 46 14	 mov	 DWORD PTR [esi+20], eax
  0000a	c7 46 18 0f 00
	00 00		 mov	 DWORD PTR [esi+24], 15	; 0000000fH
  00011	50		 push	 eax
  00012	88 46 04	 mov	 BYTE PTR [esi+4], al
  00015	8b 44 24 10	 mov	 eax, DWORD PTR __Right$[esp+8]
  00019	50		 push	 eax
  0001a	e8 00 00 00 00	 call	 ?assign@?$basic_string@DU?$char_traits@D@std@@V?$allocator@D@2@@std@@QAEAAV12@ABV12@II@Z ; std::basic_string<char,std::char_traits<char>,std::allocator<char> >::assign

; 724  : 		}

  0001f	8b c6		 mov	 eax, esi
  00021	5e		 pop	 esi
  00022	c2 04 00	 ret	 4
??0?$basic_string@DU?$char_traits@D@std@@V?$allocator@D@2@@std@@QAE@ABV01@@Z ENDP ; std::basic_string<char,std::char_traits<char>,std::allocator<char> >::basic_string<char,std::char_traits<char>,std::allocator<char> >
_TEXT	ENDS
PUBLIC	??Y?$basic_string@DU?$char_traits@D@std@@V?$allocator@D@2@@std@@QAEAAV01@D@Z ; std::basic_string<char,std::char_traits<char>,std::allocator<char> >::operator+=
; Function compile flags: /Ogtpy
;	COMDAT ??Y?$basic_string@DU?$char_traits@D@std@@V?$allocator@D@2@@std@@QAEAAV01@D@Z
_TEXT	SEGMENT
__Ch$ = 8						; size = 1
??Y?$basic_string@DU?$char_traits@D@std@@V?$allocator@D@2@@std@@QAEAAV01@D@Z PROC ; std::basic_string<char,std::char_traits<char>,std::allocator<char> >::operator+=, COMDAT
; _this$ = ecx

; 941  : 		return (append((size_type)1, _Ch));

  00000	8b 44 24 04	 mov	 eax, DWORD PTR __Ch$[esp-4]
  00004	50		 push	 eax
  00005	6a 01		 push	 1
  00007	e8 00 00 00 00	 call	 ?append@?$basic_string@DU?$char_traits@D@std@@V?$allocator@D@2@@std@@QAEAAV12@ID@Z ; std::basic_string<char,std::char_traits<char>,std::allocator<char> >::append

; 942  : 		}

  0000c	c2 04 00	 ret	 4
??Y?$basic_string@DU?$char_traits@D@std@@V?$allocator@D@2@@std@@QAEAAV01@D@Z ENDP ; std::basic_string<char,std::char_traits<char>,std::allocator<char> >::operator+=
_TEXT	ENDS
PUBLIC	?assign@?$basic_string@DU?$char_traits@D@std@@V?$allocator@D@2@@std@@QAEAAV12@PBD@Z ; std::basic_string<char,std::char_traits<char>,std::allocator<char> >::assign
; Function compile flags: /Ogtpy
;	COMDAT ?assign@?$basic_string@DU?$char_traits@D@std@@V?$allocator@D@2@@std@@QAEAAV12@PBD@Z
_TEXT	SEGMENT
__Ptr$ = 8						; size = 4
?assign@?$basic_string@DU?$char_traits@D@std@@V?$allocator@D@2@@std@@QAEAAV12@PBD@Z PROC ; std::basic_string<char,std::char_traits<char>,std::allocator<char> >::assign, COMDAT
; _this$ = ecx

; 1083 : 		{	// assign [_Ptr, <null>)

  00000	56		 push	 esi

; 1084 : 		_DEBUG_POINTER(_Ptr);
; 1085 : 		return (assign(_Ptr, _Traits::length(_Ptr)));

  00001	8b 74 24 08	 mov	 esi, DWORD PTR __Ptr$[esp]
  00005	8b c6		 mov	 eax, esi
  00007	57		 push	 edi
  00008	8d 78 01	 lea	 edi, DWORD PTR [eax+1]
  0000b	eb 03 8d 49 00	 npad	 5
$LL5@assign@5:
  00010	8a 10		 mov	 dl, BYTE PTR [eax]
  00012	40		 inc	 eax
  00013	84 d2		 test	 dl, dl
  00015	75 f9		 jne	 SHORT $LL5@assign@5
  00017	2b c7		 sub	 eax, edi
  00019	50		 push	 eax
  0001a	56		 push	 esi
  0001b	e8 00 00 00 00	 call	 ?assign@?$basic_string@DU?$char_traits@D@std@@V?$allocator@D@2@@std@@QAEAAV12@PBDI@Z ; std::basic_string<char,std::char_traits<char>,std::allocator<char> >::assign
  00020	5f		 pop	 edi
  00021	5e		 pop	 esi

; 1086 : 		}

  00022	c2 04 00	 ret	 4
?assign@?$basic_string@DU?$char_traits@D@std@@V?$allocator@D@2@@std@@QAEAAV12@PBD@Z ENDP ; std::basic_string<char,std::char_traits<char>,std::allocator<char> >::assign
_TEXT	ENDS
PUBLIC	?assign@?$basic_string@_WU?$char_traits@_W@std@@V?$allocator@_W@2@@std@@QAEAAV12@PB_W@Z ; std::basic_string<wchar_t,std::char_traits<wchar_t>,std::allocator<wchar_t> >::assign
; Function compile flags: /Ogtpy
;	COMDAT ?assign@?$basic_string@_WU?$char_traits@_W@std@@V?$allocator@_W@2@@std@@QAEAAV12@PB_W@Z
_TEXT	SEGMENT
__Ptr$ = 8						; size = 4
?assign@?$basic_string@_WU?$char_traits@_W@std@@V?$allocator@_W@2@@std@@QAEAAV12@PB_W@Z PROC ; std::basic_string<wchar_t,std::char_traits<wchar_t>,std::allocator<wchar_t> >::assign, COMDAT
; _this$ = ecx

; 1083 : 		{	// assign [_Ptr, <null>)

  00000	56		 push	 esi

; 1084 : 		_DEBUG_POINTER(_Ptr);
; 1085 : 		return (assign(_Ptr, _Traits::length(_Ptr)));

  00001	8b 74 24 08	 mov	 esi, DWORD PTR __Ptr$[esp]
  00005	8b c6		 mov	 eax, esi
  00007	57		 push	 edi
  00008	8d 78 02	 lea	 edi, DWORD PTR [eax+2]
  0000b	eb 03 8d 49 00	 npad	 5
$LL5@assign@6:
  00010	66 8b 10	 mov	 dx, WORD PTR [eax]
  00013	83 c0 02	 add	 eax, 2
  00016	66 85 d2	 test	 dx, dx
  00019	75 f5		 jne	 SHORT $LL5@assign@6
  0001b	2b c7		 sub	 eax, edi
  0001d	d1 f8		 sar	 eax, 1
  0001f	50		 push	 eax
  00020	56		 push	 esi
  00021	e8 00 00 00 00	 call	 ?assign@?$basic_string@_WU?$char_traits@_W@std@@V?$allocator@_W@2@@std@@QAEAAV12@PB_WI@Z ; std::basic_string<wchar_t,std::char_traits<wchar_t>,std::allocator<wchar_t> >::assign
  00026	5f		 pop	 edi
  00027	5e		 pop	 esi

; 1086 : 		}

  00028	c2 04 00	 ret	 4
?assign@?$basic_string@_WU?$char_traits@_W@std@@V?$allocator@_W@2@@std@@QAEAAV12@PB_W@Z ENDP ; std::basic_string<wchar_t,std::char_traits<wchar_t>,std::allocator<wchar_t> >::assign
_TEXT	ENDS
PUBLIC	??_7?$ContainerForward@V?$basic_string@DU?$char_traits@D@std@@V?$allocator@D@2@@std@@@ForEach@CipherShed@@6B@ ; CipherShed::ForEach::ContainerForward<std::basic_string<char,std::char_traits<char>,std::allocator<char> > >::`vftable'
PUBLIC	??0?$ContainerForward@V?$basic_string@DU?$char_traits@D@std@@V?$allocator@D@2@@std@@@ForEach@CipherShed@@QAE@ABV?$basic_string@DU?$char_traits@D@std@@V?$allocator@D@2@@std@@@Z ; CipherShed::ForEach::ContainerForward<std::basic_string<char,std::char_traits<char>,std::allocator<char> > >::ContainerForward<std::basic_string<char,std::char_traits<char>,std::allocator<char> > >
PUBLIC	??_R4?$ContainerForward@V?$basic_string@DU?$char_traits@D@std@@V?$allocator@D@2@@std@@@ForEach@CipherShed@@6B@ ; CipherShed::ForEach::ContainerForward<std::basic_string<char,std::char_traits<char>,std::allocator<char> > >::`RTTI Complete Object Locator'
PUBLIC	??_R0?AU?$ContainerForward@V?$basic_string@DU?$char_traits@D@std@@V?$allocator@D@2@@std@@@ForEach@CipherShed@@@8 ; CipherShed::ForEach::ContainerForward<std::basic_string<char,std::char_traits<char>,std::allocator<char> > > `RTTI Type Descriptor'
PUBLIC	??_R3?$ContainerForward@V?$basic_string@DU?$char_traits@D@std@@V?$allocator@D@2@@std@@@ForEach@CipherShed@@8 ; CipherShed::ForEach::ContainerForward<std::basic_string<char,std::char_traits<char>,std::allocator<char> > >::`RTTI Class Hierarchy Descriptor'
PUBLIC	??_R2?$ContainerForward@V?$basic_string@DU?$char_traits@D@std@@V?$allocator@D@2@@std@@@ForEach@CipherShed@@8 ; CipherShed::ForEach::ContainerForward<std::basic_string<char,std::char_traits<char>,std::allocator<char> > >::`RTTI Base Class Array'
PUBLIC	??_R1A@?0A@EA@?$ContainerForward@V?$basic_string@DU?$char_traits@D@std@@V?$allocator@D@2@@std@@@ForEach@CipherShed@@8 ; CipherShed::ForEach::ContainerForward<std::basic_string<char,std::char_traits<char>,std::allocator<char> > >::`RTTI Base Class Descriptor at (0,-1,0,64)'
PUBLIC	?IsNotEnd@?$ContainerForward@V?$basic_string@DU?$char_traits@D@std@@V?$allocator@D@2@@std@@@ForEach@CipherShed@@UBE_NXZ ; CipherShed::ForEach::ContainerForward<std::basic_string<char,std::char_traits<char>,std::allocator<char> > >::IsNotEnd
PUBLIC	?Next@?$ContainerForward@V?$basic_string@DU?$char_traits@D@std@@V?$allocator@D@2@@std@@@ForEach@CipherShed@@UBEXXZ ; CipherShed::ForEach::ContainerForward<std::basic_string<char,std::char_traits<char>,std::allocator<char> > >::Next
EXTRN	??_E?$ContainerForward@V?$basic_string@DU?$char_traits@D@std@@V?$allocator@D@2@@std@@@ForEach@CipherShed@@UAEPAXI@Z:PROC ; CipherShed::ForEach::ContainerForward<std::basic_string<char,std::char_traits<char>,std::allocator<char> > >::`vector deleting destructor'
;	COMDAT ??_R1A@?0A@EA@?$ContainerForward@V?$basic_string@DU?$char_traits@D@std@@V?$allocator@D@2@@std@@@ForEach@CipherShed@@8
rdata$r	SEGMENT
??_R1A@?0A@EA@?$ContainerForward@V?$basic_string@DU?$char_traits@D@std@@V?$allocator@D@2@@std@@@ForEach@CipherShed@@8 DD FLAT:??_R0?AU?$ContainerForward@V?$basic_string@DU?$char_traits@D@std@@V?$allocator@D@2@@std@@@ForEach@CipherShed@@@8 ; CipherShed::ForEach::ContainerForward<std::basic_string<char,std::char_traits<char>,std::allocator<char> > >::`RTTI Base Class Descriptor at (0,-1,0,64)'
	DD	01H
	DD	00H
	DD	0ffffffffH
	DD	00H
	DD	040H
	DD	FLAT:??_R3?$ContainerForward@V?$basic_string@DU?$char_traits@D@std@@V?$allocator@D@2@@std@@@ForEach@CipherShed@@8
rdata$r	ENDS
;	COMDAT ??_R2?$ContainerForward@V?$basic_string@DU?$char_traits@D@std@@V?$allocator@D@2@@std@@@ForEach@CipherShed@@8
rdata$r	SEGMENT
??_R2?$ContainerForward@V?$basic_string@DU?$char_traits@D@std@@V?$allocator@D@2@@std@@@ForEach@CipherShed@@8 DD FLAT:??_R1A@?0A@EA@?$ContainerForward@V?$basic_string@DU?$char_traits@D@std@@V?$allocator@D@2@@std@@@ForEach@CipherShed@@8 ; CipherShed::ForEach::ContainerForward<std::basic_string<char,std::char_traits<char>,std::allocator<char> > >::`RTTI Base Class Array'
	DD	FLAT:??_R1A@?0A@EA@Container@ForEach@CipherShed@@8
rdata$r	ENDS
;	COMDAT ??_R3?$ContainerForward@V?$basic_string@DU?$char_traits@D@std@@V?$allocator@D@2@@std@@@ForEach@CipherShed@@8
rdata$r	SEGMENT
??_R3?$ContainerForward@V?$basic_string@DU?$char_traits@D@std@@V?$allocator@D@2@@std@@@ForEach@CipherShed@@8 DD 00H ; CipherShed::ForEach::ContainerForward<std::basic_string<char,std::char_traits<char>,std::allocator<char> > >::`RTTI Class Hierarchy Descriptor'
	DD	00H
	DD	02H
	DD	FLAT:??_R2?$ContainerForward@V?$basic_string@DU?$char_traits@D@std@@V?$allocator@D@2@@std@@@ForEach@CipherShed@@8
rdata$r	ENDS
;	COMDAT ??_R0?AU?$ContainerForward@V?$basic_string@DU?$char_traits@D@std@@V?$allocator@D@2@@std@@@ForEach@CipherShed@@@8
_DATA	SEGMENT
??_R0?AU?$ContainerForward@V?$basic_string@DU?$char_traits@D@std@@V?$allocator@D@2@@std@@@ForEach@CipherShed@@@8 DD FLAT:??_7type_info@@6B@ ; CipherShed::ForEach::ContainerForward<std::basic_string<char,std::char_traits<char>,std::allocator<char> > > `RTTI Type Descriptor'
	DD	00H
	DB	'.?AU?$ContainerForward@V?$basic_string@DU?$char_traits@D'
	DB	'@std@@V?$allocator@D@2@@std@@@ForEach@CipherShed@@', 00H
_DATA	ENDS
;	COMDAT ??_R4?$ContainerForward@V?$basic_string@DU?$char_traits@D@std@@V?$allocator@D@2@@std@@@ForEach@CipherShed@@6B@
rdata$r	SEGMENT
??_R4?$ContainerForward@V?$basic_string@DU?$char_traits@D@std@@V?$allocator@D@2@@std@@@ForEach@CipherShed@@6B@ DD 00H ; CipherShed::ForEach::ContainerForward<std::basic_string<char,std::char_traits<char>,std::allocator<char> > >::`RTTI Complete Object Locator'
	DD	00H
	DD	00H
	DD	FLAT:??_R0?AU?$ContainerForward@V?$basic_string@DU?$char_traits@D@std@@V?$allocator@D@2@@std@@@ForEach@CipherShed@@@8
	DD	FLAT:??_R3?$ContainerForward@V?$basic_string@DU?$char_traits@D@std@@V?$allocator@D@2@@std@@@ForEach@CipherShed@@8
rdata$r	ENDS
;	COMDAT ??_7?$ContainerForward@V?$basic_string@DU?$char_traits@D@std@@V?$allocator@D@2@@std@@@ForEach@CipherShed@@6B@
CONST	SEGMENT
??_7?$ContainerForward@V?$basic_string@DU?$char_traits@D@std@@V?$allocator@D@2@@std@@@ForEach@CipherShed@@6B@ DD FLAT:??_R4?$ContainerForward@V?$basic_string@DU?$char_traits@D@std@@V?$allocator@D@2@@std@@@ForEach@CipherShed@@6B@ ; CipherShed::ForEach::ContainerForward<std::basic_string<char,std::char_traits<char>,std::allocator<char> > >::`vftable'
	DD	FLAT:??_E?$ContainerForward@V?$basic_string@DU?$char_traits@D@std@@V?$allocator@D@2@@std@@@ForEach@CipherShed@@UAEPAXI@Z
	DD	FLAT:?IsNotEnd@?$ContainerForward@V?$basic_string@DU?$char_traits@D@std@@V?$allocator@D@2@@std@@@ForEach@CipherShed@@UBE_NXZ
	DD	FLAT:?Next@?$ContainerForward@V?$basic_string@DU?$char_traits@D@std@@V?$allocator@D@2@@std@@@ForEach@CipherShed@@UBEXXZ
CONST	ENDS
;	COMDAT xdata$x
xdata$x	SEGMENT
__unwindtable$??0?$ContainerForward@V?$basic_string@DU?$char_traits@D@std@@V?$allocator@D@2@@std@@@ForEach@CipherShed@@QAE@ABV?$basic_string@DU?$char_traits@D@std@@V?$allocator@D@2@@std@@@Z DD 0ffffffffH
	DD	FLAT:__unwindfunclet$??0?$ContainerForward@V?$basic_string@DU?$char_traits@D@std@@V?$allocator@D@2@@std@@@ForEach@CipherShed@@QAE@ABV?$basic_string@DU?$char_traits@D@std@@V?$allocator@D@2@@std@@@Z$0
__ehfuncinfo$??0?$ContainerForward@V?$basic_string@DU?$char_traits@D@std@@V?$allocator@D@2@@std@@@ForEach@CipherShed@@QAE@ABV?$basic_string@DU?$char_traits@D@std@@V?$allocator@D@2@@std@@@Z DD 019930522H
	DD	01H
	DD	FLAT:__unwindtable$??0?$ContainerForward@V?$basic_string@DU?$char_traits@D@std@@V?$allocator@D@2@@std@@@ForEach@CipherShed@@QAE@ABV?$basic_string@DU?$char_traits@D@std@@V?$allocator@D@2@@std@@@Z
	DD	2 DUP(00H)
	DD	2 DUP(00H)
	DD	00H
	DD	01H
; Function compile flags: /Ogtpy
; File c:\users\public\desktop\projects\ciphershed\src\platform\foreach.h
xdata$x	ENDS
;	COMDAT ??0?$ContainerForward@V?$basic_string@DU?$char_traits@D@std@@V?$allocator@D@2@@std@@@ForEach@CipherShed@@QAE@ABV?$basic_string@DU?$char_traits@D@std@@V?$allocator@D@2@@std@@@Z
_TEXT	SEGMENT
_this$ = -16						; size = 4
__$EHRec$ = -12						; size = 12
_container$ = 8						; size = 4
??0?$ContainerForward@V?$basic_string@DU?$char_traits@D@std@@V?$allocator@D@2@@std@@@ForEach@CipherShed@@QAE@ABV?$basic_string@DU?$char_traits@D@std@@V?$allocator@D@2@@std@@@Z PROC ; CipherShed::ForEach::ContainerForward<std::basic_string<char,std::char_traits<char>,std::allocator<char> > >::ContainerForward<std::basic_string<char,std::char_traits<char>,std::allocator<char> > >, COMDAT
; _this$ = ecx

; 36   : 				: ContainerCopy (container), EndIterator (ContainerCopy.end()), Iterator (ContainerCopy.begin()) { }

  00000	6a ff		 push	 -1
  00002	68 00 00 00 00	 push	 __ehhandler$??0?$ContainerForward@V?$basic_string@DU?$char_traits@D@std@@V?$allocator@D@2@@std@@@ForEach@CipherShed@@QAE@ABV?$basic_string@DU?$char_traits@D@std@@V?$allocator@D@2@@std@@@Z
  00007	64 a1 00 00 00
	00		 mov	 eax, DWORD PTR fs:0
  0000d	50		 push	 eax
  0000e	51		 push	 ecx
  0000f	56		 push	 esi
  00010	57		 push	 edi
  00011	a1 00 00 00 00	 mov	 eax, DWORD PTR ___security_cookie
  00016	33 c4		 xor	 eax, esp
  00018	50		 push	 eax
  00019	8d 44 24 10	 lea	 eax, DWORD PTR __$EHRec$[esp+28]
  0001d	64 a3 00 00 00
	00		 mov	 DWORD PTR fs:0, eax
  00023	8b f9		 mov	 edi, ecx
  00025	89 7c 24 0c	 mov	 DWORD PTR _this$[esp+28], edi
  00029	33 c0		 xor	 eax, eax
  0002b	c6 47 04 01	 mov	 BYTE PTR [edi+4], 1
  0002f	88 47 05	 mov	 BYTE PTR [edi+5], al
  00032	8d 77 08	 lea	 esi, DWORD PTR [edi+8]
  00035	c7 07 00 00 00
	00		 mov	 DWORD PTR [edi], OFFSET ??_7?$ContainerForward@V?$basic_string@DU?$char_traits@D@std@@V?$allocator@D@2@@std@@@ForEach@CipherShed@@6B@
  0003b	6a ff		 push	 -1
  0003d	89 46 14	 mov	 DWORD PTR [esi+20], eax
  00040	c7 46 18 0f 00
	00 00		 mov	 DWORD PTR [esi+24], 15	; 0000000fH
  00047	50		 push	 eax
  00048	89 44 24 20	 mov	 DWORD PTR __$EHRec$[esp+44], eax
  0004c	88 46 04	 mov	 BYTE PTR [esi+4], al
  0004f	8b 44 24 28	 mov	 eax, DWORD PTR _container$[esp+32]
  00053	50		 push	 eax
  00054	8b ce		 mov	 ecx, esi
  00056	e8 00 00 00 00	 call	 ?assign@?$basic_string@DU?$char_traits@D@std@@V?$allocator@D@2@@std@@QAEAAV12@ABV12@II@Z ; std::basic_string<char,std::char_traits<char>,std::allocator<char> >::assign
  0005b	83 7e 18 10	 cmp	 DWORD PTR [esi+24], 16	; 00000010H
  0005f	8d 4f 24	 lea	 ecx, DWORD PTR [edi+36]
  00062	72 05		 jb	 SHORT $LN37@ContainerF@2
  00064	8b 46 04	 mov	 eax, DWORD PTR [esi+4]
  00067	eb 03		 jmp	 SHORT $LN38@ContainerF@2
$LN37@ContainerF@2:
  00069	8d 46 04	 lea	 eax, DWORD PTR [esi+4]
$LN38@ContainerF@2:
  0006c	8b 56 14	 mov	 edx, DWORD PTR [esi+20]
  0006f	56		 push	 esi
  00070	03 d0		 add	 edx, eax
  00072	52		 push	 edx
  00073	e8 00 00 00 00	 call	 ??0?$_String_const_iterator@DU?$char_traits@D@std@@V?$allocator@D@2@@std@@QAE@PBDPBV_Container_base_secure@1@@Z ; std::_String_const_iterator<char,std::char_traits<char>,std::allocator<char> >::_String_const_iterator<char,std::char_traits<char>,std::allocator<char> >
  00078	83 7e 18 10	 cmp	 DWORD PTR [esi+24], 16	; 00000010H
  0007c	8d 4f 2c	 lea	 ecx, DWORD PTR [edi+44]
  0007f	72 05		 jb	 SHORT $LN43@ContainerF@2
  00081	8b 46 04	 mov	 eax, DWORD PTR [esi+4]
  00084	eb 03		 jmp	 SHORT $LN44@ContainerF@2
$LN43@ContainerF@2:
  00086	8d 46 04	 lea	 eax, DWORD PTR [esi+4]
$LN44@ContainerF@2:
  00089	56		 push	 esi
  0008a	50		 push	 eax
  0008b	e8 00 00 00 00	 call	 ??0?$_String_const_iterator@DU?$char_traits@D@std@@V?$allocator@D@2@@std@@QAE@PBDPBV_Container_base_secure@1@@Z ; std::_String_const_iterator<char,std::char_traits<char>,std::allocator<char> >::_String_const_iterator<char,std::char_traits<char>,std::allocator<char> >
  00090	8b c7		 mov	 eax, edi
  00092	8b 4c 24 10	 mov	 ecx, DWORD PTR __$EHRec$[esp+28]
  00096	64 89 0d 00 00
	00 00		 mov	 DWORD PTR fs:0, ecx
  0009d	59		 pop	 ecx
  0009e	5f		 pop	 edi
  0009f	5e		 pop	 esi
  000a0	83 c4 10	 add	 esp, 16			; 00000010H
  000a3	c2 04 00	 ret	 4
_TEXT	ENDS
;	COMDAT text$x
text$x	SEGMENT
__unwindfunclet$??0?$ContainerForward@V?$basic_string@DU?$char_traits@D@std@@V?$allocator@D@2@@std@@@ForEach@CipherShed@@QAE@ABV?$basic_string@DU?$char_traits@D@std@@V?$allocator@D@2@@std@@@Z$0:
  00000	8b 4d f0	 mov	 ecx, DWORD PTR _this$[ebp]
  00003	e9 00 00 00 00	 jmp	 ??1Container@ForEach@CipherShed@@UAE@XZ ; CipherShed::ForEach::Container::~Container
__ehhandler$??0?$ContainerForward@V?$basic_string@DU?$char_traits@D@std@@V?$allocator@D@2@@std@@@ForEach@CipherShed@@QAE@ABV?$basic_string@DU?$char_traits@D@std@@V?$allocator@D@2@@std@@@Z:
  00008	8b 54 24 08	 mov	 edx, DWORD PTR [esp+8]
  0000c	8d 42 f4	 lea	 eax, DWORD PTR [edx-12]
  0000f	8b 4a f0	 mov	 ecx, DWORD PTR [edx-16]
  00012	33 c8		 xor	 ecx, eax
  00014	e8 00 00 00 00	 call	 @__security_check_cookie@4
  00019	b8 00 00 00 00	 mov	 eax, OFFSET __ehfuncinfo$??0?$ContainerForward@V?$basic_string@DU?$char_traits@D@std@@V?$allocator@D@2@@std@@@ForEach@CipherShed@@QAE@ABV?$basic_string@DU?$char_traits@D@std@@V?$allocator@D@2@@std@@@Z
  0001e	e9 00 00 00 00	 jmp	 ___CxxFrameHandler3
text$x	ENDS
??0?$ContainerForward@V?$basic_string@DU?$char_traits@D@std@@V?$allocator@D@2@@std@@@ForEach@CipherShed@@QAE@ABV?$basic_string@DU?$char_traits@D@std@@V?$allocator@D@2@@std@@@Z ENDP ; CipherShed::ForEach::ContainerForward<std::basic_string<char,std::char_traits<char>,std::allocator<char> > >::ContainerForward<std::basic_string<char,std::char_traits<char>,std::allocator<char> > >
PUBLIC	?_Same_container@_Iterator_base_secure@std@@QBE_NABV12@@Z ; std::_Iterator_base_secure::_Same_container
; Function compile flags: /Ogtpy
; File c:\program files (x86)\microsoft visual studio 9.0\vc\include\xutility
;	COMDAT ?_Same_container@_Iterator_base_secure@std@@QBE_NABV12@@Z
_TEXT	SEGMENT
__Other$ = 8						; size = 4
?_Same_container@_Iterator_base_secure@std@@QBE_NABV12@@Z PROC ; std::_Iterator_base_secure::_Same_container, COMDAT
; _this$ = ecx

; 577  : 		return _Mycont == _Other._Mycont;

  00000	8b 01		 mov	 eax, DWORD PTR [ecx]
  00002	8b 54 24 04	 mov	 edx, DWORD PTR __Other$[esp-4]
  00006	33 c9		 xor	 ecx, ecx
  00008	3b 02		 cmp	 eax, DWORD PTR [edx]
  0000a	0f 94 c1	 sete	 cl
  0000d	8a c1		 mov	 al, cl

; 578  : 		}

  0000f	c2 04 00	 ret	 4
?_Same_container@_Iterator_base_secure@std@@QBE_NABV12@@Z ENDP ; std::_Iterator_base_secure::_Same_container
_TEXT	ENDS
PUBLIC	??E?$_String_const_iterator@DU?$char_traits@D@std@@V?$allocator@D@2@@std@@QAEAAV01@XZ ; std::_String_const_iterator<char,std::char_traits<char>,std::allocator<char> >::operator++
; Function compile flags: /Ogtpy
; File c:\program files (x86)\microsoft visual studio 9.0\vc\include\xstring
;	COMDAT ??E?$_String_const_iterator@DU?$char_traits@D@std@@V?$allocator@D@2@@std@@QAEAAV01@XZ
_TEXT	SEGMENT
??E?$_String_const_iterator@DU?$char_traits@D@std@@V?$allocator@D@2@@std@@QAEAAV01@XZ PROC ; std::_String_const_iterator<char,std::char_traits<char>,std::allocator<char> >::operator++, COMDAT
; _this$ = ecx

; 133  : 		{	// preincrement

  00000	56		 push	 esi
  00001	8b f1		 mov	 esi, ecx

; 134  : 		if (this->_Mycont != _IGNORE_MYCONT)

  00003	8b 06		 mov	 eax, DWORD PTR [esi]
  00005	83 f8 fc	 cmp	 eax, -4			; fffffffcH
  00008	74 28		 je	 SHORT $LN1@operator@2

; 135  : 		{
; 136  : 			_SCL_SECURE_VALIDATE(this->_Has_container());

  0000a	85 c0		 test	 eax, eax
  0000c	75 05		 jne	 SHORT $LN7@operator@2
  0000e	e8 00 00 00 00	 call	 __invalid_parameter_noinfo
$LN7@operator@2:

; 137  : 			_SCL_SECURE_VALIDATE_RANGE(_Myptr < (((_Mystring *)this->_Mycont)->_Myptr() + ((_Mystring *)this->_Mycont)->_Mysize));

  00013	8b 06		 mov	 eax, DWORD PTR [esi]
  00015	83 78 18 10	 cmp	 DWORD PTR [eax+24], 16	; 00000010H
  00019	72 05		 jb	 SHORT $LN16@operator@2
  0001b	8b 48 04	 mov	 ecx, DWORD PTR [eax+4]
  0001e	eb 03		 jmp	 SHORT $LN17@operator@2
$LN16@operator@2:
  00020	8d 48 04	 lea	 ecx, DWORD PTR [eax+4]
$LN17@operator@2:
  00023	8b 40 14	 mov	 eax, DWORD PTR [eax+20]
  00026	03 c1		 add	 eax, ecx
  00028	39 46 04	 cmp	 DWORD PTR [esi+4], eax
  0002b	72 05		 jb	 SHORT $LN1@operator@2
  0002d	e8 00 00 00 00	 call	 __invalid_parameter_noinfo
$LN1@operator@2:

; 138  : 		}
; 139  : 		++_Myptr;

  00032	ff 46 04	 inc	 DWORD PTR [esi+4]

; 140  : 		return (*this);

  00035	8b c6		 mov	 eax, esi
  00037	5e		 pop	 esi

; 141  : 		}

  00038	c3		 ret	 0
??E?$_String_const_iterator@DU?$char_traits@D@std@@V?$allocator@D@2@@std@@QAEAAV01@XZ ENDP ; std::_String_const_iterator<char,std::char_traits<char>,std::allocator<char> >::operator++
_TEXT	ENDS
PUBLIC	??8?$_String_const_iterator@DU?$char_traits@D@std@@V?$allocator@D@2@@std@@QBE_NABV01@@Z ; std::_String_const_iterator<char,std::char_traits<char>,std::allocator<char> >::operator==
; Function compile flags: /Ogtpy
;	COMDAT ??8?$_String_const_iterator@DU?$char_traits@D@std@@V?$allocator@D@2@@std@@QBE_NABV01@@Z
_TEXT	SEGMENT
__Right$ = 8						; size = 4
??8?$_String_const_iterator@DU?$char_traits@D@std@@V?$allocator@D@2@@std@@QBE_NABV01@@Z PROC ; std::_String_const_iterator<char,std::char_traits<char>,std::allocator<char> >::operator==, COMDAT
; _this$ = ecx

; 219  : 		{	// test for iterator equality

  00000	56		 push	 esi
  00001	8b f1		 mov	 esi, ecx

; 220  : 
; 221  :  #if _HAS_ITERATOR_DEBUGGING
; 222  : 		_Compat(_Right);
; 223  :  #else
; 224  : 		if (this->_Mycont != _IGNORE_MYCONT)

  00003	8b 06		 mov	 eax, DWORD PTR [esi]
  00005	57		 push	 edi
  00006	8b 7c 24 0c	 mov	 edi, DWORD PTR __Right$[esp+4]
  0000a	83 f8 fc	 cmp	 eax, -4			; fffffffcH
  0000d	74 0d		 je	 SHORT $LN1@operator@3

; 225  : 		{
; 226  : 			_SCL_SECURE_VALIDATE(this->_Has_container() && this->_Same_container(_Right));

  0000f	85 c0		 test	 eax, eax
  00011	74 04		 je	 SHORT $LN4@operator@3
  00013	3b 07		 cmp	 eax, DWORD PTR [edi]
  00015	74 05		 je	 SHORT $LN1@operator@3
$LN4@operator@3:
  00017	e8 00 00 00 00	 call	 __invalid_parameter_noinfo
$LN1@operator@3:

; 227  : 		}
; 228  :  #endif /* _HAS_ITERATOR_DEBUGGING */
; 229  : 
; 230  : 		return (_Myptr == _Right._Myptr);

  0001c	8b 46 04	 mov	 eax, DWORD PTR [esi+4]
  0001f	33 c9		 xor	 ecx, ecx
  00021	3b 47 04	 cmp	 eax, DWORD PTR [edi+4]
  00024	5f		 pop	 edi
  00025	0f 94 c1	 sete	 cl
  00028	8a c1		 mov	 al, cl
  0002a	5e		 pop	 esi

; 231  : 		}

  0002b	c2 04 00	 ret	 4
??8?$_String_const_iterator@DU?$char_traits@D@std@@V?$allocator@D@2@@std@@QBE_NABV01@@Z ENDP ; std::_String_const_iterator<char,std::char_traits<char>,std::allocator<char> >::operator==
; Function compile flags: /Ogtpy
; File c:\users\public\desktop\projects\ciphershed\src\platform\foreach.h
_TEXT	ENDS
;	COMDAT ?Next@?$ContainerForward@V?$basic_string@DU?$char_traits@D@std@@V?$allocator@D@2@@std@@@ForEach@CipherShed@@UBEXXZ
_TEXT	SEGMENT
?Next@?$ContainerForward@V?$basic_string@DU?$char_traits@D@std@@V?$allocator@D@2@@std@@@ForEach@CipherShed@@UBEXXZ PROC ; CipherShed::ForEach::ContainerForward<std::basic_string<char,std::char_traits<char>,std::allocator<char> > >::Next, COMDAT
; _this$ = ecx

; 39   : 			virtual void Next () const { ++Iterator; }

  00000	56		 push	 esi
  00001	8b f1		 mov	 esi, ecx
  00003	8b 46 2c	 mov	 eax, DWORD PTR [esi+44]
  00006	83 f8 fc	 cmp	 eax, -4			; fffffffcH
  00009	74 29		 je	 SHORT $LN20@Next
  0000b	85 c0		 test	 eax, eax
  0000d	75 05		 jne	 SHORT $LN9@Next
  0000f	e8 00 00 00 00	 call	 __invalid_parameter_noinfo
$LN9@Next:
  00014	8b 46 2c	 mov	 eax, DWORD PTR [esi+44]
  00017	83 78 18 10	 cmp	 DWORD PTR [eax+24], 16	; 00000010H
  0001b	72 05		 jb	 SHORT $LN18@Next
  0001d	8b 48 04	 mov	 ecx, DWORD PTR [eax+4]
  00020	eb 03		 jmp	 SHORT $LN19@Next
$LN18@Next:
  00022	8d 48 04	 lea	 ecx, DWORD PTR [eax+4]
$LN19@Next:
  00025	8b 40 14	 mov	 eax, DWORD PTR [eax+20]
  00028	03 c1		 add	 eax, ecx
  0002a	39 46 30	 cmp	 DWORD PTR [esi+48], eax
  0002d	72 05		 jb	 SHORT $LN20@Next
  0002f	e8 00 00 00 00	 call	 __invalid_parameter_noinfo
$LN20@Next:
  00034	ff 46 30	 inc	 DWORD PTR [esi+48]
  00037	5e		 pop	 esi
  00038	c3		 ret	 0
?Next@?$ContainerForward@V?$basic_string@DU?$char_traits@D@std@@V?$allocator@D@2@@std@@@ForEach@CipherShed@@UBEXXZ ENDP ; CipherShed::ForEach::ContainerForward<std::basic_string<char,std::char_traits<char>,std::allocator<char> > >::Next
_TEXT	ENDS
PUBLIC	??9?$_String_const_iterator@DU?$char_traits@D@std@@V?$allocator@D@2@@std@@QBE_NABV01@@Z ; std::_String_const_iterator<char,std::char_traits<char>,std::allocator<char> >::operator!=
; Function compile flags: /Ogtpy
; File c:\program files (x86)\microsoft visual studio 9.0\vc\include\xstring
;	COMDAT ??9?$_String_const_iterator@DU?$char_traits@D@std@@V?$allocator@D@2@@std@@QBE_NABV01@@Z
_TEXT	SEGMENT
__Right$ = 8						; size = 4
??9?$_String_const_iterator@DU?$char_traits@D@std@@V?$allocator@D@2@@std@@QBE_NABV01@@Z PROC ; std::_String_const_iterator<char,std::char_traits<char>,std::allocator<char> >::operator!=, COMDAT
; _this$ = ecx

; 234  : 		{	// test for iterator inequality

  00000	56		 push	 esi
  00001	8b f1		 mov	 esi, ecx

; 235  : 		return (!(*this == _Right));

  00003	8b 06		 mov	 eax, DWORD PTR [esi]
  00005	57		 push	 edi
  00006	8b 7c 24 0c	 mov	 edi, DWORD PTR __Right$[esp+4]
  0000a	83 f8 fc	 cmp	 eax, -4			; fffffffcH
  0000d	74 0d		 je	 SHORT $LN3@operator@4
  0000f	85 c0		 test	 eax, eax
  00011	74 04		 je	 SHORT $LN6@operator@4
  00013	3b 07		 cmp	 eax, DWORD PTR [edi]
  00015	74 05		 je	 SHORT $LN3@operator@4
$LN6@operator@4:
  00017	e8 00 00 00 00	 call	 __invalid_parameter_noinfo
$LN3@operator@4:
  0001c	8b 46 04	 mov	 eax, DWORD PTR [esi+4]
  0001f	33 c9		 xor	 ecx, ecx
  00021	3b 47 04	 cmp	 eax, DWORD PTR [edi+4]
  00024	5f		 pop	 edi
  00025	0f 95 c1	 setne	 cl
  00028	8a c1		 mov	 al, cl
  0002a	5e		 pop	 esi

; 236  : 		}

  0002b	c2 04 00	 ret	 4
??9?$_String_const_iterator@DU?$char_traits@D@std@@V?$allocator@D@2@@std@@QBE_NABV01@@Z ENDP ; std::_String_const_iterator<char,std::char_traits<char>,std::allocator<char> >::operator!=
; Function compile flags: /Ogtpy
; File c:\users\public\desktop\projects\ciphershed\src\platform\foreach.h
_TEXT	ENDS
;	COMDAT ?IsNotEnd@?$ContainerForward@V?$basic_string@DU?$char_traits@D@std@@V?$allocator@D@2@@std@@@ForEach@CipherShed@@UBE_NXZ
_TEXT	SEGMENT
?IsNotEnd@?$ContainerForward@V?$basic_string@DU?$char_traits@D@std@@V?$allocator@D@2@@std@@@ForEach@CipherShed@@UBE_NXZ PROC ; CipherShed::ForEach::ContainerForward<std::basic_string<char,std::char_traits<char>,std::allocator<char> > >::IsNotEnd, COMDAT
; _this$ = ecx

; 38   : 			virtual bool IsNotEnd () const { bool r = InnerContinue && Iterator != EndIterator; InnerContinue = false; return r; }

  00000	56		 push	 esi
  00001	8b f1		 mov	 esi, ecx
  00003	80 7e 04 00	 cmp	 BYTE PTR [esi+4], 0
  00007	74 26		 je	 SHORT $LN3@IsNotEnd
  00009	8b 46 2c	 mov	 eax, DWORD PTR [esi+44]
  0000c	83 f8 fc	 cmp	 eax, -4			; fffffffcH
  0000f	74 0e		 je	 SHORT $LN7@IsNotEnd
  00011	85 c0		 test	 eax, eax
  00013	74 05		 je	 SHORT $LN10@IsNotEnd
  00015	3b 46 24	 cmp	 eax, DWORD PTR [esi+36]
  00018	74 05		 je	 SHORT $LN7@IsNotEnd
$LN10@IsNotEnd:
  0001a	e8 00 00 00 00	 call	 __invalid_parameter_noinfo
$LN7@IsNotEnd:
  0001f	8b 46 30	 mov	 eax, DWORD PTR [esi+48]
  00022	3b 46 28	 cmp	 eax, DWORD PTR [esi+40]
  00025	74 08		 je	 SHORT $LN3@IsNotEnd
  00027	c6 46 04 00	 mov	 BYTE PTR [esi+4], 0
  0002b	b0 01		 mov	 al, 1
  0002d	5e		 pop	 esi
  0002e	c3		 ret	 0
$LN3@IsNotEnd:
  0002f	32 c0		 xor	 al, al
  00031	88 46 04	 mov	 BYTE PTR [esi+4], al
  00034	5e		 pop	 esi
  00035	c3		 ret	 0
?IsNotEnd@?$ContainerForward@V?$basic_string@DU?$char_traits@D@std@@V?$allocator@D@2@@std@@@ForEach@CipherShed@@UBE_NXZ ENDP ; CipherShed::ForEach::ContainerForward<std::basic_string<char,std::char_traits<char>,std::allocator<char> > >::IsNotEnd
; Function compile flags: /Ogtpy
_TEXT	ENDS
;	COMDAT ??_G?$ContainerForward@V?$basic_string@DU?$char_traits@D@std@@V?$allocator@D@2@@std@@@ForEach@CipherShed@@UAEPAXI@Z
_TEXT	SEGMENT
___flags$ = 8						; size = 4
??_G?$ContainerForward@V?$basic_string@DU?$char_traits@D@std@@V?$allocator@D@2@@std@@@ForEach@CipherShed@@UAEPAXI@Z PROC ; CipherShed::ForEach::ContainerForward<std::basic_string<char,std::char_traits<char>,std::allocator<char> > >::`scalar deleting destructor', COMDAT
; _this$ = ecx
  00000	56		 push	 esi
  00001	8b f1		 mov	 esi, ecx
  00003	83 7e 20 10	 cmp	 DWORD PTR [esi+32], 16	; 00000010H
  00007	72 0c		 jb	 SHORT $LN22@scalar@3
  00009	8b 46 0c	 mov	 eax, DWORD PTR [esi+12]
  0000c	50		 push	 eax
  0000d	e8 00 00 00 00	 call	 ??3@YAXPAX@Z		; operator delete
  00012	83 c4 04	 add	 esp, 4
$LN22@scalar@3:
  00015	33 c0		 xor	 eax, eax
  00017	f6 44 24 08 01	 test	 BYTE PTR ___flags$[esp], 1
  0001c	c7 46 20 0f 00
	00 00		 mov	 DWORD PTR [esi+32], 15	; 0000000fH
  00023	89 46 1c	 mov	 DWORD PTR [esi+28], eax
  00026	88 46 0c	 mov	 BYTE PTR [esi+12], al
  00029	c7 06 00 00 00
	00		 mov	 DWORD PTR [esi], OFFSET ??_7Container@ForEach@CipherShed@@6B@
  0002f	74 09		 je	 SHORT $LN34@scalar@3
  00031	56		 push	 esi
  00032	e8 00 00 00 00	 call	 ??3@YAXPAX@Z		; operator delete
  00037	83 c4 04	 add	 esp, 4
$LN34@scalar@3:
  0003a	8b c6		 mov	 eax, esi
  0003c	5e		 pop	 esi
  0003d	c2 04 00	 ret	 4
??_G?$ContainerForward@V?$basic_string@DU?$char_traits@D@std@@V?$allocator@D@2@@std@@@ForEach@CipherShed@@UAEPAXI@Z ENDP ; CipherShed::ForEach::ContainerForward<std::basic_string<char,std::char_traits<char>,std::allocator<char> > >::`scalar deleting destructor'
_TEXT	ENDS
PUBLIC	?StringToUpperCase@@YA?AV?$basic_string@DU?$char_traits@D@std@@V?$allocator@D@2@@std@@ABV12@@Z ; StringToUpperCase
EXTRN	__strupr:PROC
; Function compile flags: /Ogtpy
; File c:\users\public\desktop\projects\ciphershed\src\common\util\csstringutil.cpp
;	COMDAT ?StringToUpperCase@@YA?AV?$basic_string@DU?$char_traits@D@std@@V?$allocator@D@2@@std@@ABV12@@Z
_TEXT	SEGMENT
$T122345 = -4						; size = 4
___$ReturnUdt$ = 8					; size = 4
_str$ = 12						; size = 4
?StringToUpperCase@@YA?AV?$basic_string@DU?$char_traits@D@std@@V?$allocator@D@2@@std@@ABV12@@Z PROC ; StringToUpperCase, COMDAT

; 149  : {

  00000	51		 push	 ecx
  00001	8b 44 24 0c	 mov	 eax, DWORD PTR _str$[esp]
  00005	56		 push	 esi
  00006	8b 74 24 0c	 mov	 esi, DWORD PTR ___$ReturnUdt$[esp+4]
  0000a	57		 push	 edi
  0000b	33 c9		 xor	 ecx, ecx

; 150  : 	string upperCase (str);

  0000d	6a ff		 push	 -1
  0000f	89 4e 14	 mov	 DWORD PTR [esi+20], ecx
  00012	51		 push	 ecx
  00013	c7 46 18 0f 00
	00 00		 mov	 DWORD PTR [esi+24], 15	; 0000000fH
  0001a	8d 7e 04	 lea	 edi, DWORD PTR [esi+4]
  0001d	89 4c 24 10	 mov	 DWORD PTR $T122345[esp+20], ecx
  00021	88 0f		 mov	 BYTE PTR [edi], cl
  00023	50		 push	 eax
  00024	8b ce		 mov	 ecx, esi
  00026	e8 00 00 00 00	 call	 ?assign@?$basic_string@DU?$char_traits@D@std@@V?$allocator@D@2@@std@@QAEAAV12@ABV12@II@Z ; std::basic_string<char,std::char_traits<char>,std::allocator<char> >::assign

; 151  : 	_strupr ((char *) upperCase.c_str());

  0002b	83 7e 18 10	 cmp	 DWORD PTR [esi+24], 16	; 00000010H
  0002f	72 02		 jb	 SHORT $LN35@StringToUp
  00031	8b 3f		 mov	 edi, DWORD PTR [edi]
$LN35@StringToUp:
  00033	57		 push	 edi
  00034	e8 00 00 00 00	 call	 __strupr
  00039	83 c4 04	 add	 esp, 4
  0003c	5f		 pop	 edi

; 152  : 	return upperCase;

  0003d	8b c6		 mov	 eax, esi
  0003f	5e		 pop	 esi

; 153  : }

  00040	59		 pop	 ecx
  00041	c3		 ret	 0
?StringToUpperCase@@YA?AV?$basic_string@DU?$char_traits@D@std@@V?$allocator@D@2@@std@@ABV12@@Z ENDP ; StringToUpperCase
_TEXT	ENDS
PUBLIC	??0?$basic_string@DU?$char_traits@D@std@@V?$allocator@D@2@@std@@QAE@PBD@Z ; std::basic_string<char,std::char_traits<char>,std::allocator<char> >::basic_string<char,std::char_traits<char>,std::allocator<char> >
; Function compile flags: /Ogtpy
; File c:\program files (x86)\microsoft visual studio 9.0\vc\include\xstring
;	COMDAT ??0?$basic_string@DU?$char_traits@D@std@@V?$allocator@D@2@@std@@QAE@PBD@Z
_TEXT	SEGMENT
__Ptr$ = 8						; size = 4
??0?$basic_string@DU?$char_traits@D@std@@V?$allocator@D@2@@std@@QAE@PBD@Z PROC ; std::basic_string<char,std::char_traits<char>,std::allocator<char> >::basic_string<char,std::char_traits<char>,std::allocator<char> >, COMDAT
; _this$ = ecx

; 652  : 		_Tidy();
; 653  : 		assign(_Ptr);

  00000	8b 54 24 04	 mov	 edx, DWORD PTR __Ptr$[esp-4]
  00004	56		 push	 esi
  00005	8b f1		 mov	 esi, ecx
  00007	8b c2		 mov	 eax, edx
  00009	57		 push	 edi
  0000a	c7 46 18 0f 00
	00 00		 mov	 DWORD PTR [esi+24], 15	; 0000000fH
  00011	c7 46 14 00 00
	00 00		 mov	 DWORD PTR [esi+20], 0
  00018	c6 46 04 00	 mov	 BYTE PTR [esi+4], 0
  0001c	8d 78 01	 lea	 edi, DWORD PTR [eax+1]
  0001f	90		 npad	 1
$LL37@basic_stri@3:
  00020	8a 08		 mov	 cl, BYTE PTR [eax]
  00022	40		 inc	 eax
  00023	84 c9		 test	 cl, cl
  00025	75 f9		 jne	 SHORT $LL37@basic_stri@3
  00027	2b c7		 sub	 eax, edi
  00029	50		 push	 eax
  0002a	52		 push	 edx
  0002b	8b ce		 mov	 ecx, esi
  0002d	e8 00 00 00 00	 call	 ?assign@?$basic_string@DU?$char_traits@D@std@@V?$allocator@D@2@@std@@QAEAAV12@PBDI@Z ; std::basic_string<char,std::char_traits<char>,std::allocator<char> >::assign
  00032	5f		 pop	 edi

; 654  : 		}

  00033	8b c6		 mov	 eax, esi
  00035	5e		 pop	 esi
  00036	c2 04 00	 ret	 4
??0?$basic_string@DU?$char_traits@D@std@@V?$allocator@D@2@@std@@QAE@PBD@Z ENDP ; std::basic_string<char,std::char_traits<char>,std::allocator<char> >::basic_string<char,std::char_traits<char>,std::allocator<char> >
_TEXT	ENDS
PUBLIC	??0?$basic_string@_WU?$char_traits@_W@std@@V?$allocator@_W@2@@std@@QAE@PB_W@Z ; std::basic_string<wchar_t,std::char_traits<wchar_t>,std::allocator<wchar_t> >::basic_string<wchar_t,std::char_traits<wchar_t>,std::allocator<wchar_t> >
; Function compile flags: /Ogtpy
;	COMDAT ??0?$basic_string@_WU?$char_traits@_W@std@@V?$allocator@_W@2@@std@@QAE@PB_W@Z
_TEXT	SEGMENT
__Ptr$ = 8						; size = 4
??0?$basic_string@_WU?$char_traits@_W@std@@V?$allocator@_W@2@@std@@QAE@PB_W@Z PROC ; std::basic_string<wchar_t,std::char_traits<wchar_t>,std::allocator<wchar_t> >::basic_string<wchar_t,std::char_traits<wchar_t>,std::allocator<wchar_t> >, COMDAT
; _this$ = ecx

; 652  : 		_Tidy();
; 653  : 		assign(_Ptr);

  00000	8b 54 24 04	 mov	 edx, DWORD PTR __Ptr$[esp-4]
  00004	56		 push	 esi
  00005	8b f1		 mov	 esi, ecx
  00007	33 c0		 xor	 eax, eax
  00009	c7 46 18 07 00
	00 00		 mov	 DWORD PTR [esi+24], 7
  00010	c7 46 14 00 00
	00 00		 mov	 DWORD PTR [esi+20], 0
  00017	66 89 46 04	 mov	 WORD PTR [esi+4], ax
  0001b	8b c2		 mov	 eax, edx
  0001d	57		 push	 edi
  0001e	8d 78 02	 lea	 edi, DWORD PTR [eax+2]
$LL39@basic_stri@4:
  00021	66 8b 08	 mov	 cx, WORD PTR [eax]
  00024	83 c0 02	 add	 eax, 2
  00027	66 85 c9	 test	 cx, cx
  0002a	75 f5		 jne	 SHORT $LL39@basic_stri@4
  0002c	2b c7		 sub	 eax, edi
  0002e	d1 f8		 sar	 eax, 1
  00030	50		 push	 eax
  00031	52		 push	 edx
  00032	8b ce		 mov	 ecx, esi
  00034	e8 00 00 00 00	 call	 ?assign@?$basic_string@_WU?$char_traits@_W@std@@V?$allocator@_W@2@@std@@QAEAAV12@PB_WI@Z ; std::basic_string<wchar_t,std::char_traits<wchar_t>,std::allocator<wchar_t> >::assign
  00039	5f		 pop	 edi

; 654  : 		}

  0003a	8b c6		 mov	 eax, esi
  0003c	5e		 pop	 esi
  0003d	c2 04 00	 ret	 4
??0?$basic_string@_WU?$char_traits@_W@std@@V?$allocator@_W@2@@std@@QAE@PB_W@Z ENDP ; std::basic_string<wchar_t,std::char_traits<wchar_t>,std::allocator<wchar_t> >::basic_string<wchar_t,std::char_traits<wchar_t>,std::allocator<wchar_t> >
_TEXT	ENDS
PUBLIC	??$GetContainerForward@V?$basic_string@DU?$char_traits@D@std@@V?$allocator@D@2@@std@@@ForEach@CipherShed@@SA?AU?$ContainerForward@V?$basic_string@DU?$char_traits@D@std@@V?$allocator@D@2@@std@@@01@ABV?$basic_string@DU?$char_traits@D@std@@V?$allocator@D@2@@std@@@Z ; CipherShed::ForEach::GetContainerForward<std::basic_string<char,std::char_traits<char>,std::allocator<char> > >
; Function compile flags: /Ogtpy
; File c:\users\public\desktop\projects\ciphershed\src\platform\foreach.h
;	COMDAT ??$GetContainerForward@V?$basic_string@DU?$char_traits@D@std@@V?$allocator@D@2@@std@@@ForEach@CipherShed@@SA?AU?$ContainerForward@V?$basic_string@DU?$char_traits@D@std@@V?$allocator@D@2@@std@@@01@ABV?$basic_string@DU?$char_traits@D@std@@V?$allocator@D@2@@std@@@Z
_TEXT	SEGMENT
$T122695 = -4						; size = 4
___$ReturnUdt$ = 8					; size = 4
_container$ = 12					; size = 4
??$GetContainerForward@V?$basic_string@DU?$char_traits@D@std@@V?$allocator@D@2@@std@@@ForEach@CipherShed@@SA?AU?$ContainerForward@V?$basic_string@DU?$char_traits@D@std@@V?$allocator@D@2@@std@@@01@ABV?$basic_string@DU?$char_traits@D@std@@V?$allocator@D@2@@std@@@Z PROC ; CipherShed::ForEach::GetContainerForward<std::basic_string<char,std::char_traits<char>,std::allocator<char> > >, COMDAT

; 69   : 		{

  00000	51		 push	 ecx

; 70   : 			return ContainerForward <T> (container);

  00001	8b 44 24 0c	 mov	 eax, DWORD PTR _container$[esp]
  00005	56		 push	 esi
  00006	8b 74 24 0c	 mov	 esi, DWORD PTR ___$ReturnUdt$[esp+4]
  0000a	50		 push	 eax
  0000b	8b ce		 mov	 ecx, esi
  0000d	c7 44 24 08 00
	00 00 00	 mov	 DWORD PTR $T122695[esp+12], 0
  00015	e8 00 00 00 00	 call	 ??0?$ContainerForward@V?$basic_string@DU?$char_traits@D@std@@V?$allocator@D@2@@std@@@ForEach@CipherShed@@QAE@ABV?$basic_string@DU?$char_traits@D@std@@V?$allocator@D@2@@std@@@Z ; CipherShed::ForEach::ContainerForward<std::basic_string<char,std::char_traits<char>,std::allocator<char> > >::ContainerForward<std::basic_string<char,std::char_traits<char>,std::allocator<char> > >
  0001a	8b c6		 mov	 eax, esi
  0001c	5e		 pop	 esi

; 71   : 		}

  0001d	59		 pop	 ecx
  0001e	c3		 ret	 0
??$GetContainerForward@V?$basic_string@DU?$char_traits@D@std@@V?$allocator@D@2@@std@@@ForEach@CipherShed@@SA?AU?$ContainerForward@V?$basic_string@DU?$char_traits@D@std@@V?$allocator@D@2@@std@@@01@ABV?$basic_string@DU?$char_traits@D@std@@V?$allocator@D@2@@std@@@Z ENDP ; CipherShed::ForEach::GetContainerForward<std::basic_string<char,std::char_traits<char>,std::allocator<char> > >
_TEXT	ENDS
PUBLIC	__TI2?AUSystemException@CipherShed@@
PUBLIC	__$ArrayPad$
PUBLIC	?SingleStringToWide@@YA?AV?$basic_string@_WU?$char_traits@_W@std@@V?$allocator@_W@2@@std@@ABV?$basic_string@DU?$char_traits@D@std@@V?$allocator@D@2@@2@@Z ; SingleStringToWide
PUBLIC	__CTA2?AUSystemException@CipherShed@@
PUBLIC	__CT??_R0?AUSystemException@CipherShed@@@8??0SystemException@CipherShed@@QAE@ABU01@@Z8
PUBLIC	??0SystemException@CipherShed@@QAE@ABU01@@Z	; CipherShed::SystemException::SystemException
PUBLIC	__CT??_R0?AUException@CipherShed@@@8??0Exception@CipherShed@@QAE@ABU01@@Z4
PUBLIC	??0Exception@CipherShed@@QAE@ABU01@@Z		; CipherShed::Exception::Exception
EXTRN	__chkstk:PROC
;	COMDAT __CT??_R0?AUException@CipherShed@@@8??0Exception@CipherShed@@QAE@ABU01@@Z4
; File c:\users\public\desktop\projects\ciphershed\src\common\exception.h
xdata$x	SEGMENT
__CT??_R0?AUException@CipherShed@@@8??0Exception@CipherShed@@QAE@ABU01@@Z4 DD 00H
	DD	FLAT:??_R0?AUException@CipherShed@@@8
	DD	00H
	DD	0ffffffffH
	ORG $+4
	DD	04H
	DD	FLAT:??0Exception@CipherShed@@QAE@ABU01@@Z
xdata$x	ENDS
;	COMDAT __CT??_R0?AUSystemException@CipherShed@@@8??0SystemException@CipherShed@@QAE@ABU01@@Z8
xdata$x	SEGMENT
__CT??_R0?AUSystemException@CipherShed@@@8??0SystemException@CipherShed@@QAE@ABU01@@Z8 DD 00H
	DD	FLAT:??_R0?AUSystemException@CipherShed@@@8
	DD	00H
	DD	0ffffffffH
	ORG $+4
	DD	08H
	DD	FLAT:??0SystemException@CipherShed@@QAE@ABU01@@Z
xdata$x	ENDS
;	COMDAT __CTA2?AUSystemException@CipherShed@@
xdata$x	SEGMENT
__CTA2?AUSystemException@CipherShed@@ DD 02H
	DD	FLAT:__CT??_R0?AUSystemException@CipherShed@@@8??0SystemException@CipherShed@@QAE@ABU01@@Z8
	DD	FLAT:__CT??_R0?AUException@CipherShed@@@8??0Exception@CipherShed@@QAE@ABU01@@Z4
xdata$x	ENDS
;	COMDAT __TI2?AUSystemException@CipherShed@@
xdata$x	SEGMENT
__TI2?AUSystemException@CipherShed@@ DD 00H
	DD	00H
	DD	00H
	DD	FLAT:__CTA2?AUSystemException@CipherShed@@
; Function compile flags: /Ogtpy
; File c:\users\public\desktop\projects\ciphershed\src\common\util\csstringutil.cpp
xdata$x	ENDS
;	COMDAT ?SingleStringToWide@@YA?AV?$basic_string@_WU?$char_traits@_W@std@@V?$allocator@_W@2@@std@@ABV?$basic_string@DU?$char_traits@D@std@@V?$allocator@D@2@@2@@Z
_TEXT	SEGMENT
$T122702 = -131084					; size = 4
$T122700 = -131084					; size = 8
_wbuf$ = -131076					; size = 131072
__$ArrayPad$ = -4					; size = 4
___$ReturnUdt$ = 8					; size = 4
_singleString$ = 12					; size = 4
?SingleStringToWide@@YA?AV?$basic_string@_WU?$char_traits@_W@std@@V?$allocator@_W@2@@std@@ABV?$basic_string@DU?$char_traits@D@std@@V?$allocator@D@2@@2@@Z PROC ; SingleStringToWide, COMDAT

; 28   : {

  00000	b8 0c 00 02 00	 mov	 eax, 131084		; 0002000cH
  00005	e8 00 00 00 00	 call	 __chkstk
  0000a	a1 00 00 00 00	 mov	 eax, DWORD PTR ___security_cookie
  0000f	33 c4		 xor	 eax, esp
  00011	89 84 24 08 00
	02 00		 mov	 DWORD PTR __$ArrayPad$[esp+131084], eax
  00018	8b 84 24 14 00
	02 00		 mov	 eax, DWORD PTR _singleString$[esp+131080]
  0001f	c7 04 24 00 00
	00 00		 mov	 DWORD PTR $T122702[esp+131084], 0

; 29   : 	if (singleString.empty())

  00026	83 78 14 00	 cmp	 DWORD PTR [eax+20], 0
  0002a	56		 push	 esi
  0002b	8b b4 24 14 00
	02 00		 mov	 esi, DWORD PTR ___$ReturnUdt$[esp+131084]
  00032	75 2c		 jne	 SHORT $LN5@SingleStri

; 30   : 		return std::wstring();

  00034	33 c0		 xor	 eax, eax
  00036	c7 46 18 07 00
	00 00		 mov	 DWORD PTR [esi+24], 7
  0003d	c7 46 14 00 00
	00 00		 mov	 DWORD PTR [esi+20], 0
  00044	66 89 46 04	 mov	 WORD PTR [esi+4], ax

; 37   : 	return wbuf;

  00048	8b c6		 mov	 eax, esi
  0004a	5e		 pop	 esi

; 38   : }

  0004b	8b 8c 24 08 00
	02 00		 mov	 ecx, DWORD PTR __$ArrayPad$[esp+131084]
  00052	33 cc		 xor	 ecx, esp
  00054	e8 00 00 00 00	 call	 @__security_check_cookie@4
  00059	81 c4 0c 00 02
	00		 add	 esp, 131084		; 0002000cH
  0005f	c3		 ret	 0
$LN5@SingleStri:

; 31   : 
; 32   : 	WCHAR wbuf[65536];
; 33   : 	int wideLen = MultiByteToWideChar (CP_ACP, 0, singleString.c_str(), -1, wbuf, array_capacity (wbuf) - 1);

  00060	83 78 18 10	 cmp	 DWORD PTR [eax+24], 16	; 00000010H
  00064	72 05		 jb	 SHORT $LN50@SingleStri
  00066	8b 40 04	 mov	 eax, DWORD PTR [eax+4]
  00069	eb 03		 jmp	 SHORT $LN51@SingleStri
$LN50@SingleStri:
  0006b	83 c0 04	 add	 eax, 4
$LN51@SingleStri:
  0006e	68 ff ff 00 00	 push	 65535			; 0000ffffH
  00073	8d 4c 24 10	 lea	 ecx, DWORD PTR _wbuf$[esp+131092]
  00077	51		 push	 ecx
  00078	6a ff		 push	 -1
  0007a	50		 push	 eax
  0007b	6a 00		 push	 0
  0007d	6a 00		 push	 0
  0007f	ff 15 00 00 00
	00		 call	 DWORD PTR __imp__MultiByteToWideChar@24

; 34   : 	throw_sys_if (wideLen == 0);

  00085	85 c0		 test	 eax, eax
  00087	75 21		 jne	 SHORT $LN3@SingleStri
  00089	c7 44 24 04 00
	00 00 00	 mov	 DWORD PTR $T122700[esp+131088], OFFSET ??_7SystemException@CipherShed@@6B@
  00091	ff 15 00 00 00
	00		 call	 DWORD PTR __imp__GetLastError@0
  00097	68 00 00 00 00	 push	 OFFSET __TI2?AUSystemException@CipherShed@@
  0009c	8d 54 24 08	 lea	 edx, DWORD PTR $T122700[esp+131092]
  000a0	52		 push	 edx
  000a1	89 44 24 10	 mov	 DWORD PTR $T122700[esp+131100], eax
  000a5	e8 00 00 00 00	 call	 __CxxThrowException@8
$LN3@SingleStri:

; 35   : 
; 36   : 	wbuf[wideLen] = 0;

  000aa	33 c9		 xor	 ecx, ecx

; 37   : 	return wbuf;

  000ac	8d 54 24 0c	 lea	 edx, DWORD PTR _wbuf$[esp+131088]
  000b0	66 89 4c 44 0c	 mov	 WORD PTR _wbuf$[esp+eax*2+131088], cx
  000b5	52		 push	 edx
  000b6	8b ce		 mov	 ecx, esi
  000b8	e8 00 00 00 00	 call	 ??0?$basic_string@_WU?$char_traits@_W@std@@V?$allocator@_W@2@@std@@QAE@PB_W@Z ; std::basic_string<wchar_t,std::char_traits<wchar_t>,std::allocator<wchar_t> >::basic_string<wchar_t,std::char_traits<wchar_t>,std::allocator<wchar_t> >

; 38   : }

  000bd	8b 8c 24 0c 00
	02 00		 mov	 ecx, DWORD PTR __$ArrayPad$[esp+131088]
  000c4	8b c6		 mov	 eax, esi
  000c6	5e		 pop	 esi
  000c7	33 cc		 xor	 ecx, esp
  000c9	e8 00 00 00 00	 call	 @__security_check_cookie@4
  000ce	81 c4 0c 00 02
	00		 add	 esp, 131084		; 0002000cH
  000d4	c3		 ret	 0
$LN56@SingleStri:
?SingleStringToWide@@YA?AV?$basic_string@_WU?$char_traits@_W@std@@V?$allocator@_W@2@@std@@ABV?$basic_string@DU?$char_traits@D@std@@V?$allocator@D@2@@2@@Z ENDP ; SingleStringToWide
; Function compile flags: /Ogtpy
_TEXT	ENDS
;	COMDAT ??0Exception@CipherShed@@QAE@ABU01@@Z
_TEXT	SEGMENT
___that$ = 8						; size = 4
??0Exception@CipherShed@@QAE@ABU01@@Z PROC		; CipherShed::Exception::Exception, COMDAT
; _this$ = ecx
  00000	8b c1		 mov	 eax, ecx
  00002	c7 00 00 00 00
	00		 mov	 DWORD PTR [eax], OFFSET ??_7Exception@CipherShed@@6B@
  00008	c2 04 00	 ret	 4
??0Exception@CipherShed@@QAE@ABU01@@Z ENDP		; CipherShed::Exception::Exception
; Function compile flags: /Ogtpy
_TEXT	ENDS
;	COMDAT ??0SystemException@CipherShed@@QAE@ABU01@@Z
_TEXT	SEGMENT
___that$ = 8						; size = 4
??0SystemException@CipherShed@@QAE@ABU01@@Z PROC	; CipherShed::SystemException::SystemException, COMDAT
; _this$ = ecx
  00000	8b c1		 mov	 eax, ecx
  00002	8b 4c 24 04	 mov	 ecx, DWORD PTR ___that$[esp-4]
  00006	c7 00 00 00 00
	00		 mov	 DWORD PTR [eax], OFFSET ??_7SystemException@CipherShed@@6B@
  0000c	8b 51 04	 mov	 edx, DWORD PTR [ecx+4]
  0000f	89 50 04	 mov	 DWORD PTR [eax+4], edx
  00012	c2 04 00	 ret	 4
??0SystemException@CipherShed@@QAE@ABU01@@Z ENDP	; CipherShed::SystemException::SystemException
_TEXT	ENDS
PUBLIC	__$ArrayPad$
PUBLIC	?WideToSingleString@@YA?AV?$basic_string@DU?$char_traits@D@std@@V?$allocator@D@2@@std@@ABV?$basic_string@_WU?$char_traits@_W@std@@V?$allocator@_W@2@@2@@Z ; WideToSingleString
; Function compile flags: /Ogtpy
;	COMDAT ?WideToSingleString@@YA?AV?$basic_string@DU?$char_traits@D@std@@V?$allocator@D@2@@std@@ABV?$basic_string@_WU?$char_traits@_W@std@@V?$allocator@_W@2@@2@@Z
_TEXT	SEGMENT
$T122890 = -65548					; size = 4
$T122888 = -65548					; size = 8
_buf$ = -65540						; size = 65536
__$ArrayPad$ = -4					; size = 4
___$ReturnUdt$ = 8					; size = 4
_wideString$ = 12					; size = 4
?WideToSingleString@@YA?AV?$basic_string@DU?$char_traits@D@std@@V?$allocator@D@2@@std@@ABV?$basic_string@_WU?$char_traits@_W@std@@V?$allocator@_W@2@@2@@Z PROC ; WideToSingleString, COMDAT

; 45   : {

  00000	b8 0c 00 01 00	 mov	 eax, 65548		; 0001000cH
  00005	e8 00 00 00 00	 call	 __chkstk
  0000a	a1 00 00 00 00	 mov	 eax, DWORD PTR ___security_cookie
  0000f	33 c4		 xor	 eax, esp
  00011	89 84 24 08 00
	01 00		 mov	 DWORD PTR __$ArrayPad$[esp+65548], eax
  00018	8b 84 24 14 00
	01 00		 mov	 eax, DWORD PTR _wideString$[esp+65544]
  0001f	53		 push	 ebx
  00020	33 db		 xor	 ebx, ebx
  00022	89 5c 24 04	 mov	 DWORD PTR $T122890[esp+65552], ebx
  00026	56		 push	 esi
  00027	8b b4 24 18 00
	01 00		 mov	 esi, DWORD PTR ___$ReturnUdt$[esp+65552]

; 46   : 	if (wideString.empty())

  0002e	39 58 14	 cmp	 DWORD PTR [eax+20], ebx
  00031	75 0f		 jne	 SHORT $LN5@WideToSing

; 47   : 		return std::string();

  00033	c7 46 18 0f 00
	00 00		 mov	 DWORD PTR [esi+24], 15	; 0000000fH
  0003a	89 5e 14	 mov	 DWORD PTR [esi+20], ebx
  0003d	88 5e 04	 mov	 BYTE PTR [esi+4], bl
  00040	eb 78		 jmp	 SHORT $LN92@WideToSing
$LN5@WideToSing:

; 48   : 
; 49   : 	char buf[65536];
; 50   : 	int len = WideCharToMultiByte (CP_ACP, 0, wideString.c_str(), -1, buf, array_capacity (buf) - 1, NULL, NULL);

  00042	83 78 18 08	 cmp	 DWORD PTR [eax+24], 8
  00046	72 05		 jb	 SHORT $LN48@WideToSing
  00048	8b 40 04	 mov	 eax, DWORD PTR [eax+4]
  0004b	eb 03		 jmp	 SHORT $LN49@WideToSing
$LN48@WideToSing:
  0004d	83 c0 04	 add	 eax, 4
$LN49@WideToSing:
  00050	53		 push	 ebx
  00051	53		 push	 ebx
  00052	68 ff ff 00 00	 push	 65535			; 0000ffffH
  00057	8d 4c 24 1c	 lea	 ecx, DWORD PTR _buf$[esp+65568]
  0005b	51		 push	 ecx
  0005c	6a ff		 push	 -1
  0005e	50		 push	 eax
  0005f	53		 push	 ebx
  00060	53		 push	 ebx
  00061	ff 15 00 00 00
	00		 call	 DWORD PTR __imp__WideCharToMultiByte@32

; 51   : 	throw_sys_if (len == 0);

  00067	3b c3		 cmp	 eax, ebx
  00069	75 21		 jne	 SHORT $LN3@WideToSing
  0006b	c7 44 24 08 00
	00 00 00	 mov	 DWORD PTR $T122888[esp+65556], OFFSET ??_7SystemException@CipherShed@@6B@
  00073	ff 15 00 00 00
	00		 call	 DWORD PTR __imp__GetLastError@0
  00079	68 00 00 00 00	 push	 OFFSET __TI2?AUSystemException@CipherShed@@
  0007e	8d 54 24 0c	 lea	 edx, DWORD PTR $T122888[esp+65560]
  00082	52		 push	 edx
  00083	89 44 24 14	 mov	 DWORD PTR $T122888[esp+65568], eax
  00087	e8 00 00 00 00	 call	 __CxxThrowException@8
$LN3@WideToSing:

; 52   : 
; 53   : 	buf[len] = 0;

  0008c	88 5c 04 10	 mov	 BYTE PTR _buf$[esp+eax+65556], bl

; 54   : 	return buf;

  00090	8d 44 24 10	 lea	 eax, DWORD PTR _buf$[esp+65556]
  00094	c7 46 18 0f 00
	00 00		 mov	 DWORD PTR [esi+24], 15	; 0000000fH
  0009b	89 5e 14	 mov	 DWORD PTR [esi+20], ebx
  0009e	88 5e 04	 mov	 BYTE PTR [esi+4], bl
  000a1	8d 50 01	 lea	 edx, DWORD PTR [eax+1]
$LL90@WideToSing:
  000a4	8a 08		 mov	 cl, BYTE PTR [eax]
  000a6	40		 inc	 eax
  000a7	3a cb		 cmp	 cl, bl
  000a9	75 f9		 jne	 SHORT $LL90@WideToSing
  000ab	2b c2		 sub	 eax, edx
  000ad	50		 push	 eax
