
 Start  Stop   Length Name                   Class
 00000H 047A0H 047A1H _TEXT                  CODE
 047A2H 054F6H 00D55H _DATA                  DATA
 054F8H 05503H 0000CH CONST                  CONST
 05504H 05E4BH 00948H _BSS                   BSS
 05E50H 07271H 01422H c_common               BSS

 Origin   Group
 0000:0   DGROUP

  Address         Publics by Name

 0000:3378       ??5@YA?ATUINT64_STRUCT@@ABT0@H@Z
 0000:33CC       ??6@YA?ATUINT64_STRUCT@@ABT0@H@Z
 0000:342C       ??8@YADABTUINT64_STRUCT@@0@Z
 0000:340C       ??E@YAAATUINT64_STRUCT@@AAT0@@Z
 0000:32C6       ??G@YA?ATUINT64_STRUCT@@ABT0@0@Z
 0000:3326       ??G@YA?ATUINT64_STRUCT@@ABT0@K@Z
 0000:3214       ??H@YA?ATUINT64_STRUCT@@ABT0@0@Z
 0000:3274       ??H@YA?ATUINT64_STRUCT@@ABT0@K@Z
 0000:3486       ??M@YADABTUINT64_STRUCT@@0@Z
 0000:34E4       ??N@YADABTUINT64_STRUCT@@0@Z
 0000:3452       ??O@YADABTUINT64_STRUCT@@0@Z
 0000:34BA       ??P@YADABTUINT64_STRUCT@@0@Z
 0000:32A0       ??Y@YAAATUINT64_STRUCT@@AAT0@ABT0@@Z
 0000:3352       ??Z@YAAATUINT64_STRUCT@@AAT0@ABT0@@Z
 0000:4EF4       ??_C@_00A@?$AA@
 0000:4FAC       ??_C@_01KHLB@?$FL?$AA@
 0000:5004       ??_C@_02HFBK@?3?5?$AA@
 0000:4EA0       ??_C@_02PIMC@?$AN?6?$AA@
 0000:4FA8       ??_C@_03EDHP@n?$AN?6?$AA@
 0000:52E8       ??_C@_03KPOF@?3?$AN?6?$AA@
 0000:4FA4       ??_C@_03NMHE@y?$AN?6?$AA@
 0000:4ED8       ??_C@_04HAAB@?5MB?5?$AA@
 0000:4EB2       ??_C@_04KCBC@Read?$AA@
 0000:54F2       ??_C@_04PLFG@MMP?3?$AA@
 0000:4ED2       ??_C@_05CLDD@?5CHS?3?$AA@
 0000:4EAC       ??_C@_05DHHK@Write?$AA@
 0000:4FAE       ??_C@_05EFLO@?$FN?5?5?5?5?$AA@
 0000:5430       ??_C@_06IEHP@Header?$AA@
 0000:4EDE       ??_C@_06OLBI@Drive?5?$AA@
 0000:4EB8       ??_C@_07EIJM@?5error?3?$AA@
 0000:4EC0       ??_C@_07JBEK@?5Drive?3?$AA@
 0000:513C       ??_C@_07MCKD@Drive?3?5?$AA@
 0000:4EA4       ??_C@_07MKMO@Error?3?5?$AA@
 0000:4EC8       ??_C@_08NNOK@?5Sector?3?$AA@
 0000:5152       ??_C@_08PFEJ@?0?5Size?3?5?$AA@
 0000:4F9A       ??_C@_09LGPG@?$DP?5?$CIy?1n?$CJ?3?5?$AA@
 0000:54A8       ??_C@_0BA@LKAJ@Is?5this?5correct?$AA@
 0000:4FB4       ??_C@_0BC@DHAO@?$FLEsc?$FN?5?5Cancel?$AN?6?$AN?6?$AA@
 0000:52AE       ??_C@_0BE@LMLE@?$ANDrive?5decrypted?4?$AN?6?$AA@
 0000:5298       ??_C@_0BF@LODE@Skip?5all?5bad?5sectors?$AA@
 0000:4FEE       ??_C@_0BG@GEFN@?5for?5hidden?5system?3?$AN?6?$AA@
 0000:5124       ??_C@_0BH@CKJE@Bootable?5Partitions?3?$AN?6?$AA@
 0000:4FC6       ??_C@_0BH@NEPP@To?5select?0?5press?51?99?3?5?$AA@
 0000:5418       ??_C@_0BH@PMEC@CipherShed?5Boot?5Loader?$AA@
 0000:508E       ??_C@_0BI@KFOG@Incorrect?5password?4?$AN?6?$AN?6?$AA@
 0000:4F32       ??_C@_0BJ@CIJ@?5?5?5?5Keyboard?5Controls?3?$AN?6?$AA@
 0000:52C2       ??_C@_0BJ@HKIB@?$AN?6Decryption?5deferred?4?$AN?6?$AA@
 0000:53A2       ??_C@_0BL@HDPH@Please?5decrypt?5it?5first?4?$AN?6?$AA@
 0000:4EF6       ??_C@_0BM@IDKA@No?5bootable?5partition?5found?$AA@
 0000:5072       ??_C@_0BM@NMNK@Warning?3?5Caps?5Lock?5is?5on?4?$AN?6?$AA@
 0000:53BE       ??_C@_0BN@MGAM@Original?5header?5preserved?4?$AN?6?$AA@
 0000:5318       ??_C@_0BP@HFME@Restore?5CipherShed?5Boot?5Loader?$AA@
 0000:535A       ??_C@_0BP@PLOE@Restore?5original?5system?5loader?$AA@
 0000:5016       ??_C@_0CA@FBFB@BIOS?5reserved?5too?5much?5memory?3?5?$AA@
 0000:4F12       ??_C@_0CA@GGMN@?5CipherShed?5Rescue?5Disk?50?47?43?$AN?6?$AA@
 0000:515C       ??_C@_0CA@HAB@Press?51?99?5to?5select?5partition?3?5?$AA@
 0000:5338       ??_C@_0CB@OIIA@Restore?5key?5data?5?$CIvolume?5header?$CJ@
 0000:4F58       ??_C@_0CD@GJAD@Skip?5Authentication?5?$CIBoot?5Manage@
 0000:537A       ??_C@_0CI@CJAH@Is?5the?5system?5partition?1drive?5de@
 0000:547E       ??_C@_0CJ@BABO@It?5appears?5you?5are?5creating?5a?5hi@
 0000:5454       ??_C@_0CK@MNCE@?9?5Connect?5system?5drive?5to?5?$CISATA?$CJ@
 0000:52EC       ??_C@_0CL@PPMD@Permanently?5decrypt?5system?5parti@
 0000:53DC       ??_C@_0CM@CODF@WARNING?3?5Drive?50?5contains?5a?5vali@
 0000:54B8       ??_C@_0DK@PFGO@Please?5remove?5the?5Rescue?5Disk?5fr@
 0000:5036       ??_C@_0DM@HBD@?9?5Upgrade?5BIOS?$AN?6?9?5Use?5a?5differen@
 0000:5214       ??_C@_0HG@PFFC@?$AN?6To?5safely?5interrupt?5and?5defer?5@
 0000:50A6       ??_C@_0HN@LBMO@If?5you?5are?5sure?5the?5password?5is?5@
 0000:517C       ??_C@_0IL@JNGI@?$AN?6Use?5only?5if?5Windows?5cannot?5sta@
 0000:52DC       ??_C@_0L@CGGC@Available?5?$AA@
 0000:5208       ??_C@_0M@EMPJ@Decrypt?5now?$AA@
 0000:4F4C       ??_C@_0M@NCBA@?5?5?5?5?$FLEsc?$FN?5?5?$AA@
 0000:528A       ??_C@_0N@BNAP@?$ANRemaining?3?5?$AA@
 0000:5008       ??_C@_0N@DGHN@Booting?4?4?4?$AN?6?$AA@
 0000:5446       ??_C@_0N@HIBI@?5restored?4?$AN?6?$AA@
 0000:4EE6       ??_C@_0N@JJKN@?5not?5found?3?5?$AA@
 0000:5144       ??_C@_0O@LEMN@?0?5Partition?3?5?$AA@
 0000:4F7C       ??_C@_0O@MJCG@?$AN?6?5?5?5?5?$FLF8?$FN?5?5?5?$AA@
 0000:5438       ??_C@_0O@MJLK@System?5loader?$AA@
 0000:4FDE       ??_C@_0P@EOMF@Enter?5password?$AA@
 0000:5408       ??_C@_0P@JAC@Modify?5drive?50?$AA@
 0000:4F8A       ??_C@_0P@KAON@Repair?5Options?$AA@
 0000:554C       ?ActivePartition@@3UPartition@@A
 0000:0F5A       ?Beep@@YAXXZ
 0000:57C6       ?BiosMemoryMap@@3QAUBiosMemoryMapEntry@@A
 0000:552A       ?BootCryptoInfo@@3PAUCRYPTO_INFO_t@@A
 0000:5506       ?BootDrive@@3EA
 0000:5508       ?BootDriveGeometry@@3UDriveGeometry@@A
 0000:47A2       ?BootDriveGeometryValid@@3DA
 0000:5505       ?BootLoaderDrive@@3EA
 0000:5504       ?BootSectorFlags@@3EA
 0000:47A5       ?BootStarted@@3DA
 0000:1500       ?ChsToLba@@YAXABUDriveGeometry@@ABUChsAddress@@AATUINT64_STRUCT@@@Z
 0000:1050       ?ClearBiosKeystrokeBuffer@@YAXXZ
 0000:0F78       ?ClearScreen@@YAXXZ
 0000:352C       ?CopyMemory@@YAXIIPAXI@Z
 0000:350E       ?CopyMemory@@YAXPAXIII@Z
 0000:550C       ?CustomUserMessage@@3QADA
 0000:0000  Unr  ?DisableScreenOutput@@YAXXZ
 0000:0000  Unr  ?EnableScreenOutput@@YAXXZ
 0000:552C       ?EncryptedVirtualPartition@@3UPartition@@A
 0000:102E       ?EscKeyPressed@@YADXZ
 0000:47A6       ?ExtraBootPartitionPresent@@3DA
 0000:1878       ?GetActivePartition@@YADE@Z
 0000:1478       ?GetDriveGeometry@@YAEEAAUDriveGeometry@@D@Z
 0000:1652       ?GetDrivePartitions@@YAEEPAUPartition@@IAAID0D@Z
 0000:2B98       ?GetFirstBiosMemoryMapEntry@@YADAAUBiosMemoryMapEntry@@@Z
 0000:0FEE       ?GetKeyboardChar@@YAEPAE@Z
 0000:0FE6       ?GetKeyboardChar@@YAEXZ
 0000:3560       ?GetLinearAddress@@YAKII@Z
 0000:2BAE       ?GetNextBiosMemoryMapEntry@@YADAAUBiosMemoryMapEntry@@@Z
 0000:0FD6       ?GetShiftFlags@@YAEXZ
 0000:1080       ?GetString@@YAHPADI@Z
 0000:5594       ?HiddenVolumeStartSector@@3TUINT64_STRUCT@@A
 0000:558C       ?HiddenVolumeStartUnitNo@@3TUINT64_STRUCT@@A
 0000:0F62       ?InitVideoMode@@YAXXZ
 0000:31AC       ?InstallInterruptFilters@@YADXZ
 0000:2BC8       ?Int13Filter@@YADXZ
 0000:3188       ?Int13FilterEntry@@YAXXZ
 0000:2FBE       ?Int15Filter@@YADXZ
 0000:3078       ?IntFilterEntry@@YAXXZ
 0000:1016       ?IsKeyboardCharAvailable@@YADXZ
 0000:10D4       ?IsLbaSupported@@YADE@Z
 0000:1068       ?IsPrintable@@YADD@Z
 0000:1548       ?LbaToChs@@YAXABUDriveGeometry@@ABTUINT64_STRUCT@@AAUChsAddress@@@Z
 0000:5526       ?OuterVolumeBackupHeaderCrc@@3KA
 0000:15AC       ?PartitionEntryMBRToPartition@@YAXABUPartitionEntryMBR@@AAUPartition@@@Z
 0000:556C       ?PartitionFollowingActive@@3UPartition@@A
 0000:47A4       ?PreventBootMenu@@3DA
 0000:47A3       ?PreventNormalSystemBoot@@3DA
 0000:0E74       ?Print@@YAXABTUINT64_STRUCT@@@Z
 0000:1186       ?Print@@YAXABUChsAddress@@@Z
 0000:0E10       ?Print@@YAXK@Z
 0000:0DF2       ?Print@@YAXPBD@Z
 0000:0F98       ?PrintBackspace@@YAXXZ
 0000:0DC2       ?PrintChar@@YAXD@Z
 0000:0DD8       ?PrintCharAtCursor@@YAXD@Z
 0000:1110       ?PrintDiskError@@YAXEDEPBTUINT64_STRUCT@@PBUChsAddress@@@Z
 0000:0F44       ?PrintEndl@@YAXH@Z
 0000:0F3C       ?PrintEndl@@YAXXZ
 0000:0FA6       ?PrintError@@YAXPBD@Z
 0000:0FC0       ?PrintErrorNoEndl@@YAXPBD@Z
 0000:0F02       ?PrintHex@@YAXABTUINT64_STRUCT@@@Z
 0000:0E96       ?PrintHex@@YAXE@Z
 0000:0ED6       ?PrintHex@@YAXI@Z
 0000:0EEE       ?PrintHex@@YAXK@Z
 0000:0F20       ?PrintRepeatedChar@@YAXDH@Z
 0000:11C2       ?PrintSectorCountInMB@@YAXABTUINT64_STRUCT@@@Z
 0000:18B4       ?ReadEncryptedSectors@@YAEIIETUINT64_STRUCT@@I@Z
 0000:13F6       ?ReadSectors@@YAEIIEABTUINT64_STRUCT@@ID@Z
 0000:1410       ?ReadSectors@@YAEPAEEABTUINT64_STRUCT@@ID@Z
 0000:129E       ?ReadSectors@@YAEPAEEABUChsAddress@@ED@Z
 0000:1612       ?ReadWriteMBR@@YAEDED@Z
 0000:13CC       ?ReadWriteSectors@@YAEDIIEABTUINT64_STRUCT@@ID@Z
 0000:11E4       ?ReadWriteSectors@@YAEDIIEABUChsAddress@@ED@Z
 0000:1278       ?ReadWriteSectors@@YAEDPAEEABUChsAddress@@ED@Z
 0000:3576       ?RegionsIntersect@@YADABTUINT64_STRUCT@@K00@Z
 0000:559C       ?SectorBuffer@@3QAEA
 0000:0000  Unr  ?TestInt64@@YADXZ
 0000:19F8       ?WriteEncryptedSectors@@YAEIIETUINT64_STRUCT@@I@Z
 0000:145E       ?WriteSectors@@YAEPAEEABTUINT64_STRUCT@@ID@Z
 0000:0000  Unr  ?WriteSectors@@YAEPAEEABUChsAddress@@ED@Z
 0000:0869       _aes_decrypt
 0000:0B14       _aes_decrypt_key256
 0000:6A72       _aes_dec_tab
 0000:017A       _aes_encrypt
 0000:03B7       _aes_encrypt_key256
 0000:626A       _aes_enc_tab
 0000:0120       _aes_hw_cpu_decrypt
 0000:0104       _aes_hw_cpu_enable_sse
 0000:0125       _aes_hw_cpu_encrypt
 0000:45D6       _aes_init
 0000:0000  Unr  _crc32_selftests
 0000:5E50       _CryptoInfoBuffer
 0000:371E       _crypto_close
 0000:0000  Unr  _crypto_loadkey
 0000:3714       _crypto_open
 0000:375C       _DecipherBlock
 0000:3836       _DecryptBuffer
 0000:4100       _DecryptBufferXTS
 0000:386A       _DecryptDataUnits
 0000:3B4E       _derive_key_ripemd160
 0000:3A86       _derive_u_ripemd160
 0000:3790       _EAGetFirst
 0000:0000  Unr  _EAGetFirstCipher
 0000:37D0       _EAGetKeySize
 0000:3794       _EAGetNext
 0000:3798       _EAInit
 0000:5504       _edata
 0000:38C4       _EnableHwEncryption
 0000:3730       _EncipherBlock
 0000:37D4       _EncryptBuffer
 0000:40E6       _EncryptBufferXTS
 0000:3808       _EncryptDataUnits
 0000:7272       _end
 0000:3550       _EraseMemory
 0000:3708       _GetCrc32
 0000:3BEA       _GetHeaderField16
 0000:3BFE       _GetHeaderField32
 0000:3C14       _GetHeaderField64
 0000:0000  Unr  _get_pkcs5_iteration_count
 0000:3946       _hmac_ripemd160
 0000:0000  Unr  _hmac_truncate
 0000:3898       _IsAesHwCpuSupported
 0000:0000  Unr  _IsHwEncryptionEnabled
 0000:010E       _is_aes_hw_cpu_supported
 0000:2A40       _main
 0000:0C54       _memcpy
 0000:0C80       _memset
 0000:38DE       _MirrorBytes16
 0000:38EE       _MirrorBytes32
 0000:3C54       _ReadVolumeHeader
 0000:4266       _RMD160Final
 0000:411A       _RMD160Init
 0000:42D8       _RMD160Transform
 0000:4156       _RMD160Update
 0000:363A       _ThrowFatalException
 0000:6242       _t_rc
 0000:2A3E       __acrtused
 0000:0CAE       __aNlmul
 0000:0CE0       __aNlshl
 0000:0CEC       __aNuldiv
 0000:0CAE       __aNulmul
 0000:0D4C       __aNulrem
 0000:0DB6       __aNulshr
 0000:5504       __edata
 0000:7272       __end
 0000:6A6A       __mbac

  Address         Publics by Value

 0000:0000  Unr  _hmac_truncate
 0000:0000  Unr  ?TestInt64@@YADXZ
 0000:0000  Unr  ?WriteSectors@@YAEPAEEABUChsAddress@@ED@Z
 0000:0000  Unr  _EAGetFirstCipher
 0000:0000  Unr  ?EnableScreenOutput@@YAXXZ
 0000:0000  Unr  _IsHwEncryptionEnabled
 0000:0000  Unr  ?DisableScreenOutput@@YAXXZ
 0000:0000  Unr  _crc32_selftests
 0000:0000  Unr  _get_pkcs5_iteration_count
 0000:0000  Unr  _crypto_loadkey
 0000:0104       _aes_hw_cpu_enable_sse
 0000:010E       _is_aes_hw_cpu_supported
 0000:0120       _aes_hw_cpu_decrypt
 0000:0125       _aes_hw_cpu_encrypt
 0000:017A       _aes_encrypt
 0000:03B7       _aes_encrypt_key256
 0000:0869       _aes_decrypt
 0000:0B14       _aes_decrypt_key256
 0000:0C54       _memcpy
 0000:0C80       _memset
 0000:0CAE       __aNulmul
 0000:0CAE       __aNlmul
 0000:0CE0       __aNlshl
 0000:0CEC       __aNuldiv
 0000:0D4C       __aNulrem
 0000:0DB6       __aNulshr
 0000:0DC2       ?PrintChar@@YAXD@Z
 0000:0DD8       ?PrintCharAtCursor@@YAXD@Z
 0000:0DF2       ?Print@@YAXPBD@Z
 0000:0E10       ?Print@@YAXK@Z
 0000:0E74       ?Print@@YAXABTUINT64_STRUCT@@@Z
 0000:0E96       ?PrintHex@@YAXE@Z
 0000:0ED6       ?PrintHex@@YAXI@Z
 0000:0EEE       ?PrintHex@@YAXK@Z
 0000:0F02       ?PrintHex@@YAXABTUINT64_STRUCT@@@Z
 0000:0F20       ?PrintRepeatedChar@@YAXDH@Z
 0000:0F3C       ?PrintEndl@@YAXXZ
 0000:0F44       ?PrintEndl@@YAXH@Z
 0000:0F5A       ?Beep@@YAXXZ
 0000:0F62       ?InitVideoMode@@YAXXZ
 0000:0F78       ?ClearScreen@@YAXXZ
 0000:0F98       ?PrintBackspace@@YAXXZ
 0000:0FA6       ?PrintError@@YAXPBD@Z
 0000:0FC0       ?PrintErrorNoEndl@@YAXPBD@Z
 0000:0FD6       ?GetShiftFlags@@YAEXZ
 0000:0FE6       ?GetKeyboardChar@@YAEXZ
 0000:0FEE       ?GetKeyboardChar@@YAEPAE@Z
 0000:1016       ?IsKeyboardCharAvailable@@YADXZ
 0000:102E       ?EscKeyPressed@@YADXZ
 0000:1050       ?ClearBiosKeystrokeBuffer@@YAXXZ
 0000:1068       ?IsPrintable@@YADD@Z
 0000:1080       ?GetString@@YAHPADI@Z
 0000:10D4       ?IsLbaSupported@@YADE@Z
 0000:1110       ?PrintDiskError@@YAXEDEPBTUINT64_STRUCT@@PBUChsAddress@@@Z
 0000:1186       ?Print@@YAXABUChsAddress@@@Z
 0000:11C2       ?PrintSectorCountInMB@@YAXABTUINT64_STRUCT@@@Z
 0000:11E4       ?ReadWriteSectors@@YAEDIIEABUChsAddress@@ED@Z
 0000:1278       ?ReadWriteSectors@@YAEDPAEEABUChsAddress@@ED@Z
 0000:129E       ?ReadSectors@@YAEPAEEABUChsAddress@@ED@Z
 0000:13CC       ?ReadWriteSectors@@YAEDIIEABTUINT64_STRUCT@@ID@Z
 0000:13F6       ?ReadSectors@@YAEIIEABTUINT64_STRUCT@@ID@Z
 0000:1410       ?ReadSectors@@YAEPAEEABTUINT64_STRUCT@@ID@Z
 0000:145E       ?WriteSectors@@YAEPAEEABTUINT64_STRUCT@@ID@Z
 0000:1478       ?GetDriveGeometry@@YAEEAAUDriveGeometry@@D@Z
 0000:1500       ?ChsToLba@@YAXABUDriveGeometry@@ABUChsAddress@@AATUINT64_STRUCT@@@Z
 0000:1548       ?LbaToChs@@YAXABUDriveGeometry@@ABTUINT64_STRUCT@@AAUChsAddress@@@Z
 0000:15AC       ?PartitionEntryMBRToPartition@@YAXABUPartitionEntryMBR@@AAUPartition@@@Z
 0000:1612       ?ReadWriteMBR@@YAEDED@Z
 0000:1652       ?GetDrivePartitions@@YAEEPAUPartition@@IAAID0D@Z
 0000:1878       ?GetActivePartition@@YADE@Z
 0000:18B4       ?ReadEncryptedSectors@@YAEIIETUINT64_STRUCT@@I@Z
 0000:19F8       ?WriteEncryptedSectors@@YAEIIETUINT64_STRUCT@@I@Z
 0000:2A3E       __acrtused
 0000:2A40       _main
 0000:2B98       ?GetFirstBiosMemoryMapEntry@@YADAAUBiosMemoryMapEntry@@@Z
 0000:2BAE       ?GetNextBiosMemoryMapEntry@@YADAAUBiosMemoryMapEntry@@@Z
 0000:2BC8       ?Int13Filter@@YADXZ
 0000:2FBE       ?Int15Filter@@YADXZ
 0000:3078       ?IntFilterEntry@@YAXXZ
 0000:3188       ?Int13FilterEntry@@YAXXZ
 0000:31AC       ?InstallInterruptFilters@@YADXZ
 0000:3214       ??H@YA?ATUINT64_STRUCT@@ABT0@0@Z
 0000:3274       ??H@YA?ATUINT64_STRUCT@@ABT0@K@Z
 0000:32A0       ??Y@YAAATUINT64_STRUCT@@AAT0@ABT0@@Z
 0000:32C6       ??G@YA?ATUINT64_STRUCT@@ABT0@0@Z
 0000:3326       ??G@YA?ATUINT64_STRUCT@@ABT0@K@Z
 0000:3352       ??Z@YAAATUINT64_STRUCT@@AAT0@ABT0@@Z
 0000:3378       ??5@YA?ATUINT64_STRUCT@@ABT0@H@Z
 0000:33CC       ??6@YA?ATUINT64_STRUCT@@ABT0@H@Z
 0000:340C       ??E@YAAATUINT64_STRUCT@@AAT0@@Z
 0000:342C       ??8@YADABTUINT64_STRUCT@@0@Z
 0000:3452       ??O@YADABTUINT64_STRUCT@@0@Z
 0000:3486       ??M@YADABTUINT64_STRUCT@@0@Z
 0000:34BA       ??P@YADABTUINT64_STRUCT@@0@Z
 0000:34E4       ??N@YADABTUINT64_STRUCT@@0@Z
 0000:350E       ?CopyMemory@@YAXPAXIII@Z
 0000:352C       ?CopyMemory@@YAXIIPAXI@Z
 0000:3550       _EraseMemory
 0000:3560       ?GetLinearAddress@@YAKII@Z
 0000:3576       ?RegionsIntersect@@YADABTUINT64_STRUCT@@K00@Z
 0000:363A       _ThrowFatalException
 0000:3708       _GetCrc32
 0000:3714       _crypto_open
 0000:371E       _crypto_close
 0000:3730       _EncipherBlock
 0000:375C       _DecipherBlock
 0000:3790       _EAGetFirst
 0000:3794       _EAGetNext
 0000:3798       _EAInit
 0000:37D0       _EAGetKeySize
 0000:37D4       _EncryptBuffer
 0000:3808       _EncryptDataUnits
 0000:3836       _DecryptBuffer
 0000:386A       _DecryptDataUnits
 0000:3898       _IsAesHwCpuSupported
 0000:38C4       _EnableHwEncryption
 0000:38DE       _MirrorBytes16
 0000:38EE       _MirrorBytes32
 0000:3946       _hmac_ripemd160
 0000:3A86       _derive_u_ripemd160
 0000:3B4E       _derive_key_ripemd160
 0000:3BEA       _GetHeaderField16
 0000:3BFE       _GetHeaderField32
 0000:3C14       _GetHeaderField64
 0000:3C54       _ReadVolumeHeader
 0000:40E6       _EncryptBufferXTS
 0000:4100       _DecryptBufferXTS
 0000:411A       _RMD160Init
 0000:4156       _RMD160Update
 0000:4266       _RMD160Final
 0000:42D8       _RMD160Transform
 0000:45D6       _aes_init
 0000:47A2       ?BootDriveGeometryValid@@3DA
 0000:47A3       ?PreventNormalSystemBoot@@3DA
 0000:47A4       ?PreventBootMenu@@3DA
 0000:47A5       ?BootStarted@@3DA
 0000:47A6       ?ExtraBootPartitionPresent@@3DA
 0000:4EA0       ??_C@_02PIMC@?$AN?6?$AA@
 0000:4EA4       ??_C@_07MKMO@Error?3?5?$AA@
 0000:4EAC       ??_C@_05DHHK@Write?$AA@
 0000:4EB2       ??_C@_04KCBC@Read?$AA@
 0000:4EB8       ??_C@_07EIJM@?5error?3?$AA@
 0000:4EC0       ??_C@_07JBEK@?5Drive?3?$AA@
 0000:4EC8       ??_C@_08NNOK@?5Sector?3?$AA@
 0000:4ED2       ??_C@_05CLDD@?5CHS?3?$AA@
 0000:4ED8       ??_C@_04HAAB@?5MB?5?$AA@
 0000:4EDE       ??_C@_06OLBI@Drive?5?$AA@
 0000:4EE6       ??_C@_0N@JJKN@?5not?5found?3?5?$AA@
 0000:4EF4       ??_C@_00A@?$AA@
 0000:4EF6       ??_C@_0BM@IDKA@No?5bootable?5partition?5found?$AA@
 0000:4F12       ??_C@_0CA@GGMN@?5CipherShed?5Rescue?5Disk?50?47?43?$AN?6?$AA@
 0000:4F32       ??_C@_0BJ@CIJ@?5?5?5?5Keyboard?5Controls?3?$AN?6?$AA@
 0000:4F4C       ??_C@_0M@NCBA@?5?5?5?5?$FLEsc?$FN?5?5?$AA@
 0000:4F58       ??_C@_0CD@GJAD@Skip?5Authentication?5?$CIBoot?5Manage@
 0000:4F7C       ??_C@_0O@MJCG@?$AN?6?5?5?5?5?$FLF8?$FN?5?5?5?$AA@
 0000:4F8A       ??_C@_0P@KAON@Repair?5Options?$AA@
 0000:4F9A       ??_C@_09LGPG@?$DP?5?$CIy?1n?$CJ?3?5?$AA@
 0000:4FA4       ??_C@_03NMHE@y?$AN?6?$AA@
 0000:4FA8       ??_C@_03EDHP@n?$AN?6?$AA@
 0000:4FAC       ??_C@_01KHLB@?$FL?$AA@
 0000:4FAE       ??_C@_05EFLO@?$FN?5?5?5?5?$AA@
 0000:4FB4       ??_C@_0BC@DHAO@?$FLEsc?$FN?5?5Cancel?$AN?6?$AN?6?$AA@
 0000:4FC6       ??_C@_0BH@NEPP@To?5select?0?5press?51?99?3?5?$AA@
 0000:4FDE       ??_C@_0P@EOMF@Enter?5password?$AA@
 0000:4FEE       ??_C@_0BG@GEFN@?5for?5hidden?5system?3?$AN?6?$AA@
 0000:5004       ??_C@_02HFBK@?3?5?$AA@
 0000:5008       ??_C@_0N@DGHN@Booting?4?4?4?$AN?6?$AA@
 0000:5016       ??_C@_0CA@FBFB@BIOS?5reserved?5too?5much?5memory?3?5?$AA@
 0000:5036       ??_C@_0DM@HBD@?9?5Upgrade?5BIOS?$AN?6?9?5Use?5a?5differen@
 0000:5072       ??_C@_0BM@NMNK@Warning?3?5Caps?5Lock?5is?5on?4?$AN?6?$AA@
 0000:508E       ??_C@_0BI@KFOG@Incorrect?5password?4?$AN?6?$AN?6?$AA@
 0000:50A6       ??_C@_0HN@LBMO@If?5you?5are?5sure?5the?5password?5is?5@
 0000:5124       ??_C@_0BH@CKJE@Bootable?5Partitions?3?$AN?6?$AA@
 0000:513C       ??_C@_07MCKD@Drive?3?5?$AA@
 0000:5144       ??_C@_0O@LEMN@?0?5Partition?3?5?$AA@
 0000:5152       ??_C@_08PFEJ@?0?5Size?3?5?$AA@
 0000:515C       ??_C@_0CA@HAB@Press?51?99?5to?5select?5partition?3?5?$AA@
 0000:517C       ??_C@_0IL@JNGI@?$AN?6Use?5only?5if?5Windows?5cannot?5sta@
 0000:5208       ??_C@_0M@EMPJ@Decrypt?5now?$AA@
 0000:5214       ??_C@_0HG@PFFC@?$AN?6To?5safely?5interrupt?5and?5defer?5@
 0000:528A       ??_C@_0N@BNAP@?$ANRemaining?3?5?$AA@
 0000:5298       ??_C@_0BF@LODE@Skip?5all?5bad?5sectors?$AA@
 0000:52AE       ??_C@_0BE@LMLE@?$ANDrive?5decrypted?4?$AN?6?$AA@
 0000:52C2       ??_C@_0BJ@HKIB@?$AN?6Decryption?5deferred?4?$AN?6?$AA@
 0000:52DC       ??_C@_0L@CGGC@Available?5?$AA@
 0000:52E8       ??_C@_03KPOF@?3?$AN?6?$AA@
 0000:52EC       ??_C@_0CL@PPMD@Permanently?5decrypt?5system?5parti@
 0000:5318       ??_C@_0BP@HFME@Restore?5CipherShed?5Boot?5Loader?$AA@
 0000:5338       ??_C@_0CB@OIIA@Restore?5key?5data?5?$CIvolume?5header?$CJ@
 0000:535A       ??_C@_0BP@PLOE@Restore?5original?5system?5loader?$AA@
 0000:537A       ??_C@_0CI@CJAH@Is?5the?5system?5partition?1drive?5de@
 0000:53A2       ??_C@_0BL@HDPH@Please?5decrypt?5it?5first?4?$AN?6?$AA@
 0000:53BE       ??_C@_0BN@MGAM@Original?5header?5preserved?4?$AN?6?$AA@
 0000:53DC       ??_C@_0CM@CODF@WARNING?3?5Drive?50?5contains?5a?5vali@
 0000:5408       ??_C@_0P@JAC@Modify?5drive?50?$AA@
 0000:5418       ??_C@_0BH@PMEC@CipherShed?5Boot?5Loader?$AA@
 0000:5430       ??_C@_06IEHP@Header?$AA@
 0000:5438       ??_C@_0O@MJLK@System?5loader?$AA@
 0000:5446       ??_C@_0N@HIBI@?5restored?4?$AN?6?$AA@
 0000:5454       ??_C@_0CK@MNCE@?9?5Connect?5system?5drive?5to?5?$CISATA?$CJ@
 0000:547E       ??_C@_0CJ@BABO@It?5appears?5you?5are?5creating?5a?5hi@
 0000:54A8       ??_C@_0BA@LKAJ@Is?5this?5correct?$AA@
 0000:54B8       ??_C@_0DK@PFGO@Please?5remove?5the?5Rescue?5Disk?5fr@
 0000:54F2       ??_C@_04PLFG@MMP?3?$AA@
 0000:5504       _edata
 0000:5504       __edata
 0000:5504       ?BootSectorFlags@@3EA
 0000:5505       ?BootLoaderDrive@@3EA
 0000:5506       ?BootDrive@@3EA
 0000:5508       ?BootDriveGeometry@@3UDriveGeometry@@A
 0000:550C       ?CustomUserMessage@@3QADA
 0000:5526       ?OuterVolumeBackupHeaderCrc@@3KA
 0000:552A       ?BootCryptoInfo@@3PAUCRYPTO_INFO_t@@A
 0000:552C       ?EncryptedVirtualPartition@@3UPartition@@A
 0000:554C       ?ActivePartition@@3UPartition@@A
 0000:556C       ?PartitionFollowingActive@@3UPartition@@A
 0000:558C       ?HiddenVolumeStartUnitNo@@3TUINT64_STRUCT@@A
 0000:5594       ?HiddenVolumeStartSector@@3TUINT64_STRUCT@@A
 0000:559C       ?SectorBuffer@@3QAEA
 0000:57C6       ?BiosMemoryMap@@3QAUBiosMemoryMapEntry@@A
 0000:5E50       _CryptoInfoBuffer
 0000:6242       _t_rc
 0000:626A       _aes_enc_tab
 0000:6A6A       __mbac
 0000:6A72       _aes_dec_tab
 0000:7272       __end
 0000:7272       _end

Program entry point at 0000:0100
