; Listing generated by Microsoft (R) Optimizing Compiler Version 15.00.30729.01 

	TITLE	c:\Users\Public\Desktop\projects\ciphershed\src\Mount\Mount.c
	.686P
	.XMM
	include listing.inc
	.model	flat

INCLUDELIB LIBCMT
INCLUDELIB OLDNAMES

PUBLIC	??_C@_0P@GHFPNOJB@bad?5allocation?$AA@		; `string'
PUBLIC	?CmdMountOptions@@3UMountOptions@@A		; CmdMountOptions
PUBLIC	?szDriveLetter@@3PADA				; szDriveLetter
PUBLIC	?mountOptions@@3UMountOptions@@A		; mountOptions
PUBLIC	?BootEncStatus@@3UBootEncryptionStatus@@A	; BootEncStatus
PUBLIC	?RecentBootEncStatus@@3UBootEncryptionStatus@@A	; RecentBootEncStatus
PUBLIC	?FirstCmdKeyFile@@3PAUKeyFileStruct@@A		; FirstCmdKeyFile
PUBLIC	?defaultMountOptions@@3UMountOptions@@A		; defaultMountOptions
PUBLIC	_VolumeNotificationsList
PUBLIC	?CmdVolumePassword@@3UPassword@@A		; CmdVolumePassword
PUBLIC	?VolumePassword@@3UPassword@@A			; VolumePassword
PUBLIC	?szFileName@@3PADA				; szFileName
PUBLIC	?_Value@?$_Is_swap_move@U_Swap_move_tag@std@@@std@@2_NB ; std::_Is_swap_move<std::_Swap_move_tag>::_Value
PUBLIC	?collate@?$_Locbase@H@std@@2HB			; std::_Locbase<int>::collate
PUBLIC	?ctype@?$_Locbase@H@std@@2HB			; std::_Locbase<int>::ctype
PUBLIC	?monetary@?$_Locbase@H@std@@2HB			; std::_Locbase<int>::monetary
PUBLIC	?numeric@?$_Locbase@H@std@@2HB			; std::_Locbase<int>::numeric
PUBLIC	?time@?$_Locbase@H@std@@2HB			; std::_Locbase<int>::time
PUBLIC	?messages@?$_Locbase@H@std@@2HB			; std::_Locbase<int>::messages
PUBLIC	?all@?$_Locbase@H@std@@2HB			; std::_Locbase<int>::all
PUBLIC	?none@?$_Locbase@H@std@@2HB			; std::_Locbase<int>::none
PUBLIC	?table_size@?$ctype@D@std@@2IB			; std::ctype<char>::table_size
PUBLIC	?skipws@?$_Iosb@H@std@@2W4_Fmtflags@12@B	; std::_Iosb<int>::skipws
PUBLIC	?unitbuf@?$_Iosb@H@std@@2W4_Fmtflags@12@B	; std::_Iosb<int>::unitbuf
PUBLIC	?uppercase@?$_Iosb@H@std@@2W4_Fmtflags@12@B	; std::_Iosb<int>::uppercase
PUBLIC	?showbase@?$_Iosb@H@std@@2W4_Fmtflags@12@B	; std::_Iosb<int>::showbase
PUBLIC	?showpoint@?$_Iosb@H@std@@2W4_Fmtflags@12@B	; std::_Iosb<int>::showpoint
PUBLIC	?showpos@?$_Iosb@H@std@@2W4_Fmtflags@12@B	; std::_Iosb<int>::showpos
PUBLIC	?left@?$_Iosb@H@std@@2W4_Fmtflags@12@B		; std::_Iosb<int>::left
PUBLIC	?right@?$_Iosb@H@std@@2W4_Fmtflags@12@B		; std::_Iosb<int>::right
PUBLIC	?internal@?$_Iosb@H@std@@2W4_Fmtflags@12@B	; std::_Iosb<int>::internal
PUBLIC	?dec@?$_Iosb@H@std@@2W4_Fmtflags@12@B		; std::_Iosb<int>::dec
PUBLIC	?oct@?$_Iosb@H@std@@2W4_Fmtflags@12@B		; std::_Iosb<int>::oct
PUBLIC	?hex@?$_Iosb@H@std@@2W4_Fmtflags@12@B		; std::_Iosb<int>::hex
PUBLIC	?scientific@?$_Iosb@H@std@@2W4_Fmtflags@12@B	; std::_Iosb<int>::scientific
PUBLIC	?fixed@?$_Iosb@H@std@@2W4_Fmtflags@12@B		; std::_Iosb<int>::fixed
PUBLIC	?hexfloat@?$_Iosb@H@std@@2W4_Fmtflags@12@B	; std::_Iosb<int>::hexfloat
PUBLIC	?boolalpha@?$_Iosb@H@std@@2W4_Fmtflags@12@B	; std::_Iosb<int>::boolalpha
PUBLIC	?_Stdio@?$_Iosb@H@std@@2W4_Fmtflags@12@B	; std::_Iosb<int>::_Stdio
PUBLIC	?adjustfield@?$_Iosb@H@std@@2W4_Fmtflags@12@B	; std::_Iosb<int>::adjustfield
PUBLIC	?basefield@?$_Iosb@H@std@@2W4_Fmtflags@12@B	; std::_Iosb<int>::basefield
PUBLIC	?floatfield@?$_Iosb@H@std@@2W4_Fmtflags@12@B	; std::_Iosb<int>::floatfield
PUBLIC	?goodbit@?$_Iosb@H@std@@2W4_Iostate@12@B	; std::_Iosb<int>::goodbit
PUBLIC	?eofbit@?$_Iosb@H@std@@2W4_Iostate@12@B		; std::_Iosb<int>::eofbit
PUBLIC	?failbit@?$_Iosb@H@std@@2W4_Iostate@12@B	; std::_Iosb<int>::failbit
PUBLIC	?badbit@?$_Iosb@H@std@@2W4_Iostate@12@B		; std::_Iosb<int>::badbit
PUBLIC	?_Hardfail@?$_Iosb@H@std@@2W4_Iostate@12@B	; std::_Iosb<int>::_Hardfail
PUBLIC	?in@?$_Iosb@H@std@@2W4_Openmode@12@B		; std::_Iosb<int>::in
PUBLIC	?out@?$_Iosb@H@std@@2W4_Openmode@12@B		; std::_Iosb<int>::out
PUBLIC	?ate@?$_Iosb@H@std@@2W4_Openmode@12@B		; std::_Iosb<int>::ate
PUBLIC	?app@?$_Iosb@H@std@@2W4_Openmode@12@B		; std::_Iosb<int>::app
PUBLIC	?trunc@?$_Iosb@H@std@@2W4_Openmode@12@B		; std::_Iosb<int>::trunc
PUBLIC	?_Nocreate@?$_Iosb@H@std@@2W4_Openmode@12@B	; std::_Iosb<int>::_Nocreate
PUBLIC	?_Noreplace@?$_Iosb@H@std@@2W4_Openmode@12@B	; std::_Iosb<int>::_Noreplace
PUBLIC	?binary@?$_Iosb@H@std@@2W4_Openmode@12@B	; std::_Iosb<int>::binary
PUBLIC	?beg@?$_Iosb@H@std@@2W4_Seekdir@12@B		; std::_Iosb<int>::beg
PUBLIC	?cur@?$_Iosb@H@std@@2W4_Seekdir@12@B		; std::_Iosb<int>::cur
PUBLIC	?end@?$_Iosb@H@std@@2W4_Seekdir@12@B		; std::_Iosb<int>::end
PUBLIC	?value@?$integral_constant@_N$0A@@tr1@std@@2_NB	; std::tr1::integral_constant<bool,0>::value
PUBLIC	?value@?$integral_constant@_N$00@tr1@std@@2_NB	; std::tr1::integral_constant<bool,1>::value
PUBLIC	?RescueIsoImageSize@BootEncryption@CipherShed@@1IB ; CipherShed::BootEncryption::RescueIsoImageSize
PUBLIC	?MaxPasswordLength@SecurityToken@CipherShed@@2IB ; CipherShed::SecurityToken::MaxPasswordLength
PUBLIC	?BootEncObj@@3PAVBootEncryption@CipherShed@@A	; BootEncObj
PUBLIC	_bExplore
PUBLIC	?bBeep@@3HA					; bBeep
PUBLIC	?commandLineDrive@@3DA				; commandLineDrive
PUBLIC	?bCacheInDriver@@3HA				; bCacheInDriver
PUBLIC	?bCacheInDriverDefault@@3HA			; bCacheInDriverDefault
PUBLIC	?bHistoryCmdLine@@3HA				; bHistoryCmdLine
PUBLIC	?bUseDifferentTrayIconIfVolMounted@@3HA		; bUseDifferentTrayIconIfVolMounted
PUBLIC	?bCloseDismountedWindows@@3HA			; bCloseDismountedWindows
PUBLIC	?bWipeCacheOnExit@@3HA				; bWipeCacheOnExit
PUBLIC	?bWipeCacheOnAutoDismount@@3HA			; bWipeCacheOnAutoDismount
PUBLIC	_bEnableBkgTask
PUBLIC	_bCloseBkgTaskWhenNoVolumes
PUBLIC	?bDismountOnLogOff@@3HA				; bDismountOnLogOff
PUBLIC	?bDismountOnScreenSaver@@3HA			; bDismountOnScreenSaver
PUBLIC	?bDismountOnPowerSaving@@3HA			; bDismountOnPowerSaving
PUBLIC	?bForceAutoDismount@@3HA			; bForceAutoDismount
PUBLIC	?bForceMount@@3HA				; bForceMount
PUBLIC	?bForceUnmount@@3HA				; bForceUnmount
PUBLIC	?bWipe@@3HA					; bWipe
PUBLIC	?bAuto@@3HA					; bAuto
PUBLIC	?LogOn@@3HA					; LogOn
PUBLIC	?bAutoMountDevices@@3HA				; bAutoMountDevices
PUBLIC	?bAutoMountFavorites@@3HA			; bAutoMountFavorites
PUBLIC	_bPlaySoundOnSuccessfulHkDismount
PUBLIC	_bDisplayBalloonOnSuccessfulHkDismount
PUBLIC	?bHibernationPreventionNotified@@3HA		; bHibernationPreventionNotified
PUBLIC	?bHiddenSysLeakProtNotifiedDuringSession@@3HA	; bHiddenSysLeakProtNotifiedDuringSession
PUBLIC	?CloseSecurityTokenSessionsAfterMount@@3HA	; CloseSecurityTokenSessionsAfterMount
PUBLIC	?DisableSystemCrashDetection@@3HA		; DisableSystemCrashDetection
PUBLIC	?SystemCrashDetected@@3HA			; SystemCrashDetected
PUBLIC	?Quit@@3HA					; Quit
PUBLIC	?ComServerMode@@3HA				; ComServerMode
PUBLIC	?ServiceMode@@3HA				; ServiceMode
PUBLIC	?UsePreferences@@3HA				; UsePreferences
PUBLIC	?HiddenSysLeakProtectionNotificationStatus@@3HA	; HiddenSysLeakProtectionNotificationStatus
PUBLIC	?MaxVolumeIdleTime@@3HA				; MaxVolumeIdleTime
PUBLIC	?nCurrentShowType@@3HA				; nCurrentShowType
PUBLIC	?nSelectedDriveIndex@@3HA			; nSelectedDriveIndex
PUBLIC	?cmdUnmountDrive@@3HA				; cmdUnmountDrive
PUBLIC	?CmdVolumePasswordValid@@3HA			; CmdVolumePasswordValid
PUBLIC	?CmdMountOptionsValid@@3HA			; CmdMountOptionsValid
PUBLIC	?hbmLogoBitmapRescaled@@3PAUHBITMAP__@@A	; hbmLogoBitmapRescaled
PUBLIC	?OrigKeyboardLayout@@3PADA			; OrigKeyboardLayout
PUBLIC	?bKeyboardLayoutChanged@@3HA			; bKeyboardLayoutChanged
PUBLIC	?bKeybLayoutAltKeyWarningShown@@3HA		; bKeybLayoutAltKeyWarningShown
_BSS	SEGMENT
?CmdMountOptions@@3UMountOptions@@A DB 064H DUP (?)	; CmdMountOptions
?szDriveLetter@@3PADA DB 03H DUP (?)			; szDriveLetter
	ALIGN	4

?mountOptions@@3UMountOptions@@A DB 064H DUP (?)	; mountOptions
?BootEncStatus@@3UBootEncryptionStatus@@A DB 05eH DUP (?) ; BootEncStatus
	ALIGN	4

?RecentBootEncStatus@@3UBootEncryptionStatus@@A DB 05eH DUP (?) ; RecentBootEncStatus
	ALIGN	4

?FirstCmdKeyFile@@3PAUKeyFileStruct@@A DD 01H DUP (?)	; FirstCmdKeyFile
?defaultMountOptions@@3UMountOptions@@A DB 064H DUP (?)	; defaultMountOptions
_VolumeNotificationsList DB 068H DUP (?)
?CmdVolumePassword@@3UPassword@@A DB 048H DUP (?)	; CmdVolumePassword
?VolumePassword@@3UPassword@@A DB 048H DUP (?)		; VolumePassword
?szFileName@@3PADA DB 0105H DUP (?)			; szFileName
	ALIGN	4

?BootEncObj@@3PAVBootEncryption@CipherShed@@A DD 01H DUP (?) ; BootEncObj
_bExplore DD	01H DUP (?)
?bBeep@@3HA DD	01H DUP (?)				; bBeep
?commandLineDrive@@3DA DB 01H DUP (?)			; commandLineDrive
	ALIGN	4

?bCacheInDriver@@3HA DD 01H DUP (?)			; bCacheInDriver
?bCacheInDriverDefault@@3HA DD 01H DUP (?)		; bCacheInDriverDefault
?bHistoryCmdLine@@3HA DD 01H DUP (?)			; bHistoryCmdLine
?bWipeCacheOnExit@@3HA DD 01H DUP (?)			; bWipeCacheOnExit
_bEnableBkgTask DD 01H DUP (?)
_bCloseBkgTaskWhenNoVolumes DD 01H DUP (?)
?bDismountOnPowerSaving@@3HA DD 01H DUP (?)		; bDismountOnPowerSaving
?bForceMount@@3HA DD 01H DUP (?)			; bForceMount
?bForceUnmount@@3HA DD 01H DUP (?)			; bForceUnmount
?bWipe@@3HA DD	01H DUP (?)				; bWipe
?bAuto@@3HA DD	01H DUP (?)				; bAuto
?LogOn@@3HA DD	01H DUP (?)				; LogOn
?bAutoMountDevices@@3HA DD 01H DUP (?)			; bAutoMountDevices
?bAutoMountFavorites@@3HA DD 01H DUP (?)		; bAutoMountFavorites
?bHibernationPreventionNotified@@3HA DD 01H DUP (?)	; bHibernationPreventionNotified
?bHiddenSysLeakProtNotifiedDuringSession@@3HA DD 01H DUP (?) ; bHiddenSysLeakProtNotifiedDuringSession
?CloseSecurityTokenSessionsAfterMount@@3HA DD 01H DUP (?) ; CloseSecurityTokenSessionsAfterMount
?DisableSystemCrashDetection@@3HA DD 01H DUP (?)	; DisableSystemCrashDetection
?SystemCrashDetected@@3HA DD 01H DUP (?)		; SystemCrashDetected
?Quit@@3HA DD	01H DUP (?)				; Quit
?ComServerMode@@3HA DD 01H DUP (?)			; ComServerMode
?ServiceMode@@3HA DD 01H DUP (?)			; ServiceMode
?HiddenSysLeakProtectionNotificationStatus@@3HA DD 01H DUP (?) ; HiddenSysLeakProtectionNotificationStatus
?nCurrentShowType@@3HA DD 01H DUP (?)			; nCurrentShowType
?cmdUnmountDrive@@3HA DD 01H DUP (?)			; cmdUnmountDrive
?CmdVolumePasswordValid@@3HA DD 01H DUP (?)		; CmdVolumePasswordValid
?CmdMountOptionsValid@@3HA DD 01H DUP (?)		; CmdMountOptionsValid
?hbmLogoBitmapRescaled@@3PAUHBITMAP__@@A DD 01H DUP (?)	; hbmLogoBitmapRescaled
?bKeyboardLayoutChanged@@3HA DD 01H DUP (?)		; bKeyboardLayoutChanged
?bKeybLayoutAltKeyWarningShown@@3HA DD 01H DUP (?)	; bKeybLayoutAltKeyWarningShown
_TaskBarIconMutex DD 01H DUP (?)
_MainWindowHidden DD 01H DUP (?)
_pwdChangeDlgMode DD 01H DUP (?)
_bSysEncPwdChangeDlgMode DD 01H DUP (?)
_bPrebootPasswordDlgMode DD 01H DUP (?)
_BSS	ENDS
;	COMDAT ?MaxPasswordLength@SecurityToken@CipherShed@@2IB
CONST	SEGMENT
?MaxPasswordLength@SecurityToken@CipherShed@@2IB DD 080H ; CipherShed::SecurityToken::MaxPasswordLength
CONST	ENDS
;	COMDAT ?RescueIsoImageSize@BootEncryption@CipherShed@@1IB
CONST	SEGMENT
?RescueIsoImageSize@BootEncryption@CipherShed@@1IB DD 01c0000H ; CipherShed::BootEncryption::RescueIsoImageSize
CONST	ENDS
;	COMDAT ?value@?$integral_constant@_N$00@tr1@std@@2_NB
CONST	SEGMENT
?value@?$integral_constant@_N$00@tr1@std@@2_NB DB 01H	; std::tr1::integral_constant<bool,1>::value
CONST	ENDS
;	COMDAT ?value@?$integral_constant@_N$0A@@tr1@std@@2_NB
CONST	SEGMENT
?value@?$integral_constant@_N$0A@@tr1@std@@2_NB DB 00H	; std::tr1::integral_constant<bool,0>::value
CONST	ENDS
;	COMDAT ?end@?$_Iosb@H@std@@2W4_Seekdir@12@B
CONST	SEGMENT
?end@?$_Iosb@H@std@@2W4_Seekdir@12@B DD 02H		; std::_Iosb<int>::end
CONST	ENDS
;	COMDAT ?cur@?$_Iosb@H@std@@2W4_Seekdir@12@B
CONST	SEGMENT
?cur@?$_Iosb@H@std@@2W4_Seekdir@12@B DD 01H		; std::_Iosb<int>::cur
CONST	ENDS
;	COMDAT ?beg@?$_Iosb@H@std@@2W4_Seekdir@12@B
CONST	SEGMENT
?beg@?$_Iosb@H@std@@2W4_Seekdir@12@B DD 00H		; std::_Iosb<int>::beg
CONST	ENDS
;	COMDAT ?binary@?$_Iosb@H@std@@2W4_Openmode@12@B
CONST	SEGMENT
?binary@?$_Iosb@H@std@@2W4_Openmode@12@B DD 020H	; std::_Iosb<int>::binary
CONST	ENDS
;	COMDAT ?_Noreplace@?$_Iosb@H@std@@2W4_Openmode@12@B
CONST	SEGMENT
?_Noreplace@?$_Iosb@H@std@@2W4_Openmode@12@B DD 080H	; std::_Iosb<int>::_Noreplace
CONST	ENDS
;	COMDAT ?_Nocreate@?$_Iosb@H@std@@2W4_Openmode@12@B
CONST	SEGMENT
?_Nocreate@?$_Iosb@H@std@@2W4_Openmode@12@B DD 040H	; std::_Iosb<int>::_Nocreate
CONST	ENDS
;	COMDAT ?trunc@?$_Iosb@H@std@@2W4_Openmode@12@B
CONST	SEGMENT
?trunc@?$_Iosb@H@std@@2W4_Openmode@12@B DD 010H		; std::_Iosb<int>::trunc
CONST	ENDS
;	COMDAT ?app@?$_Iosb@H@std@@2W4_Openmode@12@B
CONST	SEGMENT
?app@?$_Iosb@H@std@@2W4_Openmode@12@B DD 08H		; std::_Iosb<int>::app
CONST	ENDS
;	COMDAT ?ate@?$_Iosb@H@std@@2W4_Openmode@12@B
CONST	SEGMENT
?ate@?$_Iosb@H@std@@2W4_Openmode@12@B DD 04H		; std::_Iosb<int>::ate
CONST	ENDS
;	COMDAT ?out@?$_Iosb@H@std@@2W4_Openmode@12@B
CONST	SEGMENT
?out@?$_Iosb@H@std@@2W4_Openmode@12@B DD 02H		; std::_Iosb<int>::out
CONST	ENDS
;	COMDAT ?in@?$_Iosb@H@std@@2W4_Openmode@12@B
CONST	SEGMENT
?in@?$_Iosb@H@std@@2W4_Openmode@12@B DD 01H		; std::_Iosb<int>::in
CONST	ENDS
;	COMDAT ?_Hardfail@?$_Iosb@H@std@@2W4_Iostate@12@B
CONST	SEGMENT
?_Hardfail@?$_Iosb@H@std@@2W4_Iostate@12@B DD 010H	; std::_Iosb<int>::_Hardfail
CONST	ENDS
;	COMDAT ?badbit@?$_Iosb@H@std@@2W4_Iostate@12@B
CONST	SEGMENT
?badbit@?$_Iosb@H@std@@2W4_Iostate@12@B DD 04H		; std::_Iosb<int>::badbit
CONST	ENDS
;	COMDAT ?failbit@?$_Iosb@H@std@@2W4_Iostate@12@B
CONST	SEGMENT
?failbit@?$_Iosb@H@std@@2W4_Iostate@12@B DD 02H		; std::_Iosb<int>::failbit
CONST	ENDS
;	COMDAT ?eofbit@?$_Iosb@H@std@@2W4_Iostate@12@B
CONST	SEGMENT
?eofbit@?$_Iosb@H@std@@2W4_Iostate@12@B DD 01H		; std::_Iosb<int>::eofbit
CONST	ENDS
;	COMDAT ?goodbit@?$_Iosb@H@std@@2W4_Iostate@12@B
CONST	SEGMENT
?goodbit@?$_Iosb@H@std@@2W4_Iostate@12@B DD 00H		; std::_Iosb<int>::goodbit
CONST	ENDS
;	COMDAT ?floatfield@?$_Iosb@H@std@@2W4_Fmtflags@12@B
CONST	SEGMENT
?floatfield@?$_Iosb@H@std@@2W4_Fmtflags@12@B DD 03000H	; std::_Iosb<int>::floatfield
CONST	ENDS
;	COMDAT ?basefield@?$_Iosb@H@std@@2W4_Fmtflags@12@B
CONST	SEGMENT
?basefield@?$_Iosb@H@std@@2W4_Fmtflags@12@B DD 0e00H	; std::_Iosb<int>::basefield
CONST	ENDS
;	COMDAT ?adjustfield@?$_Iosb@H@std@@2W4_Fmtflags@12@B
CONST	SEGMENT
?adjustfield@?$_Iosb@H@std@@2W4_Fmtflags@12@B DD 01c0H	; std::_Iosb<int>::adjustfield
CONST	ENDS
;	COMDAT ?_Stdio@?$_Iosb@H@std@@2W4_Fmtflags@12@B
CONST	SEGMENT
?_Stdio@?$_Iosb@H@std@@2W4_Fmtflags@12@B DD 08000H	; std::_Iosb<int>::_Stdio
CONST	ENDS
;	COMDAT ?boolalpha@?$_Iosb@H@std@@2W4_Fmtflags@12@B
CONST	SEGMENT
?boolalpha@?$_Iosb@H@std@@2W4_Fmtflags@12@B DD 04000H	; std::_Iosb<int>::boolalpha
CONST	ENDS
;	COMDAT ?hexfloat@?$_Iosb@H@std@@2W4_Fmtflags@12@B
CONST	SEGMENT
?hexfloat@?$_Iosb@H@std@@2W4_Fmtflags@12@B DD 03000H	; std::_Iosb<int>::hexfloat
CONST	ENDS
;	COMDAT ?fixed@?$_Iosb@H@std@@2W4_Fmtflags@12@B
CONST	SEGMENT
?fixed@?$_Iosb@H@std@@2W4_Fmtflags@12@B DD 02000H	; std::_Iosb<int>::fixed
CONST	ENDS
;	COMDAT ?scientific@?$_Iosb@H@std@@2W4_Fmtflags@12@B
CONST	SEGMENT
?scientific@?$_Iosb@H@std@@2W4_Fmtflags@12@B DD 01000H	; std::_Iosb<int>::scientific
CONST	ENDS
;	COMDAT ?hex@?$_Iosb@H@std@@2W4_Fmtflags@12@B
CONST	SEGMENT
?hex@?$_Iosb@H@std@@2W4_Fmtflags@12@B DD 0800H		; std::_Iosb<int>::hex
CONST	ENDS
;	COMDAT ?oct@?$_Iosb@H@std@@2W4_Fmtflags@12@B
CONST	SEGMENT
?oct@?$_Iosb@H@std@@2W4_Fmtflags@12@B DD 0400H		; std::_Iosb<int>::oct
CONST	ENDS
;	COMDAT ?dec@?$_Iosb@H@std@@2W4_Fmtflags@12@B
CONST	SEGMENT
?dec@?$_Iosb@H@std@@2W4_Fmtflags@12@B DD 0200H		; std::_Iosb<int>::dec
CONST	ENDS
;	COMDAT ?internal@?$_Iosb@H@std@@2W4_Fmtflags@12@B
CONST	SEGMENT
?internal@?$_Iosb@H@std@@2W4_Fmtflags@12@B DD 0100H	; std::_Iosb<int>::internal
CONST	ENDS
;	COMDAT ?right@?$_Iosb@H@std@@2W4_Fmtflags@12@B
CONST	SEGMENT
?right@?$_Iosb@H@std@@2W4_Fmtflags@12@B DD 080H		; std::_Iosb<int>::right
CONST	ENDS
;	COMDAT ?left@?$_Iosb@H@std@@2W4_Fmtflags@12@B
CONST	SEGMENT
?left@?$_Iosb@H@std@@2W4_Fmtflags@12@B DD 040H		; std::_Iosb<int>::left
CONST	ENDS
;	COMDAT ?showpos@?$_Iosb@H@std@@2W4_Fmtflags@12@B
CONST	SEGMENT
?showpos@?$_Iosb@H@std@@2W4_Fmtflags@12@B DD 020H	; std::_Iosb<int>::showpos
CONST	ENDS
;	COMDAT ?showpoint@?$_Iosb@H@std@@2W4_Fmtflags@12@B
CONST	SEGMENT
?showpoint@?$_Iosb@H@std@@2W4_Fmtflags@12@B DD 010H	; std::_Iosb<int>::showpoint
CONST	ENDS
;	COMDAT ?showbase@?$_Iosb@H@std@@2W4_Fmtflags@12@B
CONST	SEGMENT
?showbase@?$_Iosb@H@std@@2W4_Fmtflags@12@B DD 08H	; std::_Iosb<int>::showbase
CONST	ENDS
;	COMDAT ?uppercase@?$_Iosb@H@std@@2W4_Fmtflags@12@B
CONST	SEGMENT
?uppercase@?$_Iosb@H@std@@2W4_Fmtflags@12@B DD 04H	; std::_Iosb<int>::uppercase
CONST	ENDS
;	COMDAT ?unitbuf@?$_Iosb@H@std@@2W4_Fmtflags@12@B
CONST	SEGMENT
?unitbuf@?$_Iosb@H@std@@2W4_Fmtflags@12@B DD 02H	; std::_Iosb<int>::unitbuf
CONST	ENDS
;	COMDAT ?skipws@?$_Iosb@H@std@@2W4_Fmtflags@12@B
CONST	SEGMENT
?skipws@?$_Iosb@H@std@@2W4_Fmtflags@12@B DD 01H		; std::_Iosb<int>::skipws
CONST	ENDS
;	COMDAT ?table_size@?$ctype@D@std@@2IB
CONST	SEGMENT
?table_size@?$ctype@D@std@@2IB DD 0100H			; std::ctype<char>::table_size
CONST	ENDS
;	COMDAT ?none@?$_Locbase@H@std@@2HB
CONST	SEGMENT
?none@?$_Locbase@H@std@@2HB DD 00H			; std::_Locbase<int>::none
CONST	ENDS
;	COMDAT ?all@?$_Locbase@H@std@@2HB
CONST	SEGMENT
?all@?$_Locbase@H@std@@2HB DD 03fH			; std::_Locbase<int>::all
CONST	ENDS
;	COMDAT ?messages@?$_Locbase@H@std@@2HB
CONST	SEGMENT
?messages@?$_Locbase@H@std@@2HB DD 020H			; std::_Locbase<int>::messages
CONST	ENDS
;	COMDAT ?time@?$_Locbase@H@std@@2HB
CONST	SEGMENT
?time@?$_Locbase@H@std@@2HB DD 010H			; std::_Locbase<int>::time
CONST	ENDS
;	COMDAT ?numeric@?$_Locbase@H@std@@2HB
CONST	SEGMENT
?numeric@?$_Locbase@H@std@@2HB DD 08H			; std::_Locbase<int>::numeric
CONST	ENDS
;	COMDAT ?monetary@?$_Locbase@H@std@@2HB
CONST	SEGMENT
?monetary@?$_Locbase@H@std@@2HB DD 04H			; std::_Locbase<int>::monetary
CONST	ENDS
;	COMDAT ?ctype@?$_Locbase@H@std@@2HB
CONST	SEGMENT
?ctype@?$_Locbase@H@std@@2HB DD 02H			; std::_Locbase<int>::ctype
CONST	ENDS
;	COMDAT ?collate@?$_Locbase@H@std@@2HB
CONST	SEGMENT
?collate@?$_Locbase@H@std@@2HB DD 01H			; std::_Locbase<int>::collate
CONST	ENDS
;	COMDAT ?_Value@?$_Is_swap_move@U_Swap_move_tag@std@@@std@@2_NB
CONST	SEGMENT
?_Value@?$_Is_swap_move@U_Swap_move_tag@std@@@std@@2_NB DB 01H ; std::_Is_swap_move<std::_Swap_move_tag>::_Value
CONST	ENDS
_DATA	SEGMENT
__bad_alloc_Message DD FLAT:??_C@_0P@GHFPNOJB@bad?5allocation?$AA@
?bUseDifferentTrayIconIfVolMounted@@3HA DD 01H		; bUseDifferentTrayIconIfVolMounted
?bCloseDismountedWindows@@3HA DD 01H			; bCloseDismountedWindows
?bWipeCacheOnAutoDismount@@3HA DD 01H			; bWipeCacheOnAutoDismount
?bDismountOnLogOff@@3HA DD 01H				; bDismountOnLogOff
?bDismountOnScreenSaver@@3HA DD 01H			; bDismountOnScreenSaver
?bForceAutoDismount@@3HA DD 01H				; bForceAutoDismount
_bPlaySoundOnSuccessfulHkDismount DD 01H
_bDisplayBalloonOnSuccessfulHkDismount DD 01H
?UsePreferences@@3HA DD 01H				; UsePreferences
?MaxVolumeIdleTime@@3HA DD 0ffffff88H			; MaxVolumeIdleTime
?nSelectedDriveIndex@@3HA DD 0ffffffffH			; nSelectedDriveIndex
?OrigKeyboardLayout@@3PADA DB '00000409', 00H		; OrigKeyboardLayout
_DATA	ENDS
;	COMDAT ??_C@_0P@GHFPNOJB@bad?5allocation?$AA@
CONST	SEGMENT
??_C@_0P@GHFPNOJB@bad?5allocation?$AA@ DB 'bad allocation', 00H ; `string'
CONST	ENDS
PUBLIC	?strchr@@YAPADPADH@Z				; strchr
EXTRN	_strchr:PROC
; Function compile flags: /Ogtpy
; File c:\program files (x86)\microsoft visual studio 9.0\vc\include\string.h
;	COMDAT ?strchr@@YAPADPADH@Z
_TEXT	SEGMENT
__Str$ = 8						; size = 4
__Ch$ = 12						; size = 4
?strchr@@YAPADPADH@Z PROC				; strchr, COMDAT

; 184  : 	{ return (char*)strchr((const char*)_Str, _Ch); }

  00000	e9 00 00 00 00	 jmp	 _strchr
?strchr@@YAPADPADH@Z ENDP				; strchr
_TEXT	ENDS
PUBLIC	?strrchr@@YAPADPADH@Z				; strrchr
EXTRN	_strrchr:PROC
; Function compile flags: /Ogtpy
;	COMDAT ?strrchr@@YAPADPADH@Z
_TEXT	SEGMENT
__Str$ = 8						; size = 4
__Ch$ = 12						; size = 4
?strrchr@@YAPADPADH@Z PROC				; strrchr, COMDAT

; 188  : 	{ return (char*)strrchr((const char*)_Str, _Ch); }

  00000	e9 00 00 00 00	 jmp	 _strrchr
?strrchr@@YAPADPADH@Z ENDP				; strrchr
_TEXT	ENDS
PUBLIC	?wcsstr@@YAPA_WPA_WPB_W@Z			; wcsstr
EXTRN	_wcsstr:PROC
; Function compile flags: /Ogtpy
;	COMDAT ?wcsstr@@YAPA_WPA_WPB_W@Z
_TEXT	SEGMENT
__Str$ = 8						; size = 4
__SubStr$ = 12						; size = 4
?wcsstr@@YAPA_WPA_WPB_W@Z PROC				; wcsstr, COMDAT

; 337  :         {return ((wchar_t *)wcsstr((const wchar_t *)_Str, _SubStr)); }

  00000	e9 00 00 00 00	 jmp	 _wcsstr
?wcsstr@@YAPA_WPA_WPB_W@Z ENDP				; wcsstr
_TEXT	ENDS
PUBLIC	_RtlSecureZeroMemory
; Function compile flags: /Ogtpy
; File c:\program files\microsoft sdks\windows\v7.0\include\winnt.h
;	COMDAT _RtlSecureZeroMemory
_TEXT	SEGMENT
_ptr$ = 8						; size = 4
_cnt$ = 12						; size = 4
_RtlSecureZeroMemory PROC				; COMDAT

; 13070:     volatile char *vptr = (volatile char *)ptr;
; 13071: 
; 13072: #if defined(_M_AMD64)
; 13073: 
; 13074:         __stosb((PBYTE )((DWORD64)vptr), 0, cnt);
; 13075: 
; 13076: #else
; 13077: 
; 13078:     while (cnt) {

  00000	8b 54 24 08	 mov	 edx, DWORD PTR _cnt$[esp-4]
  00004	8b 44 24 04	 mov	 eax, DWORD PTR _ptr$[esp-4]
  00008	8b c8		 mov	 ecx, eax
  0000a	85 d2		 test	 edx, edx
  0000c	74 0b		 je	 SHORT $LN1@RtlSecureZ
  0000e	8b ff		 npad	 2
$LL2@RtlSecureZ:

; 13079:         *vptr = 0;

  00010	c6 01 00	 mov	 BYTE PTR [ecx], 0

; 13080:         vptr++;

  00013	41		 inc	 ecx

; 13081:         cnt--;

  00014	83 ea 01	 sub	 edx, 1
  00017	75 f7		 jne	 SHORT $LL2@RtlSecureZ
$LN1@RtlSecureZ:

; 13082:     }
; 13083: 
; 13084: #endif
; 13085: 
; 13086:     return ptr;
; 13087: }

  00019	c3		 ret	 0
_RtlSecureZeroMemory ENDP
_TEXT	ENDS
PUBLIC	?swprintf@@YAHPA_WPB_WZZ			; swprintf
EXTRN	__vswprintf:PROC
; Function compile flags: /Ogtpy
; File c:\program files (x86)\microsoft visual studio 9.0\vc\include\swprintf.inl
;	COMDAT ?swprintf@@YAHPA_WPB_WZZ
_TEXT	SEGMENT
__String$ = 8						; size = 4
__Format$ = 12						; size = 4
?swprintf@@YAHPA_WPB_WZZ PROC				; swprintf, COMDAT

; 87   :     va_list _Arglist;
; 88   :     _crt_va_start(_Arglist, _Format);
; 89   :     int _Ret = _vswprintf(_String, _Format, _Arglist);

  00000	8b 4c 24 08	 mov	 ecx, DWORD PTR __Format$[esp-4]
  00004	8b 54 24 04	 mov	 edx, DWORD PTR __String$[esp-4]
  00008	8d 44 24 0c	 lea	 eax, DWORD PTR __Format$[esp]
  0000c	50		 push	 eax
  0000d	51		 push	 ecx
  0000e	52		 push	 edx
  0000f	e8 00 00 00 00	 call	 __vswprintf
  00014	83 c4 0c	 add	 esp, 12			; 0000000cH

; 90   :     _crt_va_end(_Arglist);
; 91   :     return _Ret;
; 92   : }

  00017	c3		 ret	 0
?swprintf@@YAHPA_WPB_WZZ ENDP				; swprintf
_TEXT	ENDS
PUBLIC	??_7bad_alloc@std@@6B@				; std::bad_alloc::`vftable'
PUBLIC	??0bad_alloc@std@@QAE@PBD@Z			; std::bad_alloc::bad_alloc
PUBLIC	??_R4bad_alloc@std@@6B@				; std::bad_alloc::`RTTI Complete Object Locator'
PUBLIC	??_R0?AVbad_alloc@std@@@8			; std::bad_alloc `RTTI Type Descriptor'
PUBLIC	??_R3bad_alloc@std@@8				; std::bad_alloc::`RTTI Class Hierarchy Descriptor'
PUBLIC	??_R2bad_alloc@std@@8				; std::bad_alloc::`RTTI Base Class Array'
PUBLIC	??_R1A@?0A@EA@bad_alloc@std@@8			; std::bad_alloc::`RTTI Base Class Descriptor at (0,-1,0,64)'
PUBLIC	??_R1A@?0A@EA@exception@std@@8			; std::exception::`RTTI Base Class Descriptor at (0,-1,0,64)'
PUBLIC	??_R0?AVexception@std@@@8			; std::exception `RTTI Type Descriptor'
PUBLIC	??_R3exception@std@@8				; std::exception::`RTTI Class Hierarchy Descriptor'
PUBLIC	??_R2exception@std@@8				; std::exception::`RTTI Base Class Array'
EXTRN	??0exception@std@@QAE@ABQBD@Z:PROC		; std::exception::exception
EXTRN	??_7type_info@@6B@:QWORD			; type_info::`vftable'
EXTRN	??_Ebad_alloc@std@@UAEPAXI@Z:PROC		; std::bad_alloc::`vector deleting destructor'
EXTRN	?what@exception@std@@UBEPBDXZ:PROC		; std::exception::what
;	COMDAT ??_R2exception@std@@8
; File c:\program files (x86)\microsoft visual studio 9.0\vc\include\exception
rdata$r	SEGMENT
??_R2exception@std@@8 DD FLAT:??_R1A@?0A@EA@exception@std@@8 ; std::exception::`RTTI Base Class Array'
rdata$r	ENDS
;	COMDAT ??_R3exception@std@@8
rdata$r	SEGMENT
??_R3exception@std@@8 DD 00H				; std::exception::`RTTI Class Hierarchy Descriptor'
	DD	00H
	DD	01H
	DD	FLAT:??_R2exception@std@@8
rdata$r	ENDS
;	COMDAT ??_R0?AVexception@std@@@8
_DATA	SEGMENT
??_R0?AVexception@std@@@8 DD FLAT:??_7type_info@@6B@	; std::exception `RTTI Type Descriptor'
	DD	00H
	DB	'.?AVexception@std@@', 00H
_DATA	ENDS
;	COMDAT ??_R1A@?0A@EA@exception@std@@8
rdata$r	SEGMENT
??_R1A@?0A@EA@exception@std@@8 DD FLAT:??_R0?AVexception@std@@@8 ; std::exception::`RTTI Base Class Descriptor at (0,-1,0,64)'
	DD	00H
	DD	00H
	DD	0ffffffffH
	DD	00H
	DD	040H
	DD	FLAT:??_R3exception@std@@8
rdata$r	ENDS
;	COMDAT ??_R1A@?0A@EA@bad_alloc@std@@8
rdata$r	SEGMENT
??_R1A@?0A@EA@bad_alloc@std@@8 DD FLAT:??_R0?AVbad_alloc@std@@@8 ; std::bad_alloc::`RTTI Base Class Descriptor at (0,-1,0,64)'
	DD	01H
	DD	00H
	DD	0ffffffffH
	DD	00H
	DD	040H
	DD	FLAT:??_R3bad_alloc@std@@8
rdata$r	ENDS
;	COMDAT ??_R2bad_alloc@std@@8
rdata$r	SEGMENT
??_R2bad_alloc@std@@8 DD FLAT:??_R1A@?0A@EA@bad_alloc@std@@8 ; std::bad_alloc::`RTTI Base Class Array'
	DD	FLAT:??_R1A@?0A@EA@exception@std@@8
rdata$r	ENDS
;	COMDAT ??_R3bad_alloc@std@@8
rdata$r	SEGMENT
??_R3bad_alloc@std@@8 DD 00H				; std::bad_alloc::`RTTI Class Hierarchy Descriptor'
	DD	00H
	DD	02H
	DD	FLAT:??_R2bad_alloc@std@@8
rdata$r	ENDS
;	COMDAT ??_R0?AVbad_alloc@std@@@8
_DATA	SEGMENT
??_R0?AVbad_alloc@std@@@8 DD FLAT:??_7type_info@@6B@	; std::bad_alloc `RTTI Type Descriptor'
	DD	00H
	DB	'.?AVbad_alloc@std@@', 00H
_DATA	ENDS
;	COMDAT ??_R4bad_alloc@std@@6B@
rdata$r	SEGMENT
??_R4bad_alloc@std@@6B@ DD 00H				; std::bad_alloc::`RTTI Complete Object Locator'
	DD	00H
	DD	00H
	DD	FLAT:??_R0?AVbad_alloc@std@@@8
	DD	FLAT:??_R3bad_alloc@std@@8
rdata$r	ENDS
;	COMDAT ??_7bad_alloc@std@@6B@
CONST	SEGMENT
??_7bad_alloc@std@@6B@ DD FLAT:??_R4bad_alloc@std@@6B@	; std::bad_alloc::`vftable'
	DD	FLAT:??_Ebad_alloc@std@@UAEPAXI@Z
	DD	FLAT:?what@exception@std@@UBEPBDXZ
; Function compile flags: /Ogtpy
CONST	ENDS
;	COMDAT ??0bad_alloc@std@@QAE@PBD@Z
_TEXT	SEGMENT
__Message$ = 8						; size = 4
??0bad_alloc@std@@QAE@PBD@Z PROC			; std::bad_alloc::bad_alloc, COMDAT
; _this$ = ecx

; 371  : 		{	// construct from message string

  00000	56		 push	 esi
  00001	8d 44 24 08	 lea	 eax, DWORD PTR __Message$[esp]
  00005	50		 push	 eax
  00006	8b f1		 mov	 esi, ecx
  00008	e8 00 00 00 00	 call	 ??0exception@std@@QAE@ABQBD@Z ; std::exception::exception
  0000d	c7 06 00 00 00
	00		 mov	 DWORD PTR [esi], OFFSET ??_7bad_alloc@std@@6B@

; 372  : 		}

  00013	8b c6		 mov	 eax, esi
  00015	5e		 pop	 esi
  00016	c2 04 00	 ret	 4
??0bad_alloc@std@@QAE@PBD@Z ENDP			; std::bad_alloc::bad_alloc
_TEXT	ENDS
PUBLIC	??1bad_alloc@std@@UAE@XZ			; std::bad_alloc::~bad_alloc
EXTRN	??1exception@std@@UAE@XZ:PROC			; std::exception::~exception
; Function compile flags: /Ogtpy
;	COMDAT ??1bad_alloc@std@@UAE@XZ
_TEXT	SEGMENT
??1bad_alloc@std@@UAE@XZ PROC				; std::bad_alloc::~bad_alloc, COMDAT
; _this$ = ecx

; 380  : 		{	// destroy the object

  00000	c7 01 00 00 00
	00		 mov	 DWORD PTR [ecx], OFFSET ??_7bad_alloc@std@@6B@

; 381  : 		}

  00006	e9 00 00 00 00	 jmp	 ??1exception@std@@UAE@XZ ; std::exception::~exception
??1bad_alloc@std@@UAE@XZ ENDP				; std::bad_alloc::~bad_alloc
_TEXT	ENDS
EXTRN	??3@YAXPAX@Z:PROC				; operator delete
; Function compile flags: /Ogtpy
;	COMDAT ??_Gbad_alloc@std@@UAEPAXI@Z
_TEXT	SEGMENT
___flags$ = 8						; size = 4
??_Gbad_alloc@std@@UAEPAXI@Z PROC			; std::bad_alloc::`scalar deleting destructor', COMDAT
; _this$ = ecx
  00000	56		 push	 esi
  00001	8b f1		 mov	 esi, ecx
  00003	c7 06 00 00 00
	00		 mov	 DWORD PTR [esi], OFFSET ??_7bad_alloc@std@@6B@
  00009	e8 00 00 00 00	 call	 ??1exception@std@@UAE@XZ ; std::exception::~exception
  0000e	f6 44 24 08 01	 test	 BYTE PTR ___flags$[esp], 1
  00013	74 09		 je	 SHORT $LN6@scalar
  00015	56		 push	 esi
  00016	e8 00 00 00 00	 call	 ??3@YAXPAX@Z		; operator delete
  0001b	83 c4 04	 add	 esp, 4
$LN6@scalar:
  0001e	8b c6		 mov	 eax, esi
  00020	5e		 pop	 esi
  00021	c2 04 00	 ret	 4
??_Gbad_alloc@std@@UAEPAXI@Z ENDP			; std::bad_alloc::`scalar deleting destructor'
_TEXT	ENDS
PUBLIC	??2@YAPAXIPAX@Z					; operator new
; Function compile flags: /Ogtpy
; File c:\program files (x86)\microsoft visual studio 9.0\vc\include\new
;	COMDAT ??2@YAPAXIPAX@Z
_TEXT	SEGMENT
___formal$ = 8						; size = 4
__Where$ = 12						; size = 4
??2@YAPAXIPAX@Z PROC					; operator new, COMDAT

; 59   : 	return (_Where);

  00000	8b 44 24 08	 mov	 eax, DWORD PTR __Where$[esp-4]

; 60   : 	}

  00004	c3		 ret	 0
??2@YAPAXIPAX@Z ENDP					; operator new
_TEXT	ENDS
PUBLIC	??3@YAXPAX0@Z					; operator delete
; Function compile flags: /Ogtpy
;	COMDAT ??3@YAXPAX0@Z
_TEXT	SEGMENT
___formal$ = 8						; size = 4
___formal$ = 12						; size = 4
??3@YAXPAX0@Z PROC					; operator delete, COMDAT

; 64   : 	}

  00000	c3		 ret	 0
??3@YAXPAX0@Z ENDP					; operator delete
_TEXT	ENDS
PUBLIC	_wmemcmp
; Function compile flags: /Ogtpy
; File c:\program files (x86)\microsoft visual studio 9.0\vc\include\wchar.h
;	COMDAT _wmemcmp
_TEXT	SEGMENT
__S1$ = 8						; size = 4
__S2$ = 12						; size = 4
__N$ = 16						; size = 4
_wmemcmp PROC						; COMDAT

; 1216 :         {for (; 0 < _N; ++_S1, ++_S2, --_N)

  00000	8b 54 24 0c	 mov	 edx, DWORD PTR __N$[esp-4]
  00004	56		 push	 esi
  00005	85 d2		 test	 edx, edx
  00007	76 1b		 jbe	 SHORT $LN2@wmemcmp
  00009	8b 4c 24 0c	 mov	 ecx, DWORD PTR __S2$[esp]
  0000d	8b 44 24 08	 mov	 eax, DWORD PTR __S1$[esp]
$LL4@wmemcmp:

; 1217 :                 if (*_S1 != *_S2)

  00011	66 8b 30	 mov	 si, WORD PTR [eax]
  00014	66 3b 31	 cmp	 si, WORD PTR [ecx]
  00017	75 0f		 jne	 SHORT $LN8@wmemcmp
  00019	83 c0 02	 add	 eax, 2
  0001c	83 c1 02	 add	 ecx, 2
  0001f	83 ea 01	 sub	 edx, 1
  00022	75 ed		 jne	 SHORT $LL4@wmemcmp
$LN2@wmemcmp:

; 1219 :         return (0); }

  00024	33 c0		 xor	 eax, eax
  00026	5e		 pop	 esi
  00027	c3		 ret	 0
$LN8@wmemcmp:

; 1218 :                         return (*_S1 < *_S2 ? -1 : +1);

  00028	0f b7 00	 movzx	 eax, WORD PTR [eax]
  0002b	66 3b 01	 cmp	 ax, WORD PTR [ecx]
  0002e	5e		 pop	 esi
  0002f	1b c0		 sbb	 eax, eax
  00031	83 e0 fe	 and	 eax, -2			; fffffffeH
  00034	40		 inc	 eax

; 1219 :         return (0); }

  00035	c3		 ret	 0
_wmemcmp ENDP
_TEXT	ENDS
PUBLIC	_wmemcpy_s
EXTRN	_memcpy_s:PROC
; Function compile flags: /Ogtpy
;	COMDAT _wmemcpy_s
_TEXT	SEGMENT
__S1$ = 8						; size = 4
__N1$ = 12						; size = 4
__S2$ = 16						; size = 4
__N$ = 20						; size = 4
_wmemcpy_s PROC						; COMDAT

; 1232 : #pragma warning( push )
; 1233 : #pragma warning( disable : 6386 )
; 1234 :             return memcpy_s(_S1, _N1*sizeof(wchar_t), _S2, _N*sizeof(wchar_t));

  00000	8b 44 24 10	 mov	 eax, DWORD PTR __N$[esp-4]
  00004	8d 0c 00	 lea	 ecx, DWORD PTR [eax+eax]
  00007	89 4c 24 10	 mov	 DWORD PTR __N$[esp-4], ecx
  0000b	8b 44 24 08	 mov	 eax, DWORD PTR __N1$[esp-4]
  0000f	8d 0c 00	 lea	 ecx, DWORD PTR [eax+eax]
  00012	89 4c 24 08	 mov	 DWORD PTR __N1$[esp-4], ecx
  00016	e9 00 00 00 00	 jmp	 _memcpy_s
_wmemcpy_s ENDP
_TEXT	ENDS
PUBLIC	_wmemmove_s
EXTRN	_memmove_s:PROC
; Function compile flags: /Ogtpy
;	COMDAT _wmemmove_s
_TEXT	SEGMENT
__S1$ = 8						; size = 4
__N1$ = 12						; size = 4
__S2$ = 16						; size = 4
__N$ = 20						; size = 4
_wmemmove_s PROC					; COMDAT

; 1252 : #pragma warning( push )
; 1253 : #pragma warning( disable : 6386 )
; 1254 :             return memmove_s(_S1, _N1*sizeof(wchar_t), _S2, _N*sizeof(wchar_t));

  00000	8b 44 24 10	 mov	 eax, DWORD PTR __N$[esp-4]
  00004	8d 0c 00	 lea	 ecx, DWORD PTR [eax+eax]
  00007	89 4c 24 10	 mov	 DWORD PTR __N$[esp-4], ecx
  0000b	8b 44 24 08	 mov	 eax, DWORD PTR __N1$[esp-4]
  0000f	8d 0c 00	 lea	 ecx, DWORD PTR [eax+eax]
  00012	89 4c 24 08	 mov	 DWORD PTR __N1$[esp-4], ecx
  00016	e9 00 00 00 00	 jmp	 _memmove_s
_wmemmove_s ENDP
_TEXT	ENDS
PUBLIC	?assign@?$char_traits@_W@std@@SAXAA_WAB_W@Z	; std::char_traits<wchar_t>::assign
; Function compile flags: /Ogtpy
; File c:\program files (x86)\microsoft visual studio 9.0\vc\include\iosfwd
;	COMDAT ?assign@?$char_traits@_W@std@@SAXAA_WAB_W@Z
_TEXT	SEGMENT
__Left$ = 8						; size = 4
__Right$ = 12						; size = 4
?assign@?$char_traits@_W@std@@SAXAA_WAB_W@Z PROC	; std::char_traits<wchar_t>::assign, COMDAT

; 310  : 		_Left = _Right;

  00000	8b 44 24 08	 mov	 eax, DWORD PTR __Right$[esp-4]
  00004	66 8b 08	 mov	 cx, WORD PTR [eax]
  00007	8b 54 24 04	 mov	 edx, DWORD PTR __Left$[esp-4]
  0000b	66 89 0a	 mov	 WORD PTR [edx], cx

; 311  : 		}

  0000e	c3		 ret	 0
?assign@?$char_traits@_W@std@@SAXAA_WAB_W@Z ENDP	; std::char_traits<wchar_t>::assign
_TEXT	ENDS
PUBLIC	?compare@?$char_traits@_W@std@@SAHPB_W0I@Z	; std::char_traits<wchar_t>::compare
; Function compile flags: /Ogtpy
;	COMDAT ?compare@?$char_traits@_W@std@@SAHPB_W0I@Z
_TEXT	SEGMENT
__First1$ = 8						; size = 4
__First2$ = 12						; size = 4
__Count$ = 16						; size = 4
?compare@?$char_traits@_W@std@@SAHPB_W0I@Z PROC		; std::char_traits<wchar_t>::compare, COMDAT

; 326  : //		_DEBUG_POINTER(_First1);
; 327  : //		_DEBUG_POINTER(_First2);
; 328  : 		return (::wmemcmp(_First1, _First2, _Count));

  00000	e9 00 00 00 00	 jmp	 _wmemcmp
?compare@?$char_traits@_W@std@@SAHPB_W0I@Z ENDP		; std::char_traits<wchar_t>::compare
_TEXT	ENDS
PUBLIC	?length@?$char_traits@_W@std@@SAIPB_W@Z		; std::char_traits<wchar_t>::length
; Function compile flags: /Ogtpy
;	COMDAT ?length@?$char_traits@_W@std@@SAIPB_W@Z
_TEXT	SEGMENT
__First$ = 8						; size = 4
?length@?$char_traits@_W@std@@SAIPB_W@Z PROC		; std::char_traits<wchar_t>::length, COMDAT

; 333  : //		_DEBUG_POINTER(_First);
; 334  : 		return (::wcslen(_First));

  00000	8b 44 24 04	 mov	 eax, DWORD PTR __First$[esp-4]
  00004	8d 50 02	 lea	 edx, DWORD PTR [eax+2]
$LL3@length:
  00007	66 8b 08	 mov	 cx, WORD PTR [eax]
  0000a	83 c0 02	 add	 eax, 2
  0000d	66 85 c9	 test	 cx, cx
  00010	75 f5		 jne	 SHORT $LL3@length
  00012	2b c2		 sub	 eax, edx
  00014	d1 f8		 sar	 eax, 1

; 335  : 		}

  00016	c3		 ret	 0
?length@?$char_traits@_W@std@@SAIPB_W@Z ENDP		; std::char_traits<wchar_t>::length
_TEXT	ENDS
PUBLIC	?_Copy_s@?$char_traits@_W@std@@SAPA_WPA_WIPB_WI@Z ; std::char_traits<wchar_t>::_Copy_s
; Function compile flags: /Ogtpy
;	COMDAT ?_Copy_s@?$char_traits@_W@std@@SAPA_WPA_WIPB_WI@Z
_TEXT	SEGMENT
__First1$ = 8						; size = 4
__Size_in_words$ = 12					; size = 4
__First2$ = 16						; size = 4
__Count$ = 20						; size = 4
?_Copy_s@?$char_traits@_W@std@@SAPA_WPA_WIPB_WI@Z PROC	; std::char_traits<wchar_t>::_Copy_s, COMDAT

; 348  : //		_DEBUG_POINTER(_First1);
; 349  : //		_DEBUG_POINTER(_First2);
; 350  : 		_CRT_SECURE_WMEMCPY(_First1, _Size_in_words, _First2, _Count);

  00000	8b 44 24 10	 mov	 eax, DWORD PTR __Count$[esp-4]
  00004	8b 54 24 0c	 mov	 edx, DWORD PTR __First2$[esp-4]
  00008	56		 push	 esi
  00009	8b 74 24 08	 mov	 esi, DWORD PTR __First1$[esp]
  0000d	8d 0c 00	 lea	 ecx, DWORD PTR [eax+eax]
  00010	8b 44 24 0c	 mov	 eax, DWORD PTR __Size_in_words$[esp]
  00014	51		 push	 ecx
  00015	52		 push	 edx
  00016	8d 0c 00	 lea	 ecx, DWORD PTR [eax+eax]
  00019	51		 push	 ecx
  0001a	56		 push	 esi
  0001b	e8 00 00 00 00	 call	 _memcpy_s
  00020	83 c4 10	 add	 esp, 16			; 00000010H

; 351  : 		return _First1;

  00023	8b c6		 mov	 eax, esi
  00025	5e		 pop	 esi

; 352  : 		}

  00026	c3		 ret	 0
?_Copy_s@?$char_traits@_W@std@@SAPA_WPA_WIPB_WI@Z ENDP	; std::char_traits<wchar_t>::_Copy_s
_TEXT	ENDS
PUBLIC	?_Move_s@?$char_traits@_W@std@@SAPA_WPA_WIPB_WI@Z ; std::char_traits<wchar_t>::_Move_s
; Function compile flags: /Ogtpy
;	COMDAT ?_Move_s@?$char_traits@_W@std@@SAPA_WPA_WIPB_WI@Z
_TEXT	SEGMENT
__First1$ = 8						; size = 4
__Size_in_words$ = 12					; size = 4
__First2$ = 16						; size = 4
__Count$ = 20						; size = 4
?_Move_s@?$char_traits@_W@std@@SAPA_WPA_WIPB_WI@Z PROC	; std::char_traits<wchar_t>::_Move_s, COMDAT

; 372  : //		_DEBUG_POINTER(_First1);
; 373  : //		_DEBUG_POINTER(_First2);
; 374  : 		_CRT_SECURE_WMEMMOVE(_First1, _Size_in_words, _First2, _Count);

  00000	8b 44 24 10	 mov	 eax, DWORD PTR __Count$[esp-4]
  00004	8b 54 24 0c	 mov	 edx, DWORD PTR __First2$[esp-4]
  00008	56		 push	 esi
  00009	8b 74 24 08	 mov	 esi, DWORD PTR __First1$[esp]
  0000d	8d 0c 00	 lea	 ecx, DWORD PTR [eax+eax]
  00010	8b 44 24 0c	 mov	 eax, DWORD PTR __Size_in_words$[esp]
  00014	51		 push	 ecx
  00015	52		 push	 edx
  00016	8d 0c 00	 lea	 ecx, DWORD PTR [eax+eax]
  00019	51		 push	 ecx
  0001a	56		 push	 esi
  0001b	e8 00 00 00 00	 call	 _memmove_s
  00020	83 c4 10	 add	 esp, 16			; 00000010H

; 375  : 		return (_Elem *)_First1;

  00023	8b c6		 mov	 eax, esi
  00025	5e		 pop	 esi

; 376  : 		}

  00026	c3		 ret	 0
?_Move_s@?$char_traits@_W@std@@SAPA_WPA_WIPB_WI@Z ENDP	; std::char_traits<wchar_t>::_Move_s
_TEXT	ENDS
PUBLIC	?assign@?$char_traits@D@std@@SAXAADABD@Z	; std::char_traits<char>::assign
; Function compile flags: /Ogtpy
;	COMDAT ?assign@?$char_traits@D@std@@SAXAADABD@Z
_TEXT	SEGMENT
__Left$ = 8						; size = 4
__Right$ = 12						; size = 4
?assign@?$char_traits@D@std@@SAXAADABD@Z PROC		; std::char_traits<char>::assign, COMDAT

; 425  : 		_Left = _Right;

  00000	8b 44 24 08	 mov	 eax, DWORD PTR __Right$[esp-4]
  00004	8a 08		 mov	 cl, BYTE PTR [eax]
  00006	8b 54 24 04	 mov	 edx, DWORD PTR __Left$[esp-4]
  0000a	88 0a		 mov	 BYTE PTR [edx], cl

; 426  : 		}

  0000c	c3		 ret	 0
?assign@?$char_traits@D@std@@SAXAADABD@Z ENDP		; std::char_traits<char>::assign
_TEXT	ENDS
PUBLIC	?eq@?$char_traits@D@std@@SA_NABD0@Z		; std::char_traits<char>::eq
; Function compile flags: /Ogtpy
;	COMDAT ?eq@?$char_traits@D@std@@SA_NABD0@Z
_TEXT	SEGMENT
__Left$ = 8						; size = 4
__Right$ = 12						; size = 4
?eq@?$char_traits@D@std@@SA_NABD0@Z PROC		; std::char_traits<char>::eq, COMDAT

; 430  : 		return (_Left == _Right);

  00000	8b 44 24 04	 mov	 eax, DWORD PTR __Left$[esp-4]
  00004	8a 08		 mov	 cl, BYTE PTR [eax]
  00006	8b 54 24 08	 mov	 edx, DWORD PTR __Right$[esp-4]
  0000a	33 c0		 xor	 eax, eax
  0000c	3a 0a		 cmp	 cl, BYTE PTR [edx]
  0000e	0f 94 c0	 sete	 al

; 431  : 		}

  00011	c3		 ret	 0
?eq@?$char_traits@D@std@@SA_NABD0@Z ENDP		; std::char_traits<char>::eq
_TEXT	ENDS
PUBLIC	?compare@?$char_traits@D@std@@SAHPBD0I@Z	; std::char_traits<char>::compare
; Function compile flags: /Ogtpy
;	COMDAT ?compare@?$char_traits@D@std@@SAHPBD0I@Z
_TEXT	SEGMENT
__First1$ = 8						; size = 4
__First2$ = 12						; size = 4
__Count$ = 16						; size = 4
?compare@?$char_traits@D@std@@SAHPBD0I@Z PROC		; std::char_traits<char>::compare, COMDAT

; 441  : //		_DEBUG_POINTER(_First1);
; 442  : //		_DEBUG_POINTER(_First2);
; 443  : 		return (::memcmp(_First1, _First2, _Count));

  00000	8b 4c 24 08	 mov	 ecx, DWORD PTR __First2$[esp-4]
  00004	8b 54 24 04	 mov	 edx, DWORD PTR __First1$[esp-4]
  00008	56		 push	 esi
  00009	8b 74 24 10	 mov	 esi, DWORD PTR __Count$[esp]
  0000d	57		 push	 edi
  0000e	83 fe 04	 cmp	 esi, 4
  00011	72 14		 jb	 SHORT $LN11@compare
$LL4@compare:
  00013	8b 02		 mov	 eax, DWORD PTR [edx]
  00015	3b 01		 cmp	 eax, DWORD PTR [ecx]
  00017	75 12		 jne	 SHORT $LN5@compare
  00019	83 ee 04	 sub	 esi, 4
  0001c	83 c1 04	 add	 ecx, 4
  0001f	83 c2 04	 add	 edx, 4
  00022	83 fe 04	 cmp	 esi, 4
  00025	73 ec		 jae	 SHORT $LL4@compare
$LN11@compare:
  00027	85 f6		 test	 esi, esi
  00029	74 44		 je	 SHORT $LN6@compare
$LN5@compare:
  0002b	0f b6 02	 movzx	 eax, BYTE PTR [edx]
  0002e	0f b6 39	 movzx	 edi, BYTE PTR [ecx]
  00031	2b c7		 sub	 eax, edi
  00033	75 31		 jne	 SHORT $LN7@compare
  00035	83 fe 01	 cmp	 esi, 1
  00038	76 35		 jbe	 SHORT $LN6@compare
  0003a	0f b6 42 01	 movzx	 eax, BYTE PTR [edx+1]
  0003e	0f b6 79 01	 movzx	 edi, BYTE PTR [ecx+1]
  00042	2b c7		 sub	 eax, edi
  00044	75 20		 jne	 SHORT $LN7@compare
  00046	83 fe 02	 cmp	 esi, 2
  00049	76 24		 jbe	 SHORT $LN6@compare
  0004b	0f b6 42 02	 movzx	 eax, BYTE PTR [edx+2]
  0004f	0f b6 79 02	 movzx	 edi, BYTE PTR [ecx+2]
  00053	2b c7		 sub	 eax, edi
  00055	75 0f		 jne	 SHORT $LN7@compare
  00057	83 fe 03	 cmp	 esi, 3
  0005a	76 13		 jbe	 SHORT $LN6@compare
  0005c	0f b6 42 03	 movzx	 eax, BYTE PTR [edx+3]
  00060	0f b6 49 03	 movzx	 ecx, BYTE PTR [ecx+3]
  00064	2b c1		 sub	 eax, ecx
$LN7@compare:
  00066	c1 f8 1f	 sar	 eax, 31			; 0000001fH
  00069	5f		 pop	 edi
  0006a	83 c8 01	 or	 eax, 1
  0006d	5e		 pop	 esi

; 444  : 		}

  0006e	c3		 ret	 0
$LN6@compare:
  0006f	5f		 pop	 edi

; 441  : //		_DEBUG_POINTER(_First1);
; 442  : //		_DEBUG_POINTER(_First2);
; 443  : 		return (::memcmp(_First1, _First2, _Count));

  00070	33 c0		 xor	 eax, eax
  00072	5e		 pop	 esi

; 444  : 		}

  00073	c3		 ret	 0
?compare@?$char_traits@D@std@@SAHPBD0I@Z ENDP		; std::char_traits<char>::compare
_TEXT	ENDS
PUBLIC	?length@?$char_traits@D@std@@SAIPBD@Z		; std::char_traits<char>::length
; Function compile flags: /Ogtpy
;	COMDAT ?length@?$char_traits@D@std@@SAIPBD@Z
_TEXT	SEGMENT
__First$ = 8						; size = 4
?length@?$char_traits@D@std@@SAIPBD@Z PROC		; std::char_traits<char>::length, COMDAT

; 448  : //		_DEBUG_POINTER(_First);
; 449  : 		return (::strlen(_First));

  00000	8b 44 24 04	 mov	 eax, DWORD PTR __First$[esp-4]
  00004	8d 50 01	 lea	 edx, DWORD PTR [eax+1]
$LL3@length@2:
  00007	8a 08		 mov	 cl, BYTE PTR [eax]
  00009	40		 inc	 eax
  0000a	84 c9		 test	 cl, cl
  0000c	75 f9		 jne	 SHORT $LL3@length@2
  0000e	2b c2		 sub	 eax, edx

; 450  : 		}

  00010	c3		 ret	 0
?length@?$char_traits@D@std@@SAIPBD@Z ENDP		; std::char_traits<char>::length
_TEXT	ENDS
PUBLIC	?_Copy_s@?$char_traits@D@std@@SAPADPADIPBDI@Z	; std::char_traits<char>::_Copy_s
; Function compile flags: /Ogtpy
;	COMDAT ?_Copy_s@?$char_traits@D@std@@SAPADPADIPBDI@Z
_TEXT	SEGMENT
__First1$ = 8						; size = 4
__Size_in_bytes$ = 12					; size = 4
__First2$ = 16						; size = 4
__Count$ = 20						; size = 4
?_Copy_s@?$char_traits@D@std@@SAPADPADIPBDI@Z PROC	; std::char_traits<char>::_Copy_s, COMDAT

; 463  : //		_DEBUG_POINTER(_First1);
; 464  : //		_DEBUG_POINTER(_First2);
; 465  : 		_CRT_SECURE_MEMCPY(_First1, _Size_in_bytes, _First2, _Count);

  00000	8b 44 24 10	 mov	 eax, DWORD PTR __Count$[esp-4]
  00004	8b 4c 24 0c	 mov	 ecx, DWORD PTR __First2$[esp-4]
  00008	8b 54 24 08	 mov	 edx, DWORD PTR __Size_in_bytes$[esp-4]
  0000c	56		 push	 esi
  0000d	8b 74 24 08	 mov	 esi, DWORD PTR __First1$[esp]
  00011	50		 push	 eax
  00012	51		 push	 ecx
  00013	52		 push	 edx
  00014	56		 push	 esi
  00015	e8 00 00 00 00	 call	 _memcpy_s
  0001a	83 c4 10	 add	 esp, 16			; 00000010H

; 466  : 		return _First1;

  0001d	8b c6		 mov	 eax, esi
  0001f	5e		 pop	 esi

; 467  : 		}

  00020	c3		 ret	 0
?_Copy_s@?$char_traits@D@std@@SAPADPADIPBDI@Z ENDP	; std::char_traits<char>::_Copy_s
_TEXT	ENDS
PUBLIC	?find@?$char_traits@D@std@@SAPBDPBDIABD@Z	; std::char_traits<char>::find
EXTRN	_memchr:PROC
; Function compile flags: /Ogtpy
;	COMDAT ?find@?$char_traits@D@std@@SAPBDPBDIABD@Z
_TEXT	SEGMENT
__First$ = 8						; size = 4
__Count$ = 12						; size = 4
__Ch$ = 16						; size = 4
?find@?$char_traits@D@std@@SAPBDPBDIABD@Z PROC		; std::char_traits<char>::find, COMDAT

; 472  : //		_DEBUG_POINTER(_First);
; 473  : 		return ((const _Elem *)::memchr(_First, _Ch, _Count));

  00000	8b 4c 24 0c	 mov	 ecx, DWORD PTR __Ch$[esp-4]
  00004	8b 44 24 08	 mov	 eax, DWORD PTR __Count$[esp-4]
  00008	0f be 11	 movsx	 edx, BYTE PTR [ecx]
  0000b	50		 push	 eax
  0000c	8b 44 24 08	 mov	 eax, DWORD PTR __First$[esp]
  00010	52		 push	 edx
  00011	50		 push	 eax
  00012	e8 00 00 00 00	 call	 _memchr
  00017	83 c4 0c	 add	 esp, 12			; 0000000cH

; 474  : 		}

  0001a	c3		 ret	 0
?find@?$char_traits@D@std@@SAPBDPBDIABD@Z ENDP		; std::char_traits<char>::find
_TEXT	ENDS
PUBLIC	?_Move_s@?$char_traits@D@std@@SAPADPADIPBDI@Z	; std::char_traits<char>::_Move_s
; Function compile flags: /Ogtpy
;	COMDAT ?_Move_s@?$char_traits@D@std@@SAPADPADIPBDI@Z
_TEXT	SEGMENT
__First1$ = 8						; size = 4
__Size_in_bytes$ = 12					; size = 4
__First2$ = 16						; size = 4
__Count$ = 20						; size = 4
?_Move_s@?$char_traits@D@std@@SAPADPADIPBDI@Z PROC	; std::char_traits<char>::_Move_s, COMDAT

; 487  : //		_DEBUG_POINTER(_First1);
; 488  : //		_DEBUG_POINTER(_First2);
; 489  : 		_CRT_SECURE_MEMMOVE(_First1, _Size_in_bytes, _First2, _Count);

  00000	8b 44 24 10	 mov	 eax, DWORD PTR __Count$[esp-4]
  00004	8b 4c 24 0c	 mov	 ecx, DWORD PTR __First2$[esp-4]
  00008	8b 54 24 08	 mov	 edx, DWORD PTR __Size_in_bytes$[esp-4]
  0000c	56		 push	 esi
  0000d	8b 74 24 08	 mov	 esi, DWORD PTR __First1$[esp]
  00011	50		 push	 eax
  00012	51		 push	 ecx
  00013	52		 push	 edx
  00014	56		 push	 esi
  00015	e8 00 00 00 00	 call	 _memmove_s
  0001a	83 c4 10	 add	 esp, 16			; 00000010H

; 490  : 		return _First1;

  0001d	8b c6		 mov	 eax, esi
  0001f	5e		 pop	 esi

; 491  : 		}

  00020	c3		 ret	 0
?_Move_s@?$char_traits@D@std@@SAPADPADIPBDI@Z ENDP	; std::char_traits<char>::_Move_s
_TEXT	ENDS
PUBLIC	?assign@?$char_traits@D@std@@SAPADPADID@Z	; std::char_traits<char>::assign
EXTRN	_memset:PROC
; Function compile flags: /Ogtpy
;	COMDAT ?assign@?$char_traits@D@std@@SAPADPADID@Z
_TEXT	SEGMENT
__First$ = 8						; size = 4
__Count$ = 12						; size = 4
__Ch$ = 16						; size = 1
?assign@?$char_traits@D@std@@SAPADPADID@Z PROC		; std::char_traits<char>::assign, COMDAT

; 495  : //		_DEBUG_POINTER(_First);
; 496  : 		return ((_Elem *)::memset(_First, _Ch, _Count));

  00000	8b 44 24 08	 mov	 eax, DWORD PTR __Count$[esp-4]
  00004	0f be 4c 24 0c	 movsx	 ecx, BYTE PTR __Ch$[esp-4]
  00009	8b 54 24 04	 mov	 edx, DWORD PTR __First$[esp-4]
  0000d	50		 push	 eax
  0000e	51		 push	 ecx
  0000f	52		 push	 edx
  00010	e8 00 00 00 00	 call	 _memset
  00015	83 c4 0c	 add	 esp, 12			; 0000000cH

; 497  : 		}

  00018	c3		 ret	 0
?assign@?$char_traits@D@std@@SAPADPADID@Z ENDP		; std::char_traits<char>::assign
_TEXT	ENDS
PUBLIC	?to_int_type@?$char_traits@D@std@@SAHABD@Z	; std::char_traits<char>::to_int_type
; Function compile flags: /Ogtpy
;	COMDAT ?to_int_type@?$char_traits@D@std@@SAHABD@Z
_TEXT	SEGMENT
__Ch$ = 8						; size = 4
?to_int_type@?$char_traits@D@std@@SAHABD@Z PROC		; std::char_traits<char>::to_int_type, COMDAT

; 506  : 		return ((unsigned char)_Ch);

  00000	8b 44 24 04	 mov	 eax, DWORD PTR __Ch$[esp-4]
  00004	0f b6 00	 movzx	 eax, BYTE PTR [eax]

; 507  : 		}

  00007	c3		 ret	 0
?to_int_type@?$char_traits@D@std@@SAHABD@Z ENDP		; std::char_traits<char>::to_int_type
_TEXT	ENDS
PUBLIC	?eq_int_type@?$char_traits@D@std@@SA_NABH0@Z	; std::char_traits<char>::eq_int_type
; Function compile flags: /Ogtpy
;	COMDAT ?eq_int_type@?$char_traits@D@std@@SA_NABH0@Z
_TEXT	SEGMENT
__Left$ = 8						; size = 4
__Right$ = 12						; size = 4
?eq_int_type@?$char_traits@D@std@@SA_NABH0@Z PROC	; std::char_traits<char>::eq_int_type, COMDAT

; 512  : 		return (_Left == _Right);

  00000	8b 44 24 04	 mov	 eax, DWORD PTR __Left$[esp-4]
  00004	8b 08		 mov	 ecx, DWORD PTR [eax]
  00006	8b 54 24 08	 mov	 edx, DWORD PTR __Right$[esp-4]
  0000a	33 c0		 xor	 eax, eax
  0000c	3b 0a		 cmp	 ecx, DWORD PTR [edx]
  0000e	0f 94 c0	 sete	 al

; 513  : 		}

  00011	c3		 ret	 0
?eq_int_type@?$char_traits@D@std@@SA_NABH0@Z ENDP	; std::char_traits<char>::eq_int_type
_TEXT	ENDS
PUBLIC	?eof@?$char_traits@D@std@@SAHXZ			; std::char_traits<char>::eof
; Function compile flags: /Ogtpy
;	COMDAT ?eof@?$char_traits@D@std@@SAHXZ
_TEXT	SEGMENT
?eof@?$char_traits@D@std@@SAHXZ PROC			; std::char_traits<char>::eof, COMDAT

; 517  : 		return (EOF);

  00000	83 c8 ff	 or	 eax, -1

; 518  : 		}

  00003	c3		 ret	 0
?eof@?$char_traits@D@std@@SAHXZ ENDP			; std::char_traits<char>::eof
_TEXT	ENDS
PUBLIC	??0_Aux_cont@std@@QAE@QBV_Container_base_aux@1@@Z ; std::_Aux_cont::_Aux_cont
; Function compile flags: /Ogtpy
; File c:\program files (x86)\microsoft visual studio 9.0\vc\include\xutility
;	COMDAT ??0_Aux_cont@std@@QAE@QBV_Container_base_aux@1@@Z
_TEXT	SEGMENT
__Pcont$ = 8						; size = 4
??0_Aux_cont@std@@QAE@QBV_Container_base_aux@1@@Z PROC	; std::_Aux_cont::_Aux_cont, COMDAT
; _this$ = ecx

; 364  : 	explicit _Aux_cont(const _Container_base_aux * const _Pcont)

  00000	8b c1		 mov	 eax, ecx
  00002	8b 4c 24 04	 mov	 ecx, DWORD PTR __Pcont$[esp-4]
  00006	89 08		 mov	 DWORD PTR [eax], ecx
  00008	c2 04 00	 ret	 4
??0_Aux_cont@std@@QAE@QBV_Container_base_aux@1@@Z ENDP	; std::_Aux_cont::_Aux_cont
_TEXT	ENDS
PUBLIC	?_Getcont@_Aux_cont@std@@QBEPBV_Container_base_aux@2@XZ ; std::_Aux_cont::_Getcont
; Function compile flags: /Ogtpy
;	COMDAT ?_Getcont@_Aux_cont@std@@QBEPBV_Container_base_aux@2@XZ
_TEXT	SEGMENT
?_Getcont@_Aux_cont@std@@QBEPBV_Container_base_aux@2@XZ PROC ; std::_Aux_cont::_Getcont, COMDAT
; _this$ = ecx

; 369  : 		return _Mycontainer;

  00000	8b 01		 mov	 eax, DWORD PTR [ecx]

; 370  : 		}

  00002	c3		 ret	 0
?_Getcont@_Aux_cont@std@@QBEPBV_Container_base_aux@2@XZ ENDP ; std::_Aux_cont::_Getcont
_TEXT	ENDS
PUBLIC	??0_Container_base_aux@std@@QAE@XZ		; std::_Container_base_aux::_Container_base_aux
; Function compile flags: /Ogtpy
;	COMDAT ??0_Container_base_aux@std@@QAE@XZ
_TEXT	SEGMENT
??0_Container_base_aux@std@@QAE@XZ PROC			; std::_Container_base_aux::_Container_base_aux, COMDAT
; _this$ = ecx

; 379  : 	_Container_base_aux()

  00000	8b c1		 mov	 eax, ecx

; 380  : 		{
; 381  : 		// Do nothing: _Container_base_aux_alloc_real() will construct the aux object.
; 382  : 		}

  00002	c3		 ret	 0
??0_Container_base_aux@std@@QAE@XZ ENDP			; std::_Container_base_aux::_Container_base_aux
_TEXT	ENDS
PUBLIC	??1_Container_base_aux@std@@QAE@XZ		; std::_Container_base_aux::~_Container_base_aux
; Function compile flags: /Ogtpy
;	COMDAT ??1_Container_base_aux@std@@QAE@XZ
_TEXT	SEGMENT
??1_Container_base_aux@std@@QAE@XZ PROC			; std::_Container_base_aux::~_Container_base_aux, COMDAT
; _this$ = ecx

; 403  : 		// Do nothing: ~_Container_base_aux_alloc_real() previously destroyed the aux object.
; 404  : 		}

  00000	c3		 ret	 0
??1_Container_base_aux@std@@QAE@XZ ENDP			; std::_Container_base_aux::~_Container_base_aux
_TEXT	ENDS
PUBLIC	??0_Iterator_base_aux@std@@QAE@XZ		; std::_Iterator_base_aux::_Iterator_base_aux
; Function compile flags: /Ogtpy
;	COMDAT ??0_Iterator_base_aux@std@@QAE@XZ
_TEXT	SEGMENT
??0_Iterator_base_aux@std@@QAE@XZ PROC			; std::_Iterator_base_aux::_Iterator_base_aux, COMDAT
; _this$ = ecx

; 448  : 	_Iterator_base_aux()

  00000	8b c1		 mov	 eax, ecx
  00002	c7 00 00 00 00
	00		 mov	 DWORD PTR [eax], 0
  00008	c3		 ret	 0
??0_Iterator_base_aux@std@@QAE@XZ ENDP			; std::_Iterator_base_aux::_Iterator_base_aux
_TEXT	ENDS
PUBLIC	?_Set_container@_Iterator_base_aux@std@@QAEXQBV_Container_base_aux@2@@Z ; std::_Iterator_base_aux::_Set_container
; Function compile flags: /Ogtpy
;	COMDAT ?_Set_container@_Iterator_base_aux@std@@QAEXQBV_Container_base_aux@2@@Z
_TEXT	SEGMENT
__Pcont$ = 8						; size = 4
?_Set_container@_Iterator_base_aux@std@@QAEXQBV_Container_base_aux@2@@Z PROC ; std::_Iterator_base_aux::_Set_container, COMDAT
; _this$ = ecx

; 453  : 		_Myaux = _Pcont->_Myownedaux;

  00000	8b 44 24 04	 mov	 eax, DWORD PTR __Pcont$[esp-4]
  00004	8b 10		 mov	 edx, DWORD PTR [eax]
  00006	89 11		 mov	 DWORD PTR [ecx], edx

; 454  : 		}

  00008	c2 04 00	 ret	 4
?_Set_container@_Iterator_base_aux@std@@QAEXQBV_Container_base_aux@2@@Z ENDP ; std::_Iterator_base_aux::_Set_container
_TEXT	ENDS
PUBLIC	?_Getmycont@_Iterator_base_aux@std@@QBEPBV_Container_base_aux@2@XZ ; std::_Iterator_base_aux::_Getmycont
; Function compile flags: /Ogtpy
;	COMDAT ?_Getmycont@_Iterator_base_aux@std@@QBEPBV_Container_base_aux@2@XZ
_TEXT	SEGMENT
?_Getmycont@_Iterator_base_aux@std@@QBEPBV_Container_base_aux@2@XZ PROC ; std::_Iterator_base_aux::_Getmycont, COMDAT
; _this$ = ecx

; 458  : 		return _Myaux ? _Myaux->_Getcont() : 0;

  00000	8b 01		 mov	 eax, DWORD PTR [ecx]
  00002	85 c0		 test	 eax, eax
  00004	74 03		 je	 SHORT $LN3@Getmycont
  00006	8b 00		 mov	 eax, DWORD PTR [eax]

; 459  : 		}

  00008	c3		 ret	 0
$LN3@Getmycont:

; 458  : 		return _Myaux ? _Myaux->_Getcont() : 0;

  00009	33 c0		 xor	 eax, eax

; 459  : 		}

  0000b	c3		 ret	 0
?_Getmycont@_Iterator_base_aux@std@@QBEPBV_Container_base_aux@2@XZ ENDP ; std::_Iterator_base_aux::_Getmycont
_TEXT	ENDS
PUBLIC	?_Same_container@_Iterator_base_aux@std@@QBE_NABV12@@Z ; std::_Iterator_base_aux::_Same_container
; Function compile flags: /Ogtpy
;	COMDAT ?_Same_container@_Iterator_base_aux@std@@QBE_NABV12@@Z
_TEXT	SEGMENT
__Other$ = 8						; size = 4
?_Same_container@_Iterator_base_aux@std@@QBE_NABV12@@Z PROC ; std::_Iterator_base_aux::_Same_container, COMDAT
; _this$ = ecx

; 463  : 		return _Myaux == _Other._Myaux;

  00000	8b 01		 mov	 eax, DWORD PTR [ecx]
  00002	8b 54 24 04	 mov	 edx, DWORD PTR __Other$[esp-4]
  00006	33 c9		 xor	 ecx, ecx
  00008	3b 02		 cmp	 eax, DWORD PTR [edx]
  0000a	0f 94 c1	 sete	 cl
  0000d	8a c1		 mov	 al, cl

; 464  : 		}

  0000f	c2 04 00	 ret	 4
?_Same_container@_Iterator_base_aux@std@@QBE_NABV12@@Z ENDP ; std::_Iterator_base_aux::_Same_container
_TEXT	ENDS
PUBLIC	?_Has_container@_Iterator_base_aux@std@@QBE_NXZ	; std::_Iterator_base_aux::_Has_container
; Function compile flags: /Ogtpy
;	COMDAT ?_Has_container@_Iterator_base_aux@std@@QBE_NXZ
_TEXT	SEGMENT
?_Has_container@_Iterator_base_aux@std@@QBE_NXZ PROC	; std::_Iterator_base_aux::_Has_container, COMDAT
; _this$ = ecx

; 468  : 		return _Myaux != 0;

  00000	33 c0		 xor	 eax, eax
  00002	39 01		 cmp	 DWORD PTR [ecx], eax
  00004	0f 95 c0	 setne	 al

; 469  : 		}

  00007	c3		 ret	 0
?_Has_container@_Iterator_base_aux@std@@QBE_NXZ ENDP	; std::_Iterator_base_aux::_Has_container
_TEXT	ENDS
PUBLIC	??0_Iterator_base_secure@std@@QAE@XZ		; std::_Iterator_base_secure::_Iterator_base_secure
; Function compile flags: /Ogtpy
;	COMDAT ??0_Iterator_base_secure@std@@QAE@XZ
_TEXT	SEGMENT
??0_Iterator_base_secure@std@@QAE@XZ PROC		; std::_Iterator_base_secure::_Iterator_base_secure, COMDAT
; _this$ = ecx

; 567  : 		{

  00000	8b c1		 mov	 eax, ecx
  00002	c7 00 00 00 00
	00		 mov	 DWORD PTR [eax], 0

; 568  : 		}

  00008	c3		 ret	 0
??0_Iterator_base_secure@std@@QAE@XZ ENDP		; std::_Iterator_base_secure::_Iterator_base_secure
_TEXT	ENDS
PUBLIC	?_Same_container@_Iterator_base_secure@std@@QBE_NABV12@@Z ; std::_Iterator_base_secure::_Same_container
; Function compile flags: /Ogtpy
;	COMDAT ?_Same_container@_Iterator_base_secure@std@@QBE_NABV12@@Z
_TEXT	SEGMENT
__Other$ = 8						; size = 4
?_Same_container@_Iterator_base_secure@std@@QBE_NABV12@@Z PROC ; std::_Iterator_base_secure::_Same_container, COMDAT
; _this$ = ecx

; 577  : 		return _Mycont == _Other._Mycont;

  00000	8b 01		 mov	 eax, DWORD PTR [ecx]
  00002	8b 54 24 04	 mov	 edx, DWORD PTR __Other$[esp-4]
  00006	33 c9		 xor	 ecx, ecx
  00008	3b 02		 cmp	 eax, DWORD PTR [edx]
  0000a	0f 94 c1	 sete	 cl
  0000d	8a c1		 mov	 al, cl

; 578  : 		}

  0000f	c2 04 00	 ret	 4
?_Same_container@_Iterator_base_secure@std@@QBE_NABV12@@Z ENDP ; std::_Iterator_base_secure::_Same_container
_TEXT	ENDS
PUBLIC	?_Has_container@_Iterator_base_secure@std@@QBE_NXZ ; std::_Iterator_base_secure::_Has_container
; Function compile flags: /Ogtpy
;	COMDAT ?_Has_container@_Iterator_base_secure@std@@QBE_NXZ
_TEXT	SEGMENT
?_Has_container@_Iterator_base_secure@std@@QBE_NXZ PROC	; std::_Iterator_base_secure::_Has_container, COMDAT
; _this$ = ecx

; 582  : 		return _Mycont != 0;

  00000	33 c0		 xor	 eax, eax
  00002	39 01		 cmp	 DWORD PTR [ecx], eax
  00004	0f 95 c0	 setne	 al

; 583  : 		}

  00007	c3		 ret	 0
?_Has_container@_Iterator_base_secure@std@@QBE_NXZ ENDP	; std::_Iterator_base_secure::_Has_container
_TEXT	ENDS
PUBLIC	?_Getctype@_Locinfo@std@@QBE?AU_Ctypevec@@XZ	; std::_Locinfo::_Getctype
EXTRN	__Getctype:PROC
; Function compile flags: /Ogtpy
; File c:\program files (x86)\microsoft visual studio 9.0\vc\include\xlocinfo
;	COMDAT ?_Getctype@_Locinfo@std@@QBE?AU_Ctypevec@@XZ
_TEXT	SEGMENT
$T150206 = -16						; size = 16
___$ReturnUdt$ = 8					; size = 4
?_Getctype@_Locinfo@std@@QBE?AU_Ctypevec@@XZ PROC	; std::_Locinfo::_Getctype, COMDAT
; _this$ = ecx

; 123  : 		{	// return ctype stuff

  00000	83 ec 10	 sub	 esp, 16			; 00000010H

; 124  : 		return (::_Getctype());

  00003	8d 04 24	 lea	 eax, DWORD PTR $T150206[esp+16]
  00006	50		 push	 eax
  00007	e8 00 00 00 00	 call	 __Getctype
  0000c	8b 4c 24 18	 mov	 ecx, DWORD PTR ___$ReturnUdt$[esp+16]
  00010	8b 10		 mov	 edx, DWORD PTR [eax]
  00012	89 11		 mov	 DWORD PTR [ecx], edx
  00014	8b 50 04	 mov	 edx, DWORD PTR [eax+4]
  00017	89 51 04	 mov	 DWORD PTR [ecx+4], edx
  0001a	8b 50 08	 mov	 edx, DWORD PTR [eax+8]
  0001d	8b 40 0c	 mov	 eax, DWORD PTR [eax+12]
  00020	89 51 08	 mov	 DWORD PTR [ecx+8], edx
  00023	89 41 0c	 mov	 DWORD PTR [ecx+12], eax
  00026	8b c1		 mov	 eax, ecx

; 125  : 		}

  00028	83 c4 14	 add	 esp, 20			; 00000014H
  0002b	c2 04 00	 ret	 4
?_Getctype@_Locinfo@std@@QBE?AU_Ctypevec@@XZ ENDP	; std::_Locinfo::_Getctype
_TEXT	ENDS
PUBLIC	?_Getcvt@_Locinfo@std@@QBE?AU_Cvtvec@@XZ	; std::_Locinfo::_Getcvt
EXTRN	__Getcvt:PROC
; Function compile flags: /Ogtpy
;	COMDAT ?_Getcvt@_Locinfo@std@@QBE?AU_Cvtvec@@XZ
_TEXT	SEGMENT
___$ReturnUdt$ = 8					; size = 4
?_Getcvt@_Locinfo@std@@QBE?AU_Cvtvec@@XZ PROC		; std::_Locinfo::_Getcvt, COMDAT
; _this$ = ecx

; 129  : 		return (::_Getcvt());

  00000	e8 00 00 00 00	 call	 __Getcvt
  00005	8b c8		 mov	 ecx, eax
  00007	8b 44 24 04	 mov	 eax, DWORD PTR ___$ReturnUdt$[esp-4]
  0000b	89 08		 mov	 DWORD PTR [eax], ecx
  0000d	89 50 04	 mov	 DWORD PTR [eax+4], edx

; 130  : 		}

  00010	c2 04 00	 ret	 4
?_Getcvt@_Locinfo@std@@QBE?AU_Cvtvec@@XZ ENDP		; std::_Locinfo::_Getcvt
_TEXT	ENDS
PUBLIC	??0id@locale@std@@QAE@I@Z			; std::locale::id::id
; Function compile flags: /Ogtpy
; File c:\program files (x86)\microsoft visual studio 9.0\vc\include\xlocale
;	COMDAT ??0id@locale@std@@QAE@I@Z
_TEXT	SEGMENT
__Val$ = 8						; size = 4
??0id@locale@std@@QAE@I@Z PROC				; std::locale::id::id, COMDAT
; _this$ = ecx

; 73   : 			{	// construct with specified stamp value

  00000	8b c1		 mov	 eax, ecx
  00002	8b 4c 24 04	 mov	 ecx, DWORD PTR __Val$[esp-4]
  00006	89 08		 mov	 DWORD PTR [eax], ecx

; 74   : 			}

  00008	c2 04 00	 ret	 4
??0id@locale@std@@QAE@I@Z ENDP				; std::locale::id::id
_TEXT	ENDS
PUBLIC	??Bid@locale@std@@QAEIXZ			; std::locale::id::operator unsigned int
EXTRN	??1_Lockit@std@@QAE@XZ:PROC			; std::_Lockit::~_Lockit
EXTRN	?_Id_cnt@id@locale@std@@0HA:DWORD		; std::locale::id::_Id_cnt
EXTRN	??0_Lockit@std@@QAE@H@Z:PROC			; std::_Lockit::_Lockit
; Function compile flags: /Ogtpy
;	COMDAT ??Bid@locale@std@@QAEIXZ
_TEXT	SEGMENT
__Lock$87479 = -4					; size = 4
??Bid@locale@std@@QAEIXZ PROC				; std::locale::id::operator unsigned int, COMDAT
; _this$ = ecx

; 77   : 			{	// get stamp, with lazy allocation

  00000	51		 push	 ecx
  00001	56		 push	 esi
  00002	8b f1		 mov	 esi, ecx

; 78   : 			if (_Id == 0)

  00004	83 3e 00	 cmp	 DWORD PTR [esi], 0
  00007	75 26		 jne	 SHORT $LN6@operator

; 79   : 				{	// still zero, allocate stamp
; 80   : 				_BEGIN_LOCK(_LOCK_LOCALE)

  00009	6a 00		 push	 0
  0000b	8d 4c 24 08	 lea	 ecx, DWORD PTR __Lock$87479[esp+12]
  0000f	e8 00 00 00 00	 call	 ??0_Lockit@std@@QAE@H@Z	; std::_Lockit::_Lockit

; 81   : 					if (_Id == 0)

  00014	83 3e 00	 cmp	 DWORD PTR [esi], 0
  00017	75 0d		 jne	 SHORT $LN1@operator

; 82   : 						_Id = ++_Id_cnt;

  00019	a1 00 00 00 00	 mov	 eax, DWORD PTR ?_Id_cnt@id@locale@std@@0HA ; std::locale::id::_Id_cnt
  0001e	40		 inc	 eax
  0001f	a3 00 00 00 00	 mov	 DWORD PTR ?_Id_cnt@id@locale@std@@0HA, eax ; std::locale::id::_Id_cnt
  00024	89 06		 mov	 DWORD PTR [esi], eax
$LN1@operator:

; 83   : 				_END_LOCK()

  00026	8d 4c 24 04	 lea	 ecx, DWORD PTR __Lock$87479[esp+8]
  0002a	e8 00 00 00 00	 call	 ??1_Lockit@std@@QAE@XZ	; std::_Lockit::~_Lockit
$LN6@operator:

; 84   : 				}
; 85   : 			return (_Id);

  0002f	8b 06		 mov	 eax, DWORD PTR [esi]
  00031	5e		 pop	 esi

; 86   : 			}

  00032	59		 pop	 ecx
  00033	c3		 ret	 0
??Bid@locale@std@@QAEIXZ ENDP				; std::locale::id::operator unsigned int
_TEXT	ENDS
PUBLIC	?_Incref@facet@locale@std@@QAEXXZ		; std::locale::facet::_Incref
; Function compile flags: /Ogtpy
;	COMDAT ?_Incref@facet@locale@std@@QAEXXZ
_TEXT	SEGMENT
__Lock$87485 = -4					; size = 4
?_Incref@facet@locale@std@@QAEXXZ PROC			; std::locale::facet::_Incref, COMDAT
; _this$ = ecx

; 117  : 			{	// safely increment the reference count

  00000	51		 push	 ecx
  00001	56		 push	 esi
  00002	8b f1		 mov	 esi, ecx

; 118  : 			_BEGIN_LOCK(_LOCK_LOCALE)

  00004	6a 00		 push	 0
  00006	8d 4c 24 08	 lea	 ecx, DWORD PTR __Lock$87485[esp+12]
  0000a	e8 00 00 00 00	 call	 ??0_Lockit@std@@QAE@H@Z	; std::_Lockit::_Lockit

; 119  : 				if (_Refs < (size_t)(-1))

  0000f	8b 46 04	 mov	 eax, DWORD PTR [esi+4]
  00012	83 f8 ff	 cmp	 eax, -1
  00015	73 04		 jae	 SHORT $LN1@Incref

; 120  : 					++_Refs;

  00017	40		 inc	 eax
  00018	89 46 04	 mov	 DWORD PTR [esi+4], eax
$LN1@Incref:

; 121  : 			_END_LOCK()

  0001b	8d 4c 24 04	 lea	 ecx, DWORD PTR __Lock$87485[esp+8]
  0001f	e8 00 00 00 00	 call	 ??1_Lockit@std@@QAE@XZ	; std::_Lockit::~_Lockit
  00024	5e		 pop	 esi

; 122  : 			}

  00025	59		 pop	 ecx
  00026	c3		 ret	 0
?_Incref@facet@locale@std@@QAEXXZ ENDP			; std::locale::facet::_Incref
_TEXT	ENDS
PUBLIC	?_Decref@facet@locale@std@@QAEPAV123@XZ		; std::locale::facet::_Decref
; Function compile flags: /Ogtpy
;	COMDAT ?_Decref@facet@locale@std@@QAEPAV123@XZ
_TEXT	SEGMENT
__Lock$87490 = -4					; size = 4
?_Decref@facet@locale@std@@QAEPAV123@XZ PROC		; std::locale::facet::_Decref, COMDAT
; _this$ = ecx

; 125  : 			{	// safely decrement the reference count, return this when dead

  00000	51		 push	 ecx
  00001	56		 push	 esi
  00002	57		 push	 edi
  00003	8b f9		 mov	 edi, ecx

; 126  : 			_BEGIN_LOCK(_LOCK_LOCALE)

  00005	6a 00		 push	 0
  00007	8d 4c 24 0c	 lea	 ecx, DWORD PTR __Lock$87490[esp+16]
  0000b	e8 00 00 00 00	 call	 ??0_Lockit@std@@QAE@H@Z	; std::_Lockit::_Lockit

; 127  : 				if (0 < _Refs && _Refs < (size_t)(-1))

  00010	8b 47 04	 mov	 eax, DWORD PTR [edi+4]
  00013	85 c0		 test	 eax, eax
  00015	76 09		 jbe	 SHORT $LN1@Decref
  00017	83 f8 ff	 cmp	 eax, -1
  0001a	73 04		 jae	 SHORT $LN1@Decref

; 128  : 					--_Refs;

  0001c	48		 dec	 eax
  0001d	89 47 04	 mov	 DWORD PTR [edi+4], eax
$LN1@Decref:

; 129  : 				return (_Refs == 0 ? this : 0);

  00020	8b 77 04	 mov	 esi, DWORD PTR [edi+4]
  00023	f7 de		 neg	 esi
  00025	1b f6		 sbb	 esi, esi
  00027	f7 d6		 not	 esi
  00029	8d 4c 24 08	 lea	 ecx, DWORD PTR __Lock$87490[esp+12]
  0002d	23 f7		 and	 esi, edi
  0002f	e8 00 00 00 00	 call	 ??1_Lockit@std@@QAE@XZ	; std::_Lockit::~_Lockit
  00034	5f		 pop	 edi
  00035	8b c6		 mov	 eax, esi
  00037	5e		 pop	 esi

; 130  : 			_END_LOCK()
; 131  : 			}

  00038	59		 pop	 ecx
  00039	c3		 ret	 0
?_Decref@facet@locale@std@@QAEPAV123@XZ ENDP		; std::locale::facet::_Decref
_TEXT	ENDS
PUBLIC	?_Register@facet@locale@std@@QAEXXZ		; std::locale::facet::_Register
EXTRN	?facet_Register@facet@locale@std@@CAXPAV123@@Z:PROC ; std::locale::facet::facet_Register
; Function compile flags: /Ogtpy
;	COMDAT ?_Register@facet@locale@std@@QAEXXZ
_TEXT	SEGMENT
?_Register@facet@locale@std@@QAEXXZ PROC		; std::locale::facet::_Register, COMDAT
; _this$ = ecx

; 135  : #if defined(_M_CEE)
; 136  : 			facet_Register_m(this);
; 137  : #else
; 138  : 			facet_Register(this);

  00000	51		 push	 ecx
  00001	e8 00 00 00 00	 call	 ?facet_Register@facet@locale@std@@CAXPAV123@@Z ; std::locale::facet::facet_Register
  00006	59		 pop	 ecx

; 139  : #endif
; 140  : 			}

  00007	c3		 ret	 0
?_Register@facet@locale@std@@QAEXXZ ENDP		; std::locale::facet::_Register
_TEXT	ENDS
PUBLIC	??_7facet@locale@std@@6B@			; std::locale::facet::`vftable'
PUBLIC	??1facet@locale@std@@UAE@XZ			; std::locale::facet::~facet
PUBLIC	??_R4facet@locale@std@@6B@			; std::locale::facet::`RTTI Complete Object Locator'
PUBLIC	??_R0?AVfacet@locale@std@@@8			; std::locale::facet `RTTI Type Descriptor'
PUBLIC	??_R3facet@locale@std@@8			; std::locale::facet::`RTTI Class Hierarchy Descriptor'
PUBLIC	??_R2facet@locale@std@@8			; std::locale::facet::`RTTI Base Class Array'
PUBLIC	??_R1A@?0A@EA@facet@locale@std@@8		; std::locale::facet::`RTTI Base Class Descriptor at (0,-1,0,64)'
EXTRN	??_Efacet@locale@std@@UAEPAXI@Z:PROC		; std::locale::facet::`vector deleting destructor'
;	COMDAT ??_R1A@?0A@EA@facet@locale@std@@8
rdata$r	SEGMENT
??_R1A@?0A@EA@facet@locale@std@@8 DD FLAT:??_R0?AVfacet@locale@std@@@8 ; std::locale::facet::`RTTI Base Class Descriptor at (0,-1,0,64)'
	DD	00H
	DD	00H
	DD	0ffffffffH
	DD	00H
	DD	040H
	DD	FLAT:??_R3facet@locale@std@@8
rdata$r	ENDS
;	COMDAT ??_R2facet@locale@std@@8
rdata$r	SEGMENT
??_R2facet@locale@std@@8 DD FLAT:??_R1A@?0A@EA@facet@locale@std@@8 ; std::locale::facet::`RTTI Base Class Array'
rdata$r	ENDS
;	COMDAT ??_R3facet@locale@std@@8
rdata$r	SEGMENT
??_R3facet@locale@std@@8 DD 00H				; std::locale::facet::`RTTI Class Hierarchy Descriptor'
	DD	00H
	DD	01H
	DD	FLAT:??_R2facet@locale@std@@8
rdata$r	ENDS
;	COMDAT ??_R0?AVfacet@locale@std@@@8
_DATA	SEGMENT
??_R0?AVfacet@locale@std@@@8 DD FLAT:??_7type_info@@6B@	; std::locale::facet `RTTI Type Descriptor'
	DD	00H
	DB	'.?AVfacet@locale@std@@', 00H
_DATA	ENDS
;	COMDAT ??_R4facet@locale@std@@6B@
rdata$r	SEGMENT
??_R4facet@locale@std@@6B@ DD 00H			; std::locale::facet::`RTTI Complete Object Locator'
	DD	00H
	DD	00H
	DD	FLAT:??_R0?AVfacet@locale@std@@@8
	DD	FLAT:??_R3facet@locale@std@@8
rdata$r	ENDS
;	COMDAT ??_7facet@locale@std@@6B@
CONST	SEGMENT
??_7facet@locale@std@@6B@ DD FLAT:??_R4facet@locale@std@@6B@ ; std::locale::facet::`vftable'
	DD	FLAT:??_Efacet@locale@std@@UAEPAXI@Z
; Function compile flags: /Ogtpy
CONST	ENDS
;	COMDAT ??1facet@locale@std@@UAE@XZ
_TEXT	SEGMENT
??1facet@locale@std@@UAE@XZ PROC			; std::locale::facet::~facet, COMDAT
; _this$ = ecx

; 170  : 			{	// destroy the object

  00000	c7 01 00 00 00
	00		 mov	 DWORD PTR [ecx], OFFSET ??_7facet@locale@std@@6B@

; 171  : 			}

  00006	c3		 ret	 0
??1facet@locale@std@@UAE@XZ ENDP			; std::locale::facet::~facet
_TEXT	ENDS
PUBLIC	??0facet@locale@std@@IAE@I@Z			; std::locale::facet::facet
; Function compile flags: /Ogtpy
;	COMDAT ??0facet@locale@std@@IAE@I@Z
_TEXT	SEGMENT
__Initrefs$ = 8						; size = 4
??0facet@locale@std@@IAE@I@Z PROC			; std::locale::facet::facet, COMDAT
; _this$ = ecx

; 176  : 			{	// construct with initial reference count

  00000	8b c1		 mov	 eax, ecx
  00002	8b 4c 24 04	 mov	 ecx, DWORD PTR __Initrefs$[esp-4]
  00006	c7 00 00 00 00
	00		 mov	 DWORD PTR [eax], OFFSET ??_7facet@locale@std@@6B@
  0000c	89 48 04	 mov	 DWORD PTR [eax+4], ecx

; 177  : 			}

  0000f	c2 04 00	 ret	 4
??0facet@locale@std@@IAE@I@Z ENDP			; std::locale::facet::facet
_TEXT	ENDS
PUBLIC	??0locale@std@@QAE@XZ				; std::locale::locale
EXTRN	?_Getgloballocale@locale@std@@CAPAV_Locimp@12@XZ:PROC ; std::locale::_Getgloballocale
EXTRN	?_Init@locale@std@@CAPAV_Locimp@12@XZ:PROC	; std::locale::_Init
; Function compile flags: /Ogtpy
;	COMDAT ??0locale@std@@QAE@XZ
_TEXT	SEGMENT
__Lock$150233 = -4					; size = 4
??0locale@std@@QAE@XZ PROC				; std::locale::locale, COMDAT
; _this$ = ecx

; 324  : 		{	// construct from current locale

  00000	51		 push	 ecx
  00001	56		 push	 esi
  00002	57		 push	 edi
  00003	8b f9		 mov	 edi, ecx
  00005	e8 00 00 00 00	 call	 ?_Init@locale@std@@CAPAV_Locimp@12@XZ ; std::locale::_Init
  0000a	89 07		 mov	 DWORD PTR [edi], eax

; 325  : 		_Getgloballocale()->_Incref();

  0000c	e8 00 00 00 00	 call	 ?_Getgloballocale@locale@std@@CAPAV_Locimp@12@XZ ; std::locale::_Getgloballocale
  00011	6a 00		 push	 0
  00013	8d 4c 24 0c	 lea	 ecx, DWORD PTR __Lock$150233[esp+16]
  00017	8b f0		 mov	 esi, eax
  00019	e8 00 00 00 00	 call	 ??0_Lockit@std@@QAE@H@Z	; std::_Lockit::_Lockit
  0001e	8b 46 04	 mov	 eax, DWORD PTR [esi+4]
  00021	83 f8 ff	 cmp	 eax, -1
  00024	73 04		 jae	 SHORT $LN3@locale
  00026	40		 inc	 eax
  00027	89 46 04	 mov	 DWORD PTR [esi+4], eax
$LN3@locale:
  0002a	8d 4c 24 08	 lea	 ecx, DWORD PTR __Lock$150233[esp+12]
  0002e	e8 00 00 00 00	 call	 ??1_Lockit@std@@QAE@XZ	; std::_Lockit::~_Lockit

; 326  : 		}

  00033	8b c7		 mov	 eax, edi
  00035	5f		 pop	 edi
  00036	5e		 pop	 esi
  00037	59		 pop	 ecx
  00038	c3		 ret	 0
??0locale@std@@QAE@XZ ENDP				; std::locale::locale
_TEXT	ENDS
PUBLIC	??0locale@std@@QAE@ABV01@@Z			; std::locale::locale
; Function compile flags: /Ogtpy
;	COMDAT ??0locale@std@@QAE@ABV01@@Z
_TEXT	SEGMENT
__Lock$150241 = 8					; size = 4
__Right$ = 8						; size = 4
??0locale@std@@QAE@ABV01@@Z PROC			; std::locale::locale, COMDAT
; _this$ = ecx

; 334  : 		{	// construct by copying

  00000	8b 44 24 04	 mov	 eax, DWORD PTR __Right$[esp-4]
  00004	56		 push	 esi
  00005	8b 30		 mov	 esi, DWORD PTR [eax]
  00007	57		 push	 edi
  00008	8b f9		 mov	 edi, ecx

; 335  : 		_Ptr->_Incref();

  0000a	6a 00		 push	 0
  0000c	8d 4c 24 10	 lea	 ecx, DWORD PTR __Lock$150241[esp+8]
  00010	89 37		 mov	 DWORD PTR [edi], esi
  00012	e8 00 00 00 00	 call	 ??0_Lockit@std@@QAE@H@Z	; std::_Lockit::_Lockit
  00017	8b 46 04	 mov	 eax, DWORD PTR [esi+4]
  0001a	83 f8 ff	 cmp	 eax, -1
  0001d	73 04		 jae	 SHORT $LN3@locale@2
  0001f	40		 inc	 eax
  00020	89 46 04	 mov	 DWORD PTR [esi+4], eax
$LN3@locale@2:
  00023	8d 4c 24 0c	 lea	 ecx, DWORD PTR __Lock$150241[esp+4]
  00027	e8 00 00 00 00	 call	 ??1_Lockit@std@@QAE@XZ	; std::_Lockit::~_Lockit

; 336  : 		}

  0002c	8b c7		 mov	 eax, edi
  0002e	5f		 pop	 edi
  0002f	5e		 pop	 esi
  00030	c2 04 00	 ret	 4
??0locale@std@@QAE@ABV01@@Z ENDP			; std::locale::locale
_TEXT	ENDS
PUBLIC	??1locale@std@@QAE@XZ				; std::locale::~locale
; Function compile flags: /Ogtpy
;	COMDAT ??1locale@std@@QAE@XZ
_TEXT	SEGMENT
__Lock$150254 = -4					; size = 4
??1locale@std@@QAE@XZ PROC				; std::locale::~locale, COMDAT
; _this$ = ecx

; 390  : 		{	// destroy the object

  00000	51		 push	 ecx
  00001	57		 push	 edi

; 391  : 		if (_Ptr != 0)

  00002	8b 39		 mov	 edi, DWORD PTR [ecx]
  00004	85 ff		 test	 edi, edi
  00006	74 3f		 je	 SHORT $LN4@locale@3

; 392  : 			_DELETE_CRT(_Ptr->_Decref());

  00008	6a 00		 push	 0
  0000a	8d 4c 24 08	 lea	 ecx, DWORD PTR __Lock$150254[esp+12]
  0000e	e8 00 00 00 00	 call	 ??0_Lockit@std@@QAE@H@Z	; std::_Lockit::_Lockit
  00013	8b 47 04	 mov	 eax, DWORD PTR [edi+4]
  00016	85 c0		 test	 eax, eax
  00018	76 09		 jbe	 SHORT $LN6@locale@3
  0001a	83 f8 ff	 cmp	 eax, -1
  0001d	73 04		 jae	 SHORT $LN6@locale@3
  0001f	48		 dec	 eax
  00020	89 47 04	 mov	 DWORD PTR [edi+4], eax
$LN6@locale@3:
  00023	56		 push	 esi
  00024	8b 77 04	 mov	 esi, DWORD PTR [edi+4]
  00027	f7 de		 neg	 esi
  00029	1b f6		 sbb	 esi, esi
  0002b	f7 d6		 not	 esi
  0002d	8d 4c 24 08	 lea	 ecx, DWORD PTR __Lock$150254[esp+12]
  00031	23 f7		 and	 esi, edi
  00033	e8 00 00 00 00	 call	 ??1_Lockit@std@@QAE@XZ	; std::_Lockit::~_Lockit
  00038	85 f6		 test	 esi, esi
  0003a	74 0a		 je	 SHORT $LN9@locale@3
  0003c	8b 06		 mov	 eax, DWORD PTR [esi]
  0003e	8b 10		 mov	 edx, DWORD PTR [eax]
  00040	6a 01		 push	 1
  00042	8b ce		 mov	 ecx, esi
  00044	ff d2		 call	 edx
$LN9@locale@3:
  00046	5e		 pop	 esi
$LN4@locale@3:
  00047	5f		 pop	 edi

; 393  : 		}

  00048	59		 pop	 ecx
  00049	c3		 ret	 0
??1locale@std@@QAE@XZ ENDP				; std::locale::~locale
_TEXT	ENDS
PUBLIC	?_Getfacet@locale@std@@QBEPBVfacet@12@I@Z	; std::locale::_Getfacet
; Function compile flags: /Ogtpy
;	COMDAT ?_Getfacet@locale@std@@QBEPBVfacet@12@I@Z
_TEXT	SEGMENT
__Id$ = 8						; size = 4
?_Getfacet@locale@std@@QBEPBVfacet@12@I@Z PROC		; std::locale::_Getfacet, COMDAT
; _this$ = ecx

; 413  : 		const facet *_Facptr = _Id < _Ptr->_Facetcount
; 414  : 			? _Ptr->_Facetvec[_Id] : 0;	// null if id off end

  00000	8b 09		 mov	 ecx, DWORD PTR [ecx]
  00002	56		 push	 esi
  00003	8b 74 24 08	 mov	 esi, DWORD PTR __Id$[esp]
  00007	3b 71 0c	 cmp	 esi, DWORD PTR [ecx+12]
  0000a	73 24		 jae	 SHORT $LN6@Getfacet
  0000c	8b 41 08	 mov	 eax, DWORD PTR [ecx+8]
  0000f	8b 04 b0	 mov	 eax, DWORD PTR [eax+esi*4]

; 415  : 		if (_Facptr != 0 || !_Ptr->_Xparent)

  00012	85 c0		 test	 eax, eax
  00014	75 20		 jne	 SHORT $LN1@Getfacet
$LN10@Getfacet:
  00016	80 79 14 00	 cmp	 BYTE PTR [ecx+20], 0
  0001a	74 1a		 je	 SHORT $LN1@Getfacet

; 416  : 			return (_Facptr);	// found facet or not transparent, return pointer
; 417  : 		else
; 418  : 			{	// look in current locale
; 419  : 			locale::_Locimp *_Ptr = _Getgloballocale();

  0001c	e8 00 00 00 00	 call	 ?_Getgloballocale@locale@std@@CAPAV_Locimp@12@XZ ; std::locale::_Getgloballocale

; 420  : 			return (_Id < _Ptr->_Facetcount
; 421  : 				? _Ptr->_Facetvec[_Id]	// get from current locale
; 422  : 				: 0);	// no entry in current locale

  00021	3b 70 0c	 cmp	 esi, DWORD PTR [eax+12]
  00024	73 0e		 jae	 SHORT $LN8@Getfacet
  00026	8b 48 08	 mov	 ecx, DWORD PTR [eax+8]
  00029	8b 04 b1	 mov	 eax, DWORD PTR [ecx+esi*4]
  0002c	5e		 pop	 esi

; 423  : 			}
; 424  : 		}

  0002d	c2 04 00	 ret	 4
$LN6@Getfacet:

; 413  : 		const facet *_Facptr = _Id < _Ptr->_Facetcount
; 414  : 			? _Ptr->_Facetvec[_Id] : 0;	// null if id off end

  00030	33 c0		 xor	 eax, eax

; 415  : 		if (_Facptr != 0 || !_Ptr->_Xparent)

  00032	eb e2		 jmp	 SHORT $LN10@Getfacet
$LN8@Getfacet:

; 420  : 			return (_Id < _Ptr->_Facetcount
; 421  : 				? _Ptr->_Facetvec[_Id]	// get from current locale
; 422  : 				: 0);	// no entry in current locale

  00034	33 c0		 xor	 eax, eax
$LN1@Getfacet:
  00036	5e		 pop	 esi

; 423  : 			}
; 424  : 		}

  00037	c2 04 00	 ret	 4
?_Getfacet@locale@std@@QBEPBVfacet@12@I@Z ENDP		; std::locale::_Getfacet
; Function compile flags: /Ogtpy
_TEXT	ENDS
;	COMDAT ??_Gfacet@locale@std@@UAEPAXI@Z
_TEXT	SEGMENT
___flags$ = 8						; size = 4
??_Gfacet@locale@std@@UAEPAXI@Z PROC			; std::locale::facet::`scalar deleting destructor', COMDAT
; _this$ = ecx
  00000	f6 44 24 04 01	 test	 BYTE PTR ___flags$[esp-4], 1
  00005	56		 push	 esi
  00006	8b f1		 mov	 esi, ecx
  00008	c7 06 00 00 00
	00		 mov	 DWORD PTR [esi], OFFSET ??_7facet@locale@std@@6B@
  0000e	74 09		 je	 SHORT $LN6@scalar@2
  00010	56		 push	 esi
  00011	e8 00 00 00 00	 call	 ??3@YAXPAX@Z		; operator delete
  00016	83 c4 04	 add	 esp, 4
$LN6@scalar@2:
  00019	8b c6		 mov	 eax, esi
  0001b	5e		 pop	 esi
  0001c	c2 04 00	 ret	 4
??_Gfacet@locale@std@@UAEPAXI@Z ENDP			; std::locale::facet::`scalar deleting destructor'
_TEXT	ENDS
PUBLIC	??_7ctype_base@std@@6B@				; std::ctype_base::`vftable'
PUBLIC	??0ctype_base@std@@QAE@I@Z			; std::ctype_base::ctype_base
PUBLIC	??_R4ctype_base@std@@6B@			; std::ctype_base::`RTTI Complete Object Locator'
PUBLIC	??_R0?AUctype_base@std@@@8			; std::ctype_base `RTTI Type Descriptor'
PUBLIC	??_R3ctype_base@std@@8				; std::ctype_base::`RTTI Class Hierarchy Descriptor'
PUBLIC	??_R2ctype_base@std@@8				; std::ctype_base::`RTTI Base Class Array'
PUBLIC	??_R1A@?0A@EA@ctype_base@std@@8			; std::ctype_base::`RTTI Base Class Descriptor at (0,-1,0,64)'
EXTRN	??_Ectype_base@std@@UAEPAXI@Z:PROC		; std::ctype_base::`vector deleting destructor'
;	COMDAT ??_R1A@?0A@EA@ctype_base@std@@8
rdata$r	SEGMENT
??_R1A@?0A@EA@ctype_base@std@@8 DD FLAT:??_R0?AUctype_base@std@@@8 ; std::ctype_base::`RTTI Base Class Descriptor at (0,-1,0,64)'
	DD	01H
	DD	00H
	DD	0ffffffffH
	DD	00H
	DD	040H
	DD	FLAT:??_R3ctype_base@std@@8
rdata$r	ENDS
;	COMDAT ??_R2ctype_base@std@@8
rdata$r	SEGMENT
??_R2ctype_base@std@@8 DD FLAT:??_R1A@?0A@EA@ctype_base@std@@8 ; std::ctype_base::`RTTI Base Class Array'
	DD	FLAT:??_R1A@?0A@EA@facet@locale@std@@8
rdata$r	ENDS
;	COMDAT ??_R3ctype_base@std@@8
rdata$r	SEGMENT
??_R3ctype_base@std@@8 DD 00H				; std::ctype_base::`RTTI Class Hierarchy Descriptor'
	DD	00H
	DD	02H
	DD	FLAT:??_R2ctype_base@std@@8
rdata$r	ENDS
;	COMDAT ??_R0?AUctype_base@std@@@8
_DATA	SEGMENT
??_R0?AUctype_base@std@@@8 DD FLAT:??_7type_info@@6B@	; std::ctype_base `RTTI Type Descriptor'
	DD	00H
	DB	'.?AUctype_base@std@@', 00H
_DATA	ENDS
;	COMDAT ??_R4ctype_base@std@@6B@
rdata$r	SEGMENT
??_R4ctype_base@std@@6B@ DD 00H				; std::ctype_base::`RTTI Complete Object Locator'
	DD	00H
	DD	00H
	DD	FLAT:??_R0?AUctype_base@std@@@8
	DD	FLAT:??_R3ctype_base@std@@8
rdata$r	ENDS
;	COMDAT ??_7ctype_base@std@@6B@
CONST	SEGMENT
??_7ctype_base@std@@6B@ DD FLAT:??_R4ctype_base@std@@6B@ ; std::ctype_base::`vftable'
	DD	FLAT:??_Ectype_base@std@@UAEPAXI@Z
; Function compile flags: /Ogtpy
CONST	ENDS
;	COMDAT ??0ctype_base@std@@QAE@I@Z
_TEXT	SEGMENT
__Refs$ = 8						; size = 4
??0ctype_base@std@@QAE@I@Z PROC				; std::ctype_base::ctype_base, COMDAT
; _this$ = ecx

; 1358 : 		{	// default constructor

  00000	8b c1		 mov	 eax, ecx
  00002	8b 4c 24 04	 mov	 ecx, DWORD PTR __Refs$[esp-4]
  00006	89 48 04	 mov	 DWORD PTR [eax+4], ecx
  00009	c7 00 00 00 00
	00		 mov	 DWORD PTR [eax], OFFSET ??_7ctype_base@std@@6B@

; 1359 : 		}

  0000f	c2 04 00	 ret	 4
??0ctype_base@std@@QAE@I@Z ENDP				; std::ctype_base::ctype_base
_TEXT	ENDS
PUBLIC	??1ctype_base@std@@UAE@XZ			; std::ctype_base::~ctype_base
; Function compile flags: /Ogtpy
;	COMDAT ??1ctype_base@std@@UAE@XZ
_TEXT	SEGMENT
??1ctype_base@std@@UAE@XZ PROC				; std::ctype_base::~ctype_base, COMDAT
; _this$ = ecx

; 1363 : 		}

  00000	c7 01 00 00 00
	00		 mov	 DWORD PTR [ecx], OFFSET ??_7facet@locale@std@@6B@
  00006	c3		 ret	 0
??1ctype_base@std@@UAE@XZ ENDP				; std::ctype_base::~ctype_base
; Function compile flags: /Ogtpy
_TEXT	ENDS
;	COMDAT ??_Gctype_base@std@@UAEPAXI@Z
_TEXT	SEGMENT
___flags$ = 8						; size = 4
??_Gctype_base@std@@UAEPAXI@Z PROC			; std::ctype_base::`scalar deleting destructor', COMDAT
; _this$ = ecx
  00000	f6 44 24 04 01	 test	 BYTE PTR ___flags$[esp-4], 1
  00005	56		 push	 esi
  00006	8b f1		 mov	 esi, ecx
  00008	c7 06 00 00 00
	00		 mov	 DWORD PTR [esi], OFFSET ??_7facet@locale@std@@6B@
  0000e	74 09		 je	 SHORT $LN8@scalar@3
  00010	56		 push	 esi
  00011	e8 00 00 00 00	 call	 ??3@YAXPAX@Z		; operator delete
  00016	83 c4 04	 add	 esp, 4
$LN8@scalar@3:
  00019	8b c6		 mov	 eax, esi
  0001b	5e		 pop	 esi
  0001c	c2 04 00	 ret	 4
??_Gctype_base@std@@UAEPAXI@Z ENDP			; std::ctype_base::`scalar deleting destructor'
_TEXT	ENDS
PUBLIC	?widen@?$ctype@D@std@@QBEDD@Z			; std::ctype<char>::widen
; Function compile flags: /Ogtpy
;	COMDAT ?widen@?$ctype@D@std@@QBEDD@Z
_TEXT	SEGMENT
__Byte$ = 8						; size = 1
?widen@?$ctype@D@std@@QBEDD@Z PROC			; std::ctype<char>::widen, COMDAT
; _this$ = ecx

; 1716 : 		return (do_widen(_Byte));

  00000	8b 01		 mov	 eax, DWORD PTR [ecx]
  00002	8b 40 18	 mov	 eax, DWORD PTR [eax+24]
  00005	ff e0		 jmp	 eax
?widen@?$ctype@D@std@@QBEDD@Z ENDP			; std::ctype<char>::widen
_TEXT	ENDS
PUBLIC	?_Init@?$ctype@D@std@@IAEXABV_Locinfo@2@@Z	; std::ctype<char>::_Init
; Function compile flags: /Ogtpy
;	COMDAT ?_Init@?$ctype@D@std@@IAEXABV_Locinfo@2@@Z
_TEXT	SEGMENT
$T150308 = -16						; size = 16
__Lobj$ = 8						; size = 4
?_Init@?$ctype@D@std@@IAEXABV_Locinfo@2@@Z PROC		; std::ctype<char>::_Init, COMDAT
; _this$ = ecx

; 1807 : 		{	// initialize from _Lobj

  00000	83 ec 10	 sub	 esp, 16			; 00000010H
  00003	56		 push	 esi

; 1808 : 		_Ctype = _Lobj._Getctype();

  00004	8d 44 24 04	 lea	 eax, DWORD PTR $T150308[esp+20]
  00008	50		 push	 eax
  00009	8b f1		 mov	 esi, ecx
  0000b	e8 00 00 00 00	 call	 __Getctype
  00010	8b 08		 mov	 ecx, DWORD PTR [eax]
  00012	89 4e 08	 mov	 DWORD PTR [esi+8], ecx
  00015	8b 50 04	 mov	 edx, DWORD PTR [eax+4]
  00018	89 56 0c	 mov	 DWORD PTR [esi+12], edx
  0001b	8b 48 08	 mov	 ecx, DWORD PTR [eax+8]
  0001e	89 4e 10	 mov	 DWORD PTR [esi+16], ecx
  00021	8b 50 0c	 mov	 edx, DWORD PTR [eax+12]
  00024	83 c4 04	 add	 esp, 4
  00027	89 56 14	 mov	 DWORD PTR [esi+20], edx
  0002a	5e		 pop	 esi

; 1809 : 		}

  0002b	83 c4 10	 add	 esp, 16			; 00000010H
  0002e	c2 04 00	 ret	 4
?_Init@?$ctype@D@std@@IAEXABV_Locinfo@2@@Z ENDP		; std::ctype<char>::_Init
_TEXT	ENDS
PUBLIC	?rdstate@ios_base@std@@QBEHXZ			; std::ios_base::rdstate
; Function compile flags: /Ogtpy
; File c:\program files (x86)\microsoft visual studio 9.0\vc\include\xiosbase
;	COMDAT ?rdstate@ios_base@std@@QBEHXZ
_TEXT	SEGMENT
?rdstate@ios_base@std@@QBEHXZ PROC			; std::ios_base::rdstate, COMDAT
; _this$ = ecx

; 311  : 		return (_Mystate);

  00000	8b 41 08	 mov	 eax, DWORD PTR [ecx+8]

; 312  : 		}

  00003	c3		 ret	 0
?rdstate@ios_base@std@@QBEHXZ ENDP			; std::ios_base::rdstate
_TEXT	ENDS
PUBLIC	?good@ios_base@std@@QBE_NXZ			; std::ios_base::good
; Function compile flags: /Ogtpy
;	COMDAT ?good@ios_base@std@@QBE_NXZ
_TEXT	SEGMENT
?good@ios_base@std@@QBE_NXZ PROC			; std::ios_base::good, COMDAT
; _this$ = ecx

; 334  : 		return (rdstate() == goodbit);

  00000	33 c0		 xor	 eax, eax
  00002	39 41 08	 cmp	 DWORD PTR [ecx+8], eax
  00005	0f 94 c0	 sete	 al

; 335  : 		}

  00008	c3		 ret	 0
?good@ios_base@std@@QBE_NXZ ENDP			; std::ios_base::good
_TEXT	ENDS
PUBLIC	?fail@ios_base@std@@QBE_NXZ			; std::ios_base::fail
; Function compile flags: /Ogtpy
;	COMDAT ?fail@ios_base@std@@QBE_NXZ
_TEXT	SEGMENT
?fail@ios_base@std@@QBE_NXZ PROC			; std::ios_base::fail, COMDAT
; _this$ = ecx

; 344  : 		return (((int)rdstate()
; 345  : 			& ((int)badbit | (int)failbit)) != 0);

  00000	f6 41 08 06	 test	 BYTE PTR [ecx+8], 6
  00004	b8 00 00 00 00	 mov	 eax, 0
  00009	0f 95 c0	 setne	 al

; 346  : 		}

  0000c	c3		 ret	 0
?fail@ios_base@std@@QBE_NXZ ENDP			; std::ios_base::fail
_TEXT	ENDS
PUBLIC	?flags@ios_base@std@@QBEHXZ			; std::ios_base::flags
; Function compile flags: /Ogtpy
;	COMDAT ?flags@ios_base@std@@QBEHXZ
_TEXT	SEGMENT
?flags@ios_base@std@@QBEHXZ PROC			; std::ios_base::flags, COMDAT
; _this$ = ecx

; 374  : 		return (_Fmtfl);

  00000	8b 41 10	 mov	 eax, DWORD PTR [ecx+16]

; 375  : 		}

  00003	c3		 ret	 0
?flags@ios_base@std@@QBEHXZ ENDP			; std::ios_base::flags
_TEXT	ENDS
PUBLIC	?width@ios_base@std@@QBEHXZ			; std::ios_base::width
; Function compile flags: /Ogtpy
;	COMDAT ?width@ios_base@std@@QBEHXZ
_TEXT	SEGMENT
?width@ios_base@std@@QBEHXZ PROC			; std::ios_base::width, COMDAT
; _this$ = ecx

; 419  : 		return (_Wide);

  00000	8b 41 18	 mov	 eax, DWORD PTR [ecx+24]

; 420  : 		}

  00003	c3		 ret	 0
?width@ios_base@std@@QBEHXZ ENDP			; std::ios_base::width
_TEXT	ENDS
PUBLIC	?width@ios_base@std@@QAEHH@Z			; std::ios_base::width
; Function compile flags: /Ogtpy
;	COMDAT ?width@ios_base@std@@QAEHH@Z
_TEXT	SEGMENT
__Newwidth$ = 8						; size = 4
?width@ios_base@std@@QAEHH@Z PROC			; std::ios_base::width, COMDAT
; _this$ = ecx

; 424  : 		streamsize _Oldwidth = _Wide;
; 425  : 		_Wide = _Newwidth;

  00000	8b 54 24 04	 mov	 edx, DWORD PTR __Newwidth$[esp-4]
  00004	8b 41 18	 mov	 eax, DWORD PTR [ecx+24]
  00007	89 51 18	 mov	 DWORD PTR [ecx+24], edx

; 426  : 		return (_Oldwidth);
; 427  : 		}

  0000a	c2 04 00	 ret	 4
?width@ios_base@std@@QAEHH@Z ENDP			; std::ios_base::width
_TEXT	ENDS
PUBLIC	?getloc@ios_base@std@@QBE?AVlocale@2@XZ		; std::ios_base::getloc
; Function compile flags: /Ogtpy
;	COMDAT ?getloc@ios_base@std@@QBE?AVlocale@2@XZ
_TEXT	SEGMENT
$T150332 = -4						; size = 4
__Lock$150345 = 8					; size = 4
___$ReturnUdt$ = 8					; size = 4
?getloc@ios_base@std@@QBE?AVlocale@2@XZ PROC		; std::ios_base::getloc, COMDAT
; _this$ = ecx

; 430  : 		{	// get locale

  00000	51		 push	 ecx

; 431  : 		return (*_Ploc);

  00001	8b 41 24	 mov	 eax, DWORD PTR [ecx+36]
  00004	56		 push	 esi
  00005	8b 30		 mov	 esi, DWORD PTR [eax]
  00007	57		 push	 edi
  00008	8b 7c 24 10	 mov	 edi, DWORD PTR ___$ReturnUdt$[esp+8]
  0000c	6a 00		 push	 0
  0000e	8d 4c 24 14	 lea	 ecx, DWORD PTR __Lock$150345[esp+12]
  00012	c7 44 24 0c 00
	00 00 00	 mov	 DWORD PTR $T150332[esp+16], 0
  0001a	89 37		 mov	 DWORD PTR [edi], esi
  0001c	e8 00 00 00 00	 call	 ??0_Lockit@std@@QAE@H@Z	; std::_Lockit::_Lockit
  00021	8b 46 04	 mov	 eax, DWORD PTR [esi+4]
  00024	83 f8 ff	 cmp	 eax, -1
  00027	73 04		 jae	 SHORT $LN7@getloc
  00029	40		 inc	 eax
  0002a	89 46 04	 mov	 DWORD PTR [esi+4], eax
$LN7@getloc:
  0002d	8d 4c 24 10	 lea	 ecx, DWORD PTR __Lock$150345[esp+8]
  00031	e8 00 00 00 00	 call	 ??1_Lockit@std@@QAE@XZ	; std::_Lockit::~_Lockit
  00036	8b c7		 mov	 eax, edi
  00038	5f		 pop	 edi
  00039	5e		 pop	 esi

; 432  : 		}

  0003a	59		 pop	 ecx
  0003b	c2 04 00	 ret	 4
?getloc@ios_base@std@@QBE?AVlocale@2@XZ ENDP		; std::ios_base::getloc
_TEXT	ENDS
PUBLIC	??_7ios_base@std@@6B@				; std::ios_base::`vftable'
PUBLIC	??1ios_base@std@@UAE@XZ				; std::ios_base::~ios_base
PUBLIC	??_R4ios_base@std@@6B@				; std::ios_base::`RTTI Complete Object Locator'
PUBLIC	??_R0?AVios_base@std@@@8			; std::ios_base `RTTI Type Descriptor'
PUBLIC	??_R3ios_base@std@@8				; std::ios_base::`RTTI Class Hierarchy Descriptor'
PUBLIC	??_R2ios_base@std@@8				; std::ios_base::`RTTI Base Class Array'
PUBLIC	??_R1A@?0A@EA@ios_base@std@@8			; std::ios_base::`RTTI Base Class Descriptor at (0,-1,0,64)'
PUBLIC	??_R13?0A@EA@?$_Iosb@H@std@@8			; std::_Iosb<int>::`RTTI Base Class Descriptor at (4,-1,0,64)'
PUBLIC	??_R0?AV?$_Iosb@H@std@@@8			; std::_Iosb<int> `RTTI Type Descriptor'
PUBLIC	??_R3?$_Iosb@H@std@@8				; std::_Iosb<int>::`RTTI Class Hierarchy Descriptor'
PUBLIC	??_R2?$_Iosb@H@std@@8				; std::_Iosb<int>::`RTTI Base Class Array'
PUBLIC	??_R1A@?0A@EA@?$_Iosb@H@std@@8			; std::_Iosb<int>::`RTTI Base Class Descriptor at (0,-1,0,64)'
EXTRN	?_Ios_base_dtor@ios_base@std@@CAXPAV12@@Z:PROC	; std::ios_base::_Ios_base_dtor
EXTRN	??_Eios_base@std@@UAEPAXI@Z:PROC		; std::ios_base::`vector deleting destructor'
;	COMDAT ??_R1A@?0A@EA@?$_Iosb@H@std@@8
rdata$r	SEGMENT
??_R1A@?0A@EA@?$_Iosb@H@std@@8 DD FLAT:??_R0?AV?$_Iosb@H@std@@@8 ; std::_Iosb<int>::`RTTI Base Class Descriptor at (0,-1,0,64)'
	DD	00H
	DD	00H
	DD	0ffffffffH
	DD	00H
	DD	040H
	DD	FLAT:??_R3?$_Iosb@H@std@@8
rdata$r	ENDS
;	COMDAT ??_R2?$_Iosb@H@std@@8
rdata$r	SEGMENT
??_R2?$_Iosb@H@std@@8 DD FLAT:??_R1A@?0A@EA@?$_Iosb@H@std@@8 ; std::_Iosb<int>::`RTTI Base Class Array'
rdata$r	ENDS
;	COMDAT ??_R3?$_Iosb@H@std@@8
rdata$r	SEGMENT
??_R3?$_Iosb@H@std@@8 DD 00H				; std::_Iosb<int>::`RTTI Class Hierarchy Descriptor'
	DD	00H
	DD	01H
	DD	FLAT:??_R2?$_Iosb@H@std@@8
rdata$r	ENDS
;	COMDAT ??_R0?AV?$_Iosb@H@std@@@8
_DATA	SEGMENT
??_R0?AV?$_Iosb@H@std@@@8 DD FLAT:??_7type_info@@6B@	; std::_Iosb<int> `RTTI Type Descriptor'
	DD	00H
	DB	'.?AV?$_Iosb@H@std@@', 00H
_DATA	ENDS
;	COMDAT ??_R13?0A@EA@?$_Iosb@H@std@@8
rdata$r	SEGMENT
??_R13?0A@EA@?$_Iosb@H@std@@8 DD FLAT:??_R0?AV?$_Iosb@H@std@@@8 ; std::_Iosb<int>::`RTTI Base Class Descriptor at (4,-1,0,64)'
	DD	00H
	DD	04H
	DD	0ffffffffH
	DD	00H
	DD	040H
	DD	FLAT:??_R3?$_Iosb@H@std@@8
rdata$r	ENDS
;	COMDAT ??_R1A@?0A@EA@ios_base@std@@8
rdata$r	SEGMENT
??_R1A@?0A@EA@ios_base@std@@8 DD FLAT:??_R0?AVios_base@std@@@8 ; std::ios_base::`RTTI Base Class Descriptor at (0,-1,0,64)'
	DD	01H
	DD	00H
	DD	0ffffffffH
	DD	00H
	DD	040H
	DD	FLAT:??_R3ios_base@std@@8
rdata$r	ENDS
;	COMDAT ??_R2ios_base@std@@8
rdata$r	SEGMENT
??_R2ios_base@std@@8 DD FLAT:??_R1A@?0A@EA@ios_base@std@@8 ; std::ios_base::`RTTI Base Class Array'
	DD	FLAT:??_R13?0A@EA@?$_Iosb@H@std@@8
rdata$r	ENDS
;	COMDAT ??_R3ios_base@std@@8
rdata$r	SEGMENT
??_R3ios_base@std@@8 DD 00H				; std::ios_base::`RTTI Class Hierarchy Descriptor'
	DD	00H
	DD	02H
	DD	FLAT:??_R2ios_base@std@@8
rdata$r	ENDS
;	COMDAT ??_R0?AVios_base@std@@@8
_DATA	SEGMENT
??_R0?AVios_base@std@@@8 DD FLAT:??_7type_info@@6B@	; std::ios_base `RTTI Type Descriptor'
	DD	00H
	DB	'.?AVios_base@std@@', 00H
_DATA	ENDS
;	COMDAT ??_R4ios_base@std@@6B@
rdata$r	SEGMENT
??_R4ios_base@std@@6B@ DD 00H				; std::ios_base::`RTTI Complete Object Locator'
	DD	00H
	DD	00H
	DD	FLAT:??_R0?AVios_base@std@@@8
	DD	FLAT:??_R3ios_base@std@@8
rdata$r	ENDS
;	COMDAT ??_7ios_base@std@@6B@
CONST	SEGMENT
??_7ios_base@std@@6B@ DD FLAT:??_R4ios_base@std@@6B@	; std::ios_base::`vftable'
	DD	FLAT:??_Eios_base@std@@UAEPAXI@Z
; Function compile flags: /Ogtpy
CONST	ENDS
;	COMDAT ??1ios_base@std@@UAE@XZ
_TEXT	SEGMENT
??1ios_base@std@@UAE@XZ PROC				; std::ios_base::~ios_base, COMDAT
; _this$ = ecx

; 494  :         _Ios_base_dtor(this);

  00000	51		 push	 ecx
  00001	c7 01 00 00 00
	00		 mov	 DWORD PTR [ecx], OFFSET ??_7ios_base@std@@6B@
  00007	e8 00 00 00 00	 call	 ?_Ios_base_dtor@ios_base@std@@CAXPAV12@@Z ; std::ios_base::_Ios_base_dtor
  0000c	59		 pop	 ecx

; 495  :         }

  0000d	c3		 ret	 0
??1ios_base@std@@UAE@XZ ENDP				; std::ios_base::~ios_base
_TEXT	ENDS
PUBLIC	??0ios_base@std@@IAE@XZ				; std::ios_base::ios_base
; Function compile flags: /Ogtpy
;	COMDAT ??0ios_base@std@@IAE@XZ
_TEXT	SEGMENT
??0ios_base@std@@IAE@XZ PROC				; std::ios_base::ios_base, COMDAT
; _this$ = ecx

; 510  : 	__CLR_OR_THIS_CALL ios_base()

  00000	8b c1		 mov	 eax, ecx
  00002	c7 00 00 00 00
	00		 mov	 DWORD PTR [eax], OFFSET ??_7ios_base@std@@6B@

; 511  : 		{	// default constructor
; 512  : 		}

  00008	c3		 ret	 0
??0ios_base@std@@IAE@XZ ENDP				; std::ios_base::ios_base
; Function compile flags: /Ogtpy
_TEXT	ENDS
;	COMDAT ??_Gios_base@std@@UAEPAXI@Z
_TEXT	SEGMENT
___flags$ = 8						; size = 4
??_Gios_base@std@@UAEPAXI@Z PROC			; std::ios_base::`scalar deleting destructor', COMDAT
; _this$ = ecx
  00000	56		 push	 esi
  00001	8b f1		 mov	 esi, ecx
  00003	56		 push	 esi
  00004	c7 06 00 00 00
	00		 mov	 DWORD PTR [esi], OFFSET ??_7ios_base@std@@6B@
  0000a	e8 00 00 00 00	 call	 ?_Ios_base_dtor@ios_base@std@@CAXPAV12@@Z ; std::ios_base::_Ios_base_dtor
  0000f	83 c4 04	 add	 esp, 4
  00012	f6 44 24 08 01	 test	 BYTE PTR ___flags$[esp], 1
  00017	74 09		 je	 SHORT $LN6@scalar@4
  00019	56		 push	 esi
  0001a	e8 00 00 00 00	 call	 ??3@YAXPAX@Z		; operator delete
  0001f	83 c4 04	 add	 esp, 4
$LN6@scalar@4:
  00022	8b c6		 mov	 eax, esi
  00024	5e		 pop	 esi
  00025	c2 04 00	 ret	 4
??_Gios_base@std@@UAEPAXI@Z ENDP			; std::ios_base::`scalar deleting destructor'
_TEXT	ENDS
PUBLIC	??_7Container@ForEach@CipherShed@@6B@		; CipherShed::ForEach::Container::`vftable'
PUBLIC	??0Container@ForEach@CipherShed@@QAE@XZ		; CipherShed::ForEach::Container::Container
PUBLIC	??_R4Container@ForEach@CipherShed@@6B@		; CipherShed::ForEach::Container::`RTTI Complete Object Locator'
PUBLIC	??_R0?AUContainer@ForEach@CipherShed@@@8	; CipherShed::ForEach::Container `RTTI Type Descriptor'
PUBLIC	??_R3Container@ForEach@CipherShed@@8		; CipherShed::ForEach::Container::`RTTI Class Hierarchy Descriptor'
PUBLIC	??_R2Container@ForEach@CipherShed@@8		; CipherShed::ForEach::Container::`RTTI Base Class Array'
PUBLIC	??_R1A@?0A@EA@Container@ForEach@CipherShed@@8	; CipherShed::ForEach::Container::`RTTI Base Class Descriptor at (0,-1,0,64)'
EXTRN	??_EContainer@ForEach@CipherShed@@UAEPAXI@Z:PROC ; CipherShed::ForEach::Container::`vector deleting destructor'
EXTRN	__purecall:PROC
;	COMDAT ??_R1A@?0A@EA@Container@ForEach@CipherShed@@8
; File c:\users\public\desktop\projects\ciphershed\src\platform\foreach.h
rdata$r	SEGMENT
??_R1A@?0A@EA@Container@ForEach@CipherShed@@8 DD FLAT:??_R0?AUContainer@ForEach@CipherShed@@@8 ; CipherShed::ForEach::Container::`RTTI Base Class Descriptor at (0,-1,0,64)'
	DD	00H
	DD	00H
	DD	0ffffffffH
	DD	00H
	DD	040H
	DD	FLAT:??_R3Container@ForEach@CipherShed@@8
rdata$r	ENDS
;	COMDAT ??_R2Container@ForEach@CipherShed@@8
rdata$r	SEGMENT
??_R2Container@ForEach@CipherShed@@8 DD FLAT:??_R1A@?0A@EA@Container@ForEach@CipherShed@@8 ; CipherShed::ForEach::Container::`RTTI Base Class Array'
rdata$r	ENDS
;	COMDAT ??_R3Container@ForEach@CipherShed@@8
rdata$r	SEGMENT
??_R3Container@ForEach@CipherShed@@8 DD 00H		; CipherShed::ForEach::Container::`RTTI Class Hierarchy Descriptor'
	DD	00H
	DD	01H
	DD	FLAT:??_R2Container@ForEach@CipherShed@@8
rdata$r	ENDS
;	COMDAT ??_R0?AUContainer@ForEach@CipherShed@@@8
_DATA	SEGMENT
??_R0?AUContainer@ForEach@CipherShed@@@8 DD FLAT:??_7type_info@@6B@ ; CipherShed::ForEach::Container `RTTI Type Descriptor'
	DD	00H
	DB	'.?AUContainer@ForEach@CipherShed@@', 00H
_DATA	ENDS
;	COMDAT ??_R4Container@ForEach@CipherShed@@6B@
rdata$r	SEGMENT
??_R4Container@ForEach@CipherShed@@6B@ DD 00H		; CipherShed::ForEach::Container::`RTTI Complete Object Locator'
	DD	00H
	DD	00H
	DD	FLAT:??_R0?AUContainer@ForEach@CipherShed@@@8
	DD	FLAT:??_R3Container@ForEach@CipherShed@@8
rdata$r	ENDS
;	COMDAT ??_7Container@ForEach@CipherShed@@6B@
CONST	SEGMENT
??_7Container@ForEach@CipherShed@@6B@ DD FLAT:??_R4Container@ForEach@CipherShed@@6B@ ; CipherShed::ForEach::Container::`vftable'
	DD	FLAT:??_EContainer@ForEach@CipherShed@@UAEPAXI@Z
	DD	FLAT:__purecall
	DD	FLAT:__purecall
; Function compile flags: /Ogtpy
CONST	ENDS
;	COMDAT ??0Container@ForEach@CipherShed@@QAE@XZ
_TEXT	SEGMENT
??0Container@ForEach@CipherShed@@QAE@XZ PROC		; CipherShed::ForEach::Container::Container, COMDAT
; _this$ = ecx

; 19   : 			Container () : InnerContinue (true), InnerEndCondition (false) { }

  00000	8b c1		 mov	 eax, ecx
  00002	c7 00 00 00 00
	00		 mov	 DWORD PTR [eax], OFFSET ??_7Container@ForEach@CipherShed@@6B@
  00008	c6 40 04 01	 mov	 BYTE PTR [eax+4], 1
  0000c	c6 40 05 00	 mov	 BYTE PTR [eax+5], 0
  00010	c3		 ret	 0
??0Container@ForEach@CipherShed@@QAE@XZ ENDP		; CipherShed::ForEach::Container::Container
_TEXT	ENDS
PUBLIC	??1Container@ForEach@CipherShed@@UAE@XZ		; CipherShed::ForEach::Container::~Container
; Function compile flags: /Ogtpy
;	COMDAT ??1Container@ForEach@CipherShed@@UAE@XZ
_TEXT	SEGMENT
??1Container@ForEach@CipherShed@@UAE@XZ PROC		; CipherShed::ForEach::Container::~Container, COMDAT
; _this$ = ecx

; 20   : 			virtual ~Container () { }

  00000	c7 01 00 00 00
	00		 mov	 DWORD PTR [ecx], OFFSET ??_7Container@ForEach@CipherShed@@6B@
  00006	c3		 ret	 0
??1Container@ForEach@CipherShed@@UAE@XZ ENDP		; CipherShed::ForEach::Container::~Container
_TEXT	ENDS
PUBLIC	?Continue@Container@ForEach@CipherShed@@QBEXXZ	; CipherShed::ForEach::Container::Continue
; Function compile flags: /Ogtpy
;	COMDAT ?Continue@Container@ForEach@CipherShed@@QBEXXZ
_TEXT	SEGMENT
?Continue@Container@ForEach@CipherShed@@QBEXXZ PROC	; CipherShed::ForEach::Container::Continue, COMDAT
; _this$ = ecx

; 22   : 			void Continue () const { InnerContinue = true; }

  00000	c6 41 04 01	 mov	 BYTE PTR [ecx+4], 1
  00004	c3		 ret	 0
?Continue@Container@ForEach@CipherShed@@QBEXXZ ENDP	; CipherShed::ForEach::Container::Continue
_TEXT	ENDS
PUBLIC	?InnerIsNotEnd@Container@ForEach@CipherShed@@QBE_NXZ ; CipherShed::ForEach::Container::InnerIsNotEnd
; Function compile flags: /Ogtpy
;	COMDAT ?InnerIsNotEnd@Container@ForEach@CipherShed@@QBE_NXZ
_TEXT	SEGMENT
?InnerIsNotEnd@Container@ForEach@CipherShed@@QBE_NXZ PROC ; CipherShed::ForEach::Container::InnerIsNotEnd, COMDAT
; _this$ = ecx

; 23   : 			bool InnerIsNotEnd () const { return InnerEndCondition = !InnerEndCondition; }

  00000	80 79 05 00	 cmp	 BYTE PTR [ecx+5], 0
  00004	0f 94 c0	 sete	 al
  00007	88 41 05	 mov	 BYTE PTR [ecx+5], al
  0000a	c3		 ret	 0
?InnerIsNotEnd@Container@ForEach@CipherShed@@QBE_NXZ ENDP ; CipherShed::ForEach::Container::InnerIsNotEnd
; Function compile flags: /Ogtpy
_TEXT	ENDS
;	COMDAT ??_GContainer@ForEach@CipherShed@@UAEPAXI@Z
_TEXT	SEGMENT
___flags$ = 8						; size = 4
??_GContainer@ForEach@CipherShed@@UAEPAXI@Z PROC	; CipherShed::ForEach::Container::`scalar deleting destructor', COMDAT
; _this$ = ecx
  00000	f6 44 24 04 01	 test	 BYTE PTR ___flags$[esp-4], 1
  00005	56		 push	 esi
  00006	8b f1		 mov	 esi, ecx
  00008	c7 06 00 00 00
	00		 mov	 DWORD PTR [esi], OFFSET ??_7Container@ForEach@CipherShed@@6B@
  0000e	74 09		 je	 SHORT $LN6@scalar@5
  00010	56		 push	 esi
  00011	e8 00 00 00 00	 call	 ??3@YAXPAX@Z		; operator delete
  00016	83 c4 04	 add	 esp, 4
$LN6@scalar@5:
  00019	8b c6		 mov	 eax, esi
  0001b	5e		 pop	 esi
  0001c	c2 04 00	 ret	 4
??_GContainer@ForEach@CipherShed@@UAEPAXI@Z ENDP	; CipherShed::ForEach::Container::`scalar deleting destructor'
_TEXT	ENDS
PUBLIC	_ConvertUTF16toUTF8s
EXTRN	_ConvertUTF16toUTF8:PROC
; Function compile flags: /Ogtpy
; File c:\users\public\desktop\projects\ciphershed\src\common\util\unicode\convertutf.h
;	COMDAT _ConvertUTF16toUTF8s
_TEXT	SEGMENT
_sourceStart$ = 8					; size = 4
_sourceLength$ = 12					; size = 4
_targetStart$ = 16					; size = 4
_targetLength$ = 20					; size = 4
_flags$ = 24						; size = 4
_ConvertUTF16toUTF8s PROC				; COMDAT

; 172  : 	return ConvertUTF16toUTF8(&sourceStart, sourceStart+sizeof(*sourceStart)*sourceLength, &targetStart, targetStart+sizeof(*targetStart)*targetLength, flags);

  00000	8b 44 24 14	 mov	 eax, DWORD PTR _flags$[esp-4]
  00004	8b 4c 24 10	 mov	 ecx, DWORD PTR _targetLength$[esp-4]
  00008	8b 54 24 0c	 mov	 edx, DWORD PTR _targetStart$[esp-4]
  0000c	50		 push	 eax
  0000d	03 d1		 add	 edx, ecx
  0000f	8b 4c 24 0c	 mov	 ecx, DWORD PTR _sourceLength$[esp]
  00013	52		 push	 edx
  00014	8b 54 24 0c	 mov	 edx, DWORD PTR _sourceStart$[esp+4]
  00018	8d 44 24 14	 lea	 eax, DWORD PTR _targetStart$[esp+4]
  0001c	50		 push	 eax
  0001d	8d 04 8a	 lea	 eax, DWORD PTR [edx+ecx*4]
  00020	50		 push	 eax
  00021	8d 4c 24 14	 lea	 ecx, DWORD PTR _sourceStart$[esp+12]
  00025	51		 push	 ecx
  00026	e8 00 00 00 00	 call	 _ConvertUTF16toUTF8
  0002b	83 c4 14	 add	 esp, 20			; 00000014H

; 173  : }

  0002e	c3		 ret	 0
_ConvertUTF16toUTF8s ENDP
_TEXT	ENDS
PUBLIC	??_GBootEncryption@CipherShed@@QAEPAXI@Z	; CipherShed::BootEncryption::`scalar deleting destructor'
EXTRN	??1BootEncryption@CipherShed@@QAE@XZ:PROC	; CipherShed::BootEncryption::~BootEncryption
; Function compile flags: /Ogtpy
;	COMDAT ??_GBootEncryption@CipherShed@@QAEPAXI@Z
_TEXT	SEGMENT
___flags$ = 8						; size = 4
??_GBootEncryption@CipherShed@@QAEPAXI@Z PROC		; CipherShed::BootEncryption::`scalar deleting destructor', COMDAT
; _this$ = ecx
  00000	56		 push	 esi
  00001	8b f1		 mov	 esi, ecx
  00003	e8 00 00 00 00	 call	 ??1BootEncryption@CipherShed@@QAE@XZ ; CipherShed::BootEncryption::~BootEncryption
  00008	f6 44 24 08 01	 test	 BYTE PTR ___flags$[esp], 1
  0000d	74 09		 je	 SHORT $LN4@scalar@6
  0000f	56		 push	 esi
  00010	e8 00 00 00 00	 call	 ??3@YAXPAX@Z		; operator delete
  00015	83 c4 04	 add	 esp, 4
$LN4@scalar@6:
  00018	8b c6		 mov	 eax, esi
  0001a	5e		 pop	 esi
  0001b	c2 04 00	 ret	 4
??_GBootEncryption@CipherShed@@QAEPAXI@Z ENDP		; CipherShed::BootEncryption::`scalar deleting destructor'
_TEXT	ENDS
PUBLIC	_VolumeSelected
EXTRN	__imp__GetWindowTextLengthA@4:PROC
EXTRN	__imp__GetDlgItem@8:PROC
; Function compile flags: /Ogtpy
; File c:\users\public\desktop\projects\ciphershed\src\mount\mount.c
;	COMDAT _VolumeSelected
_TEXT	SEGMENT
_hwndDlg$ = 8						; size = 4
_VolumeSelected PROC					; COMDAT

; 359  : 	return (GetWindowTextLengthA(GetDlgItem (hwndDlg, IDC_VOLUME)) > 0);

  00000	8b 44 24 04	 mov	 eax, DWORD PTR _hwndDlg$[esp-4]
  00004	68 0a 04 00 00	 push	 1034			; 0000040aH
  00009	50		 push	 eax
  0000a	ff 15 00 00 00
	00		 call	 DWORD PTR __imp__GetDlgItem@8
  00010	50		 push	 eax
  00011	ff 15 00 00 00
	00		 call	 DWORD PTR __imp__GetWindowTextLengthA@4
  00017	33 c9		 xor	 ecx, ecx
  00019	85 c0		 test	 eax, eax
  0001b	0f 9f c1	 setg	 cl
  0001e	8b c1		 mov	 eax, ecx

; 360  : }

  00020	c3		 ret	 0
_VolumeSelected ENDP
_TEXT	ENDS
PUBLIC	??_C@_0CF@JMGBPMDD@HotkeyCodeCloseSecurityTokenSess@ ; `string'
PUBLIC	??_C@_0CE@HGCCLLKG@HotkeyModCloseSecurityTokenSessi@ ; `string'
PUBLIC	??_C@_0BN@CHLGHFOA@HotkeyCodeShowHideMainWindow?$AA@ ; `string'
PUBLIC	??_C@_0BM@LONPOCBB@HotkeyModShowHideMainWindow?$AA@ ; `string'
PUBLIC	??_C@_0BP@HCDOBOOJ@HotkeyCodeMountFavoriteVolumes?$AA@ ; `string'
PUBLIC	??_C@_0BO@BBPCFBJL@HotkeyModMountFavoriteVolumes?$AA@ ; `string'
PUBLIC	??_C@_0CD@NAGGLIOF@HotkeyCodeForceDismountAllWipeEx@ ; `string'
PUBLIC	??_C@_0CC@NJGCLCKP@HotkeyModForceDismountAllWipeExi@ ; `string'
PUBLIC	??_C@_0BP@GBIKFBPN@HotkeyCodeForceDismountAllWipe?$AA@ ; `string'
PUBLIC	??_C@_0BO@CEGBOIP@HotkeyModForceDismountAllWipe?$AA@ ; `string'
PUBLIC	??_C@_0BK@CFAKNANL@HotkeyCodeDismountAllWipe?$AA@ ; `string'
PUBLIC	??_C@_0BJ@DMJNNPJL@HotkeyModDismountAllWipe?$AA@ ; `string'
PUBLIC	??_C@_0BE@NNJKBANE@HotkeyCodeWipeCache?$AA@	; `string'
PUBLIC	??_C@_0BD@PFLDJHEM@HotkeyModWipeCache?$AA@	; `string'
PUBLIC	??_C@_0BG@FAJJGDON@HotkeyCodeDismountAll?$AA@	; `string'
PUBLIC	??_C@_0BF@JKNNFNFF@HotkeyModDismountAll?$AA@	; `string'
PUBLIC	??_C@_0BL@HFFNPBG@HotkeyCodeAutoMountDevices?$AA@ ; `string'
PUBLIC	??_C@_0BK@HBJAAJIJ@HotkeyModAutoMountDevices?$AA@ ; `string'
PUBLIC	??_C@_0BO@GGCIJNCK@DisplayMsgBoxOnHotkeyDismount?$AA@ ; `string'
PUBLIC	??_C@_0BP@BFHJPAFJ@PlaySoundOnHotkeyMountDismount?$AA@ ; `string'
PUBLIC	??_C@_0BF@MIMCAHPI@SecurityTokenLibrary?$AA@	; `string'
PUBLIC	??_C@_0BC@JNFOKCJG@LastSelectedDrive?$AA@	; `string'
PUBLIC	??_C@_00CNPNBAHC@?$AA@				; `string'
PUBLIC	??_C@_0CA@JDEDMHHP@HiddenSystemLeakProtNotifStatus?$AA@ ; `string'
PUBLIC	??_C@_0BM@PPMGLKNI@DisableSystemCrashDetection?$AA@ ; `string'
PUBLIC	??_C@_0CF@EFIMMBIH@CloseSecurityTokenSessionsAfterM@ ; `string'
PUBLIC	??_C@_0BF@NMKCILAI@MountVolumesReadOnly?$AA@	; `string'
PUBLIC	??_C@_0BG@BIDCCDPC@MountVolumesRemovable?$AA@	; `string'
PUBLIC	??_C@_0BD@LGMAGJMG@PreserveTimestamps?$AA@	; `string'
PUBLIC	??_C@_0M@LMLBNLIJ@UseKeyfiles?$AA@		; `string'
PUBLIC	??_C@_0BM@GHIJBHNC@HiddenSectorDetectionStatus?$AA@ ; `string'
PUBLIC	??_C@_0BC@JKHHAAAB@MaxVolumeIdleTime?$AA@	; `string'
PUBLIC	??_C@_0BC@EDMFNFCN@ForceAutoDismount?$AA@	; `string'
PUBLIC	??_C@_0BG@MFJBKGJC@DismountOnScreenSaver?$AA@	; `string'
PUBLIC	??_C@_0BG@EJBOHCEJ@DismountOnPowerSaving?$AA@	; `string'
PUBLIC	??_C@_0BB@JBNDKFIM@DismountOnLogOff?$AA@	; `string'
PUBLIC	??_C@_0BP@GDDJCJHL@CloseBackgroundTaskOnNoVolumes?$AA@ ; `string'
PUBLIC	??_C@_0BF@KJGFKHOF@EnableBackgroundTask?$AA@	; `string'
PUBLIC	??_C@_0BG@IDCDKCEI@MountFavoritesOnLogon?$AA@	; `string'
PUBLIC	??_C@_0BE@MJJJGJOJ@MountDevicesOnLogon?$AA@	; `string'
PUBLIC	??_C@_0N@PLOGBODB@StartOnLogon?$AA@		; `string'
PUBLIC	??_C@_0BI@FALOPCPE@WipeCacheOnAutoDismount?$AA@	; `string'
PUBLIC	??_C@_0BI@BNIOMO@WipePasswordCacheOnExit?$AA@	; `string'
PUBLIC	??_C@_0P@NEHAKGAO@CachePasswords?$AA@		; `string'
PUBLIC	??_C@_0BC@CGLEBHPJ@SaveVolumeHistory?$AA@	; `string'
PUBLIC	??_C@_0CF@KIMFPDKC@UseDifferentTrayIconIfVolumesMou@ ; `string'
PUBLIC	??_C@_0BN@JJNCGBDA@OpenExplorerWindowAfterMount?$AA@ ; `string'
PUBLIC	_LoadSettings
EXTRN	__imp__SetWindowTextA@8:PROC
EXTRN	_LoadCombo:PROC
EXTRN	_Hotkeys:BYTE
EXTRN	_InitSecurityTokenLibrary:PROC
EXTRN	_SecurityTokenLibraryPath:BYTE
EXTRN	_ConfigReadString:PROC
EXTRN	_IsHiddenOSRunning:PROC
EXTRN	_bPreserveTimestamp:DWORD
EXTRN	_defaultKeyFilesParam:QWORD
EXTRN	_HiddenSectorDetectionStatus:DWORD
EXTRN	_IsAdmin:PROC
EXTRN	_IsServerOS:PROC
EXTRN	_bMountFavoritesOnLogon:DWORD
EXTRN	_bMountDevicesOnLogon:DWORD
EXTRN	_bStartOnLogon:DWORD
EXTRN	_bHistory:DWORD
EXTRN	_ConfigReadInt:PROC
EXTRN	_free:PROC
EXTRN	_ConfigBuffer:DWORD
EXTRN	_bInPlaceEncNonSysPending:DWORD
EXTRN	_LoadNonSysInPlaceEncSettings:PROC
EXTRN	_LoadSysEncSettings:PROC
EXTRN	_EnableHwEncryption:PROC
EXTRN	_ReadDriverConfigurationFlags:PROC
_BSS	SEGMENT
_CmdLineVolumeSpecified DD 01H DUP (?)
_BSS	ENDS
;	COMDAT ??_C@_0CF@JMGBPMDD@HotkeyCodeCloseSecurityTokenSess@
CONST	SEGMENT
??_C@_0CF@JMGBPMDD@HotkeyCodeCloseSecurityTokenSess@ DB 'HotkeyCodeCloseS'
	DB	'ecurityTokenSessions', 00H			; `string'
CONST	ENDS
;	COMDAT ??_C@_0CE@HGCCLLKG@HotkeyModCloseSecurityTokenSessi@
CONST	SEGMENT
??_C@_0CE@HGCCLLKG@HotkeyModCloseSecurityTokenSessi@ DB 'HotkeyModCloseSe'
	DB	'curityTokenSessions', 00H			; `string'
CONST	ENDS
;	COMDAT ??_C@_0BN@CHLGHFOA@HotkeyCodeShowHideMainWindow?$AA@
CONST	SEGMENT
??_C@_0BN@CHLGHFOA@HotkeyCodeShowHideMainWindow?$AA@ DB 'HotkeyCodeShowHi'
	DB	'deMainWindow', 00H				; `string'
CONST	ENDS
;	COMDAT ??_C@_0BM@LONPOCBB@HotkeyModShowHideMainWindow?$AA@
CONST	SEGMENT
??_C@_0BM@LONPOCBB@HotkeyModShowHideMainWindow?$AA@ DB 'HotkeyModShowHide'
	DB	'MainWindow', 00H				; `string'
CONST	ENDS
;	COMDAT ??_C@_0BP@HCDOBOOJ@HotkeyCodeMountFavoriteVolumes?$AA@
CONST	SEGMENT
??_C@_0BP@HCDOBOOJ@HotkeyCodeMountFavoriteVolumes?$AA@ DB 'HotkeyCodeMoun'
	DB	'tFavoriteVolumes', 00H			; `string'
CONST	ENDS
;	COMDAT ??_C@_0BO@BBPCFBJL@HotkeyModMountFavoriteVolumes?$AA@
CONST	SEGMENT
??_C@_0BO@BBPCFBJL@HotkeyModMountFavoriteVolumes?$AA@ DB 'HotkeyModMountF'
	DB	'avoriteVolumes', 00H			; `string'
CONST	ENDS
;	COMDAT ??_C@_0CD@NAGGLIOF@HotkeyCodeForceDismountAllWipeEx@
CONST	SEGMENT
??_C@_0CD@NAGGLIOF@HotkeyCodeForceDismountAllWipeEx@ DB 'HotkeyCodeForceD'
	DB	'ismountAllWipeExit', 00H			; `string'
CONST	ENDS
;	COMDAT ??_C@_0CC@NJGCLCKP@HotkeyModForceDismountAllWipeExi@
CONST	SEGMENT
??_C@_0CC@NJGCLCKP@HotkeyModForceDismountAllWipeExi@ DB 'HotkeyModForceDi'
	DB	'smountAllWipeExit', 00H			; `string'
CONST	ENDS
;	COMDAT ??_C@_0BP@GBIKFBPN@HotkeyCodeForceDismountAllWipe?$AA@
CONST	SEGMENT
??_C@_0BP@GBIKFBPN@HotkeyCodeForceDismountAllWipe?$AA@ DB 'HotkeyCodeForc'
	DB	'eDismountAllWipe', 00H			; `string'
CONST	ENDS
;	COMDAT ??_C@_0BO@CEGBOIP@HotkeyModForceDismountAllWipe?$AA@
CONST	SEGMENT
??_C@_0BO@CEGBOIP@HotkeyModForceDismountAllWipe?$AA@ DB 'HotkeyModForceDi'
	DB	'smountAllWipe', 00H				; `string'
CONST	ENDS
;	COMDAT ??_C@_0BK@CFAKNANL@HotkeyCodeDismountAllWipe?$AA@
CONST	SEGMENT
??_C@_0BK@CFAKNANL@HotkeyCodeDismountAllWipe?$AA@ DB 'HotkeyCodeDismountA'
	DB	'llWipe', 00H				; `string'
CONST	ENDS
;	COMDAT ??_C@_0BJ@DMJNNPJL@HotkeyModDismountAllWipe?$AA@
CONST	SEGMENT
??_C@_0BJ@DMJNNPJL@HotkeyModDismountAllWipe?$AA@ DB 'HotkeyModDismountAll'
	DB	'Wipe', 00H					; `string'
CONST	ENDS
;	COMDAT ??_C@_0BE@NNJKBANE@HotkeyCodeWipeCache?$AA@
CONST	SEGMENT
??_C@_0BE@NNJKBANE@HotkeyCodeWipeCache?$AA@ DB 'HotkeyCodeWipeCache', 00H ; `string'
CONST	ENDS
;	COMDAT ??_C@_0BD@PFLDJHEM@HotkeyModWipeCache?$AA@
CONST	SEGMENT
??_C@_0BD@PFLDJHEM@HotkeyModWipeCache?$AA@ DB 'HotkeyModWipeCache', 00H ; `string'
CONST	ENDS
;	COMDAT ??_C@_0BG@FAJJGDON@HotkeyCodeDismountAll?$AA@
CONST	SEGMENT
??_C@_0BG@FAJJGDON@HotkeyCodeDismountAll?$AA@ DB 'HotkeyCodeDismountAll', 00H ; `string'
CONST	ENDS
;	COMDAT ??_C@_0BF@JKNNFNFF@HotkeyModDismountAll?$AA@
CONST	SEGMENT
??_C@_0BF@JKNNFNFF@HotkeyModDismountAll?$AA@ DB 'HotkeyModDismountAll', 00H ; `string'
CONST	ENDS
;	COMDAT ??_C@_0BL@HFFNPBG@HotkeyCodeAutoMountDevices?$AA@
CONST	SEGMENT
??_C@_0BL@HFFNPBG@HotkeyCodeAutoMountDevices?$AA@ DB 'HotkeyCodeAutoMount'
	DB	'Devices', 00H				; `string'
CONST	ENDS
;	COMDAT ??_C@_0BK@HBJAAJIJ@HotkeyModAutoMountDevices?$AA@
CONST	SEGMENT
??_C@_0BK@HBJAAJIJ@HotkeyModAutoMountDevices?$AA@ DB 'HotkeyModAutoMountD'
	DB	'evices', 00H				; `string'
CONST	ENDS
;	COMDAT ??_C@_0BO@GGCIJNCK@DisplayMsgBoxOnHotkeyDismount?$AA@
CONST	SEGMENT
??_C@_0BO@GGCIJNCK@DisplayMsgBoxOnHotkeyDismount?$AA@ DB 'DisplayMsgBoxOn'
	DB	'HotkeyDismount', 00H			; `string'
CONST	ENDS
;	COMDAT ??_C@_0BP@BFHJPAFJ@PlaySoundOnHotkeyMountDismount?$AA@
CONST	SEGMENT
??_C@_0BP@BFHJPAFJ@PlaySoundOnHotkeyMountDismount?$AA@ DB 'PlaySoundOnHot'
	DB	'keyMountDismount', 00H			; `string'
CONST	ENDS
;	COMDAT ??_C@_0BF@MIMCAHPI@SecurityTokenLibrary?$AA@
CONST	SEGMENT
??_C@_0BF@MIMCAHPI@SecurityTokenLibrary?$AA@ DB 'SecurityTokenLibrary', 00H ; `string'
CONST	ENDS
;	COMDAT ??_C@_0BC@JNFOKCJG@LastSelectedDrive?$AA@
CONST	SEGMENT
??_C@_0BC@JNFOKCJG@LastSelectedDrive?$AA@ DB 'LastSelectedDrive', 00H ; `string'
CONST	ENDS
;	COMDAT ??_C@_00CNPNBAHC@?$AA@
CONST	SEGMENT
??_C@_00CNPNBAHC@?$AA@ DB 00H				; `string'
CONST	ENDS
;	COMDAT ??_C@_0CA@JDEDMHHP@HiddenSystemLeakProtNotifStatus?$AA@
CONST	SEGMENT
??_C@_0CA@JDEDMHHP@HiddenSystemLeakProtNotifStatus?$AA@ DB 'HiddenSystemL'
	DB	'eakProtNotifStatus', 00H			; `string'
CONST	ENDS
;	COMDAT ??_C@_0BM@PPMGLKNI@DisableSystemCrashDetection?$AA@
CONST	SEGMENT
??_C@_0BM@PPMGLKNI@DisableSystemCrashDetection?$AA@ DB 'DisableSystemCras'
	DB	'hDetection', 00H				; `string'
CONST	ENDS
;	COMDAT ??_C@_0CF@EFIMMBIH@CloseSecurityTokenSessionsAfterM@
CONST	SEGMENT
??_C@_0CF@EFIMMBIH@CloseSecurityTokenSessionsAfterM@ DB 'CloseSecurityTok'
	DB	'enSessionsAfterMount', 00H			; `string'
CONST	ENDS
;	COMDAT ??_C@_0BF@NMKCILAI@MountVolumesReadOnly?$AA@
CONST	SEGMENT
??_C@_0BF@NMKCILAI@MountVolumesReadOnly?$AA@ DB 'MountVolumesReadOnly', 00H ; `string'
CONST	ENDS
;	COMDAT ??_C@_0BG@BIDCCDPC@MountVolumesRemovable?$AA@
CONST	SEGMENT
??_C@_0BG@BIDCCDPC@MountVolumesRemovable?$AA@ DB 'MountVolumesRemovable', 00H ; `string'
CONST	ENDS
;	COMDAT ??_C@_0BD@LGMAGJMG@PreserveTimestamps?$AA@
CONST	SEGMENT
??_C@_0BD@LGMAGJMG@PreserveTimestamps?$AA@ DB 'PreserveTimestamps', 00H ; `string'
CONST	ENDS
;	COMDAT ??_C@_0M@LMLBNLIJ@UseKeyfiles?$AA@
CONST	SEGMENT
??_C@_0M@LMLBNLIJ@UseKeyfiles?$AA@ DB 'UseKeyfiles', 00H ; `string'
CONST	ENDS
;	COMDAT ??_C@_0BM@GHIJBHNC@HiddenSectorDetectionStatus?$AA@
CONST	SEGMENT
??_C@_0BM@GHIJBHNC@HiddenSectorDetectionStatus?$AA@ DB 'HiddenSectorDetec'
	DB	'tionStatus', 00H				; `string'
CONST	ENDS
;	COMDAT ??_C@_0BC@JKHHAAAB@MaxVolumeIdleTime?$AA@
CONST	SEGMENT
??_C@_0BC@JKHHAAAB@MaxVolumeIdleTime?$AA@ DB 'MaxVolumeIdleTime', 00H ; `string'
CONST	ENDS
;	COMDAT ??_C@_0BC@EDMFNFCN@ForceAutoDismount?$AA@
CONST	SEGMENT
??_C@_0BC@EDMFNFCN@ForceAutoDismount?$AA@ DB 'ForceAutoDismount', 00H ; `string'
CONST	ENDS
;	COMDAT ??_C@_0BG@MFJBKGJC@DismountOnScreenSaver?$AA@
CONST	SEGMENT
??_C@_0BG@MFJBKGJC@DismountOnScreenSaver?$AA@ DB 'DismountOnScreenSaver', 00H ; `string'
CONST	ENDS
;	COMDAT ??_C@_0BG@EJBOHCEJ@DismountOnPowerSaving?$AA@
CONST	SEGMENT
??_C@_0BG@EJBOHCEJ@DismountOnPowerSaving?$AA@ DB 'DismountOnPowerSaving', 00H ; `string'
CONST	ENDS
;	COMDAT ??_C@_0BB@JBNDKFIM@DismountOnLogOff?$AA@
CONST	SEGMENT
??_C@_0BB@JBNDKFIM@DismountOnLogOff?$AA@ DB 'DismountOnLogOff', 00H ; `string'
CONST	ENDS
;	COMDAT ??_C@_0BP@GDDJCJHL@CloseBackgroundTaskOnNoVolumes?$AA@
CONST	SEGMENT
??_C@_0BP@GDDJCJHL@CloseBackgroundTaskOnNoVolumes?$AA@ DB 'CloseBackgroun'
	DB	'dTaskOnNoVolumes', 00H			; `string'
CONST	ENDS
;	COMDAT ??_C@_0BF@KJGFKHOF@EnableBackgroundTask?$AA@
CONST	SEGMENT
??_C@_0BF@KJGFKHOF@EnableBackgroundTask?$AA@ DB 'EnableBackgroundTask', 00H ; `string'
CONST	ENDS
;	COMDAT ??_C@_0BG@IDCDKCEI@MountFavoritesOnLogon?$AA@
CONST	SEGMENT
??_C@_0BG@IDCDKCEI@MountFavoritesOnLogon?$AA@ DB 'MountFavoritesOnLogon', 00H ; `string'
CONST	ENDS
;	COMDAT ??_C@_0BE@MJJJGJOJ@MountDevicesOnLogon?$AA@
CONST	SEGMENT
??_C@_0BE@MJJJGJOJ@MountDevicesOnLogon?$AA@ DB 'MountDevicesOnLogon', 00H ; `string'
CONST	ENDS
;	COMDAT ??_C@_0N@PLOGBODB@StartOnLogon?$AA@
CONST	SEGMENT
??_C@_0N@PLOGBODB@StartOnLogon?$AA@ DB 'StartOnLogon', 00H ; `string'
CONST	ENDS
;	COMDAT ??_C@_0BI@FALOPCPE@WipeCacheOnAutoDismount?$AA@
CONST	SEGMENT
??_C@_0BI@FALOPCPE@WipeCacheOnAutoDismount?$AA@ DB 'WipeCacheOnAutoDismou'
	DB	'nt', 00H					; `string'
CONST	ENDS
;	COMDAT ??_C@_0BI@BNIOMO@WipePasswordCacheOnExit?$AA@
CONST	SEGMENT
??_C@_0BI@BNIOMO@WipePasswordCacheOnExit?$AA@ DB 'WipePasswordCacheOnExit'
	DB	00H						; `string'
CONST	ENDS
;	COMDAT ??_C@_0P@NEHAKGAO@CachePasswords?$AA@
CONST	SEGMENT
??_C@_0P@NEHAKGAO@CachePasswords?$AA@ DB 'CachePasswords', 00H ; `string'
CONST	ENDS
;	COMDAT ??_C@_0BC@CGLEBHPJ@SaveVolumeHistory?$AA@
CONST	SEGMENT
??_C@_0BC@CGLEBHPJ@SaveVolumeHistory?$AA@ DB 'SaveVolumeHistory', 00H ; `string'
CONST	ENDS
;	COMDAT ??_C@_0CF@KIMFPDKC@UseDifferentTrayIconIfVolumesMou@
CONST	SEGMENT
??_C@_0CF@KIMFPDKC@UseDifferentTrayIconIfVolumesMou@ DB 'UseDifferentTray'
	DB	'IconIfVolumesMounted', 00H			; `string'
CONST	ENDS
;	COMDAT ??_C@_0BN@JJNCGBDA@OpenExplorerWindowAfterMount?$AA@
CONST	SEGMENT
??_C@_0BN@JJNCGBDA@OpenExplorerWindowAfterMount?$AA@ DB 'OpenExplorerWind'
	DB	'owAfterMount', 00H				; `string'
; Function compile flags: /Ogtpy
CONST	ENDS
;	COMDAT _LoadSettings
_TEXT	SEGMENT
_savedWipeAlgorithm$ = -4				; size = 4
_hwndDlg$ = 8						; size = 4
_LoadSettings PROC					; COMDAT

; 396  : {

  00000	51		 push	 ecx
  00001	53		 push	 ebx
  00002	55		 push	 ebp
  00003	56		 push	 esi

; 397  : 	EnableHwEncryption ((ReadDriverConfigurationFlags() & TC_DRIVER_CONFIG_DISABLE_HARDWARE_ENCRYPTION) ? FALSE : TRUE);

  00004	e8 00 00 00 00	 call	 _ReadDriverConfigurationFlags
  00009	c1 e8 03	 shr	 eax, 3
  0000c	f7 d0		 not	 eax
  0000e	83 e0 01	 and	 eax, 1
  00011	50		 push	 eax
  00012	e8 00 00 00 00	 call	 _EnableHwEncryption

; 398  : 
; 399  : 	WipeAlgorithmId savedWipeAlgorithm = TC_WIPE_NONE;
; 400  : 
; 401  : 	LoadSysEncSettings (hwndDlg);

  00017	8b 6c 24 18	 mov	 ebp, DWORD PTR _hwndDlg$[esp+16]
  0001b	33 db		 xor	 ebx, ebx
  0001d	55		 push	 ebp
  0001e	89 5c 24 14	 mov	 DWORD PTR _savedWipeAlgorithm$[esp+24], ebx
  00022	e8 00 00 00 00	 call	 _LoadSysEncSettings

; 402  : 
; 403  : 	if (LoadNonSysInPlaceEncSettings (&savedWipeAlgorithm) != 0)

  00027	8d 44 24 14	 lea	 eax, DWORD PTR _savedWipeAlgorithm$[esp+24]
  0002b	50		 push	 eax
  0002c	e8 00 00 00 00	 call	 _LoadNonSysInPlaceEncSettings
  00031	83 c4 0c	 add	 esp, 12			; 0000000cH
  00034	85 c0		 test	 eax, eax
  00036	74 0a		 je	 SHORT $LN7@LoadSettin

; 404  : 		bInPlaceEncNonSysPending = TRUE;

  00038	c7 05 00 00 00
	00 01 00 00 00	 mov	 DWORD PTR _bInPlaceEncNonSysPending, 1
$LN7@LoadSettin:

; 405  : 
; 406  : 	// If the config file has already been loaded during this session
; 407  : 	if (ConfigBuffer != NULL)

  00042	a1 00 00 00 00	 mov	 eax, DWORD PTR _ConfigBuffer
  00047	3b c3		 cmp	 eax, ebx
  00049	74 0f		 je	 SHORT $LN6@LoadSettin

; 408  : 	{
; 409  : 		free (ConfigBuffer);

  0004b	50		 push	 eax
  0004c	e8 00 00 00 00	 call	 _free
  00051	83 c4 04	 add	 esp, 4

; 410  : 		ConfigBuffer = NULL;

  00054	89 1d 00 00 00
	00		 mov	 DWORD PTR _ConfigBuffer, ebx
$LN6@LoadSettin:

; 411  : 	}
; 412  : 
; 413  : 	// Options
; 414  : 	bExplore =						ConfigReadInt ("OpenExplorerWindowAfterMount", FALSE);

  0005a	53		 push	 ebx
  0005b	68 00 00 00 00	 push	 OFFSET ??_C@_0BN@JJNCGBDA@OpenExplorerWindowAfterMount?$AA@
  00060	e8 00 00 00 00	 call	 _ConfigReadInt

; 415  : 	bUseDifferentTrayIconIfVolMounted =	ConfigReadInt ("UseDifferentTrayIconIfVolumesMounted", TRUE);

  00065	6a 01		 push	 1
  00067	68 00 00 00 00	 push	 OFFSET ??_C@_0CF@KIMFPDKC@UseDifferentTrayIconIfVolumesMou@
  0006c	a3 00 00 00 00	 mov	 DWORD PTR _bExplore, eax
  00071	e8 00 00 00 00	 call	 _ConfigReadInt

; 416  : 
; 417  : 	bHistory =						ConfigReadInt ("SaveVolumeHistory", FALSE);

  00076	53		 push	 ebx
  00077	68 00 00 00 00	 push	 OFFSET ??_C@_0BC@CGLEBHPJ@SaveVolumeHistory?$AA@
  0007c	a3 00 00 00 00	 mov	 DWORD PTR ?bUseDifferentTrayIconIfVolMounted@@3HA, eax ; bUseDifferentTrayIconIfVolMounted
  00081	e8 00 00 00 00	 call	 _ConfigReadInt

; 418  : 
; 419  : 	bCacheInDriverDefault = bCacheInDriver = ConfigReadInt ("CachePasswords", FALSE);

  00086	53		 push	 ebx
  00087	68 00 00 00 00	 push	 OFFSET ??_C@_0P@NEHAKGAO@CachePasswords?$AA@
  0008c	a3 00 00 00 00	 mov	 DWORD PTR _bHistory, eax
  00091	e8 00 00 00 00	 call	 _ConfigReadInt

; 420  : 	bWipeCacheOnExit =				ConfigReadInt ("WipePasswordCacheOnExit", FALSE);

  00096	53		 push	 ebx
  00097	68 00 00 00 00	 push	 OFFSET ??_C@_0BI@BNIOMO@WipePasswordCacheOnExit?$AA@
  0009c	a3 00 00 00 00	 mov	 DWORD PTR ?bCacheInDriver@@3HA, eax ; bCacheInDriver
  000a1	a3 00 00 00 00	 mov	 DWORD PTR ?bCacheInDriverDefault@@3HA, eax ; bCacheInDriverDefault
  000a6	e8 00 00 00 00	 call	 _ConfigReadInt

; 421  : 	bWipeCacheOnAutoDismount =		ConfigReadInt ("WipeCacheOnAutoDismount", TRUE);

  000ab	6a 01		 push	 1
  000ad	68 00 00 00 00	 push	 OFFSET ??_C@_0BI@FALOPCPE@WipeCacheOnAutoDismount?$AA@
  000b2	a3 00 00 00 00	 mov	 DWORD PTR ?bWipeCacheOnExit@@3HA, eax ; bWipeCacheOnExit
  000b7	e8 00 00 00 00	 call	 _ConfigReadInt

; 422  : 
; 423  : 	bStartOnLogon =					ConfigReadInt ("StartOnLogon", FALSE);

  000bc	53		 push	 ebx
  000bd	68 00 00 00 00	 push	 OFFSET ??_C@_0N@PLOGBODB@StartOnLogon?$AA@
  000c2	a3 00 00 00 00	 mov	 DWORD PTR ?bWipeCacheOnAutoDismount@@3HA, eax ; bWipeCacheOnAutoDismount
  000c7	e8 00 00 00 00	 call	 _ConfigReadInt

; 424  : 	bMountDevicesOnLogon =			ConfigReadInt ("MountDevicesOnLogon", FALSE);

  000cc	53		 push	 ebx
  000cd	68 00 00 00 00	 push	 OFFSET ??_C@_0BE@MJJJGJOJ@MountDevicesOnLogon?$AA@
  000d2	a3 00 00 00 00	 mov	 DWORD PTR _bStartOnLogon, eax
  000d7	e8 00 00 00 00	 call	 _ConfigReadInt
  000dc	83 c4 40	 add	 esp, 64			; 00000040H

; 425  : 	bMountFavoritesOnLogon =		ConfigReadInt ("MountFavoritesOnLogon", FALSE);

  000df	53		 push	 ebx
  000e0	68 00 00 00 00	 push	 OFFSET ??_C@_0BG@IDCDKCEI@MountFavoritesOnLogon?$AA@
  000e5	a3 00 00 00 00	 mov	 DWORD PTR _bMountDevicesOnLogon, eax
  000ea	e8 00 00 00 00	 call	 _ConfigReadInt

; 426  : 
; 427  : 	bEnableBkgTask =				ConfigReadInt ("EnableBackgroundTask", TRUE);

  000ef	6a 01		 push	 1
  000f1	68 00 00 00 00	 push	 OFFSET ??_C@_0BF@KJGFKHOF@EnableBackgroundTask?$AA@
  000f6	a3 00 00 00 00	 mov	 DWORD PTR _bMountFavoritesOnLogon, eax
  000fb	e8 00 00 00 00	 call	 _ConfigReadInt

; 428  : 	bCloseBkgTaskWhenNoVolumes =	ConfigReadInt ("CloseBackgroundTaskOnNoVolumes", FALSE);

  00100	53		 push	 ebx
  00101	68 00 00 00 00	 push	 OFFSET ??_C@_0BP@GDDJCJHL@CloseBackgroundTaskOnNoVolumes?$AA@
  00106	a3 00 00 00 00	 mov	 DWORD PTR _bEnableBkgTask, eax
  0010b	e8 00 00 00 00	 call	 _ConfigReadInt
  00110	83 c4 18	 add	 esp, 24			; 00000018H
  00113	a3 00 00 00 00	 mov	 DWORD PTR _bCloseBkgTaskWhenNoVolumes, eax

; 429  : 
; 430  : 	bDismountOnLogOff =				ConfigReadInt ("DismountOnLogOff", !(IsServerOS() && IsAdmin()));

  00118	e8 00 00 00 00	 call	 _IsServerOS
  0011d	85 c0		 test	 eax, eax
  0011f	74 0d		 je	 SHORT $LN10@LoadSettin
  00121	e8 00 00 00 00	 call	 _IsAdmin
  00126	85 c0		 test	 eax, eax
  00128	74 04		 je	 SHORT $LN10@LoadSettin
  0012a	33 c0		 xor	 eax, eax
  0012c	eb 05		 jmp	 SHORT $LN11@LoadSettin
$LN10@LoadSettin:
  0012e	b8 01 00 00 00	 mov	 eax, 1
$LN11@LoadSettin:
  00133	57		 push	 edi
  00134	50		 push	 eax
  00135	68 00 00 00 00	 push	 OFFSET ??_C@_0BB@JBNDKFIM@DismountOnLogOff?$AA@
  0013a	e8 00 00 00 00	 call	 _ConfigReadInt

; 431  : 	bDismountOnPowerSaving =		ConfigReadInt ("DismountOnPowerSaving", FALSE);

  0013f	53		 push	 ebx
  00140	68 00 00 00 00	 push	 OFFSET ??_C@_0BG@EJBOHCEJ@DismountOnPowerSaving?$AA@
  00145	a3 00 00 00 00	 mov	 DWORD PTR ?bDismountOnLogOff@@3HA, eax ; bDismountOnLogOff
  0014a	e8 00 00 00 00	 call	 _ConfigReadInt

; 432  : 	bDismountOnScreenSaver =		ConfigReadInt ("DismountOnScreenSaver", FALSE);

  0014f	53		 push	 ebx
  00150	68 00 00 00 00	 push	 OFFSET ??_C@_0BG@MFJBKGJC@DismountOnScreenSaver?$AA@
  00155	a3 00 00 00 00	 mov	 DWORD PTR ?bDismountOnPowerSaving@@3HA, eax ; bDismountOnPowerSaving
  0015a	e8 00 00 00 00	 call	 _ConfigReadInt

; 433  : 	bForceAutoDismount =			ConfigReadInt ("ForceAutoDismount", TRUE);

  0015f	6a 01		 push	 1
  00161	68 00 00 00 00	 push	 OFFSET ??_C@_0BC@EDMFNFCN@ForceAutoDismount?$AA@
  00166	a3 00 00 00 00	 mov	 DWORD PTR ?bDismountOnScreenSaver@@3HA, eax ; bDismountOnScreenSaver
  0016b	e8 00 00 00 00	 call	 _ConfigReadInt

; 434  : 	MaxVolumeIdleTime =				ConfigReadInt ("MaxVolumeIdleTime", -60);

  00170	6a c4		 push	 -60			; ffffffc4H
  00172	68 00 00 00 00	 push	 OFFSET ??_C@_0BC@JKHHAAAB@MaxVolumeIdleTime?$AA@
  00177	a3 00 00 00 00	 mov	 DWORD PTR ?bForceAutoDismount@@3HA, eax ; bForceAutoDismount
  0017c	e8 00 00 00 00	 call	 _ConfigReadInt

; 435  : 
; 436  : 	HiddenSectorDetectionStatus =	ConfigReadInt ("HiddenSectorDetectionStatus", 0);

  00181	53		 push	 ebx
  00182	68 00 00 00 00	 push	 OFFSET ??_C@_0BM@GHIJBHNC@HiddenSectorDetectionStatus?$AA@
  00187	a3 00 00 00 00	 mov	 DWORD PTR ?MaxVolumeIdleTime@@3HA, eax ; MaxVolumeIdleTime
  0018c	e8 00 00 00 00	 call	 _ConfigReadInt

; 437  : 
; 438  : 	defaultKeyFilesParam.EnableKeyFiles = ConfigReadInt ("UseKeyfiles", FALSE);

  00191	53		 push	 ebx
  00192	68 00 00 00 00	 push	 OFFSET ??_C@_0M@LMLBNLIJ@UseKeyfiles?$AA@
  00197	a3 00 00 00 00	 mov	 DWORD PTR _HiddenSectorDetectionStatus, eax
  0019c	e8 00 00 00 00	 call	 _ConfigReadInt

; 439  : 
; 440  : 	bPreserveTimestamp = defaultMountOptions.PreserveTimestamp = ConfigReadInt ("PreserveTimestamps", TRUE);

  001a1	6a 01		 push	 1
  001a3	68 00 00 00 00	 push	 OFFSET ??_C@_0BD@LGMAGJMG@PreserveTimestamps?$AA@
  001a8	a3 00 00 00 00	 mov	 DWORD PTR _defaultKeyFilesParam, eax
  001ad	e8 00 00 00 00	 call	 _ConfigReadInt
  001b2	83 c4 40	 add	 esp, 64			; 00000040H

; 441  : 	defaultMountOptions.Removable =	ConfigReadInt ("MountVolumesRemovable", FALSE);

  001b5	53		 push	 ebx
  001b6	68 00 00 00 00	 push	 OFFSET ??_C@_0BG@BIDCCDPC@MountVolumesRemovable?$AA@
  001bb	a3 0c 00 00 00	 mov	 DWORD PTR ?defaultMountOptions@@3UMountOptions@@A+12, eax
  001c0	a3 00 00 00 00	 mov	 DWORD PTR _bPreserveTimestamp, eax
  001c5	e8 00 00 00 00	 call	 _ConfigReadInt

; 442  : 	defaultMountOptions.ReadOnly =	ConfigReadInt ("MountVolumesReadOnly", FALSE);

  001ca	53		 push	 ebx
  001cb	68 00 00 00 00	 push	 OFFSET ??_C@_0BF@NMKCILAI@MountVolumesReadOnly?$AA@
  001d0	a3 04 00 00 00	 mov	 DWORD PTR ?defaultMountOptions@@3UMountOptions@@A+4, eax
  001d5	e8 00 00 00 00	 call	 _ConfigReadInt

; 443  : 	defaultMountOptions.ProtectHiddenVolume = FALSE;
; 444  : 	defaultMountOptions.PartitionInInactiveSysEncScope = FALSE;
; 445  : 	defaultMountOptions.RecoveryMode = FALSE;
; 446  : 	defaultMountOptions.UseBackupHeader =  FALSE;
; 447  : 
; 448  : 	mountOptions = defaultMountOptions;
; 449  : 
; 450  : 	CloseSecurityTokenSessionsAfterMount = ConfigReadInt ("CloseSecurityTokenSessionsAfterMount", 0);

  001da	53		 push	 ebx
  001db	a3 00 00 00 00	 mov	 DWORD PTR ?defaultMountOptions@@3UMountOptions@@A, eax
  001e0	89 1d 08 00 00
	00		 mov	 DWORD PTR ?defaultMountOptions@@3UMountOptions@@A+8, ebx
  001e6	89 1d 10 00 00
	00		 mov	 DWORD PTR ?defaultMountOptions@@3UMountOptions@@A+16, ebx
  001ec	89 1d 60 00 00
	00		 mov	 DWORD PTR ?defaultMountOptions@@3UMountOptions@@A+96, ebx
  001f2	89 1d 5c 00 00
	00		 mov	 DWORD PTR ?defaultMountOptions@@3UMountOptions@@A+92, ebx
  001f8	b9 19 00 00 00	 mov	 ecx, 25			; 00000019H
  001fd	be 00 00 00 00	 mov	 esi, OFFSET ?defaultMountOptions@@3UMountOptions@@A ; defaultMountOptions
  00202	bf 00 00 00 00	 mov	 edi, OFFSET ?mountOptions@@3UMountOptions@@A ; mountOptions
  00207	68 00 00 00 00	 push	 OFFSET ??_C@_0CF@EFIMMBIH@CloseSecurityTokenSessionsAfterM@
  0020c	f3 a5		 rep movsd
  0020e	e8 00 00 00 00	 call	 _ConfigReadInt

; 451  : 	DisableSystemCrashDetection = ConfigReadInt ("DisableSystemCrashDetection", FALSE);

  00213	53		 push	 ebx
  00214	68 00 00 00 00	 push	 OFFSET ??_C@_0BM@PPMGLKNI@DisableSystemCrashDetection?$AA@
  00219	a3 00 00 00 00	 mov	 DWORD PTR ?CloseSecurityTokenSessionsAfterMount@@3HA, eax ; CloseSecurityTokenSessionsAfterMount
  0021e	e8 00 00 00 00	 call	 _ConfigReadInt
  00223	83 c4 20	 add	 esp, 32			; 00000020H
  00226	a3 00 00 00 00	 mov	 DWORD PTR ?DisableSystemCrashDetection@@3HA, eax ; DisableSystemCrashDetection

; 452  : 
; 453  : 	if (IsHiddenOSRunning())

  0022b	e8 00 00 00 00	 call	 _IsHiddenOSRunning
  00230	5f		 pop	 edi
  00231	85 c0		 test	 eax, eax
  00233	74 13		 je	 SHORT $LN5@LoadSettin

; 454  : 		HiddenSysLeakProtectionNotificationStatus =	ConfigReadInt ("HiddenSystemLeakProtNotifStatus", TC_HIDDEN_OS_READ_ONLY_NOTIF_MODE_NONE);

  00235	53		 push	 ebx
  00236	68 00 00 00 00	 push	 OFFSET ??_C@_0CA@JDEDMHHP@HiddenSystemLeakProtNotifStatus?$AA@
  0023b	e8 00 00 00 00	 call	 _ConfigReadInt
  00240	83 c4 08	 add	 esp, 8
  00243	a3 00 00 00 00	 mov	 DWORD PTR ?HiddenSysLeakProtectionNotificationStatus@@3HA, eax ; HiddenSysLeakProtectionNotificationStatus
$LN5@LoadSettin:

; 455  : 
; 456  : 	// Drive letter - command line arg overrides registry
; 457  : 	if (szDriveLetter[0] == 0)

  00248	38 1d 00 00 00
	00		 cmp	 BYTE PTR ?szDriveLetter@@3PADA, bl
  0024e	75 19		 jne	 SHORT $LN4@LoadSettin

; 458  : 		ConfigReadString ("LastSelectedDrive", "", szDriveLetter, sizeof (szDriveLetter));

  00250	6a 03		 push	 3
  00252	68 00 00 00 00	 push	 OFFSET ?szDriveLetter@@3PADA ; szDriveLetter
  00257	68 00 00 00 00	 push	 OFFSET ??_C@_00CNPNBAHC@?$AA@
  0025c	68 00 00 00 00	 push	 OFFSET ??_C@_0BC@JNFOKCJG@LastSelectedDrive?$AA@
  00261	e8 00 00 00 00	 call	 _ConfigReadString
  00266	83 c4 10	 add	 esp, 16			; 00000010H
$LN4@LoadSettin:

; 459  : 
; 460  : 	ConfigReadString ("SecurityTokenLibrary", "", SecurityTokenLibraryPath, sizeof (SecurityTokenLibraryPath) - 1);

  00269	68 03 01 00 00	 push	 259			; 00000103H
  0026e	68 00 00 00 00	 push	 OFFSET _SecurityTokenLibraryPath
  00273	68 00 00 00 00	 push	 OFFSET ??_C@_00CNPNBAHC@?$AA@
  00278	68 00 00 00 00	 push	 OFFSET ??_C@_0BF@MIMCAHPI@SecurityTokenLibrary?$AA@
  0027d	e8 00 00 00 00	 call	 _ConfigReadString
  00282	83 c4 10	 add	 esp, 16			; 00000010H

; 461  : 	if (SecurityTokenLibraryPath[0])

  00285	38 1d 00 00 00
	00		 cmp	 BYTE PTR _SecurityTokenLibraryPath, bl
  0028b	74 05		 je	 SHORT $LN3@LoadSettin

; 462  : 		InitSecurityTokenLibrary();

  0028d	e8 00 00 00 00	 call	 _InitSecurityTokenLibrary
$LN3@LoadSettin:

; 463  : 
; 464  : 	// Hotkeys
; 465  : 	bPlaySoundOnSuccessfulHkDismount							= ConfigReadInt ("PlaySoundOnHotkeyMountDismount", TRUE);

  00292	6a 01		 push	 1
  00294	68 00 00 00 00	 push	 OFFSET ??_C@_0BP@BFHJPAFJ@PlaySoundOnHotkeyMountDismount?$AA@
  00299	e8 00 00 00 00	 call	 _ConfigReadInt

; 466  : 	bDisplayBalloonOnSuccessfulHkDismount					= ConfigReadInt ("DisplayMsgBoxOnHotkeyDismount", TRUE);

  0029e	6a 01		 push	 1
  002a0	68 00 00 00 00	 push	 OFFSET ??_C@_0BO@GGCIJNCK@DisplayMsgBoxOnHotkeyDismount?$AA@
  002a5	a3 00 00 00 00	 mov	 DWORD PTR _bPlaySoundOnSuccessfulHkDismount, eax
  002aa	e8 00 00 00 00	 call	 _ConfigReadInt

; 467  : 	Hotkeys [HK_AUTOMOUNT_DEVICES].vKeyModifiers					= ConfigReadInt ("HotkeyModAutoMountDevices", 0);

  002af	53		 push	 ebx
  002b0	68 00 00 00 00	 push	 OFFSET ??_C@_0BK@HBJAAJIJ@HotkeyModAutoMountDevices?$AA@
  002b5	a3 00 00 00 00	 mov	 DWORD PTR _bDisplayBalloonOnSuccessfulHkDismount, eax
  002ba	e8 00 00 00 00	 call	 _ConfigReadInt

; 468  : 	Hotkeys [HK_AUTOMOUNT_DEVICES].vKeyCode							= ConfigReadInt ("HotkeyCodeAutoMountDevices", 0);

  002bf	53		 push	 ebx
  002c0	68 00 00 00 00	 push	 OFFSET ??_C@_0BL@HFFNPBG@HotkeyCodeAutoMountDevices?$AA@
  002c5	a3 04 00 00 00	 mov	 DWORD PTR _Hotkeys+4, eax
  002ca	e8 00 00 00 00	 call	 _ConfigReadInt

; 469  : 	Hotkeys [HK_DISMOUNT_ALL].vKeyModifiers							= ConfigReadInt ("HotkeyModDismountAll", 0);

  002cf	53		 push	 ebx
  002d0	68 00 00 00 00	 push	 OFFSET ??_C@_0BF@JKNNFNFF@HotkeyModDismountAll?$AA@
  002d5	a3 00 00 00 00	 mov	 DWORD PTR _Hotkeys, eax
  002da	e8 00 00 00 00	 call	 _ConfigReadInt

; 470  : 	Hotkeys [HK_DISMOUNT_ALL].vKeyCode								= ConfigReadInt ("HotkeyCodeDismountAll", 0);

  002df	53		 push	 ebx
  002e0	68 00 00 00 00	 push	 OFFSET ??_C@_0BG@FAJJGDON@HotkeyCodeDismountAll?$AA@
  002e5	a3 14 00 00 00	 mov	 DWORD PTR _Hotkeys+20, eax
  002ea	e8 00 00 00 00	 call	 _ConfigReadInt

; 471  : 	Hotkeys [HK_WIPE_CACHE].vKeyModifiers							= ConfigReadInt ("HotkeyModWipeCache", 0);

  002ef	53		 push	 ebx
  002f0	68 00 00 00 00	 push	 OFFSET ??_C@_0BD@PFLDJHEM@HotkeyModWipeCache?$AA@
  002f5	a3 10 00 00 00	 mov	 DWORD PTR _Hotkeys+16, eax
  002fa	e8 00 00 00 00	 call	 _ConfigReadInt

; 472  : 	Hotkeys [HK_WIPE_CACHE].vKeyCode								= ConfigReadInt ("HotkeyCodeWipeCache", 0);

  002ff	53		 push	 ebx
  00300	68 00 00 00 00	 push	 OFFSET ??_C@_0BE@NNJKBANE@HotkeyCodeWipeCache?$AA@
  00305	a3 44 00 00 00	 mov	 DWORD PTR _Hotkeys+68, eax
  0030a	e8 00 00 00 00	 call	 _ConfigReadInt
  0030f	83 c4 40	 add	 esp, 64			; 00000040H

; 473  : 	Hotkeys [HK_DISMOUNT_ALL_AND_WIPE].vKeyModifiers				= ConfigReadInt ("HotkeyModDismountAllWipe", 0);

  00312	53		 push	 ebx
  00313	68 00 00 00 00	 push	 OFFSET ??_C@_0BJ@DMJNNPJL@HotkeyModDismountAllWipe?$AA@
  00318	a3 40 00 00 00	 mov	 DWORD PTR _Hotkeys+64, eax
  0031d	e8 00 00 00 00	 call	 _ConfigReadInt

; 474  : 	Hotkeys [HK_DISMOUNT_ALL_AND_WIPE].vKeyCode						= ConfigReadInt ("HotkeyCodeDismountAllWipe", 0);

  00322	53		 push	 ebx
  00323	68 00 00 00 00	 push	 OFFSET ??_C@_0BK@CFAKNANL@HotkeyCodeDismountAllWipe?$AA@
  00328	a3 1c 00 00 00	 mov	 DWORD PTR _Hotkeys+28, eax
  0032d	e8 00 00 00 00	 call	 _ConfigReadInt

; 475  : 	Hotkeys [HK_FORCE_DISMOUNT_ALL_AND_WIPE].vKeyModifiers			= ConfigReadInt ("HotkeyModForceDismountAllWipe", 0);

  00332	53		 push	 ebx
  00333	68 00 00 00 00	 push	 OFFSET ??_C@_0BO@CEGBOIP@HotkeyModForceDismountAllWipe?$AA@
  00338	a3 18 00 00 00	 mov	 DWORD PTR _Hotkeys+24, eax
  0033d	e8 00 00 00 00	 call	 _ConfigReadInt

; 476  : 	Hotkeys [HK_FORCE_DISMOUNT_ALL_AND_WIPE].vKeyCode				= ConfigReadInt ("HotkeyCodeForceDismountAllWipe", 0);

  00342	53		 push	 ebx
  00343	68 00 00 00 00	 push	 OFFSET ??_C@_0BP@GBIKFBPN@HotkeyCodeForceDismountAllWipe?$AA@
  00348	a3 24 00 00 00	 mov	 DWORD PTR _Hotkeys+36, eax
  0034d	e8 00 00 00 00	 call	 _ConfigReadInt

; 477  : 	Hotkeys [HK_FORCE_DISMOUNT_ALL_AND_WIPE_AND_EXIT].vKeyModifiers	= ConfigReadInt ("HotkeyModForceDismountAllWipeExit", 0);

  00352	53		 push	 ebx
  00353	68 00 00 00 00	 push	 OFFSET ??_C@_0CC@NJGCLCKP@HotkeyModForceDismountAllWipeExi@
  00358	a3 20 00 00 00	 mov	 DWORD PTR _Hotkeys+32, eax
  0035d	e8 00 00 00 00	 call	 _ConfigReadInt

; 478  : 	Hotkeys [HK_FORCE_DISMOUNT_ALL_AND_WIPE_AND_EXIT].vKeyCode		= ConfigReadInt ("HotkeyCodeForceDismountAllWipeExit", 0);

  00362	53		 push	 ebx
  00363	68 00 00 00 00	 push	 OFFSET ??_C@_0CD@NAGGLIOF@HotkeyCodeForceDismountAllWipeEx@
  00368	a3 2c 00 00 00	 mov	 DWORD PTR _Hotkeys+44, eax
  0036d	e8 00 00 00 00	 call	 _ConfigReadInt

; 479  : 	Hotkeys [HK_MOUNT_FAVORITE_VOLUMES].vKeyModifiers				= ConfigReadInt ("HotkeyModMountFavoriteVolumes", 0);

  00372	53		 push	 ebx
  00373	68 00 00 00 00	 push	 OFFSET ??_C@_0BO@BBPCFBJL@HotkeyModMountFavoriteVolumes?$AA@
  00378	a3 28 00 00 00	 mov	 DWORD PTR _Hotkeys+40, eax
  0037d	e8 00 00 00 00	 call	 _ConfigReadInt

; 480  : 	Hotkeys [HK_MOUNT_FAVORITE_VOLUMES].vKeyCode					= ConfigReadInt ("HotkeyCodeMountFavoriteVolumes", 0);

  00382	53		 push	 ebx
  00383	68 00 00 00 00	 push	 OFFSET ??_C@_0BP@HCDOBOOJ@HotkeyCodeMountFavoriteVolumes?$AA@
  00388	a3 34 00 00 00	 mov	 DWORD PTR _Hotkeys+52, eax
  0038d	e8 00 00 00 00	 call	 _ConfigReadInt
  00392	83 c4 40	 add	 esp, 64			; 00000040H

; 481  : 	Hotkeys [HK_SHOW_HIDE_MAIN_WINDOW].vKeyModifiers				= ConfigReadInt ("HotkeyModShowHideMainWindow", 0);

  00395	53		 push	 ebx
  00396	68 00 00 00 00	 push	 OFFSET ??_C@_0BM@LONPOCBB@HotkeyModShowHideMainWindow?$AA@
  0039b	a3 30 00 00 00	 mov	 DWORD PTR _Hotkeys+48, eax
  003a0	e8 00 00 00 00	 call	 _ConfigReadInt

; 482  : 	Hotkeys [HK_SHOW_HIDE_MAIN_WINDOW].vKeyCode						= ConfigReadInt ("HotkeyCodeShowHideMainWindow", 0);

  003a5	53		 push	 ebx
  003a6	68 00 00 00 00	 push	 OFFSET ??_C@_0BN@CHLGHFOA@HotkeyCodeShowHideMainWindow?$AA@
  003ab	a3 3c 00 00 00	 mov	 DWORD PTR _Hotkeys+60, eax
  003b0	e8 00 00 00 00	 call	 _ConfigReadInt

; 483  : 	Hotkeys [HK_CLOSE_SECURITY_TOKEN_SESSIONS].vKeyModifiers		= ConfigReadInt ("HotkeyModCloseSecurityTokenSessions", 0);

  003b5	53		 push	 ebx
  003b6	68 00 00 00 00	 push	 OFFSET ??_C@_0CE@HGCCLLKG@HotkeyModCloseSecurityTokenSessi@
  003bb	a3 38 00 00 00	 mov	 DWORD PTR _Hotkeys+56, eax
  003c0	e8 00 00 00 00	 call	 _ConfigReadInt

; 484  : 	Hotkeys [HK_CLOSE_SECURITY_TOKEN_SESSIONS].vKeyCode				= ConfigReadInt ("HotkeyCodeCloseSecurityTokenSessions", 0);

  003c5	53		 push	 ebx
  003c6	68 00 00 00 00	 push	 OFFSET ??_C@_0CF@JMGBPMDD@HotkeyCodeCloseSecurityTokenSess@
  003cb	a3 0c 00 00 00	 mov	 DWORD PTR _Hotkeys+12, eax
  003d0	e8 00 00 00 00	 call	 _ConfigReadInt
  003d5	83 c4 20	 add	 esp, 32			; 00000020H

; 485  : 
; 486  : 	// History
; 487  : 	if (bHistoryCmdLine != TRUE)

  003d8	83 3d 00 00 00
	00 01		 cmp	 DWORD PTR ?bHistoryCmdLine@@3HA, 1 ; bHistoryCmdLine
  003df	a3 08 00 00 00	 mov	 DWORD PTR _Hotkeys+8, eax
  003e4	74 33		 je	 SHORT $LN1@LoadSettin

; 488  : 	{
; 489  : 		LoadCombo (GetDlgItem (hwndDlg, IDC_VOLUME));

  003e6	8b 35 00 00 00
	00		 mov	 esi, DWORD PTR __imp__GetDlgItem@8
  003ec	68 0a 04 00 00	 push	 1034			; 0000040aH
  003f1	55		 push	 ebp
  003f2	ff d6		 call	 esi
  003f4	50		 push	 eax
  003f5	e8 00 00 00 00	 call	 _LoadCombo
  003fa	83 c4 04	 add	 esp, 4

; 490  : 		if (CmdLineVolumeSpecified)

  003fd	39 1d 00 00 00
	00		 cmp	 DWORD PTR _CmdLineVolumeSpecified, ebx
  00403	74 14		 je	 SHORT $LN1@LoadSettin

; 491  : 			SetWindowTextA(GetDlgItem (hwndDlg, IDC_VOLUME), szFileName);

  00405	68 00 00 00 00	 push	 OFFSET ?szFileName@@3PADA ; szFileName
  0040a	68 0a 04 00 00	 push	 1034			; 0000040aH
  0040f	55		 push	 ebp
  00410	ff d6		 call	 esi
  00412	50		 push	 eax
  00413	ff 15 00 00 00
	00		 call	 DWORD PTR __imp__SetWindowTextA@8
$LN1@LoadSettin:
  00419	5e		 pop	 esi
  0041a	5d		 pop	 ebp
  0041b	5b		 pop	 ebx

; 492  : 	}
; 493  : }

  0041c	59		 pop	 ecx
  0041d	c3		 ret	 0
_LoadSettings ENDP
_TEXT	ENDS
PUBLIC	??_R0?AUException@CipherShed@@@8		; CipherShed::Exception `RTTI Type Descriptor'
EXTRN	_MainDlg:DWORD
EXTRN	_SystemEncryptionStatus:DWORD
EXTRN	?GetStatus@BootEncryption@CipherShed@@QAE?AUBootEncryptionStatus@@XZ:PROC ; CipherShed::BootEncryption::GetStatus
EXTRN	___security_cookie:DWORD
EXTRN	___CxxFrameHandler3:PROC
EXTRN	@__security_check_cookie@4:PROC
;	COMDAT ??_R0?AUException@CipherShed@@@8
_DATA	SEGMENT
??_R0?AUException@CipherShed@@@8 DD FLAT:??_7type_info@@6B@ ; CipherShed::Exception `RTTI Type Descriptor'
	DD	00H
	DB	'.?AUException@CipherShed@@', 00H
_DATA	ENDS
;	COMDAT xdata$x
xdata$x	SEGMENT
__catchsym$?SysEncryptionOrDecryptionRequired@@YAHXZ$2 DD 08H
	DD	FLAT:??_R0?AUException@CipherShed@@@8
	DD	0ffffffecH
	DD	FLAT:__catch$?SysEncryptionOrDecryptionRequired@@YAHXZ$0
__unwindtable$?SysEncryptionOrDecryptionRequired@@YAHXZ DD 0ffffffffH
	DD	00H
	DD	0ffffffffH
	DD	00H
__tryblocktable$?SysEncryptionOrDecryptionRequired@@YAHXZ DD 00H
	DD	00H
	DD	01H
	DD	01H
	DD	FLAT:__catchsym$?SysEncryptionOrDecryptionRequired@@YAHXZ$2
__ehfuncinfo$?SysEncryptionOrDecryptionRequired@@YAHXZ DD 019930522H
	DD	02H
	DD	FLAT:__unwindtable$?SysEncryptionOrDecryptionRequired@@YAHXZ
	DD	01H
	DD	FLAT:__tryblocktable$?SysEncryptionOrDecryptionRequired@@YAHXZ
	DD	2 DUP(00H)
	DD	00H
	DD	01H
; Function compile flags: /Ogtpy
xdata$x	ENDS
;	COMDAT ?SysEncryptionOrDecryptionRequired@@YAHXZ
_TEXT	SEGMENT
$T150386 = -114						; size = 94
_e$135879 = -20						; size = 4
__$EHRec$ = -16						; size = 16
?SysEncryptionOrDecryptionRequired@@YAHXZ PROC		; SysEncryptionOrDecryptionRequired, COMDAT

; 585  : {

  00000	55		 push	 ebp
  00001	8b ec		 mov	 ebp, esp
  00003	6a ff		 push	 -1
  00005	68 00 00 00 00	 push	 __ehhandler$?SysEncryptionOrDecryptionRequired@@YAHXZ
  0000a	64 a1 00 00 00
	00		 mov	 eax, DWORD PTR fs:0
  00010	50		 push	 eax
  00011	83 ec 68	 sub	 esp, 104		; 00000068H
  00014	53		 push	 ebx
  00015	56		 push	 esi
  00016	57		 push	 edi
  00017	a1 00 00 00 00	 mov	 eax, DWORD PTR ___security_cookie
  0001c	33 c5		 xor	 eax, ebp
  0001e	50		 push	 eax
  0001f	8d 45 f4	 lea	 eax, DWORD PTR __$EHRec$[ebp+4]
  00022	64 a3 00 00 00
	00		 mov	 DWORD PTR fs:0, eax
  00028	89 65 f0	 mov	 DWORD PTR __$EHRec$[ebp], esp

; 586  : 	/* If you update this function, revise SysEncryptionOrDecryptionRequired() in Tcformat.c as well. */
; 587  : 
; 588  : 	try
; 589  : 	{
; 590  : 		BootEncStatus = BootEncObj->GetStatus();

  0002b	8b 0d 00 00 00
	00		 mov	 ecx, DWORD PTR ?BootEncObj@@3PAVBootEncryption@CipherShed@@A ; BootEncObj
  00031	8d 45 8e	 lea	 eax, DWORD PTR $T150386[ebp]
  00034	50		 push	 eax
  00035	c7 45 fc 00 00
	00 00		 mov	 DWORD PTR __$EHRec$[ebp+12], 0
  0003c	e8 00 00 00 00	 call	 ?GetStatus@BootEncryption@CipherShed@@QAE?AUBootEncryptionStatus@@XZ ; CipherShed::BootEncryption::GetStatus
  00041	b9 17 00 00 00	 mov	 ecx, 23			; 00000017H
  00046	8b f0		 mov	 esi, eax
  00048	bf 00 00 00 00	 mov	 edi, OFFSET ?BootEncStatus@@3UBootEncryptionStatus@@A ; BootEncStatus
  0004d	f3 a5		 rep movsd
  0004f	66 a5		 movsw
$LN11@SysEncrypt:

; 596  : 
; 597  : 	return (SystemEncryptionStatus == SYSENC_STATUS_ENCRYPTING
; 598  : 		|| SystemEncryptionStatus == SYSENC_STATUS_DECRYPTING
; 599  : 		|| 
; 600  : 		(
; 601  : 			BootEncStatus.DriveMounted 
; 602  : 			&& 
; 603  : 			(
; 604  : 				BootEncStatus.ConfiguredEncryptedAreaStart != BootEncStatus.EncryptedAreaStart
; 605  : 				|| BootEncStatus.ConfiguredEncryptedAreaEnd != BootEncStatus.EncryptedAreaEnd
; 606  : 			)
; 607  : 		)
; 608  : 	);

  00051	a1 00 00 00 00	 mov	 eax, DWORD PTR _SystemEncryptionStatus
  00056	3d 90 01 00 00	 cmp	 eax, 400		; 00000190H
  0005b	74 6f		 je	 SHORT $LN4@SysEncrypt
  0005d	3d 58 02 00 00	 cmp	 eax, 600		; 00000258H
  00062	74 68		 je	 SHORT $LN4@SysEncrypt
  00064	83 3d 06 00 00
	00 00		 cmp	 DWORD PTR ?BootEncStatus@@3UBootEncryptionStatus@@A+6, 0
  0006b	74 36		 je	 SHORT $LN6@SysEncrypt
  0006d	a1 1a 00 00 00	 mov	 eax, DWORD PTR ?BootEncStatus@@3UBootEncryptionStatus@@A+26
  00072	3b 05 2a 00 00
	00		 cmp	 eax, DWORD PTR ?BootEncStatus@@3UBootEncryptionStatus@@A+42
  00078	75 52		 jne	 SHORT $LN4@SysEncrypt
  0007a	8b 0d 1e 00 00
	00		 mov	 ecx, DWORD PTR ?BootEncStatus@@3UBootEncryptionStatus@@A+30
  00080	3b 0d 2e 00 00
	00		 cmp	 ecx, DWORD PTR ?BootEncStatus@@3UBootEncryptionStatus@@A+46
  00086	75 44		 jne	 SHORT $LN4@SysEncrypt
  00088	8b 15 22 00 00
	00		 mov	 edx, DWORD PTR ?BootEncStatus@@3UBootEncryptionStatus@@A+34
  0008e	3b 15 32 00 00
	00		 cmp	 edx, DWORD PTR ?BootEncStatus@@3UBootEncryptionStatus@@A+50
  00094	75 36		 jne	 SHORT $LN4@SysEncrypt
  00096	a1 26 00 00 00	 mov	 eax, DWORD PTR ?BootEncStatus@@3UBootEncryptionStatus@@A+38
  0009b	3b 05 36 00 00
	00		 cmp	 eax, DWORD PTR ?BootEncStatus@@3UBootEncryptionStatus@@A+54
  000a1	75 29		 jne	 SHORT $LN4@SysEncrypt
$LN6@SysEncrypt:
  000a3	33 c0		 xor	 eax, eax

; 609  : }

  000a5	8b 4d f4	 mov	 ecx, DWORD PTR __$EHRec$[ebp+4]
  000a8	64 89 0d 00 00
	00 00		 mov	 DWORD PTR fs:0, ecx
  000af	59		 pop	 ecx
  000b0	5f		 pop	 edi
  000b1	5e		 pop	 esi
  000b2	5b		 pop	 ebx
  000b3	8b e5		 mov	 esp, ebp
  000b5	5d		 pop	 ebp
  000b6	c3		 ret	 0
__catch$?SysEncryptionOrDecryptionRequired@@YAHXZ$0:

; 591  : 	}
; 592  : 	catch (Exception &e)
; 593  : 	{
; 594  : 		e.Show (MainDlg);

  000b7	8b 4d ec	 mov	 ecx, DWORD PTR _e$135879[ebp]
  000ba	8b 11		 mov	 edx, DWORD PTR [ecx]
  000bc	a1 00 00 00 00	 mov	 eax, DWORD PTR _MainDlg
  000c1	8b 12		 mov	 edx, DWORD PTR [edx]
  000c3	50		 push	 eax
  000c4	ff d2		 call	 edx

; 595  : 	}

  000c6	b8 00 00 00 00	 mov	 eax, $LN11@SysEncrypt
  000cb	c3		 ret	 0
$LN4@SysEncrypt:

; 596  : 
; 597  : 	return (SystemEncryptionStatus == SYSENC_STATUS_ENCRYPTING
; 598  : 		|| SystemEncryptionStatus == SYSENC_STATUS_DECRYPTING
; 599  : 		|| 
; 600  : 		(
; 601  : 			BootEncStatus.DriveMounted 
; 602  : 			&& 
; 603  : 			(
; 604  : 				BootEncStatus.ConfiguredEncryptedAreaStart != BootEncStatus.EncryptedAreaStart
; 605  : 				|| BootEncStatus.ConfiguredEncryptedAreaEnd != BootEncStatus.EncryptedAreaEnd
; 606  : 			)
; 607  : 		)
; 608  : 	);

  000cc	b8 01 00 00 00	 mov	 eax, 1

; 609  : }

  000d1	8b 4d f4	 mov	 ecx, DWORD PTR __$EHRec$[ebp+4]
  000d4	64 89 0d 00 00
	00 00		 mov	 DWORD PTR fs:0, ecx
  000db	59		 pop	 ecx
  000dc	5f		 pop	 edi
  000dd	5e		 pop	 esi
  000de	5b		 pop	 ebx
  000df	8b e5		 mov	 esp, ebp
  000e1	5d		 pop	 ebp
  000e2	c3		 ret	 0
_TEXT	ENDS
;	COMDAT text$x
text$x	SEGMENT
__ehhandler$?SysEncryptionOrDecryptionRequired@@YAHXZ:
  00000	8b 54 24 08	 mov	 edx, DWORD PTR [esp+8]
  00004	8d 42 0c	 lea	 eax, DWORD PTR [edx+12]
  00007	8b 4a 88	 mov	 ecx, DWORD PTR [edx-120]
  0000a	33 c8		 xor	 ecx, eax
  0000c	e8 00 00 00 00	 call	 @__security_check_cookie@4
  00011	b8 00 00 00 00	 mov	 eax, OFFSET __ehfuncinfo$?SysEncryptionOrDecryptionRequired@@YAHXZ
  00016	e9 00 00 00 00	 jmp	 ___CxxFrameHandler3
text$x	ENDS
?SysEncryptionOrDecryptionRequired@@YAHXZ ENDP		; SysEncryptionOrDecryptionRequired
;	COMDAT xdata$x
xdata$x	SEGMENT
__catchsym$?SysDriveOrPartitionFullyEncrypted@@YAHH@Z$2 DD 08H
	DD	FLAT:??_R0?AUException@CipherShed@@@8
	DD	0ffffffecH
	DD	FLAT:__catch$?SysDriveOrPartitionFullyEncrypted@@YAHH@Z$0
__unwindtable$?SysDriveOrPartitionFullyEncrypted@@YAHH@Z DD 0ffffffffH
	DD	00H
	DD	0ffffffffH
	DD	00H
__tryblocktable$?SysDriveOrPartitionFullyEncrypted@@YAHH@Z DD 00H
	DD	00H
	DD	01H
	DD	01H
	DD	FLAT:__catchsym$?SysDriveOrPartitionFullyEncrypted@@YAHH@Z$2
__ehfuncinfo$?SysDriveOrPartitionFullyEncrypted@@YAHH@Z DD 019930522H
	DD	02H
	DD	FLAT:__unwindtable$?SysDriveOrPartitionFullyEncrypted@@YAHH@Z
	DD	01H
	DD	FLAT:__tryblocktable$?SysDriveOrPartitionFullyEncrypted@@YAHH@Z
	DD	2 DUP(00H)
	DD	00H
	DD	01H
; Function compile flags: /Ogtpy
xdata$x	ENDS
;	COMDAT ?SysDriveOrPartitionFullyEncrypted@@YAHH@Z
_TEXT	SEGMENT
$T150411 = -114						; size = 94
_e$135885 = -20						; size = 4
__$EHRec$ = -16						; size = 16
_bSilent$ = 8						; size = 4
?SysDriveOrPartitionFullyEncrypted@@YAHH@Z PROC		; SysDriveOrPartitionFullyEncrypted, COMDAT

; 613  : {

  00000	55		 push	 ebp
  00001	8b ec		 mov	 ebp, esp
  00003	6a ff		 push	 -1
  00005	68 00 00 00 00	 push	 __ehhandler$?SysDriveOrPartitionFullyEncrypted@@YAHH@Z
  0000a	64 a1 00 00 00
	00		 mov	 eax, DWORD PTR fs:0
  00010	50		 push	 eax
  00011	83 ec 68	 sub	 esp, 104		; 00000068H
  00014	53		 push	 ebx
  00015	56		 push	 esi
  00016	57		 push	 edi
  00017	a1 00 00 00 00	 mov	 eax, DWORD PTR ___security_cookie
  0001c	33 c5		 xor	 eax, ebp
  0001e	50		 push	 eax
  0001f	8d 45 f4	 lea	 eax, DWORD PTR __$EHRec$[ebp+4]
  00022	64 a3 00 00 00
	00		 mov	 DWORD PTR fs:0, eax
  00028	89 65 f0	 mov	 DWORD PTR __$EHRec$[ebp], esp

; 614  : 	/* If you update this function, revise SysDriveOrPartitionFullyEncrypted() in Tcformat.c as well. */
; 615  : 
; 616  : 	try
; 617  : 	{
; 618  : 		BootEncStatus = BootEncObj->GetStatus();

  0002b	8b 0d 00 00 00
	00		 mov	 ecx, DWORD PTR ?BootEncObj@@3PAVBootEncryption@CipherShed@@A ; BootEncObj
  00031	8d 45 8e	 lea	 eax, DWORD PTR $T150411[ebp]
  00034	50		 push	 eax
  00035	c7 45 fc 00 00
	00 00		 mov	 DWORD PTR __$EHRec$[ebp+12], 0
  0003c	e8 00 00 00 00	 call	 ?GetStatus@BootEncryption@CipherShed@@QAE?AUBootEncryptionStatus@@XZ ; CipherShed::BootEncryption::GetStatus
  00041	b9 17 00 00 00	 mov	 ecx, 23			; 00000017H
  00046	8b f0		 mov	 esi, eax
  00048	bf 00 00 00 00	 mov	 edi, OFFSET ?BootEncStatus@@3UBootEncryptionStatus@@A ; BootEncStatus
  0004d	f3 a5		 rep movsd
  0004f	66 a5		 movsw
$LN10@SysDriveOr:

; 625  : 
; 626  : 	return (!BootEncStatus.SetupInProgress
; 627  : 		&& BootEncStatus.ConfiguredEncryptedAreaEnd != 0
; 628  : 		&& BootEncStatus.ConfiguredEncryptedAreaEnd != -1
; 629  : 		&& BootEncStatus.ConfiguredEncryptedAreaStart == BootEncStatus.EncryptedAreaStart
; 630  : 		&& BootEncStatus.ConfiguredEncryptedAreaEnd == BootEncStatus.EncryptedAreaEnd);

  00051	83 3d 3e 00 00
	00 00		 cmp	 DWORD PTR ?BootEncStatus@@3UBootEncryptionStatus@@A+62, 0
  00058	75 78		 jne	 SHORT $LN5@SysDriveOr
  0005a	a1 22 00 00 00	 mov	 eax, DWORD PTR ?BootEncStatus@@3UBootEncryptionStatus@@A+34
  0005f	8b 0d 26 00 00
	00		 mov	 ecx, DWORD PTR ?BootEncStatus@@3UBootEncryptionStatus@@A+38
  00065	8b d0		 mov	 edx, eax
  00067	0b d1		 or	 edx, ecx
  00069	74 67		 je	 SHORT $LN5@SysDriveOr
  0006b	8b d0		 mov	 edx, eax
  0006d	23 d1		 and	 edx, ecx
  0006f	83 fa ff	 cmp	 edx, -1
  00072	74 5e		 je	 SHORT $LN5@SysDriveOr
  00074	8b 15 1a 00 00
	00		 mov	 edx, DWORD PTR ?BootEncStatus@@3UBootEncryptionStatus@@A+26
  0007a	3b 15 2a 00 00
	00		 cmp	 edx, DWORD PTR ?BootEncStatus@@3UBootEncryptionStatus@@A+42
  00080	75 50		 jne	 SHORT $LN5@SysDriveOr
  00082	8b 15 1e 00 00
	00		 mov	 edx, DWORD PTR ?BootEncStatus@@3UBootEncryptionStatus@@A+30
  00088	3b 15 2e 00 00
	00		 cmp	 edx, DWORD PTR ?BootEncStatus@@3UBootEncryptionStatus@@A+46
  0008e	75 42		 jne	 SHORT $LN5@SysDriveOr
  00090	3b 05 32 00 00
	00		 cmp	 eax, DWORD PTR ?BootEncStatus@@3UBootEncryptionStatus@@A+50
  00096	75 3a		 jne	 SHORT $LN5@SysDriveOr
  00098	3b 0d 36 00 00
	00		 cmp	 ecx, DWORD PTR ?BootEncStatus@@3UBootEncryptionStatus@@A+54
  0009e	75 32		 jne	 SHORT $LN5@SysDriveOr
  000a0	b8 01 00 00 00	 mov	 eax, 1

; 631  : }

  000a5	8b 4d f4	 mov	 ecx, DWORD PTR __$EHRec$[ebp+4]
  000a8	64 89 0d 00 00
	00 00		 mov	 DWORD PTR fs:0, ecx
  000af	59		 pop	 ecx
  000b0	5f		 pop	 edi
  000b1	5e		 pop	 esi
  000b2	5b		 pop	 ebx
  000b3	8b e5		 mov	 esp, ebp
  000b5	5d		 pop	 ebp
  000b6	c3		 ret	 0
__catch$?SysDriveOrPartitionFullyEncrypted@@YAHH@Z$0:

; 619  : 	}
; 620  : 	catch (Exception &e)
; 621  : 	{
; 622  : 		if (!bSilent)

  000b7	83 7d 08 00	 cmp	 DWORD PTR _bSilent$[ebp], 0
  000bb	75 0f		 jne	 SHORT $LN1@SysDriveOr

; 623  : 			e.Show (MainDlg);

  000bd	8b 4d ec	 mov	 ecx, DWORD PTR _e$135885[ebp]
  000c0	8b 11		 mov	 edx, DWORD PTR [ecx]
  000c2	a1 00 00 00 00	 mov	 eax, DWORD PTR _MainDlg
  000c7	8b 12		 mov	 edx, DWORD PTR [edx]
  000c9	50		 push	 eax
  000ca	ff d2		 call	 edx
$LN1@SysDriveOr:

; 624  : 	}

  000cc	b8 00 00 00 00	 mov	 eax, $LN10@SysDriveOr
  000d1	c3		 ret	 0
$LN5@SysDriveOr:

; 625  : 
; 626  : 	return (!BootEncStatus.SetupInProgress
; 627  : 		&& BootEncStatus.ConfiguredEncryptedAreaEnd != 0
; 628  : 		&& BootEncStatus.ConfiguredEncryptedAreaEnd != -1
; 629  : 		&& BootEncStatus.ConfiguredEncryptedAreaStart == BootEncStatus.EncryptedAreaStart
; 630  : 		&& BootEncStatus.ConfiguredEncryptedAreaEnd == BootEncStatus.EncryptedAreaEnd);

  000d2	33 c0		 xor	 eax, eax

; 631  : }

  000d4	8b 4d f4	 mov	 ecx, DWORD PTR __$EHRec$[ebp+4]
  000d7	64 89 0d 00 00
	00 00		 mov	 DWORD PTR fs:0, ecx
  000de	59		 pop	 ecx
  000df	5f		 pop	 edi
  000e0	5e		 pop	 esi
  000e1	5b		 pop	 ebx
  000e2	8b e5		 mov	 esp, ebp
  000e4	5d		 pop	 ebp
  000e5	c3		 ret	 0
_TEXT	ENDS
;	COMDAT text$x
text$x	SEGMENT
__ehhandler$?SysDriveOrPartitionFullyEncrypted@@YAHH@Z:
  00000	8b 54 24 08	 mov	 edx, DWORD PTR [esp+8]
  00004	8d 42 0c	 lea	 eax, DWORD PTR [edx+12]
  00007	8b 4a 88	 mov	 ecx, DWORD PTR [edx-120]
  0000a	33 c8		 xor	 ecx, eax
  0000c	e8 00 00 00 00	 call	 @__security_check_cookie@4
  00011	b8 00 00 00 00	 mov	 eax, OFFSET __ehfuncinfo$?SysDriveOrPartitionFullyEncrypted@@YAHH@Z
  00016	e9 00 00 00 00	 jmp	 ___CxxFrameHandler3
text$x	ENDS
?SysDriveOrPartitionFullyEncrypted@@YAHH@Z ENDP		; SysDriveOrPartitionFullyEncrypted
;	COMDAT xdata$x
xdata$x	SEGMENT
__catchsym$?SysEncDeviceActive@@YAHH@Z$2 DD 08H
	DD	FLAT:??_R0?AUException@CipherShed@@@8
	DD	0ffffffecH
	DD	FLAT:__catch$?SysEncDeviceActive@@YAHH@Z$0
__unwindtable$?SysEncDeviceActive@@YAHH@Z DD 0ffffffffH
	DD	00H
	DD	0ffffffffH
	DD	00H
__tryblocktable$?SysEncDeviceActive@@YAHH@Z DD 00H
	DD	00H
	DD	01H
	DD	01H
	DD	FLAT:__catchsym$?SysEncDeviceActive@@YAHH@Z$2
__ehfuncinfo$?SysEncDeviceActive@@YAHH@Z DD 019930522H
	DD	02H
	DD	FLAT:__unwindtable$?SysEncDeviceActive@@YAHH@Z
	DD	01H
	DD	FLAT:__tryblocktable$?SysEncDeviceActive@@YAHH@Z
	DD	2 DUP(00H)
	DD	00H
	DD	01H
; Function compile flags: /Ogtpy
xdata$x	ENDS
;	COMDAT ?SysEncDeviceActive@@YAHH@Z
_TEXT	SEGMENT
$T150429 = -114						; size = 94
_e$135892 = -20						; size = 4
__$EHRec$ = -16						; size = 16
_bSilent$ = 8						; size = 4
?SysEncDeviceActive@@YAHH@Z PROC			; SysEncDeviceActive, COMDAT

; 637  : {

  00000	55		 push	 ebp
  00001	8b ec		 mov	 ebp, esp
  00003	6a ff		 push	 -1
  00005	68 00 00 00 00	 push	 __ehhandler$?SysEncDeviceActive@@YAHH@Z
  0000a	64 a1 00 00 00
	00		 mov	 eax, DWORD PTR fs:0
  00010	50		 push	 eax
  00011	83 ec 68	 sub	 esp, 104		; 00000068H
  00014	53		 push	 ebx
  00015	56		 push	 esi
  00016	57		 push	 edi
  00017	a1 00 00 00 00	 mov	 eax, DWORD PTR ___security_cookie
  0001c	33 c5		 xor	 eax, ebp
  0001e	50		 push	 eax
  0001f	8d 45 f4	 lea	 eax, DWORD PTR __$EHRec$[ebp+4]
  00022	64 a3 00 00 00
	00		 mov	 DWORD PTR fs:0, eax
  00028	89 65 f0	 mov	 DWORD PTR __$EHRec$[ebp], esp

; 638  : 	try
; 639  : 	{
; 640  : 		BootEncStatus = BootEncObj->GetStatus();

  0002b	8b 0d 00 00 00
	00		 mov	 ecx, DWORD PTR ?BootEncObj@@3PAVBootEncryption@CipherShed@@A ; BootEncObj
  00031	8d 45 8e	 lea	 eax, DWORD PTR $T150429[ebp]
  00034	50		 push	 eax
  00035	c7 45 fc 00 00
	00 00		 mov	 DWORD PTR __$EHRec$[ebp+12], 0
  0003c	e8 00 00 00 00	 call	 ?GetStatus@BootEncryption@CipherShed@@QAE?AUBootEncryptionStatus@@XZ ; CipherShed::BootEncryption::GetStatus
  00041	8b f0		 mov	 esi, eax
  00043	b9 17 00 00 00	 mov	 ecx, 23			; 00000017H
  00048	bf 00 00 00 00	 mov	 edi, OFFSET ?BootEncStatus@@3UBootEncryptionStatus@@A ; BootEncStatus
  0004d	f3 a5		 rep movsd
  0004f	66 a5		 movsw

; 648  : 	}
; 649  : 
; 650  : 	return (BootEncStatus.DriveMounted);

  00051	a1 06 00 00 00	 mov	 eax, DWORD PTR ?BootEncStatus@@3UBootEncryptionStatus@@A+6

; 651  : }

  00056	8b 4d f4	 mov	 ecx, DWORD PTR __$EHRec$[ebp+4]
  00059	64 89 0d 00 00
	00 00		 mov	 DWORD PTR fs:0, ecx
  00060	59		 pop	 ecx
  00061	5f		 pop	 edi
  00062	5e		 pop	 esi
  00063	5b		 pop	 ebx
  00064	8b e5		 mov	 esp, ebp
  00066	5d		 pop	 ebp
  00067	c3		 ret	 0
__catch$?SysEncDeviceActive@@YAHH@Z$0:

; 641  : 	}
; 642  : 	catch (Exception &e)
; 643  : 	{
; 644  : 		if (!bSilent)

  00068	83 7d 08 00	 cmp	 DWORD PTR _bSilent$[ebp], 0
  0006c	75 0f		 jne	 SHORT $LN1@SysEncDevi

; 645  : 			e.Show (MainDlg);

  0006e	8b 4d ec	 mov	 ecx, DWORD PTR _e$135892[ebp]
  00071	8b 11		 mov	 edx, DWORD PTR [ecx]
  00073	a1 00 00 00 00	 mov	 eax, DWORD PTR _MainDlg
  00078	8b 12		 mov	 edx, DWORD PTR [edx]
  0007a	50		 push	 eax
  0007b	ff d2		 call	 edx
$LN1@SysEncDevi:

; 646  : 
; 647  : 		return FALSE;

  0007d	b8 00 00 00 00	 mov	 eax, $LN8@SysEncDevi
  00082	c3		 ret	 0
$LN8@SysEncDevi:
  00083	33 c0		 xor	 eax, eax

; 651  : }

  00085	8b 4d f4	 mov	 ecx, DWORD PTR __$EHRec$[ebp+4]
  00088	64 89 0d 00 00
	00 00		 mov	 DWORD PTR fs:0, ecx
  0008f	59		 pop	 ecx
  00090	5f		 pop	 edi
  00091	5e		 pop	 esi
  00092	5b		 pop	 ebx
  00093	8b e5		 mov	 esp, ebp
  00095	5d		 pop	 ebp
  00096	c3		 ret	 0
_TEXT	ENDS
;	COMDAT text$x
text$x	SEGMENT
__ehhandler$?SysEncDeviceActive@@YAHH@Z:
  00000	8b 54 24 08	 mov	 edx, DWORD PTR [esp+8]
  00004	8d 42 0c	 lea	 eax, DWORD PTR [edx+12]
  00007	8b 4a 88	 mov	 ecx, DWORD PTR [edx-120]
  0000a	33 c8		 xor	 ecx, eax
  0000c	e8 00 00 00 00	 call	 @__security_check_cookie@4
  00011	b8 00 00 00 00	 mov	 eax, OFFSET __ehfuncinfo$?SysEncDeviceActive@@YAHH@Z
  00016	e9 00 00 00 00	 jmp	 ___CxxFrameHandler3
text$x	ENDS
?SysEncDeviceActive@@YAHH@Z ENDP			; SysEncDeviceActive
PUBLIC	_WholeSysDriveEncryption
;	COMDAT xdata$x
xdata$x	SEGMENT
__catchsym$_WholeSysDriveEncryption$2 DD 08H
	DD	FLAT:??_R0?AUException@CipherShed@@@8
	DD	0ffffffecH
	DD	FLAT:__catch$_WholeSysDriveEncryption$0
__unwindtable$_WholeSysDriveEncryption DD 0ffffffffH
	DD	00H
	DD	0ffffffffH
	DD	00H
__tryblocktable$_WholeSysDriveEncryption DD 00H
	DD	00H
	DD	01H
	DD	01H
	DD	FLAT:__catchsym$_WholeSysDriveEncryption$2
__ehfuncinfo$_WholeSysDriveEncryption DD 019930522H
	DD	02H
	DD	FLAT:__unwindtable$_WholeSysDriveEncryption
	DD	01H
	DD	FLAT:__tryblocktable$_WholeSysDriveEncryption
	DD	2 DUP(00H)
	DD	00H
	DD	01H
; Function compile flags: /Ogtpy
xdata$x	ENDS
;	COMDAT _WholeSysDriveEncryption
_TEXT	SEGMENT
$T150445 = -114						; size = 94
_e$135900 = -20						; size = 4
__$EHRec$ = -16						; size = 16
_bSilent$ = 8						; size = 4
_WholeSysDriveEncryption PROC				; COMDAT

; 655  : {

  00000	55		 push	 ebp
  00001	8b ec		 mov	 ebp, esp
  00003	6a ff		 push	 -1
  00005	68 00 00 00 00	 push	 __ehhandler$_WholeSysDriveEncryption
  0000a	64 a1 00 00 00
	00		 mov	 eax, DWORD PTR fs:0
  00010	50		 push	 eax
  00011	83 ec 68	 sub	 esp, 104		; 00000068H
  00014	53		 push	 ebx
  00015	56		 push	 esi
  00016	57		 push	 edi
  00017	a1 00 00 00 00	 mov	 eax, DWORD PTR ___security_cookie
  0001c	33 c5		 xor	 eax, ebp
  0001e	50		 push	 eax
  0001f	8d 45 f4	 lea	 eax, DWORD PTR __$EHRec$[ebp+4]
  00022	64 a3 00 00 00
	00		 mov	 DWORD PTR fs:0, eax
  00028	89 65 f0	 mov	 DWORD PTR __$EHRec$[ebp], esp

; 656  : 	try
; 657  : 	{
; 658  : 		BootEncStatus = BootEncObj->GetStatus();

  0002b	8b 0d 00 00 00
	00		 mov	 ecx, DWORD PTR ?BootEncObj@@3PAVBootEncryption@CipherShed@@A ; BootEncObj
  00031	8d 45 8e	 lea	 eax, DWORD PTR $T150445[ebp]
  00034	50		 push	 eax
  00035	c7 45 fc 00 00
	00 00		 mov	 DWORD PTR __$EHRec$[ebp+12], 0
  0003c	e8 00 00 00 00	 call	 ?GetStatus@BootEncryption@CipherShed@@QAE?AUBootEncryptionStatus@@XZ ; CipherShed::BootEncryption::GetStatus
  00041	b9 17 00 00 00	 mov	 ecx, 23			; 00000017H
  00046	8b f0		 mov	 esi, eax
  00048	bf 00 00 00 00	 mov	 edi, OFFSET ?BootEncStatus@@3UBootEncryptionStatus@@A ; BootEncStatus
  0004d	f3 a5		 rep movsd
  0004f	66 a5		 movsw

; 659  : 
; 660  : 		return (BootEncStatus.ConfiguredEncryptedAreaStart == TC_BOOT_LOADER_AREA_SIZE
; 661  : 			&& BootEncStatus.ConfiguredEncryptedAreaEnd >= BootEncStatus.BootDriveLength.QuadPart - 1);

  00051	81 3d 1a 00 00
	00 00 7e 00 00	 cmp	 DWORD PTR ?BootEncStatus@@3UBootEncryptionStatus@@A+26, 32256 ; 00007e00H
  0005b	75 61		 jne	 SHORT $LN10@WholeSysDr
  0005d	83 3d 1e 00 00
	00 00		 cmp	 DWORD PTR ?BootEncStatus@@3UBootEncryptionStatus@@A+30, 0
  00064	75 58		 jne	 SHORT $LN10@WholeSysDr
  00066	8b 0d 12 00 00
	00		 mov	 ecx, DWORD PTR ?BootEncStatus@@3UBootEncryptionStatus@@A+18
  0006c	a1 16 00 00 00	 mov	 eax, DWORD PTR ?BootEncStatus@@3UBootEncryptionStatus@@A+22
  00071	8b 15 26 00 00
	00		 mov	 edx, DWORD PTR ?BootEncStatus@@3UBootEncryptionStatus@@A+38
  00077	83 e9 01	 sub	 ecx, 1
  0007a	83 d8 00	 sbb	 eax, 0
  0007d	3b d0		 cmp	 edx, eax
  0007f	7c 3d		 jl	 SHORT $LN10@WholeSysDr
  00081	7f 09		 jg	 SHORT $LN12@WholeSysDr
  00083	a1 22 00 00 00	 mov	 eax, DWORD PTR ?BootEncStatus@@3UBootEncryptionStatus@@A+34
  00088	3b c1		 cmp	 eax, ecx
  0008a	72 32		 jb	 SHORT $LN10@WholeSysDr
$LN12@WholeSysDr:
  0008c	b8 01 00 00 00	 mov	 eax, 1

; 669  : 	}
; 670  : }

  00091	8b 4d f4	 mov	 ecx, DWORD PTR __$EHRec$[ebp+4]
  00094	64 89 0d 00 00
	00 00		 mov	 DWORD PTR fs:0, ecx
  0009b	59		 pop	 ecx
  0009c	5f		 pop	 edi
  0009d	5e		 pop	 esi
  0009e	5b		 pop	 ebx
  0009f	8b e5		 mov	 esp, ebp
  000a1	5d		 pop	 ebp
  000a2	c3		 ret	 0
__catch$_WholeSysDriveEncryption$0:

; 662  : 	}
; 663  : 	catch (Exception &e)
; 664  : 	{
; 665  : 		if (!bSilent)

  000a3	83 7d 08 00	 cmp	 DWORD PTR _bSilent$[ebp], 0
  000a7	75 0f		 jne	 SHORT $LN1@WholeSysDr

; 666  : 			e.Show (MainDlg);

  000a9	8b 4d ec	 mov	 ecx, DWORD PTR _e$135900[ebp]
  000ac	8b 11		 mov	 edx, DWORD PTR [ecx]
  000ae	a1 00 00 00 00	 mov	 eax, DWORD PTR _MainDlg
  000b3	8b 12		 mov	 edx, DWORD PTR [edx]
  000b5	50		 push	 eax
  000b6	ff d2		 call	 edx
$LN1@WholeSysDr:

; 667  : 
; 668  : 		return FALSE;

  000b8	b8 00 00 00 00	 mov	 eax, $LN10@WholeSysDr
  000bd	c3		 ret	 0
$LN10@WholeSysDr:
  000be	33 c0		 xor	 eax, eax

; 669  : 	}
; 670  : }

  000c0	8b 4d f4	 mov	 ecx, DWORD PTR __$EHRec$[ebp+4]
  000c3	64 89 0d 00 00
	00 00		 mov	 DWORD PTR fs:0, ecx
  000ca	59		 pop	 ecx
  000cb	5f		 pop	 edi
  000cc	5e		 pop	 esi
  000cd	5b		 pop	 ebx
  000ce	8b e5		 mov	 esp, ebp
  000d0	5d		 pop	 ebp
  000d1	c3		 ret	 0
_TEXT	ENDS
;	COMDAT text$x
text$x	SEGMENT
__ehhandler$_WholeSysDriveEncryption:
  00000	8b 54 24 08	 mov	 edx, DWORD PTR [esp+8]
  00004	8d 42 0c	 lea	 eax, DWORD PTR [edx+12]
  00007	8b 4a 88	 mov	 ecx, DWORD PTR [edx-120]
  0000a	33 c8		 xor	 ecx, eax
  0000c	e8 00 00 00 00	 call	 @__security_check_cookie@4
  00011	b8 00 00 00 00	 mov	 eax, OFFSET __ehfuncinfo$_WholeSysDriveEncryption
  00016	e9 00 00 00 00	 jmp	 ___CxxFrameHandler3
text$x	ENDS
_WholeSysDriveEncryption ENDP
PUBLIC	?GetSysEncDeviceSize@@YA_KH@Z			; GetSysEncDeviceSize
;	COMDAT xdata$x
xdata$x	SEGMENT
__catchsym$?GetSysEncDeviceSize@@YA_KH@Z$2 DD 08H
	DD	FLAT:??_R0?AUException@CipherShed@@@8
	DD	0ffffffecH
	DD	FLAT:__catch$?GetSysEncDeviceSize@@YA_KH@Z$0
__unwindtable$?GetSysEncDeviceSize@@YA_KH@Z DD 0ffffffffH
	DD	00H
	DD	0ffffffffH
	DD	00H
__tryblocktable$?GetSysEncDeviceSize@@YA_KH@Z DD 00H
	DD	00H
	DD	01H
	DD	01H
	DD	FLAT:__catchsym$?GetSysEncDeviceSize@@YA_KH@Z$2
__ehfuncinfo$?GetSysEncDeviceSize@@YA_KH@Z DD 019930522H
	DD	02H
	DD	FLAT:__unwindtable$?GetSysEncDeviceSize@@YA_KH@Z
	DD	01H
	DD	FLAT:__tryblocktable$?GetSysEncDeviceSize@@YA_KH@Z
	DD	2 DUP(00H)
	DD	00H
	DD	01H
; Function compile flags: /Ogtpy
xdata$x	ENDS
;	COMDAT ?GetSysEncDeviceSize@@YA_KH@Z
_TEXT	SEGMENT
$T150464 = -114						; size = 94
_e$135908 = -20						; size = 4
__$EHRec$ = -16						; size = 16
_bSilent$ = 8						; size = 4
?GetSysEncDeviceSize@@YA_KH@Z PROC			; GetSysEncDeviceSize, COMDAT

; 674  : {

  00000	55		 push	 ebp
  00001	8b ec		 mov	 ebp, esp
  00003	6a ff		 push	 -1
  00005	68 00 00 00 00	 push	 __ehhandler$?GetSysEncDeviceSize@@YA_KH@Z
  0000a	64 a1 00 00 00
	00		 mov	 eax, DWORD PTR fs:0
  00010	50		 push	 eax
  00011	83 ec 68	 sub	 esp, 104		; 00000068H
  00014	53		 push	 ebx
  00015	56		 push	 esi
  00016	57		 push	 edi
  00017	a1 00 00 00 00	 mov	 eax, DWORD PTR ___security_cookie
  0001c	33 c5		 xor	 eax, ebp
  0001e	50		 push	 eax
  0001f	8d 45 f4	 lea	 eax, DWORD PTR __$EHRec$[ebp+4]
  00022	64 a3 00 00 00
	00		 mov	 DWORD PTR fs:0, eax
  00028	89 65 f0	 mov	 DWORD PTR __$EHRec$[ebp], esp

; 675  : 	try
; 676  : 	{
; 677  : 		BootEncStatus = BootEncObj->GetStatus();

  0002b	8b 0d 00 00 00
	00		 mov	 ecx, DWORD PTR ?BootEncObj@@3PAVBootEncryption@CipherShed@@A ; BootEncObj
  00031	8d 45 8e	 lea	 eax, DWORD PTR $T150464[ebp]
  00034	50		 push	 eax
  00035	c7 45 fc 00 00
	00 00		 mov	 DWORD PTR __$EHRec$[ebp+12], 0
  0003c	e8 00 00 00 00	 call	 ?GetStatus@BootEncryption@CipherShed@@QAE?AUBootEncryptionStatus@@XZ ; CipherShed::BootEncryption::GetStatus
  00041	b9 17 00 00 00	 mov	 ecx, 23			; 00000017H
  00046	8b f0		 mov	 esi, eax
  00048	bf 00 00 00 00	 mov	 edi, OFFSET ?BootEncStatus@@3UBootEncryptionStatus@@A ; BootEncStatus
  0004d	f3 a5		 rep movsd
  0004f	66 a5		 movsw
$LN8@GetSysEncD:

; 684  : 
; 685  : 	return (BootEncStatus.ConfiguredEncryptedAreaEnd - BootEncStatus.ConfiguredEncryptedAreaStart + 1);

  00051	a1 22 00 00 00	 mov	 eax, DWORD PTR ?BootEncStatus@@3UBootEncryptionStatus@@A+34
  00056	2b 05 1a 00 00
	00		 sub	 eax, DWORD PTR ?BootEncStatus@@3UBootEncryptionStatus@@A+26
  0005c	8b 15 26 00 00
	00		 mov	 edx, DWORD PTR ?BootEncStatus@@3UBootEncryptionStatus@@A+38
  00062	1b 15 1e 00 00
	00		 sbb	 edx, DWORD PTR ?BootEncStatus@@3UBootEncryptionStatus@@A+30
  00068	83 c0 01	 add	 eax, 1
  0006b	83 d2 00	 adc	 edx, 0

; 686  : }

  0006e	8b 4d f4	 mov	 ecx, DWORD PTR __$EHRec$[ebp+4]
  00071	64 89 0d 00 00
	00 00		 mov	 DWORD PTR fs:0, ecx
  00078	59		 pop	 ecx
  00079	5f		 pop	 edi
  0007a	5e		 pop	 esi
  0007b	5b		 pop	 ebx
  0007c	8b e5		 mov	 esp, ebp
  0007e	5d		 pop	 ebp
  0007f	c3		 ret	 0
__catch$?GetSysEncDeviceSize@@YA_KH@Z$0:

; 678  : 	}
; 679  : 	catch (Exception &e)
; 680  : 	{
; 681  : 		if (!bSilent)

  00080	83 7d 08 00	 cmp	 DWORD PTR _bSilent$[ebp], 0
  00084	75 0f		 jne	 SHORT $LN1@GetSysEncD

; 682  : 			e.Show (MainDlg);

  00086	8b 4d ec	 mov	 ecx, DWORD PTR _e$135908[ebp]
  00089	8b 11		 mov	 edx, DWORD PTR [ecx]
  0008b	a1 00 00 00 00	 mov	 eax, DWORD PTR _MainDlg
  00090	8b 12		 mov	 edx, DWORD PTR [edx]
  00092	50		 push	 eax
  00093	ff d2		 call	 edx
$LN1@GetSysEncD:

; 683  : 	}

  00095	b8 00 00 00 00	 mov	 eax, $LN8@GetSysEncD
  0009a	c3		 ret	 0
_TEXT	ENDS
;	COMDAT text$x
text$x	SEGMENT
__ehhandler$?GetSysEncDeviceSize@@YA_KH@Z:
  00000	8b 54 24 08	 mov	 edx, DWORD PTR [esp+8]
  00004	8d 42 0c	 lea	 eax, DWORD PTR [edx+12]
  00007	8b 4a 88	 mov	 ecx, DWORD PTR [edx-120]
  0000a	33 c8		 xor	 ecx, eax
  0000c	e8 00 00 00 00	 call	 @__security_check_cookie@4
  00011	b8 00 00 00 00	 mov	 eax, OFFSET __ehfuncinfo$?GetSysEncDeviceSize@@YA_KH@Z
  00016	e9 00 00 00 00	 jmp	 ___CxxFrameHandler3
text$x	ENDS
?GetSysEncDeviceSize@@YA_KH@Z ENDP			; GetSysEncDeviceSize
PUBLIC	?GetSysEncDeviceEncryptedPartSize@@YA_KH@Z	; GetSysEncDeviceEncryptedPartSize
;	COMDAT xdata$x
xdata$x	SEGMENT
__catchsym$?GetSysEncDeviceEncryptedPartSize@@YA_KH@Z$2 DD 08H
	DD	FLAT:??_R0?AUException@CipherShed@@@8
	DD	0ffffffecH
	DD	FLAT:__catch$?GetSysEncDeviceEncryptedPartSize@@YA_KH@Z$0
__unwindtable$?GetSysEncDeviceEncryptedPartSize@@YA_KH@Z DD 0ffffffffH
	DD	00H
	DD	0ffffffffH
	DD	00H
__tryblocktable$?GetSysEncDeviceEncryptedPartSize@@YA_KH@Z DD 00H
	DD	00H
	DD	01H
	DD	01H
	DD	FLAT:__catchsym$?GetSysEncDeviceEncryptedPartSize@@YA_KH@Z$2
__ehfuncinfo$?GetSysEncDeviceEncryptedPartSize@@YA_KH@Z DD 019930522H
	DD	02H
	DD	FLAT:__unwindtable$?GetSysEncDeviceEncryptedPartSize@@YA_KH@Z
	DD	01H
	DD	FLAT:__tryblocktable$?GetSysEncDeviceEncryptedPartSize@@YA_KH@Z
	DD	2 DUP(00H)
	DD	00H
	DD	01H
; Function compile flags: /Ogtpy
xdata$x	ENDS
;	COMDAT ?GetSysEncDeviceEncryptedPartSize@@YA_KH@Z
_TEXT	SEGMENT
$T150480 = -114						; size = 94
_e$135915 = -20						; size = 4
__$EHRec$ = -16						; size = 16
_bSilent$ = 8						; size = 4
?GetSysEncDeviceEncryptedPartSize@@YA_KH@Z PROC		; GetSysEncDeviceEncryptedPartSize, COMDAT

; 690  : {

  00000	55		 push	 ebp
  00001	8b ec		 mov	 ebp, esp
  00003	6a ff		 push	 -1
  00005	68 00 00 00 00	 push	 __ehhandler$?GetSysEncDeviceEncryptedPartSize@@YA_KH@Z
  0000a	64 a1 00 00 00
	00		 mov	 eax, DWORD PTR fs:0
  00010	50		 push	 eax
  00011	83 ec 68	 sub	 esp, 104		; 00000068H
  00014	53		 push	 ebx
  00015	56		 push	 esi
  00016	57		 push	 edi
  00017	a1 00 00 00 00	 mov	 eax, DWORD PTR ___security_cookie
  0001c	33 c5		 xor	 eax, ebp
  0001e	50		 push	 eax
  0001f	8d 45 f4	 lea	 eax, DWORD PTR __$EHRec$[ebp+4]
  00022	64 a3 00 00 00
	00		 mov	 DWORD PTR fs:0, eax
  00028	89 65 f0	 mov	 DWORD PTR __$EHRec$[ebp], esp

; 691  : 	try
; 692  : 	{
; 693  : 		BootEncStatus = BootEncObj->GetStatus();

  0002b	8b 0d 00 00 00
	00		 mov	 ecx, DWORD PTR ?BootEncObj@@3PAVBootEncryption@CipherShed@@A ; BootEncObj
  00031	8d 45 8e	 lea	 eax, DWORD PTR $T150480[ebp]
  00034	50		 push	 eax
  00035	c7 45 fc 00 00
	00 00		 mov	 DWORD PTR __$EHRec$[ebp+12], 0
  0003c	e8 00 00 00 00	 call	 ?GetStatus@BootEncryption@CipherShed@@QAE?AUBootEncryptionStatus@@XZ ; CipherShed::BootEncryption::GetStatus
  00041	b9 17 00 00 00	 mov	 ecx, 23			; 00000017H
  00046	8b f0		 mov	 esi, eax
  00048	bf 00 00 00 00	 mov	 edi, OFFSET ?BootEncStatus@@3UBootEncryptionStatus@@A ; BootEncStatus
  0004d	f3 a5		 rep movsd
  0004f	66 a5		 movsw
$LN8@GetSysEncD@2:

; 700  : 
; 701  : 	return (BootEncStatus.EncryptedAreaEnd - BootEncStatus.EncryptedAreaStart + 1);

  00051	a1 32 00 00 00	 mov	 eax, DWORD PTR ?BootEncStatus@@3UBootEncryptionStatus@@A+50
  00056	2b 05 2a 00 00
	00		 sub	 eax, DWORD PTR ?BootEncStatus@@3UBootEncryptionStatus@@A+42
  0005c	8b 15 36 00 00
	00		 mov	 edx, DWORD PTR ?BootEncStatus@@3UBootEncryptionStatus@@A+54
  00062	1b 15 2e 00 00
	00		 sbb	 edx, DWORD PTR ?BootEncStatus@@3UBootEncryptionStatus@@A+46
  00068	83 c0 01	 add	 eax, 1
  0006b	83 d2 00	 adc	 edx, 0

; 702  : }

  0006e	8b 4d f4	 mov	 ecx, DWORD PTR __$EHRec$[ebp+4]
  00071	64 89 0d 00 00
	00 00		 mov	 DWORD PTR fs:0, ecx
  00078	59		 pop	 ecx
  00079	5f		 pop	 edi
  0007a	5e		 pop	 esi
  0007b	5b		 pop	 ebx
  0007c	8b e5		 mov	 esp, ebp
  0007e	5d		 pop	 ebp
  0007f	c3		 ret	 0
__catch$?GetSysEncDeviceEncryptedPartSize@@YA_KH@Z$0:

; 694  : 	}
; 695  : 	catch (Exception &e)
; 696  : 	{
; 697  : 		if (!bSilent)

  00080	83 7d 08 00	 cmp	 DWORD PTR _bSilent$[ebp], 0
  00084	75 0f		 jne	 SHORT $LN1@GetSysEncD@2

; 698  : 			e.Show (MainDlg);

  00086	8b 4d ec	 mov	 ecx, DWORD PTR _e$135915[ebp]
  00089	8b 11		 mov	 edx, DWORD PTR [ecx]
  0008b	a1 00 00 00 00	 mov	 eax, DWORD PTR _MainDlg
  00090	8b 12		 mov	 edx, DWORD PTR [edx]
  00092	50		 push	 eax
  00093	ff d2		 call	 edx
$LN1@GetSysEncD@2:

; 699  : 	}

  00095	b8 00 00 00 00	 mov	 eax, $LN8@GetSysEncD@2
  0009a	c3		 ret	 0
_TEXT	ENDS
;	COMDAT text$x
text$x	SEGMENT
__ehhandler$?GetSysEncDeviceEncryptedPartSize@@YA_KH@Z:
  00000	8b 54 24 08	 mov	 edx, DWORD PTR [esp+8]
  00004	8d 42 0c	 lea	 eax, DWORD PTR [edx+12]
  00007	8b 4a 88	 mov	 ecx, DWORD PTR [edx-120]
  0000a	33 c8		 xor	 ecx, eax
  0000c	e8 00 00 00 00	 call	 @__security_check_cookie@4
  00011	b8 00 00 00 00	 mov	 eax, OFFSET __ehfuncinfo$?GetSysEncDeviceEncryptedPartSize@@YA_KH@Z
  00016	e9 00 00 00 00	 jmp	 ___CxxFrameHandler3
text$x	ENDS
?GetSysEncDeviceEncryptedPartSize@@YA_KH@Z ENDP		; GetSysEncDeviceEncryptedPartSize
PUBLIC	??_C@_0BA@DJOMNFMG@IDPM_PROPERTIES?$AA@		; `string'
PUBLIC	??_C@_0BH@MNBOMCDE@IDM_VERIFY_RESCUE_DISK?$AA@	; `string'
PUBLIC	??_C@_0BH@MLCINLBO@IDM_CREATE_RESCUE_DISK?$AA@	; `string'
PUBLIC	??_C@_0BF@KPIIIAFE@IDM_SYS_ENC_SETTINGS?$AA@	; `string'
PUBLIC	??_C@_0CF@CAHOHCGA@IDM_CHANGE_SYS_HEADER_KEY_DERIV_@ ; `string'
PUBLIC	??_C@_0BI@CKBDIDDP@IDM_CHANGE_SYS_PASSWORD?$AA@	; `string'
PUBLIC	??_C@_07CAOFPAJK@ENCRYPT?$AA@			; `string'
PUBLIC	??_C@_0BE@NCCLMCDM@PERMANENTLY_DECRYPT?$AA@	; `string'
PUBLIC	??_C@_0BC@EGBHACCE@IDM_SYSENC_RESUME?$AA@	; `string'
EXTRN	__imp__AppendMenuA@16:PROC
EXTRN	__imp__AppendMenuW@16:PROC
EXTRN	_GetString:PROC
;	COMDAT ??_C@_0BA@DJOMNFMG@IDPM_PROPERTIES?$AA@
CONST	SEGMENT
??_C@_0BA@DJOMNFMG@IDPM_PROPERTIES?$AA@ DB 'IDPM_PROPERTIES', 00H ; `string'
CONST	ENDS
;	COMDAT ??_C@_0BH@MNBOMCDE@IDM_VERIFY_RESCUE_DISK?$AA@
CONST	SEGMENT
??_C@_0BH@MNBOMCDE@IDM_VERIFY_RESCUE_DISK?$AA@ DB 'IDM_VERIFY_RESCUE_DISK'
	DB	00H						; `string'
CONST	ENDS
;	COMDAT ??_C@_0BH@MLCINLBO@IDM_CREATE_RESCUE_DISK?$AA@
CONST	SEGMENT
??_C@_0BH@MLCINLBO@IDM_CREATE_RESCUE_DISK?$AA@ DB 'IDM_CREATE_RESCUE_DISK'
	DB	00H						; `string'
CONST	ENDS
;	COMDAT ??_C@_0BF@KPIIIAFE@IDM_SYS_ENC_SETTINGS?$AA@
CONST	SEGMENT
??_C@_0BF@KPIIIAFE@IDM_SYS_ENC_SETTINGS?$AA@ DB 'IDM_SYS_ENC_SETTINGS', 00H ; `string'
CONST	ENDS
;	COMDAT ??_C@_0CF@CAHOHCGA@IDM_CHANGE_SYS_HEADER_KEY_DERIV_@
CONST	SEGMENT
??_C@_0CF@CAHOHCGA@IDM_CHANGE_SYS_HEADER_KEY_DERIV_@ DB 'IDM_CHANGE_SYS_H'
	DB	'EADER_KEY_DERIV_ALGO', 00H			; `string'
CONST	ENDS
;	COMDAT ??_C@_0BI@CKBDIDDP@IDM_CHANGE_SYS_PASSWORD?$AA@
CONST	SEGMENT
??_C@_0BI@CKBDIDDP@IDM_CHANGE_SYS_PASSWORD?$AA@ DB 'IDM_CHANGE_SYS_PASSWO'
	DB	'RD', 00H					; `string'
CONST	ENDS
;	COMDAT ??_C@_07CAOFPAJK@ENCRYPT?$AA@
CONST	SEGMENT
??_C@_07CAOFPAJK@ENCRYPT?$AA@ DB 'ENCRYPT', 00H		; `string'
CONST	ENDS
;	COMDAT ??_C@_0BE@NCCLMCDM@PERMANENTLY_DECRYPT?$AA@
CONST	SEGMENT
??_C@_0BE@NCCLMCDM@PERMANENTLY_DECRYPT?$AA@ DB 'PERMANENTLY_DECRYPT', 00H ; `string'
CONST	ENDS
;	COMDAT ??_C@_0BC@EGBHACCE@IDM_SYSENC_RESUME?$AA@
CONST	SEGMENT
??_C@_0BC@EGBHACCE@IDM_SYSENC_RESUME?$AA@ DB 'IDM_SYSENC_RESUME', 00H ; `string'
CONST	ENDS
;	COMDAT xdata$x
xdata$x	SEGMENT
__catchsym$?PopulateSysEncContextMenu@@YAXPAUHMENU__@@H@Z$2 DD 08H
	DD	FLAT:??_R0?AUException@CipherShed@@@8
	DD	0ffffffecH
	DD	FLAT:__catch$?PopulateSysEncContextMenu@@YAXPAUHMENU__@@H@Z$0
__unwindtable$?PopulateSysEncContextMenu@@YAXPAUHMENU__@@H@Z DD 0ffffffffH
	DD	00H
	DD	0ffffffffH
	DD	00H
__tryblocktable$?PopulateSysEncContextMenu@@YAXPAUHMENU__@@H@Z DD 00H
	DD	00H
	DD	01H
	DD	01H
	DD	FLAT:__catchsym$?PopulateSysEncContextMenu@@YAXPAUHMENU__@@H@Z$2
__ehfuncinfo$?PopulateSysEncContextMenu@@YAXPAUHMENU__@@H@Z DD 019930522H
	DD	02H
	DD	FLAT:__unwindtable$?PopulateSysEncContextMenu@@YAXPAUHMENU__@@H@Z
	DD	01H
	DD	FLAT:__tryblocktable$?PopulateSysEncContextMenu@@YAXPAUHMENU__@@H@Z
	DD	2 DUP(00H)
	DD	00H
	DD	01H
; Function compile flags: /Ogtpy
xdata$x	ENDS
;	COMDAT ?PopulateSysEncContextMenu@@YAXPAUHMENU__@@H@Z
_TEXT	SEGMENT
$T150496 = -114						; size = 94
_e$135923 = -20						; size = 4
__$EHRec$ = -16						; size = 16
_popup$ = 8						; size = 4
_bToolsOnly$ = 12					; size = 4
?PopulateSysEncContextMenu@@YAXPAUHMENU__@@H@Z PROC	; PopulateSysEncContextMenu, COMDAT

; 706  : {

  00000	55		 push	 ebp
  00001	8b ec		 mov	 ebp, esp
  00003	6a ff		 push	 -1
  00005	68 00 00 00 00	 push	 __ehhandler$?PopulateSysEncContextMenu@@YAXPAUHMENU__@@H@Z
  0000a	64 a1 00 00 00
	00		 mov	 eax, DWORD PTR fs:0
  00010	50		 push	 eax
  00011	83 ec 68	 sub	 esp, 104		; 00000068H
  00014	53		 push	 ebx
  00015	56		 push	 esi
  00016	57		 push	 edi
  00017	a1 00 00 00 00	 mov	 eax, DWORD PTR ___security_cookie
  0001c	33 c5		 xor	 eax, ebp
  0001e	50		 push	 eax
  0001f	8d 45 f4	 lea	 eax, DWORD PTR __$EHRec$[ebp+4]
  00022	64 a3 00 00 00
	00		 mov	 DWORD PTR fs:0, eax
  00028	89 65 f0	 mov	 DWORD PTR __$EHRec$[ebp], esp
  0002b	8b 5d 08	 mov	 ebx, DWORD PTR _popup$[ebp]

; 707  : 	try
; 708  : 	{
; 709  : 		BootEncStatus = BootEncObj->GetStatus();

  0002e	8b 0d 00 00 00
	00		 mov	 ecx, DWORD PTR ?BootEncObj@@3PAVBootEncryption@CipherShed@@A ; BootEncObj
  00034	8d 45 8e	 lea	 eax, DWORD PTR $T150496[ebp]
  00037	50		 push	 eax
  00038	c7 45 fc 00 00
	00 00		 mov	 DWORD PTR __$EHRec$[ebp+12], 0
  0003f	e8 00 00 00 00	 call	 ?GetStatus@BootEncryption@CipherShed@@QAE?AUBootEncryptionStatus@@XZ ; CipherShed::BootEncryption::GetStatus
  00044	b9 17 00 00 00	 mov	 ecx, 23			; 00000017H
  00049	8b f0		 mov	 esi, eax
  0004b	bf 00 00 00 00	 mov	 edi, OFFSET ?BootEncStatus@@3UBootEncryptionStatus@@A ; BootEncStatus
  00050	f3 a5		 rep movsd
  00052	66 a5		 movsw
  00054	c7 45 fc ff ff
	ff ff		 mov	 DWORD PTR __$EHRec$[ebp+12], -1
  0005b	eb 1f		 jmp	 SHORT $LN14@PopulateSy
__catch$?PopulateSysEncContextMenu@@YAXPAUHMENU__@@H@Z$0:

; 710  : 	}
; 711  : 	catch (Exception &e)
; 712  : 	{
; 713  : 		e.Show (MainDlg);

  0005d	8b 4d ec	 mov	 ecx, DWORD PTR _e$135923[ebp]
  00060	8b 11		 mov	 edx, DWORD PTR [ecx]
  00062	a1 00 00 00 00	 mov	 eax, DWORD PTR _MainDlg
  00067	8b 12		 mov	 edx, DWORD PTR [edx]
  00069	50		 push	 eax
  0006a	ff d2		 call	 edx

; 714  : 	}

  0006c	c7 45 fc ff ff
	ff ff		 mov	 DWORD PTR __$EHRec$[ebp+12], -1
  00073	b8 00 00 00 00	 mov	 eax, $LN16@PopulateSy
  00078	c3		 ret	 0
$LN16@PopulateSy:
  00079	8b 5d 08	 mov	 ebx, DWORD PTR _popup$[ebp]
$LN14@PopulateSy:

; 715  : 
; 716  : 	if (!bToolsOnly && !IsHiddenOSRunning())

  0007c	83 7d 0c 00	 cmp	 DWORD PTR _bToolsOnly$[ebp], 0
  00080	0f 85 95 00 00
	00		 jne	 $LN19@PopulateSy
  00086	e8 00 00 00 00	 call	 _IsHiddenOSRunning
  0008b	85 c0		 test	 eax, eax
  0008d	0f 85 88 00 00
	00		 jne	 $LN19@PopulateSy

; 717  : 	{
; 718  : 		if (SysEncryptionOrDecryptionRequired ())

  00093	e8 00 00 00 00	 call	 ?SysEncryptionOrDecryptionRequired@@YAHXZ ; SysEncryptionOrDecryptionRequired
  00098	85 c0		 test	 eax, eax
  0009a	74 7f		 je	 SHORT $LN19@PopulateSy

; 719  : 		{
; 720  : 			if (!BootEncStatus.SetupInProgress)

  0009c	83 3d 3e 00 00
	00 00		 cmp	 DWORD PTR ?BootEncStatus@@3UBootEncryptionStatus@@A+62, 0
  000a3	75 20		 jne	 SHORT $LN17@PopulateSy

; 721  : 				AppendMenuW (popup, MF_STRING, IDM_SYSENC_RESUME, GetString ("IDM_SYSENC_RESUME"));

  000a5	68 00 00 00 00	 push	 OFFSET ??_C@_0BC@EGBHACCE@IDM_SYSENC_RESUME?$AA@
  000aa	e8 00 00 00 00	 call	 _GetString
  000af	8b 35 00 00 00
	00		 mov	 esi, DWORD PTR __imp__AppendMenuW@16
  000b5	83 c4 04	 add	 esp, 4
  000b8	50		 push	 eax
  000b9	68 70 9c 00 00	 push	 40048			; 00009c70H
  000be	6a 00		 push	 0
  000c0	53		 push	 ebx
  000c1	ff d6		 call	 esi
  000c3	eb 06		 jmp	 SHORT $LN5@PopulateSy
$LN17@PopulateSy:
  000c5	8b 35 00 00 00
	00		 mov	 esi, DWORD PTR __imp__AppendMenuW@16
$LN5@PopulateSy:

; 722  : 
; 723  : 			if (SystemEncryptionStatus != SYSENC_STATUS_DECRYPTING)

  000cb	81 3d 00 00 00
	00 58 02 00 00	 cmp	 DWORD PTR _SystemEncryptionStatus, 600 ; 00000258H
  000d5	74 18		 je	 SHORT $LN4@PopulateSy

; 724  : 				AppendMenuW (popup, MF_STRING, IDM_PERMANENTLY_DECRYPT_SYS, GetString ("PERMANENTLY_DECRYPT"));

  000d7	68 00 00 00 00	 push	 OFFSET ??_C@_0BE@NCCLMCDM@PERMANENTLY_DECRYPT?$AA@
  000dc	e8 00 00 00 00	 call	 _GetString
  000e1	83 c4 04	 add	 esp, 4
  000e4	50		 push	 eax
  000e5	68 6c 9c 00 00	 push	 40044			; 00009c6cH
  000ea	6a 00		 push	 0
  000ec	53		 push	 ebx
  000ed	ff d6		 call	 esi
$LN4@PopulateSy:

; 725  : 			
; 726  : 			AppendMenuW (popup, MF_STRING, IDM_ENCRYPT_SYSTEM_DEVICE, GetString ("ENCRYPT"));

  000ef	68 00 00 00 00	 push	 OFFSET ??_C@_07CAOFPAJK@ENCRYPT?$AA@
  000f4	e8 00 00 00 00	 call	 _GetString
  000f9	83 c4 04	 add	 esp, 4
  000fc	50		 push	 eax
  000fd	68 6f 9c 00 00	 push	 40047			; 00009c6fH
  00102	6a 00		 push	 0
  00104	53		 push	 ebx
  00105	ff d6		 call	 esi

; 727  : 			AppendMenu (popup, MF_SEPARATOR, 0, NULL);

  00107	8b 3d 00 00 00
	00		 mov	 edi, DWORD PTR __imp__AppendMenuA@16
  0010d	6a 00		 push	 0
  0010f	6a 00		 push	 0
  00111	68 00 08 00 00	 push	 2048			; 00000800H
  00116	53		 push	 ebx
  00117	ff d7		 call	 edi
  00119	eb 0c		 jmp	 SHORT $LN6@PopulateSy
$LN19@PopulateSy:
  0011b	8b 35 00 00 00
	00		 mov	 esi, DWORD PTR __imp__AppendMenuW@16
  00121	8b 3d 00 00 00
	00		 mov	 edi, DWORD PTR __imp__AppendMenuA@16
$LN6@PopulateSy:

; 728  : 		}
; 729  : 	}
; 730  : 
; 731  : 	AppendMenuW (popup, MF_STRING, IDM_CHANGE_SYS_PASSWORD, GetString ("IDM_CHANGE_SYS_PASSWORD"));

  00127	68 00 00 00 00	 push	 OFFSET ??_C@_0BI@CKBDIDDP@IDM_CHANGE_SYS_PASSWORD?$AA@
  0012c	e8 00 00 00 00	 call	 _GetString
  00131	83 c4 04	 add	 esp, 4
  00134	50		 push	 eax
  00135	68 6a 9c 00 00	 push	 40042			; 00009c6aH
  0013a	6a 00		 push	 0
  0013c	53		 push	 ebx
  0013d	ff d6		 call	 esi

; 732  : 	AppendMenuW (popup, MF_STRING, IDM_CHANGE_SYS_HEADER_KEY_DERIV_ALGO, GetString ("IDM_CHANGE_SYS_HEADER_KEY_DERIV_ALGO"));

  0013f	68 00 00 00 00	 push	 OFFSET ??_C@_0CF@CAHOHCGA@IDM_CHANGE_SYS_HEADER_KEY_DERIV_@
  00144	e8 00 00 00 00	 call	 _GetString
  00149	83 c4 04	 add	 esp, 4
  0014c	50		 push	 eax
  0014d	68 69 9c 00 00	 push	 40041			; 00009c69H
  00152	6a 00		 push	 0
  00154	53		 push	 ebx
  00155	ff d6		 call	 esi

; 733  : 
; 734  : 	AppendMenu (popup, MF_SEPARATOR, 0, NULL);

  00157	6a 00		 push	 0
  00159	6a 00		 push	 0
  0015b	68 00 08 00 00	 push	 2048			; 00000800H
  00160	53		 push	 ebx
  00161	ff d7		 call	 edi

; 735  : 	AppendMenuW (popup, MF_STRING, IDM_SYS_ENC_SETTINGS, GetString ("IDM_SYS_ENC_SETTINGS"));

  00163	68 00 00 00 00	 push	 OFFSET ??_C@_0BF@KPIIIAFE@IDM_SYS_ENC_SETTINGS?$AA@
  00168	e8 00 00 00 00	 call	 _GetString
  0016d	83 c4 04	 add	 esp, 4
  00170	50		 push	 eax
  00171	68 75 9c 00 00	 push	 40053			; 00009c75H
  00176	6a 00		 push	 0
  00178	53		 push	 ebx
  00179	ff d6		 call	 esi

; 736  : 
; 737  : 	if (!IsHiddenOSRunning())

  0017b	e8 00 00 00 00	 call	 _IsHiddenOSRunning
  00180	85 c0		 test	 eax, eax
  00182	75 3a		 jne	 SHORT $LN3@PopulateSy

; 738  : 	{
; 739  : 		AppendMenu (popup, MF_SEPARATOR, 0, NULL);

  00184	50		 push	 eax
  00185	50		 push	 eax
  00186	68 00 08 00 00	 push	 2048			; 00000800H
  0018b	53		 push	 ebx
  0018c	ff d7		 call	 edi

; 740  : 		AppendMenuW (popup, MF_STRING, IDM_CREATE_RESCUE_DISK, GetString ("IDM_CREATE_RESCUE_DISK"));

  0018e	68 00 00 00 00	 push	 OFFSET ??_C@_0BH@MLCINLBO@IDM_CREATE_RESCUE_DISK?$AA@
  00193	e8 00 00 00 00	 call	 _GetString
  00198	83 c4 04	 add	 esp, 4
  0019b	50		 push	 eax
  0019c	68 6b 9c 00 00	 push	 40043			; 00009c6bH
  001a1	6a 00		 push	 0
  001a3	53		 push	 ebx
  001a4	ff d6		 call	 esi

; 741  : 		AppendMenuW (popup, MF_STRING, IDM_VERIFY_RESCUE_DISK, GetString ("IDM_VERIFY_RESCUE_DISK"));

  001a6	68 00 00 00 00	 push	 OFFSET ??_C@_0BH@MNBOMCDE@IDM_VERIFY_RESCUE_DISK?$AA@
  001ab	e8 00 00 00 00	 call	 _GetString
  001b0	83 c4 04	 add	 esp, 4
  001b3	50		 push	 eax
  001b4	68 6d 9c 00 00	 push	 40045			; 00009c6dH
  001b9	6a 00		 push	 0
  001bb	53		 push	 ebx
  001bc	ff d6		 call	 esi
$LN3@PopulateSy:

; 742  : 	}
; 743  : 
; 744  : 	if (!bToolsOnly)

  001be	83 7d 0c 00	 cmp	 DWORD PTR _bToolsOnly$[ebp], 0
  001c2	75 5d		 jne	 SHORT $LN2@PopulateSy

; 745  : 	{
; 746  : 		if (SysDriveOrPartitionFullyEncrypted (FALSE) && !IsHiddenOSRunning())

  001c4	6a 00		 push	 0
  001c6	e8 00 00 00 00	 call	 ?SysDriveOrPartitionFullyEncrypted@@YAHH@Z ; SysDriveOrPartitionFullyEncrypted
  001cb	83 c4 04	 add	 esp, 4
  001ce	85 c0		 test	 eax, eax
  001d0	74 2b		 je	 SHORT $LN1@PopulateSy
  001d2	e8 00 00 00 00	 call	 _IsHiddenOSRunning
  001d7	85 c0		 test	 eax, eax
  001d9	75 22		 jne	 SHORT $LN1@PopulateSy

; 747  : 		{
; 748  : 			AppendMenu (popup, MF_SEPARATOR, 0, NULL);

  001db	50		 push	 eax
  001dc	50		 push	 eax
  001dd	68 00 08 00 00	 push	 2048			; 00000800H
  001e2	53		 push	 ebx
  001e3	ff d7		 call	 edi

; 749  : 			AppendMenuW (popup, MF_STRING, IDM_PERMANENTLY_DECRYPT_SYS, GetString ("PERMANENTLY_DECRYPT"));

  001e5	68 00 00 00 00	 push	 OFFSET ??_C@_0BE@NCCLMCDM@PERMANENTLY_DECRYPT?$AA@
  001ea	e8 00 00 00 00	 call	 _GetString
  001ef	83 c4 04	 add	 esp, 4
  001f2	50		 push	 eax
  001f3	68 6c 9c 00 00	 push	 40044			; 00009c6cH
  001f8	6a 00		 push	 0
  001fa	53		 push	 ebx
  001fb	ff d6		 call	 esi
$LN1@PopulateSy:

; 750  : 		}
; 751  : 		AppendMenu (popup, MF_SEPARATOR, 0, NULL);

  001fd	6a 00		 push	 0
  001ff	6a 00		 push	 0
  00201	68 00 08 00 00	 push	 2048			; 00000800H
  00206	53		 push	 ebx
  00207	ff d7		 call	 edi

; 752  : 		AppendMenuW (popup, MF_STRING, IDM_VOLUME_PROPERTIES, GetString ("IDPM_PROPERTIES"));

  00209	68 00 00 00 00	 push	 OFFSET ??_C@_0BA@DJOMNFMG@IDPM_PROPERTIES?$AA@
  0020e	e8 00 00 00 00	 call	 _GetString
  00213	83 c4 04	 add	 esp, 4
  00216	50		 push	 eax
  00217	68 57 9c 00 00	 push	 40023			; 00009c57H
  0021c	6a 00		 push	 0
  0021e	53		 push	 ebx
  0021f	ff d6		 call	 esi
$LN2@PopulateSy:

; 753  : 	}
; 754  : }

  00221	8b 4d f4	 mov	 ecx, DWORD PTR __$EHRec$[ebp+4]
  00224	64 89 0d 00 00
	00 00		 mov	 DWORD PTR fs:0, ecx
  0022b	59		 pop	 ecx
  0022c	5f		 pop	 edi
  0022d	5e		 pop	 esi
  0022e	5b		 pop	 ebx
  0022f	8b e5		 mov	 esp, ebp
  00231	5d		 pop	 ebp
  00232	c3		 ret	 0
_TEXT	ENDS
;	COMDAT text$x
text$x	SEGMENT
__ehhandler$?PopulateSysEncContextMenu@@YAXPAUHMENU__@@H@Z:
  00000	8b 54 24 08	 mov	 edx, DWORD PTR [esp+8]
  00004	8d 42 0c	 lea	 eax, DWORD PTR [edx+12]
  00007	8b 4a 88	 mov	 ecx, DWORD PTR [edx-120]
  0000a	33 c8		 xor	 ecx, eax
  0000c	e8 00 00 00 00	 call	 @__security_check_cookie@4
  00011	b8 00 00 00 00	 mov	 eax, OFFSET __ehfuncinfo$?PopulateSysEncContextMenu@@YAXPAUHMENU__@@H@Z
  00016	e9 00 00 00 00	 jmp	 ___CxxFrameHandler3
text$x	ENDS
?PopulateSysEncContextMenu@@YAXPAUHMENU__@@H@Z ENDP	; PopulateSysEncContextMenu
PUBLIC	??_C@_0BO@FKAHPBKI@?2Device?2Harddisk?$CFd?2Partition0?$AA@ ; `string'
PUBLIC	??_C@_0BN@CEPHIDFC@?2Device?2Harddisk?$CFd?2Partition?$AA@ ; `string'
PUBLIC	__$ArrayPad$
PUBLIC	_TCBootLoaderOnInactiveSysEncDrive
EXTRN	?IsBootLoaderOnDrive@BootEncryption@CipherShed@@QAE_NPAD@Z:PROC ; CipherShed::BootEncryption::IsBootLoaderOnDrive
EXTRN	_IsSystemDevicePath:PROC
EXTRN	__snprintf:PROC
EXTRN	_sscanf:PROC
EXTRN	__imp__GetWindowTextA@12:PROC
;	COMDAT ??_C@_0BO@FKAHPBKI@?2Device?2Harddisk?$CFd?2Partition0?$AA@
CONST	SEGMENT
??_C@_0BO@FKAHPBKI@?2Device?2Harddisk?$CFd?2Partition0?$AA@ DB '\Device\H'
	DB	'arddisk%d\Partition0', 00H			; `string'
CONST	ENDS
;	COMDAT ??_C@_0BN@CEPHIDFC@?2Device?2Harddisk?$CFd?2Partition?$AA@
CONST	SEGMENT
??_C@_0BN@CEPHIDFC@?2Device?2Harddisk?$CFd?2Partition?$AA@ DB '\Device\Ha'
	DB	'rddisk%d\Partition', 00H			; `string'
CONST	ENDS
;	COMDAT xdata$x
xdata$x	SEGMENT
__catchsym$_TCBootLoaderOnInactiveSysEncDrive$2 DD 040H
	DD	00H
	DD	00H
	DD	FLAT:__catch$_TCBootLoaderOnInactiveSysEncDrive$0
__unwindtable$_TCBootLoaderOnInactiveSysEncDrive DD 0ffffffffH
	DD	00H
	DD	0ffffffffH
	DD	00H
__tryblocktable$_TCBootLoaderOnInactiveSysEncDrive DD 00H
	DD	00H
	DD	01H
	DD	01H
	DD	FLAT:__catchsym$_TCBootLoaderOnInactiveSysEncDrive$2
__ehfuncinfo$_TCBootLoaderOnInactiveSysEncDrive DD 019930522H
	DD	02H
	DD	FLAT:__unwindtable$_TCBootLoaderOnInactiveSysEncDrive
	DD	01H
	DD	FLAT:__tryblocktable$_TCBootLoaderOnInactiveSysEncDrive
	DD	2 DUP(00H)
	DD	00H
	DD	01H
; Function compile flags: /Ogtpy
xdata$x	ENDS
;	COMDAT _TCBootLoaderOnInactiveSysEncDrive
_TEXT	SEGMENT
$T150516 = -114						; size = 94
_driveNo$135983 = -20					; size = 4
__$EHRec$ = -16						; size = 16
_szDevicePath$135984 = 0				; size = 261
_parentDrivePath$135985 = 264				; size = 261
__$ArrayPad$ = 528					; size = 4
_TCBootLoaderOnInactiveSysEncDrive PROC			; COMDAT

; 863  : {

  00000	55		 push	 ebp
  00001	8d ac 24 ec fd
	ff ff		 lea	 ebp, DWORD PTR [esp-532]
  00008	81 ec 14 02 00
	00		 sub	 esp, 532		; 00000214H
  0000e	6a ff		 push	 -1
  00010	68 00 00 00 00	 push	 __ehhandler$_TCBootLoaderOnInactiveSysEncDrive
  00015	64 a1 00 00 00
	00		 mov	 eax, DWORD PTR fs:0
  0001b	50		 push	 eax
  0001c	83 ec 68	 sub	 esp, 104		; 00000068H
  0001f	a1 00 00 00 00	 mov	 eax, DWORD PTR ___security_cookie
  00024	33 c5		 xor	 eax, ebp
  00026	89 85 10 02 00
	00		 mov	 DWORD PTR __$ArrayPad$[ebp], eax
  0002c	53		 push	 ebx
  0002d	56		 push	 esi
  0002e	57		 push	 edi
  0002f	50		 push	 eax
  00030	8d 45 f4	 lea	 eax, DWORD PTR __$EHRec$[ebp+4]
  00033	64 a3 00 00 00
	00		 mov	 DWORD PTR fs:0, eax
  00039	89 65 f0	 mov	 DWORD PTR __$EHRec$[ebp], esp

; 864  : 	try
; 865  : 	{
; 866  : 		int driveNo;
; 867  : 		char szDevicePath [TC_MAX_PATH+1];
; 868  : 		char parentDrivePath [TC_MAX_PATH+1];
; 869  : 
; 870  : 		if (bPrebootPasswordDlgMode)

  0003c	83 3d 00 00 00
	00 00		 cmp	 DWORD PTR _bPrebootPasswordDlgMode, 0
  00043	c7 45 fc 00 00
	00 00		 mov	 DWORD PTR __$EHRec$[ebp+12], 0

; 871  : 			return FALSE;

  0004a	0f 85 bb 00 00
	00		 jne	 $LN10@TCBootLoad

; 872  : 
; 873  : 		GetWindowTextA(GetDlgItem (MainDlg, IDC_VOLUME), szDevicePath, sizeof (szDevicePath));

  00050	8b 0d 00 00 00
	00		 mov	 ecx, DWORD PTR _MainDlg
  00056	68 05 01 00 00	 push	 261			; 00000105H
  0005b	8d 45 00	 lea	 eax, DWORD PTR _szDevicePath$135984[ebp]
  0005e	50		 push	 eax
  0005f	68 0a 04 00 00	 push	 1034			; 0000040aH
  00064	51		 push	 ecx
  00065	ff 15 00 00 00
	00		 call	 DWORD PTR __imp__GetDlgItem@8
  0006b	50		 push	 eax
  0006c	ff 15 00 00 00
	00		 call	 DWORD PTR __imp__GetWindowTextA@12

; 874  : 
; 875  : 		if (sscanf (szDevicePath, "\\Device\\Harddisk%d\\Partition", &driveNo) != 1)

  00072	8d 55 ec	 lea	 edx, DWORD PTR _driveNo$135983[ebp]
  00075	52		 push	 edx
  00076	8d 45 00	 lea	 eax, DWORD PTR _szDevicePath$135984[ebp]
  00079	68 00 00 00 00	 push	 OFFSET ??_C@_0BN@CEPHIDFC@?2Device?2Harddisk?$CFd?2Partition?$AA@
  0007e	50		 push	 eax
  0007f	e8 00 00 00 00	 call	 _sscanf
  00084	83 c4 0c	 add	 esp, 12			; 0000000cH
  00087	83 f8 01	 cmp	 eax, 1

; 876  : 			return FALSE;

  0008a	75 7f		 jne	 SHORT $LN10@TCBootLoad

; 877  : 
; 878  : 		_snprintf (parentDrivePath,
; 879  : 			sizeof (parentDrivePath),
; 880  : 			"\\Device\\Harddisk%d\\Partition0",
; 881  : 			driveNo);

  0008c	8b 4d ec	 mov	 ecx, DWORD PTR _driveNo$135983[ebp]
  0008f	51		 push	 ecx
  00090	68 00 00 00 00	 push	 OFFSET ??_C@_0BO@FKAHPBKI@?2Device?2Harddisk?$CFd?2Partition0?$AA@
  00095	8d 95 08 01 00
	00		 lea	 edx, DWORD PTR _parentDrivePath$135985[ebp]
  0009b	68 05 01 00 00	 push	 261			; 00000105H
  000a0	52		 push	 edx
  000a1	e8 00 00 00 00	 call	 __snprintf

; 882  : 
; 883  : 		BootEncStatus = BootEncObj->GetStatus();

  000a6	8b 0d 00 00 00
	00		 mov	 ecx, DWORD PTR ?BootEncObj@@3PAVBootEncryption@CipherShed@@A ; BootEncObj
  000ac	83 c4 10	 add	 esp, 16			; 00000010H
  000af	8d 45 8e	 lea	 eax, DWORD PTR $T150516[ebp]
  000b2	50		 push	 eax
  000b3	e8 00 00 00 00	 call	 ?GetStatus@BootEncryption@CipherShed@@QAE?AUBootEncryptionStatus@@XZ ; CipherShed::BootEncryption::GetStatus
  000b8	b9 17 00 00 00	 mov	 ecx, 23			; 00000017H
  000bd	8b f0		 mov	 esi, eax
  000bf	bf 00 00 00 00	 mov	 edi, OFFSET ?BootEncStatus@@3UBootEncryptionStatus@@A ; BootEncStatus
  000c4	f3 a5		 rep movsd
  000c6	66 a5		 movsw

; 884  : 
; 885  : 		if (BootEncStatus.DriveMounted
; 886  : 			&& IsSystemDevicePath (parentDrivePath, MainDlg, FALSE) == 2)

  000c8	83 3d 06 00 00
	00 00		 cmp	 DWORD PTR ?BootEncStatus@@3UBootEncryptionStatus@@A+6, 0
  000cf	74 1d		 je	 SHORT $LN1@TCBootLoad
  000d1	8b 0d 00 00 00
	00		 mov	 ecx, DWORD PTR _MainDlg
  000d7	6a 00		 push	 0
  000d9	51		 push	 ecx
  000da	8d 95 08 01 00
	00		 lea	 edx, DWORD PTR _parentDrivePath$135985[ebp]
  000e0	52		 push	 edx
  000e1	e8 00 00 00 00	 call	 _IsSystemDevicePath
  000e6	83 c4 0c	 add	 esp, 12			; 0000000cH
  000e9	83 f8 02	 cmp	 eax, 2

; 887  : 		{
; 888  : 			// The partition is within key scope of active system encryption
; 889  : 			return FALSE;

  000ec	74 1d		 je	 SHORT $LN10@TCBootLoad
$LN1@TCBootLoad:

; 890  : 		}
; 891  : 
; 892  : 		return ((BOOL) BootEncObj->IsBootLoaderOnDrive (parentDrivePath));

  000ee	8b 0d 00 00 00
	00		 mov	 ecx, DWORD PTR ?BootEncObj@@3PAVBootEncryption@CipherShed@@A ; BootEncObj
  000f4	8d 85 08 01 00
	00		 lea	 eax, DWORD PTR _parentDrivePath$135985[ebp]
  000fa	50		 push	 eax
  000fb	e8 00 00 00 00	 call	 ?IsBootLoaderOnDrive@BootEncryption@CipherShed@@QAE_NPAD@Z ; CipherShed::BootEncryption::IsBootLoaderOnDrive
  00100	0f b6 c0	 movzx	 eax, al
  00103	eb 08		 jmp	 SHORT $LN9@TCBootLoad
__catch$_TCBootLoaderOnInactiveSysEncDrive$0:

; 893  : 	}
; 894  : 	catch (...)
; 895  : 	{
; 896  : 		return FALSE;

  00105	b8 00 00 00 00	 mov	 eax, $LN10@TCBootLoad
  0010a	c3		 ret	 0
$LN10@TCBootLoad:
  0010b	33 c0		 xor	 eax, eax
$LN9@TCBootLoad:

; 897  : 	}
; 898  : 
; 899  : }

  0010d	8b 4d f4	 mov	 ecx, DWORD PTR __$EHRec$[ebp+4]
  00110	64 89 0d 00 00
	00 00		 mov	 DWORD PTR fs:0, ecx
  00117	59		 pop	 ecx
  00118	5f		 pop	 edi
  00119	5e		 pop	 esi
  0011a	5b		 pop	 ebx
  0011b	8b 8d 10 02 00
	00		 mov	 ecx, DWORD PTR __$ArrayPad$[ebp]
  00121	33 cd		 xor	 ecx, ebp
  00123	e8 00 00 00 00	 call	 @__security_check_cookie@4
  00128	81 c5 14 02 00
	00		 add	 ebp, 532		; 00000214H
  0012e	8b e5		 mov	 esp, ebp
  00130	5d		 pop	 ebp
  00131	c3		 ret	 0
_TEXT	ENDS
;	COMDAT text$x
text$x	SEGMENT
__ehhandler$_TCBootLoaderOnInactiveSysEncDrive:
  00000	8b 54 24 08	 mov	 edx, DWORD PTR [esp+8]
  00004	8d 42 0c	 lea	 eax, DWORD PTR [edx+12]
  00007	8b 4a 88	 mov	 ecx, DWORD PTR [edx-120]
  0000a	33 c8		 xor	 ecx, eax
  0000c	e8 00 00 00 00	 call	 @__security_check_cookie@4
  00011	8b 8a 1c 02 00
	00		 mov	 ecx, DWORD PTR [edx+540]
  00017	33 c8		 xor	 ecx, eax
  00019	e8 00 00 00 00	 call	 @__security_check_cookie@4
  0001e	b8 00 00 00 00	 mov	 eax, OFFSET __ehfuncinfo$_TCBootLoaderOnInactiveSysEncDrive
  00023	e9 00 00 00 00	 jmp	 ___CxxFrameHandler3
text$x	ENDS
_TCBootLoaderOnInactiveSysEncDrive ENDP
PUBLIC	??_C@_01CLKCMJKC@?5?$AA@			; `string'
PUBLIC	??_C@_0BO@KBIBLJFA@VOL_CREATION_WIZARD_NOT_FOUND?$AA@ ; `string'
PUBLIC	??_C@_0BH@DOPCJFAH@CipherShed?9Format?4exe?$CC?$AA@ ; `string'
PUBLIC	__$ArrayPad$
EXTRN	__imp__CloseHandle@4:PROC
EXTRN	_handleWin32Error:PROC
EXTRN	__imp__CreateProcessA@40:PROC
EXTRN	_Error:PROC
EXTRN	_FileExists:PROC
EXTRN	__imp__GetModuleFileNameA@12:PROC
;	COMDAT ??_C@_01CLKCMJKC@?5?$AA@
; File c:\program files (x86)\microsoft visual studio 9.0\vc\include\string.h
CONST	SEGMENT
??_C@_01CLKCMJKC@?5?$AA@ DB ' ', 00H			; `string'
CONST	ENDS
;	COMDAT ??_C@_0BO@KBIBLJFA@VOL_CREATION_WIZARD_NOT_FOUND?$AA@
CONST	SEGMENT
??_C@_0BO@KBIBLJFA@VOL_CREATION_WIZARD_NOT_FOUND?$AA@ DB 'VOL_CREATION_WI'
	DB	'ZARD_NOT_FOUND', 00H			; `string'
CONST	ENDS
;	COMDAT ??_C@_0BH@DOPCJFAH@CipherShed?9Format?4exe?$CC?$AA@
CONST	SEGMENT
??_C@_0BH@DOPCJFAH@CipherShed?9Format?4exe?$CC?$AA@ DB 'CipherShed-Format'
	DB	'.exe"', 00H					; `string'
; Function compile flags: /Ogtpy
; File c:\users\public\desktop\projects\ciphershed\src\mount\mount.c
CONST	ENDS
;	COMDAT ?LaunchVolCreationWizard@@YAXPAUHWND__@@PBD@Z
_TEXT	SEGMENT
tv90 = -352						; size = 4
_pi$136026 = -348					; size = 16
_si$136025 = -332					; size = 68
_t$ = -264						; size = 260
__$ArrayPad$ = -4					; size = 4
_hwndDlg$ = 8						; size = 4
?LaunchVolCreationWizard@@YAXPAUHWND__@@PBD@Z PROC	; LaunchVolCreationWizard, COMDAT
; _arg$ = ebx

; 942  : {

  00000	81 ec 60 01 00
	00		 sub	 esp, 352		; 00000160H
  00006	a1 00 00 00 00	 mov	 eax, DWORD PTR ___security_cookie
  0000b	33 c4		 xor	 eax, esp
  0000d	89 84 24 5c 01
	00 00		 mov	 DWORD PTR __$ArrayPad$[esp+352], eax
  00014	55		 push	 ebp
  00015	8b ac 24 68 01
	00 00		 mov	 ebp, DWORD PTR _hwndDlg$[esp+352]
  0001c	56		 push	 esi

; 943  : 	char t[TC_MAX_PATH] = {'"',0};

  0001d	68 02 01 00 00	 push	 258			; 00000102H
  00022	8d 44 24 66	 lea	 eax, DWORD PTR _t$[esp+366]
  00026	6a 00		 push	 0
  00028	50		 push	 eax
  00029	c6 44 24 6c 22	 mov	 BYTE PTR _t$[esp+372], 34 ; 00000022H
  0002e	c6 44 24 6d 00	 mov	 BYTE PTR _t$[esp+373], 0
  00033	e8 00 00 00 00	 call	 _memset
  00038	83 c4 0c	 add	 esp, 12			; 0000000cH

; 944  : 	char *tmp;
; 945  : 
; 946  : 	GetModuleFileName (NULL, t+1, sizeof(t)-1);

  0003b	68 03 01 00 00	 push	 259			; 00000103H
  00040	8d 4c 24 65	 lea	 ecx, DWORD PTR _t$[esp+365]
  00044	51		 push	 ecx
  00045	6a 00		 push	 0
  00047	ff 15 00 00 00
	00		 call	 DWORD PTR __imp__GetModuleFileNameA@12

; 947  : 
; 948  : 	tmp = strrchr (t, '\\');

  0004d	8d 54 24 60	 lea	 edx, DWORD PTR _t$[esp+360]
  00051	6a 5c		 push	 92			; 0000005cH
  00053	52		 push	 edx
  00054	e8 00 00 00 00	 call	 _strrchr
  00059	8b f0		 mov	 esi, eax
  0005b	83 c4 08	 add	 esp, 8

; 949  : 	if (tmp)

  0005e	85 f6		 test	 esi, esi
  00060	0f 84 f5 00 00
	00		 je	 $LN1@LaunchVolC
  00066	57		 push	 edi

; 950  : 	{
; 951  : 		STARTUPINFO si;
; 952  : 		PROCESS_INFORMATION pi;
; 953  : 		ZeroMemory (&si, sizeof (si));

  00067	6a 44		 push	 68			; 00000044H
  00069	8d 44 24 24	 lea	 eax, DWORD PTR _si$136025[esp+368]
  0006d	6a 00		 push	 0
  0006f	50		 push	 eax
  00070	e8 00 00 00 00	 call	 _memset

; 954  : 
; 955  : 		strcpy (++tmp, "CipherShed-Format.exe\"");

  00075	8d 7e 01	 lea	 edi, DWORD PTR [esi+1]
  00078	b9 05 00 00 00	 mov	 ecx, 5
  0007d	be 00 00 00 00	 mov	 esi, OFFSET ??_C@_0BH@DOPCJFAH@CipherShed?9Format?4exe?$CC?$AA@
  00082	f3 a5		 rep movsd
  00084	66 a5		 movsw

; 956  : 
; 957  : 		if (!FileExists(t))

  00086	8d 4c 24 70	 lea	 ecx, DWORD PTR _t$[esp+376]
  0008a	51		 push	 ecx
  0008b	a4		 movsb
  0008c	e8 00 00 00 00	 call	 _FileExists
  00091	83 c4 10	 add	 esp, 16			; 00000010H
  00094	85 c0		 test	 eax, eax
  00096	75 0d		 jne	 SHORT $LN4@LaunchVolC

; 958  : 			Error ("VOL_CREATION_WIZARD_NOT_FOUND");	// Display a user-friendly error message and advise what to do

  00098	68 00 00 00 00	 push	 OFFSET ??_C@_0BO@KBIBLJFA@VOL_CREATION_WIZARD_NOT_FOUND?$AA@
  0009d	e8 00 00 00 00	 call	 _Error
  000a2	83 c4 04	 add	 esp, 4
$LN4@LaunchVolC:

; 959  : 
; 960  : 		if (strlen (arg) > 0)

  000a5	8b c3		 mov	 eax, ebx
  000a7	8d 50 01	 lea	 edx, DWORD PTR [eax+1]
  000aa	8d 9b 00 00 00
	00		 npad	 6
$LL10@LaunchVolC:
  000b0	8a 08		 mov	 cl, BYTE PTR [eax]
  000b2	40		 inc	 eax
  000b3	84 c9		 test	 cl, cl
  000b5	75 f9		 jne	 SHORT $LL10@LaunchVolC
  000b7	2b c2		 sub	 eax, edx
  000b9	74 41		 je	 SHORT $LN3@LaunchVolC

; 961  : 		{
; 962  : 			strcat (t, " ");

  000bb	8d 7c 24 64	 lea	 edi, DWORD PTR _t$[esp+364]
  000bf	4f		 dec	 edi
$LL11@LaunchVolC:
  000c0	8a 47 01	 mov	 al, BYTE PTR [edi+1]
  000c3	47		 inc	 edi
  000c4	84 c0		 test	 al, al
  000c6	75 f8		 jne	 SHORT $LL11@LaunchVolC
  000c8	66 8b 15 00 00
	00 00		 mov	 dx, WORD PTR ??_C@_01CLKCMJKC@?5?$AA@

; 963  : 			strcat (t, arg);

  000cf	8b c3		 mov	 eax, ebx
  000d1	66 89 17	 mov	 WORD PTR [edi], dx
  000d4	8b c8		 mov	 ecx, eax
$LL12@LaunchVolC:
  000d6	8a 10		 mov	 dl, BYTE PTR [eax]
  000d8	40		 inc	 eax
  000d9	84 d2		 test	 dl, dl
  000db	75 f9		 jne	 SHORT $LL12@LaunchVolC
  000dd	8d 7c 24 64	 lea	 edi, DWORD PTR _t$[esp+364]
  000e1	2b c1		 sub	 eax, ecx
  000e3	8b f1		 mov	 esi, ecx
  000e5	4f		 dec	 edi
$LL13@LaunchVolC:
  000e6	8a 4f 01	 mov	 cl, BYTE PTR [edi+1]
  000e9	47		 inc	 edi
  000ea	84 c9		 test	 cl, cl
  000ec	75 f8		 jne	 SHORT $LL13@LaunchVolC
  000ee	8b c8		 mov	 ecx, eax
  000f0	c1 e9 02	 shr	 ecx, 2
  000f3	f3 a5		 rep movsd
  000f5	8b c8		 mov	 ecx, eax
  000f7	83 e1 03	 and	 ecx, 3
  000fa	f3 a4		 rep movsb
$LN3@LaunchVolC:

; 964  : 		}
; 965  : 
; 966  : 		if (!CreateProcess (NULL, (LPSTR) t, NULL, NULL, FALSE, NORMAL_PRIORITY_CLASS, NULL, NULL, &si, &pi))

  000fc	8d 44 24 10	 lea	 eax, DWORD PTR _pi$136026[esp+364]
  00100	50		 push	 eax
  00101	8d 4c 24 24	 lea	 ecx, DWORD PTR _si$136025[esp+368]
  00105	51		 push	 ecx
  00106	6a 00		 push	 0
  00108	6a 00		 push	 0
  0010a	6a 20		 push	 32			; 00000020H
  0010c	6a 00		 push	 0
  0010e	6a 00		 push	 0
  00110	6a 00		 push	 0
  00112	8d 94 24 84 00
	00 00		 lea	 edx, DWORD PTR _t$[esp+396]
  00119	52		 push	 edx
  0011a	6a 00		 push	 0
  0011c	ff 15 00 00 00
	00		 call	 DWORD PTR __imp__CreateProcessA@40
  00122	5f		 pop	 edi
  00123	85 c0		 test	 eax, eax
  00125	75 20		 jne	 SHORT $LN2@LaunchVolC

; 967  : 		{
; 968  : 			handleWin32Error (hwndDlg);

  00127	55		 push	 ebp
  00128	e8 00 00 00 00	 call	 _handleWin32Error
  0012d	83 c4 04	 add	 esp, 4
  00130	5e		 pop	 esi
  00131	5d		 pop	 ebp

; 974  : 		}
; 975  : 	}
; 976  : }

  00132	8b 8c 24 5c 01
	00 00		 mov	 ecx, DWORD PTR __$ArrayPad$[esp+352]
  00139	33 cc		 xor	 ecx, esp
  0013b	e8 00 00 00 00	 call	 @__security_check_cookie@4
  00140	81 c4 60 01 00
	00		 add	 esp, 352		; 00000160H
  00146	c3		 ret	 0
$LN2@LaunchVolC:

; 969  : 		}
; 970  : 		else
; 971  : 		{
; 972  : 			CloseHandle (pi.hProcess);

  00147	8b 44 24 0c	 mov	 eax, DWORD PTR _pi$136026[esp+360]
  0014b	8b 35 00 00 00
	00		 mov	 esi, DWORD PTR __imp__CloseHandle@4
  00151	50		 push	 eax
  00152	ff d6		 call	 esi

; 973  : 			CloseHandle (pi.hThread);

  00154	8b 4c 24 10	 mov	 ecx, DWORD PTR _pi$136026[esp+364]
  00158	51		 push	 ecx
  00159	ff d6		 call	 esi
$LN1@LaunchVolC:

; 974  : 		}
; 975  : 	}
; 976  : }

  0015b	8b 8c 24 64 01
	00 00		 mov	 ecx, DWORD PTR __$ArrayPad$[esp+360]
  00162	5e		 pop	 esi
  00163	5d		 pop	 ebp
  00164	33 cc		 xor	 ecx, esp
  00166	e8 00 00 00 00	 call	 @__security_check_cookie@4
  0016b	81 c4 60 01 00
	00		 add	 esp, 352		; 00000160H
  00171	c3		 ret	 0
?LaunchVolCreationWizard@@YAXPAUHWND__@@PBD@Z ENDP	; LaunchVolCreationWizard
_TEXT	ENDS
PUBLIC	__$ArrayPad$
EXTRN	__imp__EnableWindow@8:PROC
EXTRN	__imp__GetWindowTextW@12:PROC
EXTRN	__imp__VirtualLock@8:PROC
; Function compile flags: /Ogtpy
;	COMDAT ?PasswordChangeEnable@@YAXPAUHWND__@@HHHHHH@Z
_TEXT	SEGMENT
_bEnable$ = -368					; size = 4
$T150567 = -364						; size = 4
$T150566 = -360						; size = 4
$T150549 = -356						; size = 4
$T150550 = -352						; size = 4
$T150561 = -348						; size = 4
$T150562 = -344						; size = 4
_password$ = -340					; size = 65
_newPassword$ = -272					; size = 65
_newVerify$ = -204					; size = 65
_tmpUTF16buf$ = -136					; size = 130
__$ArrayPad$ = -4					; size = 4
_button$ = 8						; size = 4
_passwordId$ = 12					; size = 4
_keyFilesEnabled$ = 16					; size = 4
_newPasswordId$ = 20					; size = 4
_newVerifyId$ = 24					; size = 4
_newKeyFilesEnabled$ = 28				; size = 4
?PasswordChangeEnable@@YAXPAUHWND__@@HHHHHH@Z PROC	; PasswordChangeEnable, COMDAT
; _hwndDlg$ = ebx

; 1341 : {

  00000	81 ec 70 01 00
	00		 sub	 esp, 368		; 00000170H
  00006	a1 00 00 00 00	 mov	 eax, DWORD PTR ___security_cookie
  0000b	33 c4		 xor	 eax, esp
  0000d	89 84 24 6c 01
	00 00		 mov	 DWORD PTR __$ArrayPad$[esp+368], eax
  00014	55		 push	 ebp
  00015	8b ac 24 80 01
	00 00		 mov	 ebp, DWORD PTR _keyFilesEnabled$[esp+368]
  0001c	56		 push	 esi
  0001d	57		 push	 edi

; 1342 : 	char password[MAX_PASSWORD + 1]={};

  0001e	6a 41		 push	 65			; 00000041H
  00020	8d 44 24 2c	 lea	 eax, DWORD PTR _password$[esp+384]
  00024	6a 00		 push	 0
  00026	50		 push	 eax
  00027	e8 00 00 00 00	 call	 _memset

; 1343 : 	char newPassword[MAX_PASSWORD + 1]={};

  0002c	6a 41		 push	 65			; 00000041H
  0002e	8d 4c 24 7c	 lea	 ecx, DWORD PTR _newPassword$[esp+396]
  00032	6a 00		 push	 0
  00034	51		 push	 ecx
  00035	e8 00 00 00 00	 call	 _memset

; 1344 : 	char newVerify[MAX_PASSWORD + 1]={};

  0003a	6a 41		 push	 65			; 00000041H
  0003c	8d 94 24 cc 00
	00 00		 lea	 edx, DWORD PTR _newVerify$[esp+408]
  00043	6a 00		 push	 0
  00045	52		 push	 edx
  00046	e8 00 00 00 00	 call	 _memset
  0004b	83 c4 24	 add	 esp, 36			; 00000024H

; 1345 : 	BOOL bEnable = TRUE;
; 1346 : 	WCHAR tmpUTF16buf[MAX_PASSWORD+1];
; 1347 : 	VirtualLock(tmpUTF16buf,sizeof(tmpUTF16buf));

  0004e	68 82 00 00 00	 push	 130			; 00000082H
  00053	8d 84 24 f8 00
	00 00		 lea	 eax, DWORD PTR _tmpUTF16buf$[esp+384]
  0005a	50		 push	 eax
  0005b	c7 44 24 14 01
	00 00 00	 mov	 DWORD PTR _bEnable$[esp+388], 1
  00063	ff 15 00 00 00
	00		 call	 DWORD PTR __imp__VirtualLock@8

; 1348 : 
; 1349 : 	GetWindowTextW(GetDlgItem (hwndDlg, passwordId), tmpUTF16buf, sizeof(tmpUTF16buf)/sizeof(*tmpUTF16buf));

  00069	8b 94 24 84 01
	00 00		 mov	 edx, DWORD PTR _passwordId$[esp+376]
  00070	6a 41		 push	 65			; 00000041H
  00072	8d 8c 24 f8 00
	00 00		 lea	 ecx, DWORD PTR _tmpUTF16buf$[esp+384]
  00079	51		 push	 ecx
  0007a	52		 push	 edx
  0007b	53		 push	 ebx
  0007c	ff 15 00 00 00
	00		 call	 DWORD PTR __imp__GetDlgItem@8
  00082	8b 35 00 00 00
	00		 mov	 esi, DWORD PTR __imp__GetWindowTextW@12
  00088	50		 push	 eax
  00089	ff d6		 call	 esi

; 1350 : 	ConvertUTF16toUTF8s((const UTF16*)tmpUTF16buf,sizeof(tmpUTF16buf)/sizeof(*tmpUTF16buf),(UTF8*)password,sizeof(password)/sizeof(*password),strictConversion);

  0008b	6a 00		 push	 0
  0008d	8d 44 24 2c	 lea	 eax, DWORD PTR _password$[esp+384]
  00091	8d 54 24 6d	 lea	 edx, DWORD PTR _password$[esp+449]
  00095	52		 push	 edx
  00096	89 44 24 24	 mov	 DWORD PTR $T150550[esp+388], eax
  0009a	8d 8c 24 fc 00
	00 00		 lea	 ecx, DWORD PTR _tmpUTF16buf$[esp+388]
  000a1	8d 44 24 24	 lea	 eax, DWORD PTR $T150550[esp+388]
  000a5	89 4c 24 20	 mov	 DWORD PTR $T150549[esp+388], ecx
  000a9	50		 push	 eax
  000aa	8d 8c 24 04 02
	00 00		 lea	 ecx, DWORD PTR _tmpUTF16buf$[esp+652]
  000b1	51		 push	 ecx
  000b2	8d 54 24 28	 lea	 edx, DWORD PTR $T150549[esp+396]
  000b6	52		 push	 edx
  000b7	e8 00 00 00 00	 call	 _ConvertUTF16toUTF8

; 1351 : 	burn(tmpUTF16buf,sizeof(tmpUTF16buf));

  000bc	8d 94 24 08 01
	00 00		 lea	 edx, DWORD PTR _tmpUTF16buf$[esp+400]
  000c3	b9 82 00 00 00	 mov	 ecx, 130		; 00000082H
  000c8	83 c4 14	 add	 esp, 20			; 00000014H
  000cb	8b f9		 mov	 edi, ecx
  000cd	8b c2		 mov	 eax, edx
  000cf	90		 npad	 1
$LL41@PasswordCh:
  000d0	c6 00 00	 mov	 BYTE PTR [eax], 0
  000d3	40		 inc	 eax
  000d4	83 ef 01	 sub	 edi, 1
  000d7	75 f7		 jne	 SHORT $LL41@PasswordCh
  000d9	8d a4 24 00 00
	00 00		 npad	 7
$LL32@PasswordCh:
  000e0	49		 dec	 ecx
  000e1	c6 02 00	 mov	 BYTE PTR [edx], 0
  000e4	42		 inc	 edx
  000e5	85 c9		 test	 ecx, ecx
  000e7	75 f7		 jne	 SHORT $LL32@PasswordCh

; 1352 : 	if (pwdChangeDlgMode == PCDM_CHANGE_PKCS5_PRF)

  000e9	a1 00 00 00 00	 mov	 eax, DWORD PTR _pwdChangeDlgMode
  000ee	83 f8 01	 cmp	 eax, 1
  000f1	75 09		 jne	 SHORT $LN30@PasswordCh

; 1353 : 		newKeyFilesEnabled = keyFilesEnabled;

  000f3	89 ac 24 94 01
	00 00		 mov	 DWORD PTR _newKeyFilesEnabled$[esp+376], ebp

; 1354 : 
; 1355 : 	switch (pwdChangeDlgMode)

  000fa	eb 09		 jmp	 SHORT $LN104@PasswordCh
$LN30@PasswordCh:
  000fc	85 c0		 test	 eax, eax
  000fe	7e 33		 jle	 SHORT $LN26@PasswordCh
  00100	83 f8 03	 cmp	 eax, 3
  00103	7f 2e		 jg	 SHORT $LN26@PasswordCh
$LN104@PasswordCh:

; 1356 : 	{
; 1357 : 	case PCDM_REMOVE_ALL_KEYFILES_FROM_VOL:
; 1358 : 	case PCDM_ADD_REMOVE_VOL_KEYFILES:
; 1359 : 	case PCDM_CHANGE_PKCS5_PRF:
; 1360 : 		memcpy (newPassword, password, sizeof (newPassword));

  00105	b9 10 00 00 00	 mov	 ecx, 16			; 00000010H
  0010a	8d 74 24 28	 lea	 esi, DWORD PTR _password$[esp+380]
  0010e	8d 7c 24 6c	 lea	 edi, DWORD PTR _newPassword$[esp+380]
  00112	f3 a5		 rep movsd
  00114	a4		 movsb

; 1361 : 		memcpy (newVerify, password, sizeof (newVerify));

  00115	b9 10 00 00 00	 mov	 ecx, 16			; 00000010H
  0011a	8d 74 24 28	 lea	 esi, DWORD PTR _password$[esp+380]
  0011e	8d bc 24 b0 00
	00 00		 lea	 edi, DWORD PTR _newVerify$[esp+380]
  00125	f3 a5		 rep movsd
  00127	a4		 movsb

; 1362 : 		break;

  00128	8b 3d 00 00 00
	00		 mov	 edi, DWORD PTR __imp__GetDlgItem@8
  0012e	e9 d6 00 00 00	 jmp	 $LN23@PasswordCh
$LN26@PasswordCh:

; 1363 : 
; 1364 : 	default:
; 1365 : 		GetWindowTextW(GetDlgItem (hwndDlg, newPasswordId), tmpUTF16buf, sizeof(tmpUTF16buf)/sizeof(*tmpUTF16buf));

  00133	8b 8c 24 8c 01
	00 00		 mov	 ecx, DWORD PTR _newPasswordId$[esp+376]
  0013a	8b 3d 00 00 00
	00		 mov	 edi, DWORD PTR __imp__GetDlgItem@8
  00140	6a 41		 push	 65			; 00000041H
  00142	8d 84 24 f8 00
	00 00		 lea	 eax, DWORD PTR _tmpUTF16buf$[esp+384]
  00149	50		 push	 eax
  0014a	51		 push	 ecx
  0014b	53		 push	 ebx
  0014c	ff d7		 call	 edi
  0014e	50		 push	 eax
  0014f	ff d6		 call	 esi

; 1366 : 		ConvertUTF16toUTF8s((const UTF16*)tmpUTF16buf,sizeof(tmpUTF16buf)/sizeof(*tmpUTF16buf),(UTF8*)newPassword,sizeof(newPassword)/sizeof(*newPassword),strictConversion);

  00151	6a 00		 push	 0
  00153	8d 54 24 70	 lea	 edx, DWORD PTR _newPassword$[esp+384]
  00157	8d 8c 24 b1 00
	00 00		 lea	 ecx, DWORD PTR _newPassword$[esp+449]
  0015e	51		 push	 ecx
  0015f	89 54 24 2c	 mov	 DWORD PTR $T150562[esp+388], edx
  00163	8d 84 24 fc 00
	00 00		 lea	 eax, DWORD PTR _tmpUTF16buf$[esp+388]
  0016a	8d 54 24 2c	 lea	 edx, DWORD PTR $T150562[esp+388]
  0016e	89 44 24 28	 mov	 DWORD PTR $T150561[esp+388], eax
  00172	52		 push	 edx
  00173	8d 84 24 04 02
	00 00		 lea	 eax, DWORD PTR _tmpUTF16buf$[esp+652]
  0017a	50		 push	 eax
  0017b	8d 4c 24 30	 lea	 ecx, DWORD PTR $T150561[esp+396]
  0017f	51		 push	 ecx
  00180	e8 00 00 00 00	 call	 _ConvertUTF16toUTF8

; 1367 : 		GetWindowTextW(GetDlgItem (hwndDlg, newVerifyId), tmpUTF16buf, sizeof(tmpUTF16buf)/sizeof(*tmpUTF16buf));

  00185	8b 84 24 a4 01
	00 00		 mov	 eax, DWORD PTR _newVerifyId$[esp+396]
  0018c	83 c4 14	 add	 esp, 20			; 00000014H
  0018f	6a 41		 push	 65			; 00000041H
  00191	8d 94 24 f8 00
	00 00		 lea	 edx, DWORD PTR _tmpUTF16buf$[esp+384]
  00198	52		 push	 edx
  00199	50		 push	 eax
  0019a	53		 push	 ebx
  0019b	ff d7		 call	 edi
  0019d	50		 push	 eax
  0019e	ff d6		 call	 esi

; 1368 : 		ConvertUTF16toUTF8s((const UTF16*)tmpUTF16buf,sizeof(tmpUTF16buf)/sizeof(*tmpUTF16buf),(UTF8*)newVerify,sizeof(newVerify)/sizeof(*newVerify),strictConversion);

  001a0	6a 00		 push	 0
  001a2	8d 8c 24 b4 00
	00 00		 lea	 ecx, DWORD PTR _newVerify$[esp+384]
  001a9	8d 84 24 f5 00
	00 00		 lea	 eax, DWORD PTR _newVerify$[esp+449]
  001b0	50		 push	 eax
  001b1	89 4c 24 18	 mov	 DWORD PTR $T150567[esp+388], ecx
  001b5	8d 94 24 fc 00
	00 00		 lea	 edx, DWORD PTR _tmpUTF16buf$[esp+388]
  001bc	8d 4c 24 18	 lea	 ecx, DWORD PTR $T150567[esp+388]
  001c0	89 54 24 1c	 mov	 DWORD PTR $T150566[esp+388], edx
  001c4	51		 push	 ecx
  001c5	8d 94 24 04 02
	00 00		 lea	 edx, DWORD PTR _tmpUTF16buf$[esp+652]
  001cc	52		 push	 edx
  001cd	8d 44 24 24	 lea	 eax, DWORD PTR $T150566[esp+396]
  001d1	50		 push	 eax
  001d2	e8 00 00 00 00	 call	 _ConvertUTF16toUTF8

; 1369 : 		burn(tmpUTF16buf,sizeof(tmpUTF16buf));

  001d7	8d 94 24 08 01
	00 00		 lea	 edx, DWORD PTR _tmpUTF16buf$[esp+400]
  001de	b9 82 00 00 00	 mov	 ecx, 130		; 00000082H
  001e3	83 c4 14	 add	 esp, 20			; 00000014H
  001e6	8b f1		 mov	 esi, ecx
  001e8	8b c2		 mov	 eax, edx
  001ea	8d 9b 00 00 00
	00		 npad	 6
$LL49@PasswordCh:
  001f0	c6 00 00	 mov	 BYTE PTR [eax], 0
  001f3	40		 inc	 eax
  001f4	83 ee 01	 sub	 esi, 1
  001f7	75 f7		 jne	 SHORT $LL49@PasswordCh
  001f9	8d a4 24 00 00
	00 00		 npad	 7
$LL22@PasswordCh:
  00200	49		 dec	 ecx
  00201	c6 02 00	 mov	 BYTE PTR [edx], 0
  00204	42		 inc	 edx
  00205	85 c9		 test	 ecx, ecx
  00207	75 f7		 jne	 SHORT $LL22@PasswordCh
$LN23@PasswordCh:

; 1370 : 	}
; 1371 : 
; 1372 : 	if (!keyFilesEnabled && strlen (password) < MIN_PASSWORD)

  00209	33 f6		 xor	 esi, esi
  0020b	3b ee		 cmp	 ebp, esi
  0020d	75 15		 jne	 SHORT $LN124@PasswordCh
  0020f	8d 44 24 28	 lea	 eax, DWORD PTR _password$[esp+380]
  00213	8d 50 01	 lea	 edx, DWORD PTR [eax+1]
$LL105@PasswordCh:
  00216	8a 08		 mov	 cl, BYTE PTR [eax]
  00218	40		 inc	 eax
  00219	84 c9		 test	 cl, cl
  0021b	75 f9		 jne	 SHORT $LL105@PasswordCh
  0021d	2b c2		 sub	 eax, edx
  0021f	83 f8 01	 cmp	 eax, 1

; 1373 : 		bEnable = FALSE;

  00222	72 5a		 jb	 SHORT $LN138@PasswordCh
$LN124@PasswordCh:

; 1374 : 	else if (strcmp (newPassword, newVerify) != 0)

  00224	8d 94 24 b0 00
	00 00		 lea	 edx, DWORD PTR _newVerify$[esp+380]
  0022b	8d 4c 24 6c	 lea	 ecx, DWORD PTR _newPassword$[esp+380]
  0022f	90		 npad	 1
$LL106@PasswordCh:
  00230	8a 01		 mov	 al, BYTE PTR [ecx]
  00232	3a 02		 cmp	 al, BYTE PTR [edx]
  00234	75 1a		 jne	 SHORT $LN107@PasswordCh
  00236	84 c0		 test	 al, al
  00238	74 12		 je	 SHORT $LN108@PasswordCh
  0023a	8a 41 01	 mov	 al, BYTE PTR [ecx+1]
  0023d	3a 42 01	 cmp	 al, BYTE PTR [edx+1]
  00240	75 0e		 jne	 SHORT $LN107@PasswordCh
  00242	83 c1 02	 add	 ecx, 2
  00245	83 c2 02	 add	 edx, 2
  00248	84 c0		 test	 al, al
  0024a	75 e4		 jne	 SHORT $LL106@PasswordCh
$LN108@PasswordCh:
  0024c	33 c0		 xor	 eax, eax
  0024e	eb 05		 jmp	 SHORT $LN109@PasswordCh
$LN107@PasswordCh:
  00250	1b c0		 sbb	 eax, eax
  00252	83 d8 ff	 sbb	 eax, -1
$LN109@PasswordCh:
  00255	3b c6		 cmp	 eax, esi

; 1375 : 		bEnable = FALSE;

  00257	75 25		 jne	 SHORT $LN138@PasswordCh

; 1376 : 	else if (!newKeyFilesEnabled && strlen (newPassword) < MIN_PASSWORD)

  00259	39 b4 24 94 01
	00 00		 cmp	 DWORD PTR _newKeyFilesEnabled$[esp+376], esi
  00260	75 20		 jne	 SHORT $LN15@PasswordCh
  00262	8d 44 24 6c	 lea	 eax, DWORD PTR _newPassword$[esp+380]
  00266	8d 50 01	 lea	 edx, DWORD PTR [eax+1]
  00269	8d a4 24 00 00
	00 00		 npad	 7
$LL110@PasswordCh:
  00270	8a 08		 mov	 cl, BYTE PTR [eax]
  00272	40		 inc	 eax
  00273	84 c9		 test	 cl, cl
  00275	75 f9		 jne	 SHORT $LL110@PasswordCh
  00277	2b c2		 sub	 eax, edx
  00279	83 f8 01	 cmp	 eax, 1
  0027c	73 04		 jae	 SHORT $LN15@PasswordCh
$LN138@PasswordCh:

; 1377 : 		bEnable = FALSE;

  0027e	89 74 24 0c	 mov	 DWORD PTR _bEnable$[esp+380], esi
$LN15@PasswordCh:

; 1378 : 
; 1379 : 	burn (password, sizeof (password));

  00282	8d 54 24 28	 lea	 edx, DWORD PTR _password$[esp+380]
  00286	b9 41 00 00 00	 mov	 ecx, 65			; 00000041H
  0028b	8b f1		 mov	 esi, ecx
  0028d	8b c2		 mov	 eax, edx
  0028f	90		 npad	 1
$LL53@PasswordCh:
  00290	c6 00 00	 mov	 BYTE PTR [eax], 0
  00293	40		 inc	 eax
  00294	83 ee 01	 sub	 esi, 1
  00297	75 f7		 jne	 SHORT $LL53@PasswordCh
  00299	8d a4 24 00 00
	00 00		 npad	 7
$LL12@PasswordCh:
  002a0	49		 dec	 ecx
  002a1	c6 02 00	 mov	 BYTE PTR [edx], 0
  002a4	42		 inc	 edx
  002a5	85 c9		 test	 ecx, ecx
  002a7	75 f7		 jne	 SHORT $LL12@PasswordCh

; 1380 : 	burn (newPassword, sizeof (newPassword));

  002a9	8d 54 24 6c	 lea	 edx, DWORD PTR _newPassword$[esp+380]
  002ad	b9 41 00 00 00	 mov	 ecx, 65			; 00000041H
  002b2	8b f1		 mov	 esi, ecx
  002b4	8b c2		 mov	 eax, edx
$LL57@PasswordCh:
  002b6	c6 00 00	 mov	 BYTE PTR [eax], 0
  002b9	40		 inc	 eax
  002ba	83 ee 01	 sub	 esi, 1
  002bd	75 f7		 jne	 SHORT $LL57@PasswordCh
  002bf	90		 npad	 1
$LL7@PasswordCh:
  002c0	49		 dec	 ecx
  002c1	c6 02 00	 mov	 BYTE PTR [edx], 0
  002c4	42		 inc	 edx
  002c5	85 c9		 test	 ecx, ecx
  002c7	75 f7		 jne	 SHORT $LL7@PasswordCh

; 1381 : 	burn (newVerify, sizeof (newVerify));

  002c9	8d 94 24 b0 00
	00 00		 lea	 edx, DWORD PTR _newVerify$[esp+380]
  002d0	b9 41 00 00 00	 mov	 ecx, 65			; 00000041H
  002d5	8b f1		 mov	 esi, ecx
  002d7	8b c2		 mov	 eax, edx
  002d9	8d a4 24 00 00
	00 00		 npad	 7
$LL61@PasswordCh:
  002e0	c6 00 00	 mov	 BYTE PTR [eax], 0
  002e3	40		 inc	 eax
  002e4	83 ee 01	 sub	 esi, 1
  002e7	75 f7		 jne	 SHORT $LL61@PasswordCh
  002e9	8d a4 24 00 00
	00 00		 npad	 7
$LL2@PasswordCh:
  002f0	49		 dec	 ecx
  002f1	c6 02 00	 mov	 BYTE PTR [edx], 0
  002f4	42		 inc	 edx
  002f5	85 c9		 test	 ecx, ecx
  002f7	75 f7		 jne	 SHORT $LL2@PasswordCh

; 1382 : 
; 1383 : 	EnableWindow (GetDlgItem (hwndDlg, button), bEnable);

  002f9	8b 4c 24 0c	 mov	 ecx, DWORD PTR _bEnable$[esp+380]
  002fd	8b 94 24 80 01
	00 00		 mov	 edx, DWORD PTR _button$[esp+376]
  00304	51		 push	 ecx
  00305	52		 push	 edx
  00306	53		 push	 ebx
  00307	ff d7		 call	 edi
  00309	50		 push	 eax
  0030a	ff 15 00 00 00
	00		 call	 DWORD PTR __imp__EnableWindow@8

; 1384 : }

  00310	8b 8c 24 78 01
	00 00		 mov	 ecx, DWORD PTR __$ArrayPad$[esp+380]
  00317	5f		 pop	 edi
  00318	5e		 pop	 esi
  00319	5d		 pop	 ebp
  0031a	33 cc		 xor	 ecx, esp
  0031c	e8 00 00 00 00	 call	 @__security_check_cookie@4
  00321	81 c4 70 01 00
	00		 add	 esp, 368		; 00000170H
  00327	c3		 ret	 0
?PasswordChangeEnable@@YAXPAUHWND__@@HHHHHH@Z ENDP	; PasswordChangeEnable
_TEXT	ENDS
PUBLIC	??_C@_0BB@MMDPAFIK@CANNOT_SET_TIMER?$AA@	; `string'
PUBLIC	??_C@_0BK@EBNLJAJI@IDD_PCDM_CHANGE_PKCS5_PRF?$AA@ ; `string'
PUBLIC	??_C@_0CB@POIELMAL@IDD_PCDM_ADD_REMOVE_VOL_KEYFILES@ ; `string'
PUBLIC	??_C@_0CG@JOKOOJHO@IDD_PCDM_REMOVE_ALL_KEYFILES_FRO@ ; `string'
PUBLIC	??_C@_09ECKOGGEP@UNCHANGED?$AA@			; `string'
PUBLIC	??_C@_0BH@OAALJAFL@IDD_PASSWORDCHANGE_DLG?$AA@	; `string'
PUBLIC	??_C@_0BJ@CPHEENHA@UNSUPPORTED_CHARS_IN_PWD?$AA@ ; `string'
PUBLIC	??_C@_0CG@FCGANOF@ALGO_NOT_SUPPORTED_FOR_SYS_ENCRY@ ; `string'
PUBLIC	??_C@_0CK@PHDAOPJF@KEYFILES_NOT_SUPPORTED_FOR_SYS_E@ ; `string'
PUBLIC	??_C@_0CF@OEJEFNLJ@ALT_KEY_CHARS_NOT_FOR_SYS_ENCRYP@ ; `string'
PUBLIC	??_C@_0CA@HGCGAMEK@KEYB_LAYOUT_SYS_ENC_EXPLANATION?$AA@ ; `string'
PUBLIC	??_C@_15IABLJNFO@?$AA?6?$AA?6?$AA?$AA@		; `string'
PUBLIC	??_C@_0BN@MNCKOJDH@KEYB_LAYOUT_CHANGE_PREVENTED?$AA@ ; `string'
PUBLIC	??_C@_0CL@KAEHBIEI@CANT_CHANGE_KEYB_LAYOUT_FOR_SYS_@ ; `string'
PUBLIC	??_C@_08OKJEGFFL@00000409?$AA@			; `string'
PUBLIC	??_C@_11LOCGONAA@?$AA?$AA@			; `string'
PUBLIC	_hwndDlg$GSCopy$
PUBLIC	__$ArrayPad$
PUBLIC	_PasswordChangeDlgProc@16
EXTRN	_CheckCapsLock:PROC
EXTRN	__imp__SetTimer@16:PROC
EXTRN	__imp__ShowWindow@8:PROC
EXTRN	_ToBootPwdField:PROC
EXTRN	_get_pkcs5_prf_name:PROC
EXTRN	_HashIsDeprecated:PROC
EXTRN	__imp__SendMessageW@16:PROC
EXTRN	_LocalizeDialog:PROC
EXTRN	_KeyFileRemoveAll:PROC
EXTRN	_NormalCursor:PROC
EXTRN	_UacChangePwd:PROC
EXTRN	_IsVolumeDeviceHosted:PROC
EXTRN	_IsUacSupported:PROC
EXTRN	__imp__GetLastError@0:PROC
EXTRN	_ChangePwd:PROC
EXTRN	?ChangePassword@BootEncryption@CipherShed@@QAEHPAUPassword@@0H@Z:PROC ; CipherShed::BootEncryption::ChangePassword
EXTRN	_KeyFilesApply:PROC
EXTRN	_WaitCursor:PROC
EXTRN	_CheckPasswordLength:PROC
EXTRN	_CheckPasswordCharEncoding:PROC
EXTRN	__imp__GetParent@4:PROC
EXTRN	__imp__InvalidateRect@12:PROC
EXTRN	_SelectAlgo:PROC
EXTRN	_Info:PROC
EXTRN	__imp__SendMessageA@16:PROC
EXTRN	_GetCheckBox:PROC
EXTRN	_VerifyPasswordAndUpdate2:PROC
EXTRN	_SetCheckBox:PROC
EXTRN	__imp__DialogBoxParamW@20:PROC
EXTRN	_hInst:DWORD
EXTRN	_KeyFilesDlgProc@16:PROC
EXTRN	_Warning:PROC
EXTRN	_FirstKeyFile:DWORD
EXTRN	_KeyFilesEnable:DWORD
EXTRN	_RestoreDefaultKeyFilesParam:PROC
EXTRN	__imp__GetAsyncKeyState@4:PROC
EXTRN	__imp__MessageBoxW@16:PROC
EXTRN	_lpszTitle:DWORD
EXTRN	__imp__EndDialog@8:PROC
EXTRN	__imp__KillTimer@8:PROC
EXTRN	__imp__LoadKeyboardLayoutA@8:PROC
EXTRN	__imp__SetWindowTextW@8:PROC
EXTRN	__imp__GetKeyboardLayout@4:PROC
EXTRN	__chkstk:PROC
;	COMDAT ?newKeyFilesParam@?1??PasswordChangeDlgProc@@9@16@4UKeyFilesDlgParam@@A
; File c:\program files\microsoft sdks\windows\v7.0\include\winnt.h
_BSS	SEGMENT
?newKeyFilesParam@?1??PasswordChangeDlgProc@@9@16@4UKeyFilesDlgParam@@A DQ 01H DUP (?) ; `PasswordChangeDlgProc'::`2'::newKeyFilesParam
_BSS	ENDS
;	COMDAT ??_C@_0BB@MMDPAFIK@CANNOT_SET_TIMER?$AA@
CONST	SEGMENT
??_C@_0BB@MMDPAFIK@CANNOT_SET_TIMER?$AA@ DB 'CANNOT_SET_TIMER', 00H ; `string'
CONST	ENDS
;	COMDAT ??_C@_0BK@EBNLJAJI@IDD_PCDM_CHANGE_PKCS5_PRF?$AA@
CONST	SEGMENT
??_C@_0BK@EBNLJAJI@IDD_PCDM_CHANGE_PKCS5_PRF?$AA@ DB 'IDD_PCDM_CHANGE_PKC'
	DB	'S5_PRF', 00H				; `string'
CONST	ENDS
;	COMDAT ??_C@_0CB@POIELMAL@IDD_PCDM_ADD_REMOVE_VOL_KEYFILES@
CONST	SEGMENT
??_C@_0CB@POIELMAL@IDD_PCDM_ADD_REMOVE_VOL_KEYFILES@ DB 'IDD_PCDM_ADD_REM'
	DB	'OVE_VOL_KEYFILES', 00H			; `string'
CONST	ENDS
;	COMDAT ??_C@_0CG@JOKOOJHO@IDD_PCDM_REMOVE_ALL_KEYFILES_FRO@
CONST	SEGMENT
??_C@_0CG@JOKOOJHO@IDD_PCDM_REMOVE_ALL_KEYFILES_FRO@ DB 'IDD_PCDM_REMOVE_'
	DB	'ALL_KEYFILES_FROM_VOL', 00H			; `string'
CONST	ENDS
;	COMDAT ??_C@_09ECKOGGEP@UNCHANGED?$AA@
CONST	SEGMENT
??_C@_09ECKOGGEP@UNCHANGED?$AA@ DB 'UNCHANGED', 00H	; `string'
CONST	ENDS
;	COMDAT ??_C@_0BH@OAALJAFL@IDD_PASSWORDCHANGE_DLG?$AA@
CONST	SEGMENT
??_C@_0BH@OAALJAFL@IDD_PASSWORDCHANGE_DLG?$AA@ DB 'IDD_PASSWORDCHANGE_DLG'
	DB	00H						; `string'
CONST	ENDS
;	COMDAT ??_C@_0BJ@CPHEENHA@UNSUPPORTED_CHARS_IN_PWD?$AA@
CONST	SEGMENT
??_C@_0BJ@CPHEENHA@UNSUPPORTED_CHARS_IN_PWD?$AA@ DB 'UNSUPPORTED_CHARS_IN'
	DB	'_PWD', 00H					; `string'
CONST	ENDS
;	COMDAT ??_C@_0CG@FCGANOF@ALGO_NOT_SUPPORTED_FOR_SYS_ENCRY@
CONST	SEGMENT
??_C@_0CG@FCGANOF@ALGO_NOT_SUPPORTED_FOR_SYS_ENCRY@ DB 'ALGO_NOT_SUPPORTE'
	DB	'D_FOR_SYS_ENCRYPTION', 00H			; `string'
CONST	ENDS
;	COMDAT ??_C@_0CK@PHDAOPJF@KEYFILES_NOT_SUPPORTED_FOR_SYS_E@
CONST	SEGMENT
??_C@_0CK@PHDAOPJF@KEYFILES_NOT_SUPPORTED_FOR_SYS_E@ DB 'KEYFILES_NOT_SUP'
	DB	'PORTED_FOR_SYS_ENCRYPTION', 00H		; `string'
CONST	ENDS
;	COMDAT ??_C@_0CF@OEJEFNLJ@ALT_KEY_CHARS_NOT_FOR_SYS_ENCRYP@
CONST	SEGMENT
??_C@_0CF@OEJEFNLJ@ALT_KEY_CHARS_NOT_FOR_SYS_ENCRYP@ DB 'ALT_KEY_CHARS_NO'
	DB	'T_FOR_SYS_ENCRYPTION', 00H			; `string'
CONST	ENDS
;	COMDAT ??_C@_0CA@HGCGAMEK@KEYB_LAYOUT_SYS_ENC_EXPLANATION?$AA@
CONST	SEGMENT
??_C@_0CA@HGCGAMEK@KEYB_LAYOUT_SYS_ENC_EXPLANATION?$AA@ DB 'KEYB_LAYOUT_S'
	DB	'YS_ENC_EXPLANATION', 00H			; `string'
CONST	ENDS
;	COMDAT ??_C@_15IABLJNFO@?$AA?6?$AA?6?$AA?$AA@
CONST	SEGMENT
??_C@_15IABLJNFO@?$AA?6?$AA?6?$AA?$AA@ DB 0aH, 00H, 0aH, 00H, 00H, 00H ; `string'
CONST	ENDS
;	COMDAT ??_C@_0BN@MNCKOJDH@KEYB_LAYOUT_CHANGE_PREVENTED?$AA@
CONST	SEGMENT
??_C@_0BN@MNCKOJDH@KEYB_LAYOUT_CHANGE_PREVENTED?$AA@ DB 'KEYB_LAYOUT_CHAN'
	DB	'GE_PREVENTED', 00H				; `string'
CONST	ENDS
;	COMDAT ??_C@_0CL@KAEHBIEI@CANT_CHANGE_KEYB_LAYOUT_FOR_SYS_@
CONST	SEGMENT
??_C@_0CL@KAEHBIEI@CANT_CHANGE_KEYB_LAYOUT_FOR_SYS_@ DB 'CANT_CHANGE_KEYB'
	DB	'_LAYOUT_FOR_SYS_ENCRYPTION', 00H		; `string'
CONST	ENDS
;	COMDAT ??_C@_08OKJEGFFL@00000409?$AA@
CONST	SEGMENT
??_C@_08OKJEGFFL@00000409?$AA@ DB '00000409', 00H	; `string'
CONST	ENDS
;	COMDAT ??_C@_11LOCGONAA@?$AA?$AA@
CONST	SEGMENT
??_C@_11LOCGONAA@?$AA?$AA@ DB 00H, 00H			; `string'
CONST	ENDS
;	COMDAT xdata$x
xdata$x	SEGMENT
__catchsym$_PasswordChangeDlgProc@16$3 DD 08H
	DD	FLAT:??_R0?AUException@CipherShed@@@8
	DD	0ffffffd8H
	DD	FLAT:__catch$_PasswordChangeDlgProc@16$1
__unwindtable$_PasswordChangeDlgProc@16 DD 0ffffffffH
	DD	00H
	DD	0ffffffffH
	DD	00H
__tryblocktable$_PasswordChangeDlgProc@16 DD 00H
	DD	00H
	DD	01H
	DD	01H
	DD	FLAT:__catchsym$_PasswordChangeDlgProc@16$3
__ehfuncinfo$_PasswordChangeDlgProc@16 DD 019930522H
	DD	02H
	DD	FLAT:__unwindtable$_PasswordChangeDlgProc@16
	DD	01H
	DD	FLAT:__tryblocktable$_PasswordChangeDlgProc@16
	DD	2 DUP(00H)
	DD	00H
	DD	01H
; Function compile flags: /Ogtpy
; File c:\users\public\desktop\projects\ciphershed\src\mount\mount.c
xdata$x	ENDS
;	COMDAT _PasswordChangeDlgProc@16
_TEXT	SEGMENT
_e$136502 = -40						; size = 4
_hwndDlg$GSCopy$ = -36					; size = 4
_param$136421 = -32					; size = 8
_hParent$136452 = -24					; size = 4
_new_hash_algo_id$136447 = -24				; size = 4
_i$136359 = -24						; size = 4
_nStatus$136455 = -20					; size = 4
_pkcs5$136456 = -20					; size = 4
_hComboBox$136358 = -20					; size = 4
__$EHRec$ = -16						; size = 16
_oldPassword$136453 = 0					; size = 72
_newPassword$136454 = 72				; size = 72
_szTmp$136406 = 144					; size = 8192
_szTmp$136412 = 8336					; size = 8192
_tmp$136524 = 16528					; size = 130
_tmp$136416 = 16660					; size = 130
_tmp$136402 = 16792					; size = 130
_tmpUTF16buf$136457 = 16924				; size = 130
__$ArrayPad$ = 17056					; size = 4
_hwndDlg$ = 17068					; size = 4
_msg$ = 17072						; size = 4
_wParam$ = 17076					; size = 4
_lParam$ = 17080					; size = 4
_PasswordChangeDlgProc@16 PROC				; COMDAT

; 1391 : {

  00000	55		 push	 ebp
  00001	8d ac 24 5c bd
	ff ff		 lea	 ebp, DWORD PTR [esp-17060]
  00008	b8 a4 42 00 00	 mov	 eax, 17060		; 000042a4H
  0000d	e8 00 00 00 00	 call	 __chkstk
  00012	6a ff		 push	 -1
  00014	68 00 00 00 00	 push	 __ehhandler$_PasswordChangeDlgProc@16
  00019	64 a1 00 00 00
	00		 mov	 eax, DWORD PTR fs:0
  0001f	50		 push	 eax
  00020	83 ec 1c	 sub	 esp, 28			; 0000001cH
  00023	a1 00 00 00 00	 mov	 eax, DWORD PTR ___security_cookie
  00028	33 c5		 xor	 eax, ebp
  0002a	89 85 a0 42 00
	00		 mov	 DWORD PTR __$ArrayPad$[ebp], eax
  00030	53		 push	 ebx
  00031	56		 push	 esi
  00032	57		 push	 edi
  00033	50		 push	 eax
  00034	8d 45 f4	 lea	 eax, DWORD PTR __$EHRec$[ebp+4]
  00037	64 a3 00 00 00
	00		 mov	 DWORD PTR fs:0, eax
  0003d	89 65 f0	 mov	 DWORD PTR __$EHRec$[ebp], esp

; 1392 : 	static KeyFilesDlgParam newKeyFilesParam;
; 1393 : 
; 1394 : 	WORD lw = LOWORD (wParam);
; 1395 : 	WORD hw = HIWORD (wParam);

  00040	8b 85 b4 42 00
	00		 mov	 eax, DWORD PTR _wParam$[ebp]

; 1396 : 
; 1397 : 	switch (msg)

  00046	8b 8d b0 42 00
	00		 mov	 ecx, DWORD PTR _msg$[ebp]
  0004c	8b 9d ac 42 00
	00		 mov	 ebx, DWORD PTR _hwndDlg$[ebp]
  00052	8b d0		 mov	 edx, eax
  00054	c1 ea 10	 shr	 edx, 16			; 00000010H
  00057	81 e9 10 01 00
	00		 sub	 ecx, 272		; 00000110H
  0005d	89 5d dc	 mov	 DWORD PTR _hwndDlg$GSCopy$[ebp], ebx
  00060	0f 84 0b 0b 00
	00		 je	 $LN84@PasswordCh@2
  00066	83 e9 01	 sub	 ecx, 1
  00069	0f 84 cd 02 00
	00		 je	 $LN60@PasswordCh@2
  0006f	83 e9 02	 sub	 ecx, 2

; 1877 : 		}
; 1878 : 		return 0;
; 1879 : 	}
; 1880 : 
; 1881 : 	return 0;

  00072	0f 85 30 0f 00
	00		 jne	 $LN202@PasswordCh@2

; 1525 : 		}
; 1526 : 
; 1527 : 	case WM_TIMER:
; 1528 : 		switch (wParam)

  00078	3d 00 01 00 00	 cmp	 eax, 256		; 00000100H

; 1590 : 		}
; 1591 : 		return 0;

  0007d	0f 85 25 0f 00
	00		 jne	 $LN202@PasswordCh@2

; 1529 : 		{
; 1530 : 		case TIMER_ID_KEYB_LAYOUT_GUARD:
; 1531 : 			if (bSysEncPwdChangeDlgMode)

  00083	39 0d 00 00 00
	00		 cmp	 DWORD PTR _bSysEncPwdChangeDlgMode, ecx
  00089	0f 84 a3 02 00
	00		 je	 $LN61@PasswordCh@2

; 1532 : 			{
; 1533 : 				DWORD keybLayout = (DWORD) GetKeyboardLayout (NULL);

  0008f	51		 push	 ecx
  00090	ff 15 00 00 00
	00		 call	 DWORD PTR __imp__GetKeyboardLayout@4

; 1534 : 
; 1535 : 				/* Watch the keyboard layout */
; 1536 : 
; 1537 : 				if (keybLayout != 0x00000409 && keybLayout != 0x04090409)

  00096	3d 09 04 00 00	 cmp	 eax, 1033		; 00000409H
  0009b	0f 84 a1 01 00
	00		 je	 $LN64@PasswordCh@2
  000a1	3d 09 04 09 04	 cmp	 eax, 67699721		; 04090409H
  000a6	0f 84 96 01 00
	00		 je	 $LN64@PasswordCh@2

; 1538 : 				{
; 1539 : 					// Keyboard layout is not standard US
; 1540 : 
; 1541 : 					// Attempt to wipe passwords stored in the input field buffers
; 1542 : 					WCHAR tmp[MAX_PASSWORD+1];
; 1543 : 					memset (tmp, 0x20, sizeof(tmp)); //0x20 = ASCII space or 0x2020 = Unicode DAGGER

  000ac	68 82 00 00 00	 push	 130			; 00000082H
  000b1	8d 85 98 41 00
	00		 lea	 eax, DWORD PTR _tmp$136402[ebp]
  000b7	6a 20		 push	 32			; 00000020H
  000b9	50		 push	 eax
  000ba	e8 00 00 00 00	 call	 _memset

; 1544 : 					tmp [MAX_PASSWORD] = 0;
; 1545 : 					SetWindowTextW(GetDlgItem (hwndDlg, IDC_OLD_PASSWORD), tmp);

  000bf	8b 35 00 00 00
	00		 mov	 esi, DWORD PTR __imp__GetDlgItem@8
  000c5	83 c4 0c	 add	 esp, 12			; 0000000cH
  000c8	8d 95 98 41 00
	00		 lea	 edx, DWORD PTR _tmp$136402[ebp]
  000ce	52		 push	 edx
  000cf	68 ec 03 00 00	 push	 1004			; 000003ecH
  000d4	33 c9		 xor	 ecx, ecx
  000d6	53		 push	 ebx
  000d7	66 89 8d 18 42
	00 00		 mov	 WORD PTR _tmp$136402[ebp+128], cx
  000de	ff d6		 call	 esi
  000e0	8b 3d 00 00 00
	00		 mov	 edi, DWORD PTR __imp__SetWindowTextW@8
  000e6	50		 push	 eax
  000e7	ff d7		 call	 edi

; 1546 : 					SetWindowTextW(GetDlgItem (hwndDlg, IDC_PASSWORD), tmp);

  000e9	8d 85 98 41 00
	00		 lea	 eax, DWORD PTR _tmp$136402[ebp]
  000ef	50		 push	 eax
  000f0	68 0b 04 00 00	 push	 1035			; 0000040bH
  000f5	53		 push	 ebx
  000f6	ff d6		 call	 esi
  000f8	50		 push	 eax
  000f9	ff d7		 call	 edi

; 1547 : 					SetWindowTextW(GetDlgItem (hwndDlg, IDC_VERIFY), tmp);

  000fb	8d 8d 98 41 00
	00		 lea	 ecx, DWORD PTR _tmp$136402[ebp]
  00101	51		 push	 ecx
  00102	68 ea 03 00 00	 push	 1002			; 000003eaH
  00107	53		 push	 ebx
  00108	ff d6		 call	 esi
  0010a	50		 push	 eax
  0010b	ff d7		 call	 edi

; 1548 : 
; 1549 : 					SetWindowTextW(GetDlgItem (hwndDlg, IDC_OLD_PASSWORD), L"");

  0010d	68 00 00 00 00	 push	 OFFSET ??_C@_11LOCGONAA@?$AA?$AA@
  00112	68 ec 03 00 00	 push	 1004			; 000003ecH
  00117	53		 push	 ebx
  00118	ff d6		 call	 esi
  0011a	50		 push	 eax
  0011b	ff d7		 call	 edi

; 1550 : 					SetWindowTextW(GetDlgItem (hwndDlg, IDC_PASSWORD), L"");

  0011d	68 00 00 00 00	 push	 OFFSET ??_C@_11LOCGONAA@?$AA?$AA@
  00122	68 0b 04 00 00	 push	 1035			; 0000040bH
  00127	53		 push	 ebx
  00128	ff d6		 call	 esi
  0012a	50		 push	 eax
  0012b	ff d7		 call	 edi

; 1551 : 					SetWindowTextW(GetDlgItem (hwndDlg, IDC_VERIFY), L"");

  0012d	68 00 00 00 00	 push	 OFFSET ??_C@_11LOCGONAA@?$AA?$AA@
  00132	68 ea 03 00 00	 push	 1002			; 000003eaH
  00137	53		 push	 ebx
  00138	ff d6		 call	 esi
  0013a	50		 push	 eax
  0013b	ff d7		 call	 edi

; 1552 : 
; 1553 : 					keybLayout = (DWORD) LoadKeyboardLayout ("00000409", KLF_ACTIVATE);

  0013d	6a 01		 push	 1
  0013f	68 00 00 00 00	 push	 OFFSET ??_C@_08OKJEGFFL@00000409?$AA@
  00144	ff 15 00 00 00
	00		 call	 DWORD PTR __imp__LoadKeyboardLayoutA@8

; 1554 : 
; 1555 : 					if (keybLayout != 0x00000409 && keybLayout != 0x04090409)

  0014a	3d 09 04 00 00	 cmp	 eax, 1033		; 00000409H
  0014f	74 33		 je	 SHORT $LN63@PasswordCh@2
  00151	3d 09 04 09 04	 cmp	 eax, 67699721		; 04090409H
  00156	74 2c		 je	 SHORT $LN63@PasswordCh@2

; 1556 : 					{
; 1557 : 						KillTimer (hwndDlg, TIMER_ID_KEYB_LAYOUT_GUARD);

  00158	68 00 01 00 00	 push	 256			; 00000100H
  0015d	53		 push	 ebx
  0015e	ff 15 00 00 00
	00		 call	 DWORD PTR __imp__KillTimer@8

; 1558 : 						Error ("CANT_CHANGE_KEYB_LAYOUT_FOR_SYS_ENCRYPTION");

  00164	68 00 00 00 00	 push	 OFFSET ??_C@_0CL@KAEHBIEI@CANT_CHANGE_KEYB_LAYOUT_FOR_SYS_@
  00169	e8 00 00 00 00	 call	 _Error
  0016e	83 c4 04	 add	 esp, 4

; 1559 : 						EndDialog (hwndDlg, IDCANCEL);

  00171	6a 02		 push	 2
  00173	53		 push	 ebx
  00174	ff 15 00 00 00
	00		 call	 DWORD PTR __imp__EndDialog@8
$LN207@PasswordCh@2:

; 1560 : 						return 1;

  0017a	b8 01 00 00 00	 mov	 eax, 1
  0017f	e9 26 0e 00 00	 jmp	 $LN87@PasswordCh@2
$LN63@PasswordCh@2:

; 1561 : 					}
; 1562 : 
; 1563 : 					bKeyboardLayoutChanged = TRUE;
; 1564 : 
; 1565 : 					wchar_t szTmp [4096];
; 1566 : 					wcscpy (szTmp, GetString ("KEYB_LAYOUT_CHANGE_PREVENTED"));

  00184	68 00 00 00 00	 push	 OFFSET ??_C@_0BN@MNCKOJDH@KEYB_LAYOUT_CHANGE_PREVENTED?$AA@
  00189	c7 05 00 00 00
	00 01 00 00 00	 mov	 DWORD PTR ?bKeyboardLayoutChanged@@3HA, 1 ; bKeyboardLayoutChanged
  00193	e8 00 00 00 00	 call	 _GetString
  00198	83 c4 04	 add	 esp, 4
  0019b	8d 95 90 00 00
	00		 lea	 edx, DWORD PTR _szTmp$136406[ebp]
$LL89@PasswordCh@2:
  001a1	0f b7 08	 movzx	 ecx, WORD PTR [eax]
  001a4	66 89 0a	 mov	 WORD PTR [edx], cx
  001a7	83 c0 02	 add	 eax, 2
  001aa	83 c2 02	 add	 edx, 2
  001ad	66 85 c9	 test	 cx, cx
  001b0	75 ef		 jne	 SHORT $LL89@PasswordCh@2

; 1567 : 					wcscat (szTmp, L"\n\n");

  001b2	8d 85 90 00 00
	00		 lea	 eax, DWORD PTR _szTmp$136406[ebp]
  001b8	83 c0 fe	 add	 eax, -2			; fffffffeH
  001bb	eb 03 8d 49 00	 npad	 5
$LL172@PasswordCh@2:
  001c0	66 8b 48 02	 mov	 cx, WORD PTR [eax+2]
  001c4	83 c0 02	 add	 eax, 2
  001c7	66 85 c9	 test	 cx, cx
  001ca	75 f4		 jne	 SHORT $LL172@PasswordCh@2
  001cc	8b 15 00 00 00
	00		 mov	 edx, DWORD PTR ??_C@_15IABLJNFO@?$AA?6?$AA?6?$AA?$AA@
  001d2	66 8b 0d 04 00
	00 00		 mov	 cx, WORD PTR ??_C@_15IABLJNFO@?$AA?6?$AA?6?$AA?$AA@+4
  001d9	89 10		 mov	 DWORD PTR [eax], edx

; 1568 : 					wcscat (szTmp, GetString ("KEYB_LAYOUT_SYS_ENC_EXPLANATION"));

  001db	68 00 00 00 00	 push	 OFFSET ??_C@_0CA@HGCGAMEK@KEYB_LAYOUT_SYS_ENC_EXPLANATION?$AA@
  001e0	66 89 48 04	 mov	 WORD PTR [eax+4], cx
  001e4	e8 00 00 00 00	 call	 _GetString
  001e9	83 c4 04	 add	 esp, 4
  001ec	8b d0		 mov	 edx, eax
  001ee	8b ff		 npad	 2
$LL173@PasswordCh@2:
  001f0	66 8b 08	 mov	 cx, WORD PTR [eax]
  001f3	83 c0 02	 add	 eax, 2
  001f6	66 85 c9	 test	 cx, cx
  001f9	75 f5		 jne	 SHORT $LL173@PasswordCh@2
  001fb	8d bd 90 00 00
	00		 lea	 edi, DWORD PTR _szTmp$136406[ebp]
  00201	2b c2		 sub	 eax, edx
  00203	83 c7 fe	 add	 edi, -2			; fffffffeH
$LL174@PasswordCh@2:
  00206	66 8b 4f 02	 mov	 cx, WORD PTR [edi+2]
  0020a	83 c7 02	 add	 edi, 2
  0020d	66 85 c9	 test	 cx, cx
  00210	75 f4		 jne	 SHORT $LL174@PasswordCh@2
  00212	8b c8		 mov	 ecx, eax
  00214	c1 e9 02	 shr	 ecx, 2
  00217	8b f2		 mov	 esi, edx

; 1569 : 					MessageBoxW (MainDlg, szTmp, lpszTitle, MB_ICONWARNING | MB_SETFOREGROUND | MB_TOPMOST);

  00219	8b 15 00 00 00
	00		 mov	 edx, DWORD PTR _lpszTitle
  0021f	f3 a5		 rep movsd
  00221	8b c8		 mov	 ecx, eax
  00223	68 30 00 05 00	 push	 327728			; 00050030H
  00228	83 e1 03	 and	 ecx, 3
  0022b	52		 push	 edx
  0022c	8d 85 90 00 00
	00		 lea	 eax, DWORD PTR _szTmp$136406[ebp]
  00232	f3 a4		 rep movsb
  00234	8b 0d 00 00 00
	00		 mov	 ecx, DWORD PTR _MainDlg
  0023a	50		 push	 eax
  0023b	51		 push	 ecx
  0023c	ff 15 00 00 00
	00		 call	 DWORD PTR __imp__MessageBoxW@16
$LN64@PasswordCh@2:

; 1570 : 				}
; 1571 : 
; 1572 : 
; 1573 : 				/* Watch the right Alt key (which is used to enter various characters on non-US keyboards) */
; 1574 : 
; 1575 : 				if (bKeyboardLayoutChanged && !bKeybLayoutAltKeyWarningShown)

  00242	83 3d 00 00 00
	00 00		 cmp	 DWORD PTR ?bKeyboardLayoutChanged@@3HA, 0 ; bKeyboardLayoutChanged
  00249	0f 84 e3 00 00
	00		 je	 $LN61@PasswordCh@2
  0024f	83 3d 00 00 00
	00 00		 cmp	 DWORD PTR ?bKeybLayoutAltKeyWarningShown@@3HA, 0 ; bKeybLayoutAltKeyWarningShown
  00256	0f 85 d6 00 00
	00		 jne	 $LN61@PasswordCh@2

; 1576 : 				{
; 1577 : 					if (GetAsyncKeyState (VK_RMENU) < 0)

  0025c	68 a5 00 00 00	 push	 165			; 000000a5H
  00261	ff 15 00 00 00
	00		 call	 DWORD PTR __imp__GetAsyncKeyState@4
  00267	66 85 c0	 test	 ax, ax
  0026a	0f 8d c2 00 00
	00		 jge	 $LN61@PasswordCh@2

; 1578 : 					{
; 1579 : 						bKeybLayoutAltKeyWarningShown = TRUE;
; 1580 : 
; 1581 : 						wchar_t szTmp [4096];
; 1582 : 						wcscpy (szTmp, GetString ("ALT_KEY_CHARS_NOT_FOR_SYS_ENCRYPTION"));

  00270	68 00 00 00 00	 push	 OFFSET ??_C@_0CF@OEJEFNLJ@ALT_KEY_CHARS_NOT_FOR_SYS_ENCRYP@
  00275	c7 05 00 00 00
	00 01 00 00 00	 mov	 DWORD PTR ?bKeybLayoutAltKeyWarningShown@@3HA, 1 ; bKeybLayoutAltKeyWarningShown
  0027f	e8 00 00 00 00	 call	 _GetString
  00284	83 c4 04	 add	 esp, 4
  00287	8d 95 90 20 00
	00		 lea	 edx, DWORD PTR _szTmp$136412[ebp]
  0028d	8d 49 00	 npad	 3
$LL90@PasswordCh@2:
  00290	0f b7 08	 movzx	 ecx, WORD PTR [eax]
  00293	66 89 0a	 mov	 WORD PTR [edx], cx
  00296	83 c0 02	 add	 eax, 2
  00299	83 c2 02	 add	 edx, 2
  0029c	66 85 c9	 test	 cx, cx
  0029f	75 ef		 jne	 SHORT $LL90@PasswordCh@2

; 1583 : 						wcscat (szTmp, L"\n\n");

  002a1	8d 85 90 20 00
	00		 lea	 eax, DWORD PTR _szTmp$136412[ebp]
  002a7	83 c0 fe	 add	 eax, -2			; fffffffeH
  002aa	8d 9b 00 00 00
	00		 npad	 6
$LL175@PasswordCh@2:
  002b0	66 8b 48 02	 mov	 cx, WORD PTR [eax+2]
  002b4	83 c0 02	 add	 eax, 2
  002b7	66 85 c9	 test	 cx, cx
  002ba	75 f4		 jne	 SHORT $LL175@PasswordCh@2
  002bc	8b 15 00 00 00
	00		 mov	 edx, DWORD PTR ??_C@_15IABLJNFO@?$AA?6?$AA?6?$AA?$AA@
  002c2	66 8b 0d 04 00
	00 00		 mov	 cx, WORD PTR ??_C@_15IABLJNFO@?$AA?6?$AA?6?$AA?$AA@+4
  002c9	89 10		 mov	 DWORD PTR [eax], edx

; 1584 : 						wcscat (szTmp, GetString ("KEYB_LAYOUT_SYS_ENC_EXPLANATION"));

  002cb	68 00 00 00 00	 push	 OFFSET ??_C@_0CA@HGCGAMEK@KEYB_LAYOUT_SYS_ENC_EXPLANATION?$AA@
  002d0	66 89 48 04	 mov	 WORD PTR [eax+4], cx
  002d4	e8 00 00 00 00	 call	 _GetString
  002d9	83 c4 04	 add	 esp, 4
  002dc	8b d0		 mov	 edx, eax
  002de	8b ff		 npad	 2
$LL176@PasswordCh@2:
  002e0	66 8b 08	 mov	 cx, WORD PTR [eax]
  002e3	83 c0 02	 add	 eax, 2
  002e6	66 85 c9	 test	 cx, cx
  002e9	75 f5		 jne	 SHORT $LL176@PasswordCh@2
  002eb	8d bd 90 20 00
	00		 lea	 edi, DWORD PTR _szTmp$136412[ebp]
  002f1	2b c2		 sub	 eax, edx
  002f3	83 c7 fe	 add	 edi, -2			; fffffffeH
$LL177@PasswordCh@2:
  002f6	66 8b 4f 02	 mov	 cx, WORD PTR [edi+2]
  002fa	83 c7 02	 add	 edi, 2
  002fd	66 85 c9	 test	 cx, cx
  00300	75 f4		 jne	 SHORT $LL177@PasswordCh@2
  00302	8b c8		 mov	 ecx, eax
  00304	c1 e9 02	 shr	 ecx, 2
  00307	8b f2		 mov	 esi, edx

; 1585 : 						MessageBoxW (MainDlg, szTmp, lpszTitle, MB_ICONINFORMATION  | MB_SETFOREGROUND | MB_TOPMOST);

  00309	8b 15 00 00 00
	00		 mov	 edx, DWORD PTR _lpszTitle
  0030f	f3 a5		 rep movsd
  00311	8b c8		 mov	 ecx, eax
  00313	68 40 00 05 00	 push	 327744			; 00050040H
  00318	83 e1 03	 and	 ecx, 3
  0031b	52		 push	 edx
  0031c	8d 85 90 20 00
	00		 lea	 eax, DWORD PTR _szTmp$136412[ebp]
  00322	f3 a4		 rep movsb
  00324	8b 0d 00 00 00
	00		 mov	 ecx, DWORD PTR _MainDlg
  0032a	50		 push	 eax
  0032b	51		 push	 ecx
  0032c	ff 15 00 00 00
	00		 call	 DWORD PTR __imp__MessageBoxW@16
$LN61@PasswordCh@2:

; 1586 : 					}
; 1587 : 				}
; 1588 : 			}
; 1589 : 			return 1;

  00332	b8 01 00 00 00	 mov	 eax, 1
  00337	e9 6e 0c 00 00	 jmp	 $LN87@PasswordCh@2
$LN60@PasswordCh@2:

; 1592 : 
; 1593 : 	case WM_COMMAND:
; 1594 : 		if (lw == IDCANCEL)

  0033c	66 83 f8 02	 cmp	 ax, 2
  00340	75 79		 jne	 SHORT $LN59@PasswordCh@2

; 1595 : 		{
; 1596 : 			// Attempt to wipe passwords stored in the input field buffers
; 1597 : 			WCHAR tmp[MAX_PASSWORD+1];
; 1598 : 			memset (tmp, 0x20, sizeof(tmp)); //0x20 = ASCII space or 0x2020 = Unicode DAGGER

  00342	68 82 00 00 00	 push	 130			; 00000082H
  00347	8d 95 14 41 00
	00		 lea	 edx, DWORD PTR _tmp$136416[ebp]
  0034d	6a 20		 push	 32			; 00000020H
  0034f	52		 push	 edx
  00350	e8 00 00 00 00	 call	 _memset

; 1599 : 			tmp[MAX_PASSWORD] = 0;
; 1600 : 			SetWindowTextW(GetDlgItem (hwndDlg, IDC_PASSWORD), tmp);	

  00355	8b 35 00 00 00
	00		 mov	 esi, DWORD PTR __imp__GetDlgItem@8
  0035b	83 c4 0c	 add	 esp, 12			; 0000000cH
  0035e	8d 8d 14 41 00
	00		 lea	 ecx, DWORD PTR _tmp$136416[ebp]
  00364	51		 push	 ecx
  00365	68 0b 04 00 00	 push	 1035			; 0000040bH
  0036a	33 c0		 xor	 eax, eax
  0036c	53		 push	 ebx
  0036d	66 89 85 94 41
	00 00		 mov	 WORD PTR _tmp$136416[ebp+128], ax
  00374	ff d6		 call	 esi
  00376	8b 3d 00 00 00
	00		 mov	 edi, DWORD PTR __imp__SetWindowTextW@8
  0037c	50		 push	 eax
  0037d	ff d7		 call	 edi

; 1601 : 			SetWindowTextW(GetDlgItem (hwndDlg, IDC_OLD_PASSWORD), tmp);	

  0037f	8d 95 14 41 00
	00		 lea	 edx, DWORD PTR _tmp$136416[ebp]
  00385	52		 push	 edx
  00386	68 ec 03 00 00	 push	 1004			; 000003ecH
  0038b	53		 push	 ebx
  0038c	ff d6		 call	 esi
  0038e	50		 push	 eax
  0038f	ff d7		 call	 edi

; 1602 : 			SetWindowTextW(GetDlgItem (hwndDlg, IDC_VERIFY), tmp);	

  00391	8d 85 14 41 00
	00		 lea	 eax, DWORD PTR _tmp$136416[ebp]
  00397	50		 push	 eax
  00398	68 ea 03 00 00	 push	 1002			; 000003eaH
  0039d	53		 push	 ebx
  0039e	ff d6		 call	 esi
  003a0	50		 push	 eax
  003a1	ff d7		 call	 edi

; 1603 : 			RestoreDefaultKeyFilesParam ();

  003a3	e8 00 00 00 00	 call	 _RestoreDefaultKeyFilesParam

; 1604 : 
; 1605 : 			EndDialog (hwndDlg, IDCANCEL);

  003a8	6a 02		 push	 2
  003aa	53		 push	 ebx
  003ab	ff 15 00 00 00
	00		 call	 DWORD PTR __imp__EndDialog@8

; 1606 : 			return 1;

  003b1	b8 01 00 00 00	 mov	 eax, 1
  003b6	e9 ef 0b 00 00	 jmp	 $LN87@PasswordCh@2
$LN59@PasswordCh@2:

; 1607 : 		}
; 1608 : 
; 1609 : 		if (hw == EN_CHANGE)

  003bb	b9 00 03 00 00	 mov	 ecx, 768		; 00000300H
  003c0	66 3b d1	 cmp	 dx, cx
  003c3	75 5b		 jne	 SHORT $LN58@PasswordCh@2

; 1610 : 		{
; 1611 : 			PasswordChangeEnable (hwndDlg, IDOK,
; 1612 : 				IDC_OLD_PASSWORD,
; 1613 : 				KeyFilesEnable && FirstKeyFile != NULL,
; 1614 : 				IDC_PASSWORD, IDC_VERIFY, 
; 1615 : 				newKeyFilesParam.EnableKeyFiles && newKeyFilesParam.FirstKeyFile != NULL);		

  003c5	83 3d 00 00 00
	00 00		 cmp	 DWORD PTR ?newKeyFilesParam@?1??PasswordChangeDlgProc@@9@16@4UKeyFilesDlgParam@@A, 0
$LN210@PasswordCh@2:
  003cc	74 10		 je	 SHORT $LN91@PasswordCh@2
  003ce	83 3d 04 00 00
	00 00		 cmp	 DWORD PTR ?newKeyFilesParam@?1??PasswordChangeDlgProc@@9@16@4UKeyFilesDlgParam@@A+4, 0
  003d5	74 07		 je	 SHORT $LN91@PasswordCh@2
  003d7	b9 01 00 00 00	 mov	 ecx, 1
  003dc	eb 02		 jmp	 SHORT $LN92@PasswordCh@2
$LN91@PasswordCh@2:
  003de	33 c9		 xor	 ecx, ecx
$LN92@PasswordCh@2:
  003e0	83 3d 00 00 00
	00 00		 cmp	 DWORD PTR _KeyFilesEnable, 0
$LN209@PasswordCh@2:
  003e7	74 10		 je	 SHORT $LN93@PasswordCh@2
  003e9	83 3d 00 00 00
	00 00		 cmp	 DWORD PTR _FirstKeyFile, 0
  003f0	74 07		 je	 SHORT $LN93@PasswordCh@2
  003f2	b8 01 00 00 00	 mov	 eax, 1
  003f7	eb 02		 jmp	 SHORT $LN94@PasswordCh@2
$LN93@PasswordCh@2:
  003f9	33 c0		 xor	 eax, eax
$LN94@PasswordCh@2:
  003fb	51		 push	 ecx
  003fc	68 ea 03 00 00	 push	 1002			; 000003eaH
  00401	68 0b 04 00 00	 push	 1035			; 0000040bH
  00406	50		 push	 eax
  00407	68 ec 03 00 00	 push	 1004			; 000003ecH
  0040c	6a 01		 push	 1
  0040e	e8 00 00 00 00	 call	 ?PasswordChangeEnable@@YAXPAUHWND__@@HHHHHH@Z ; PasswordChangeEnable
  00413	83 c4 18	 add	 esp, 24			; 00000018H

; 1616 : 
; 1617 : 			return 1;

  00416	b8 01 00 00 00	 mov	 eax, 1
  0041b	e9 8a 0b 00 00	 jmp	 $LN87@PasswordCh@2
$LN58@PasswordCh@2:

; 1618 : 		}
; 1619 : 
; 1620 : 		if (lw == IDC_KEYFILES)

  00420	b9 09 04 00 00	 mov	 ecx, 1033		; 00000409H
  00425	66 3b c1	 cmp	 ax, cx
  00428	0f 85 96 00 00
	00		 jne	 $LN57@PasswordCh@2

; 1621 : 		{
; 1622 : 			if (bSysEncPwdChangeDlgMode)

  0042e	83 3d 00 00 00
	00 00		 cmp	 DWORD PTR _bSysEncPwdChangeDlgMode, 0
  00435	74 17		 je	 SHORT $LN56@PasswordCh@2
$LN208@PasswordCh@2:

; 1623 : 			{
; 1624 : 				Warning ("KEYFILES_NOT_SUPPORTED_FOR_SYS_ENCRYPTION");

  00437	68 00 00 00 00	 push	 OFFSET ??_C@_0CK@PHDAOPJF@KEYFILES_NOT_SUPPORTED_FOR_SYS_E@
  0043c	e8 00 00 00 00	 call	 _Warning
  00441	83 c4 04	 add	 esp, 4

; 1625 : 				return 1;

  00444	b8 01 00 00 00	 mov	 eax, 1
  00449	e9 5c 0b 00 00	 jmp	 $LN87@PasswordCh@2
$LN56@PasswordCh@2:

; 1626 : 			}
; 1627 : 
; 1628 : 			KeyFilesDlgParam param;
; 1629 : 			param.EnableKeyFiles = KeyFilesEnable;

  0044e	8b 15 00 00 00
	00		 mov	 edx, DWORD PTR _KeyFilesEnable

; 1630 : 			param.FirstKeyFile = FirstKeyFile;

  00454	a1 00 00 00 00	 mov	 eax, DWORD PTR _FirstKeyFile

; 1631 : 
; 1632 : 			if (IDOK == DialogBoxParamW (hInst,
; 1633 : 				MAKEINTRESOURCEW (IDD_KEYFILES), hwndDlg,
; 1634 : 				(DLGPROC) KeyFilesDlgProc, (LPARAM) &param))

  00459	8d 4d e0	 lea	 ecx, DWORD PTR _param$136421[ebp]
  0045c	51		 push	 ecx
  0045d	68 00 00 00 00	 push	 OFFSET _KeyFilesDlgProc@16
  00462	53		 push	 ebx
  00463	89 55 e0	 mov	 DWORD PTR _param$136421[ebp], edx
  00466	8b 15 00 00 00
	00		 mov	 edx, DWORD PTR _hInst
  0046c	68 f9 01 00 00	 push	 505			; 000001f9H
  00471	52		 push	 edx
  00472	89 45 e4	 mov	 DWORD PTR _param$136421[ebp+4], eax
  00475	ff 15 00 00 00
	00		 call	 DWORD PTR __imp__DialogBoxParamW@20
  0047b	83 f8 01	 cmp	 eax, 1
  0047e	75 20		 jne	 SHORT $LN55@PasswordCh@2

; 1635 : 			{
; 1636 : 				KeyFilesEnable = param.EnableKeyFiles;

  00480	8b 45 e0	 mov	 eax, DWORD PTR _param$136421[ebp]

; 1637 : 				FirstKeyFile = param.FirstKeyFile;

  00483	8b 4d e4	 mov	 ecx, DWORD PTR _param$136421[ebp+4]

; 1638 : 			
; 1639 : 				SetCheckBox (hwndDlg, IDC_ENABLE_KEYFILES, KeyFilesEnable);

  00486	50		 push	 eax
  00487	68 f1 03 00 00	 push	 1009			; 000003f1H
  0048c	53		 push	 ebx
  0048d	a3 00 00 00 00	 mov	 DWORD PTR _KeyFilesEnable, eax
  00492	89 0d 00 00 00
	00		 mov	 DWORD PTR _FirstKeyFile, ecx
  00498	e8 00 00 00 00	 call	 _SetCheckBox
  0049d	83 c4 0c	 add	 esp, 12			; 0000000cH
$LN55@PasswordCh@2:

; 1640 : 			}
; 1641 : 
; 1642 : 			PasswordChangeEnable (hwndDlg, IDOK,
; 1643 : 				IDC_OLD_PASSWORD,
; 1644 : 				KeyFilesEnable && FirstKeyFile != NULL,
; 1645 : 				IDC_PASSWORD, IDC_VERIFY, 
; 1646 : 				newKeyFilesParam.EnableKeyFiles && newKeyFilesParam.FirstKeyFile != NULL);		

  004a0	83 3d 00 00 00
	00 00		 cmp	 DWORD PTR ?newKeyFilesParam@?1??PasswordChangeDlgProc@@9@16@4UKeyFilesDlgParam@@A, 0
  004a7	0f 84 31 ff ff
	ff		 je	 $LN91@PasswordCh@2
  004ad	83 3d 04 00 00
	00 00		 cmp	 DWORD PTR ?newKeyFilesParam@?1??PasswordChangeDlgProc@@9@16@4UKeyFilesDlgParam@@A+4, 0
  004b4	0f 84 24 ff ff
	ff		 je	 $LN91@PasswordCh@2
  004ba	b9 01 00 00 00	 mov	 ecx, 1
  004bf	e9 1c ff ff ff	 jmp	 $LN92@PasswordCh@2
$LN57@PasswordCh@2:

; 1647 : 
; 1648 : 			return 1;
; 1649 : 		}
; 1650 : 
; 1651 : 		
; 1652 : 		if (lw == IDC_NEW_KEYFILES)

  004c4	b9 08 04 00 00	 mov	 ecx, 1032		; 00000408H
  004c9	66 3b c1	 cmp	 ax, cx
  004cc	0f 85 b2 00 00
	00		 jne	 $LN54@PasswordCh@2

; 1653 : 		{
; 1654 : 			if (bSysEncPwdChangeDlgMode)

  004d2	83 3d 00 00 00
	00 00		 cmp	 DWORD PTR _bSysEncPwdChangeDlgMode, 0

; 1655 : 			{
; 1656 : 				Warning ("KEYFILES_NOT_SUPPORTED_FOR_SYS_ENCRYPTION");
; 1657 : 				return 1;

  004d9	0f 85 58 ff ff
	ff		 jne	 $LN208@PasswordCh@2

; 1658 : 			}
; 1659 : 
; 1660 : 			if (IDOK == DialogBoxParamW (hInst,
; 1661 : 				MAKEINTRESOURCEW (IDD_KEYFILES), hwndDlg,
; 1662 : 				(DLGPROC) KeyFilesDlgProc, (LPARAM) &newKeyFilesParam))

  004df	8b 15 00 00 00
	00		 mov	 edx, DWORD PTR _hInst
  004e5	68 00 00 00 00	 push	 OFFSET ?newKeyFilesParam@?1??PasswordChangeDlgProc@@9@16@4UKeyFilesDlgParam@@A
  004ea	68 00 00 00 00	 push	 OFFSET _KeyFilesDlgProc@16
  004ef	53		 push	 ebx
  004f0	68 f9 01 00 00	 push	 505			; 000001f9H
  004f5	52		 push	 edx
  004f6	ff 15 00 00 00
	00		 call	 DWORD PTR __imp__DialogBoxParamW@20
  004fc	83 f8 01	 cmp	 eax, 1
  004ff	75 5f		 jne	 SHORT $LN52@PasswordCh@2

; 1663 : 			{
; 1664 : 				SetCheckBox (hwndDlg, IDC_ENABLE_NEW_KEYFILES, newKeyFilesParam.EnableKeyFiles);

  00501	a1 00 00 00 00	 mov	 eax, DWORD PTR ?newKeyFilesParam@?1??PasswordChangeDlgProc@@9@16@4UKeyFilesDlgParam@@A
  00506	50		 push	 eax
  00507	68 f4 03 00 00	 push	 1012			; 000003f4H
  0050c	53		 push	 ebx
  0050d	e8 00 00 00 00	 call	 _SetCheckBox
  00512	83 c4 0c	 add	 esp, 12			; 0000000cH

; 1665 : 
; 1666 : 				VerifyPasswordAndUpdate2(hwndDlg, GetDlgItem (hwndDlg, IDOK), GetDlgItem (hwndDlg, IDC_PASSWORD),
; 1667 : 					GetDlgItem (hwndDlg, IDC_VERIFY), NULL, 0, NULL, 0,
; 1668 : 					newKeyFilesParam.EnableKeyFiles && newKeyFilesParam.FirstKeyFile != NULL);		

  00515	83 3d 00 00 00
	00 00		 cmp	 DWORD PTR ?newKeyFilesParam@?1??PasswordChangeDlgProc@@9@16@4UKeyFilesDlgParam@@A, 0
  0051c	74 10		 je	 SHORT $LN99@PasswordCh@2
  0051e	83 3d 04 00 00
	00 00		 cmp	 DWORD PTR ?newKeyFilesParam@?1??PasswordChangeDlgProc@@9@16@4UKeyFilesDlgParam@@A+4, 0
  00525	74 07		 je	 SHORT $LN99@PasswordCh@2
  00527	b8 01 00 00 00	 mov	 eax, 1
  0052c	eb 02		 jmp	 SHORT $LN100@PasswordCh@2
$LN99@PasswordCh@2:
  0052e	33 c0		 xor	 eax, eax
$LN100@PasswordCh@2:
  00530	8b 35 00 00 00
	00		 mov	 esi, DWORD PTR __imp__GetDlgItem@8
  00536	50		 push	 eax
  00537	6a 00		 push	 0
  00539	6a 00		 push	 0
  0053b	6a 00		 push	 0
  0053d	6a 00		 push	 0
  0053f	68 ea 03 00 00	 push	 1002			; 000003eaH
  00544	53		 push	 ebx
  00545	ff d6		 call	 esi
  00547	50		 push	 eax
  00548	68 0b 04 00 00	 push	 1035			; 0000040bH
  0054d	53		 push	 ebx
  0054e	ff d6		 call	 esi
  00550	50		 push	 eax
  00551	6a 01		 push	 1
  00553	53		 push	 ebx
  00554	ff d6		 call	 esi
  00556	50		 push	 eax
  00557	53		 push	 ebx
  00558	e8 00 00 00 00	 call	 _VerifyPasswordAndUpdate2
  0055d	83 c4 24	 add	 esp, 36			; 00000024H
$LN52@PasswordCh@2:

; 1669 : 			}
; 1670 : 
; 1671 : 			PasswordChangeEnable (hwndDlg, IDOK,
; 1672 : 				IDC_OLD_PASSWORD,
; 1673 : 				KeyFilesEnable && FirstKeyFile != NULL,
; 1674 : 				IDC_PASSWORD, IDC_VERIFY, 
; 1675 : 				newKeyFilesParam.EnableKeyFiles && newKeyFilesParam.FirstKeyFile != NULL);		

  00560	83 3d 00 00 00
	00 00		 cmp	 DWORD PTR ?newKeyFilesParam@?1??PasswordChangeDlgProc@@9@16@4UKeyFilesDlgParam@@A, 0
  00567	0f 84 71 fe ff
	ff		 je	 $LN91@PasswordCh@2
  0056d	83 3d 04 00 00
	00 00		 cmp	 DWORD PTR ?newKeyFilesParam@?1??PasswordChangeDlgProc@@9@16@4UKeyFilesDlgParam@@A+4, 0
  00574	0f 84 64 fe ff
	ff		 je	 $LN91@PasswordCh@2
  0057a	b9 01 00 00 00	 mov	 ecx, 1
  0057f	e9 5c fe ff ff	 jmp	 $LN92@PasswordCh@2
$LN54@PasswordCh@2:

; 1676 : 
; 1677 : 			return 1;
; 1678 : 		}
; 1679 : 
; 1680 : 		if (lw == IDC_ENABLE_KEYFILES)

  00584	b9 f1 03 00 00	 mov	 ecx, 1009		; 000003f1H
  00589	66 3b c1	 cmp	 ax, cx
  0058c	75 36		 jne	 SHORT $LN51@PasswordCh@2

; 1681 : 		{
; 1682 : 			KeyFilesEnable = GetCheckBox (hwndDlg, IDC_ENABLE_KEYFILES);

  0058e	51		 push	 ecx
  0058f	53		 push	 ebx
  00590	e8 00 00 00 00	 call	 _GetCheckBox
  00595	83 c4 08	 add	 esp, 8

; 1683 : 
; 1684 : 			PasswordChangeEnable (hwndDlg, IDOK,
; 1685 : 				IDC_OLD_PASSWORD,
; 1686 : 				KeyFilesEnable && FirstKeyFile != NULL,
; 1687 : 				IDC_PASSWORD, IDC_VERIFY, 
; 1688 : 				newKeyFilesParam.EnableKeyFiles && newKeyFilesParam.FirstKeyFile != NULL);		

  00598	83 3d 00 00 00
	00 00		 cmp	 DWORD PTR ?newKeyFilesParam@?1??PasswordChangeDlgProc@@9@16@4UKeyFilesDlgParam@@A, 0
  0059f	a3 00 00 00 00	 mov	 DWORD PTR _KeyFilesEnable, eax
  005a4	74 15		 je	 SHORT $LN105@PasswordCh@2
  005a6	83 3d 04 00 00
	00 00		 cmp	 DWORD PTR ?newKeyFilesParam@?1??PasswordChangeDlgProc@@9@16@4UKeyFilesDlgParam@@A+4, 0
  005ad	74 0c		 je	 SHORT $LN105@PasswordCh@2
  005af	b9 01 00 00 00	 mov	 ecx, 1
  005b4	85 c0		 test	 eax, eax
  005b6	e9 2c fe ff ff	 jmp	 $LN209@PasswordCh@2
$LN105@PasswordCh@2:
  005bb	33 c9		 xor	 ecx, ecx
  005bd	85 c0		 test	 eax, eax
  005bf	e9 23 fe ff ff	 jmp	 $LN209@PasswordCh@2
$LN51@PasswordCh@2:

; 1689 : 
; 1690 : 			return 1;
; 1691 : 		}
; 1692 : 
; 1693 : 		if (lw == IDC_ENABLE_NEW_KEYFILES)

  005c4	b9 f4 03 00 00	 mov	 ecx, 1012		; 000003f4H
  005c9	66 3b c1	 cmp	 ax, cx
  005cc	75 16		 jne	 SHORT $LN50@PasswordCh@2

; 1694 : 		{
; 1695 : 			newKeyFilesParam.EnableKeyFiles = GetCheckBox (hwndDlg, IDC_ENABLE_NEW_KEYFILES);

  005ce	51		 push	 ecx
  005cf	53		 push	 ebx
  005d0	e8 00 00 00 00	 call	 _GetCheckBox
  005d5	83 c4 08	 add	 esp, 8
  005d8	a3 00 00 00 00	 mov	 DWORD PTR ?newKeyFilesParam@?1??PasswordChangeDlgProc@@9@16@4UKeyFilesDlgParam@@A, eax

; 1696 : 
; 1697 : 			PasswordChangeEnable (hwndDlg, IDOK,
; 1698 : 				IDC_OLD_PASSWORD,
; 1699 : 				KeyFilesEnable && FirstKeyFile != NULL,
; 1700 : 				IDC_PASSWORD, IDC_VERIFY, 
; 1701 : 				newKeyFilesParam.EnableKeyFiles && newKeyFilesParam.FirstKeyFile != NULL);		

  005dd	85 c0		 test	 eax, eax
  005df	e9 e8 fd ff ff	 jmp	 $LN210@PasswordCh@2
$LN50@PasswordCh@2:

; 1702 : 
; 1703 : 			return 1;
; 1704 : 		}
; 1705 : 
; 1706 : 		if (hw == CBN_SELCHANGE)

  005e4	66 83 fa 01	 cmp	 dx, 1
  005e8	75 7e		 jne	 SHORT $LN49@PasswordCh@2

; 1707 : 		{
; 1708 : 			switch (lw)

  005ea	ba f7 03 00 00	 mov	 edx, 1015		; 000003f7H
  005ef	66 3b c2	 cmp	 ax, dx
  005f2	75 6a		 jne	 SHORT $LN44@PasswordCh@2

; 1709 : 			{
; 1710 : 			case IDC_PKCS5_PRF_ID:
; 1711 : 				if (bSysEncPwdChangeDlgMode)

  005f4	83 3d 00 00 00
	00 00		 cmp	 DWORD PTR _bSysEncPwdChangeDlgMode, 0
  005fb	74 61		 je	 SHORT $LN44@PasswordCh@2

; 1712 : 				{
; 1713 : 					int new_hash_algo_id = SendMessage (GetDlgItem (hwndDlg, IDC_PKCS5_PRF_ID), CB_GETITEMDATA, 
; 1714 : 						SendMessage (GetDlgItem (hwndDlg, IDC_PKCS5_PRF_ID), CB_GETCURSEL, 0, 0), 0);

  005fd	8b 35 00 00 00
	00		 mov	 esi, DWORD PTR __imp__GetDlgItem@8
  00603	6a 00		 push	 0
  00605	6a 00		 push	 0
  00607	6a 00		 push	 0
  00609	68 47 01 00 00	 push	 327			; 00000147H
  0060e	52		 push	 edx
  0060f	53		 push	 ebx
  00610	ff d6		 call	 esi
  00612	8b 3d 00 00 00
	00		 mov	 edi, DWORD PTR __imp__SendMessageA@16
  00618	50		 push	 eax
  00619	ff d7		 call	 edi
  0061b	50		 push	 eax
  0061c	68 50 01 00 00	 push	 336			; 00000150H
  00621	68 f7 03 00 00	 push	 1015			; 000003f7H
  00626	53		 push	 ebx
  00627	ff d6		 call	 esi
  00629	50		 push	 eax
  0062a	ff d7		 call	 edi

; 1715 : 
; 1716 : 					if (new_hash_algo_id != 0 && new_hash_algo_id != DEFAULT_HASH_ALGORITHM_BOOT)

  0062c	85 c0		 test	 eax, eax
