 CipherShedFormat

 Timestamp is 54babdb7 (Sat Jan 17 19:53:27 2015)

 Preferred load address is 00400000

 Start         Length     Name                   Class
 0001:00000000 0008a1eeH .text                   CODE
 0001:0008a1f0 000039c9H .text$x                 CODE
 0001:0008dbc0 00000167H .text$yc                CODE
 0001:0008dd30 00000166H .text$yd                CODE
 0002:00000000 00000568H .idata$5                DATA
 0002:00000568 00000004H .CRT$XCA                DATA
 0002:0000056c 0000000cH .CRT$XCC                DATA
 0002:00000578 00000020H .CRT$XCU                DATA
 0002:00000598 00000004H .CRT$XCZ                DATA
 0002:0000059c 00000004H .CRT$XIA                DATA
 0002:000005a0 00000014H .CRT$XIC                DATA
 0002:000005b4 00000004H .CRT$XID                DATA
 0002:000005b8 00000004H .CRT$XIY                DATA
 0002:000005bc 00000004H .CRT$XIZ                DATA
 0002:000005c0 00000004H .CRT$XPA                DATA
 0002:000005c4 00000004H .CRT$XPX                DATA
 0002:000005c8 00000004H .CRT$XPXA               DATA
 0002:000005cc 00000004H .CRT$XPZ                DATA
 0002:000005d0 00000004H .CRT$XTA                DATA
 0002:000005d4 00000004H .CRT$XTZ                DATA
 0002:000005e0 00018e88H .rdata                  DATA
 0002:00019468 00001488H .rdata$r                DATA
 0002:0001a8f0 0000036cH .rdata$sxdata           DATA
 0002:0001ac5c 00000004H .rtc$IAA                DATA
 0002:0001ac60 00000004H .rtc$IZZ                DATA
 0002:0001ac64 00000004H .rtc$TAA                DATA
 0002:0001ac68 00000004H .rtc$TZZ                DATA
 0002:0001ac70 00005decH .xdata$x                DATA
 0002:00020a5c 00000000H ATL$__a                 DATA
 0002:00020a5c 00000000H ATL$__z                 DATA
 0002:00020a5c 000000c8H .idata$2                DATA
 0002:00020b24 00000014H .idata$3                DATA
 0002:00020b38 00000568H .idata$4                DATA
 0002:000210a0 00001826H .idata$6                DATA
 0002:000228c6 00000000H .edata                  DATA
 0003:00000000 00006c3cH .data                   DATA
 0003:00006c40 0002c6e0H .bss                    DATA
 0004:00000000 00001200H .rsrc$01                DATA
 0004:00001200 000ced78H .rsrc$02                DATA

  Address         Publics by Value              Rva+Base       Lib:Object

 0000:00000000       __except_list              00000000     <absolute>
 0000:000000db       ___safe_se_handler_count   000000db     <absolute>
 0000:00000000       ___ImageBase               00400000     <linker-defined>
 0001:00000000       ?GetElevatedInstance@@YAPAUICipherShedFormatCom@@PAUHWND__@@@Z 00401000 f   FormatCom.obj
 0001:00000050       ??0Exception@CipherShed@@QAE@ABU01@@Z 00401050 f i FormatCom.obj
 0001:00000060       _IsEqualGUID               00401060 f i FormatCom.obj
 0001:000000d0       ?AddRef@CipherShedFormatCom@@UAGKXZ 004010d0 f i FormatCom.obj
 0001:000000f0       ?QueryInterface@CipherShedFormatCom@@UAGJABU_GUID@@PAPAX@Z 004010f0 f i FormatCom.obj
 0001:00000150       ?CallDriver@CipherShedFormatCom@@UAGKKPA_WPAPA_W@Z 00401150 f i FormatCom.obj
 0001:00000170       ?CopyFileA@CipherShedFormatCom@@UAGKPA_W0@Z 00401170 f i FormatCom.obj
 0001:00000190       ?DeleteFileA@CipherShedFormatCom@@UAGKPA_W@Z 00401190 f i FormatCom.obj
 0001:000001a0       ?FormatNtfs@CipherShedFormatCom@@UAGHHH@Z 004011a0 f i FormatCom.obj
 0001:000001c0       ?AnalyzeHiddenVolumeHost@CipherShedFormatCom@@UAGHJPAH_J0PA_J@Z 004011c0 f i FormatCom.obj
 0001:000001f0       ?ReadWriteFile@CipherShedFormatCom@@UAGKHHPA_WPAPA_W_KIPAK@Z 004011f0 f i FormatCom.obj
 0001:00000230       ?RegisterFilterDriver@CipherShedFormatCom@@UAGKHH@Z 00401230 f i FormatCom.obj
 0001:00000250       ?RegisterSystemFavoritesService@CipherShedFormatCom@@UAGKH@Z 00401250 f i FormatCom.obj
 0001:00000260       ?SetDriverServiceStartType@CipherShedFormatCom@@UAGKK@Z 00401260 f i FormatCom.obj
 0001:00000270       ?IsPagingFileActive@CipherShedFormatCom@@UAGHH@Z 00401270 f i FormatCom.obj
 0001:00000280       ?WriteLocalMachineRegistryDwordValue@CipherShedFormatCom@@UAGKPA_W0K@Z 00401280 f i FormatCom.obj
 0001:000002a0       ?AddRef@?$CipherShedFactory@VCipherShedFormatCom@@@@UAGKXZ 004012a0 f i FormatCom.obj
 0001:000002c0       ?QueryInterface@?$CipherShedFactory@VCipherShedFormatCom@@@@UAGJABU_GUID@@PAPAX@Z 004012c0 f i FormatCom.obj
 0001:00000320       ?LockServer@?$CipherShedFactory@VCipherShedFormatCom@@@@UAGJH@Z 00401320 f i FormatCom.obj
 0001:00000370       ?IsServerLocked@?$CipherShedFactory@VCipherShedFormatCom@@@@UAE_NXZ 00401370 f i FormatCom.obj
 0001:00000380       ?Release@CipherShedFormatCom@@UAGKXZ 00401380 f i FormatCom.obj
 0001:000003e0       ??0UserAbort@CipherShed@@QAE@ABU01@@Z 004013e0 f i FormatCom.obj
 0001:000003f0       ?Release@?$CipherShedFactory@VCipherShedFormatCom@@@@UAGKXZ 004013f0 f i FormatCom.obj
 0001:00000430       _ComServerFormat           00401430 f   FormatCom.obj
 0001:00000520       _UacFormatNtfs             00401520 f   FormatCom.obj
 0001:00000590       _UacAnalyzeHiddenVolumeHost 00401590 f   FormatCom.obj
 0001:00000610       ?CreateInstance@?$CipherShedFactory@VCipherShedFormatCom@@@@UAGJPAUIUnknown@@ABU_GUID@@PAPAX@Z 00401610 f i FormatCom.obj
 0001:000006b0       ??1bad_alloc@std@@UAE@XZ   004016b0 f i InPlace.obj
 0001:000006c0       ??_Ebad_alloc@std@@UAEPAXI@Z 004016c0 f i InPlace.obj
 0001:000006c0       ??_Gbad_alloc@std@@UAEPAXI@Z 004016c0 f i InPlace.obj
 0001:000006f0       _wmemcmp                   004016f0 f i InPlace.obj
 0001:000007d0       _FastVolumeHeaderUpdate    004017d0 f   InPlace.obj
 0001:00000b80       _ShowInPlaceEncErrMsgWAltSteps 00401b80 f   InPlace.obj
 0001:00000cb0       _SetNonSysInplaceEncUIStatus 00401cb0 f   InPlace.obj
 0001:00000cc0       _SaveNonSysInPlaceEncSettings 00401cc0 f   InPlace.obj
 0001:00000df0       _ZeroUnreadableSectors     00401df0 f   InPlace.obj
 0001:000011f0       ??$_Allocate@_W@std@@YAPA_WIPA_W@Z 004021f0 f i InPlace.obj
 0001:00001250       ??0bad_alloc@std@@QAE@ABV01@@Z 00402250 f i InPlace.obj
 0001:00001270       ?compare@?$basic_string@_WU?$char_traits@_W@std@@V?$allocator@_W@2@@std@@QBEHIIPB_WI@Z 00402270 f i InPlace.obj
 0001:000012e0       ??$copy_s@U?$char_traits@_W@std@@@_Traits_helper@std@@YAPA_WPA_WIPB_WI@Z 004022e0 f i InPlace.obj
 0001:00001310       _CheckRequirementsForNonSysInPlaceEnc 00402310 f   InPlace.obj
 0001:00001740       _EncryptPartitionInPlaceResume 00402740 f   InPlace.obj
 0001:00002350       ?erase@?$basic_string@_WU?$char_traits@_W@std@@V?$allocator@_W@2@@std@@QAEAAV12@II@Z 00403350 f i InPlace.obj
 0001:000023f0       ?_Copy@?$basic_string@_WU?$char_traits@_W@std@@V?$allocator@_W@2@@std@@IAEXII@Z 004033f0 f i InPlace.obj
 0001:00002540       ?append@?$basic_string@_WU?$char_traits@_W@std@@V?$allocator@_W@2@@std@@QAEAAV12@ABV12@II@Z 00403540 f i InPlace.obj
 0001:00002650       ?append@?$basic_string@_WU?$char_traits@_W@std@@V?$allocator@_W@2@@std@@QAEAAV12@PB_WI@Z 00403650 f i InPlace.obj
 0001:00002770       ?assign@?$basic_string@_WU?$char_traits@_W@std@@V?$allocator@_W@2@@std@@QAEAAV12@ABV12@II@Z 00403770 f i InPlace.obj
 0001:00002870       ?assign@?$basic_string@_WU?$char_traits@_W@std@@V?$allocator@_W@2@@std@@QAEAAV12@PB_WI@Z 00403870 f i InPlace.obj
 0001:00002960       ??$?H_WU?$char_traits@_W@std@@V?$allocator@_W@1@@std@@YA?AV?$basic_string@_WU?$char_traits@_W@std@@V?$allocator@_W@2@@0@ABV10@PB_W@Z 00403960 f i InPlace.obj
 0001:00002a30       ??$?H_WU?$char_traits@_W@std@@V?$allocator@_W@1@@std@@YA?AV?$basic_string@_WU?$char_traits@_W@std@@V?$allocator@_W@2@@0@ABV10@0@Z 00403a30 f i InPlace.obj
 0001:00002ae0       ??0?$basic_string@_WU?$char_traits@_W@std@@V?$allocator@_W@2@@std@@QAE@PB_W@Z 00403ae0 f i InPlace.obj
 0001:00002b20       ??$?H_WU?$char_traits@_W@std@@V?$allocator@_W@1@@std@@YA?AV?$basic_string@_WU?$char_traits@_W@std@@V?$allocator@_W@2@@0@PB_WABV10@@Z 00403b20 f i InPlace.obj
 0001:00003270       _MoveClustersBeforeThreshold 00404270 f   InPlace.obj
 0001:00003330       _EncryptPartitionInPlaceBegin 00404330 f   InPlace.obj
 0001:00003a70       ?swprintf@@YAHPA_WPB_WZZ   00404a70 f i Tcformat.obj
 0001:00003a90       ??3@YAXPAX0@Z              00404a90 f i Tcformat.obj
 0001:00003aa0       ?_Incref@facet@locale@std@@QAEXXZ 00404aa0 f i Tcformat.obj
 0001:00003ad0       ?_Decref@facet@locale@std@@QAEPAV123@XZ 00404ad0 f i Tcformat.obj
 0001:00003b10       ??1facet@locale@std@@UAE@XZ 00404b10 f i Tcformat.obj
 0001:00003b20       ??1locale@std@@QAE@XZ      00404b20 f i Tcformat.obj
 0001:00003b70       ??_G?$num_put@DV?$ostreambuf_iterator@DU?$char_traits@D@std@@@std@@@std@@MAEPAXI@Z 00404b70 f i BootEncryption.obj
 0001:00003b70       ??_G?$num_put@_WV?$ostreambuf_iterator@_WU?$char_traits@_W@std@@@std@@@std@@MAEPAXI@Z 00404b70 f i Tcformat.obj
 0001:00003b70       ??_Gfacet@locale@std@@UAEPAXI@Z 00404b70 f i Tcformat.obj
 0001:00003b70       ??_E?$num_put@_WV?$ostreambuf_iterator@_WU?$char_traits@_W@std@@@std@@@std@@MAEPAXI@Z 00404b70 f i Tcformat.obj
 0001:00003b70       ??_E?$num_put@DV?$ostreambuf_iterator@DU?$char_traits@D@std@@@std@@@std@@MAEPAXI@Z 00404b70 f i BootEncryption.obj
 0001:00003b70       ??_Efacet@locale@std@@UAEPAXI@Z 00404b70 f i Tcformat.obj
 0001:00003b90       ?getloc@ios_base@std@@QBE?AVlocale@2@XZ 00404b90 f i Tcformat.obj
 0001:00003bd0       ??1Container@ForEach@CipherShed@@UAE@XZ 00404bd0 f i Tcformat.obj
 0001:00003be0       ??_EContainer@ForEach@CipherShed@@UAEPAXI@Z 00404be0 f i Tcformat.obj
 0001:00003be0       ??_GContainer@ForEach@CipherShed@@UAEPAXI@Z 00404be0 f i Tcformat.obj
 0001:00003c00       _ConvertUTF16toUTF8s       00404c00 f i Tcformat.obj
 0001:00004680       _ComboSelChangeEA          00405680 f   Tcformat.obj
 0001:00005690       _ShowNonSysInPlaceEncUIStatus 00406690 f   Tcformat.obj
 0001:000058b0       _DisplayRandPool           004068b0 f   Tcformat.obj
 0001:00005e40       _PrintFreeSpace            00406e40 f   Tcformat.obj
 0001:00006060       _DisplaySizingErrorText    00407060 f   Tcformat.obj
 0001:00006110       _EnableDisableFileNext     00407110 f   Tcformat.obj
 0001:00006160       _IsSparseFile              00407160 f   Tcformat.obj
 0001:00006220       _GetFileVolSize            00407220 f   Tcformat.obj
 0001:00006980       _HandleOldAssignedDriveLetter 00407980 f   Tcformat.obj
 0001:00006a50       _DetermineMaxHiddenVolSize 00407a50 f   Tcformat.obj
 0001:00006c10       _MountHiddenVolHost        00407c10 f   Tcformat.obj
 0001:00006d00       _ScanVolClusterBitmap      00407d00 f   Tcformat.obj
 0001:00006fa0       ??1?$basic_ios@DU?$char_traits@D@std@@@std@@UAE@XZ 00407fa0 f i BootEncryption.obj
 0001:00006fa0       ??1?$basic_ios@_WU?$char_traits@_W@std@@@std@@UAE@XZ 00407fa0 f i Tcformat.obj
 0001:00006fb0       ??1?$basic_istream@_WU?$char_traits@_W@std@@@std@@UAE@XZ 00407fb0 f i Tcformat.obj
 0001:00006fc0       ??A?$vector@UHostDevice@@V?$allocator@UHostDevice@@@std@@@std@@QAEAAUHostDevice@@I@Z 00407fc0 f i Tcformat.obj
 0001:00007000       ??D?$_Vector_const_iterator@UHostDevice@@V?$allocator@UHostDevice@@@std@@@std@@QBEABUHostDevice@@XZ 00408000 f i Tcformat.obj
 0001:00007030       ??1?$basic_iostream@_WU?$char_traits@_W@std@@@std@@UAE@XZ 00408030 f i Tcformat.obj
 0001:00007060       ??_Glocale@std@@QAEPAXI@Z  00408060 f i Tcformat.obj
 0001:000070d0       ?_Myptr@?$basic_string@DU?$char_traits@D@std@@V?$allocator@D@2@@std@@IBEPBDXZ 004080d0 f i Tcformat.obj
 0001:000070e0       ?setg@?$basic_streambuf@_WU?$char_traits@_W@std@@@std@@IAEXPA_W00@Z 004080e0 f i Tcformat.obj
 0001:00007110       ?setp@?$basic_streambuf@_WU?$char_traits@_W@std@@@std@@IAEXPA_W00@Z 00408110 f i Tcformat.obj
 0001:00007140       ?_Tidy@?$basic_stringbuf@DU?$char_traits@D@std@@V?$allocator@D@2@@std@@IAEXXZ 00408140 f i BootEncryption.obj
 0001:00007140       ?_Tidy@?$basic_stringbuf@_WU?$char_traits@_W@std@@V?$allocator@_W@2@@std@@IAEXXZ 00408140 f i Tcformat.obj
 0001:000071a0       ??1_Sentry_base@?$basic_ostream@_WU?$char_traits@_W@std@@@std@@QAE@XZ 004081a0 f i Tcformat.obj
 0001:000071a0       ??1_Sentry_base@?$basic_ostream@DU?$char_traits@D@std@@@std@@QAE@XZ 004081a0 f i BootEncryption.obj
 0001:000071c0       ??$_Allocate@UHostDevice@@@std@@YAPAUHostDevice@@IPAU1@@Z 004081c0 f i Tcformat.obj
 0001:00007220       ??$_Allocate@D@std@@YAPADIPAD@Z 00408220 f i Tcformat.obj
 0001:00007220       ??$_Allocate@E@std@@YAPAEIPAE@Z 00408220 f i Dlgcode.obj
 0001:00007280       ??$_Copy_opt@PAUHostDevice@@PAU1@Uforward_iterator_tag@std@@@std@@YAPAUHostDevice@@PAU1@00Uforward_iterator_tag@0@U_Nonscalar_ptr_iterator_tag@0@U_Range_checked_iterator_tag@0@@Z 00408280 f i Tcformat.obj
 0001:000072c0       ??0?$ctype@_W@std@@QAE@ABV_Locinfo@1@I@Z 004082c0 f i Tcformat.obj
 0001:00007310       ?do_is@?$ctype@_W@std@@MBE_NF_W@Z 00408310 f i Tcformat.obj
 0001:00007340       ?do_is@?$ctype@_W@std@@MBEPB_WPB_W0PAF@Z 00408340 f i Tcformat.obj
 0001:00007360       ?do_scan_is@?$ctype@_W@std@@MBEPB_WFPB_W0@Z 00408360 f i Tcformat.obj
 0001:000073a0       ?do_scan_not@?$ctype@_W@std@@MBEPB_WFPB_W0@Z 004083a0 f i Tcformat.obj
 0001:000073e0       ?do_tolower@?$ctype@_W@std@@MBE_W_W@Z 004083e0 f i Tcformat.obj
 0001:00007400       ?do_tolower@?$ctype@_W@std@@MBEPB_WPA_WPB_W@Z 00408400 f i Tcformat.obj
 0001:00007440       ?do_toupper@?$ctype@_W@std@@MBE_W_W@Z 00408440 f i Tcformat.obj
 0001:00007460       ?do_toupper@?$ctype@_W@std@@MBEPB_WPA_WPB_W@Z 00408460 f i Tcformat.obj
 0001:000074a0       ?do_widen@?$ctype@_W@std@@MBE_WD@Z 004084a0 f i Tcformat.obj
 0001:000074f0       ?do_widen@?$ctype@_W@std@@MBEPBDPBD0PA_W@Z 004084f0 f i Tcformat.obj
 0001:00007520       ?_Do_widen_s@?$ctype@_W@std@@MBEPBDPBD0PA_WI@Z 00408520 f i Tcformat.obj
 0001:000075a0       ?do_narrow@?$ctype@_W@std@@MBED_WD@Z 004085a0 f i Tcformat.obj
 0001:000075f0       ?do_narrow@?$ctype@_W@std@@MBEPB_WPB_W0DPAD@Z 004085f0 f i Tcformat.obj
 0001:00007620       ?_Do_narrow_s@?$ctype@_W@std@@MBEPB_WPB_W0DPADI@Z 00408620 f i Tcformat.obj
 0001:000076b0       ??_G?$ctype@_W@std@@MAEPAXI@Z 004086b0 f i Tcformat.obj
 0001:000076b0       ??_E?$ctype@_W@std@@MAEPAXI@Z 004086b0 f i Tcformat.obj
 0001:00008630       _QueryFreeSpace            00409630 f   Tcformat.obj
 0001:000089d0       _AnalyzeHiddenVolumeHost   004099d0 f   Tcformat.obj
 0001:00008ea0       ??1?$basic_streambuf@_WU?$char_traits@_W@std@@@std@@UAE@XZ 00409ea0 f i Tcformat.obj
 0001:00008f10       ?overflow@?$basic_streambuf@_WU?$char_traits@_W@std@@@std@@MAEGG@Z 00409f10 f i Tcformat.obj
 0001:00008f10       ?pbackfail@?$basic_streambuf@_WU?$char_traits@_W@std@@@std@@MAEGG@Z 00409f10 f i Tcformat.obj
 0001:00008f20       ?underflow@?$basic_streambuf@_WU?$char_traits@_W@std@@@std@@MAEGXZ 00409f20 f i Tcformat.obj
 0001:00008f30       ?xsgetn@?$basic_streambuf@DU?$char_traits@D@std@@@std@@MAEHPADH@Z 00409f30 f i BootEncryption.obj
 0001:00008f30       ?xsgetn@?$basic_streambuf@_WU?$char_traits@_W@std@@@std@@MAEHPA_WH@Z 00409f30 f i Tcformat.obj
 0001:00008f50       ?setbuf@?$basic_streambuf@_WU?$char_traits@_W@std@@@std@@MAEPAV12@PA_WH@Z 00409f50 f i Tcformat.obj
 0001:00008f50       ?setbuf@?$basic_streambuf@DU?$char_traits@D@std@@@std@@MAEPAV12@PADH@Z 00409f50 f i BootEncryption.obj
 0001:00008f60       ?uflow@?$basic_streambuf@_WU?$char_traits@_W@std@@@std@@MAEGXZ 00409f60 f i Tcformat.obj
 0001:00008f90       ?pbackfail@?$basic_stringbuf@_WU?$char_traits@_W@std@@V?$allocator@_W@2@@std@@MAEGG@Z 00409f90 f i Tcformat.obj
 0001:00008ff0       ?underflow@?$basic_stringbuf@_WU?$char_traits@_W@std@@V?$allocator@_W@2@@std@@MAEGXZ 00409ff0 f i Tcformat.obj
 0001:00009060       ?seekoff@?$basic_stringbuf@_WU?$char_traits@_W@std@@V?$allocator@_W@2@@std@@MAE?AV?$fpos@H@2@JHH@Z 0040a060 f i Tcformat.obj
 0001:000091d0       ?seekpos@?$basic_stringbuf@_WU?$char_traits@_W@std@@V?$allocator@_W@2@@std@@MAE?AV?$fpos@H@2@V32@H@Z 0040a1d0 f i Tcformat.obj
 0001:000092b0       ??_E?$basic_ostream@_WU?$char_traits@_W@std@@@std@@UAEPAXI@Z 0040a2b0 f i Tcformat.obj
 0001:000092b0       ??_G?$basic_ostream@_WU?$char_traits@_W@std@@@std@@UAEPAXI@Z 0040a2b0 f i Tcformat.obj
 0001:000092f0       ??_E?$basic_istream@_WU?$char_traits@_W@std@@@std@@UAEPAXI@Z 0040a2f0 f i Tcformat.obj
 0001:000092f0       ??_G?$basic_istream@_WU?$char_traits@_W@std@@@std@@UAEPAXI@Z 0040a2f0 f i Tcformat.obj
 0001:00009330       ??_E?$basic_streambuf@_WU?$char_traits@_W@std@@@std@@UAEPAXI@Z 0040a330 f i Tcformat.obj
 0001:00009330       ??_G?$basic_streambuf@_WU?$char_traits@_W@std@@@std@@UAEPAXI@Z 0040a330 f i Tcformat.obj
 0001:00009350       ??_E?$basic_iostream@_WU?$char_traits@_W@std@@@std@@UAEPAXI@Z 0040a350 f i Tcformat.obj
 0001:00009350       ??_G?$basic_iostream@_WU?$char_traits@_W@std@@@std@@UAEPAXI@Z 0040a350 f i Tcformat.obj
 0001:000093b0       ??_G?$basic_stringbuf@_WU?$char_traits@_W@std@@V?$allocator@_W@2@@std@@UAEPAXI@Z 0040a3b0 f i Tcformat.obj
 0001:000093b0       ??_E?$basic_stringbuf@_WU?$char_traits@_W@std@@V?$allocator@_W@2@@std@@UAEPAXI@Z 0040a3b0 f i Tcformat.obj
 0001:000093e0       ??0?$basic_streambuf@_WU?$char_traits@_W@std@@@std@@IAE@XZ 0040a3e0 f i Tcformat.obj
 0001:00009490       ??$copy_s@U?$char_traits@D@std@@@_Traits_helper@std@@YAPADPADIPBDI@Z 0040a490 f i Tcformat.obj
 0001:000094c0       ??$_Maklocstr@_W@std@@YAPA_WPBDPA_WABU_Cvtvec@@@Z 0040a4c0 f i Tcformat.obj
 0001:00009580       ?_Tidy@?$numpunct@_W@std@@AAEXXZ 0040a580 f i Tcformat.obj
 0001:00009580       ?_Tidy@?$numpunct@D@std@@AAEXXZ 0040a580 f i BootEncryption.obj
 0001:000095b0       ?_Chassign@?$basic_string@DU?$char_traits@D@std@@V?$allocator@D@2@@std@@IAEXIID@Z 0040a5b0 f i Tcformat.obj
 0001:00009610       ??$_Maklocstr@D@std@@YAPADPBDPADABU_Cvtvec@@@Z 0040a610 f i Tcformat.obj
 0001:00009650       ?_Init@?$numpunct@_W@std@@IAEXABV_Locinfo@2@_N@Z 0040a650 f i Tcformat.obj
 0001:00009850       ??$_Copy_opt@PAUHostDevice@@PAU1@@std@@YAPAUHostDevice@@PAU1@00Urandom_access_iterator_tag@0@U_Nonscalar_ptr_iterator_tag@0@U_Range_checked_iterator_tag@0@@Z 0040a850 f i Tcformat.obj
 0001:00009d70       _UpdateNonSysInPlaceEncControls 0040ad70 f   Tcformat.obj
 0001:0000a1c0       ?_Xsgetn_s@?$basic_streambuf@_WU?$char_traits@_W@std@@@std@@MAEHPA_WIH@Z 0040b1c0 f i Tcformat.obj
 0001:0000a270       ?xsputn@?$basic_streambuf@_WU?$char_traits@_W@std@@@std@@MAEHPB_WH@Z 0040b270 f i Tcformat.obj
 0001:0000a320       ??1?$basic_stringstream@_WU?$char_traits@_W@std@@V?$allocator@_W@2@@std@@UAE@XZ 0040b320 f i Tcformat.obj
 0001:0000a3b0       ?overflow@?$basic_stringbuf@_WU?$char_traits@_W@std@@V?$allocator@_W@2@@std@@MAEGG@Z 0040b3b0 f i Tcformat.obj
 0001:0000a5a0       ?_Tidy@?$basic_string@DU?$char_traits@D@std@@V?$allocator@D@2@@std@@IAEX_NI@Z 0040b5a0 f i Tcformat.obj
 0001:0000a5f0       ?erase@?$basic_string@DU?$char_traits@D@std@@V?$allocator@D@2@@std@@QAEAAV12@II@Z 0040b5f0 f i Tcformat.obj
 0001:0000a680       ?_Put@?$num_put@_WV?$ostreambuf_iterator@_WU?$char_traits@_W@std@@@std@@@std@@ABA?AV?$ostreambuf_iterator@_WU?$char_traits@_W@std@@@2@V32@PB_WI@Z 0040b680 f i Tcformat.obj
 0001:0000a700       ?_Rep@?$num_put@_WV?$ostreambuf_iterator@_WU?$char_traits@_W@std@@@std@@@std@@ABA?AV?$ostreambuf_iterator@_WU?$char_traits@_W@std@@@2@V32@_WI@Z 0040b700 f i Tcformat.obj
 0001:0000a770       ?_Copy@?$basic_string@DU?$char_traits@D@std@@V?$allocator@D@2@@std@@IAEXII@Z 0040b770 f i Tcformat.obj
 0001:0000a8b0       ?_Putc@?$num_put@_WV?$ostreambuf_iterator@_WU?$char_traits@_W@std@@@std@@@std@@ABA?AV?$ostreambuf_iterator@_WU?$char_traits@_W@std@@@2@V32@PBDI@Z 0040b8b0 f i Tcformat.obj
 0001:0000a990       ?_Putgrouped@?$num_put@_WV?$ostreambuf_iterator@_WU?$char_traits@_W@std@@@std@@@std@@ABA?AV?$ostreambuf_iterator@_WU?$char_traits@_W@std@@@2@V32@PBDI_W@Z 0040b990 f i Tcformat.obj
 0001:0000aa30       ??$unchecked_copy@PAUHostDevice@@PAU1@@stdext@@YAPAUHostDevice@@PAU1@00@Z 0040ba30 f i Tcformat.obj
 0001:0000aa60       ??0?$numpunct@_W@std@@QAE@ABV_Locinfo@1@I_N@Z 0040ba60 f i Tcformat.obj
 0001:0000aad0       ?do_decimal_point@?$numpunct@_W@std@@MBE_WXZ 0040bad0 f i Tcformat.obj
 0001:0000aae0       ?do_thousands_sep@?$numpunct@_W@std@@MBE_WXZ 0040bae0 f i Tcformat.obj
 0001:0000aaf0       ??_E?$numpunct@_W@std@@MAEPAXI@Z 0040baf0 f i Tcformat.obj
 0001:0000aaf0       ??_G?$numpunct@_W@std@@MAEPAXI@Z 0040baf0 f i Tcformat.obj
 0001:0000abe0       ??_D?$basic_stringstream@_WU?$char_traits@_W@std@@V?$allocator@_W@2@@std@@QAEXXZ 0040bbe0 f i Tcformat.obj
 0001:0000ac00       ??1?$pair@$$CBV?$basic_string@DU?$char_traits@D@std@@V?$allocator@D@2@@std@@PAX@std@@QAE@XZ 0040bc00 f i Dictionary.obj
 0001:0000ac00       ??1?$basic_string@DU?$char_traits@D@std@@V?$allocator@D@2@@std@@QAE@XZ 0040bc00 f i Tcformat.obj
 0001:0000ac30       ??1?$vector@UHostDevice@@V?$allocator@UHostDevice@@@std@@@std@@QAE@XZ 0040bc30 f i Tcformat.obj
 0001:0000ac90       ??_E?$basic_stringstream@_WU?$char_traits@_W@std@@V?$allocator@_W@2@@std@@UAEPAXI@Z 0040bc90 f i Tcformat.obj
 0001:0000ac90       ??_G?$basic_stringstream@_WU?$char_traits@_W@std@@V?$allocator@_W@2@@std@@UAEPAXI@Z 0040bc90 f i Tcformat.obj
 0001:0000acd0       ??0?$basic_stringbuf@_WU?$char_traits@_W@std@@V?$allocator@_W@2@@std@@QAE@H@Z 0040bcd0 f i Tcformat.obj
 0001:0000ad50       ?falsename@?$numpunct@D@std@@QBE?AV?$basic_string@DU?$char_traits@D@std@@V?$allocator@D@2@@2@XZ 0040bd50 f i BootEncryption.obj
 0001:0000ad50       ?falsename@?$numpunct@_W@std@@QBE?AV?$basic_string@_WU?$char_traits@_W@std@@V?$allocator@_W@2@@2@XZ 0040bd50 f i Tcformat.obj
 0001:0000ad70       ?truename@?$numpunct@D@std@@QBE?AV?$basic_string@DU?$char_traits@D@std@@V?$allocator@D@2@@2@XZ 0040bd70 f i BootEncryption.obj
 0001:0000ad70       ?truename@?$numpunct@_W@std@@QBE?AV?$basic_string@_WU?$char_traits@_W@std@@V?$allocator@_W@2@@2@XZ 0040bd70 f i Tcformat.obj
 0001:0000ad90       ?append@?$basic_string@DU?$char_traits@D@std@@V?$allocator@D@2@@std@@QAEAAV12@ID@Z 0040bd90 f i Tcformat.obj
 0001:0000ae40       ?insert@?$basic_string@DU?$char_traits@D@std@@V?$allocator@D@2@@std@@QAEAAV12@IID@Z 0040be40 f i Tcformat.obj
 0001:0000af40       ?grouping@?$numpunct@_W@std@@QBE?AV?$basic_string@DU?$char_traits@D@std@@V?$allocator@D@2@@2@XZ 0040bf40 f i Tcformat.obj
 0001:0000af40       ?grouping@?$numpunct@D@std@@QBE?AV?$basic_string@DU?$char_traits@D@std@@V?$allocator@D@2@@2@XZ 0040bf40 f i BootEncryption.obj
 0001:0000af60       ?append@?$basic_string@DU?$char_traits@D@std@@V?$allocator@D@2@@std@@QAEAAV12@ABV12@II@Z 0040bf60 f i Tcformat.obj
 0001:0000b060       ?what@logic_error@std@@UBEPBDXZ 0040c060 f i Tcformat.obj
 0001:0000b060       ?what@runtime_error@std@@UBEPBDXZ 0040c060 f i Tcformat.obj
 0001:0000b070       ??0_Locinfo@std@@QAE@ABV?$basic_string@DU?$char_traits@D@std@@V?$allocator@D@2@@1@@Z 0040c070 f i Tcformat.obj
 0001:0000b100       ??1_Locinfo@std@@QAE@XZ    0040c100 f i Tcformat.obj
 0001:0000b1e0       ??1HostDevice@@QAE@XZ      0040c1e0 f i Tcformat.obj
 0001:0000b290       ??1Partition@CipherShed@@QAE@XZ 0040c290 f i Tcformat.obj
 0001:0000b3e0       ??1?$ContainerForward@V?$vector@UHostDevice@@V?$allocator@UHostDevice@@@std@@@std@@@ForEach@CipherShed@@UAE@XZ 0040c3e0 f i Tcformat.obj
 0001:0000b430       ?assign@?$basic_string@DU?$char_traits@D@std@@V?$allocator@D@2@@std@@QAEAAV12@ABV12@II@Z 0040c430 f i Tcformat.obj
 0001:0000b510       ?assign@?$basic_string@DU?$char_traits@D@std@@V?$allocator@D@2@@std@@QAEAAV12@PBDI@Z 0040c510 f i Tcformat.obj
 0001:0000b5f0       ?append@?$basic_string@DU?$char_traits@D@std@@V?$allocator@D@2@@std@@QAEAAV12@PBDI@Z 0040c5f0 f i Tcformat.obj
 0001:0000b700       ??0?$basic_string@DU?$char_traits@D@std@@V?$allocator@D@2@@std@@QAE@ABV01@@Z 0040c700 f i Tcformat.obj
 0001:0000b730       ??$?HDU?$char_traits@D@std@@V?$allocator@D@1@@std@@YA?AV?$basic_string@DU?$char_traits@D@std@@V?$allocator@D@2@@0@ABV10@0@Z 0040c730 f i Tcformat.obj
 0001:0000b7e0       ??0logic_error@std@@QAE@ABV?$basic_string@DU?$char_traits@D@std@@V?$allocator@D@2@@1@@Z 0040c7e0 f i Tcformat.obj
 0001:0000b850       ??0length_error@std@@QAE@ABV?$basic_string@DU?$char_traits@D@std@@V?$allocator@D@2@@1@@Z 0040c850 f i Tcformat.obj
 0001:0000b870       ??1length_error@std@@UAE@XZ 0040c870 f i Tcformat.obj
 0001:0000b870       ??1out_of_range@std@@UAE@XZ 0040c870 f i Dictionary.obj
 0001:0000b8b0       ??_Elogic_error@std@@UAEPAXI@Z 0040c8b0 f i Tcformat.obj
 0001:0000b8b0       ??_Gout_of_range@std@@UAEPAXI@Z 0040c8b0 f i Dictionary.obj
 0001:0000b8b0       ??_Elength_error@std@@UAEPAXI@Z 0040c8b0 f i Tcformat.obj
 0001:0000b8b0       ??_Glength_error@std@@UAEPAXI@Z 0040c8b0 f i Tcformat.obj
 0001:0000b8b0       ??_Glogic_error@std@@UAEPAXI@Z 0040c8b0 f i Tcformat.obj
 0001:0000b8b0       ??_Eout_of_range@std@@UAEPAXI@Z 0040c8b0 f i Dictionary.obj
 0001:0000b900       ??0runtime_error@std@@QAE@ABV?$basic_string@DU?$char_traits@D@std@@V?$allocator@D@2@@1@@Z 0040c900 f i Tcformat.obj
 0001:0000b970       ?name@locale@std@@QBE?AV?$basic_string@DU?$char_traits@D@std@@V?$allocator@D@2@@2@XZ 0040c970 f i Tcformat.obj
 0001:0000b9a0       ?_Getcat@?$ctype@_W@std@@SAIPAPBVfacet@locale@2@PBV42@@Z 0040c9a0 f i Tcformat.obj
 0001:0000baa0       ??1failure@ios_base@std@@UAE@XZ 0040caa0 f i Tcformat.obj
 0001:0000bae0       ??_Gruntime_error@std@@UAEPAXI@Z 0040cae0 f i Tcformat.obj
 0001:0000bae0       ??_Efailure@ios_base@std@@UAEPAXI@Z 0040cae0 f i Tcformat.obj
 0001:0000bae0       ??_Eruntime_error@std@@UAEPAXI@Z 0040cae0 f i Tcformat.obj
 0001:0000bae0       ??_Gfailure@ios_base@std@@UAEPAXI@Z 0040cae0 f i Tcformat.obj
 0001:0000bb30       ??0?$basic_string@DU?$char_traits@D@std@@V?$allocator@D@2@@std@@QAE@PBD@Z 0040cb30 f i Tcformat.obj
 0001:0000bb70       ?str@?$basic_stringbuf@_WU?$char_traits@_W@std@@V?$allocator@_W@2@@std@@QBE?AV?$basic_string@_WU?$char_traits@_W@std@@V?$allocator@_W@2@@2@XZ 0040cb70 f i Tcformat.obj
 0001:0000bce0       ??0logic_error@std@@QAE@ABV01@@Z 0040cce0 f i Tcformat.obj
 0001:0000bd60       ?do_falsename@?$numpunct@_W@std@@MBE?AV?$basic_string@_WU?$char_traits@_W@std@@V?$allocator@_W@2@@2@XZ 0040cd60 f i Tcformat.obj
 0001:0000bdb0       ?do_truename@?$numpunct@_W@std@@MBE?AV?$basic_string@_WU?$char_traits@_W@std@@V?$allocator@_W@2@@2@XZ 0040cdb0 f i Tcformat.obj
 0001:0000be00       ??0length_error@std@@QAE@ABV01@@Z 0040ce00 f i Tcformat.obj
 0001:0000be20       ??$use_facet@V?$ctype@_W@std@@@std@@YAABV?$ctype@_W@0@ABVlocale@0@@Z 0040ce20 f i Tcformat.obj
 0001:0000bf70       ?_Getcat@?$num_put@_WV?$ostreambuf_iterator@_WU?$char_traits@_W@std@@@std@@@std@@SAIPAPBVfacet@locale@2@PBV42@@Z 0040cf70 f i Tcformat.obj
 0001:0000c080       ?_Getcat@?$numpunct@_W@std@@SAIPAPBVfacet@locale@2@PBV42@@Z 0040d080 f i Tcformat.obj
 0001:0000c190       ?clear@ios_base@std@@QAEXH_N@Z 0040d190 f i Tcformat.obj
 0001:0000c2c0       ??0runtime_error@std@@QAE@ABV01@@Z 0040d2c0 f i Tcformat.obj
 0001:0000c340       ??0failure@ios_base@std@@QAE@ABV012@@Z 0040d340 f i Tcformat.obj
 0001:0000c360       ?_Init@ios_base@std@@IAEXXZ 0040d360 f i Tcformat.obj
 0001:0000c680       _ExtractCommandLine        0040d680 f   Tcformat.obj
 0001:0000d180       ?str@?$basic_stringstream@_WU?$char_traits@_W@std@@V?$allocator@_W@2@@std@@QBE?AV?$basic_string@_WU?$char_traits@_W@std@@V?$allocator@_W@2@@2@XZ 0040e180 f i Tcformat.obj
 0001:0000d1a0       ?_Buy@?$vector@UHostDevice@@V?$allocator@UHostDevice@@@std@@@std@@IAE_NI@Z 0040e1a0 f i Tcformat.obj
 0001:0000d1f0       ?widen@?$basic_ios@_WU?$char_traits@_W@std@@@std@@QBE_WD@Z 0040e1f0 f i Tcformat.obj
 0001:0000d2b0       ??$use_facet@V?$num_put@_WV?$ostreambuf_iterator@_WU?$char_traits@_W@std@@@std@@@std@@@std@@YAABV?$num_put@_WV?$ostreambuf_iterator@_WU?$char_traits@_W@std@@@std@@@0@ABVlocale@0@@Z 0040e2b0 f i Tcformat.obj
 0001:0000d400       ??$use_facet@V?$numpunct@_W@std@@@std@@YAABV?$numpunct@_W@0@ABVlocale@0@@Z 0040e400 f i Tcformat.obj
 0001:0000d550       _DisplayPortionsOfKeys     0040e550 f   Tcformat.obj
 0001:0000d770       ?do_put@?$num_put@_WV?$ostreambuf_iterator@_WU?$char_traits@_W@std@@@std@@@std@@MBE?AV?$ostreambuf_iterator@_WU?$char_traits@_W@std@@@2@V32@AAVios_base@2@_W_N@Z 0040e770 f i Tcformat.obj
 0001:0000d990       ?clear@?$list@UPartition@CipherShed@@V?$allocator@UPartition@CipherShed@@@std@@@std@@QAEXXZ 0040e990 f i Tcformat.obj
 0001:0000d9d0       ?_Fput@?$num_put@_WV?$ostreambuf_iterator@_WU?$char_traits@_W@std@@@std@@@std@@ABA?AV?$ostreambuf_iterator@_WU?$char_traits@_W@std@@@2@V32@AAVios_base@2@_WPBDIIII@Z 0040e9d0 f i Tcformat.obj
 0001:0000e0b0       ?_Iput@?$num_put@_WV?$ostreambuf_iterator@_WU?$char_traits@_W@std@@@std@@@std@@ABA?AV?$ostreambuf_iterator@_WU?$char_traits@_W@std@@@2@V32@AAVios_base@2@_WPADI@Z 0040f0b0 f i Tcformat.obj
 0001:0000e3a0       ?_Tidy@?$list@UPartition@CipherShed@@V?$allocator@UPartition@CipherShed@@@std@@@std@@IAEXXZ 0040f3a0 f i Tcformat.obj
 0001:0000e3c0       ?do_put@?$num_put@_WV?$ostreambuf_iterator@_WU?$char_traits@_W@std@@@std@@@std@@MBE?AV?$ostreambuf_iterator@_WU?$char_traits@_W@std@@@2@V32@AAVios_base@2@_WJ@Z 0040f3c0 f i Tcformat.obj
 0001:0000e440       ?do_put@?$num_put@_WV?$ostreambuf_iterator@_WU?$char_traits@_W@std@@@std@@@std@@MBE?AV?$ostreambuf_iterator@_WU?$char_traits@_W@std@@@2@V32@AAVios_base@2@_WK@Z 0040f440 f i Tcformat.obj
 0001:0000e4c0       ?do_put@?$num_put@_WV?$ostreambuf_iterator@_WU?$char_traits@_W@std@@@std@@@std@@MBE?AV?$ostreambuf_iterator@_WU?$char_traits@_W@std@@@2@V32@AAVios_base@2@_W_J@Z 0040f4c0 f i Tcformat.obj
 0001:0000e550       ?do_put@?$num_put@_WV?$ostreambuf_iterator@_WU?$char_traits@_W@std@@@std@@@std@@MBE?AV?$ostreambuf_iterator@_WU?$char_traits@_W@std@@@2@V32@AAVios_base@2@_W_K@Z 0040f550 f i Tcformat.obj
 0001:0000e5e0       ?do_put@?$num_put@_WV?$ostreambuf_iterator@_WU?$char_traits@_W@std@@@std@@@std@@MBE?AV?$ostreambuf_iterator@_WU?$char_traits@_W@std@@@2@V32@AAVios_base@2@_WN@Z 0040f5e0 f i Tcformat.obj
 0001:0000e7d0       ?do_put@?$num_put@_WV?$ostreambuf_iterator@_WU?$char_traits@_W@std@@@std@@@std@@MBE?AV?$ostreambuf_iterator@_WU?$char_traits@_W@std@@@2@V32@AAVios_base@2@_WO@Z 0040f7d0 f i Tcformat.obj
 0001:0000e9b0       ?do_put@?$num_put@_WV?$ostreambuf_iterator@_WU?$char_traits@_W@std@@@std@@@std@@MBE?AV?$ostreambuf_iterator@_WU?$char_traits@_W@std@@@2@V32@AAVios_base@2@_WPBX@Z 0040f9b0 f i Tcformat.obj
 0001:0000ea20       ?_Osfx@?$basic_ostream@DU?$char_traits@D@std@@@std@@QAEXXZ 0040fa20 f i BootEncryption.obj
 0001:0000ea20       ?_Osfx@?$basic_ostream@_WU?$char_traits@_W@std@@@std@@QAEXXZ 0040fa20 f i Tcformat.obj
 0001:0000ea80       ?_Destroy@?$vector@UHostDevice@@V?$allocator@UHostDevice@@@std@@@std@@IAEXPAUHostDevice@@0@Z 0040fa80 f i Tcformat.obj
 0001:0000eab0       ??1?$list@UPartition@CipherShed@@V?$allocator@UPartition@CipherShed@@@std@@@std@@QAE@XZ 0040fab0 f i Tcformat.obj
 0001:0000eae0       ?erase@?$vector@UHostDevice@@V?$allocator@UHostDevice@@@std@@@std@@QAE?AV?$_Vector_iterator@UHostDevice@@V?$allocator@UHostDevice@@@std@@@2@V?$_Vector_const_iterator@UHostDevice@@V?$allocator@UHostDevice@@@std@@@2@0@Z 0040fae0 f i Tcformat.obj
 0001:0000eba0       ?_Tidy@?$vector@UHostDevice@@V?$allocator@UHostDevice@@@std@@@std@@IAEXXZ 0040fba0 f i Tcformat.obj
 0001:0000ebf0       ??0?$basic_iostream@_WU?$char_traits@_W@std@@@std@@QAE@PAV?$basic_streambuf@_WU?$char_traits@_W@std@@@1@@Z 0040fbf0 f i Tcformat.obj
 0001:0000ecd0       ??0?$vector@UHostDevice@@V?$allocator@UHostDevice@@@std@@@std@@QAE@ABV01@@Z 0040fcd0 f i Tcformat.obj
 0001:0000ede0       ??$?6_WU?$char_traits@_W@std@@@std@@YAAAV?$basic_ostream@_WU?$char_traits@_W@std@@@0@AAV10@PB_W@Z 0040fde0 f i Tcformat.obj
 0001:0000f000       ??0?$ContainerForward@V?$vector@UHostDevice@@V?$allocator@UHostDevice@@@std@@@std@@@ForEach@CipherShed@@QAE@ABV?$vector@UHostDevice@@V?$allocator@UHostDevice@@@std@@@std@@@Z 00410000 f i Tcformat.obj
 0001:0000f0a0       ?Next@?$ContainerForward@V?$vector@UHostDevice@@V?$allocator@UHostDevice@@@std@@@std@@@ForEach@CipherShed@@UBEXXZ 004100a0 f i Tcformat.obj
 0001:0000f0e0       ??_G?$ContainerForward@V?$vector@UHostDevice@@V?$allocator@UHostDevice@@@std@@@std@@@ForEach@CipherShed@@UAEPAXI@Z 004100e0 f i Tcformat.obj
 0001:0000f0e0       ??_E?$ContainerForward@V?$vector@UHostDevice@@V?$allocator@UHostDevice@@@std@@@std@@@ForEach@CipherShed@@UAEPAXI@Z 004100e0 f i Tcformat.obj
 0001:0000f100       ??1SystemDriveConfiguration@CipherShed@@QAE@XZ 00410100 f i Tcformat.obj
 0001:0000f270       ??6?$basic_ostream@_WU?$char_traits@_W@std@@@std@@QAEAAV01@_J@Z 00410270 f i Tcformat.obj
 0001:0000f3c0       ?clear@?$vector@UHostDevice@@V?$allocator@UHostDevice@@@std@@@std@@QAEXXZ 004103c0 f i Tcformat.obj
 0001:0000f400       ??0?$basic_stringstream@_WU?$char_traits@_W@std@@V?$allocator@_W@2@@std@@QAE@H@Z 00410400 f i Tcformat.obj
 0001:0000f4a0       ??0HostDevice@@QAE@ABU0@@Z 004104a0 f i Tcformat.obj
 0001:0000f5a0       ??$GetContainerForward@V?$vector@UHostDevice@@V?$allocator@UHostDevice@@@std@@@std@@@ForEach@CipherShed@@SA?AU?$ContainerForward@V?$vector@UHostDevice@@V?$allocator@UHostDevice@@@std@@@std@@@01@ABV?$vector@UHostDevice@@V?$allocator@UHostDevice@@@std@@@std@@@Z 004105a0 f i Tcformat.obj
 0001:0000f5c0       ?GetSystemPartitionSize@@YA_JXZ 004105c0 f   Tcformat.obj
 0001:0000f660       _PageDialogProc@16         00410660 f   Tcformat.obj
 0001:00014940       ??$_Uninit_copy@PBUHostDevice@@PAU1@V?$allocator@UHostDevice@@@std@@@std@@YAPAUHostDevice@@PBU1@0PAU1@AAV?$allocator@UHostDevice@@@0@U_Nonscalar_ptr_iterator_tag@0@U_Range_checked_iterator_tag@0@@Z 00415940 f i Tcformat.obj
 0001:00014940       ??$_Uninit_copy@PAUHostDevice@@PAU1@V?$allocator@UHostDevice@@@std@@@std@@YAPAUHostDevice@@PAU1@00AAV?$allocator@UHostDevice@@@0@U_Nonscalar_ptr_iterator_tag@0@U_Range_checked_iterator_tag@0@@Z 00415940 f i Tcformat.obj
 0001:00014ed0       ??$_Uninit_fill_n@PAUHostDevice@@IU1@V?$allocator@UHostDevice@@@std@@@std@@YAXPAUHostDevice@@IABU1@AAV?$allocator@UHostDevice@@@0@U_Nonscalar_ptr_iterator_tag@0@U_Range_checked_iterator_tag@0@@Z 00415ed0 f i Tcformat.obj
 0001:00014f80       _SwitchWizardToSysEncMode  00415f80 f   Tcformat.obj
 0001:00015750       _SwitchWizardToFileContainerMode 00416750 f   Tcformat.obj
 0001:00015960       ?SwitchWizardToNonSysDeviceMode@@YAXXZ 00416960 f   Tcformat.obj
 0001:00015b50       ?SwitchWizardToHiddenOSMode@@YAHXZ 00416b50 f   Tcformat.obj
 0001:00015e60       ?SwitchWizardToNonSysInplaceEncResumeMode@@YAXXZ 00416e60 f   Tcformat.obj
 0001:00016f90       ?_Ufill@?$vector@UHostDevice@@V?$allocator@UHostDevice@@@std@@@std@@IAEPAUHostDevice@@PAU3@IABU3@@Z 00417f90 f i Tcformat.obj
 0001:00016fd0       ??4?$vector@UHostDevice@@V?$allocator@UHostDevice@@@std@@@std@@QAEAAV01@ABV01@@Z 00417fd0 f i Tcformat.obj
 0001:00017140       ??$_Umove@PAUHostDevice@@@?$vector@UHostDevice@@V?$allocator@UHostDevice@@@std@@@std@@IAEPAUHostDevice@@PAU2@00@Z 00418140 f i Tcformat.obj
 0001:00017140       ??$_Ucopy@PAUHostDevice@@@?$vector@UHostDevice@@V?$allocator@UHostDevice@@@std@@@std@@IAEPAUHostDevice@@PAU2@00@Z 00418140 f i Tcformat.obj
 0001:00017170       ??4HostDevice@@QAEAAU0@ABU0@@Z 00418170 f i Tcformat.obj
 0001:00017210       ??$_Copy_backward_opt@PAUHostDevice@@PAU1@Uforward_iterator_tag@std@@@std@@YAPAUHostDevice@@PAU1@00Uforward_iterator_tag@0@U_Nonscalar_ptr_iterator_tag@0@U_Range_checked_iterator_tag@0@@Z 00418210 f i Tcformat.obj
 0001:00017250       ??$_Copy_backward_opt@PAUHostDevice@@PAU1@@std@@YAPAUHostDevice@@PAU1@00Urandom_access_iterator_tag@0@U_Nonscalar_ptr_iterator_tag@0@U_Range_checked_iterator_tag@0@@Z 00418250 f i Tcformat.obj
 0001:000172b0       ??$fill@PAUHostDevice@@U1@@std@@YAXPAUHostDevice@@0ABU1@@Z 004182b0 f i Tcformat.obj
 0001:000172e0       ??$_Unchecked_move_backward@PAUHostDevice@@PAU1@@stdext@@YAPAUHostDevice@@PAU1@00@Z 004182e0 f i Tcformat.obj
 0001:00017310       ?_Insert_n@?$vector@UHostDevice@@V?$allocator@UHostDevice@@@std@@@std@@IAEXV?$_Vector_const_iterator@UHostDevice@@V?$allocator@UHostDevice@@@std@@@2@IABUHostDevice@@@Z 00418310 f i Tcformat.obj
 0001:000176c0       ?insert@?$vector@UHostDevice@@V?$allocator@UHostDevice@@@std@@@std@@QAE?AV?$_Vector_iterator@UHostDevice@@V?$allocator@UHostDevice@@@std@@@2@V?$_Vector_const_iterator@UHostDevice@@V?$allocator@UHostDevice@@@std@@@2@ABUHostDevice@@@Z 004186c0 f i Tcformat.obj
 0001:00017790       ?push_back@?$vector@UHostDevice@@V?$allocator@UHostDevice@@@std@@@std@@QAEXABUHostDevice@@@Z 00418790 f i Tcformat.obj
 0001:00017840       _MainDialogProc@16         00418840 f   Tcformat.obj
 0001:0001c330       _WinMain@16                0041d330 f   Tcformat.obj
 0001:0001c510       ?AtlThrowImpl@ATL@@YGXJ@Z  0041d510 f i BaseCom.obj
 0001:0001c530       ?AtlThrowLastWin32@ATL@@YGXXZ 0041d530 f i BaseCom.obj
 0001:0001c550       ?CreateElevatedComObject@@YAJPAUHWND__@@ABU_GUID@@1PAPAX@Z 0041d550 f   BaseCom.obj
 0001:0001c630       ?ComGetInstanceBase@@YAHPAUHWND__@@ABU_GUID@@1PAPAX@Z 0041d630 f   BaseCom.obj
 0001:0001c690       ?CallDriver@BaseCom@@SAKKPA_WPAPA_W@Z 0041d690 f   BaseCom.obj
 0001:0001c770       ?IsPagingFileActive@BaseCom@@SAHH@Z 0041d770 f   BaseCom.obj
 0001:0001c780       ?RegisterFilterDriver@BaseCom@@SAKHH@Z 0041d780 f   BaseCom.obj
 0001:0001c850       ?RegisterSystemFavoritesService@BaseCom@@SAKH@Z 0041d850 f   BaseCom.obj
 0001:0001c910       ?SetDriverServiceStartType@BaseCom@@SAKK@Z 0041d910 f   BaseCom.obj
 0001:0001c9d0       ??$AtlConvAllocMemory@D@ATL@@YAXPAPADHPADH@Z 0041d9d0 f i BaseCom.obj
 0001:0001ca60       ??1?$CW2AEX@$0IA@@ATL@@QAE@XZ 0041da60 f i BaseCom.obj
 0001:0001ca80       ?Init@?$CW2AEX@$0IA@@ATL@@AAEXPB_WI@Z 0041da80 f i BaseCom.obj
 0001:0001cb40       ?CopyFileA@BaseCom@@SAKPA_W0@Z 0041db40 f   BaseCom.obj
 0001:0001cc40       ?DeleteFileA@BaseCom@@SAKPA_W@Z 0041dc40 f   BaseCom.obj
 0001:0001ccb0       ?WriteLocalMachineRegistryDwordValue@BaseCom@@SAKPA_W0K@Z 0041dcb0 f   BaseCom.obj
 0001:0001cdb0       ??1File@CipherShed@@QAE@XZ 0041ddb0 f i BaseCom.obj
 0001:0001ce20       ??1?$auto_ptr@VFile@CipherShed@@@std@@QAE@XZ 0041de20 f i BaseCom.obj
 0001:0001ce40       ?ReadWriteFile@BaseCom@@SAKHHPA_WPAPA_W_KIPAK@Z 0041de40 f   BaseCom.obj
 0001:0001d060       ??0bad_alloc@std@@QAE@XZ   0041e060 f i BootEncryption.obj
 0001:0001d080       ?compare@?$char_traits@D@std@@SAHPBD0I@Z 0041e080 f i BootEncryption.obj
 0001:0001d100       ?AtlCrtErrorCheck@ATL@@YAHH@Z 0041e100 f i BootEncryption.obj
 0001:0001d1a0       ?memcpy_s@Checked@ATL@@YAXPAXIPBXI@Z 0041e1a0 f i BootEncryption.obj
 0001:0001d1d0       ?AppendBytes@CComBSTR@ATL@@QAEJPBDH@Z 0041e1d0 f i BootEncryption.obj
 0001:0001d260       ??1CComBSTR@ATL@@QAE@XZ    0041e260 f i BootEncryption.obj
 0001:0001d270       ?Show@TimeOut@CipherShed@@UBEXPAUHWND__@@@Z 0041e270 f i BootEncryption.obj
 0001:0001d280       ??0Buffer@CipherShed@@QAE@I@Z 0041e280 f i BootEncryption.obj
 0001:0001d2d0       ??1Buffer@CipherShed@@QAE@XZ 0041e2d0 f i BootEncryption.obj
 0001:0001d2e0       ?Close@File@CipherShed@@QAEXXZ 0041e2e0 f   BootEncryption.obj
 0001:0001d310       ?InvalidateCachedSysDriveProperties@BootEncryption@CipherShed@@QAEXXZ 0041e310 f   BootEncryption.obj
 0001:0001d320       ?GetChecksum@BootEncryption@CipherShed@@IAEIPAEI@Z 0041e320 f   BootEncryption.obj
 0001:0001d390       ?ReadDriverConfigurationFlags@BootEncryption@CipherShed@@QAEIXZ 0041e390 f   BootEncryption.obj
 0001:0001d390       _ReadDriverConfigurationFlags 0041e390 f   Dlgcode.obj
 0001:0001d3c0       ?RestartComputer@BootEncryption@CipherShed@@QAE_NXZ 0041e3c0 f   BootEncryption.obj
 0001:0001d3d0       ??1?$basic_istream@DU?$char_traits@D@std@@@std@@UAE@XZ 0041e3d0 f i BootEncryption.obj
 0001:0001d3e0       ??1?$CAtlSafeAllocBufferManager@VCCRTAllocator@ATL@@@_ATL_SAFE_ALLOCA_IMPL@ATL@@QAE@XZ 0041e3e0 f i BootEncryption.obj
 0001:0001d400       ??1?$basic_iostream@DU?$char_traits@D@std@@@std@@UAE@XZ 0041e400 f i BootEncryption.obj
 0001:0001d430       ??_E?$basic_ios@DU?$char_traits@D@std@@@std@@UAEPAXI@Z 0041e430 f i BootEncryption.obj
 0001:0001d430       ??_G?$basic_ios@_WU?$char_traits@_W@std@@@std@@UAEPAXI@Z 0041e430 f i Tcformat.obj
 0001:0001d430       ??_Eios_base@std@@UAEPAXI@Z 0041e430 f i Tcformat.obj
 0001:0001d430       ??_E?$basic_ios@_WU?$char_traits@_W@std@@@std@@UAEPAXI@Z 0041e430 f i Tcformat.obj
 0001:0001d430       ??_G?$basic_ios@DU?$char_traits@D@std@@@std@@UAEPAXI@Z 0041e430 f i BootEncryption.obj
 0001:0001d430       ??_Gios_base@std@@UAEPAXI@Z 0041e430 f i Tcformat.obj
 0001:0001d460       ?_Pnavail@?$basic_streambuf@_WU?$char_traits@_W@std@@@std@@IBEHXZ 0041e460 f i Tcformat.obj
 0001:0001d460       ?_Pnavail@?$basic_streambuf@DU?$char_traits@D@std@@@std@@IBEHXZ 0041e460 f i BootEncryption.obj
 0001:0001d480       ?_Init@?$basic_streambuf@_WU?$char_traits@_W@std@@@std@@IAEXXZ 0041e480 f i Tcformat.obj
 0001:0001d480       ?_Init@?$basic_streambuf@DU?$char_traits@D@std@@@std@@IAEXXZ 0041e480 f i BootEncryption.obj
 0001:0001d4e0       ??0?$ctype@D@std@@QAE@ABV_Locinfo@1@I@Z 0041e4e0 f i BootEncryption.obj
 0001:0001d520       ?do_tolower@?$ctype@D@std@@MBEDD@Z 0041e520 f i BootEncryption.obj
 0001:0001d540       ?do_tolower@?$ctype@D@std@@MBEPBDPADPBD@Z 0041e540 f i BootEncryption.obj
 0001:0001d570       ?do_toupper@?$ctype@D@std@@MBEDD@Z 0041e570 f i BootEncryption.obj
 0001:0001d590       ?do_toupper@?$ctype@D@std@@MBEPBDPADPBD@Z 0041e590 f i BootEncryption.obj
 0001:0001d5c0       ?do_widen@?$ctype@D@std@@MBEDD@Z 0041e5c0 f i BootEncryption.obj
 0001:0001d5d0       ?do_widen@?$ctype@D@std@@MBEPBDPBD0PAD@Z 0041e5d0 f i BootEncryption.obj
 0001:0001d600       ?_Do_widen_s@?$ctype@D@std@@MBEPBDPBD0PADI@Z 0041e600 f i BootEncryption.obj
 0001:0001d640       ?do_narrow@?$ctype@D@std@@MBEDDD@Z 0041e640 f i BootEncryption.obj
 0001:0001d650       ?do_narrow@?$ctype@D@std@@MBEPBDPBD0DPAD@Z 0041e650 f i BootEncryption.obj
 0001:0001d680       ?_Do_narrow_s@?$ctype@D@std@@MBEPBDPBD0DPADI@Z 0041e680 f i BootEncryption.obj
 0001:0001d6c0       ??_E?$ctype@D@std@@MAEPAXI@Z 0041e6c0 f i BootEncryption.obj
 0001:0001d6c0       ??_G?$ctype@D@std@@MAEPAXI@Z 0041e6c0 f i BootEncryption.obj
 0001:0001d710       ??0CComBSTR@ATL@@QAE@PBD@Z 0041e710 f i BootEncryption.obj
 0001:0001d7b0       ??0SystemException@CipherShed@@QAE@XZ 0041e7b0 f i BootEncryption.obj
 0001:0001d7d0       ?Show@SystemException@CipherShed@@UBEXPAUHWND__@@@Z 0041e7d0 f i BootEncryption.obj
 0001:0001d7f0       ?Elevate@Elevator@CipherShed@@KAXXZ 0041e7f0 f i BootEncryption.obj
 0001:0001d880       ??0SystemException@CipherShed@@QAE@ABU01@@Z 0041e880 f i BootEncryption.obj
 0001:0001d8a0       ?SeekAt@File@CipherShed@@QAEX_J@Z 0041e8a0 f   BootEncryption.obj
 0001:0001d8f0       ?CreateVolumeHeader@BootEncryption@CipherShed@@IAEX_K0PAUPassword@@HHH@Z 0041e8f0 f   BootEncryption.obj
 0001:0001db10       ??0ParameterIncorrect@CipherShed@@QAE@ABU01@@Z 0041eb10 f i BootEncryption.obj
 0001:0001db30       ??1?$basic_streambuf@DU?$char_traits@D@std@@@std@@UAE@XZ 0041eb30 f i BootEncryption.obj
 0001:0001dba0       ?pbackfail@?$basic_streambuf@DU?$char_traits@D@std@@@std@@MAEHH@Z 0041eba0 f i BootEncryption.obj
 0001:0001dba0       ?overflow@?$basic_streambuf@DU?$char_traits@D@std@@@std@@MAEHH@Z 0041eba0 f i BootEncryption.obj
 0001:0001dbb0       ?sync@?$basic_streambuf@_WU?$char_traits@_W@std@@@std@@MAEHXZ 0041ebb0 f i Tcformat.obj
 0001:0001dbb0       ?showmanyc@?$basic_streambuf@DU?$char_traits@D@std@@@std@@MAEHXZ 0041ebb0 f i BootEncryption.obj
 0001:0001dbb0       ?sync@?$basic_streambuf@DU?$char_traits@D@std@@@std@@MAEHXZ 0041ebb0 f i BootEncryption.obj
 0001:0001dbb0       ?showmanyc@?$basic_streambuf@_WU?$char_traits@_W@std@@@std@@MAEHXZ 0041ebb0 f i Tcformat.obj
 0001:0001dbc0       ?underflow@?$basic_streambuf@DU?$char_traits@D@std@@@std@@MAEHXZ 0041ebc0 f i BootEncryption.obj
 0001:0001dbd0       ?Show@UserAbort@CipherShed@@UBEXPAUHWND__@@@Z 0041ebd0 f i FormatCom.obj
 0001:0001dbd0       ?imbue@?$basic_streambuf@_WU?$char_traits@_W@std@@@std@@MAEXABVlocale@2@@Z 0041ebd0 f i Tcformat.obj
 0001:0001dbd0       ?imbue@?$basic_streambuf@DU?$char_traits@D@std@@@std@@MAEXABVlocale@2@@Z 0041ebd0 f i BootEncryption.obj
 0001:0001dbe0       ?_Gnavail@?$basic_streambuf@DU?$char_traits@D@std@@@std@@IBEHXZ 0041ebe0 f i BootEncryption.obj
 0001:0001dbe0       ?_Gnavail@?$basic_streambuf@_WU?$char_traits@_W@std@@@std@@IBEHXZ 0041ebe0 f i Tcformat.obj
 0001:0001dc00       ?uflow@?$basic_streambuf@DU?$char_traits@D@std@@@std@@MAEHXZ 0041ec00 f i BootEncryption.obj
 0001:0001dc30       ?seekoff@?$basic_streambuf@_WU?$char_traits@_W@std@@@std@@MAE?AV?$fpos@H@2@JHH@Z 0041ec30 f i Tcformat.obj
 0001:0001dc30       ?seekoff@?$basic_streambuf@DU?$char_traits@D@std@@@std@@MAE?AV?$fpos@H@2@JHH@Z 0041ec30 f i BootEncryption.obj
 0001:0001dc50       ?seekpos@?$basic_streambuf@_WU?$char_traits@_W@std@@@std@@MAE?AV?$fpos@H@2@V32@H@Z 0041ec50 f i Tcformat.obj
 0001:0001dc50       ?seekpos@?$basic_streambuf@DU?$char_traits@D@std@@@std@@MAE?AV?$fpos@H@2@V32@H@Z 0041ec50 f i BootEncryption.obj
 0001:0001dc70       ??D?$_Const_iterator@$00@?$list@UPartition@CipherShed@@V?$allocator@UPartition@CipherShed@@@std@@@std@@QBEABUPartition@CipherShed@@XZ 0041ec70 f i BootEncryption.obj
 0001:0001dc70       ??D?$_Const_iterator@$00@?$list@USecurityTokenKeyfile@CipherShed@@V?$allocator@USecurityTokenKeyfile@CipherShed@@@std@@@std@@QBEABUSecurityTokenKeyfile@CipherShed@@XZ 0041ec70 f i Dlgcode.obj
 0001:0001dc70       ??D?$_Const_iterator@$00@?$list@USecurityTokenKeyfilePath@CipherShed@@V?$allocator@USecurityTokenKeyfilePath@CipherShed@@@std@@@std@@QBEABUSecurityTokenKeyfilePath@CipherShed@@XZ 0041ec70 f i Keyfiles.obj
 0001:0001dca0       ?pbackfail@?$basic_stringbuf@DU?$char_traits@D@std@@V?$allocator@D@2@@std@@MAEHH@Z 0041eca0 f i BootEncryption.obj
 0001:0001dcf0       ?underflow@?$basic_stringbuf@DU?$char_traits@D@std@@V?$allocator@D@2@@std@@MAEHXZ 0041ecf0 f i BootEncryption.obj
 0001:0001dd60       ?seekoff@?$basic_stringbuf@DU?$char_traits@D@std@@V?$allocator@D@2@@std@@MAE?AV?$fpos@H@2@JHH@Z 0041ed60 f i BootEncryption.obj
 0001:0001dec0       ?seekpos@?$basic_stringbuf@DU?$char_traits@D@std@@V?$allocator@D@2@@std@@MAE?AV?$fpos@H@2@V32@H@Z 0041eec0 f i BootEncryption.obj
 0001:0001df90       ??_G?$basic_ostream@DU?$char_traits@D@std@@@std@@UAEPAXI@Z 0041ef90 f i BootEncryption.obj
 0001:0001df90       ??_E?$basic_ostream@DU?$char_traits@D@std@@@std@@UAEPAXI@Z 0041ef90 f i BootEncryption.obj
 0001:0001dfd0       ??_G?$basic_istream@DU?$char_traits@D@std@@@std@@UAEPAXI@Z 0041efd0 f i BootEncryption.obj
 0001:0001dfd0       ??_E?$basic_istream@DU?$char_traits@D@std@@@std@@UAEPAXI@Z 0041efd0 f i BootEncryption.obj
 0001:0001e010       ??_G?$basic_streambuf@DU?$char_traits@D@std@@@std@@UAEPAXI@Z 0041f010 f i BootEncryption.obj
 0001:0001e010       ??_E?$basic_streambuf@DU?$char_traits@D@std@@@std@@UAEPAXI@Z 0041f010 f i BootEncryption.obj
 0001:0001e030       ??_G?$basic_iostream@DU?$char_traits@D@std@@@std@@UAEPAXI@Z 0041f030 f i BootEncryption.obj
 0001:0001e030       ??_E?$basic_iostream@DU?$char_traits@D@std@@@std@@UAEPAXI@Z 0041f030 f i BootEncryption.obj
 0001:0001e090       ??_G?$basic_stringbuf@DU?$char_traits@D@std@@V?$allocator@D@2@@std@@UAEPAXI@Z 0041f090 f i BootEncryption.obj
 0001:0001e090       ??_E?$basic_stringbuf@DU?$char_traits@D@std@@V?$allocator@D@2@@std@@UAEPAXI@Z 0041f090 f i BootEncryption.obj
 0001:0001e0c0       ?find@?$basic_string@DU?$char_traits@D@std@@V?$allocator@D@2@@std@@QBEIPBDII@Z 0041f0c0 f i BootEncryption.obj
 0001:0001e180       ?rfind@?$basic_string@DU?$char_traits@D@std@@V?$allocator@D@2@@std@@QBEIPBDII@Z 0041f180 f i BootEncryption.obj
 0001:0001e230       ??E?$_Const_iterator@$00@?$list@USecurityTokenInfo@CipherShed@@V?$allocator@USecurityTokenInfo@CipherShed@@@std@@@std@@QAEAAV012@XZ 0041f230 f i Dlgcode.obj
 0001:0001e230       ??E?$_Const_iterator@$00@?$list@USecurityTokenKeyfile@CipherShed@@V?$allocator@USecurityTokenKeyfile@CipherShed@@@std@@@std@@QAEAAV012@XZ 0041f230 f i Dlgcode.obj
 0001:0001e230       ??E?$_Const_iterator@$00@?$list@UPartition@CipherShed@@V?$allocator@UPartition@CipherShed@@@std@@@std@@QAEAAV012@XZ 0041f230 f i BootEncryption.obj
 0001:0001e230       ??E?$_Const_iterator@$00@?$list@KV?$allocator@K@std@@@std@@QAEAAV012@XZ 0041f230 f i Dlgcode.obj
 0001:0001e230       ??E?$_Const_iterator@$00@?$list@USecurityTokenKeyfilePath@CipherShed@@V?$allocator@USecurityTokenKeyfilePath@CipherShed@@@std@@@std@@QAEAAV012@XZ 0041f230 f i Keyfiles.obj
 0001:0001e270       ??0?$basic_streambuf@DU?$char_traits@D@std@@@std@@IAE@XZ 0041f270 f i BootEncryption.obj
 0001:0001e320       ??0?$_String_const_iterator@DU?$char_traits@D@std@@V?$allocator@D@2@@std@@QAE@PBDPBV_Container_base_secure@1@@Z 0041f320 f i BootEncryption.obj
 0001:0001e380       ?_Ifmt@?$num_put@_WV?$ostreambuf_iterator@_WU?$char_traits@_W@std@@@std@@@std@@ABAPADPADPBDH@Z 0041f380 f i Tcformat.obj
 0001:0001e380       ?_Ifmt@?$num_put@DV?$ostreambuf_iterator@DU?$char_traits@D@std@@@std@@@std@@ABAPADPADPBDH@Z 0041f380 f i BootEncryption.obj
 0001:0001e410       ?_Init@?$numpunct@D@std@@IAEXABV_Locinfo@2@_N@Z 0041f410 f i BootEncryption.obj
 0001:0001e580       ?CallDriver@Elevator@CipherShed@@SAXKPAXK0K@Z 0041f580 f i BootEncryption.obj
 0001:0001e6c0       ?ReadWriteFile@Elevator@CipherShed@@SAXHHABV?$basic_string@DU?$char_traits@D@std@@V?$allocator@D@2@@std@@PAE_KIPAK@Z 0041f6c0 f i BootEncryption.obj
 0001:0001e7f0       ?WriteLocalMachineRegistryDwordValue@Elevator@CipherShed@@SAXPAD0K@Z 0041f7f0 f i BootEncryption.obj
 0001:0001e8c0       ?RegisterFilterDriver@Elevator@CipherShed@@SAX_NW4FilterType@BootEncryption@2@@Z 0041f8c0 f i BootEncryption.obj
 0001:0001e920       ?RegisterSystemFavoritesService@Elevator@CipherShed@@SAXH@Z 0041f920 f i BootEncryption.obj
 0001:0001e970       ?SetDriverServiceStartType@Elevator@CipherShed@@SAXK@Z 0041f970 f i BootEncryption.obj
 0001:0001e9c0       ?Read@File@CipherShed@@QAEKPAEK@Z 0041f9c0 f   BootEncryption.obj
 0001:0001ea60       ?CallDriver@BootEncryption@CipherShed@@QAEXKPAXK0K@Z 0041fa60 f   BootEncryption.obj
 0001:0001eb30       ?GetStatus@BootEncryption@CipherShed@@QAE?AUBootEncryptionStatus@@XZ 0041fb30 f   BootEncryption.obj
 0001:0001eb50       ?GetVolumeProperties@BootEncryption@CipherShed@@QAEXPAUVOLUME_PROPERTIES_STRUCT@@@Z 0041fb50 f   BootEncryption.obj
 0001:0001eba0       ?IsHiddenSystemRunning@BootEncryption@CipherShed@@QAE_NXZ 0041fba0 f   BootEncryption.obj
 0001:0001ebc0       ?StartDecoyOSWipe@BootEncryption@CipherShed@@QAEXW4WipeAlgorithmId@@@Z 0041fbc0 f   BootEncryption.obj
 0001:0001ecf0       ?AbortDecoyOSWipe@BootEncryption@CipherShed@@QAEXXZ 0041fcf0 f   BootEncryption.obj
 0001:0001ed10       ?GetDecoyOSWipeStatus@BootEncryption@CipherShed@@QAE?AUDecoySystemWipeStatus@@XZ 0041fd10 f   BootEncryption.obj
 0001:0001ed30       ?CheckDecoyOSWipeResult@BootEncryption@CipherShed@@QAEXXZ 0041fd30 f   BootEncryption.obj
 0001:0001ed50       ?AbortSetup@BootEncryption@CipherShed@@QAEXXZ 0041fd50 f   BootEncryption.obj
 0001:0001ed70       ?AbortSetupWait@BootEncryption@CipherShed@@QAEXXZ 0041fd70 f   BootEncryption.obj
 0001:0001ee00       ?CheckEncryptionSetupResult@BootEncryption@CipherShed@@QAEXXZ 0041fe00 f   BootEncryption.obj
 0001:0001ee20       ?WriteLocalMachineRegistryDwordValue@BootEncryption@CipherShed@@QAEXPAD0K@Z 0041fe20 f   BootEncryption.obj
 0001:0001ee90       ?SetDriverConfigurationFlag@BootEncryption@CipherShed@@QAEXI_N@Z 0041fe90 f   BootEncryption.obj
 0001:0001eef0       ?StartDecryption@BootEncryption@CipherShed@@QAEXH@Z 0041fef0 f   BootEncryption.obj
 0001:0001ef90       ?StartEncryption@BootEncryption@CipherShed@@QAEXW4WipeAlgorithmId@@_N@Z 0041ff90 f   BootEncryption.obj
 0001:0001f030       ?WriteBootDriveSector@BootEncryption@CipherShed@@QAEX_KPAE@Z 00420030 f   BootEncryption.obj
 0001:0001f0a0       ?rfind@?$basic_string@DU?$char_traits@D@std@@V?$allocator@D@2@@std@@QBEIPBDI@Z 004200a0 f i BootEncryption.obj
 0001:0001f0d0       ?_Xsgetn_s@?$basic_streambuf@DU?$char_traits@D@std@@@std@@MAEHPADIH@Z 004200d0 f i BootEncryption.obj
 0001:0001f160       ?xsputn@?$basic_streambuf@DU?$char_traits@D@std@@@std@@MAEHPBDH@Z 00420160 f i BootEncryption.obj
 0001:0001f1f0       ??1?$basic_stringstream@DU?$char_traits@D@std@@V?$allocator@D@2@@std@@UAE@XZ 004201f0 f i BootEncryption.obj
 0001:0001f280       ?overflow@?$basic_stringbuf@DU?$char_traits@D@std@@V?$allocator@D@2@@std@@MAEHH@Z 00420280 f i BootEncryption.obj
 0001:0001f450       ?_Buynode@?$list@UPartition@CipherShed@@V?$allocator@UPartition@CipherShed@@@std@@@std@@IAEPAU_Node@?$_List_nod@UPartition@CipherShed@@V?$allocator@UPartition@CipherShed@@@std@@@2@XZ 00420450 f i BootEncryption.obj
 0001:0001f450       ?_Buynode@?$list@USecurityTokenKeyfile@CipherShed@@V?$allocator@USecurityTokenKeyfile@CipherShed@@@std@@@std@@IAEPAU_Node@?$_List_nod@USecurityTokenKeyfile@CipherShed@@V?$allocator@USecurityTokenKeyfile@CipherShed@@@std@@@2@XZ 00420450 f i Dlgcode.obj
 0001:0001f470       ?_Putc@?$num_put@DV?$ostreambuf_iterator@DU?$char_traits@D@std@@@std@@@std@@ABA?AV?$ostreambuf_iterator@DU?$char_traits@D@std@@@2@V32@PBDI@Z 00420470 f i BootEncryption.obj
 0001:0001f470       ?_Put@?$num_put@DV?$ostreambuf_iterator@DU?$char_traits@D@std@@@std@@@std@@ABA?AV?$ostreambuf_iterator@DU?$char_traits@D@std@@@2@V32@PBDI@Z 00420470 f i BootEncryption.obj
 0001:0001f4e0       ?_Rep@?$num_put@DV?$ostreambuf_iterator@DU?$char_traits@D@std@@@std@@@std@@ABA?AV?$ostreambuf_iterator@DU?$char_traits@D@std@@@2@V32@DI@Z 004204e0 f i BootEncryption.obj
 0001:0001f550       ?_Putgrouped@?$num_put@DV?$ostreambuf_iterator@DU?$char_traits@D@std@@@std@@@std@@ABA?AV?$ostreambuf_iterator@DU?$char_traits@D@std@@@2@V32@PBDID@Z 00420550 f i BootEncryption.obj
 0001:0001f5f0       ??0?$numpunct@D@std@@QAE@ABV_Locinfo@1@I_N@Z 004205f0 f i BootEncryption.obj
 0001:0001f660       ?do_decimal_point@?$numpunct@D@std@@MBEDXZ 00420660 f i BootEncryption.obj
 0001:0001f670       ?do_thousands_sep@?$numpunct@D@std@@MBEDXZ 00420670 f i BootEncryption.obj
 0001:0001f680       ??_G?$numpunct@D@std@@MAEPAXI@Z 00420680 f i BootEncryption.obj
 0001:0001f680       ??_E?$numpunct@D@std@@MAEPAXI@Z 00420680 f i BootEncryption.obj
 0001:0001f6d0       ??_D?$basic_stringstream@DU?$char_traits@D@std@@V?$allocator@D@2@@std@@QAEXXZ 004206d0 f i BootEncryption.obj
 0001:0001f6f0       ??_G?$basic_stringstream@DU?$char_traits@D@std@@V?$allocator@D@2@@std@@UAEPAXI@Z 004206f0 f i BootEncryption.obj
 0001:0001f6f0       ??_E?$basic_stringstream@DU?$char_traits@D@std@@V?$allocator@D@2@@std@@UAEPAXI@Z 004206f0 f i BootEncryption.obj
 0001:0001f730       ??0?$basic_stringbuf@DU?$char_traits@D@std@@V?$allocator@D@2@@std@@QAE@H@Z 00420730 f i BootEncryption.obj
 0001:0001f7b0       ??0ErrorException@CipherShed@@QAE@PAD@Z 004207b0 f i BootEncryption.obj
 0001:0001f7e0       ?Show@ErrorException@CipherShed@@UBEXPAUHWND__@@@Z 004207e0 f i BootEncryption.obj
 0001:0001f820       ??1Device@CipherShed@@QAE@XZ 00420820 f i BootEncryption.obj
 0001:0001f8b0       ?erase@?$basic_string@DU?$char_traits@D@std@@V?$allocator@D@2@@std@@QAE?AV?$_String_iterator@DU?$char_traits@D@std@@V?$allocator@D@2@@2@V?$_String_const_iterator@DU?$char_traits@D@std@@V?$allocator@D@2@@2@0@Z 004208b0 f i BootEncryption.obj
 0001:0001f990       ?clear@?$basic_string@DU?$char_traits@D@std@@V?$allocator@D@2@@std@@QAEXXZ 00420990 f i BootEncryption.obj
 0001:0001fa30       ??$?HDU?$char_traits@D@std@@V?$allocator@D@1@@std@@YA?AV?$basic_string@DU?$char_traits@D@std@@V?$allocator@D@2@@0@ABV10@D@Z 00420a30 f i BootEncryption.obj
 0001:0001fae0       ?_Getcat@?$ctype@D@std@@SAIPAPBVfacet@locale@2@PBV42@@Z 00420ae0 f i BootEncryption.obj
 0001:0001fbe0       ??0ErrorException@CipherShed@@QAE@ABV?$basic_string@_WU?$char_traits@_W@std@@V?$allocator@_W@2@@std@@@Z 00420be0 f i BootEncryption.obj
 0001:0001fc20       ??0Partition@CipherShed@@QAE@ABU01@@Z 00420c20 f i BootEncryption.obj
 0001:0001fd50       ??4?$basic_string@DU?$char_traits@D@std@@V?$allocator@D@2@@std@@QAEAAV01@PBD@Z 00420d50 f i BootEncryption.obj
 0001:0001fd50       ?assign@?$basic_string@DU?$char_traits@D@std@@V?$allocator@D@2@@std@@QAEAAV12@PBD@Z 00420d50 f i Tcformat.obj
 0001:0001fd80       ??Y?$basic_string@DU?$char_traits@D@std@@V?$allocator@D@2@@std@@QAEAAV01@PBD@Z 00420d80 f i BootEncryption.obj
 0001:0001fdb0       ?substr@?$basic_string@DU?$char_traits@D@std@@V?$allocator@D@2@@std@@QBE?AV12@II@Z 00420db0 f i BootEncryption.obj
 0001:0001fdf0       ?substr@?$basic_string@_WU?$char_traits@_W@std@@V?$allocator@_W@2@@std@@QBE?AV12@II@Z 00420df0 f i BootEncryption.obj
 0001:0001fe30       ?str@?$basic_stringbuf@DU?$char_traits@D@std@@V?$allocator@D@2@@std@@QBE?AV?$basic_string@DU?$char_traits@D@std@@V?$allocator@D@2@@2@XZ 00420e30 f i BootEncryption.obj
 0001:0001ff80       ?do_grouping@?$numpunct@_W@std@@MBE?AV?$basic_string@DU?$char_traits@D@std@@V?$allocator@D@2@@2@XZ 00420f80 f i Tcformat.obj
 0001:0001ff80       ?do_grouping@?$numpunct@D@std@@MBE?AV?$basic_string@DU?$char_traits@D@std@@V?$allocator@D@2@@2@XZ 00420f80 f i BootEncryption.obj
 0001:0001ffd0       ?do_falsename@?$numpunct@D@std@@MBE?AV?$basic_string@DU?$char_traits@D@std@@V?$allocator@D@2@@2@XZ 00420fd0 f i BootEncryption.obj
 0001:00020020       ?do_truename@?$numpunct@D@std@@MBE?AV?$basic_string@DU?$char_traits@D@std@@V?$allocator@D@2@@2@XZ 00421020 f i BootEncryption.obj
 0001:00020070       ??$use_facet@V?$ctype@D@std@@@std@@YAABV?$ctype@D@0@ABVlocale@0@@Z 00421070 f i BootEncryption.obj
 0001:000201c0       ??$?HDU?$char_traits@D@std@@V?$allocator@D@1@@std@@YA?AV?$basic_string@DU?$char_traits@D@std@@V?$allocator@D@2@@0@PBDABV10@@Z 004211c0 f i BootEncryption.obj
 0001:00020280       ??$?HDU?$char_traits@D@std@@V?$allocator@D@1@@std@@YA?AV?$basic_string@DU?$char_traits@D@std@@V?$allocator@D@2@@0@ABV10@PBD@Z 00421280 f i BootEncryption.obj
 0001:00020340       ??$_Construct@UPartition@CipherShed@@U12@@std@@YAXPAUPartition@CipherShed@@ABU12@@Z 00421340 f i BootEncryption.obj
 0001:000203a0       ?_Getcat@?$num_put@DV?$ostreambuf_iterator@DU?$char_traits@D@std@@@std@@@std@@SAIPAPBVfacet@locale@2@PBV42@@Z 004213a0 f i BootEncryption.obj
 0001:000204b0       ?_Getcat@?$numpunct@D@std@@SAIPAPBVfacet@locale@2@PBV42@@Z 004214b0 f i BootEncryption.obj
 0001:000205c0       ?Show@ParameterIncorrect@CipherShed@@UBEXPAUHWND__@@@Z 004215c0 f i BootEncryption.obj
 0001:000206f0       ??0File@CipherShed@@QAE@V?$basic_string@DU?$char_traits@D@std@@V?$allocator@D@2@@std@@_N1@Z 004216f0 f   BootEncryption.obj
 0001:00020820       ??0Device@CipherShed@@QAE@V?$basic_string@DU?$char_traits@D@std@@V?$allocator@D@2@@std@@_N@Z 00421820 f   BootEncryption.obj
 0001:000209c0       ??4Partition@CipherShed@@QAEAAU01@ABU01@@Z 004219c0 f i BootEncryption.obj
 0001:00020a20       ?GetRemarksOnHiddenOS@BootEncryption@CipherShed@@IAE?AV?$basic_string@_WU?$char_traits@_W@std@@V?$allocator@_W@2@@std@@XZ 00421a20 f   BootEncryption.obj
 0001:00020b50       ?GetWindowsDirectoryA@BootEncryption@CipherShed@@IAE?AV?$basic_string@DU?$char_traits@D@std@@V?$allocator@D@2@@std@@XZ 00421b50 f   BootEncryption.obj
 0001:00020c00       ?GetTempPathA@BootEncryption@CipherShed@@QAE?AV?$basic_string@DU?$char_traits@D@std@@V?$allocator@D@2@@std@@XZ 00421c00 f   BootEncryption.obj
 0001:00020cb0       ?GetSystemLoaderBackupPath@BootEncryption@CipherShed@@IAE?AV?$basic_string@DU?$char_traits@D@std@@V?$allocator@D@2@@std@@XZ 00421cb0 f   BootEncryption.obj
 0001:00020e50       ?IsCDDrivePresent@BootEncryption@CipherShed@@QAE_NXZ 00421e50 f   BootEncryption.obj
 0001:00020f10       ?VerifyRescueDisk@BootEncryption@CipherShed@@QAE_NXZ 00421f10 f   BootEncryption.obj
 0001:000211c0       ?RegisterSystemFavoritesService@BootEncryption@CipherShed@@QAEXH@Z 004221c0 f   BootEncryption.obj
 0001:00021550       ?RestrictPagingFilesToSystemPartition@BootEncryption@CipherShed@@QAEXXZ 00422550 f   BootEncryption.obj
 0001:00021620       ?str@?$basic_stringstream@DU?$char_traits@D@std@@V?$allocator@D@2@@std@@QBE?AV?$basic_string@DU?$char_traits@D@std@@V?$allocator@D@2@@2@XZ 00422620 f i BootEncryption.obj
 0001:00021640       ?widen@?$basic_ios@DU?$char_traits@D@std@@@std@@QBEDD@Z 00422640 f i BootEncryption.obj
 0001:00021700       ??$use_facet@V?$num_put@DV?$ostreambuf_iterator@DU?$char_traits@D@std@@@std@@@std@@@std@@YAABV?$num_put@DV?$ostreambuf_iterator@DU?$char_traits@D@std@@@std@@@0@ABVlocale@0@@Z 00422700 f i BootEncryption.obj
 0001:00021850       ??$use_facet@V?$numpunct@D@std@@@std@@YAABV?$numpunct@D@0@ABVlocale@0@@Z 00422850 f i BootEncryption.obj
 0001:000219a0       ?SetDriverServiceStartType@BootEncryption@CipherShed@@QAEXK@Z 004229a0 f   BootEncryption.obj
 0001:00021d20       ?InitialSecurityChecksForHiddenOS@BootEncryption@CipherShed@@QAEXXZ 00422d20 f   BootEncryption.obj
 0001:00022260       ??1ErrorException@CipherShed@@QAE@XZ 00423260 f i BootEncryption.obj
 0001:00022290       ??0ErrorException@CipherShed@@QAE@ABU01@@Z 00423290 f i BootEncryption.obj
 0001:000222d0       ?erase@?$list@UPartition@CipherShed@@V?$allocator@UPartition@CipherShed@@@std@@@std@@QAE?AV?$_Iterator@$00@12@V?$_Const_iterator@$00@12@@Z 004232d0 f i BootEncryption.obj
 0001:00022360       ?do_put@?$num_put@DV?$ostreambuf_iterator@DU?$char_traits@D@std@@@std@@@std@@MBE?AV?$ostreambuf_iterator@DU?$char_traits@D@std@@@2@V32@AAVios_base@2@D_N@Z 00423360 f i BootEncryption.obj
 0001:00022580       ?_Buynode@?$list@UPartition@CipherShed@@V?$allocator@UPartition@CipherShed@@@std@@@std@@IAEPAU_Node@?$_List_nod@UPartition@CipherShed@@V?$allocator@UPartition@CipherShed@@@std@@@2@PAU342@0ABUPartition@CipherShed@@@Z 00423580 f i BootEncryption.obj
 0001:00022620       ?_Fput@?$num_put@DV?$ostreambuf_iterator@DU?$char_traits@D@std@@@std@@@std@@ABA?AV?$ostreambuf_iterator@DU?$char_traits@D@std@@@2@V32@AAVios_base@2@DPBDIIII@Z 00423620 f i BootEncryption.obj
 0001:00022cb0       ?_Iput@?$num_put@DV?$ostreambuf_iterator@DU?$char_traits@D@std@@@std@@@std@@ABA?AV?$ostreambuf_iterator@DU?$char_traits@D@std@@@2@V32@AAVios_base@2@DPADI@Z 00423cb0 f i BootEncryption.obj
 0001:00022fa0       ?flush@?$basic_ostream@_WU?$char_traits@_W@std@@@std@@QAEAAV12@XZ 00423fa0 f i Tcformat.obj
 0001:00022fa0       ?flush@?$basic_ostream@DU?$char_traits@D@std@@@std@@QAEAAV12@XZ 00423fa0 f i BootEncryption.obj
 0001:00022ff0       ??0sentry@?$basic_ostream@_WU?$char_traits@_W@std@@@std@@QAE@AAV12@@Z 00423ff0 f i Tcformat.obj
 0001:00022ff0       ??0sentry@?$basic_ostream@DU?$char_traits@D@std@@@std@@QAE@AAV12@@Z 00423ff0 f i BootEncryption.obj
 0001:00023080       ?do_put@?$num_put@DV?$ostreambuf_iterator@DU?$char_traits@D@std@@@std@@@std@@MBE?AV?$ostreambuf_iterator@DU?$char_traits@D@std@@@2@V32@AAVios_base@2@DJ@Z 00424080 f i BootEncryption.obj
 0001:00023100       ?do_put@?$num_put@DV?$ostreambuf_iterator@DU?$char_traits@D@std@@@std@@@std@@MBE?AV?$ostreambuf_iterator@DU?$char_traits@D@std@@@2@V32@AAVios_base@2@DK@Z 00424100 f i BootEncryption.obj
 0001:00023180       ?do_put@?$num_put@DV?$ostreambuf_iterator@DU?$char_traits@D@std@@@std@@@std@@MBE?AV?$ostreambuf_iterator@DU?$char_traits@D@std@@@2@V32@AAVios_base@2@D_J@Z 00424180 f i BootEncryption.obj
 0001:00023210       ?do_put@?$num_put@DV?$ostreambuf_iterator@DU?$char_traits@D@std@@@std@@@std@@MBE?AV?$ostreambuf_iterator@DU?$char_traits@D@std@@@2@V32@AAVios_base@2@D_K@Z 00424210 f i BootEncryption.obj
 0001:000232a0       ?do_put@?$num_put@DV?$ostreambuf_iterator@DU?$char_traits@D@std@@@std@@@std@@MBE?AV?$ostreambuf_iterator@DU?$char_traits@D@std@@@2@V32@AAVios_base@2@DN@Z 004242a0 f i BootEncryption.obj
 0001:00023490       ?do_put@?$num_put@DV?$ostreambuf_iterator@DU?$char_traits@D@std@@@std@@@std@@MBE?AV?$ostreambuf_iterator@DU?$char_traits@D@std@@@2@V32@AAVios_base@2@DO@Z 00424490 f i BootEncryption.obj
 0001:00023670       ?do_put@?$num_put@DV?$ostreambuf_iterator@DU?$char_traits@D@std@@@std@@@std@@MBE?AV?$ostreambuf_iterator@DU?$char_traits@D@std@@@2@V32@AAVios_base@2@DPBX@Z 00424670 f i BootEncryption.obj
 0001:000236e0       ??$_Insert@V?$_Const_iterator@$00@?$list@UPartition@CipherShed@@V?$allocator@UPartition@CipherShed@@@std@@@std@@@?$list@UPartition@CipherShed@@V?$allocator@UPartition@CipherShed@@@std@@@std@@QAEXV?$_Const_iterator@$00@01@00Uforward_iterator_tag@1@@Z 004246e0 f i BootEncryption.obj
 0001:00023840       ??0?$basic_iostream@DU?$char_traits@D@std@@@std@@QAE@PAV?$basic_streambuf@DU?$char_traits@D@std@@@1@@Z 00424840 f i BootEncryption.obj
 0001:00023920       ??1sentry@?$basic_ostream@DU?$char_traits@D@std@@@std@@QAE@XZ 00424920 f i BootEncryption.obj
 0001:00023920       ??1sentry@?$basic_ostream@_WU?$char_traits@_W@std@@@std@@QAE@XZ 00424920 f i Tcformat.obj
 0001:00023990       ??$?6U?$char_traits@D@std@@@std@@YAAAV?$basic_ostream@DU?$char_traits@D@std@@@0@AAV10@PBD@Z 00424990 f i BootEncryption.obj
 0001:00023ba0       ??$?6_WU?$char_traits@_W@std@@@std@@YAAAV?$basic_ostream@_WU?$char_traits@_W@std@@@0@AAV10@PBD@Z 00424ba0 f i BootEncryption.obj
 0001:00023e70       ??0SystemDriveConfiguration@CipherShed@@QAE@XZ 00424e70 f i BootEncryption.obj
 0001:00023f50       ??1BootEncryption@CipherShed@@QAE@XZ 00424f50 f   BootEncryption.obj
 0001:00023ff0       ??1?$ContainerForward@V?$list@UPartition@CipherShed@@V?$allocator@UPartition@CipherShed@@@std@@@std@@@ForEach@CipherShed@@UAE@XZ 00424ff0 f i BootEncryption.obj
 0001:00024030       ??6?$basic_ostream@DU?$char_traits@D@std@@@std@@QAEAAV01@H@Z 00425030 f i BootEncryption.obj
 0001:00024180       ??0?$list@UPartition@CipherShed@@V?$allocator@UPartition@CipherShed@@@std@@@std@@QAE@ABV01@@Z 00425180 f i BootEncryption.obj
 0001:00024230       ??0?$basic_stringstream@DU?$char_traits@D@std@@V?$allocator@D@2@@std@@QAE@H@Z 00425230 f i BootEncryption.obj
 0001:000242d0       ??0?$ContainerForward@V?$list@UPartition@CipherShed@@V?$allocator@UPartition@CipherShed@@@std@@@std@@@ForEach@CipherShed@@QAE@ABV?$list@UPartition@CipherShed@@V?$allocator@UPartition@CipherShed@@@std@@@std@@@Z 004252d0 f i BootEncryption.obj
 0001:00024360       ??_G?$ContainerForward@V?$list@UPartition@CipherShed@@V?$allocator@UPartition@CipherShed@@@std@@@std@@@ForEach@CipherShed@@UAEPAXI@Z 00425360 f i BootEncryption.obj
 0001:00024360       ??_E?$ContainerForward@V?$list@UPartition@CipherShed@@V?$allocator@UPartition@CipherShed@@@std@@@std@@@ForEach@CipherShed@@UAEPAXI@Z 00425360 f i BootEncryption.obj
 0001:000243b0       ??0BootEncryption@CipherShed@@QAE@PAUHWND__@@@Z 004253b0 f   BootEncryption.obj
 0001:00024440       ?GetDrivePartitions@BootEncryption@CipherShed@@IAE?AV?$list@UPartition@CipherShed@@V?$allocator@UPartition@CipherShed@@@std@@@std@@H@Z 00425440 f   BootEncryption.obj
 0001:00024b10       ?GetDriveGeometry@BootEncryption@CipherShed@@IAE?AU_DISK_GEOMETRY@@H@Z 00425b10 f   BootEncryption.obj
 0001:00024c40       ??0SystemDriveConfiguration@CipherShed@@QAE@ABU01@@Z 00425c40 f i BootEncryption.obj
 0001:00024d50       ??$GetContainerForward@V?$list@UPartition@CipherShed@@V?$allocator@UPartition@CipherShed@@@std@@@std@@@ForEach@CipherShed@@SA?AU?$ContainerForward@V?$list@UPartition@CipherShed@@V?$allocator@UPartition@CipherShed@@@std@@@std@@@01@ABV?$list@UPartition@CipherShed@@V?$allocator@UPartition@CipherShed@@@std@@@std@@@Z 00425d50 f i BootEncryption.obj
 0001:00024d70       ?Write@File@CipherShed@@QAEXPAEK@Z 00425d70 f   BootEncryption.obj
 0001:00024f00       ??4SystemDriveConfiguration@CipherShed@@QAEAAU01@ABU01@@Z 00425f00 f i BootEncryption.obj
 0001:00024ff0       ?RegisterFilter@BootEncryption@CipherShed@@IAEX_NW4FilterType@12@PBU_GUID@@@Z 00425ff0 f   BootEncryption.obj
 0001:00025770       ?RegisterFilterDriver@BootEncryption@CipherShed@@QAEX_NW4FilterType@12@@Z 00426770 f   BootEncryption.obj
 0001:00025830       ?RegisterBootDriver@BootEncryption@CipherShed@@QAEX_N@Z 00426830 f   BootEncryption.obj
 0001:00025bf0       ?GetSystemDriveConfiguration@BootEncryption@CipherShed@@QAE?AUSystemDriveConfiguration@2@XZ 00426bf0 f   BootEncryption.obj
 0001:00026950       ?SystemPartitionCoversWholeDrive@BootEncryption@CipherShed@@QAE_NXZ 00427950 f   BootEncryption.obj
 0001:00026a30       ?CreateBootLoaderInMemory@BootEncryption@CipherShed@@IAEXPAEI_N1@Z 00427a30 f   BootEncryption.obj
 0001:00026ef0       ?ReadBootSectorConfig@BootEncryption@CipherShed@@QAEXPAEI0PAV?$basic_string@DU?$char_traits@D@std@@V?$allocator@D@2@@std@@PAG@Z 00427ef0 f   BootEncryption.obj
 0001:000270a0       ?WriteBootSectorConfig@BootEncryption@CipherShed@@QAEXQBE@Z 004280a0 f   BootEncryption.obj
 0001:00027340       ?GetHiddenOSCreationPhase@BootEncryption@CipherShed@@QAEIXZ 00428340 f   BootEncryption.obj
 0001:00027360       ?SetHiddenOSCreationPhase@BootEncryption@CipherShed@@QAEXI@Z 00428360 f   BootEncryption.obj
 0001:00027420       ?InstallBootLoader@BootEncryption@CipherShed@@QAEX_N0@Z 00428420 f   BootEncryption.obj
 0001:000277f0       ?CreateRescueIsoImage@BootEncryption@CipherShed@@QAEX_NABV?$basic_string@DU?$char_traits@D@std@@V?$allocator@D@2@@std@@@Z 004287f0 f   BootEncryption.obj
 0001:00027c40       ?InstallVolumeHeader@BootEncryption@CipherShed@@IAEXXZ 00428c40 f   BootEncryption.obj
 0001:00027dd0       ?BackupSystemLoader@BootEncryption@CipherShed@@IAEXXZ 00428dd0 f   BootEncryption.obj
 0001:00028070       ?RestoreSystemLoader@BootEncryption@CipherShed@@IAEXXZ 00429070 f   BootEncryption.obj
 0001:00028320       ?Deinstall@BootEncryption@CipherShed@@QAEX_N@Z 00429320 f   BootEncryption.obj
 0001:00028680       ?Install@BootEncryption@CipherShed@@QAEX_N@Z 00429680 f   BootEncryption.obj
 0001:00028760       ?GetPartitionForHiddenOS@BootEncryption@CipherShed@@QAE?AUPartition@2@XZ 00429760 f   BootEncryption.obj
 0001:000292e0       ?ProbeRealSystemDriveSize@BootEncryption@CipherShed@@QAEXXZ 0042a2e0 f   BootEncryption.obj
 0001:000293c0       ??0TimeOut@CipherShed@@QAE@ABU01@@Z 0042a3c0 f i BootEncryption.obj
 0001:000293d0       ?SystemDriveContainsPartitionType@BootEncryption@CipherShed@@QAE_NE@Z 0042a3d0 f   BootEncryption.obj
 0001:000295d0       ?SystemDriveContainsExtendedPartition@BootEncryption@CipherShed@@QAE_NXZ 0042a5d0 f   BootEncryption.obj
 0001:00029600       ?SystemDriveContainsNonStandardPartitions@BootEncryption@CipherShed@@QAE_NXZ 0042a600 f   BootEncryption.obj
 0001:00029660       ?SystemDriveIsDynamic@BootEncryption@CipherShed@@QAE_NXZ 0042a660 f   BootEncryption.obj
 0001:00029700       ?WipeHiddenOSCreationConfig@BootEncryption@CipherShed@@QAEXXZ 0042a700 f   BootEncryption.obj
 0001:00029a50       ?CheckRequirements@BootEncryption@CipherShed@@QAEXXZ 0042aa50 f   BootEncryption.obj
 0001:00029d60       ?CheckRequirementsHiddenOS@BootEncryption@CipherShed@@QAEXXZ 0042ad60 f   BootEncryption.obj
 0001:00029d90       ?PrepareHiddenOSCreation@BootEncryption@CipherShed@@QAEXHHH@Z 0042ad90 f   BootEncryption.obj
 0001:00029df0       ?PrepareInstallation@BootEncryption@CipherShed@@QAEX_NAAUPassword@@HHHABV?$basic_string@DU?$char_traits@D@std@@V?$allocator@D@2@@std@@@Z 0042adf0 f   BootEncryption.obj
 0001:0002a050       _CommandHelpDlgProc@16     0042b050 f   Cmdline.obj
 0001:0002a1c0       _Win32CommandLine          0042b1c0 f   Cmdline.obj
 0001:0002a300       _GetArgumentID             0042b300 f   Cmdline.obj
 0001:0002a670       _GetArgumentValue          0042b670 f   Cmdline.obj
 0001:0002a6f0       _AddComboItem              0042b6f0 f   Combo.obj
 0001:0002a7b0       _MoveEditToCombo           0042b7b0 f   Combo.obj
 0001:0002a910       _GetOrderComboIdx          0042b910 f   Combo.obj
 0001:0002a9b0       _UpdateComboOrder          0042b9b0 f   Combo.obj
 0001:0002aa00       _LoadCombo                 0042ba00 f   Combo.obj
 0001:0002aac0       _DumpCombo                 0042bac0 f   Combo.obj
 0001:0002ac50       _ClearCombo                0042bc50 f   Combo.obj
 0001:0002ac80       _crc32int                  0042bc80 f   Crc.obj
 0001:0002ad20       _crc32_selfTestLarge       0042bd20 f   Crc.obj
 0001:0002adf0       _GetCrc32                  0042bdf0 f   Crc.obj
 0001:0002ae00       _crc32_selftests           0042be00 f   Crc.obj
 0001:0002ae10       _CipherGetName             0042be10 f   Crypto.obj
 0001:0002ae50       _CipherGetBlockSize        0042be50 f   Crypto.obj
 0001:0002ae90       _CipherGetKeySize          0042be90 f   Crypto.obj
 0001:0002aed0       _CipherGetKeyScheduleSize  0042bed0 f   Crypto.obj
 0001:0002af10       _EAGetFirst                0042bf10 f   Crypto.obj
 0001:0002af20       _EAGetNext                 0042bf20 f   Crypto.obj
 0001:0002af40       _EAGetFirstMode            0042bf40 f   Crypto.obj
 0001:0002af50       _EAGetNextMode             0042bf50 f   Crypto.obj
 0001:0002afa0       _EAGetCipherCount          0042bfa0 f   Crypto.obj
 0001:0002afc0       _EAGetFirstCipher          0042bfc0 f   Crypto.obj
 0001:0002afd0       _EAGetLastCipher           0042bfd0 f   Crypto.obj
 0001:0002b000       _EAGetNextCipher           0042c000 f   Crypto.obj
 0001:0002b050       _EAGetPreviousCipher       0042c050 f   Crypto.obj
 0001:0002b0a0       _EAIsFormatEnabled         0042c0a0 f   Crypto.obj
 0001:0002b0b0       _EAIsModeSupported         0042c0b0 f   Crypto.obj
 0001:0002b130       _HashGetName               0042c130 f   Crypto.obj
 0001:0002b170       _HashIsDeprecated          0042c170 f   Crypto.obj
 0001:0002b1b0       _crypto_open               0042c1b0 f   Crypto.obj
 0001:0002b1f0       _crypto_loadkey            0042c1f0 f   Crypto.obj
 0001:0002b240       _crypto_close              0042c240 f   Crypto.obj
 0001:0002b390       _EncryptDataUnits          0042c390 f   Crypto.obj
 0001:0002b3b0       _DecryptDataUnits          0042c3b0 f   Crypto.obj
 0001:0002b3d0       _IsAesHwCpuSupported       0042c3d0 f   Crypto.obj
 0001:0002b410       _EnableHwEncryption        0042c410 f   Crypto.obj
 0001:0002b420       _IsHwEncryptionEnabled     0042c420 f   Crypto.obj
 0001:0002b430       _CipherInit                0042c430 f   Crypto.obj
 0001:0002b5c0       _EncipherBlock             0042c5c0 f   Crypto.obj
 0001:0002b680       _EncipherBlocks            0042c680 f   Crypto.obj
 0001:0002b700       _DecipherBlock             0042c700 f   Crypto.obj
 0001:0002b7e0       _DecipherBlocks            0042c7e0 f   Crypto.obj
 0001:0002b860       _CipherSupportsIntraDataUnitParallelization 0042c860 f   Crypto.obj
 0001:0002b8b0       _EAInit                    0042c8b0 f   Crypto.obj
 0001:0002b990       _EAInitMode                0042c990 f   Crypto.obj
 0001:0002ba40       _EAGetName                 0042ca40 f   Crypto.obj
 0001:0002bb80       _EAGetByName               0042cb80 f   Crypto.obj
 0001:0002bc40       _EAGetKeySize              0042cc40 f   Crypto.obj
 0001:0002bcd0       _EAGetKeyScheduleSize      0042ccd0 f   Crypto.obj
 0001:0002bd60       _EAGetLargestKeyForMode    0042cd60 f   Crypto.obj
 0001:0002bdb0       _EncryptBufferLRW128       0042cdb0 f   Crypto.obj
 0001:0002bfe0       _EncryptBufferLRW64        0042cfe0 f   Crypto.obj
 0001:0002c120       _DecryptBufferLRW128       0042d120 f   Crypto.obj
 0001:0002c390       _DecryptBufferLRW64        0042d390 f   Crypto.obj
 0001:0002c8e0       _EncryptBuffer             0042d8e0 f   Crypto.obj
 0001:0002ca80       _EncryptDataUnitsCurrentThread 0042da80 f   Crypto.obj
 0001:0002ce80       _DecryptBuffer             0042de80 f   Crypto.obj
 0001:0002d040       _DecryptDataUnitsCurrentThread 0042e040 f   Crypto.obj
 0001:0002d3d0       _GetMaxPkcs5OutSize        0042e3d0 f   Crypto.obj
 0001:0002d480       _AddPoolData               0042e480 f   Dictionary.obj
 0001:0002d4f0       ?_Max@?$_Tree@V?$_Tmap_traits@V?$basic_string@DU?$char_traits@D@std@@V?$allocator@D@2@@std@@PAXU?$less@V?$basic_string@DU?$char_traits@D@std@@V?$allocator@D@2@@std@@@2@V?$allocator@U?$pair@$$CBV?$basic_string@DU?$char_traits@D@std@@V?$allocator@D@2@@std@@PAX@std@@@2@$0A@@std@@@std@@KAPAU_Node@?$_Tree_nod@V?$_Tmap_traits@V?$basic_string@DU?$char_traits@D@std@@V?$allocator@D@2@@std@@PAXU?$less@V?$basic_string@DU?$char_traits@D@std@@V?$allocator@D@2@@std@@@2@V?$allocator@U?$pair@$$CBV?$basic_string@DU?$char_traits@D@std@@V?$allocator@D@2@@std@@PAX@std@@@2@$0A@@std@@@2@PAU342@@Z 0042e4f0 f i Dictionary.obj
 0001:0002d510       ?_Min@?$_Tree@V?$_Tmap_traits@V?$basic_string@DU?$char_traits@D@std@@V?$allocator@D@2@@std@@PAXU?$less@V?$basic_string@DU?$char_traits@D@std@@V?$allocator@D@2@@std@@@2@V?$allocator@U?$pair@$$CBV?$basic_string@DU?$char_traits@D@std@@V?$allocator@D@2@@std@@PAX@std@@@2@$0A@@std@@@std@@KAPAU_Node@?$_Tree_nod@V?$_Tmap_traits@V?$basic_string@DU?$char_traits@D@std@@V?$allocator@D@2@@std@@PAXU?$less@V?$basic_string@DU?$char_traits@D@std@@V?$allocator@D@2@@std@@@2@V?$allocator@U?$pair@$$CBV?$basic_string@DU?$char_traits@D@std@@V?$allocator@D@2@@std@@PAX@std@@@2@$0A@@std@@@2@PAU342@@Z 0042e510 f i Dictionary.obj
 0001:0002d530       ?_Max@?$_Tree@V?$_Tmap_traits@HPAXU?$less@H@std@@V?$allocator@U?$pair@$$CBHPAX@std@@@2@$0A@@std@@@std@@KAPAU_Node@?$_Tree_nod@V?$_Tmap_traits@HPAXU?$less@H@std@@V?$allocator@U?$pair@$$CBHPAX@std@@@2@$0A@@std@@@2@PAU342@@Z 0042e530 f i Dictionary.obj
 0001:0002d550       ?_Min@?$_Tree@V?$_Tmap_traits@HPAXU?$less@H@std@@V?$allocator@U?$pair@$$CBHPAX@std@@@2@$0A@@std@@@std@@KAPAU_Node@?$_Tree_nod@V?$_Tmap_traits@HPAXU?$less@H@std@@V?$allocator@U?$pair@$$CBHPAX@std@@@2@$0A@@std@@@2@PAU342@@Z 0042e550 f i Dictionary.obj
 0001:0002d570       ?compare@?$basic_string@DU?$char_traits@D@std@@V?$allocator@D@2@@std@@QBEHIIPBDI@Z 0042e570 f i Dictionary.obj
 0001:0002d5e0       ?_Lrotate@?$_Tree@V?$_Tmap_traits@V?$basic_string@DU?$char_traits@D@std@@V?$allocator@D@2@@std@@PAXU?$less@V?$basic_string@DU?$char_traits@D@std@@V?$allocator@D@2@@std@@@2@V?$allocator@U?$pair@$$CBV?$basic_string@DU?$char_traits@D@std@@V?$allocator@D@2@@std@@PAX@std@@@2@$0A@@std@@@std@@IAEXPAU_Node@?$_Tree_nod@V?$_Tmap_traits@V?$basic_string@DU?$char_traits@D@std@@V?$allocator@D@2@@std@@PAXU?$less@V?$basic_string@DU?$char_traits@D@std@@V?$allocator@D@2@@std@@@2@V?$allocator@U?$pair@$$CBV?$basic_string@DU?$char_traits@D@std@@V?$allocator@D@2@@std@@PAX@std@@@2@$0A@@std@@@2@@Z 0042e5e0 f i Dictionary.obj
 0001:0002d630       ?_Rrotate@?$_Tree@V?$_Tmap_traits@V?$basic_string@DU?$char_traits@D@std@@V?$allocator@D@2@@std@@PAXU?$less@V?$basic_string@DU?$char_traits@D@std@@V?$allocator@D@2@@std@@@2@V?$allocator@U?$pair@$$CBV?$basic_string@DU?$char_traits@D@std@@V?$allocator@D@2@@std@@PAX@std@@@2@$0A@@std@@@std@@IAEXPAU_Node@?$_Tree_nod@V?$_Tmap_traits@V?$basic_string@DU?$char_traits@D@std@@V?$allocator@D@2@@std@@PAXU?$less@V?$basic_string@DU?$char_traits@D@std@@V?$allocator@D@2@@std@@@2@V?$allocator@U?$pair@$$CBV?$basic_string@DU?$char_traits@D@std@@V?$allocator@D@2@@std@@PAX@std@@@2@$0A@@std@@@2@@Z 0042e630 f i Dictionary.obj
 0001:0002d690       ?_Lrotate@?$_Tree@V?$_Tmap_traits@HPAXU?$less@H@std@@V?$allocator@U?$pair@$$CBHPAX@std@@@2@$0A@@std@@@std@@IAEXPAU_Node@?$_Tree_nod@V?$_Tmap_traits@HPAXU?$less@H@std@@V?$allocator@U?$pair@$$CBHPAX@std@@@2@$0A@@std@@@2@@Z 0042e690 f i Dictionary.obj
 0001:0002d6e0       ?_Rrotate@?$_Tree@V?$_Tmap_traits@HPAXU?$less@H@std@@V?$allocator@U?$pair@$$CBHPAX@std@@@2@$0A@@std@@@std@@IAEXPAU_Node@?$_Tree_nod@V?$_Tmap_traits@HPAXU?$less@H@std@@V?$allocator@U?$pair@$$CBHPAX@std@@@2@$0A@@std@@@2@@Z 0042e6e0 f i Dictionary.obj
 0001:0002d740       ?_Dec@const_iterator@?$_Tree@V?$_Tmap_traits@V?$basic_string@DU?$char_traits@D@std@@V?$allocator@D@2@@std@@PAXU?$less@V?$basic_string@DU?$char_traits@D@std@@V?$allocator@D@2@@std@@@2@V?$allocator@U?$pair@$$CBV?$basic_string@DU?$char_traits@D@std@@V?$allocator@D@2@@std@@PAX@std@@@2@$0A@@std@@@std@@QAEXXZ 0042e740 f i Dictionary.obj
 0001:0002d7d0       ?_Inc@const_iterator@?$_Tree@V?$_Tmap_traits@V?$basic_string@DU?$char_traits@D@std@@V?$allocator@D@2@@std@@PAXU?$less@V?$basic_string@DU?$char_traits@D@std@@V?$allocator@D@2@@std@@@2@V?$allocator@U?$pair@$$CBV?$basic_string@DU?$char_traits@D@std@@V?$allocator@D@2@@std@@PAX@std@@@2@$0A@@std@@@std@@QAEXXZ 0042e7d0 f i Dictionary.obj
 0001:0002d840       ?_Dec@const_iterator@?$_Tree@V?$_Tmap_traits@HPAXU?$less@H@std@@V?$allocator@U?$pair@$$CBHPAX@std@@@2@$0A@@std@@@std@@QAEXXZ 0042e840 f i Dictionary.obj
 0001:0002d8d0       ?_Inc@const_iterator@?$_Tree@V?$_Tmap_traits@HPAXU?$less@H@std@@V?$allocator@U?$pair@$$CBHPAX@std@@@2@$0A@@std@@@std@@QAEXXZ 0042e8d0 f i Dictionary.obj
 0001:0002d940       ?_Erase@?$_Tree@V?$_Tmap_traits@HPAXU?$less@H@std@@V?$allocator@U?$pair@$$CBHPAX@std@@@2@$0A@@std@@@std@@IAEXPAU_Node@?$_Tree_nod@V?$_Tmap_traits@HPAXU?$less@H@std@@V?$allocator@U?$pair@$$CBHPAX@std@@@2@$0A@@std@@@2@@Z 0042e940 f i Dictionary.obj
 0001:0002d980       ?_Buynode@?$_Tree@V?$_Tmap_traits@V?$basic_string@DU?$char_traits@D@std@@V?$allocator@D@2@@std@@PAXU?$less@V?$basic_string@DU?$char_traits@D@std@@V?$allocator@D@2@@std@@@2@V?$allocator@U?$pair@$$CBV?$basic_string@DU?$char_traits@D@std@@V?$allocator@D@2@@std@@PAX@std@@@2@$0A@@std@@@std@@IAEPAU_Node@?$_Tree_nod@V?$_Tmap_traits@V?$basic_string@DU?$char_traits@D@std@@V?$allocator@D@2@@std@@PAXU?$less@V?$basic_string@DU?$char_traits@D@std@@V?$allocator@D@2@@std@@@2@V?$allocator@U?$pair@$$CBV?$basic_string@DU?$char_traits@D@std@@V?$allocator@D@2@@std@@PAX@std@@@2@$0A@@std@@@2@XZ 0042e980 f i Dictionary.obj
 0001:0002d9c0       ?_Buynode@?$_Tree@V?$_Tmap_traits@HPAXU?$less@H@std@@V?$allocator@U?$pair@$$CBHPAX@std@@@2@$0A@@std@@@std@@IAEPAU_Node@?$_Tree_nod@V?$_Tmap_traits@HPAXU?$less@H@std@@V?$allocator@U?$pair@$$CBHPAX@std@@@2@$0A@@std@@@2@XZ 0042e9c0 f i Dictionary.obj
 0001:0002da00       ?_Buynode@?$_Tree@V?$_Tmap_traits@HPAXU?$less@H@std@@V?$allocator@U?$pair@$$CBHPAX@std@@@2@$0A@@std@@@std@@IAEPAU_Node@?$_Tree_nod@V?$_Tmap_traits@HPAXU?$less@H@std@@V?$allocator@U?$pair@$$CBHPAX@std@@@2@$0A@@std@@@2@PAU342@00ABU?$pair@$$CBHPAX@2@D@Z 0042ea00 f i Dictionary.obj
 0001:0002da40       ??R?$less@V?$basic_string@DU?$char_traits@D@std@@V?$allocator@D@2@@std@@@std@@QBE_NABV?$basic_string@DU?$char_traits@D@std@@V?$allocator@D@2@@1@0@Z 0042ea40 f i Dictionary.obj
 0001:0002da80       ?_Lbound@?$_Tree@V?$_Tmap_traits@V?$basic_string@DU?$char_traits@D@std@@V?$allocator@D@2@@std@@PAXU?$less@V?$basic_string@DU?$char_traits@D@std@@V?$allocator@D@2@@std@@@2@V?$allocator@U?$pair@$$CBV?$basic_string@DU?$char_traits@D@std@@V?$allocator@D@2@@std@@PAX@std@@@2@$0A@@std@@@std@@IBEPAU_Node@?$_Tree_nod@V?$_Tmap_traits@V?$basic_string@DU?$char_traits@D@std@@V?$allocator@D@2@@std@@PAXU?$less@V?$basic_string@DU?$char_traits@D@std@@V?$allocator@D@2@@std@@@2@V?$allocator@U?$pair@$$CBV?$basic_string@DU?$char_traits@D@std@@V?$allocator@D@2@@std@@PAX@std@@@2@$0A@@std@@@2@ABV?$basic_string@DU?$char_traits@D@std@@V?$allocator@D@2@@2@@Z 0042ea80 f i Dictionary.obj
 0001:0002db10       ?find@?$_Tree@V?$_Tmap_traits@V?$basic_string@DU?$char_traits@D@std@@V?$allocator@D@2@@std@@PAXU?$less@V?$basic_string@DU?$char_traits@D@std@@V?$allocator@D@2@@std@@@2@V?$allocator@U?$pair@$$CBV?$basic_string@DU?$char_traits@D@std@@V?$allocator@D@2@@std@@PAX@std@@@2@$0A@@std@@@std@@QAE?AViterator@12@ABV?$basic_string@DU?$char_traits@D@std@@V?$allocator@D@2@@2@@Z 0042eb10 f i Dictionary.obj
 0001:0002dba0       ?find@?$_Tree@V?$_Tmap_traits@HPAXU?$less@H@std@@V?$allocator@U?$pair@$$CBHPAX@std@@@2@$0A@@std@@@std@@QAE?AViterator@12@ABH@Z 0042eba0 f i Dictionary.obj
 0001:0002dc30       ??0out_of_range@std@@QAE@ABV?$basic_string@DU?$char_traits@D@std@@V?$allocator@D@2@@1@@Z 0042ec30 f i Dictionary.obj
 0001:0002dc50       _GetDictionaryValueByInt   0042ec50 f   Dictionary.obj
 0001:0002dcc0       ?_Insert@?$_Tree@V?$_Tmap_traits@HPAXU?$less@H@std@@V?$allocator@U?$pair@$$CBHPAX@std@@@2@$0A@@std@@@std@@IAE?AViterator@12@_NPAU_Node@?$_Tree_nod@V?$_Tmap_traits@HPAXU?$less@H@std@@V?$allocator@U?$pair@$$CBHPAX@std@@@2@$0A@@std@@@2@ABU?$pair@$$CBHPAX@2@@Z 0042ecc0 f i Dictionary.obj
 0001:0002dec0       ?erase@?$_Tree@V?$_Tmap_traits@V?$basic_string@DU?$char_traits@D@std@@V?$allocator@D@2@@std@@PAXU?$less@V?$basic_string@DU?$char_traits@D@std@@V?$allocator@D@2@@std@@@2@V?$allocator@U?$pair@$$CBV?$basic_string@DU?$char_traits@D@std@@V?$allocator@D@2@@std@@PAX@std@@@2@$0A@@std@@@std@@QAE?AViterator@12@Vconst_iterator@12@@Z 0042eec0 f i Dictionary.obj
 0001:0002e1b0       ?erase@?$_Tree@V?$_Tmap_traits@HPAXU?$less@H@std@@V?$allocator@U?$pair@$$CBHPAX@std@@@2@$0A@@std@@@std@@QAE?AViterator@12@Vconst_iterator@12@@Z 0042f1b0 f i Dictionary.obj
 0001:0002e480       ??0_Node@?$_Tree_nod@V?$_Tmap_traits@V?$basic_string@DU?$char_traits@D@std@@V?$allocator@D@2@@std@@PAXU?$less@V?$basic_string@DU?$char_traits@D@std@@V?$allocator@D@2@@std@@@2@V?$allocator@U?$pair@$$CBV?$basic_string@DU?$char_traits@D@std@@V?$allocator@D@2@@std@@PAX@std@@@2@$0A@@std@@@std@@QAE@PAU012@00ABU?$pair@$$CBV?$basic_string@DU?$char_traits@D@std@@V?$allocator@D@2@@std@@PAX@2@D@Z 0042f480 f i Dictionary.obj
 0001:0002e4e0       ??0out_of_range@std@@QAE@ABV01@@Z 0042f4e0 f i Dictionary.obj
 0001:0002e500       _GetDictionaryValue        0042f500 f   Dictionary.obj
 0001:0002e5c0       ??0?$_Tree@V?$_Tmap_traits@V?$basic_string@DU?$char_traits@D@std@@V?$allocator@D@2@@std@@PAXU?$less@V?$basic_string@DU?$char_traits@D@std@@V?$allocator@D@2@@std@@@2@V?$allocator@U?$pair@$$CBV?$basic_string@DU?$char_traits@D@std@@V?$allocator@D@2@@std@@PAX@std@@@2@$0A@@std@@@std@@QAE@ABU?$less@V?$basic_string@DU?$char_traits@D@std@@V?$allocator@D@2@@std@@@1@ABV?$allocator@U?$pair@$$CBV?$basic_string@DU?$char_traits@D@std@@V?$allocator@D@2@@std@@PAX@std@@@1@@Z 0042f5c0 f i Dictionary.obj
 0001:0002e650       ?_Erase@?$_Tree@V?$_Tmap_traits@V?$basic_string@DU?$char_traits@D@std@@V?$allocator@D@2@@std@@PAXU?$less@V?$basic_string@DU?$char_traits@D@std@@V?$allocator@D@2@@std@@@2@V?$allocator@U?$pair@$$CBV?$basic_string@DU?$char_traits@D@std@@V?$allocator@D@2@@std@@PAX@std@@@2@$0A@@std@@@std@@IAEXPAU_Node@?$_Tree_nod@V?$_Tmap_traits@V?$basic_string@DU?$char_traits@D@std@@V?$allocator@D@2@@std@@PAXU?$less@V?$basic_string@DU?$char_traits@D@std@@V?$allocator@D@2@@std@@@2@V?$allocator@U?$pair@$$CBV?$basic_string@DU?$char_traits@D@std@@V?$allocator@D@2@@std@@PAX@std@@@2@$0A@@std@@@2@@Z 0042f650 f i Dictionary.obj
 0001:0002e6b0       ??0?$_Tree@V?$_Tmap_traits@HPAXU?$less@H@std@@V?$allocator@U?$pair@$$CBHPAX@std@@@2@$0A@@std@@@std@@QAE@ABU?$less@H@1@ABV?$allocator@U?$pair@$$CBHPAX@std@@@1@@Z 0042f6b0 f i Dictionary.obj
 0001:0002e740       ?insert@?$_Tree@V?$_Tmap_traits@HPAXU?$less@H@std@@V?$allocator@U?$pair@$$CBHPAX@std@@@2@$0A@@std@@@std@@QAE?AU?$pair@Viterator@?$_Tree@V?$_Tmap_traits@HPAXU?$less@H@std@@V?$allocator@U?$pair@$$CBHPAX@std@@@2@$0A@@std@@@std@@_N@2@ABU?$pair@$$CBHPAX@2@@Z 0042f740 f i Dictionary.obj
 0001:0002e830       ?erase@?$_Tree@V?$_Tmap_traits@HPAXU?$less@H@std@@V?$allocator@U?$pair@$$CBHPAX@std@@@2@$0A@@std@@@std@@QAE?AViterator@12@Vconst_iterator@12@0@Z 0042f830 f i Dictionary.obj
 0001:0002e910       ?_Buynode@?$_Tree@V?$_Tmap_traits@V?$basic_string@DU?$char_traits@D@std@@V?$allocator@D@2@@std@@PAXU?$less@V?$basic_string@DU?$char_traits@D@std@@V?$allocator@D@2@@std@@@2@V?$allocator@U?$pair@$$CBV?$basic_string@DU?$char_traits@D@std@@V?$allocator@D@2@@std@@PAX@std@@@2@$0A@@std@@@std@@IAEPAU_Node@?$_Tree_nod@V?$_Tmap_traits@V?$basic_string@DU?$char_traits@D@std@@V?$allocator@D@2@@std@@PAXU?$less@V?$basic_string@DU?$char_traits@D@std@@V?$allocator@D@2@@std@@@2@V?$allocator@U?$pair@$$CBV?$basic_string@DU?$char_traits@D@std@@V?$allocator@D@2@@std@@PAX@std@@@2@$0A@@std@@@2@PAU342@00ABU?$pair@$$CBV?$basic_string@DU?$char_traits@D@std@@V?$allocator@D@2@@std@@PAX@2@D@Z 0042f910 f i Dictionary.obj
 0001:0002e9b0       ?insert@?$_Tree@V?$_Tmap_traits@HPAXU?$less@H@std@@V?$allocator@U?$pair@$$CBHPAX@std@@@2@$0A@@std@@@std@@QAE?AViterator@12@Vconst_iterator@12@ABU?$pair@$$CBHPAX@2@@Z 0042f9b0 f i Dictionary.obj
 0001:0002eb80       ?erase@?$_Tree@V?$_Tmap_traits@V?$basic_string@DU?$char_traits@D@std@@V?$allocator@D@2@@std@@PAXU?$less@V?$basic_string@DU?$char_traits@D@std@@V?$allocator@D@2@@std@@@2@V?$allocator@U?$pair@$$CBV?$basic_string@DU?$char_traits@D@std@@V?$allocator@D@2@@std@@PAX@std@@@2@$0A@@std@@@std@@QAE?AViterator@12@Vconst_iterator@12@0@Z 0042fb80 f i Dictionary.obj
 0001:0002ec60       ?_Insert@?$_Tree@V?$_Tmap_traits@V?$basic_string@DU?$char_traits@D@std@@V?$allocator@D@2@@std@@PAXU?$less@V?$basic_string@DU?$char_traits@D@std@@V?$allocator@D@2@@std@@@2@V?$allocator@U?$pair@$$CBV?$basic_string@DU?$char_traits@D@std@@V?$allocator@D@2@@std@@PAX@std@@@2@$0A@@std@@@std@@IAE?AViterator@12@_NPAU_Node@?$_Tree_nod@V?$_Tmap_traits@V?$basic_string@DU?$char_traits@D@std@@V?$allocator@D@2@@std@@PAXU?$less@V?$basic_string@DU?$char_traits@D@std@@V?$allocator@D@2@@std@@@2@V?$allocator@U?$pair@$$CBV?$basic_string@DU?$char_traits@D@std@@V?$allocator@D@2@@std@@PAX@std@@@2@$0A@@std@@@2@ABU?$pair@$$CBV?$basic_string@DU?$char_traits@D@std@@V?$allocator@D@2@@std@@PAX@2@@Z 0042fc60 f i Dictionary.obj
 0001:0002ee60       _ClearDictionaryPool       0042fe60 f   Dictionary.obj
 0001:0002eee0       ??A?$map@HPAXU?$less@H@std@@V?$allocator@U?$pair@$$CBHPAX@std@@@2@@std@@QAEAAPAXABH@Z 0042fee0 f i Dictionary.obj
 0001:0002ef90       ??1?$_Tree@V?$_Tmap_traits@HPAXU?$less@H@std@@V?$allocator@U?$pair@$$CBHPAX@std@@@2@$0A@@std@@@std@@QAE@XZ 0042ff90 f i Dictionary.obj
 0001:0002f010       ?insert@?$_Tree@V?$_Tmap_traits@V?$basic_string@DU?$char_traits@D@std@@V?$allocator@D@2@@std@@PAXU?$less@V?$basic_string@DU?$char_traits@D@std@@V?$allocator@D@2@@std@@@2@V?$allocator@U?$pair@$$CBV?$basic_string@DU?$char_traits@D@std@@V?$allocator@D@2@@std@@PAX@std@@@2@$0A@@std@@@std@@QAE?AU?$pair@Viterator@?$_Tree@V?$_Tmap_traits@V?$basic_string@DU?$char_traits@D@std@@V?$allocator@D@2@@std@@PAXU?$less@V?$basic_string@DU?$char_traits@D@std@@V?$allocator@D@2@@std@@@2@V?$allocator@U?$pair@$$CBV?$basic_string@DU?$char_traits@D@std@@V?$allocator@D@2@@std@@PAX@std@@@2@$0A@@std@@@std@@_N@2@ABU?$pair@$$CBV?$basic_string@DU?$char_traits@D@std@@V?$allocator@D@2@@std@@PAX@2@@Z 00430010 f i Dictionary.obj
 0001:0002f170       ??1?$_Tree@V?$_Tmap_traits@V?$basic_string@DU?$char_traits@D@std@@V?$allocator@D@2@@std@@PAXU?$less@V?$basic_string@DU?$char_traits@D@std@@V?$allocator@D@2@@std@@@2@V?$allocator@U?$pair@$$CBV?$basic_string@DU?$char_traits@D@std@@V?$allocator@D@2@@std@@PAX@std@@@2@$0A@@std@@@std@@QAE@XZ 00430170 f i Dictionary.obj
 0001:0002f1f0       ?insert@?$_Tree@V?$_Tmap_traits@V?$basic_string@DU?$char_traits@D@std@@V?$allocator@D@2@@std@@PAXU?$less@V?$basic_string@DU?$char_traits@D@std@@V?$allocator@D@2@@std@@@2@V?$allocator@U?$pair@$$CBV?$basic_string@DU?$char_traits@D@std@@V?$allocator@D@2@@std@@PAX@std@@@2@$0A@@std@@@std@@QAE?AViterator@12@Vconst_iterator@12@ABU?$pair@$$CBV?$basic_string@DU?$char_traits@D@std@@V?$allocator@D@2@@std@@PAX@2@@Z 004301f0 f i Dictionary.obj
 0001:0002f420       ??A?$map@V?$basic_string@DU?$char_traits@D@std@@V?$allocator@D@2@@std@@PAXU?$less@V?$basic_string@DU?$char_traits@D@std@@V?$allocator@D@2@@std@@@2@V?$allocator@U?$pair@$$CBV?$basic_string@DU?$char_traits@D@std@@V?$allocator@D@2@@std@@PAX@std@@@2@@std@@QAEAAPAXABV?$basic_string@DU?$char_traits@D@std@@V?$allocator@D@2@@1@@Z 00430420 f i Dictionary.obj
 0001:0002f540       _AddDictionaryEntry        00430540 f   Dictionary.obj
 0001:0002f5d0       ?dec@std@@YAAAVios_base@1@AAV21@@Z 004305d0 f i Dlgcode.obj
 0001:0002f5f0       ?hex@std@@YAAAVios_base@1@AAV21@@Z 004305f0 f i Dlgcode.obj
 0001:0002f610       ??_GPinRequestHandler@?4??InitSecurityTokenLibrary@@9@UAEPAXI@Z 00430610 f i Dlgcode.obj
 0001:0002f610       ??_EPinRequestHandler@?4??InitSecurityTokenLibrary@@9@UAEPAXI@Z 00430610 f i Dlgcode.obj
 0001:0002f610       ??_EGetPinFunctor@CipherShed@@UAEPAXI@Z 00430610 f i Dlgcode.obj
 0001:0002f610       ??_GGetPinFunctor@CipherShed@@UAEPAXI@Z 00430610 f i Dlgcode.obj
 0001:0002f630       _UpperCaseCopy             00430630 f   Dlgcode.obj
 0001:0002f680       _CreateFullVolumePath      00430680 f   Dlgcode.obj
 0001:0002f6e0       _FakeDosNameForDevice      004306e0 f   Dlgcode.obj
 0001:0002f740       _RemoveFakeDosName         00430740 f   Dlgcode.obj
 0001:0002f760       _AbortProcess              00430760 f   Dlgcode.obj
 0001:0002f790       _AbortProcessSilent        00430790 f   Dlgcode.obj
 0001:0002f7a0       _err_malloc                004307a0 f   Dlgcode.obj
 0001:0002f7c0       _IsDiskReadError           004307c0 f   Dlgcode.obj
 0001:0002f800       _IsDiskError               00430800 f   Dlgcode.obj
 0001:0002f840       _translateWin32Error       00430840 f   Dlgcode.obj
 0001:0002f890       _CompensateDPIFont         00430890 f   Dlgcode.obj
 0001:0002f8e0       _CompensateXDPI            004308e0 f   Dlgcode.obj
 0001:0002f930       _CompensateYDPI            00430930 f   Dlgcode.obj
 0001:0002f980       _GetTextGfxWidth           00430980 f   Dlgcode.obj
 0001:0002f9f0       _GetTextGfxHeight          004309f0 f   Dlgcode.obj
 0001:0002fa50       _AccommodateTextField      00430a50 f   Dlgcode.obj
 0001:0002fc80       _ToBootPwdField            00430c80 f   Dlgcode.obj
 0001:0002fcc0       ?AuxiliaryDlgProc@@YGHPAUHWND__@@IIJ@Z 00430cc0 f   Dlgcode.obj
 0001:0002fdb0       _CloseStaticModelessWaitDlg 00430db0 f   Dlgcode.obj
 0001:0002fdd0       _IsButtonChecked           00430dd0 f   Dlgcode.obj
 0001:0002fdf0       _CheckButton               00430df0 f   Dlgcode.obj
 0001:0002fe10       _LeftPadString             00430e10 f   Dlgcode.obj
 0001:0002fe70       _ToUNICODE                 00430e70 f   Dlgcode.obj
 0001:0002ff30       _ProcessPaintMessages      00430f30 f   Dlgcode.obj
 0001:0002ff90       _CreateMemBitmap           00430f90 f   Dlgcode.obj
 0001:0002fff0       _RenderBitmap              00430ff0 f   Dlgcode.obj
 0001:00030180       _RedTick@16                00431180 f   Dlgcode.obj
 0001:00030370       _RegisterRedTick           00431370 f   Dlgcode.obj
 0001:00030410       _UnregisterRedTick         00431410 f   Dlgcode.obj
 0001:00030430       _SplashDlgProc@16          00431430 f   Dlgcode.obj
 0001:00030440       _WaitCursor                00431440 f   Dlgcode.obj
 0001:00030470       _ArrowWaitCursor           00431470 f   Dlgcode.obj
 0001:000304a0       _AddComboPair              004314a0 f   Dlgcode.obj
 0001:000304d0       _AddComboPairW             004314d0 f   Dlgcode.obj
 0001:00030500       _SelectAlgo                00431500 f   Dlgcode.obj
 0001:00030580       _PopulateWipeModeCombo     00431580 f   Dlgcode.obj
 0001:000306a0       _GetWipeModeName           004316a0 f   Dlgcode.obj
 0001:00030720       _GetPathType               00431720 f   Dlgcode.obj
 0001:000307d0       _CustomDlgProc@16          004317d0 f   Dlgcode.obj
 0001:00030890       ?InvalidParameterHandler@@YAXPB_W00II@Z 00431890 f   Dlgcode.obj
 0001:000308b0       _InstanceHasSysEncMutex    004318b0 f   Dlgcode.obj
 0001:000308c0       _MutexExistsOnSystem       004318c0 f   Dlgcode.obj
 0001:00030910       _ReadEncryptionThreadPoolFreeCpuCountLimit 00431910 f   Dlgcode.obj
 0001:00030940       _InitHelpFileName          00431940 f   Dlgcode.obj
 0001:00030a60       _OpenDevice                00431a60 f   Dlgcode.obj
 0001:00030af0       _GetDriveLabel             00431af0 f   Dlgcode.obj
 0001:00030b60       _SelectMultipleFilesNext   00431b60 f   Dlgcode.obj
 0001:00030cc0       _BrowseDirectories         00431cc0 f   Dlgcode.obj
 0001:00030e50       _LocalizeDialog            00431e50 f   Dlgcode.obj
 0001:00030ec0       _OpenVolumeExplorerWindow  00431ec0 f   Dlgcode.obj
 0001:00031100       _CloseVolumeExplorerWindows 00432100 f   Dlgcode.obj
 0001:00031130       _GetSizeString             00432130 f   Dlgcode.obj
 0001:00031410       _GetSpeedString            00432410 f   Dlgcode.obj
 0001:00031eb0       ?LongReverse@@YAXPAII@Z    00432eb0 f   Dlgcode.obj
 0001:00031ef0       _ResetCipherTest           00432ef0 f   Dlgcode.obj
 0001:000322e0       _CheckCapsLock             004332e0 f   Dlgcode.obj
 0001:00032320       _CheckFileExtension        00433320 f   Dlgcode.obj
 0001:00032370       _GetFirstAvailableDrive    00433370 f   Dlgcode.obj
 0001:000323a0       _GetLastAvailableDrive     004333a0 f   Dlgcode.obj
 0001:000323d0       _IsDeviceMounted           004333d0 f   Dlgcode.obj
 0001:00032420       _IsPasswordCacheEmpty      00433420 f   Dlgcode.obj
 0001:00032450       _IsAdmin                   00433450 f   Dlgcode.obj
 0001:00032470       _ResolveSymbolicLink       00433470 f   Dlgcode.obj
 0001:00032520       _GetPartitionInfo          00433520 f   Dlgcode.obj
 0001:000325c0       _GetDriveGeometry          004335c0 f   Dlgcode.obj
 0001:00032690       _GetDiskDeviceDriveLetter  00433690 f   Dlgcode.obj
 0001:000327f0       _GetDeviceSize             004337f0 f   Dlgcode.obj
 0001:00032820       _DismountDrive             00433820 f   Dlgcode.obj
 0001:00032990       _FindString                00433990 f   Dlgcode.obj
 0001:00032a90       _FileExists                00433a90 f   Dlgcode.obj
 0001:00032b30       _TCFlushFile               00433b30 f   Dlgcode.obj
 0001:00032b70       _SetCheckBox               00433b70 f   Dlgcode.obj
 0001:00032ba0       _GetCheckBox               00433ba0 f   Dlgcode.obj
 0001:00032bd0       _ManageStartupSeqWiz       00433bd0 f   Dlgcode.obj
 0001:00032cf0       _ListItemAddW              00433cf0 f   Dlgcode.obj
 0001:00032d40       _GetDriverRefCount         00433d40 f   Dlgcode.obj
 0001:00032d80       _LoadFile                  00433d80 f   Dlgcode.obj
 0001:00032e10       _GetSystemDriveLetter      00433e10 f   Dlgcode.obj
 0001:00032e80       _Info                      00433e80 f   Dlgcode.obj
 0001:00032eb0       _Warning                   00433eb0 f   Dlgcode.obj
 0001:00032ee0       _WarningDirect             00433ee0 f   Dlgcode.obj
 0001:00032f10       _Error                     00433f10 f   Dlgcode.obj
 0001:00032f40       _ErrorDirect               00433f40 f   Dlgcode.obj
 0001:00032f70       _AskYesNo                  00433f70 f   Dlgcode.obj
 0001:00032fb0       _AskNoYes                  00433fb0 f   Dlgcode.obj
 0001:00032ff0       _AskWarnYesNo              00433ff0 f   Dlgcode.obj
 0001:00033030       _AskWarnYesNoString        00434030 f   Dlgcode.obj
 0001:00033060       _AskWarnYesNoStringTopmost 00434060 f   Dlgcode.obj
 0001:00033090       _AskWarnNoYes              00434090 f   Dlgcode.obj
 0001:000330d0       _AskWarnOkCancel           004340d0 f   Dlgcode.obj
 0001:00033110       _AskErrYesNo               00434110 f   Dlgcode.obj
 0001:00033150       _ConfigWriteString         00434150 f   Dlgcode.obj
 0001:000331b0       _ConfigWriteInt            004341b0 f   Dlgcode.obj
 0001:00033200       _RestoreDefaultKeyFilesParam 00434200 f   Dlgcode.obj
 0001:00033240       _IsOSVersionAtLeast        00434240 f   Dlgcode.obj
 0001:00033320       _Is64BitOs                 00434320 f   Dlgcode.obj
 0001:00033370       _IsServerOS                00434370 f   Dlgcode.obj
 0001:000333e0       _IsHiddenOSRunning         004343e0 f   Dlgcode.obj
 0001:00033480       _RestartComputer           00434480 f   Dlgcode.obj
 0001:00033500       _RelativePath2Absolute     00434500 f   Dlgcode.obj
 0001:000335f0       _HandleDriveNotReadyError  004345f0 f   Dlgcode.obj
 0001:000336e0       _MapResource               004346e0 f   Dlgcode.obj
 0001:00033730       _InconsistencyResolved     00434730 f   Dlgcode.obj
 0001:000337b0       _ReportUnexpectedState     004347b0 f   Dlgcode.obj
 0001:00033830       _CloseVolume               00434830 f   Dlgcode.obj
 0001:00033890       _IsPagingFileWildcardActive 00434890 f   Dlgcode.obj
 0001:00033950       _NormalCursor              00434950 f   Dlgcode.obj
 0001:000339a0       _FileHasReadOnlyAttribute  004349a0 f   Dlgcode.obj
 0001:000339c0       _IsFileOnReadOnlyFilesystem 004349c0 f   Dlgcode.obj
 0001:00033a50       _BufferContainsString      00434a50 f   Dlgcode.obj
 0001:00033ae0       _DisableFileCompression    00434ae0 f   Dlgcode.obj
 0001:00033b50       ??6?$basic_ostream@DU?$char_traits@D@std@@@std@@QAEAAV01@P6AAAVios_base@1@AAV21@@Z@Z 00434b50 f i Dlgcode.obj
 0001:00033b80       ??1?$auto_ptr@USendExceptionFunctor@CipherShed@@@std@@QAE@XZ 00434b80 f i Dlgcode.obj
 0001:00033b80       ??1?$auto_ptr@UGetPinFunctor@CipherShed@@@std@@QAE@XZ 00434b80 f i Dlgcode.obj
 0001:00033b90       ?_Max@?$_Tree@V?$_Tmap_traits@HUHostDevice@@U?$less@H@std@@V?$allocator@U?$pair@$$CBHUHostDevice@@@std@@@3@$0A@@std@@@std@@KAPAU_Node@?$_Tree_nod@V?$_Tmap_traits@HUHostDevice@@U?$less@H@std@@V?$allocator@U?$pair@$$CBHUHostDevice@@@std@@@3@$0A@@std@@@2@PAU342@@Z 00434b90 f i Dlgcode.obj
 0001:00033bb0       ?_Min@?$_Tree@V?$_Tmap_traits@HUHostDevice@@U?$less@H@std@@V?$allocator@U?$pair@$$CBHUHostDevice@@@std@@@3@$0A@@std@@@std@@KAPAU_Node@?$_Tree_nod@V?$_Tmap_traits@HUHostDevice@@U?$less@H@std@@V?$allocator@U?$pair@$$CBHUHostDevice@@@std@@@3@$0A@@std@@@2@PAU342@@Z 00434bb0 f i Dlgcode.obj
 0001:00033bd0       ??$_Allocate@USecurityTokenKeyfile@CipherShed@@@std@@YAPAUSecurityTokenKeyfile@CipherShed@@IPAU12@@Z 00434bd0 f i Dlgcode.obj
 0001:00033c30       ??F?$_Const_iterator@$00@?$list@USecurityTokenKeyfilePath@CipherShed@@V?$allocator@USecurityTokenKeyfilePath@CipherShed@@@std@@@std@@QAEAAV012@XZ 00434c30 f i Keyfiles.obj
 0001:00033c30       ??F?$_Const_iterator@$00@?$list@USecurityTokenInfo@CipherShed@@V?$allocator@USecurityTokenInfo@CipherShed@@@std@@@std@@QAEAAV012@XZ 00434c30 f i Dlgcode.obj
 0001:00033c30       ??F?$_Const_iterator@$00@?$list@USecurityTokenKeyfile@CipherShed@@V?$allocator@USecurityTokenKeyfile@CipherShed@@@std@@@std@@QAEAAV012@XZ 00434c30 f i Dlgcode.obj
 0001:00033c30       ??F?$_Const_iterator@$00@?$list@UPartition@CipherShed@@V?$allocator@UPartition@CipherShed@@@std@@@std@@QAEAAV012@XZ 00434c30 f i BootEncryption.obj
 0001:00033c30       ??F?$_Const_iterator@$00@?$list@KV?$allocator@K@std@@@std@@QAEAAV012@XZ 00434c30 f i Dlgcode.obj
 0001:00033c60       _handleWin32Error          00434c60 f   Dlgcode.obj
 0001:00033e10       _ToCustHyperlink           00434e10 f   Dlgcode.obj
 0001:00033f10       _DisplayStaticModelessWaitDlg 00434f10 f   Dlgcode.obj
 0001:00033f60       _CreateSysEncMutex         00434f60 f   Dlgcode.obj
 0001:00033fc0       _CloseSysEncMutex          00434fc0 f   Dlgcode.obj
 0001:00034000       _CreateNonSysInplaceEncMutex 00435000 f   Dlgcode.obj
 0001:00034060       _CloseNonSysInplaceEncMutex 00435060 f   Dlgcode.obj
 0001:000340a0       _NonSysInplaceEncInProgressElsewhere 004350a0 f   Dlgcode.obj
 0001:000340d0       _CreateDriverSetupMutex    004350d0 f   Dlgcode.obj
 0001:00034130       _CloseDriverSetupMutex     00435130 f   Dlgcode.obj
 0001:00034170       _IsCipherShedInstallerRunning 00435170 f   Dlgcode.obj
 0001:000341c0       _InitOSVersionInfo         004351c0 f   Dlgcode.obj
 0001:000344e0       _GetLegalNotices           004354e0 f   Dlgcode.obj
 0001:00034570       _DoDriverInstall           00435570 f   Dlgcode.obj
 0001:00034890       _DriverUnload              00435890 f   Dlgcode.obj
 0001:00034a80       _CheckFileStreamWriteErrors 00435a80 f   Dlgcode.obj
 0001:00034fa0       _UserEnrichRandomPool      00435fa0 f   Dlgcode.obj
 0001:00034ff0       _MultiChoiceDialogProc@16  00435ff0 f   Dlgcode.obj
 0001:00035800       _IsBuiltInAdmin            00436800 f   Dlgcode.obj
 0001:000358e0       _GetStatsFreeSpaceOnPartition 004368e0 f   Dlgcode.obj
 0001:00035ad0       _SaveBufferToFile          00436ad0 f   Dlgcode.obj
 0001:00035ba0       _AskMultiChoice            00436ba0 f   Dlgcode.obj
 0001:00035be0       _IsOSAtLeast               00436be0 f   Dlgcode.obj
 0001:00035bf0       _OpenVolume                00436bf0 f   Dlgcode.obj
 0001:00035fe0       ??_EWarningHandler@?5??InitSecurityTokenLibrary@@9@UAEPAXI@Z 00436fe0 f i Dlgcode.obj
 0001:00035fe0       ??_GWarningHandler@?5??InitSecurityTokenLibrary@@9@UAEPAXI@Z 00436fe0 f i Dlgcode.obj
 0001:00035fe0       ??_GSendExceptionFunctor@CipherShed@@UAEPAXI@Z 00436fe0 f i Dlgcode.obj
 0001:00035fe0       ??_ESendExceptionFunctor@CipherShed@@UAEPAXI@Z 00436fe0 f i Dlgcode.obj
 0001:00036000       _IsWindowsIsoBurnerAvailable 00437000 f   Dlgcode.obj
 0001:000360e0       ??9?$_Const_iterator@$00@?$list@UPartition@CipherShed@@V?$allocator@UPartition@CipherShed@@@std@@@std@@QBE_NABV012@@Z 004370e0 f i BootEncryption.obj
 0001:000360e0       ??9?$_Const_iterator@$00@?$list@USecurityTokenKeyfilePath@CipherShed@@V?$allocator@USecurityTokenKeyfilePath@CipherShed@@@std@@@std@@QBE_NABV012@@Z 004370e0 f i Keyfiles.obj
 0001:000360e0       ??9?$_Const_iterator@$00@?$list@USecurityTokenKeyfile@CipherShed@@V?$allocator@USecurityTokenKeyfile@CipherShed@@@std@@@std@@QBE_NABV012@@Z 004370e0 f i Dlgcode.obj
 0001:000360e0       ??9?$_Const_iterator@$00@?$list@KV?$allocator@K@std@@@std@@QBE_NABV012@@Z 004370e0 f i Dlgcode.obj
 0001:000360e0       ??9?$_Const_iterator@$00@?$list@USecurityTokenInfo@CipherShed@@V?$allocator@USecurityTokenInfo@CipherShed@@@std@@@std@@QBE_NABV012@@Z 004370e0 f i Dlgcode.obj
 0001:00036110       ?_Lrotate@?$_Tree@V?$_Tmap_traits@HUHostDevice@@U?$less@H@std@@V?$allocator@U?$pair@$$CBHUHostDevice@@@std@@@3@$0A@@std@@@std@@IAEXPAU_Node@?$_Tree_nod@V?$_Tmap_traits@HUHostDevice@@U?$less@H@std@@V?$allocator@U?$pair@$$CBHUHostDevice@@@std@@@3@$0A@@std@@@2@@Z 00437110 f i Dlgcode.obj
 0001:00036170       ?_Rrotate@?$_Tree@V?$_Tmap_traits@HUHostDevice@@U?$less@H@std@@V?$allocator@U?$pair@$$CBHUHostDevice@@@std@@@3@$0A@@std@@@std@@IAEXPAU_Node@?$_Tree_nod@V?$_Tmap_traits@HUHostDevice@@U?$less@H@std@@V?$allocator@U?$pair@$$CBHUHostDevice@@@std@@@3@$0A@@std@@@2@@Z 00437170 f i Dlgcode.obj
 0001:000361d0       ?_Dec@const_iterator@?$_Tree@V?$_Tmap_traits@HUHostDevice@@U?$less@H@std@@V?$allocator@U?$pair@$$CBHUHostDevice@@@std@@@3@$0A@@std@@@std@@QAEXXZ 004371d0 f i Dlgcode.obj
 0001:00036270       ?_Inc@const_iterator@?$_Tree@V?$_Tmap_traits@HUHostDevice@@U?$less@H@std@@V?$allocator@U?$pair@$$CBHUHostDevice@@@std@@@3@$0A@@std@@@std@@QAEXXZ 00437270 f i Dlgcode.obj
 0001:000362f0       _ToHyperlink               004372f0 f   Dlgcode.obj
 0001:00036310       _InitDialog                00437310 f   Dlgcode.obj
 0001:00036760       _BroadcastDeviceChange     00437760 f   Dlgcode.obj
 0001:00036960       _UnmountVolume             00437960 f   Dlgcode.obj
 0001:00036ae0       _IsUacSupported            00437ae0 f   Dlgcode.obj
 0001:00036b90       _FileSystemAppearsEmpty    00437b90 f   Dlgcode.obj
 0001:00036c20       _IsNonInstallMode          00437c20 f   Dlgcode.obj
 0001:00036de0       _ManageStartupSeq          00437de0 f   Dlgcode.obj
 0001:00036f80       _CleanLastVisitedMRU       00437f80 f   Dlgcode.obj
 0001:000372a0       _ClearHistory              004382a0 f   Dlgcode.obj
 0001:00037320       _GetConfigPath             00438320 f   Dlgcode.obj
 0001:00037420       _ConfigWriteBegin          00438420 f   Dlgcode.obj
 0001:000374c0       _ConfigWriteEnd            004384c0 f   Dlgcode.obj
 0001:000376a0       _ConfigReadInt             004386a0 f   Dlgcode.obj
 0001:00037700       _ConfigReadString          00438700 f   Dlgcode.obj
 0001:00037730       _LoadDefaultKeyFilesParam  00438730 f   Dlgcode.obj
 0001:000377f0       _CheckFilesystem           004387f0 f   Dlgcode.obj
 0001:00037910       _RemoveDeviceWriteProtection 00438910 f   Dlgcode.obj
 0001:00037b10       ?_Buynode@?$list@KV?$allocator@K@std@@@std@@IAEPAU_Node@?$_List_nod@KV?$allocator@K@std@@@2@XZ 00438b10 f i Dlgcode.obj
 0001:00037b30       ?_Buynode@?$list@USecurityTokenInfo@CipherShed@@V?$allocator@USecurityTokenInfo@CipherShed@@@std@@@std@@IAEPAU_Node@?$_List_nod@USecurityTokenInfo@CipherShed@@V?$allocator@USecurityTokenInfo@CipherShed@@@std@@@2@XZ 00438b30 f i Dlgcode.obj
 0001:00037b50       ?_Buynode@?$list@KV?$allocator@K@std@@@std@@IAEPAU_Node@?$_List_nod@KV?$allocator@K@std@@@2@PAU342@0ABK@Z 00438b50 f i Dlgcode.obj
 0001:00037b90       ?_Buynode@?$_Tree@V?$_Tmap_traits@HUHostDevice@@U?$less@H@std@@V?$allocator@U?$pair@$$CBHUHostDevice@@@std@@@3@$0A@@std@@@std@@IAEPAU_Node@?$_Tree_nod@V?$_Tmap_traits@HUHostDevice@@U?$less@H@std@@V?$allocator@U?$pair@$$CBHUHostDevice@@@std@@@3@$0A@@std@@@2@XZ 00438b90 f i Dlgcode.obj
 0001:00037bd0       ??$?8DU?$char_traits@D@std@@V?$allocator@D@1@@std@@YA_NABV?$basic_string@DU?$char_traits@D@std@@V?$allocator@D@2@@0@PBD@Z 00438bd0 f i Dlgcode.obj
 0001:00037c10       _cleanup                   00438c10 f   Dlgcode.obj
 0001:00037dc0       _LoadSysEncSettings        00438dc0 f   Dlgcode.obj
 0001:00037f60       _LoadNonSysInPlaceEncSettings 00438f60 f   Dlgcode.obj
 0001:00038020       _RemoveNonSysInPlaceEncNotifications 00439020 f   Dlgcode.obj
 0001:000380c0       _DriverAttach              004390c0 f   Dlgcode.obj
 0001:00038450       _ResetCurrentDirectory     00439450 f   Dlgcode.obj
 0001:000384d0       ?BrowseFilesInDir@@YAHPAUHWND__@@PAD11HHPA_WPB_W3@Z 004394d0 f   Dlgcode.obj
 0001:00038740       _SelectMultipleFiles       00439740 f   Dlgcode.obj
 0001:00038960       _PrintHardCopyTextUTF16    00439960 f   Dlgcode.obj
 0001:00038cb0       _AskNonSysInPlaceEncryptionResume 00439cb0 f   Dlgcode.obj
 0001:00038d90       ?_Tidy@?$list@KV?$allocator@K@std@@@std@@IAEXXZ 00439d90 f i Dlgcode.obj
 0001:00038de0       ??$?9DU?$char_traits@D@std@@V?$allocator@D@1@@std@@YA_NPBDABV?$basic_string@DU?$char_traits@D@std@@V?$allocator@D@2@@0@@Z 00439de0 f i Dlgcode.obj
 0001:00038e20       ??1SecurityTokenInfo@CipherShed@@QAE@XZ 00439e20 f i Dlgcode.obj
 0001:00038e70       ??1?$ContainerForward@V?$basic_string@DU?$char_traits@D@std@@V?$allocator@D@2@@std@@@ForEach@CipherShed@@UAE@XZ 00439e70 f i Dlgcode.obj
 0001:00038ea0       _BrowseFiles               00439ea0 f   Dlgcode.obj
 0001:00038ed0       _KeyfileGeneratorDlgProc@16 00439ed0 f   Dlgcode.obj
 0001:00039460       ??1?$basic_string@_WU?$char_traits@_W@std@@V?$allocator@_W@2@@std@@QAE@XZ 0043a460 f i InPlace.obj
 0001:00039460       ??1SecurityTokenKeyfilePath@CipherShed@@QAE@XZ 0043a460 f i Dlgcode.obj
 0001:00039490       ??1NewSecurityTokenKeyfileDlgProcParams@@QAE@XZ 0043a490 f i Dlgcode.obj
 0001:000394c0       ??1?$vector@EV?$allocator@E@std@@@std@@QAE@XZ 0043a4c0 f i Dlgcode.obj
 0001:000394c0       ??1?$vector@KV?$allocator@K@std@@@std@@QAE@XZ 0043a4c0 f i SecurityToken.obj
 0001:00039500       ??1?$pair@$$CBHUHostDevice@@@std@@QAE@XZ 0043a500 f i Dlgcode.obj
 0001:00039510       ?lower_bound@?$_Tree@V?$_Tmap_traits@HUHostDevice@@U?$less@H@std@@V?$allocator@U?$pair@$$CBHUHostDevice@@@std@@@3@$0A@@std@@@std@@QAE?AViterator@12@ABH@Z 0043a510 f i Dlgcode.obj
 0001:00039550       ??1SecurityTokenKeyfile@CipherShed@@QAE@XZ 0043a550 f i Dlgcode.obj
 0001:000395b0       ?erase@?$list@KV?$allocator@K@std@@@std@@QAE?AV?$_Iterator@$00@12@V?$_Const_iterator@$00@12@@Z 0043a5b0 f i Dlgcode.obj
 0001:00039630       ??0?$list@KV?$allocator@K@std@@@std@@QAE@XZ 0043a630 f i Dlgcode.obj
 0001:000396a0       ??1?$list@KV?$allocator@K@std@@@std@@QAE@XZ 0043a6a0 f i Dlgcode.obj
 0001:000396c0       ?find@?$_Tree@V?$_Tmap_traits@HUHostDevice@@U?$less@H@std@@V?$allocator@U?$pair@$$CBHUHostDevice@@@std@@@3@$0A@@std@@@std@@QAE?AViterator@12@ABH@Z 0043a6c0 f i Dlgcode.obj
 0001:00039730       ??0?$list@USecurityTokenInfo@CipherShed@@V?$allocator@USecurityTokenInfo@CipherShed@@@std@@@std@@QAE@XZ 0043a730 f i Dlgcode.obj
 0001:000397a0       ??0?$list@USecurityTokenKeyfile@CipherShed@@V?$allocator@USecurityTokenKeyfile@CipherShed@@@std@@@std@@QAE@XZ 0043a7a0 f i Dlgcode.obj
 0001:000397a0       ??0?$list@UPartition@CipherShed@@V?$allocator@UPartition@CipherShed@@@std@@@std@@QAE@XZ 0043a7a0 f i BootEncryption.obj
 0001:00039810       ?front@?$vector@UHostDevice@@V?$allocator@UHostDevice@@@std@@@std@@QAEAAUHostDevice@@XZ 0043a810 f i Tcformat.obj
 0001:00039810       ?front@?$vector@EV?$allocator@E@std@@@std@@QAEAAEXZ 0043a810 f i Dlgcode.obj
 0001:00039810       ?front@?$vector@USecurityTokenKeyfile@CipherShed@@V?$allocator@USecurityTokenKeyfile@CipherShed@@@std@@@std@@QAEAAUSecurityTokenKeyfile@CipherShed@@XZ 0043a810 f i SecurityToken.obj
 0001:00039840       ??1?$_Vector_val@KV?$allocator@K@std@@@std@@QAE@XZ 0043a840 f i SecurityToken.obj
 0001:00039840       ??1?$_Vector_val@EV?$allocator@E@std@@@std@@QAE@XZ 0043a840 f i Dlgcode.obj
 0001:00039840       ??1?$_Tree_val@V?$_Tmap_traits@V?$basic_string@DU?$char_traits@D@std@@V?$allocator@D@2@@std@@PAXU?$less@V?$basic_string@DU?$char_traits@D@std@@V?$allocator@D@2@@std@@@2@V?$allocator@U?$pair@$$CBV?$basic_string@DU?$char_traits@D@std@@V?$allocator@D@2@@std@@PAX@std@@@2@$0A@@std@@@std@@QAE@XZ 0043a840 f i Dictionary.obj
 0001:00039840       ??1?$_List_val@USecurityTokenKeyfile@CipherShed@@V?$allocator@USecurityTokenKeyfile@CipherShed@@@std@@@std@@QAE@XZ 0043a840 f i Dlgcode.obj
 0001:00039840       ??1?$_List_val@USecurityTokenKeyfilePath@CipherShed@@V?$allocator@USecurityTokenKeyfilePath@CipherShed@@@std@@@std@@QAE@XZ 0043a840 f i Keyfiles.obj
 0001:00039840       ??1?$_Tree_val@V?$_Tmap_traits@HPAXU?$less@H@std@@V?$allocator@U?$pair@$$CBHPAX@std@@@2@$0A@@std@@@std@@QAE@XZ 0043a840 f i Dictionary.obj
 0001:00039840       ??1?$_Tree_val@V?$_Tmap_traits@KUPkcs11Session@CipherShed@@U?$less@K@std@@V?$allocator@U?$pair@$$CBKUPkcs11Session@CipherShed@@@std@@@4@$0A@@std@@@std@@QAE@XZ 0043a840 f i SecurityToken.obj
 0001:00039840       ??1?$_List_val@USecurityTokenInfo@CipherShed@@V?$allocator@USecurityTokenInfo@CipherShed@@@std@@@std@@QAE@XZ 0043a840 f i Dlgcode.obj
 0001:00039840       ??1?$_Tree_val@V?$_Tmap_traits@HUHostDevice@@U?$less@H@std@@V?$allocator@U?$pair@$$CBHUHostDevice@@@std@@@3@$0A@@std@@@std@@QAE@XZ 0043a840 f i Dlgcode.obj
 0001:00039840       ??1?$_List_val@KV?$allocator@K@std@@@std@@QAE@XZ 0043a840 f i Dlgcode.obj
 0001:00039840       ??1?$_List_val@UPartition@CipherShed@@V?$allocator@UPartition@CipherShed@@@std@@@std@@QAE@XZ 0043a840 f i Tcformat.obj
 0001:00039840       ??1?$_Vector_val@UHostDevice@@V?$allocator@UHostDevice@@@std@@@std@@QAE@XZ 0043a840 f i Tcformat.obj
 0001:00039840       ??1?$_Vector_val@USecurityTokenKeyfile@CipherShed@@V?$allocator@USecurityTokenKeyfile@CipherShed@@@std@@@std@@QAE@XZ 0043a840 f i Dlgcode.obj
 0001:00039850       ??0SecurityTokenInfo@CipherShed@@QAE@ABU01@@Z 0043a850 f i Dlgcode.obj
 0001:000398e0       ??0?$ContainerForward@V?$basic_string@DU?$char_traits@D@std@@V?$allocator@D@2@@std@@@ForEach@CipherShed@@QAE@ABV?$basic_string@DU?$char_traits@D@std@@V?$allocator@D@2@@std@@@Z 0043a8e0 f i Dlgcode.obj
 0001:00039990       ?Next@?$ContainerForward@V?$basic_string@DU?$char_traits@D@std@@V?$allocator@D@2@@std@@@ForEach@CipherShed@@UBEXXZ 0043a990 f i Dlgcode.obj
 0001:000399d0       ?IsNotEnd@?$ContainerForward@V?$basic_string@DU?$char_traits@D@std@@V?$allocator@D@2@@std@@@ForEach@CipherShed@@UBE_NXZ 0043a9d0 f i Dlgcode.obj
 0001:00039a10       ??_E?$ContainerForward@V?$basic_string@DU?$char_traits@D@std@@V?$allocator@D@2@@std@@@ForEach@CipherShed@@UAEPAXI@Z 0043aa10 f i Dlgcode.obj
 0001:00039a10       ??_G?$ContainerForward@V?$basic_string@DU?$char_traits@D@std@@V?$allocator@D@2@@std@@@ForEach@CipherShed@@UAEPAXI@Z 0043aa10 f i Dlgcode.obj
 0001:00039a50       ??$_Construct@USecurityTokenInfo@CipherShed@@U12@@std@@YAXPAUSecurityTokenInfo@CipherShed@@ABU12@@Z 0043aa50 f i Dlgcode.obj
 0001:00039ab0       ??1?$ContainerForward@V?$list@KV?$allocator@K@std@@@std@@@ForEach@CipherShed@@UAE@XZ 0043aab0 f i Dlgcode.obj
 0001:00039b80       ??0?$_Tree@V?$_Tmap_traits@HUHostDevice@@U?$less@H@std@@V?$allocator@U?$pair@$$CBHUHostDevice@@@std@@@3@$0A@@std@@@std@@QAE@ABU?$less@H@1@ABV?$allocator@U?$pair@$$CBHUHostDevice@@@std@@@1@@Z 0043ab80 f i Dlgcode.obj
 0001:00039c10       ?_Incsize@?$list@KV?$allocator@K@std@@@std@@IAEXI@Z 0043ac10 f i Dlgcode.obj
 0001:00039cb0       ?_Incsize@?$list@UPartition@CipherShed@@V?$allocator@UPartition@CipherShed@@@std@@@std@@IAEXI@Z 0043acb0 f i BootEncryption.obj
 0001:00039cb0       ?_Incsize@?$list@USecurityTokenKeyfile@CipherShed@@V?$allocator@USecurityTokenKeyfile@CipherShed@@@std@@@std@@IAEXI@Z 0043acb0 f i Dlgcode.obj
 0001:00039d50       ?_Incsize@?$list@USecurityTokenKeyfilePath@CipherShed@@V?$allocator@USecurityTokenKeyfilePath@CipherShed@@@std@@@std@@IAEXI@Z 0043ad50 f i Dlgcode.obj
 0001:00039df0       ?_Ufill@?$vector@EV?$allocator@E@std@@@std@@IAEPAEPAEIABE@Z 0043adf0 f i Dlgcode.obj
 0001:00039e20       ??$GetContainerForward@V?$basic_string@DU?$char_traits@D@std@@V?$allocator@D@2@@std@@@ForEach@CipherShed@@SA?AU?$ContainerForward@V?$basic_string@DU?$char_traits@D@std@@V?$allocator@D@2@@std@@@01@ABV?$basic_string@DU?$char_traits@D@std@@V?$allocator@D@2@@std@@@Z 0043ae20 f i Dlgcode.obj
 0001:00039e40       ??$_Construct@USecurityTokenKeyfilePath@CipherShed@@U12@@std@@YAXPAUSecurityTokenKeyfilePath@CipherShed@@ABU12@@Z 0043ae40 f i Dlgcode.obj
 0001:00039eb0       ??0SecurityTokenKeyfile@CipherShed@@QAE@ABU01@@Z 0043aeb0 f i Dlgcode.obj
 0001:00039f60       ?_Incsize@?$list@USecurityTokenInfo@CipherShed@@V?$allocator@USecurityTokenInfo@CipherShed@@@std@@@std@@IAEXI@Z 0043af60 f i Dlgcode.obj
 0001:0003a000       ?ToUpperCase@@YA?AV?$basic_string@DU?$char_traits@D@std@@V?$allocator@D@2@@std@@ABV12@@Z 0043b000 f   Dlgcode.obj
 0001:0003a160       ?GetWrongPasswordErrorMessage@@YA?AV?$basic_string@_WU?$char_traits@_W@std@@V?$allocator@_W@2@@std@@PAUHWND__@@@Z 0043b160 f   Dlgcode.obj
 0001:0003a260       _handleError               0043b260 f   Dlgcode.obj
 0001:0003a6a0       _CipherTestDialogProc@16   0043b6a0 f   Dlgcode.obj
 0001:0003b1d0       ?GetServiceConfigPath@@YA?AV?$basic_string@DU?$char_traits@D@std@@V?$allocator@D@2@@std@@PBD@Z 0043c1d0 f   Dlgcode.obj
 0001:0003b320       _IsPagingFileActive        0043c320 f   Dlgcode.obj
 0001:0003b5b0       ?SingleStringToWide@@YA?AV?$basic_string@_WU?$char_traits@_W@std@@V?$allocator@_W@2@@std@@ABV?$basic_string@DU?$char_traits@D@std@@V?$allocator@D@2@@2@@Z 0043c5b0 f   Dlgcode.obj
 0001:0003b690       ?Utf8StringToWide@@YA?AV?$basic_string@_WU?$char_traits@_W@std@@V?$allocator@_W@2@@std@@ABV?$basic_string@DU?$char_traits@D@std@@V?$allocator@D@2@@2@@Z 0043c690 f   Dlgcode.obj
 0001:0003b770       ?WideToUtf8String@@YA?AV?$basic_string@DU?$char_traits@D@std@@V?$allocator@D@2@@std@@ABV?$basic_string@_WU?$char_traits@_W@std@@V?$allocator@_W@2@@2@@Z 0043c770 f   Dlgcode.obj
 0001:0003b850       ?WideToSingleString@@YA?AV?$basic_string@DU?$char_traits@D@std@@V?$allocator@D@2@@std@@ABV?$basic_string@_WU?$char_traits@_W@std@@V?$allocator@_W@2@@2@@Z 0043c850 f   Dlgcode.obj
 0001:0003b930       _SecurityTokenPasswordDlgProc@16 0043c930 f   Dlgcode.obj
 0001:0003bbe0       _InitSecurityTokenLibrary  0043cbe0 f   Dlgcode.obj
 0001:0003bd90       _LaunchWindowsIsoBurner    0043cd90 f   Dlgcode.obj
 0001:0003bea0       ?HarddiskVolumePathToPartitionPath@@YA?AV?$basic_string@DU?$char_traits@D@std@@V?$allocator@D@2@@std@@ABV12@@Z 0043cea0 f   Dlgcode.obj
 0001:0003c0d0       ?_Buy@?$vector@USecurityTokenKeyfile@CipherShed@@V?$allocator@USecurityTokenKeyfile@CipherShed@@@std@@@std@@IAE_NI@Z 0043d0d0 f i Dlgcode.obj
 0001:0003c120       ?_Buy@?$vector@EV?$allocator@E@std@@@std@@IAE_NI@Z 0043d120 f i Dlgcode.obj
 0001:0003c170       ?erase@?$_Tree@V?$_Tmap_traits@HUHostDevice@@U?$less@H@std@@V?$allocator@U?$pair@$$CBHUHostDevice@@@std@@@3@$0A@@std@@@std@@QAE?AViterator@12@Vconst_iterator@12@@Z 0043d170 f i Dlgcode.obj
 0001:0003c4d0       ??$_Construct@USecurityTokenKeyfile@CipherShed@@U12@@std@@YAXPAUSecurityTokenKeyfile@CipherShed@@ABU12@@Z 0043d4d0 f i Dlgcode.obj
 0001:0003c530       ??$_Destroy_range@V?$allocator@USecurityTokenKeyfile@CipherShed@@@std@@@std@@YAXPAUSecurityTokenKeyfile@CipherShed@@0AAV?$allocator@USecurityTokenKeyfile@CipherShed@@@0@U_Nonscalar_ptr_iterator_tag@0@@Z 0043d530 f i Dlgcode.obj
 0001:0003c5e0       ??$_Insert@V?$_Const_iterator@$00@?$list@KV?$allocator@K@std@@@std@@@?$list@KV?$allocator@K@std@@@std@@QAEXV?$_Const_iterator@$00@01@00Uforward_iterator_tag@1@@Z 0043d5e0 f i Dlgcode.obj
 0001:0003c740       ??4SecurityTokenKeyfile@CipherShed@@QAEAAU01@ABU01@@Z 0043d740 f i Dlgcode.obj
 0001:0003c7b0       ?erase@?$list@USecurityTokenInfo@CipherShed@@V?$allocator@USecurityTokenInfo@CipherShed@@@std@@@std@@QAE?AV?$_Iterator@$00@12@V?$_Const_iterator@$00@12@@Z 0043d7b0 f i Dlgcode.obj
 0001:0003c840       ?_Buynode@?$list@USecurityTokenInfo@CipherShed@@V?$allocator@USecurityTokenInfo@CipherShed@@@std@@@std@@IAEPAU_Node@?$_List_nod@USecurityTokenInfo@CipherShed@@V?$allocator@USecurityTokenInfo@CipherShed@@@std@@@2@PAU342@0ABUSecurityTokenInfo@CipherShed@@@Z 0043d840 f i Dlgcode.obj
 0001:0003c8e0       ?GetSysEncryptionPretestInfo2String@@YA?AV?$basic_string@_WU?$char_traits@_W@std@@V?$allocator@_W@2@@std@@XZ 0043d8e0 f   Dlgcode.obj
 0001:0003ca60       ?GetRescueDiskHelpString@@YA?AV?$basic_string@_WU?$char_traits@_W@std@@V?$allocator@_W@2@@std@@XZ 0043da60 f   Dlgcode.obj
 0001:0003cd60       ?GetDecoyOsInstructionsString@@YA?AV?$basic_string@_WU?$char_traits@_W@std@@V?$allocator@_W@2@@std@@XZ 0043dd60 f   Dlgcode.obj
 0001:0003d360       _TextInfoDialogBoxDlgProc@16 0043e360 f   Dlgcode.obj
 0001:0003d860       ?VolumeGuidPathToDevicePath@@YA?AV?$basic_string@DU?$char_traits@D@std@@V?$allocator@D@2@@std@@V12@@Z 0043e860 f   Dlgcode.obj
 0001:0003db00       ?push_back@?$list@KV?$allocator@K@std@@@std@@QAEXABK@Z 0043eb00 f i Dlgcode.obj
 0001:0003db40       ??0?$vector@KV?$allocator@K@std@@@std@@QAE@XZ 0043eb40 f i SecurityToken.obj
 0001:0003db40       ??0?$vector@UHostDevice@@V?$allocator@UHostDevice@@@std@@@std@@QAE@XZ 0043eb40 f i Tcformat.obj
 0001:0003db40       ??0?$vector@USecurityTokenKeyfile@CipherShed@@V?$allocator@USecurityTokenKeyfile@CipherShed@@@std@@@std@@QAE@XZ 0043eb40 f i Dlgcode.obj
 0001:0003db40       ??0?$vector@EV?$allocator@E@std@@@std@@QAE@XZ 0043eb40 f i Dlgcode.obj
 0001:0003dba0       ?_Erase@?$_Tree@V?$_Tmap_traits@HUHostDevice@@U?$less@H@std@@V?$allocator@U?$pair@$$CBHUHostDevice@@@std@@@3@$0A@@std@@@std@@IAEXPAU_Node@?$_Tree_nod@V?$_Tmap_traits@HUHostDevice@@U?$less@H@std@@V?$allocator@U?$pair@$$CBHUHostDevice@@@std@@@3@$0A@@std@@@2@@Z 0043eba0 f i Dlgcode.obj
 0001:0003dbf0       ?_Construct_n@?$vector@EV?$allocator@E@std@@@std@@QAEXIABE@Z 0043ebf0 f i Dlgcode.obj
 0001:0003dc50       ?clear@?$list@USecurityTokenInfo@CipherShed@@V?$allocator@USecurityTokenInfo@CipherShed@@@std@@@std@@QAEXXZ 0043ec50 f i Dlgcode.obj
 0001:0003dcd0       ?_Buynode@?$list@USecurityTokenKeyfilePath@CipherShed@@V?$allocator@USecurityTokenKeyfilePath@CipherShed@@@std@@@std@@IAEPAU_Node@?$_List_nod@USecurityTokenKeyfilePath@CipherShed@@V?$allocator@USecurityTokenKeyfilePath@CipherShed@@@std@@@2@PAU342@0ABUSecurityTokenKeyfilePath@CipherShed@@@Z 0043ecd0 f i Dlgcode.obj
 0001:0003dd70       ?erase@?$list@USecurityTokenKeyfile@CipherShed@@V?$allocator@USecurityTokenKeyfile@CipherShed@@@std@@@std@@QAE?AV?$_Iterator@$00@12@V?$_Const_iterator@$00@12@@Z 0043ed70 f i Dlgcode.obj
 0001:0003de00       ??$_Copy_opt@PAUSecurityTokenKeyfile@CipherShed@@PAU12@Uforward_iterator_tag@std@@@std@@YAPAUSecurityTokenKeyfile@CipherShed@@PAU12@00Uforward_iterator_tag@0@U_Nonscalar_ptr_iterator_tag@0@U_Range_checked_iterator_tag@0@@Z 0043ee00 f i Dlgcode.obj
 0001:0003de90       ??$_Uninit_copy@PBUSecurityTokenKeyfile@CipherShed@@PAU12@V?$allocator@USecurityTokenKeyfile@CipherShed@@@std@@@std@@YAPAUSecurityTokenKeyfile@CipherShed@@PBU12@0PAU12@AAV?$allocator@USecurityTokenKeyfile@CipherShed@@@0@U_Nonscalar_ptr_iterator_tag@0@U_Range_checked_iterator_tag@0@@Z 0043ee90 f i Dlgcode.obj
 0001:0003de90       ??$_Uninit_copy@PAUSecurityTokenKeyfile@CipherShed@@PAU12@V?$allocator@USecurityTokenKeyfile@CipherShed@@@std@@@std@@YAPAUSecurityTokenKeyfile@CipherShed@@PAU12@00AAV?$allocator@USecurityTokenKeyfile@CipherShed@@@0@U_Nonscalar_ptr_iterator_tag@0@U_Range_checked_iterator_tag@0@@Z 0043ee90 f i Dlgcode.obj
 0001:0003df30       ??0HostDevice@@QAE@XZ      0043ef30 f i Dlgcode.obj
 0001:0003dfd0       _TextInfoDialogBox         0043efd0 f   Dlgcode.obj
 0001:0003e000       _IsMountedVolume           0043f000 f   Dlgcode.obj
 0001:0003e1c0       ??0?$vector@EV?$allocator@E@std@@@std@@QAE@I@Z 0043f1c0 f i Dlgcode.obj
 0001:0003e230       ?_Tidy@?$list@USecurityTokenInfo@CipherShed@@V?$allocator@USecurityTokenInfo@CipherShed@@@std@@@std@@IAEXXZ 0043f230 f i Dlgcode.obj
 0001:0003e250       ?_Destroy@?$vector@USecurityTokenKeyfile@CipherShed@@V?$allocator@USecurityTokenKeyfile@CipherShed@@@std@@@std@@IAEXPAUSecurityTokenKeyfile@CipherShed@@0@Z 0043f250 f i Dlgcode.obj
 0001:0003e270       ?_Tidy@?$vector@USecurityTokenKeyfile@CipherShed@@V?$allocator@USecurityTokenKeyfile@CipherShed@@@std@@@std@@IAEXXZ 0043f270 f i Dlgcode.obj
 0001:0003e2c0       ?erase@?$_Tree@V?$_Tmap_traits@HUHostDevice@@U?$less@H@std@@V?$allocator@U?$pair@$$CBHUHostDevice@@@std@@@3@$0A@@std@@@std@@QAE?AViterator@12@Vconst_iterator@12@0@Z 0043f2c0 f i Dlgcode.obj
 0001:0003e3a0       ?clear@?$list@USecurityTokenKeyfile@CipherShed@@V?$allocator@USecurityTokenKeyfile@CipherShed@@@std@@@std@@QAEXXZ 0043f3a0 f i Dlgcode.obj
 0001:0003e470       ?_Buynode@?$list@USecurityTokenKeyfile@CipherShed@@V?$allocator@USecurityTokenKeyfile@CipherShed@@@std@@@std@@IAEPAU_Node@?$_List_nod@USecurityTokenKeyfile@CipherShed@@V?$allocator@USecurityTokenKeyfile@CipherShed@@@std@@@2@PAU342@0ABUSecurityTokenKeyfile@CipherShed@@@Z 0043f470 f i Dlgcode.obj
 0001:0003e510       ??0?$list@KV?$allocator@K@std@@@std@@QAE@ABV01@@Z 0043f510 f i Dlgcode.obj
 0001:0003e5c0       ??$_Insert@V?$_Const_iterator@$00@?$list@USecurityTokenInfo@CipherShed@@V?$allocator@USecurityTokenInfo@CipherShed@@@std@@@std@@@?$list@USecurityTokenInfo@CipherShed@@V?$allocator@USecurityTokenInfo@CipherShed@@@std@@@std@@QAEXV?$_Const_iterator@$00@01@00Uforward_iterator_tag@1@@Z 0043f5c0 f i Dlgcode.obj
 0001:0003e720       _MountVolume               0043f720 f   Dlgcode.obj
 0001:0003f2e0       ??1?$list@USecurityTokenInfo@CipherShed@@V?$allocator@USecurityTokenInfo@CipherShed@@@std@@@std@@QAE@XZ 004402e0 f i Dlgcode.obj
 0001:0003f310       ??1?$vector@USecurityTokenKeyfile@CipherShed@@V?$allocator@USecurityTokenKeyfile@CipherShed@@@std@@@std@@QAE@XZ 00440310 f i Dlgcode.obj
 0001:0003f360       ?_Tidy@?$list@USecurityTokenKeyfile@CipherShed@@V?$allocator@USecurityTokenKeyfile@CipherShed@@@std@@@std@@IAEXXZ 00440360 f i Dlgcode.obj
 0001:0003f380       ??$?6_WU?$char_traits@_W@std@@V?$allocator@_W@1@@std@@YAAAV?$basic_ostream@_WU?$char_traits@_W@std@@@0@AAV10@ABV?$basic_string@_WU?$char_traits@_W@std@@V?$allocator@_W@2@@0@@Z 00440380 f i Dlgcode.obj
 0001:0003f610       ??$unchecked_copy@PAUSecurityTokenKeyfile@CipherShed@@PAU12@@stdext@@YAPAUSecurityTokenKeyfile@CipherShed@@PAU12@00@Z 00440610 f i Dlgcode.obj
 0001:0003f660       ??$_Umove@PAUSecurityTokenKeyfile@CipherShed@@@?$vector@USecurityTokenKeyfile@CipherShed@@V?$allocator@USecurityTokenKeyfile@CipherShed@@@std@@@std@@IAEPAUSecurityTokenKeyfile@CipherShed@@PAU23@00@Z 00440660 f i SecurityToken.obj
 0001:0003f660       ??$_Ucopy@PAUSecurityTokenKeyfile@CipherShed@@@?$vector@USecurityTokenKeyfile@CipherShed@@V?$allocator@USecurityTokenKeyfile@CipherShed@@@std@@@std@@IAEPAUSecurityTokenKeyfile@CipherShed@@PAU23@00@Z 00440660 f i Dlgcode.obj
 0001:0003f690       ??0?$ContainerForward@V?$list@KV?$allocator@K@std@@@std@@@ForEach@CipherShed@@QAE@ABV?$list@KV?$allocator@K@std@@@std@@@Z 00440690 f i Dlgcode.obj
 0001:0003f720       ??_G?$ContainerForward@V?$list@KV?$allocator@K@std@@@std@@@ForEach@CipherShed@@UAEPAXI@Z 00440720 f i Dlgcode.obj
 0001:0003f720       ??_E?$ContainerForward@V?$list@KV?$allocator@K@std@@@std@@@ForEach@CipherShed@@UAEPAXI@Z 00440720 f i Dlgcode.obj
 0001:0003f760       ??$_Insert@V?$_Const_iterator@$00@?$list@USecurityTokenKeyfile@CipherShed@@V?$allocator@USecurityTokenKeyfile@CipherShed@@@std@@@std@@@?$list@USecurityTokenKeyfile@CipherShed@@V?$allocator@USecurityTokenKeyfile@CipherShed@@@std@@@std@@QAEXV?$_Const_iterator@$00@01@00Uforward_iterator_tag@1@@Z 00440760 f i Dlgcode.obj
 0001:0003f8c0       ??1?$ContainerForward@V?$list@USecurityTokenInfo@CipherShed@@V?$allocator@USecurityTokenInfo@CipherShed@@@std@@@std@@@ForEach@CipherShed@@UAE@XZ 004408c0 f i Dlgcode.obj
 0001:0003f900       ??1?$ContainerForward@V?$vector@USecurityTokenKeyfile@CipherShed@@V?$allocator@USecurityTokenKeyfile@CipherShed@@@std@@@std@@@ForEach@CipherShed@@UAE@XZ 00440900 f i Dlgcode.obj
 0001:0003f920       ??6?$basic_ostream@DU?$char_traits@D@std@@@std@@QAEAAV01@K@Z 00440920 f i Dlgcode.obj
 0001:0003fa70       ??6?$basic_ostream@DU?$char_traits@D@std@@@std@@QAEAAV01@_K@Z 00440a70 f i Dlgcode.obj
 0001:0003fbc0       ??6?$basic_ostream@_WU?$char_traits@_W@std@@@std@@QAEAAV01@K@Z 00440bc0 f i Dlgcode.obj
 0001:0003fd10       ??1?$_Tree@V?$_Tmap_traits@HUHostDevice@@U?$less@H@std@@V?$allocator@U?$pair@$$CBHUHostDevice@@@std@@@3@$0A@@std@@@std@@QAE@XZ 00440d10 f i Dlgcode.obj
 0001:0003fd90       ??1?$list@USecurityTokenKeyfile@CipherShed@@V?$allocator@USecurityTokenKeyfile@CipherShed@@@std@@@std@@QAE@XZ 00440d90 f i Dlgcode.obj
 0001:0003fdc0       ?erase@?$vector@USecurityTokenKeyfile@CipherShed@@V?$allocator@USecurityTokenKeyfile@CipherShed@@@std@@@std@@QAE?AV?$_Vector_iterator@USecurityTokenKeyfile@CipherShed@@V?$allocator@USecurityTokenKeyfile@CipherShed@@@std@@@2@V?$_Vector_const_iterator@USecurityTokenKeyfile@CipherShed@@V?$allocator@USecurityTokenKeyfile@CipherShed@@@std@@@2@0@Z 00440dc0 f i Dlgcode.obj
 0001:0003fe50       ??$GetContainerForward@V?$list@KV?$allocator@K@std@@@std@@@ForEach@CipherShed@@SA?AU?$ContainerForward@V?$list@KV?$allocator@K@std@@@std@@@01@ABV?$list@KV?$allocator@K@std@@@std@@@Z 00440e50 f i Dlgcode.obj
 0001:0003fe70       ??0?$list@USecurityTokenInfo@CipherShed@@V?$allocator@USecurityTokenInfo@CipherShed@@@std@@@std@@QAE@ABV01@@Z 00440e70 f i Dlgcode.obj
 0001:0003ff20       ??0?$vector@USecurityTokenKeyfile@CipherShed@@V?$allocator@USecurityTokenKeyfile@CipherShed@@@std@@@std@@QAE@ABV01@@Z 00440f20 f i Dlgcode.obj
 0001:00040020       ?GetWindowsEdition@@YA?AV?$basic_string@DU?$char_traits@D@std@@V?$allocator@D@2@@std@@XZ 00441020 f   Dlgcode.obj
 0001:00040530       _Applink                   00441530 f   Dlgcode.obj
 0001:00040690       ??1?$ContainerForward@V?$list@USecurityTokenKeyfile@CipherShed@@V?$allocator@USecurityTokenKeyfile@CipherShed@@@std@@@std@@@ForEach@CipherShed@@UAE@XZ 00441690 f i Dlgcode.obj
 0001:000406d0       ?clear@?$vector@USecurityTokenKeyfile@CipherShed@@V?$allocator@USecurityTokenKeyfile@CipherShed@@@std@@@std@@QAEXXZ 004416d0 f i Dlgcode.obj
 0001:00040710       ??0?$list@USecurityTokenKeyfile@CipherShed@@V?$allocator@USecurityTokenKeyfile@CipherShed@@@std@@@std@@QAE@ABV01@@Z 00441710 f i Dlgcode.obj
 0001:000407c0       ?_Buynode@?$_Tree@V?$_Tmap_traits@HUHostDevice@@U?$less@H@std@@V?$allocator@U?$pair@$$CBHUHostDevice@@@std@@@3@$0A@@std@@@std@@IAEPAU_Node@?$_Tree_nod@V?$_Tmap_traits@HUHostDevice@@U?$less@H@std@@V?$allocator@U?$pair@$$CBHUHostDevice@@@std@@@3@$0A@@std@@@2@PAU342@00ABU?$pair@$$CBHUHostDevice@@@2@D@Z 004417c0 f i Dlgcode.obj
 0001:00040870       ??0?$ContainerForward@V?$list@USecurityTokenInfo@CipherShed@@V?$allocator@USecurityTokenInfo@CipherShed@@@std@@@std@@@ForEach@CipherShed@@QAE@ABV?$list@USecurityTokenInfo@CipherShed@@V?$allocator@USecurityTokenInfo@CipherShed@@@std@@@std@@@Z 00441870 f i Dlgcode.obj
 0001:00040900       ?IsNotEnd@?$ContainerForward@V?$list@USecurityTokenKeyfilePath@CipherShed@@V?$allocator@USecurityTokenKeyfilePath@CipherShed@@@std@@@std@@@ForEach@CipherShed@@UBE_NXZ 00441900 f i Keyfiles.obj
 0001:00040900       ?IsNotEnd@?$ContainerForward@V?$list@UPartition@CipherShed@@V?$allocator@UPartition@CipherShed@@@std@@@std@@@ForEach@CipherShed@@UBE_NXZ 00441900 f i BootEncryption.obj
 0001:00040900       ?IsNotEnd@?$ContainerForward@V?$list@USecurityTokenInfo@CipherShed@@V?$allocator@USecurityTokenInfo@CipherShed@@@std@@@std@@@ForEach@CipherShed@@UBE_NXZ 00441900 f i Dlgcode.obj
 0001:00040900       ?IsNotEnd@?$ContainerForward@V?$list@KV?$allocator@K@std@@@std@@@ForEach@CipherShed@@UBE_NXZ 00441900 f i Dlgcode.obj
 0001:00040900       ?IsNotEnd@?$ContainerForward@V?$list@USecurityTokenKeyfile@CipherShed@@V?$allocator@USecurityTokenKeyfile@CipherShed@@@std@@@std@@@ForEach@CipherShed@@UBE_NXZ 00441900 f i Dlgcode.obj
 0001:00040940       ??_E?$ContainerForward@V?$list@USecurityTokenInfo@CipherShed@@V?$allocator@USecurityTokenInfo@CipherShed@@@std@@@std@@@ForEach@CipherShed@@UAEPAXI@Z 00441940 f i Dlgcode.obj
 0001:00040940       ??_G?$ContainerForward@V?$list@USecurityTokenInfo@CipherShed@@V?$allocator@USecurityTokenInfo@CipherShed@@@std@@@std@@@ForEach@CipherShed@@UAEPAXI@Z 00441940 f i Dlgcode.obj
 0001:00040990       ??0?$ContainerForward@V?$vector@USecurityTokenKeyfile@CipherShed@@V?$allocator@USecurityTokenKeyfile@CipherShed@@@std@@@std@@@ForEach@CipherShed@@QAE@ABV?$vector@USecurityTokenKeyfile@CipherShed@@V?$allocator@USecurityTokenKeyfile@CipherShed@@@std@@@std@@@Z 00441990 f i Dlgcode.obj
 0001:00040a30       ?Next@?$ContainerForward@V?$vector@USecurityTokenKeyfile@CipherShed@@V?$allocator@USecurityTokenKeyfile@CipherShed@@@std@@@std@@@ForEach@CipherShed@@UBEXXZ 00441a30 f i Dlgcode.obj
 0001:00040a60       ??_G?$ContainerForward@V?$vector@USecurityTokenKeyfile@CipherShed@@V?$allocator@USecurityTokenKeyfile@CipherShed@@@std@@@std@@@ForEach@CipherShed@@UAEPAXI@Z 00441a60 f i Dlgcode.obj
 0001:00040a60       ??_E?$ContainerForward@V?$vector@USecurityTokenKeyfile@CipherShed@@V?$allocator@USecurityTokenKeyfile@CipherShed@@@std@@@std@@@ForEach@CipherShed@@UAEPAXI@Z 00441a60 f i Dlgcode.obj
 0001:00040a90       ??0?$ContainerForward@V?$list@USecurityTokenKeyfile@CipherShed@@V?$allocator@USecurityTokenKeyfile@CipherShed@@@std@@@std@@@ForEach@CipherShed@@QAE@ABV?$list@USecurityTokenKeyfile@CipherShed@@V?$allocator@USecurityTokenKeyfile@CipherShed@@@std@@@std@@@Z 00441a90 f i Dlgcode.obj
 0001:00040b20       ??_G?$ContainerForward@V?$list@USecurityTokenKeyfile@CipherShed@@V?$allocator@USecurityTokenKeyfile@CipherShed@@@std@@@std@@@ForEach@CipherShed@@UAEPAXI@Z 00441b20 f i Dlgcode.obj
 0001:00040b20       ??_E?$ContainerForward@V?$list@USecurityTokenKeyfile@CipherShed@@V?$allocator@USecurityTokenKeyfile@CipherShed@@@std@@@std@@@ForEach@CipherShed@@UAEPAXI@Z 00441b20 f i Dlgcode.obj
 0001:00040b70       _AboutDlgProc@16           00441b70 f   Dlgcode.obj
 0001:00040dc0       ?ExceptionHandlerThread@@YAXPAX@Z 00441dc0 f   Dlgcode.obj
 0001:000419b0       ?ExceptionHandler@@YGJPAU_EXCEPTION_POINTERS@@@Z 004429b0 f   Dlgcode.obj
 0001:00041a50       _InitApp                   00442a50 f   Dlgcode.obj
 0001:00042000       _BenchmarkDlgProc@16       00443000 f   Dlgcode.obj
 0001:00042930       ??4?$vector@USecurityTokenKeyfile@CipherShed@@V?$allocator@USecurityTokenKeyfile@CipherShed@@@std@@@std@@QAEAAV01@ABV01@@Z 00443930 f i Dlgcode.obj
 0001:00042a40       ?_Insert@?$_Tree@V?$_Tmap_traits@HUHostDevice@@U?$less@H@std@@V?$allocator@U?$pair@$$CBHUHostDevice@@@std@@@3@$0A@@std@@@std@@IAE?AViterator@12@_NPAU_Node@?$_Tree_nod@V?$_Tmap_traits@HUHostDevice@@U?$less@H@std@@V?$allocator@U?$pair@$$CBHUHostDevice@@@std@@@3@$0A@@std@@@2@ABU?$pair@$$CBHUHostDevice@@@2@@Z 00443a40 f i Dlgcode.obj
 0001:00042c50       ??$GetContainerForward@V?$list@USecurityTokenInfo@CipherShed@@V?$allocator@USecurityTokenInfo@CipherShed@@@std@@@std@@@ForEach@CipherShed@@SA?AU?$ContainerForward@V?$list@USecurityTokenInfo@CipherShed@@V?$allocator@USecurityTokenInfo@CipherShed@@@std@@@std@@@01@ABV?$list@USecurityTokenInfo@CipherShed@@V?$allocator@USecurityTokenInfo@CipherShed@@@std@@@std@@@Z 00443c50 f i Dlgcode.obj
 0001:00042c70       ??$GetContainerForward@V?$vector@USecurityTokenKeyfile@CipherShed@@V?$allocator@USecurityTokenKeyfile@CipherShed@@@std@@@std@@@ForEach@CipherShed@@SA?AU?$ContainerForward@V?$vector@USecurityTokenKeyfile@CipherShed@@V?$allocator@USecurityTokenKeyfile@CipherShed@@@std@@@std@@@01@ABV?$vector@USecurityTokenKeyfile@CipherShed@@V?$allocator@USecurityTokenKeyfile@CipherShed@@@std@@@std@@@Z 00443c70 f i Dlgcode.obj
 0001:00042c90       ??$GetContainerForward@V?$list@USecurityTokenKeyfile@CipherShed@@V?$allocator@USecurityTokenKeyfile@CipherShed@@@std@@@std@@@ForEach@CipherShed@@SA?AU?$ContainerForward@V?$list@USecurityTokenKeyfile@CipherShed@@V?$allocator@USecurityTokenKeyfile@CipherShed@@@std@@@std@@@01@ABV?$list@USecurityTokenKeyfile@CipherShed@@V?$allocator@USecurityTokenKeyfile@CipherShed@@@std@@@std@@@Z 00443c90 f i Dlgcode.obj
 0001:00042cb0       _OpenPageHelp              00443cb0 f   Dlgcode.obj
 0001:00043710       _SecurityTokenKeyfileDlgProc@16 00444710 f   Dlgcode.obj
 0001:00044330       ?insert@?$_Tree@V?$_Tmap_traits@HUHostDevice@@U?$less@H@std@@V?$allocator@U?$pair@$$CBHUHostDevice@@@std@@@3@$0A@@std@@@std@@QAE?AU?$pair@Viterator@?$_Tree@V?$_Tmap_traits@HUHostDevice@@U?$less@H@std@@V?$allocator@U?$pair@$$CBHUHostDevice@@@std@@@3@$0A@@std@@@std@@_N@2@ABU?$pair@$$CBHUHostDevice@@@2@@Z 00445330 f i Dlgcode.obj
 0001:00044430       ?insert@?$_Tree@V?$_Tmap_traits@HUHostDevice@@U?$less@H@std@@V?$allocator@U?$pair@$$CBHUHostDevice@@@std@@@3@$0A@@std@@@std@@QAE?AViterator@12@Vconst_iterator@12@ABU?$pair@$$CBHUHostDevice@@@2@@Z 00445430 f i Dlgcode.obj
 0001:00044610       ??A?$map@HUHostDevice@@U?$less@H@std@@V?$allocator@U?$pair@$$CBHUHostDevice@@@std@@@3@@std@@QAEAAUHostDevice@@ABH@Z 00445610 f i Dlgcode.obj
 0001:00044730       ?GetAvailableHostDevices@@YA?AV?$vector@UHostDevice@@V?$allocator@UHostDevice@@@std@@@std@@_N000@Z 00445730 f   Dlgcode.obj
 0001:00045460       ?GetSysDevicePaths@@YAHPAUHWND__@@@Z 00446460 f   Dlgcode.obj
 0001:00045ad0       _IsSystemDevicePath        00446ad0 f   Dlgcode.obj
 0001:00045c10       _RawDevicesDlgProc@16      00446c10 f   Dlgcode.obj
 0001:00046a30       _EncryptionThreadPoolStop  00447a30 f   EncryptionThreadPool.obj
 0001:00046ae0       _EncryptionThreadPoolBeginKeyDerivation 00447ae0 f   EncryptionThreadPool.obj
 0001:00046be0       _EncryptionThreadPoolDoWork 00447be0 f   EncryptionThreadPool.obj
 0001:00046e10       _GetEncryptionThreadCount  00447e10 f   EncryptionThreadPool.obj
 0001:00046e20       _GetMaxEncryptionThreadCount 00447e20 f   EncryptionThreadPool.obj
 0001:00046e30       _EncryptionThreadPoolStart 00447e30 f   EncryptionThreadPool.obj
 0001:00046f90       _MirrorBytes16             00447f90 f   Endian.obj
 0001:00046fa0       _MirrorBytes32             00447fa0 f   Endian.obj
 0001:00046fd0       _MirrorBytes64             00447fd0 f   Endian.obj
 0001:00047080       _GetFatParams              00448080 f   Fat.obj
 0001:00047350       _PutBoot                   00448350 f   Fat.obj
 0001:00047580       _FormatFat                 00448580 f   Fat.obj
 0001:00047c20       _GetVolumeDataAreaSize     00448c20 f   Format.obj
 0001:00047c70       _FormatExCallback@12       00448c70 f   Format.obj
 0001:00047c90       _FormatNtfs                00448c90 f   Format.obj
 0001:00047fe0       _FlushFormatWriteBuffer    00448fe0 f   Format.obj
 0001:00048110       _WriteSector               00449110 f   Format.obj
 0001:000481c0       _FormatNoFs                004491c0 f   Format.obj
 0001:00048570       _TCFormatVolume            00449570 f   Format.obj
 0001:000492a0       _mul_x                     0044a2a0 f i GfMul.obj
 0001:00049350       _mul_x64                   0044a350 f i GfMul.obj
 0001:000493e0       _compile_8k_table          0044a3e0 f   GfMul.obj
 0001:00049610       _compile_4k_table64        0044a610 f   GfMul.obj
 0001:000497d0       _MirrorBits128             0044a7d0 f   GfMul.obj
 0001:00049970       _MirrorBits64              0044a970 f   GfMul.obj
 0001:00049b00       _Gf128Tab64Init            0044ab00 f   GfMul.obj
 0001:00049c60       _Gf64TabInit               0044ac60 f   GfMul.obj
 0001:00049db0       _Gf128MulBy64Tab           0044adb0 f   GfMul.obj
 0001:00049fe0       _Gf64MulTab                0044afe0 f   GfMul.obj
 0001:0004a1b0       _KeyFileAdd                0044b1b0 f   Keyfiles.obj
 0001:0004a280       _KeyFileRemoveAll          0044b280 f   Keyfiles.obj
 0001:0004a2e0       _KeyFileClone              0044b2e0 f   Keyfiles.obj
 0001:0004a320       _KeyFileCloneAll           0044b320 f   Keyfiles.obj
 0001:0004a690       ?_Buynode@?$list@USecurityTokenKeyfilePath@CipherShed@@V?$allocator@USecurityTokenKeyfilePath@CipherShed@@@std@@@std@@IAEPAU_Node@?$_List_nod@USecurityTokenKeyfilePath@CipherShed@@V?$allocator@USecurityTokenKeyfilePath@CipherShed@@@std@@@2@XZ 0044b690 f i Keyfiles.obj
 0001:0004a6b0       ??0?$list@USecurityTokenKeyfilePath@CipherShed@@V?$allocator@USecurityTokenKeyfilePath@CipherShed@@@std@@@std@@QAE@XZ 0044b6b0 f i Keyfiles.obj
 0001:0004a720       ??BSecurityTokenKeyfilePath@CipherShed@@QBE?AV?$basic_string@_WU?$char_traits@_W@std@@V?$allocator@_W@2@@std@@XZ 0044b720 f i Keyfiles.obj
 0001:0004a750       ?erase@?$list@USecurityTokenKeyfilePath@CipherShed@@V?$allocator@USecurityTokenKeyfilePath@CipherShed@@@std@@@std@@QAE?AV?$_Iterator@$00@12@V?$_Const_iterator@$00@12@@Z 0044b750 f i Keyfiles.obj
 0001:0004a7f0       ?clear@?$list@USecurityTokenKeyfilePath@CipherShed@@V?$allocator@USecurityTokenKeyfilePath@CipherShed@@@std@@@std@@QAEXXZ 0044b7f0 f i Keyfiles.obj
 0001:0004a850       _KeyFilesApply             0044b850 f   Keyfiles.obj
 0001:0004afb0       ?_Tidy@?$list@USecurityTokenKeyfilePath@CipherShed@@V?$allocator@USecurityTokenKeyfilePath@CipherShed@@@std@@@std@@IAEXXZ 0044bfb0 f i Keyfiles.obj
 0001:0004afd0       ??$_Insert@V?$_Const_iterator@$00@?$list@USecurityTokenKeyfilePath@CipherShed@@V?$allocator@USecurityTokenKeyfilePath@CipherShed@@@std@@@std@@@?$list@USecurityTokenKeyfilePath@CipherShed@@V?$allocator@USecurityTokenKeyfilePath@CipherShed@@@std@@@std@@QAEXV?$_Const_iterator@$00@01@00Uforward_iterator_tag@1@@Z 0044bfd0 f i Keyfiles.obj
 0001:0004b130       ??1?$ContainerForward@V?$list@USecurityTokenKeyfilePath@CipherShed@@V?$allocator@USecurityTokenKeyfilePath@CipherShed@@@std@@@std@@@ForEach@CipherShed@@UAE@XZ 0044c130 f i Keyfiles.obj
 0001:0004b170       ??0?$list@USecurityTokenKeyfilePath@CipherShed@@V?$allocator@USecurityTokenKeyfilePath@CipherShed@@@std@@@std@@QAE@ABV01@@Z 0044c170 f i Keyfiles.obj
 0001:0004b220       ??0?$ContainerForward@V?$list@USecurityTokenKeyfilePath@CipherShed@@V?$allocator@USecurityTokenKeyfilePath@CipherShed@@@std@@@std@@@ForEach@CipherShed@@QAE@ABV?$list@USecurityTokenKeyfilePath@CipherShed@@V?$allocator@USecurityTokenKeyfilePath@CipherShed@@@std@@@std@@@Z 0044c220 f i Keyfiles.obj
 0001:0004b2b0       ?Next@?$ContainerForward@V?$list@USecurityTokenKeyfilePath@CipherShed@@V?$allocator@USecurityTokenKeyfilePath@CipherShed@@@std@@@std@@@ForEach@CipherShed@@UBEXXZ 0044c2b0 f i Keyfiles.obj
 0001:0004b2b0       ?Next@?$ContainerForward@V?$list@UPartition@CipherShed@@V?$allocator@UPartition@CipherShed@@@std@@@std@@@ForEach@CipherShed@@UBEXXZ 0044c2b0 f i BootEncryption.obj
 0001:0004b2b0       ?Next@?$ContainerForward@V?$list@USecurityTokenInfo@CipherShed@@V?$allocator@USecurityTokenInfo@CipherShed@@@std@@@std@@@ForEach@CipherShed@@UBEXXZ 0044c2b0 f i Dlgcode.obj
 0001:0004b2b0       ?Next@?$ContainerForward@V?$list@USecurityTokenKeyfile@CipherShed@@V?$allocator@USecurityTokenKeyfile@CipherShed@@@std@@@std@@@ForEach@CipherShed@@UBEXXZ 0044c2b0 f i Dlgcode.obj
 0001:0004b2b0       ?Next@?$ContainerForward@V?$list@KV?$allocator@K@std@@@std@@@ForEach@CipherShed@@UBEXXZ 0044c2b0 f i Dlgcode.obj
 0001:0004b2f0       ??_E?$ContainerForward@V?$list@USecurityTokenKeyfilePath@CipherShed@@V?$allocator@USecurityTokenKeyfilePath@CipherShed@@@std@@@std@@@ForEach@CipherShed@@UAEPAXI@Z 0044c2f0 f i Keyfiles.obj
 0001:0004b2f0       ??_G?$ContainerForward@V?$list@USecurityTokenKeyfilePath@CipherShed@@V?$allocator@USecurityTokenKeyfilePath@CipherShed@@@std@@@std@@@ForEach@CipherShed@@UAEPAXI@Z 0044c2f0 f i Keyfiles.obj
 0001:0004b340       ??$GetContainerForward@V?$list@USecurityTokenKeyfilePath@CipherShed@@V?$allocator@USecurityTokenKeyfilePath@CipherShed@@@std@@@std@@@ForEach@CipherShed@@SA?AU?$ContainerForward@V?$list@USecurityTokenKeyfilePath@CipherShed@@V?$allocator@USecurityTokenKeyfilePath@CipherShed@@@std@@@std@@@01@ABV?$list@USecurityTokenKeyfilePath@CipherShed@@V?$allocator@USecurityTokenKeyfilePath@CipherShed@@@std@@@std@@@Z 0044c340 f i Keyfiles.obj
 0001:0004b360       _KeyFilesDlgProc@16        0044c360 f   Keyfiles.obj
 0001:0004bc90       _GetPreferredLangId        0044cc90 f   Language.obj
 0001:0004bca0       _SetPreferredLangId        0044cca0 f   Language.obj
 0001:0004bcc0       _GetActiveLangPackVersion  0044ccc0 f   Language.obj
 0001:0004bcd0       _GetString                 0044ccd0 f   Language.obj
 0001:0004bd10       _GetFont                   0044cd10 f   Language.obj
 0001:0004bd20       _LoadLanguageFile          0044cd20 f   Language.obj
 0001:0004c5a0       _LanguageDlgProc@16        0044d5a0 f   Language.obj
 0001:0004cae0       _CheckPasswordCharEncoding 0044dae0 f   Password.obj
 0001:0004cbe0       _strcmpw                   0044dbe0 f   Password.obj
 0001:0004cc40       _VerifyPasswordAndUpdate2  0044dc40 f   Password.obj
 0001:0004ce10       _CheckPasswordLength       0044de10 f   Password.obj
 0001:0004ce60       _hmac_sha512               0044de60 f   Pkcs5.obj
 0001:0004d190       _derive_u_sha512           0044e190 f   Pkcs5.obj
 0001:0004d2e0       _derive_key_sha512         0044e2e0 f   Pkcs5.obj
 0001:0004d410       _hmac_sha1                 0044e410 f   Pkcs5.obj
 0001:0004d730       _derive_u_sha1             0044e730 f   Pkcs5.obj
 0001:0004d880       _derive_key_sha1           0044e880 f   Pkcs5.obj
 0001:0004d9a0       _hmac_ripemd160            0044e9a0 f   Pkcs5.obj
 0001:0004dbd0       _derive_u_ripemd160        0044ebd0 f   Pkcs5.obj
 0001:0004dd20       _derive_key_ripemd160      0044ed20 f   Pkcs5.obj
 0001:0004de40       _hmac_whirlpool            0044ee40 f   Pkcs5.obj
 0001:0004e170       _derive_u_whirlpool        0044f170 f   Pkcs5.obj
 0001:0004e2c0       _derive_key_whirlpool      0044f2c0 f   Pkcs5.obj
 0001:0004e3f0       _get_pkcs5_iteration_count 0044f3f0 f   Pkcs5.obj
 0001:0004e440       _InitProgressBar           0044f440 f   Progress.obj
 0001:0004e520       _UpdateProgressBarProc     0044f520 f   Progress.obj
 0001:0004ea30       _UpdateProgressBar         0044fa30 f   Progress.obj
 0001:0004ea50       _RandStop                  0044fa50 f   Random.obj
 0001:0004eb70       _IsRandomNumberGeneratorStarted 0044fb70 f   Random.obj
 0001:0004eb80       _RandSetHashFunction       0044fb80 f   Random.obj
 0001:0004ebb0       _RandGetHashFunction       0044fbb0 f   Random.obj
 0001:0004ebc0       _SetRandomPoolEnrichedByUserStatus 0044fbc0 f   Random.obj
 0001:0004ebd0       _IsRandomPoolEnrichedByUser 0044fbd0 f   Random.obj
 0001:0004ebe0       _Randmix                   0044fbe0 f   Random.obj
 0001:0004ee40       _RandaddBuf                0044fe40 f   Random.obj
 0001:0004eeb0       _RandpeekBytes             0044feb0 f   Random.obj
 0001:0004ef10       _SlowPoll                  0044ff10 f   Random.obj
 0001:0004f1c0       _RandAddInt                004501c0 f   Random.obj
 0001:0004f2c0       _MouseProc@12              004502c0 f   Random.obj
 0001:0004f490       _KeyboardProc@12           00450490 f   Random.obj
 0001:0004f620       _FastPoll                  00450620 f   Random.obj
 0001:0004f920       _RandgetBytes              00450920 f   Random.obj
 0001:0004fab0       _Randinit                  00450ab0 f   Random.obj
 0001:0004fc10       _ReadLocalMachineRegistryDword 00450c10 f   Registry.obj
 0001:0004fc90       _ReadLocalMachineRegistryMultiString 00450c90 f   Registry.obj
 0001:0004fd10       _ReadLocalMachineRegistryString 00450d10 f   Registry.obj
 0001:0004fd90       _ReadRegistryString        00450d90 f   Registry.obj
 0001:0004fe70       _ReadRegistryBytes         00450e70 f   Registry.obj
 0001:0004fef0       _WriteLocalMachineRegistryDword 00450ef0 f   Registry.obj
 0001:0004ff90       _WriteLocalMachineRegistryMultiString 00450f90 f   Registry.obj
 0001:00050030       _WriteLocalMachineRegistryString 00451030 f   Registry.obj
 0001:000500e0       _WriteRegistryString       004510e0 f   Registry.obj
 0001:00050150       _WriteRegistryBytes        00451150 f   Registry.obj
 0001:000501d0       _DeleteLocalMachineRegistryKey 004511d0 f   Registry.obj
 0001:00050250       _DeleteRegistryValue       00451250 f   Registry.obj
 0001:000502a0       _GetStartupRegKeyName      004512a0 f   Registry.obj
 0001:000502c0       ?Show@InvalidSecurityTokenKeyfilePath@CipherShed@@UBEXPAUHWND__@@@Z 004512c0 f i SecurityToken.obj
 0001:000502d0       ?Show@SecurityTokenKeyfileNotFound@CipherShed@@UBEXPAUHWND__@@@Z 004512d0 f i SecurityToken.obj
 0001:000502e0       ?Show@SecurityTokenLibraryNotInitialized@CipherShed@@UBEXPAUHWND__@@@Z 004512e0 f i SecurityToken.obj
 0001:00050300       ?Show@SecurityTokenKeyfileAlreadyExists@CipherShed@@UBEXPAUHWND__@@@Z 00451300 f i SecurityToken.obj
 0001:00050310       ??8const_iterator@?$_Tree@V?$_Tmap_traits@HPAXU?$less@H@std@@V?$allocator@U?$pair@$$CBHPAX@std@@@2@$0A@@std@@@std@@QBE_NABV012@@Z 00451310 f i Dictionary.obj
 0001:00050310       ??8const_iterator@?$_Tree@V?$_Tmap_traits@HUHostDevice@@U?$less@H@std@@V?$allocator@U?$pair@$$CBHUHostDevice@@@std@@@3@$0A@@std@@@std@@QBE_NABV012@@Z 00451310 f i Dlgcode.obj
 0001:00050310       ??8const_iterator@?$_Tree@V?$_Tmap_traits@V?$basic_string@DU?$char_traits@D@std@@V?$allocator@D@2@@std@@PAXU?$less@V?$basic_string@DU?$char_traits@D@std@@V?$allocator@D@2@@std@@@2@V?$allocator@U?$pair@$$CBV?$basic_string@DU?$char_traits@D@std@@V?$allocator@D@2@@std@@PAX@std@@@2@$0A@@std@@@std@@QBE_NABV012@@Z 00451310 f i Dictionary.obj
 0001:00050310       ??8const_iterator@?$_Tree@V?$_Tmap_traits@KUPkcs11Session@CipherShed@@U?$less@K@std@@V?$allocator@U?$pair@$$CBKUPkcs11Session@CipherShed@@@std@@@4@$0A@@std@@@std@@QBE_NABV012@@Z 00451310 f i SecurityToken.obj
 0001:00050340       ?_Max@?$_Tree@V?$_Tmap_traits@KUPkcs11Session@CipherShed@@U?$less@K@std@@V?$allocator@U?$pair@$$CBKUPkcs11Session@CipherShed@@@std@@@4@$0A@@std@@@std@@KAPAU_Node@?$_Tree_nod@V?$_Tmap_traits@KUPkcs11Session@CipherShed@@U?$less@K@std@@V?$allocator@U?$pair@$$CBKUPkcs11Session@CipherShed@@@std@@@4@$0A@@std@@@2@PAU342@@Z 00451340 f i SecurityToken.obj
 0001:00050360       ?_Min@?$_Tree@V?$_Tmap_traits@KUPkcs11Session@CipherShed@@U?$less@K@std@@V?$allocator@U?$pair@$$CBKUPkcs11Session@CipherShed@@@std@@@4@$0A@@std@@@std@@KAPAU_Node@?$_Tree_nod@V?$_Tmap_traits@KUPkcs11Session@CipherShed@@U?$less@K@std@@V?$allocator@U?$pair@$$CBKUPkcs11Session@CipherShed@@@std@@@4@$0A@@std@@@2@PAU342@@Z 00451360 f i SecurityToken.obj
 0001:00050380       ?_Rrotate@?$_Tree@V?$_Tmap_traits@KUPkcs11Session@CipherShed@@U?$less@K@std@@V?$allocator@U?$pair@$$CBKUPkcs11Session@CipherShed@@@std@@@4@$0A@@std@@@std@@IAEXPAU_Node@?$_Tree_nod@V?$_Tmap_traits@KUPkcs11Session@CipherShed@@U?$less@K@std@@V?$allocator@U?$pair@$$CBKUPkcs11Session@CipherShed@@@std@@@4@$0A@@std@@@2@@Z 00451380 f i SecurityToken.obj
 0001:000503e0       ?_Inc@const_iterator@?$_Tree@V?$_Tmap_traits@KUPkcs11Session@CipherShed@@U?$less@K@std@@V?$allocator@U?$pair@$$CBKUPkcs11Session@CipherShed@@@std@@@4@$0A@@std@@@std@@QAEXXZ 004513e0 f i SecurityToken.obj
 0001:00050450       ?_Dec@const_iterator@?$_Tree@V?$_Tmap_traits@KUPkcs11Session@CipherShed@@U?$less@K@std@@V?$allocator@U?$pair@$$CBKUPkcs11Session@CipherShed@@@std@@@4@$0A@@std@@@std@@QAEXXZ 00451450 f i SecurityToken.obj
 0001:000504e0       ??$_Allocate@K@std@@YAPAKIPAK@Z 004514e0 f i SecurityToken.obj
 0001:00050540       ??0SecurityTokenLibraryNotInitialized@CipherShed@@QAE@ABU01@@Z 00451540 f i SecurityToken.obj
 0001:00050550       ??4?$auto_ptr@USendExceptionFunctor@CipherShed@@@std@@QAEAAV01@AAV01@@Z 00451550 f i SecurityToken.obj
 0001:00050550       ??4?$auto_ptr@UGetPinFunctor@CipherShed@@@std@@QAEAAV01@AAV01@@Z 00451550 f i SecurityToken.obj
 0001:00050580       ?find_last_not_of@?$basic_string@DU?$char_traits@D@std@@V?$allocator@D@2@@std@@QBEIPBDII@Z 00451580 f i SecurityToken.obj
 0001:00050620       ?find@?$basic_string@_WU?$char_traits@_W@std@@V?$allocator@_W@2@@std@@QBEIPB_WII@Z 00451620 f i SecurityToken.obj
 0001:000506f0       ?_Lrotate@?$_Tree@V?$_Tmap_traits@KUPkcs11Session@CipherShed@@U?$less@K@std@@V?$allocator@U?$pair@$$CBKUPkcs11Session@CipherShed@@@std@@@4@$0A@@std@@@std@@IAEXPAU_Node@?$_Tree_nod@V?$_Tmap_traits@KUPkcs11Session@CipherShed@@U?$less@K@std@@V?$allocator@U?$pair@$$CBKUPkcs11Session@CipherShed@@@std@@@4@$0A@@std@@@2@@Z 004516f0 f i SecurityToken.obj
 0001:00050740       ?_Erase@?$_Tree@V?$_Tmap_traits@KUPkcs11Session@CipherShed@@U?$less@K@std@@V?$allocator@U?$pair@$$CBKUPkcs11Session@CipherShed@@@std@@@4@$0A@@std@@@std@@IAEXPAU_Node@?$_Tree_nod@V?$_Tmap_traits@KUPkcs11Session@CipherShed@@U?$less@K@std@@V?$allocator@U?$pair@$$CBKUPkcs11Session@CipherShed@@@std@@@4@$0A@@std@@@2@@Z 00451740 f i SecurityToken.obj
 0001:000507d0       ?_Buynode@?$_Tree@V?$_Tmap_traits@KUPkcs11Session@CipherShed@@U?$less@K@std@@V?$allocator@U?$pair@$$CBKUPkcs11Session@CipherShed@@@std@@@4@$0A@@std@@@std@@IAEPAU_Node@?$_Tree_nod@V?$_Tmap_traits@KUPkcs11Session@CipherShed@@U?$less@K@std@@V?$allocator@U?$pair@$$CBKUPkcs11Session@CipherShed@@@std@@@4@$0A@@std@@@2@XZ 004517d0 f i SecurityToken.obj
 0001:00050810       ?_Buynode@?$_Tree@V?$_Tmap_traits@KUPkcs11Session@CipherShed@@U?$less@K@std@@V?$allocator@U?$pair@$$CBKUPkcs11Session@CipherShed@@@std@@@4@$0A@@std@@@std@@IAEPAU_Node@?$_Tree_nod@V?$_Tmap_traits@KUPkcs11Session@CipherShed@@U?$less@K@std@@V?$allocator@U?$pair@$$CBKUPkcs11Session@CipherShed@@@std@@@4@$0A@@std@@@2@PAU342@00ABU?$pair@$$CBKUPkcs11Session@CipherShed@@@2@D@Z 00451810 f i SecurityToken.obj
 0001:00050860       ??$unchecked_copy@PAEPAE@stdext@@YAPAEPAE00@Z 00451860 f i SecurityToken.obj
 0001:00050890       ??$fill@PAEE@std@@YAXPAE0ABE@Z 00451890 f i SecurityToken.obj
 0001:000508b0       ??$_Unchecked_move_backward@PAEPAE@stdext@@YAPAEPAE00@Z 004518b0 f i SecurityToken.obj
 0001:000508e0       ??$fill@PAKK@std@@YAXPAK0ABK@Z 004518e0 f i SecurityToken.obj
 0001:00050900       ??$_Unchecked_move_backward@PAKPAK@stdext@@YAPAKPAK00@Z 00451900 f i SecurityToken.obj
 0001:00050930       ?_Copy@?$_Tree@V?$_Tmap_traits@KUPkcs11Session@CipherShed@@U?$less@K@std@@V?$allocator@U?$pair@$$CBKUPkcs11Session@CipherShed@@@std@@@4@$0A@@std@@@std@@IAEPAU_Node@?$_Tree_nod@V?$_Tmap_traits@KUPkcs11Session@CipherShed@@U?$less@K@std@@V?$allocator@U?$pair@$$CBKUPkcs11Session@CipherShed@@@std@@@4@$0A@@std@@@2@PAU342@0@Z 00451930 f i SecurityToken.obj
 0001:000509f0       ?IsKeyfilePathValid@SecurityToken@CipherShed@@SA_NABV?$basic_string@_WU?$char_traits@_W@std@@V?$allocator@_W@2@@std@@@Z 004519f0 f   SecurityToken.obj
 0001:00050a10       ??$_Ucopy@PAE@?$vector@EV?$allocator@E@std@@@std@@IAEPAEPAE00@Z 00451a10 f i SecurityToken.obj
 0001:00050a10       ??$_Umove@PAE@?$vector@EV?$allocator@E@std@@@std@@IAEPAEPAE00@Z 00451a10 f i SecurityToken.obj
 0001:00050a40       ?_Copy@?$_Tree@V?$_Tmap_traits@KUPkcs11Session@CipherShed@@U?$less@K@std@@V?$allocator@U?$pair@$$CBKUPkcs11Session@CipherShed@@@std@@@4@$0A@@std@@@std@@IAEXABV12@@Z 00451a40 f i SecurityToken.obj
 0001:00050ac0       ??$_Umove@PAK@?$vector@KV?$allocator@K@std@@@std@@IAEPAKPAK00@Z 00451ac0 f i SecurityToken.obj
 0001:00050b00       ??1?$ContainerForward@V?$vector@KV?$allocator@K@std@@@std@@@ForEach@CipherShed@@UAE@XZ 00451b00 f i SecurityToken.obj
 0001:00050b40       ?find@?$_Tree@V?$_Tmap_traits@KUPkcs11Session@CipherShed@@U?$less@K@std@@V?$allocator@U?$pair@$$CBKUPkcs11Session@CipherShed@@@std@@@4@$0A@@std@@@std@@QAE?AViterator@12@ABK@Z 00451b40 f i SecurityToken.obj
 0001:00050bd0       ?erase@?$vector@EV?$allocator@E@std@@@std@@QAE?AV?$_Vector_iterator@EV?$allocator@E@std@@@2@V?$_Vector_const_iterator@EV?$allocator@E@std@@@2@0@Z 00451bd0 f i SecurityToken.obj
 0001:00050c60       ?_Ufill@?$vector@KV?$allocator@K@std@@@std@@IAEPAKPAKIABK@Z 00451c60 f i SecurityToken.obj
 0001:00050d40       ?erase@?$_Tree@V?$_Tmap_traits@KUPkcs11Session@CipherShed@@U?$less@K@std@@V?$allocator@U?$pair@$$CBKUPkcs11Session@CipherShed@@@std@@@4@$0A@@std@@@std@@QAE?AViterator@12@Vconst_iterator@12@@Z 00451d40 f i SecurityToken.obj
 0001:00051010       ?clear@?$vector@EV?$allocator@E@std@@@std@@QAEXXZ 00452010 f i SecurityToken.obj
 0001:00051050       ??0?$_Tree@V?$_Tmap_traits@KUPkcs11Session@CipherShed@@U?$less@K@std@@V?$allocator@U?$pair@$$CBKUPkcs11Session@CipherShed@@@std@@@4@$0A@@std@@@std@@QAE@ABU?$less@K@1@ABV?$allocator@U?$pair@$$CBKUPkcs11Session@CipherShed@@@std@@@1@@Z 00452050 f i SecurityToken.obj
 0001:000510e0       ?erase@?$_Tree@V?$_Tmap_traits@KUPkcs11Session@CipherShed@@U?$less@K@std@@V?$allocator@U?$pair@$$CBKUPkcs11Session@CipherShed@@@std@@@4@$0A@@std@@@std@@QAE?AViterator@12@Vconst_iterator@12@0@Z 004520e0 f i SecurityToken.obj
 0001:000511c0       ?_Insert@?$_Tree@V?$_Tmap_traits@KUPkcs11Session@CipherShed@@U?$less@K@std@@V?$allocator@U?$pair@$$CBKUPkcs11Session@CipherShed@@@std@@@4@$0A@@std@@@std@@IAE?AViterator@12@_NPAU_Node@?$_Tree_nod@V?$_Tmap_traits@KUPkcs11Session@CipherShed@@U?$less@K@std@@V?$allocator@U?$pair@$$CBKUPkcs11Session@CipherShed@@@std@@@4@$0A@@std@@@2@ABU?$pair@$$CBKUPkcs11Session@CipherShed@@@2@@Z 004521c0 f i SecurityToken.obj
 0001:000513c0       ?_Xlen@?$vector@EV?$allocator@E@std@@@std@@KAXXZ 004523c0 f i Dlgcode.obj
 0001:000513c0       ?_Xlen@?$vector@USecurityTokenKeyfile@CipherShed@@V?$allocator@USecurityTokenKeyfile@CipherShed@@@std@@@std@@KAXXZ 004523c0 f i Dlgcode.obj
 0001:000513c0       ?_Xlen@?$vector@UHostDevice@@V?$allocator@UHostDevice@@@std@@@std@@KAXXZ 004523c0 f i Tcformat.obj
 0001:000513c0       ?_Xlen@?$vector@KV?$allocator@K@std@@@std@@KAXXZ 004523c0 f i SecurityToken.obj
 0001:00051440       ?GetTokenInfo@SecurityToken@CipherShed@@SA?AUSecurityTokenInfo@2@K@Z 00452440 f   SecurityToken.obj
 0001:00051660       ??0Pkcs11Exception@CipherShed@@QAE@ABU01@@Z 00452660 f i SecurityToken.obj
 0001:00051690       ?_Tidy@?$_Tree@V?$_Tmap_traits@KUPkcs11Session@CipherShed@@U?$less@K@std@@V?$allocator@U?$pair@$$CBKUPkcs11Session@CipherShed@@@std@@@4@$0A@@std@@@std@@IAEXXZ 00452690 f i SecurityToken.obj
 0001:000516d0       ?insert@?$_Tree@V?$_Tmap_traits@KUPkcs11Session@CipherShed@@U?$less@K@std@@V?$allocator@U?$pair@$$CBKUPkcs11Session@CipherShed@@@std@@@4@$0A@@std@@@std@@QAE?AU?$pair@Viterator@?$_Tree@V?$_Tmap_traits@KUPkcs11Session@CipherShed@@U?$less@K@std@@V?$allocator@U?$pair@$$CBKUPkcs11Session@CipherShed@@@std@@@4@$0A@@std@@@std@@_N@2@ABU?$pair@$$CBKUPkcs11Session@CipherShed@@@2@@Z 004526d0 f i SecurityToken.obj
 0001:000517c0       ?_Insert_n@?$vector@EV?$allocator@E@std@@@std@@IAEXV?$_Vector_const_iterator@EV?$allocator@E@std@@@2@IABE@Z 004527c0 f i SecurityToken.obj
 0001:00051950       ?_Insert_n@?$vector@KV?$allocator@K@std@@@std@@IAEXV?$_Vector_const_iterator@KV?$allocator@K@std@@@2@IABK@Z 00452950 f i SecurityToken.obj
 0001:00051b00       ??0?$_Tree@V?$_Tmap_traits@KUPkcs11Session@CipherShed@@U?$less@K@std@@V?$allocator@U?$pair@$$CBKUPkcs11Session@CipherShed@@@std@@@4@$0A@@std@@@std@@QAE@ABV01@@Z 00452b00 f i SecurityToken.obj
 0001:00051bb0       ??1?$_Tree@V?$_Tmap_traits@KUPkcs11Session@CipherShed@@U?$less@K@std@@V?$allocator@U?$pair@$$CBKUPkcs11Session@CipherShed@@@std@@@4@$0A@@std@@@std@@QAE@XZ 00452bb0 f i SecurityToken.obj
 0001:00051c30       ??4?$vector@EV?$allocator@E@std@@@std@@QAEAAV01@ABV01@@Z 00452c30 f i SecurityToken.obj
 0001:00051d10       ??0?$vector@KV?$allocator@K@std@@@std@@QAE@ABV01@@Z 00452d10 f i SecurityToken.obj
 0001:00051df0       ?insert@?$_Tree@V?$_Tmap_traits@KUPkcs11Session@CipherShed@@U?$less@K@std@@V?$allocator@U?$pair@$$CBKUPkcs11Session@CipherShed@@@std@@@4@$0A@@std@@@std@@QAE?AViterator@12@Vconst_iterator@12@ABU?$pair@$$CBKUPkcs11Session@CipherShed@@@2@@Z 00452df0 f i SecurityToken.obj
 0001:00051fc0       ?insert@?$vector@EV?$allocator@E@std@@@std@@QAE?AV?$_Vector_iterator@EV?$allocator@E@std@@@2@V?$_Vector_const_iterator@EV?$allocator@E@std@@@2@ABE@Z 00452fc0 f i SecurityToken.obj
 0001:00052070       ?_Construct_n@?$vector@KV?$allocator@K@std@@@std@@QAEXIABK@Z 00453070 f i SecurityToken.obj
 0001:000520e0       ?insert@?$vector@KV?$allocator@K@std@@@std@@QAE?AV?$_Vector_iterator@KV?$allocator@K@std@@@2@V?$_Vector_const_iterator@KV?$allocator@K@std@@@2@ABK@Z 004530e0 f i SecurityToken.obj
 0001:00052190       ??0?$ContainerForward@V?$vector@KV?$allocator@K@std@@@std@@@ForEach@CipherShed@@QAE@ABV?$vector@KV?$allocator@K@std@@@std@@@Z 00453190 f i SecurityToken.obj
 0001:00052230       ?Next@?$ContainerForward@V?$vector@KV?$allocator@K@std@@@std@@@ForEach@CipherShed@@UBEXXZ 00453230 f i SecurityToken.obj
 0001:00052260       ?IsNotEnd@?$ContainerForward@V?$vector@USecurityTokenKeyfile@CipherShed@@V?$allocator@USecurityTokenKeyfile@CipherShed@@@std@@@std@@@ForEach@CipherShed@@UBE_NXZ 00453260 f i Dlgcode.obj
 0001:00052260       ?IsNotEnd@?$ContainerForward@V?$vector@UHostDevice@@V?$allocator@UHostDevice@@@std@@@std@@@ForEach@CipherShed@@UBE_NXZ 00453260 f i Tcformat.obj
 0001:00052260       ?IsNotEnd@?$ContainerForward@V?$vector@KV?$allocator@K@std@@@std@@@ForEach@CipherShed@@UBE_NXZ 00453260 f i SecurityToken.obj
 0001:000522a0       ??_G?$ContainerForward@V?$vector@KV?$allocator@K@std@@@std@@@ForEach@CipherShed@@UAEPAXI@Z 004532a0 f i SecurityToken.obj
 0001:000522a0       ??_E?$ContainerForward@V?$vector@KV?$allocator@K@std@@@std@@@ForEach@CipherShed@@UAEPAXI@Z 004532a0 f i SecurityToken.obj
 0001:000522f0       ??$_Uninit_fill_n@PAUSecurityTokenKeyfile@CipherShed@@IU12@V?$allocator@USecurityTokenKeyfile@CipherShed@@@std@@@std@@YAXPAUSecurityTokenKeyfile@CipherShed@@IABU12@AAV?$allocator@USecurityTokenKeyfile@CipherShed@@@0@U_Nonscalar_ptr_iterator_tag@0@U_Range_checked_iterator_tag@0@@Z 004532f0 f i SecurityToken.obj
 0001:00052390       ??$_Fill@PAUSecurityTokenKeyfile@CipherShed@@U12@@std@@YAXPAUSecurityTokenKeyfile@CipherShed@@0ABU12@@Z 00453390 f i SecurityToken.obj
 0001:00052410       ??$_Copy_backward_opt@PAUSecurityTokenKeyfile@CipherShed@@PAU12@Uforward_iterator_tag@std@@@std@@YAPAUSecurityTokenKeyfile@CipherShed@@PAU12@00Uforward_iterator_tag@0@U_Nonscalar_ptr_iterator_tag@0@U_Range_checked_iterator_tag@0@@Z 00453410 f i SecurityToken.obj
 0001:000524a0       ??A?$map@KUPkcs11Session@CipherShed@@U?$less@K@std@@V?$allocator@U?$pair@$$CBKUPkcs11Session@CipherShed@@@std@@@4@@std@@QAEAAUPkcs11Session@CipherShed@@ABK@Z 004534a0 f i SecurityToken.obj
 0001:00052560       ??0?$vector@KV?$allocator@K@std@@@std@@QAE@I@Z 00453560 f i SecurityToken.obj
 0001:000525d0       ?push_back@?$vector@KV?$allocator@K@std@@@std@@QAEXABK@Z 004535d0 f i SecurityToken.obj
 0001:00052640       ??$GetContainerForward@V?$vector@KV?$allocator@K@std@@@std@@@ForEach@CipherShed@@SA?AU?$ContainerForward@V?$vector@KV?$allocator@K@std@@@std@@@01@ABV?$vector@KV?$allocator@K@std@@@std@@@Z 00453640 f i SecurityToken.obj
 0001:00052660       ??0?$ContainerForward@V?$map@KUPkcs11Session@CipherShed@@U?$less@K@std@@V?$allocator@U?$pair@$$CBKUPkcs11Session@CipherShed@@@std@@@4@@std@@@ForEach@CipherShed@@QAE@ABV?$map@KUPkcs11Session@CipherShed@@U?$less@K@std@@V?$allocator@U?$pair@$$CBKUPkcs11Session@CipherShed@@@std@@@4@@std@@@Z 00453660 f i SecurityToken.obj
 0001:000526f0       ?IsNotEnd@?$ContainerForward@V?$map@KUPkcs11Session@CipherShed@@U?$less@K@std@@V?$allocator@U?$pair@$$CBKUPkcs11Session@CipherShed@@@std@@@4@@std@@@ForEach@CipherShed@@UBE_NXZ 004536f0 f i SecurityToken.obj
 0001:00052730       ?Next@?$ContainerForward@V?$map@KUPkcs11Session@CipherShed@@U?$less@K@std@@V?$allocator@U?$pair@$$CBKUPkcs11Session@CipherShed@@@std@@@4@@std@@@ForEach@CipherShed@@UBEXXZ 00453730 f i SecurityToken.obj
 0001:00052740       ??1?$ContainerForward@V?$map@KUPkcs11Session@CipherShed@@U?$less@K@std@@V?$allocator@U?$pair@$$CBKUPkcs11Session@CipherShed@@@std@@@4@@std@@@ForEach@CipherShed@@UAE@XZ 00453740 f i SecurityToken.obj
 0001:00052790       ?CloseSession@SecurityToken@CipherShed@@KAXK@Z 00453790 f   SecurityToken.obj
 0001:000528b0       ?GetObjectAttribute@SecurityToken@CipherShed@@KAXKKKAAV?$vector@EV?$allocator@E@std@@@std@@@Z 004538b0 f   SecurityToken.obj
 0001:00052a70       ?GetTokenSlots@SecurityToken@CipherShed@@KA?AV?$list@KV?$allocator@K@std@@@std@@XZ 00453a70 f   SecurityToken.obj
 0001:00052c80       ?OpenSession@SecurityToken@CipherShed@@KAXK@Z 00453c80 f   SecurityToken.obj
 0001:00052d50       ?_Ufill@?$vector@USecurityTokenKeyfile@CipherShed@@V?$allocator@USecurityTokenKeyfile@CipherShed@@@std@@@std@@IAEPAUSecurityTokenKeyfile@CipherShed@@PAU34@IABU34@@Z 00453d50 f i SecurityToken.obj
 0001:00052d90       ??$GetContainerForward@V?$map@KUPkcs11Session@CipherShed@@U?$less@K@std@@V?$allocator@U?$pair@$$CBKUPkcs11Session@CipherShed@@@std@@@4@@std@@@ForEach@CipherShed@@SA?AU?$ContainerForward@V?$map@KUPkcs11Session@CipherShed@@U?$less@K@std@@V?$allocator@U?$pair@$$CBKUPkcs11Session@CipherShed@@@std@@@4@@std@@@01@ABV?$map@KUPkcs11Session@CipherShed@@U?$less@K@std@@V?$allocator@U?$pair@$$CBKUPkcs11Session@CipherShed@@@std@@@4@@std@@@Z 00453d90 f i SecurityToken.obj
 0001:00052db0       ??_G?$ContainerForward@V?$map@KUPkcs11Session@CipherShed@@U?$less@K@std@@V?$allocator@U?$pair@$$CBKUPkcs11Session@CipherShed@@@std@@@4@@std@@@ForEach@CipherShed@@UAEPAXI@Z 00453db0 f i SecurityToken.obj
 0001:00052db0       ??_E?$ContainerForward@V?$map@KUPkcs11Session@CipherShed@@U?$less@K@std@@V?$allocator@U?$pair@$$CBKUPkcs11Session@CipherShed@@@std@@@4@@std@@@ForEach@CipherShed@@UAEPAXI@Z 00453db0 f i SecurityToken.obj
 0001:00052dd0       ?CloseAllSessions@SecurityToken@CipherShed@@SAXXZ 00453dd0 f   SecurityToken.obj
 0001:00052ee0       ?GetObjects@SecurityToken@CipherShed@@KA?AV?$vector@KV?$allocator@K@std@@@std@@KK@Z 00453ee0 f   SecurityToken.obj
 0001:000530a0       ?Login@SecurityToken@CipherShed@@KAXKABV?$basic_string@DU?$char_traits@D@std@@V?$allocator@D@2@@std@@@Z 004540a0 f   SecurityToken.obj
 0001:00053180       ??6?$basic_ostream@_WU?$char_traits@_W@std@@@std@@QAEAAV01@_K@Z 00454180 f i SecurityToken.obj
 0001:000532d0       ??$_Unchecked_move_backward@PAUSecurityTokenKeyfile@CipherShed@@PAU12@@stdext@@YAPAUSecurityTokenKeyfile@CipherShed@@PAU12@00@Z 004542d0 f i SecurityToken.obj
 0001:00053320       ??BSecurityTokenKeyfile@CipherShed@@QBE?AUSecurityTokenKeyfilePath@1@XZ 00454320 f   SecurityToken.obj
 0001:00053460       ?CloseLibrary@SecurityToken@CipherShed@@SAXXZ 00454460 f   SecurityToken.obj
 0001:000534a0       ?GetAvailableTokens@SecurityToken@CipherShed@@SA?AV?$list@USecurityTokenInfo@CipherShed@@V?$allocator@USecurityTokenInfo@CipherShed@@@std@@@std@@XZ 004544a0 f   SecurityToken.obj
 0001:00053740       ?LoginUserIfRequired@SecurityToken@CipherShed@@KAXK@Z 00454740 f   SecurityToken.obj
 0001:00053aa0       ?InitLibrary@SecurityToken@CipherShed@@SAXABV?$basic_string@DU?$char_traits@D@std@@V?$allocator@D@2@@std@@V?$auto_ptr@UGetPinFunctor@CipherShed@@@4@V?$auto_ptr@USendExceptionFunctor@CipherShed@@@4@@Z 00454aa0 f   SecurityToken.obj
 0001:00053c30       ??BPkcs11Exception@CipherShed@@QBE?AV?$basic_string@DU?$char_traits@D@std@@V?$allocator@D@2@@std@@XZ 00454c30 f   SecurityToken.obj
 0001:00053d80       ?Show@Pkcs11Exception@CipherShed@@UBEXPAUHWND__@@@Z 00454d80 f   SecurityToken.obj
 0001:00054140       ?_Insert_n@?$vector@USecurityTokenKeyfile@CipherShed@@V?$allocator@USecurityTokenKeyfile@CipherShed@@@std@@@std@@IAEXV?$_Vector_const_iterator@USecurityTokenKeyfile@CipherShed@@V?$allocator@USecurityTokenKeyfile@CipherShed@@@std@@@2@IABUSecurityTokenKeyfile@CipherShed@@@Z 00455140 f i SecurityToken.obj
 0001:00054480       ?DeleteKeyfile@SecurityToken@CipherShed@@SAXABUSecurityTokenKeyfile@2@@Z 00455480 f   SecurityToken.obj
 0001:000544f0       ?GetKeyfileData@SecurityToken@CipherShed@@SAXABUSecurityTokenKeyfile@2@AAV?$vector@EV?$allocator@E@std@@@std@@@Z 004554f0 f   SecurityToken.obj
 0001:00054520       ?insert@?$vector@USecurityTokenKeyfile@CipherShed@@V?$allocator@USecurityTokenKeyfile@CipherShed@@@std@@@std@@QAE?AV?$_Vector_iterator@USecurityTokenKeyfile@CipherShed@@V?$allocator@USecurityTokenKeyfile@CipherShed@@@std@@@2@V?$_Vector_const_iterator@USecurityTokenKeyfile@CipherShed@@V?$allocator@USecurityTokenKeyfile@CipherShed@@@std@@@2@ABUSecurityTokenKeyfile@CipherShed@@@Z 00455520 f i SecurityToken.obj
 0001:000545e0       ?push_back@?$vector@USecurityTokenKeyfile@CipherShed@@V?$allocator@USecurityTokenKeyfile@CipherShed@@@std@@@std@@QAEXABUSecurityTokenKeyfile@CipherShed@@@Z 004555e0 f i SecurityToken.obj
 0001:00054660       ?GetAvailableKeyfiles@SecurityToken@CipherShed@@SA?AV?$vector@USecurityTokenKeyfile@CipherShed@@V?$allocator@USecurityTokenKeyfile@CipherShed@@@std@@@std@@PAKV?$basic_string@_WU?$char_traits@_W@std@@V?$allocator@_W@2@@4@@Z 00455660 f   SecurityToken.obj
 0001:00055160       ??0SecurityTokenKeyfile@CipherShed@@QAE@ABUSecurityTokenKeyfilePath@1@@Z 00456160 f   SecurityToken.obj
 0001:00055420       ??0SecurityTokenKeyfileNotFound@CipherShed@@QAE@ABU01@@Z 00456420 f i SecurityToken.obj
 0001:00055430       ??0InvalidSecurityTokenKeyfilePath@CipherShed@@QAE@ABU01@@Z 00456430 f i SecurityToken.obj
 0001:00055440       ?CreateKeyfile@SecurityToken@CipherShed@@SAXKAAV?$vector@EV?$allocator@E@std@@@std@@ABV?$basic_string@DU?$char_traits@D@std@@V?$allocator@D@2@@4@@Z 00456440 f   SecurityToken.obj
 0001:00055910       ??0SecurityTokenKeyfileAlreadyExists@CipherShed@@QAE@ABU01@@Z 00456910 f i SecurityToken.obj
 0001:00055920       _XTSAesTest                00456920 f   Tests.obj
 0001:00055a80       _CipherInit2               00456a80 f   Tests.obj
 0001:00055ae0       _LRWAesTest                00456ae0 f   Tests.obj
 0001:00055c10       _TestLegacySectorBufEncryption 00456c10 f   Tests.obj
 0001:000568b0       _test_hmac_sha512          004578b0 f   Tests.obj
 0001:00056980       _test_hmac_sha1            00457980 f   Tests.obj
 0001:00056a50       _test_hmac_ripemd160       00457a50 f   Tests.obj
 0001:00056af0       _test_hmac_whirlpool       00457af0 f   Tests.obj
 0001:00056b80       _test_pkcs5                00457b80 f   Tests.obj
 0001:00056dc0       _TestSectorBufEncryption   00457dc0 f   Tests.obj
 0001:00057f30       _AutoTestAlgorithms        00458f30 f   Tests.obj
 0001:00057f80       _GetHeaderField32          00458f80 f   Volumes.obj
 0001:00057fa0       _ReadVolumeHeader          00458fa0 f   Volumes.obj
 0001:00058950       _CreateVolumeHeaderInMemory 00459950 f   Volumes.obj
 0001:00059210       _ReadEffectiveVolumeHeader 0045a210 f   Volumes.obj
 0001:00059320       _WriteEffectiveVolumeHeader 0045a320 f   Volumes.obj
 0001:00059480       _WriteRandomDataToReservedHeaderAreas 0045a480 f   Volumes.obj
 0001:000598b0       _GetWipePassCount          0045a8b0 f   Wipe.obj
 0001:00059900       _WipeBuffer                0045a900 f   Wipe.obj
 0001:000599c0       _XmlFindElement            0045a9c0 f   Xml.obj
 0001:00059a50       _XmlGetAttributeText       0045aa50 f   Xml.obj
 0001:00059bc0       _XmlGetNodeText            0045abc0 f   Xml.obj
 0001:00059ca0       _XmlQuoteText              0045aca0 f   Xml.obj
 0001:00059d70       _XmlWriteHeader            0045ad70 f   Xml.obj
 0001:00059d90       _XmlWriteFooter            0045ad90 f   Xml.obj
 0001:00059db0       _XmlFindElementByAttributeValue 0045adb0 f   Xml.obj
 0001:0005a810       _EncryptBufferXTS          0045b810 f   Xts.obj
 0001:0005a880       _DecryptBufferXTS          0045b880 f   Xts.obj
 0001:0005a8f0       _ConvertUTF16toUTF8        0045b8f0 f   ConvertUTF.obj
 0001:0005aa80       _aes_hw_cpu_enable_sse     0045ba80     crypto:Aes_hw_cpu.obj
 0001:0005aa8b       _is_aes_hw_cpu_supported   0045ba8b     crypto:Aes_hw_cpu.obj
 0001:0005aa9d       _aes_hw_cpu_decrypt        0045ba9d     crypto:Aes_hw_cpu.obj
 0001:0005ab57       _aes_hw_cpu_decrypt_32_blocks 0045bb57     crypto:Aes_hw_cpu.obj
 0001:0005afc5       _aes_hw_cpu_encrypt        0045bfc5     crypto:Aes_hw_cpu.obj
 0001:0005b07f       _aes_hw_cpu_encrypt_32_blocks 0045c07f     crypto:Aes_hw_cpu.obj
 0001:0005ba10       _TripleDesSetKey           0045ca10 f   crypto:Des.obj
 0001:0005ba90       _TripleDesEncrypt          0045ca90 f   crypto:Des.obj
 0001:0005bc00       _Cast5Encrypt              0045cc00 f   crypto:Cast.obj
 0001:0005c040       _Cast5Decrypt              0045d040 f   crypto:Cast.obj
 0001:0005c480       _Cast5SetKey               0045d480 f   crypto:Cast.obj
 0001:0005d090       _BlowfishSetKey            0045e090 f   crypto:Blowfish.obj
 0001:0005d1b0       _BlowfishEncryptLE         0045e1b0 f   crypto:Blowfish.obj
 0001:0005dd00       _twofish_set_key           0045ed00 f   crypto:Twofish.obj
 0001:0005ddf0       _twofish_encrypt           0045edf0 f   crypto:Twofish.obj
 0001:0005e990       _twofish_decrypt           0045f990 f   crypto:Twofish.obj
 0001:0005f470       _serpent_set_key           00460470 f   crypto:Serpent.obj
 0001:0005f830       _serpent_encrypt           00460830 f   crypto:Serpent.obj
 0001:0005ff10       _serpent_decrypt           00460f10 f   crypto:Serpent.obj
 0001:00060640       _aes_encrypt_key256        00461640 f   crypto:Aeskey.obj
 0001:00060bf0       _aes_decrypt_key256        00461bf0 f   crypto:Aeskey.obj
 0001:00061700       _aes_encrypt               00462700     crypto:Aes_x86.obj
 0001:00062300       _aes_decrypt               00463300     crypto:Aes_x86.obj
 0001:00062f10       _sha512_compile            00463f10 f   crypto:Sha2.obj
 0001:000653e0       _sha512_hash               004663e0 f   crypto:Sha2.obj
 0001:00065670       _sha512_begin              00466670 f   crypto:Sha2.obj
 0001:000656a0       _sha512_end                004666a0 f   crypto:Sha2.obj
 0001:000656c0       _sha1_compile              004666c0 f   crypto:Sha1.obj
 0001:00066680       _sha1_begin                00467680 f   crypto:Sha1.obj
 0001:000666c0       _sha1_hash                 004676c0 f   crypto:Sha1.obj
 0001:00066770       _sha1_end                  00467770 f   crypto:Sha1.obj
 0001:00066870       _RMD160Init                00467870 f   crypto:Rmd160.obj
 0001:000668b0       _RMD160Transform           004678b0 f   crypto:Rmd160.obj
 0001:00067e00       _RMD160Update              00468e00 f   crypto:Rmd160.obj
 0001:00067fb0       _RMD160Final               00468fb0 f   crypto:Rmd160.obj
 0001:00069930       _WHIRLPOOL_init            0046a930 f   crypto:Whirlpool.obj
 0001:000699b0       _WHIRLPOOL_add             0046a9b0 f   crypto:Whirlpool.obj
 0001:00069b70       _WHIRLPOOL_finalize        0046ab70 f   crypto:Whirlpool.obj
 0001:00069c79       ?_Xlen@_String_base@std@@SAXXZ 0046ac79 f   libcpmt:string.obj
 0001:00069cb1       ?_Xran@_String_base@std@@SAXXZ 0046acb1 f   libcpmt:string.obj
 0001:00069ce9       __Tolower                  0046ace9 f   libcpmt:_tolower.obj
 0001:00069df6       __Getctype                 0046adf6 f   libcpmt:_tolower.obj
 0001:00069e56       __Wcrtomb                  0046ae56 f   libcpmt:xwctomb.obj
 0001:00069edd       __Getcvt                   0046aedd f   libcpmt:xwctomb.obj
 0001:00069ef3       ??0_Init_locks@std@@QAE@XZ 0046aef3 f   libcpmt:xlock.obj
 0001:00069f24       ??1_Init_locks@std@@QAE@XZ 0046af24 f   libcpmt:xlock.obj
 0001:00069f4d       ??0_Lockit@std@@QAE@H@Z    0046af4d f   libcpmt:xlock.obj
 0001:00069f75       ??1_Lockit@std@@QAE@XZ     0046af75 f   libcpmt:xlock.obj
 0001:00069f8c       ?_AtModuleExit@@YAXP6AXXZ@Z 0046af8c f   libcpmt:locale0.obj
 0001:00069fa6       ??1_Fac_node@std@@QAE@XZ   0046afa6 f i libcpmt:locale0.obj
 0001:00069fbb       ??_G_Fac_node@std@@QAEPAXI@Z 0046afbb f i libcpmt:locale0.obj
 0001:00069fdc       __Deletegloballocale       0046afdc f   libcpmt:locale0.obj
 0001:0006a029       ?_Getgloballocale@locale@std@@CAPAV_Locimp@12@XZ 0046b029 f   libcpmt:locale0.obj
 0001:0006a02f       ?_Setgloballocale@locale@std@@CAXPAX@Z 0046b02f f   libcpmt:locale0.obj
 0001:0006a059       ?_Locimp_dtor@_Locimp@locale@std@@CAXPAV123@@Z 0046b059 f   libcpmt:locale0.obj
 0001:0006a0b9       __Fac_tidy                 0046b0b9 f   libcpmt:locale0.obj
 0001:0006a0ee       ?facet_Register@facet@locale@std@@CAXPAV123@@Z 0046b0ee f   libcpmt:locale0.obj
 0001:0006a12c       ?_Locinfo_dtor@_Locinfo@std@@SAXPAV12@@Z 0046b12c f   libcpmt:locale0.obj
 0001:0006a154       ??0_Locimp@locale@std@@AAE@_N@Z 0046b154 f i libcpmt:locale0.obj
 0001:0006a19d       ??1_Locimp@locale@std@@MAE@XZ 0046b19d f i libcpmt:locale0.obj
 0001:0006a1da       ??_E_Locimp@locale@std@@MAEPAXI@Z 0046b1da f i libcpmt:locale0.obj
 0001:0006a1da       ??_G_Locimp@locale@std@@MAEPAXI@Z 0046b1da f i libcpmt:locale0.obj
 0001:0006a1fb       ?_Init@locale@std@@CAPAV_Locimp@12@XZ 0046b1fb f   libcpmt:locale0.obj
 0001:0006a295       ?_Locinfo_ctor@_Locinfo@std@@SAXPAV12@ABV?$basic_string@DU?$char_traits@D@std@@V?$allocator@D@2@@2@@Z 0046b295 f   libcpmt:locale0.obj
 0001:0006a2f1       ?_Callfns@ios_base@std@@AAEXW4event@12@@Z 0046b2f1 f i libcpmt:ios.obj
 0001:0006a318       ?_Tidy@ios_base@std@@AAAXXZ 0046b318 f i libcpmt:ios.obj
 0001:0006a363       ?_Ios_base_dtor@ios_base@std@@CAXPAV12@@Z 0046b363 f   libcpmt:ios.obj
 0001:0006a39f       ??0_Mutex@std@@QAE@XZ      0046b39f f   libcpmt:xmutex.obj
 0001:0006a3b9       ??1_Mutex@std@@QAE@XZ      0046b3b9 f   libcpmt:xmutex.obj
 0001:0006a3d0       ?_Lock@_Mutex@std@@QAEXXZ  0046b3d0 f   libcpmt:xmutex.obj
 0001:0006a3d9       ?_Unlock@_Mutex@std@@QAEXXZ 0046b3d9 f   libcpmt:xmutex.obj
 0001:0006a3e2       __Getwctype                0046b3e2 f   libcpmt:xgetwctype.obj
 0001:0006a411       __Getwctypes               0046b411 f   libcpmt:xgetwctype.obj
 0001:0006a43e       __Towlower                 0046b43e f   libcpmt:xtowlower.obj
 0001:0006a4ab       __Towupper                 0046b4ab f   libcpmt:xtowupper.obj
 0001:0006a55a       __GetLocaleForCP           0046b55a f   libcpmt:xmbtowc.obj
 0001:0006a648       __Mbrtowc                  0046b648 f   libcpmt:xmbtowc.obj
 0001:0006a7bc       ??_U@YAPAXI@Z              0046b7bc f   libcpmt:newaop.obj
 0001:0006a7c7       ?uncaught_exception@std@@YA_NXZ 0046b7c7 f   libcpmt:uncaught.obj
 0001:0006a7cc       __Toupper                  0046b7cc f   libcpmt:_toupper.obj
 0001:0006a8de       __Mtxinit                  0046b8de f   libcpmt:xmtx.obj
 0001:0006a8ee       __Mtxdst                   0046b8ee f   libcpmt:xmtx.obj
 0001:0006a8fe       __Mtxlock                  0046b8fe f   libcpmt:xmtx.obj
 0001:0006a90e       __Mtxunlock                0046b90e f   libcpmt:xmtx.obj
 0001:0006a91e       ?_Atexit@@YAXP6AXXZ@Z      0046b91e f   libcpmt:iosptrs.obj
 0001:0006a944       ??1_Init_atexit@@QAE@XZ    0046b944 f i libcpmt:iosptrs.obj
 0001:0006a969       ??3@YAXPAX@Z               0046b969 f   LIBCMT:delete.obj
 0001:0006a974       ??1type_info@@UAE@XZ       0046b974 f   LIBCMT:typinfo.obj
 0001:0006a984       ??_Etype_info@@UAEPAXI@Z   0046b984 f i LIBCMT:typinfo.obj
 0001:0006a984       ??_Gtype_info@@UAEPAXI@Z   0046b984 f i LIBCMT:typinfo.obj
 0001:0006a9a5       ??8type_info@@QBE_NABV0@@Z 0046b9a5 f   LIBCMT:typinfo.obj
 0001:0006a9c5       __purecall                 0046b9c5 f   LIBCMT:purevirt.obj
 0001:0006a9ef       __CxxThrowException@8      0046b9ef f   LIBCMT:throw.obj
 0001:0006aa3b       ??2@YAPAXI@Z               0046ba3b f   LIBCMT:new.obj
 0001:0006aaa0       ??0exception@std@@QAE@XZ   0046baa0 f   LIBCMT:stdexcpt.obj
 0001:0006aab1       ??0exception@std@@QAE@ABQBD@Z 0046bab1 f   LIBCMT:stdexcpt.obj
 0001:0006ab04       ??0exception@std@@QAE@ABQBDH@Z 0046bb04 f   LIBCMT:stdexcpt.obj
 0001:0006ab21       ??0exception@std@@QAE@ABV01@@Z 0046bb21 f   LIBCMT:stdexcpt.obj
 0001:0006ab7e       ??1exception@std@@UAE@XZ   0046bb7e f   LIBCMT:stdexcpt.obj
 0001:0006ab94       ?what@exception@std@@UBEPBDXZ 0046bb94 f   LIBCMT:stdexcpt.obj
 0001:0006aba1       ??0bad_cast@std@@QAE@PBD@Z 0046bba1 f   LIBCMT:stdexcpt.obj
 0001:0006abbf       ??0bad_cast@std@@QAE@ABV01@@Z 0046bbbf f   LIBCMT:stdexcpt.obj
 0001:0006abdc       ??1bad_cast@std@@UAE@XZ    0046bbdc f   LIBCMT:stdexcpt.obj
 0001:0006abe7       ??_Eexception@std@@UAEPAXI@Z 0046bbe7 f i LIBCMT:stdexcpt.obj
 0001:0006abe7       ??_Gexception@std@@UAEPAXI@Z 0046bbe7 f i LIBCMT:stdexcpt.obj
 0001:0006ac08       ??_Gbad_cast@std@@UAEPAXI@Z 0046bc08 f i LIBCMT:stdexcpt.obj
 0001:0006ac08       ??_Ebad_cast@std@@UAEPAXI@Z 0046bc08 f i LIBCMT:stdexcpt.obj
 0001:0006ac2f       _memcpy_s                  0046bc2f f   LIBCMT:memcpy_s.obj
 0001:0006acac       _memmove_s                 0046bcac f   LIBCMT:memmove_s.obj
 0001:0006ad10       __alldiv                   0046bd10 f   LIBCMT:lldiv.obj
 0001:0006adc0       __allmul                   0046bdc0 f   LIBCMT:llmul.obj
 0001:0006adf4       _free                      0046bdf4 f   LIBCMT:free.obj
 0001:0006ae82       _V6_HeapAlloc              0046be82 f   LIBCMT:malloc.obj
 0001:0006aed1       _malloc                    0046bed1 f   LIBCMT:malloc.obj
 0001:0006af9b       @__security_check_cookie@4 0046bf9b f   LIBCMT:secchk.obj
 0001:0006afb0       __chkstk                   0046bfb0 f   LIBCMT:chkstk.obj
 0001:0006afb0       __alloca_probe             0046bfb0     LIBCMT:chkstk.obj
 0001:0006afdb       _remove                    0046bfdb f   LIBCMT:unlink.obj
 0001:0006b00b       _sprintf                   0046c00b f   LIBCMT:sprintf.obj
 0001:0006b088       _sprintf_s                 0046c088 f   LIBCMT:sprintf.obj
 0001:0006b0b0       _memset                    0046c0b0 f   LIBCMT:memset.obj
 0001:0006b12a       __initp_misc_invarg        0046c12a f   LIBCMT:invarg.obj
 0001:0006b139       __invoke_watson            0046c139 f   LIBCMT:invarg.obj
 0001:0006b261       __set_invalid_parameter_handler 0046c261 f   LIBCMT:invarg.obj
 0001:0006b288       __invalid_parameter        0046c288 f   LIBCMT:invarg.obj
 0001:0006b2ae       __invalid_parameter_noinfo 0046c2ae f   LIBCMT:invarg.obj
 0001:0006b2be       _strncmp                   0046c2be f   LIBCMT:strncmp.obj
 0001:0006b3e8       _sscanf                    0046c3e8 f   LIBCMT:sscanf.obj
 0001:0006b40a       ?_JumpToContinuation@@YGXPAXPAUEHRegistrationNode@@@Z 0046c40a f   LIBCMT:_trnsctrl_.obj
 0001:0006b43c       ?_CallMemberFunction1@@YGXPAX00@Z 0046c43c f   LIBCMT:_trnsctrl_.obj
 0001:0006b43c       ?_CallMemberFunction0@@YGXPAX0@Z 0046c43c f   LIBCMT:_trnsctrl_.obj
 0001:0006b43c       ?_CallMemberFunction2@@YGXPAX00H@Z 0046c43c f   LIBCMT:_trnsctrl_.obj
 0001:0006b443       ?_UnwindNestedFrames@@YGXPAUEHRegistrationNode@@PAUEHExceptionRecord@@@Z 0046c443 f   LIBCMT:_trnsctrl_.obj
 0001:0006b497       ___CxxFrameHandler3        0046c497 f   LIBCMT:_trnsctrl_.obj
 0001:0006b500       ?_CallSETranslator@@YAHPAUEHExceptionRecord@@PAUEHRegistrationNode@@PAX2PBU_s_FuncInfo@@H1@Z 0046c500 f   LIBCMT:_trnsctrl_.obj
 0001:0006b676       ?_GetRangeOfTrysToCheck@@YAPBU_s_TryBlockMapEntry@@PBU_s_FuncInfo@@HHPAI1@Z 0046c676 f   LIBCMT:_trnsctrl_.obj
 0001:0006b6eb       __CreateFrameInfo          0046c6eb f   LIBCMT:_trnsctrl_.obj
 0001:0006b717       __IsExceptionObjectToBeDestroyed 0046c717 f   LIBCMT:_trnsctrl_.obj
 0001:0006b73e       __FindAndUnlinkFrame       0046c73e f   LIBCMT:_trnsctrl_.obj
 0001:0006b790       ?_CallCatchBlock2@@YAPAXPAUEHRegistrationNode@@PBU_s_FuncInfo@@PAXHK@Z 0046c790 f   LIBCMT:_trnsctrl_.obj
 0001:0006b7f0       _strstr                    0046c7f0 f   LIBCMT:strstr.obj
 0001:0006b876       __vswprintf_l              0046c876 f   LIBCMT:vswprint.obj
 0001:0006b90f       __vswprintf                0046c90f f   LIBCMT:vswprint.obj
 0001:0006b929       __fclose_nolock            0046c929 f   LIBCMT:fclose.obj
 0001:0006b9a0       _fclose                    0046c9a0 f   LIBCMT:fclose.obj
 0001:0006ba1c       _fprintf                   0046ca1c f   LIBCMT:fprintf.obj
 0001:0006bb38       _fputs                     0046cb38 f   LIBCMT:fputs.obj
 0001:0006bc47       __fsopen                   0046cc47 f   LIBCMT:fopen.obj
 0001:0006bd0b       _fopen                     0046cd0b f   LIBCMT:fopen.obj
 0001:0006bd22       _wcscpy_s                  0046cd22 f   LIBCMT:wcscpy_s.obj
 0001:0006bd91       __swprintf                 0046cd91 f   LIBCMT:swprintf.obj
 0001:0006be29       _swprintf_s                0046ce29 f   LIBCMT:swprintf.obj
 0001:0006be47       __crt_waiting_on_module_handle 0046ce47 f   LIBCMT:crt0dat.obj
 0001:0006be77       __amsg_exit                0046ce77 f   LIBCMT:crt0dat.obj
 0001:0006bea0       ___crtCorExitProcess       0046cea0 f   LIBCMT:crt0dat.obj
 0001:0006becb       ___crtExitProcess          0046cecb f   LIBCMT:crt0dat.obj
 0001:0006bee3       __lockexit                 0046cee3 f   LIBCMT:crt0dat.obj
 0001:0006beec       __unlockexit               0046ceec f   LIBCMT:crt0dat.obj
 0001:0006bf12       __initterm_e               0046cf12 f   LIBCMT:crt0dat.obj
 0001:0006bf36       __cinit                    0046cf36 f   LIBCMT:crt0dat.obj
 0001:0006c0e7       _exit                      0046d0e7 f   LIBCMT:crt0dat.obj
 0001:0006c0fd       __exit                     0046d0fd f   LIBCMT:crt0dat.obj
 0001:0006c113       __cexit                    0046d113 f   LIBCMT:crt0dat.obj
 0001:0006c122       __c_exit                   0046d122 f   LIBCMT:crt0dat.obj
 0001:0006c131       __init_pointers            0046d131 f   LIBCMT:crt0dat.obj
 0001:0006c17f       __snwprintf                0046d17f f   LIBCMT:snwprint.obj
 0001:0006c252       __initp_misc_winxfltr      0046d252 f   LIBCMT:winxfltr.obj
 0001:0006c252       __fpclear                  0046d252 f   LIBCMT:_fpinit_.obj
 0001:0006c253       __cfltcvt_init             0046d253 f   LIBCMT:_fpinit_.obj
 0001:0006c2b3       __fpmath                   0046d2b3 f   LIBCMT:_fpinit_.obj
 0001:0006c2e0       __allrem                   0046d2e0 f   LIBCMT:llrem.obj
 0001:0006c3a0       __aulldiv                  0046d3a0 f   LIBCMT:ulldiv.obj
 0001:0006c408       _atol                      0046d408 f   LIBCMT:atox.obj
 0001:0006c41e       _atoi                      0046d41e f   LIBCMT:atox.obj
 0001:0006c429       __atoi64                   0046d429 f   LIBCMT:atox.obj
 0001:0006c43f       __endthread                0046d43f f   LIBCMT:thread.obj
 0001:0006c540       __beginthread              0046d540 f   LIBCMT:thread.obj
 0001:0006c5f9       __chmod                    0046d5f9 f   LIBCMT:chmod.obj
 0001:0006c668       __get_errno_from_oserr     0046d668 f   LIBCMT:dosmap.obj
 0001:0006c6aa       __errno                    0046d6aa f   LIBCMT:dosmap.obj
 0001:0006c6bd       ___doserrno                0046d6bd f   LIBCMT:dosmap.obj
 0001:0006c6d0       __dosmaperr                0046d6d0 f   LIBCMT:dosmap.obj
 0001:0006c6f3       __access_s                 0046d6f3 f   LIBCMT:access.obj
 0001:0006c77c       __access                   0046d77c f   LIBCMT:access.obj
 0001:0006c794       _localeconv                0046d794 f   LIBCMT:lconv.obj
 0001:0006c7ba       ??_V@YAXPAX@Z              0046d7ba f   LIBCMT:delete2.obj
 0001:0006c7d0       _memchr                    0046d7d0 f   LIBCMT:memchr.obj
 0001:0006c880       _strncpy                   0046d880 f   LIBCMT:strncpy.obj
 0001:0006c9a4       ??0_LocaleUpdate@@QAE@PAUlocaleinfo_struct@@@Z 0046d9a4 f i LIBCMT:stricmp.obj
 0001:0006ca2b       ___ascii_stricmp           0046da2b f   LIBCMT:stricmp.obj
 0001:0006ca64       __stricmp_l                0046da64 f   LIBCMT:stricmp.obj
 0001:0006cb39       __stricmp                  0046db39 f   LIBCMT:stricmp.obj
 0001:0006cb90       _strcspn                   0046db90 f   LIBCMT:strcspn.obj
 0001:0006cbd6       _wcsncpy                   0046dbd6 f   LIBCMT:wcsncpy.obj
 0001:0006ccda       ___onexitinit              0046dcda f   LIBCMT:onexit.obj
 0001:0006cd0b       __onexit                   0046dd0b f   LIBCMT:onexit.obj
 0001:0006cd47       _atexit                    0046dd47 f   LIBCMT:onexit.obj
 0001:0006cd5e       _calloc                    0046dd5e f   LIBCMT:calloc.obj
 0001:0006cd9e       __recalloc                 0046dd9e f   LIBCMT:recalloc.obj
 0001:0006ce20       _memcpy                    0046de20 f   LIBCMT:memcpy.obj
 0001:0006d185       __toupper_l                0046e185 f   LIBCMT:toupper.obj
 0001:0006d29b       _toupper                   0046e29b f   LIBCMT:toupper.obj
 0001:0006d2c7       __waccess_s                0046e2c7 f   LIBCMT:waccess.obj
 0001:0006d350       __waccess                  0046e350 f   LIBCMT:waccess.obj
 0001:0006d368       __tolower_l                0046e368 f   LIBCMT:tolower.obj
 0001:0006d47d       _tolower                   0046e47d f   LIBCMT:tolower.obj
 0001:0006d4a9       __time64                   0046e4a9 f   LIBCMT:time64.obj
 0001:0006d510       _strchr                    0046e510 f   LIBCMT:strchr.obj
 0001:0006d516       ___from_strstr_to_strchr   0046e516     LIBCMT:strchr.obj
 0001:0006d5d0       _strrchr                   0046e5d0 f   LIBCMT:strrchr.obj
 0001:0006d5fd       _wcsrchr                   0046e5fd f   LIBCMT:wcsrchr.obj
 0001:0006d630       _memmove                   0046e630 f   LIBCMT:memmove.obj
 0001:0006d9a0       _ceil                      0046e9a0 f   LIBCMT:_ceil_pentium4_.obj
 0001:0006d9e0       __ceil_pentium4            0046e9e0 f   LIBCMT:_ceil_pentium4_.obj
 0001:0006dac0       __ftol2_sse                0046eac0 f   LIBCMT:ftol2.obj
 0001:0006dac9       __ftol2_pentium4           0046eac9 f   LIBCMT:ftol2.obj
 0001:0006dadc       __ftol2_sse_excpt          0046eadc f   LIBCMT:ftol2.obj
 0001:0006daf6       __ftol2                    0046eaf6 f   LIBCMT:ftol2.obj
 0001:0006db70       _floor                     0046eb70 f   LIBCMT:_floor_pentium4_.obj
 0001:0006dbb0       __floor_pentium4           0046ebb0 f   LIBCMT:_floor_pentium4_.obj
 0001:0006dc91       __flush                    0046ec91 f   LIBCMT:fflush.obj
 0001:0006dcf9       __fflush_nolock            0046ecf9 f   LIBCMT:fflush.obj
 0001:0006de1b       _fflush                    0046ee1b f   LIBCMT:fflush.obj
 0001:0006de6e       __flushall                 0046ee6e f   LIBCMT:fflush.obj
 0001:0006de77       __set_osfhnd               0046ee77 f   LIBCMT:osfinfo.obj
 0001:0006def8       __free_osfhnd              0046eef8 f   LIBCMT:osfinfo.obj
 0001:0006df7e       __get_osfhandle            0046ef7e f   LIBCMT:osfinfo.obj
 0001:0006dff5       ___lock_fhandle            0046eff5 f   LIBCMT:osfinfo.obj
 0001:0006e095       __unlock_fhandle           0046f095 f   LIBCMT:osfinfo.obj
 0001:0006e0bc       __alloc_osfhnd             0046f0bc f   LIBCMT:osfinfo.obj
 0001:0006e256       __fileno                   0046f256 f   LIBCMT:fileno.obj
 0001:0006e288       _ferror                    0046f288 f   LIBCMT:feoferr.obj
 0001:0006e2bc       __wcsicmp_l                0046f2bc f   LIBCMT:wcsicmp.obj
 0001:0006e3cd       __wcsicmp                  0046f3cd f   LIBCMT:wcsicmp.obj
 0001:0006e460       __snprintf                 0046f460 f   LIBCMT:snprintf.obj
 0001:0006e50f       __write_nolock             0046f50f f   LIBCMT:write.obj
 0001:0006ec42       __write                    0046fc42 f   LIBCMT:write.obj
 0001:0006ed1e       __close_nolock             0046fd1e f   LIBCMT:close.obj
 0001:0006edba       __close                    0046fdba f   LIBCMT:close.obj
 0001:0006ee87       ?_open@@YAHPBDHH@Z         0046fe87 f   LIBCMT:openo.obj
 0001:0006eeb4       __freea                    0046feb4 f i LIBCMT:strupr.obj
 0001:0006eed4       _strcpy_s                  0046fed4 f   LIBCMT:strcpy_s.obj
 0001:0006f16b       _strtol                    0047016b f   LIBCMT:strtol.obj
 0001:0006f206       _swscanf                   00470206 f   LIBCMT:swscanf.obj
 0001:0006f228       _swscanf_s                 00470228 f   LIBCMT:swscanf.obj
 0001:0006f24a       __isupper_l                0047024a f i LIBCMT:_ctype.obj
 0001:0006f29b       _isupper                   0047029b f i LIBCMT:_ctype.obj
 0001:0006f2c9       __islower_l                004702c9 f i LIBCMT:_ctype.obj
 0001:0006f31a       _islower                   0047031a f i LIBCMT:_ctype.obj
 0001:0006f348       __isdigit_l                00470348 f i LIBCMT:_ctype.obj
 0001:0006f399       _isdigit                   00470399 f i LIBCMT:_ctype.obj
 0001:0006f3c7       __isxdigit_l               004703c7 f i LIBCMT:_ctype.obj
 0001:0006f41d       _isxdigit                  0047041d f i LIBCMT:_ctype.obj
 0001:0006f44d       __isspace_l                0047044d f i LIBCMT:_ctype.obj
 0001:0006f49e       _isspace                   0047049e f i LIBCMT:_ctype.obj
 0001:0006f4cc       __isalnum_l                004704cc f i LIBCMT:_ctype.obj
 0001:0006f522       _isalnum                   00470522 f i LIBCMT:_ctype.obj
 0001:0006f552       _strcat_s                  00470552 f   LIBCMT:strcat_s.obj
 0001:0006f5c6       __endthreadex              004705c6 f   LIBCMT:threadex.obj
 0001:0006f6c7       __beginthreadex            004706c7 f   LIBCMT:threadex.obj
 0001:0006f780       __aullrem                  00470780 f   LIBCMT:ullrem.obj
 0001:0006f7f5       __fread_nolock_s           004707f5 f   LIBCMT:fread.obj
 0001:0006f9ff       _fread_s                   004709ff f   LIBCMT:fread.obj
 0001:0006fa95       _fread                     00470a95 f   LIBCMT:fread.obj
 0001:0006fab2       __findclose                00470ab2 f   LIBCMT:findfile.obj
 0001:0006fad8       ___time64_t_from_ft        00470ad8 f   LIBCMT:findfi32.obj
 0001:0006fb40       __findfirst64i32           00470b40 f   LIBCMT:findfi32.obj
 0001:0006fc70       __findnext64i32            00470c70 f   LIBCMT:findfi32.obj
 0001:0006fe79       __stat64i32                00470e79 f   LIBCMT:stati32.obj
 0001:0007045f       _WinMainCRTStartup         0047145f f   LIBCMT:wincrt0.obj
 0001:00070470       __aullshr                  00471470 f   LIBCMT:ullshr.obj
 0001:00070490       __allshl                   00471490 f   LIBCMT:llshl.obj
 0001:000704b0       _strlen                    004714b0 f   LIBCMT:strlen.obj
 0001:0007053b       __EH_prolog3               0047153b f   LIBCMT:ehprolg3.obj
 0001:0007056e       __EH_prolog3_catch         0047156e f   LIBCMT:ehprolg3.obj
 0001:000705a4       __EH_epilog3               004715a4 f   LIBCMT:ehprolg3.obj
 0001:0007095d       ___crtLCMapStringA         0047195d f   LIBCMT:a_map.obj
 0001:000709a2       ___pctype_func             004719a2 f   LIBCMT:ctype.obj
 0001:000709cb       ___init_ctype              004719cb f   LIBCMT:initctyp.obj
 0001:00070d6d       ____mb_cur_max_func        00471d6d f   LIBCMT:initctyp.obj
 0001:00070d96       ____mb_cur_max_l_func      00471d96 f   LIBCMT:initctyp.obj
 0001:00070db2       ____lc_codepage_func       00471db2 f   LIBCMT:initctyp.obj
 0001:00070dd8       ____lc_handle_func         00471dd8 f   LIBCMT:initctyp.obj
 0001:00070dfe       __malloc_crt               00471dfe f   LIBCMT:crtheap.obj
 0001:00070e43       __calloc_crt               00471e43 f   LIBCMT:crtheap.obj
 0001:00070e8f       __realloc_crt              00471e8f f   LIBCMT:crtheap.obj
 0001:00070edd       __recalloc_crt             00471edd f   LIBCMT:crtheap.obj
 0001:00070f2f       _abort                     00471f2f f   LIBCMT:abort.obj
 0001:00071046       __set_abort_behavior       00472046 f   LIBCMT:abort.obj
 0001:00071067       ___freetlocinfo            00472067 f   LIBCMT:setlocal.obj
 0001:000711b0       ___addlocaleref            004721b0 f   LIBCMT:setlocal.obj
 0001:0007123f       ___removelocaleref         0047223f f   LIBCMT:setlocal.obj
 0001:0007133c       ___updatetlocinfo          0047233c f   LIBCMT:setlocal.obj
 0001:00071405       __free_locale              00472405 f   LIBCMT:setlocal.obj
 0001:000714c7       ___init_dummy              004724c7 f   LIBCMT:setlocal.obj
 0001:000714c7       __matherr                  004724c7 f   LIBCMT:_matherr_.obj
 0001:000714c7       ___init_collate            004724c7 f   LIBCMT:initcoll.obj
 0001:000714ca       __strcats                  004724ca f   LIBCMT:setlocal.obj
 0001:0007150a       ___lc_strtolc              0047250a f   LIBCMT:setlocal.obj
 0001:00071633       ___lc_lctostr              00472633 f   LIBCMT:setlocal.obj
 0001:0007181d       __expandlocale             0047281d f   LIBCMT:setlocal.obj
 0001:00071f6b       __create_locale            00472f6b f   LIBCMT:setlocal.obj
 0001:00072060       _setlocale                 00473060 f   LIBCMT:setlocal.obj
 0001:000721d0       ___crtGetStringTypeW       004731d0 f   LIBCMT:w_str.obj
 0001:0007220e       ___crtLCMapStringW         0047320e f   LIBCMT:w_map.obj
 0001:00072342       __itoa_s                   00473342 f   LIBCMT:xtoas.obj
 0001:00072464       __ui64toa_s                00473464 f   LIBCMT:xtoas.obj
 0001:00072483       ??0bad_exception@std@@QAE@PBD@Z 00473483 f i LIBCMT:frame.obj
 0001:000724a1       ??1bad_exception@std@@UAE@XZ 004734a1 f i LIBCMT:frame.obj
 0001:000724ac       ??_Gbad_exception@std@@UAEPAXI@Z 004734ac f i LIBCMT:frame.obj
 0001:000724ac       ??_Ebad_exception@std@@UAEPAXI@Z 004734ac f i LIBCMT:frame.obj
 0001:000724d3       ___TypeMatch               004734d3 f   LIBCMT:frame.obj
 0001:00072532       ___FrameUnwindFilter       00473532 f   LIBCMT:frame.obj
 0001:0007257b       ___FrameUnwindToState      0047357b f   LIBCMT:frame.obj
 0001:000726a1       ___DestructExceptionObject 004736a1 f   LIBCMT:frame.obj
 0001:000726f6       ___AdjustPointer           004736f6 f   LIBCMT:frame.obj
 0001:0007271f       ?__uncaught_exception@@YA_NXZ 0047371f f   LIBCMT:frame.obj
 0001:00072992       ___BuildCatchObjectHelper  00473992 f   LIBCMT:frame.obj
 0001:00072b11       ___BuildCatchObject        00473b11 f   LIBCMT:frame.obj
 0001:0007304c       ??0bad_exception@std@@QAE@ABV01@@Z 0047404c f i LIBCMT:frame.obj
 0001:00073069       ___InternalCxxFrameHandler 00474069 f   LIBCMT:frame.obj
 0001:0007314f       ?_Type_info_dtor@type_info@@CAXPAV1@@Z 0047414f f   LIBCMT:typname.obj
 0001:000731c0       _strcmp                    004741c0 f   LIBCMT:strcmp.obj
 0001:00073248       __NMSG_WRITE               00474248 f   LIBCMT:crt0msg.obj
 0001:000733f3       __FF_MSGBANNER             004743f3 f   LIBCMT:crt0msg.obj
 0001:0007342c       __encode_pointer           0047442c f   LIBCMT:tidtable.obj
 0001:0007349e       __encoded_null             0047449e f   LIBCMT:tidtable.obj
 0001:000734a7       __decode_pointer           004744a7 f   LIBCMT:tidtable.obj
 0001:00073519       ___crtTlsAlloc@4           00474519 f   LIBCMT:tidtable.obj
 0001:00073522       ___fls_getvalue@4          00474522 f   LIBCMT:tidtable.obj
 0001:0007353c       ___get_flsindex            0047453c f   LIBCMT:tidtable.obj
 0001:00073542       ___set_flsgetvalue         00474542 f   LIBCMT:tidtable.obj
 0001:00073576       ___fls_setvalue@8          00474576 f   LIBCMT:tidtable.obj
 0001:00073593       __mtterm                   00474593 f   LIBCMT:tidtable.obj
 0001:000735d0       __initptd                  004745d0 f   LIBCMT:tidtable.obj
 0001:000736b7       __getptd_noexit            004746b7 f   LIBCMT:tidtable.obj
 0001:00073730       __getptd                   00474730 f   LIBCMT:tidtable.obj
 0001:0007374a       __freefls@4                0047474a f   LIBCMT:tidtable.obj
 0001:00073879       __freeptd                  00474879 f   LIBCMT:tidtable.obj
 0001:000738e7       __mtinit                   004748e7 f   LIBCMT:tidtable.obj
 0001:00073a74       ___getlocaleinfo           00474a74 f   LIBCMT:inithelp.obj
 0001:00073bf3       __initp_misc_purevirt      00474bf3 f   LIBCMT:inithelp.obj
 0001:00073c02       __initp_heap_handler       00474c02 f   LIBCMT:handler.obj
 0001:00073c11       __callnewh                 00474c11 f   LIBCMT:handler.obj
 0001:00073c39       __heap_init                00474c39 f   LIBCMT:heapinit.obj
 0001:00073c69       __mtinitlocks              00474c69 f   LIBCMT:mlock.obj
 0001:00073cb4       __mtdeletelocks            00474cb4 f   LIBCMT:mlock.obj
 0001:00073d0b       __unlock                   00474d0b f   LIBCMT:mlock.obj
 0001:00073d22       __mtinitlocknum            00474d22 f   LIBCMT:mlock.obj
 0001:00073de5       __lock                     00474de5 f   LIBCMT:mlock.obj
 0001:00073e18       ___sbh_find_block          00474e18 f   LIBCMT:sbheap.obj
 0001:00073e48       ___sbh_free_block          00474e48 f   LIBCMT:sbheap.obj
 0001:0007415e       ___sbh_alloc_new_region    0047515e f   LIBCMT:sbheap.obj
 0001:0007420e       ___sbh_alloc_new_group     0047520e f   LIBCMT:sbheap.obj
 0001:00074316       ___sbh_resize_block        00475316 f   LIBCMT:sbheap.obj
 0001:000745f7       ___sbh_alloc_block         004755f7 f   LIBCMT:sbheap.obj
 0001:000748dc       __SEH_prolog4              004758dc f   LIBCMT:sehprolg4.obj
 0001:00074921       __SEH_epilog4              00475921 f   LIBCMT:sehprolg4.obj
 0001:00074940       __except_handler4          00475940 f   LIBCMT:chandler4.obj
 0001:00074acc       ___report_gsfailure        00475acc f   LIBCMT:gs_report.obj
 0001:00074bd2       __flsbuf                   00475bd2 f   LIBCMT:_flsbuf.obj
 0001:00074d83       __output_l                 00475d83 f   LIBCMT:output.obj
 0001:0007591b       __vsnprintf_helper         0047691b f   LIBCMT:vsnprnc.obj
 0001:000759e7       __vsprintf_s_l             004769e7 f   LIBCMT:vsnprnc.obj
 0001:00075ac6       __VEC_memzero              00476ac6 f   LIBCMT:p4_memset.obj
 0001:00075ba5       __get_sse2_info            00476ba5 f   LIBCMT:cpu_disp.obj
 0001:00075c07       ___sse2_available_init     00476c07 f   LIBCMT:cpu_disp.obj
 0001:00075c14       __crt_debugger_hook        00476c14 f   LIBCMT:dbghook.obj
 0001:00075ce6       __input_l                  00476ce6 f   LIBCMT:input.obj
 0001:00076ca3       ?terminate@@YAXXZ          00477ca3 f   LIBCMT:hooks.obj
 0001:00076cdc       ?unexpected@@YAXXZ         00477cdc f   LIBCMT:hooks.obj
 0001:00076cef       ?_inconsistency@@YAXXZ     00477cef f   LIBCMT:hooks.obj
 0001:00076d27       __initp_eh_hooks           00477d27 f   LIBCMT:hooks.obj
 0001:00076d40       __CallSettingFrame@12      00477d40 f   LIBCMT:lowhelpr.obj
 0001:00076d67       __NLG_Return               00477d67     LIBCMT:lowhelpr.obj
 0001:00076de2       __woutput_l                00477de2 f   LIBCMT:woutput.obj
 0001:0007797a       __freebuf                  0047897a f   LIBCMT:_freebuf.obj
 0001:000779ab       ___iob_func                004789ab f   LIBCMT:_file.obj
 0001:000779b1       ___initstdio               004789b1 f   LIBCMT:_file.obj
 0001:00077a62       ___endstdio                00478a62 f   LIBCMT:_file.obj
 0001:00077a82       __lock_file                00478a82 f   LIBCMT:_file.obj
 0001:00077ac3       __lock_file2               00478ac3 f   LIBCMT:_file.obj
 0001:00077af5       __unlock_file              00478af5 f   LIBCMT:_file.obj
 0001:00077b31       __unlock_file2             00478b31 f   LIBCMT:_file.obj
 0001:00077b60       __stbuf                    00478b60 f   LIBCMT:_sftbuf.obj
 0001:00077bfc       __ftbuf                    00478bfc f   LIBCMT:_sftbuf.obj
 0001:00077c30       __ioinit                   00478c30 f   LIBCMT:ioinit.obj
 0001:00077e84       __fwrite_nolock            00478e84 f   LIBCMT:fwrite.obj
 0001:00077fe6       __openfile                 00478fe6 f   LIBCMT:_open.obj
 0001:000782af       __getstream                004792af f   LIBCMT:stream.obj
 0001:000783e8       __local_unwind4            004793e8 f   LIBCMT:exsup4.obj
 0001:000784be       __seh_longjmp_unwind4@4    004794be f   LIBCMT:exsup4.obj
 0001:000784da       @_EH4_CallFilterFunc@8     004794da f   LIBCMT:exsup4.obj
 0001:000784f1       @_EH4_TransferToHandler@8  004794f1 f   LIBCMT:exsup4.obj
 0001:0007850a       @_EH4_GlobalUnwind@4       0047950a f   LIBCMT:exsup4.obj
 0001:00078524       @_EH4_LocalUnwind@16       00479524 f   LIBCMT:exsup4.obj
 0001:0007853b       __vswprintf_helper         0047953b f   LIBCMT:vswprnc.obj
 0001:00078633       __vswprintf_s_l            00479633 f   LIBCMT:vswprnc.obj
 0001:000786be       __RTC_Initialize           004796be f   LIBCMT:_initsect_.obj
 0001:000786e4       __RTC_Terminate            004796e4 f   LIBCMT:_initsect_.obj
 0001:0007870a       __initp_misc_cfltcvt_tab   0047970a f   LIBCMT:cmiscdat.obj
 0001:00078730       __ValidateImageBase        00479730 f   LIBCMT:pesect.obj
 0001:00078770       __FindPESection            00479770 f   LIBCMT:pesect.obj
 0001:000787c0       __IsNonwritableInCurrentImage 004797c0 f   LIBCMT:pesect.obj
 0001:0007887d       __XcptFilter               0047987d f   LIBCMT:winxfltr.obj
 0001:000789dd       __initp_misc_winsig        004799dd f   LIBCMT:winsig.obj
 0001:00078a32       ___get_sigabrt             00479a32 f   LIBCMT:winsig.obj
 0001:00078a3f       _raise                     00479a3f f   LIBCMT:winsig.obj
 0001:00078bef       __initp_misc_rand_s        00479bef f   LIBCMT:rand_s.obj
 0001:00078bfe       __initp_misc_initcrit      00479bfe f   LIBCMT:initcrit.obj
 0001:00078c0d       ___crtInitCritSecAndSpinCount 00479c0d f   LIBCMT:initcrit.obj
 0001:00078c6d       __forcdecpt_l              00479c6d f   LIBCMT:cvt.obj
 0001:00078ce0       __cropzeros_l              00479ce0 f   LIBCMT:cvt.obj
 0001:00078d62       __positive                 00479d62 f   LIBCMT:cvt.obj
 0001:00078d7e       __fassign_l                00479d7e f   LIBCMT:cvt.obj
 0001:00078dc0       __fassign                  00479dc0 f   LIBCMT:cvt.obj
 0001:00078df9       __forcdecpt                00479df9 f   LIBCMT:cvt.obj
 0001:00078e0c       __cropzeros                00479e0c f   LIBCMT:cvt.obj
 0001:00078f8e       __cftoe_l                  00479f8e f   LIBCMT:cvt.obj
 0001:0007905e       __cftoe                    0047a05e f   LIBCMT:cvt.obj
 0001:0007907e       __cftoa_l                  0047a07e f   LIBCMT:cvt.obj
 0001:000794e8       __cftof_l                  0047a4e8 f   LIBCMT:cvt.obj
 0001:000795a3       __cftog_l                  0047a5a3 f   LIBCMT:cvt.obj
 0001:0007969d       __cfltcvt_l                0047a69d f   LIBCMT:cvt.obj
 0001:00079725       __cfltcvt                  0047a725 f   LIBCMT:cvt.obj
 0001:00079748       __setdefaultprecision      0047a748 f   LIBCMT:fp8.obj
 0001:00079773       __ms_p5_test_fdiv          0047a773 f   LIBCMT:_testfdiv_.obj
 0001:000797b1       __ms_p5_mp_test_fdiv       0047a7b1 f   LIBCMT:_testfdiv_.obj
 0001:00079a71       __strtoi64                 0047aa71 f   LIBCMT:strtoq.obj
 0001:00079cc2       ___updatetmbcinfo          0047acc2 f   LIBCMT:mbctype.obj
 0001:00079de2       __setmbcp_nolock           0047ade2 f   LIBCMT:mbctype.obj
 0001:00079fc7       __setmbcp                  0047afc7 f   LIBCMT:mbctype.obj
 0001:0007a161       ___initmbctable            0047b161 f   LIBCMT:mbctype.obj
 0001:0007a17f       __msize                    0047b17f f   LIBCMT:msize.obj
 0001:0007a222       __calloc_impl              0047b222 f   LIBCMT:calloc_impl.obj
 0001:0007a340       _realloc                   0047b340 f   LIBCMT:realloc.obj
 0001:0007a5e2       __VEC_memcpy               0047b5e2 f   LIBCMT:p4_memcpy.obj
 0001:0007a6c5       __isleadbyte_l             0047b6c5 f i LIBCMT:_wctype.obj
 0001:0007a6fd       _isleadbyte                0047b6fd f i LIBCMT:_wctype.obj
 0001:0007a710       __isctype_l                0047b710 f   LIBCMT:isctype.obj
 0001:0007a7c8       ___libm_error_support      0047b7c8 f   LIBCMT:_libm_error_.obj
 0001:0007aa78       __sse2_mathfcns_init       0047ba78 f   LIBCMT:_mathfcns_.obj
 0001:0007aa8c       __ceil_default             0047ba8c f   LIBCMT:_ceil_.obj
 0001:0007ab61       __floor_default            0047bb61 f   LIBCMT:_floor_.obj
 0001:0007ac36       __commit                   0047bc36 f   LIBCMT:commit.obj
 0001:0007ad17       __towlower_l               0047bd17 f   LIBCMT:towlower.obj
 0001:0007adcc       __putwch_nolock            0047bdcc f   LIBCMT:putwch.obj
 0001:0007ae91       __mbtowc_l                 0047be91 f   LIBCMT:mbtowc.obj
 0001:0007afa8       _mbtowc                    0047bfa8 f   LIBCMT:mbtowc.obj
 0001:0007afc2       __isatty                   0047bfc2 f   LIBCMT:isatty.obj
 0001:0007b026       __lseeki64_nolock          0047c026 f   LIBCMT:lseeki64.obj
 0001:0007b0ab       __lseeki64                 0047c0ab f   LIBCMT:lseeki64.obj
 0001:0007b8e3       __sopen_helper             0047c8e3 f   LIBCMT:open.obj
 0001:0007b9af       __sopen_s                  0047c9af f   LIBCMT:open.obj
 0001:0007b9d0       __alloca_probe_16          0047c9d0 f   LIBCMT:alloca16.obj
 0001:0007b9e6       __alloca_probe_8           0047c9e6     LIBCMT:alloca16.obj
 0001:0007b9fc       _wcslen                    0047c9fc f   LIBCMT:wcslen.obj
 0001:0007baa2       __winput_l                 0047caa2 f   LIBCMT:winput.obj
 0001:0007cbf1       __winput_s_l               0047dbf1 f   LIBCMT:winputs.obj
 0001:0007de12       __filbuf                   0047ee12 f   LIBCMT:_filbuf.obj
 0001:0007df3d       __read_nolock              0047ef3d f   LIBCMT:read.obj
 0001:0007e4ff       __read                     0047f4ff f   LIBCMT:read.obj
 0001:0007e5fc       ___loctotime64_t           0047f5fc f   LIBCMT:dtoxtm64.obj
 0001:0007e867       __fullpath                 0047f867 f   LIBCMT:fullpath.obj
 0001:0007e971       ___dtoxmode                0047f971 f   LIBCMT:stat.obj
 0001:0007ea2e       __fstat64i32               0047fa2e f   LIBCMT:fstati32.obj
 0001:0007ed85       __getdrive                 0047fd85 f   LIBCMT:drive.obj
 0001:0007ee4e       __mbctolower_l             0047fe4e f   LIBCMT:mbtolwr.obj
 0001:0007eef4       __mbctolower               0047fef4 f   LIBCMT:mbtolwr.obj
 0001:0007ef07       __mbspbrk_l                0047ff07 f   LIBCMT:mbspbrk.obj
 0001:0007efd4       __mbspbrk                  0047ffd4 f   LIBCMT:mbspbrk.obj
 0001:0007efeb       __fputwc_nolock            0047ffeb f   LIBCMT:fputwc.obj
 0001:0007f172       ?__CxxUnhandledExceptionFilter@@YGJPAU_EXCEPTION_POINTERS@@@Z 00480172 f   LIBCMT:unhandld.obj
 0001:0007f1b4       ___CxxSetUnhandledExceptionFilter 004801b4 f   LIBCMT:unhandld.obj
 0001:0007f1c2       __wincmdln                 004801c2 f   LIBCMT:wincmdln.obj
 0001:0007f221       __setenvp                  00480221 f   LIBCMT:stdenvp.obj
 0001:0007f499       __setargv                  00480499 f   LIBCMT:stdargv.obj
 0001:0007f554       ___crtGetEnvironmentStringsA 00480554 f   LIBCMT:a_env.obj
 0001:0007f68b       ___security_init_cookie    0048068b f   LIBCMT:gs_support.obj
 0001:0007f721       ___ansicp                  00480721 f   LIBCMT:convrtcp.obj
 0001:0007f76a       ___convertcp               0048076a f   LIBCMT:convrtcp.obj
 0001:0007fad8       ___crtGetStringTypeA       00480ad8 f   LIBCMT:a_str.obj
 0001:0007ff35       ___free_lc_time            00480f35 f   LIBCMT:inittime.obj
 0001:000800ca       ___init_time               004810ca f   LIBCMT:inittime.obj
 0001:00080143       ___free_lconv_num          00481143 f   LIBCMT:initnum.obj
 0001:00080188       ___init_numeric            00481188 f   LIBCMT:initnum.obj
 0001:00080352       ___free_lconv_mon          00481352 f   LIBCMT:initmon.obj
 0001:000803e0       ___init_monetary           004813e0 f   LIBCMT:initmon.obj
 0001:000806a6       _strncpy_s                 004816a6 f   LIBCMT:strncpy_s.obj
 0001:00080d16       ___get_qualified_locale    00481d16 f   LIBCMT:getqloc.obj
 0001:00080f07       _memcmp                    00481f07 f   LIBCMT:memcmp.obj
 0001:00082590       _strpbrk                   00483590 f   LIBCMT:strpbrk.obj
 0001:000825d0       __aulldvrm                 004835d0 f   LIBCMT:ulldvrm.obj
 0001:00082665       ?_ValidateExecute@@YAHP6GHXZ@Z 00483665 f   LIBCMT:validate.obj
 0001:00082665       ?_ValidateWrite@@YAHPAXI@Z 00483665 f   LIBCMT:validate.obj
 0001:00082665       ?_ValidateRead@@YAHPBXI@Z  00483665 f   LIBCMT:validate.obj
 0001:00082677       ___crtMessageBoxA          00483677 f   LIBCMT:crtmbox.obj
 0001:000827e0       __set_error_mode           004837e0 f   LIBCMT:errmode.obj
 0001:0008282b       ___crtGetLocaleInfoW       0048382b f   LIBCMT:w_loc.obj
 0001:0008299e       ___crtGetLocaleInfoA       0048399e f   LIBCMT:a_loc.obj
 0001:000829db       __getbuf                   004839db f   LIBCMT:_getbuf.obj
 0001:00082a24       __get_printf_count_output  00483a24 f   LIBCMT:printf.obj
 0001:00082a3a       __wctomb_s_l               00483a3a f   LIBCMT:wctomb.obj
 0001:00082ba6       _wctomb_s                  00483ba6 f   LIBCMT:wctomb.obj
 0001:00082c1c       __output_s_l               00483c1c f   LIBCMT:outputs.obj
 0001:000837ec       __ungetc_nolock            004847ec f   LIBCMT:ungetc.obj
 0001:000838dd       _ungetc                    004848dd f   LIBCMT:ungetc.obj
 0001:00083950       __global_unwind2           00484950 f   LIBCMT:exsup.obj
 0001:000839b5       __local_unwind2            004849b5 f   LIBCMT:exsup.obj
 0001:00083a39       __abnormal_termination     00484a39 f   LIBCMT:exsup.obj
 0001:00083a5c       __NLG_Notify1              00484a5c f   LIBCMT:exsup.obj
 0001:00083a65       __NLG_Notify               00484a65 f   LIBCMT:exsup.obj
 0001:00083a7c       __NLG_Dispatch             00484a7c     LIBCMT:exsup.obj
 0001:00083a7c       __NLG_Dispatch2            00484a7c     LIBCMT:exsup.obj
 0001:00083a84       __NLG_Call                 00484a84 f   LIBCMT:exsup.obj
 0001:00083a86       __NLG_Return2              00484a86     LIBCMT:exsup.obj
 0001:00083a87       __fcloseall                00484a87 f   LIBCMT:closeall.obj
 0001:00083b26       __mbsnbicmp_l              00484b26 f   LIBCMT:mbsnbicm.obj
 0001:00083d51       __mbsnbicmp                00484d51 f   LIBCMT:mbsnbicm.obj
 0001:00083d6b       __mbsnbcmp_l               00484d6b f   LIBCMT:mbsnbcmp.obj
 0001:00083ed5       __mbsnbcmp                 00484ed5 f   LIBCMT:mbsnbcmp.obj
 0001:00083f41       __woutput_s_l              00484f41 f   LIBCMT:woutputs.obj
 0001:00084ae1       __fptrap                   00485ae1 f   LIBCMT:crt0fp.obj
 0001:00084aea       __atodbl_l                 00485aea f   LIBCMT:atodbl.obj
 0001:00084b92       __atoflt_l                 00485b92 f   LIBCMT:atodbl.obj
 0001:00084c3a       __fptostr                  00485c3a f   LIBCMT:_fptostr.obj
 0001:00084cf9       ___dtold                   00485cf9 f   LIBCMT:_cfout_.obj
 0001:00084db1       __fltout2                  00485db1 f   LIBCMT:_cfout_.obj
 0001:00084e50       __alldvrm                  00485e50 f   LIBCMT:lldvrm.obj
 0001:00084f2f       __controlfp_s              00485f2f f   LIBCMT:_contrlfp_.obj
 0001:00084f9b       __iswctype_l               00485f9b f   LIBCMT:iswctype.obj
 0001:00085025       _iswctype                  00486025 f   LIBCMT:iswctype.obj
 0001:0008509b       __raise_exc_ex             0048609b f   LIBCMT:_fpexcept_.obj
 0001:00085377       __raise_exc                00486377 f   LIBCMT:_fpexcept_.obj
 0001:0008539a       __handle_exc               0048639a f   LIBCMT:_fpexcept_.obj
 0001:0008557c       __set_errno_from_matherr   0048657c f   LIBCMT:_fpexcept_.obj
 0001:000855a9       __errcode                  004865a9 f   LIBCMT:_fpexcept_.obj
 0001:000855dd       __umatherr                 004865dd f   LIBCMT:_fpexcept_.obj
 0001:0008567d       __handle_qnan1             0048667d f   LIBCMT:_fpexcept_.obj
 0001:000856d2       __except1                  004866d2 f   LIBCMT:_fpexcept_.obj
 0001:0008579b       __frnd                     0048679b f   LIBCMT:_frnd_.obj
 0001:000857af       __set_exp                  004867af f   LIBCMT:_util_.obj
 0001:000857db       __sptype                   004867db f   LIBCMT:_util_.obj
 0001:0008583b       __decomp                   0048683b f   LIBCMT:_util_.obj
 0001:000858f4       __statfp                   004868f4 f   LIBCMT:_fpctrl_.obj
 0001:00085904       __clrfp                    00486904 f   LIBCMT:_fpctrl_.obj
 0001:00085915       __ctrlfp                   00486915 f   LIBCMT:_fpctrl_.obj
 0001:0008593e       __set_statfp               0048693e f   LIBCMT:_fpctrl_.obj
 0001:00085996       ___set_fpsr_sse2           00486996 f   LIBCMT:_fpctrl_.obj
 0001:00085a08       ___initconout              00486a08 f   LIBCMT:initcon.obj
 0001:00085a27       ___termcon                 00486a27 f   LIBCMT:initcon.obj
 0001:00085a54       __chsize_nolock            00486a54 f   LIBCMT:chsize.obj
 0001:00085c0a       __lseek_nolock             00486c0a f   LIBCMT:lseek.obj
 0001:00085c7f       __setmode_nolock           00486c7f f   LIBCMT:setmode.obj
 0001:00085d3b       __get_fmode                00486d3b f   LIBCMT:setmode.obj
 0001:00085d74       __fgetwc_nolock            00486d74 f   LIBCMT:fgetwc.obj
 0001:00085f1f       __ungetwc_nolock           00486f1f f   LIBCMT:ungetwc.obj
 0001:000860d9       __wcstombs_l_helper        004870d9 f   LIBCMT:wcstombs.obj
 0001:0008631b       __wcstombs_s_l             0048731b f   LIBCMT:wcstombs.obj
 0001:000863d5       _wcstombs_s                004873d5 f   LIBCMT:wcstombs.obj
 0001:000863f5       __set_daylight             004873f5 f i LIBCMT:tzset.obj
 0001:00086406       __set_dstbias              00487406 f i LIBCMT:tzset.obj
 0001:00086417       __set_timezone             00487417 f i LIBCMT:tzset.obj
 0001:00086b3d       ___tzset                   00487b3d f   LIBCMT:tzset.obj
 0001:00086b8c       __isindst                  00487b8c f   LIBCMT:tzset.obj
 0001:00086bcd       __get_daylight             00487bcd f   LIBCMT:timeset.obj
 0001:00086c06       __get_dstbias              00487c06 f   LIBCMT:timeset.obj
 0001:00086c3f       __get_timezone             00487c3f f   LIBCMT:timeset.obj
 0001:00086c78       ___daylight                00487c78 f   LIBCMT:timeset.obj
 0001:00086c7e       ___dstbias                 00487c7e f   LIBCMT:timeset.obj
 0001:00086c84       ___timezone                00487c84 f   LIBCMT:timeset.obj
 0001:00086c8a       ___tzname                  00487c8a f   LIBCMT:timeset.obj
 0001:00086c90       __validdrive               00487c90 f   LIBCMT:getcwd.obj
 0001:00086cc9       __getdcwd_nolock           00487cc9 f   LIBCMT:getcwd.obj
 0001:00086e00       __getcwd                   00487e00 f   LIBCMT:getcwd.obj
 0001:00086e49       __mbsicmp_l                00487e49 f   LIBCMT:mbsicmp.obj
 0001:0008706f       __mbsicmp                  0048806f f   LIBCMT:mbsicmp.obj
 0001:00087086       __mbsrchr_l                00488086 f   LIBCMT:mbsrchr.obj
 0001:00087142       __mbsrchr                  00488142 f   LIBCMT:mbsrchr.obj
 0001:00087159       __flswbuf                  00488159 f   LIBCMT:_flswbuf.obj
 0001:00087320       __ismbblead                00488320 f   LIBCMT:ismbbyte.obj
 0001:00087338       __strnicmp_l               00488338 f   LIBCMT:strnicmp.obj
 0001:0008742a       __strnicmp                 0048842a f   LIBCMT:strnicmp.obj
 0001:00087488       __ld12tod                  00488488 f   LIBCMT:_intrncvt_.obj
 0001:000879cc       __ld12tof                  004889cc f   LIBCMT:_intrncvt_.obj
 0001:00087f10       ___strgtold12_l            00488f10 f   LIBCMT:_strgtold_.obj
 0001:00088608       _$I10_OUTPUT               00489608 f   LIBCMT:_x10fout_.obj
 0001:0008905d       __control87                0048a05d f i LIBCMT:_ieee87_.obj
 0001:0008936c       __filwbuf                  0048a36c f   LIBCMT:_filwbuf.obj
 0001:000894a5       __getenv_helper_nolock     0048a4a5 f   LIBCMT:getenv.obj
 0001:00089530       ___ascii_strnicmp          0048a530 f   LIBCMT:_strnicm.obj
 0001:00089591       ___mtold12                 0048a591 f   LIBCMT:_mantold_.obj
 0001:0008975f       __mbsnbicoll_l             0048a75f f   LIBCMT:mbsnbico.obj
 0001:0008984d       __mbsnbicoll               0048a84d f   LIBCMT:mbsnbico.obj
 0001:00089867       ___wtomb_environ           0048a867 f   LIBCMT:wtombenv.obj
 0001:00089c8c       ___crtCompareStringA       0048ac8c f   LIBCMT:a_cmp.obj
 0001:00089cce       __strnicoll_l              0048acce f   LIBCMT:strnicol.obj
 0001:00089e74       ___crtsetenv               0048ae74 f   LIBCMT:setenv.obj
 0001:0008a0bf       __strdup                   0048b0bf f   LIBCMT:strdup.obj
 0001:0008a114       __mbschr_l                 0048b114 f   LIBCMT:mbschr.obj
 0001:0008a1d0       __mbschr                   0048b1d0 f   LIBCMT:mbschr.obj
 0001:0008a1e8       _RtlUnwind@16              0048b1e8 f   kernel32:KERNEL32.dll
 0002:00000000       __imp__RegCloseKey@4       0048f000     advapi32:ADVAPI32.dll
 0002:00000004       __imp__RegDeleteValueA@8   0048f004     advapi32:ADVAPI32.dll
 0002:00000008       __imp__RegDeleteKeyA@8     0048f008     advapi32:ADVAPI32.dll
 0002:0000000c       __imp__RegCreateKeyExA@36  0048f00c     advapi32:ADVAPI32.dll
 0002:00000010       __imp__CryptAcquireContextA@20 0048f010     advapi32:ADVAPI32.dll
 0002:00000014       __imp__CryptGenRandom@12   0048f014     advapi32:ADVAPI32.dll
 0002:00000018       __imp__CryptReleaseContext@8 0048f018     advapi32:ADVAPI32.dll
 0002:0000001c       __imp__GetTokenInformation@20 0048f01c     advapi32:ADVAPI32.dll
 0002:00000020       __imp__IsWellKnownSid@8    0048f020     advapi32:ADVAPI32.dll
 0002:00000024       __imp__QueryServiceStatus@8 0048f024     advapi32:ADVAPI32.dll
 0002:00000028       __imp__ControlService@12   0048f028     advapi32:ADVAPI32.dll
 0002:0000002c       __imp__StartServiceA@12    0048f02c     advapi32:ADVAPI32.dll
 0002:00000030       __imp__OpenProcessToken@12 0048f030     advapi32:ADVAPI32.dll
 0002:00000034       __imp__LookupPrivilegeValueA@12 0048f034     advapi32:ADVAPI32.dll
 0002:00000038       __imp__AdjustTokenPrivileges@24 0048f038     advapi32:ADVAPI32.dll
 0002:0000003c       __imp__RegOpenKeyExA@20    0048f03c     advapi32:ADVAPI32.dll
 0002:00000040       __imp__RegQueryValueExA@24 0048f040     advapi32:ADVAPI32.dll
 0002:00000044       __imp__RegSetValueExA@24   0048f044     advapi32:ADVAPI32.dll
 0002:00000048       __imp__ChangeServiceConfigA@44 0048f048     advapi32:ADVAPI32.dll
 0002:0000004c       __imp__OpenSCManagerA@12   0048f04c     advapi32:ADVAPI32.dll
 0002:00000050       __imp__CreateServiceA@52   0048f050     advapi32:ADVAPI32.dll
 0002:00000054       __imp__ChangeServiceConfig2A@12 0048f054     advapi32:ADVAPI32.dll
 0002:00000058       __imp__OpenServiceA@12     0048f058     advapi32:ADVAPI32.dll
 0002:0000005c       __imp__CloseServiceHandle@4 0048f05c     advapi32:ADVAPI32.dll
 0002:00000060       __imp__DeleteService@4     0048f060     advapi32:ADVAPI32.dll
 0002:00000064       \177ADVAPI32_NULL_THUNK_DATA 0048f064     advapi32:ADVAPI32.dll
 0002:00000068       __imp__InitCommonControls@0 0048f068     comctl32:COMCTL32.dll
 0002:0000006c       \177COMCTL32_NULL_THUNK_DATA 0048f06c     comctl32:COMCTL32.dll
 0002:00000070       __imp__GetSaveFileNameW@4  0048f070     comdlg32:COMDLG32.dll
 0002:00000074       __imp__GetOpenFileNameW@4  0048f074     comdlg32:COMDLG32.dll
 0002:00000078       \177COMDLG32_NULL_THUNK_DATA 0048f078     comdlg32:COMDLG32.dll
 0002:0000007c       __imp__GetStockObject@4    0048f07c     gdi32:GDI32.dll
 0002:00000080       __imp__CreatePen@12        0048f080     gdi32:GDI32.dll
 0002:00000084       __imp__MoveToEx@16         0048f084     gdi32:GDI32.dll
 0002:00000088       __imp__LineTo@12           0048f088     gdi32:GDI32.dll
 0002:0000008c       __imp__GetCurrentObject@8  0048f08c     gdi32:GDI32.dll
 0002:00000090       __imp__GetObjectA@12       0048f090     gdi32:GDI32.dll
 0002:00000094       __imp__CreateCompatibleBitmap@12 0048f094     gdi32:GDI32.dll
 0002:00000098       __imp__CreateFontIndirectW@4 0048f098     gdi32:GDI32.dll
 0002:0000009c       __imp__StretchBlt@44       0048f09c     gdi32:GDI32.dll
 0002:000000a0       __imp__DeleteObject@4      0048f0a0     gdi32:GDI32.dll
 0002:000000a4       __imp__GetTextMetricsA@8   0048f0a4     gdi32:GDI32.dll
 0002:000000a8       __imp__GetTextExtentPoint32W@16 0048f0a8     gdi32:GDI32.dll
 0002:000000ac       __imp__SelectObject@8      0048f0ac     gdi32:GDI32.dll
 0002:000000b0       __imp__GetDeviceCaps@8     0048f0b0     gdi32:GDI32.dll
 0002:000000b4       __imp__SetMapMode@8        0048f0b4     gdi32:GDI32.dll
 0002:000000b8       __imp__CreateCompatibleDC@4 0048f0b8     gdi32:GDI32.dll
 0002:000000bc       __imp__BitBlt@36           0048f0bc     gdi32:GDI32.dll
 0002:000000c0       __imp__SetStretchBltMode@8 0048f0c0     gdi32:GDI32.dll
 0002:000000c4       __imp__DeleteDC@4          0048f0c4     gdi32:GDI32.dll
 0002:000000c8       \177GDI32_NULL_THUNK_DATA  0048f0c8     gdi32:GDI32.dll
 0002:000000cc       __imp__GetCommandLineW@0   0048f0cc     kernel32:KERNEL32.dll
 0002:000000d0       __imp__DefineDosDeviceA@12 0048f0d0     kernel32:KERNEL32.dll
 0002:000000d4       __imp__GetCurrentProcessId@0 0048f0d4     kernel32:KERNEL32.dll
 0002:000000d8       __imp__FormatMessageW@28   0048f0d8     kernel32:KERNEL32.dll
 0002:000000dc       __imp__VirtualQuery@12     0048f0dc     kernel32:KERNEL32.dll
 0002:000000e0       __imp__ReleaseMutex@4      0048f0e0     kernel32:KERNEL32.dll
 0002:000000e4       __imp__CreateMutexA@12     0048f0e4     kernel32:KERNEL32.dll
 0002:000000e8       __imp__OpenMutexA@12       0048f0e8     kernel32:KERNEL32.dll
 0002:000000ec       __imp__GetVolumeInformationW@32 0048f0ec     kernel32:KERNEL32.dll
 0002:000000f0       __imp__QueryPerformanceCounter@4 0048f0f0     kernel32:KERNEL32.dll
 0002:000000f4       __imp__QueryPerformanceFrequency@4 0048f0f4     kernel32:KERNEL32.dll
 0002:000000f8       __imp__GetLogicalDrives@0  0048f0f8     kernel32:KERNEL32.dll
 0002:000000fc       __imp__FlushFileBuffers@4  0048f0fc     kernel32:KERNEL32.dll
 0002:00000100       __imp__GetFileSize@8       0048f100     kernel32:KERNEL32.dll
 0002:00000104       __imp__GetCurrentProcess@0 0048f104     kernel32:KERNEL32.dll
 0002:00000108       __imp__GetProcAddress@8    0048f108     kernel32:KERNEL32.dll
 0002:0000010c       __imp__GetModuleHandleA@4  0048f10c     kernel32:KERNEL32.dll
 0002:00000110       __imp__GetVersionExA@4     0048f110     kernel32:KERNEL32.dll
 0002:00000114       __imp__GetCurrentDirectoryA@8 0048f114     kernel32:KERNEL32.dll
 0002:00000118       __imp__LockResource@4      0048f118     kernel32:KERNEL32.dll
 0002:0000011c       __imp__SizeofResource@8    0048f11c     kernel32:KERNEL32.dll
 0002:00000120       __imp__LoadResource@8      0048f120     kernel32:KERNEL32.dll
 0002:00000124       __imp__FindResourceA@12    0048f124     kernel32:KERNEL32.dll
 0002:00000128       __imp__GetFileAttributesA@4 0048f128     kernel32:KERNEL32.dll
 0002:0000012c       __imp__FindFirstFileA@8    0048f12c     kernel32:KERNEL32.dll
 0002:00000130       __imp__SetFilePointer@16   0048f130     kernel32:KERNEL32.dll
 0002:00000134       __imp__GetModuleFileNameW@12 0048f134     kernel32:KERNEL32.dll
 0002:00000138       __imp__SetCurrentDirectoryA@4 0048f138     kernel32:KERNEL32.dll
 0002:0000013c       __imp__QueryDosDeviceA@12  0048f13c     kernel32:KERNEL32.dll
 0002:00000140       __imp__FindNextFileA@8     0048f140     kernel32:KERNEL32.dll
 0002:00000144       __imp__UnhandledExceptionFilter@4 0048f144     kernel32:KERNEL32.dll
 0002:00000148       __imp__GetSystemInfo@4     0048f148     kernel32:KERNEL32.dll
 0002:0000014c       __imp__LoadLibraryA@4      0048f14c     kernel32:KERNEL32.dll
 0002:00000150       __imp__WaitForSingleObject@8 0048f150     kernel32:KERNEL32.dll
 0002:00000154       __imp__GetCurrentThread@0  0048f154     kernel32:KERNEL32.dll
 0002:00000158       __imp__SetUnhandledExceptionFilter@4 0048f158     kernel32:KERNEL32.dll
 0002:0000015c       __imp__SetErrorMode@4      0048f15c     kernel32:KERNEL32.dll
 0002:00000160       __imp__InterlockedExchangeAdd@8 0048f160     kernel32:KERNEL32.dll
 0002:00000164       __imp__InterlockedExchange@8 0048f164     kernel32:KERNEL32.dll
 0002:00000168       __imp__SetEvent@4          0048f168     kernel32:KERNEL32.dll
 0002:0000016c       __imp__ResetEvent@4        0048f16c     kernel32:KERNEL32.dll
 0002:00000170       __imp__CreateEventA@16     0048f170     kernel32:KERNEL32.dll
 0002:00000174       __imp__FreeLibrary@4       0048f174     kernel32:KERNEL32.dll
 0002:00000178       __imp__SetThreadPriority@8 0048f178     kernel32:KERNEL32.dll
 0002:0000017c       __imp__SetEndOfFile@4      0048f17c     kernel32:KERNEL32.dll
 0002:00000180       __imp__DeleteVolumeMountPointA@4 0048f180     kernel32:KERNEL32.dll
 0002:00000184       __imp__SetVolumeMountPointA@8 0048f184     kernel32:KERNEL32.dll
 0002:00000188       __imp__GetVolumeNameForVolumeMountPointA@12 0048f188     kernel32:KERNEL32.dll
 0002:0000018c       __imp__GetFileAttributesExA@12 0048f18c     kernel32:KERNEL32.dll
 0002:00000190       __imp__DeleteCriticalSection@4 0048f190     kernel32:KERNEL32.dll
 0002:00000194       __imp__LeaveCriticalSection@4 0048f194     kernel32:KERNEL32.dll
 0002:00000198       __imp__EnterCriticalSection@4 0048f198     kernel32:KERNEL32.dll
 0002:0000019c       __imp__GetStartupInfoA@4   0048f19c     kernel32:KERNEL32.dll
 0002:000001a0       __imp__GetProcessWorkingSetSize@12 0048f1a0     kernel32:KERNEL32.dll
 0002:000001a4       __imp__GetProcessTimes@20  0048f1a4     kernel32:KERNEL32.dll
 0002:000001a8       __imp__GetThreadTimes@20   0048f1a8     kernel32:KERNEL32.dll
 0002:000001ac       __imp__GlobalMemoryStatus@4 0048f1ac     kernel32:KERNEL32.dll
 0002:000001b0       __imp__GetProcessHeap@0    0048f1b0     kernel32:KERNEL32.dll
 0002:000001b4       __imp__InitializeCriticalSection@4 0048f1b4     kernel32:KERNEL32.dll
 0002:000001b8       __imp__LocalFree@4         0048f1b8     kernel32:KERNEL32.dll
 0002:000001bc       __imp__EnumSystemLocalesA@8 0048f1bc     kernel32:KERNEL32.dll
 0002:000001c0       __imp__GetUserDefaultLCID@0 0048f1c0     kernel32:KERNEL32.dll
 0002:000001c4       __imp__GetStringTypeA@20   0048f1c4     kernel32:KERNEL32.dll
 0002:000001c8       __imp__GetLocaleInfoA@16   0048f1c8     kernel32:KERNEL32.dll
 0002:000001cc       __imp__GetEnvironmentStringsW@0 0048f1cc     kernel32:KERNEL32.dll
 0002:000001d0       __imp__FreeEnvironmentStringsW@4 0048f1d0     kernel32:KERNEL32.dll
 0002:000001d4       __imp__GetEnvironmentStrings@0 0048f1d4     kernel32:KERNEL32.dll
 0002:000001d8       __imp__FreeEnvironmentStringsA@4 0048f1d8     kernel32:KERNEL32.dll
 0002:000001dc       __imp__PeekNamedPipe@24    0048f1dc     kernel32:KERNEL32.dll
 0002:000001e0       __imp__GetFullPathNameA@16 0048f1e0     kernel32:KERNEL32.dll
 0002:000001e4       __imp__WriteConsoleW@20    0048f1e4     kernel32:KERNEL32.dll
 0002:000001e8       __imp__GetConsoleOutputCP@0 0048f1e8     kernel32:KERNEL32.dll
 0002:000001ec       __imp__WriteConsoleA@20    0048f1ec     kernel32:KERNEL32.dll
 0002:000001f0       __imp__HeapSize@12         0048f1f0     kernel32:KERNEL32.dll
 0002:000001f4       __imp__IsValidCodePage@4   0048f1f4     kernel32:KERNEL32.dll
 0002:000001f8       __imp__GetOEMCP@0          0048f1f8     kernel32:KERNEL32.dll
 0002:000001fc       __imp__GetACP@0            0048f1fc     kernel32:KERNEL32.dll
 0002:00000200       __imp__InitializeCriticalSectionAndSpinCount@8 0048f200     kernel32:KERNEL32.dll
 0002:00000204       __imp__SetHandleCount@4    0048f204     kernel32:KERNEL32.dll
 0002:00000208       __imp__HeapReAlloc@16      0048f208     kernel32:KERNEL32.dll
 0002:0000020c       __imp__VirtualAlloc@16     0048f20c     kernel32:KERNEL32.dll
 0002:00000210       __imp__VirtualFree@12      0048f210     kernel32:KERNEL32.dll
 0002:00000214       __imp__HeapCreate@12       0048f214     kernel32:KERNEL32.dll
 0002:00000218       __imp__TlsFree@4           0048f218     kernel32:KERNEL32.dll
 0002:0000021c       __imp__TlsSetValue@8       0048f21c     kernel32:KERNEL32.dll
 0002:00000220       __imp__TlsAlloc@0          0048f220     kernel32:KERNEL32.dll
 0002:00000224       __imp__TlsGetValue@4       0048f224     kernel32:KERNEL32.dll
 0002:00000228       __imp__GetStdHandle@4      0048f228     kernel32:KERNEL32.dll
 0002:0000022c       __imp__GetStringTypeW@16   0048f22c     kernel32:KERNEL32.dll
 0002:00000230       __imp__GetCPInfo@8         0048f230     kernel32:KERNEL32.dll
 0002:00000234       __imp__LCMapStringW@24     0048f234     kernel32:KERNEL32.dll
 0002:00000238       __imp__LCMapStringA@24     0048f238     kernel32:KERNEL32.dll
 0002:0000023c       __imp__GetCommandLineA@0   0048f23c     kernel32:KERNEL32.dll
 0002:00000240       __imp__FileTimeToLocalFileTime@8 0048f240     kernel32:KERNEL32.dll
 0002:00000244       __imp__FileTimeToSystemTime@8 0048f244     kernel32:KERNEL32.dll
 0002:00000248       __imp__GetConsoleMode@8    0048f248     kernel32:KERNEL32.dll
 0002:0000024c       __imp__GetConsoleCP@0      0048f24c     kernel32:KERNEL32.dll
 0002:00000250       __imp__GetFileType@4       0048f250     kernel32:KERNEL32.dll
 0002:00000254       __imp__SetStdHandle@8      0048f254     kernel32:KERNEL32.dll
 0002:00000258       __imp__GetSystemTimeAsFileTime@4 0048f258     kernel32:KERNEL32.dll
 0002:0000025c       __imp__GetFileAttributesW@4 0048f25c     kernel32:KERNEL32.dll
 0002:00000260       __imp__SetFileAttributesA@8 0048f260     kernel32:KERNEL32.dll
 0002:00000264       __imp__CreateThread@24     0048f264     kernel32:KERNEL32.dll
 0002:00000268       __imp__ResumeThread@4      0048f268     kernel32:KERNEL32.dll
 0002:0000026c       __imp__ExitThread@4        0048f26c     kernel32:KERNEL32.dll
 0002:00000270       __imp__ExitProcess@4       0048f270     kernel32:KERNEL32.dll
 0002:00000274       __imp__GetModuleHandleW@4  0048f274     kernel32:KERNEL32.dll
 0002:00000278       __imp__RtlUnwind@16        0048f278     kernel32:KERNEL32.dll
 0002:0000027c       __imp__IsDebuggerPresent@0 0048f27c     kernel32:KERNEL32.dll
 0002:00000280       __imp__TerminateProcess@8  0048f280     kernel32:KERNEL32.dll
 0002:00000284       __imp__HeapAlloc@12        0048f284     kernel32:KERNEL32.dll
 0002:00000288       __imp__HeapFree@12         0048f288     kernel32:KERNEL32.dll
 0002:0000028c       __imp__RaiseException@16   0048f28c     kernel32:KERNEL32.dll
 0002:00000290       __imp__InterlockedCompareExchange@12 0048f290     kernel32:KERNEL32.dll
 0002:00000294       __imp__FindFirstVolumeW@8  0048f294     kernel32:KERNEL32.dll
 0002:00000298       __imp__QueryDosDeviceW@12  0048f298     kernel32:KERNEL32.dll
 0002:0000029c       __imp__FindNextVolumeW@12  0048f29c     kernel32:KERNEL32.dll
 0002:000002a0       __imp__FindVolumeClose@4   0048f2a0     kernel32:KERNEL32.dll
 0002:000002a4       __imp__GetShortPathNameA@12 0048f2a4     kernel32:KERNEL32.dll
 0002:000002a8       __imp__GetDriveTypeA@4     0048f2a8     kernel32:KERNEL32.dll
 0002:000002ac       __imp__SetEnvironmentVariableA@8 0048f2ac     kernel32:KERNEL32.dll
 0002:000002b0       __imp__CreateDirectoryA@8  0048f2b0     kernel32:KERNEL32.dll
 0002:000002b4       __imp__GetTempPathA@8      0048f2b4     kernel32:KERNEL32.dll
 0002:000002b8       __imp__GetSystemDirectoryA@8 0048f2b8     kernel32:KERNEL32.dll
 0002:000002bc       __imp__MultiByteToWideChar@24 0048f2bc     kernel32:KERNEL32.dll
 0002:000002c0       __imp__DeleteFileA@4       0048f2c0     kernel32:KERNEL32.dll
 0002:000002c4       __imp__CopyFileA@12        0048f2c4     kernel32:KERNEL32.dll
 0002:000002c8       __imp__lstrlenW@4          0048f2c8     kernel32:KERNEL32.dll
 0002:000002cc       __imp__WideCharToMultiByte@32 0048f2cc     kernel32:KERNEL32.dll
 0002:000002d0       __imp__GetTickCount@0      0048f2d0     kernel32:KERNEL32.dll
 0002:000002d4       __imp__GetModuleFileNameA@12 0048f2d4     kernel32:KERNEL32.dll
 0002:000002d8       __imp__GetDiskFreeSpaceA@20 0048f2d8     kernel32:KERNEL32.dll
 0002:000002dc       __imp__GetVolumePathNameA@12 0048f2dc     kernel32:KERNEL32.dll
 0002:000002e0       __imp__GetDiskFreeSpaceExA@16 0048f2e0     kernel32:KERNEL32.dll
 0002:000002e4       __imp__GetFileSizeEx@8     0048f2e4     kernel32:KERNEL32.dll
 0002:000002e8       __imp__GetFileTime@16      0048f2e8     kernel32:KERNEL32.dll
 0002:000002ec       __imp__GetFileInformationByHandle@8 0048f2ec     kernel32:KERNEL32.dll
 0002:000002f0       __imp__SetFileTime@16      0048f2f0     kernel32:KERNEL32.dll
 0002:000002f4       __imp__SetThreadExecutionState@4 0048f2f4     kernel32:KERNEL32.dll
 0002:000002f8       __imp__FindFirstFileW@8    0048f2f8     kernel32:KERNEL32.dll
 0002:000002fc       __imp__CreateFileW@28      0048f2fc     kernel32:KERNEL32.dll
 0002:00000300       __imp__FindNextFileW@8     0048f300     kernel32:KERNEL32.dll
 0002:00000304       __imp__GetVolumeInformationA@32 0048f304     kernel32:KERNEL32.dll
 0002:00000308       __imp__CreateFileA@28      0048f308     kernel32:KERNEL32.dll
 0002:0000030c       __imp__CloseHandle@4       0048f30c     kernel32:KERNEL32.dll
 0002:00000310       __imp__FindClose@4         0048f310     kernel32:KERNEL32.dll
 0002:00000314       __imp__ReadFile@20         0048f314     kernel32:KERNEL32.dll
 0002:00000318       __imp__WriteFile@20        0048f318     kernel32:KERNEL32.dll
 0002:0000031c       __imp__Sleep@4             0048f31c     kernel32:KERNEL32.dll
 0002:00000320       __imp__VirtualLock@8       0048f320     kernel32:KERNEL32.dll
 0002:00000324       __imp__SetFilePointerEx@20 0048f324     kernel32:KERNEL32.dll
 0002:00000328       __imp__GetLastError@0      0048f328     kernel32:KERNEL32.dll
 0002:0000032c       __imp__VirtualUnlock@8     0048f32c     kernel32:KERNEL32.dll
 0002:00000330       __imp__SetLastError@4      0048f330     kernel32:KERNEL32.dll
 0002:00000334       __imp__DeviceIoControl@32  0048f334     kernel32:KERNEL32.dll
 0002:00000338       __imp__SetProcessShutdownParameters@8 0048f338     kernel32:KERNEL32.dll
 0002:0000033c       __imp__GetCurrentThreadId@0 0048f33c     kernel32:KERNEL32.dll
 0002:00000340       __imp__InterlockedIncrement@4 0048f340     kernel32:KERNEL32.dll
 0002:00000344       __imp__InterlockedDecrement@4 0048f344     kernel32:KERNEL32.dll
 0002:00000348       __imp__IsValidLocale@8     0048f348     kernel32:KERNEL32.dll
 0002:0000034c       __imp__GetLocaleInfoW@16   0048f34c     kernel32:KERNEL32.dll
 0002:00000350       __imp__GetTimeZoneInformation@4 0048f350     kernel32:KERNEL32.dll
 0002:00000354       __imp__CompareStringA@24   0048f354     kernel32:KERNEL32.dll
 0002:00000358       __imp__CompareStringW@24   0048f358     kernel32:KERNEL32.dll
 0002:0000035c       \177KERNEL32_NULL_THUNK_DATA 0048f35c     kernel32:KERNEL32.dll
 0002:00000360       __imp__SysAllocStringLen@8 0048f360     oleaut32:OLEAUT32.dll
 0002:00000364       __imp__SysAllocStringByteLen@8 0048f364     oleaut32:OLEAUT32.dll
 0002:00000368       __imp__SysFreeString@4     0048f368     oleaut32:OLEAUT32.dll
 0002:0000036c       __imp__SysStringByteLen@4  0048f36c     oleaut32:OLEAUT32.dll
 0002:00000370       \177OLEAUT32_NULL_THUNK_DATA 0048f370     oleaut32:OLEAUT32.dll
 0002:00000374       __imp__SetupOpenInfFileA@16 0048f374     setupapi:SETUPAPI.dll
 0002:00000378       __imp__SetupInstallFromInfSectionA@44 0048f378     setupapi:SETUPAPI.dll
 0002:0000037c       __imp__SetupCloseInfFile@4 0048f37c     setupapi:SETUPAPI.dll
 0002:00000380       __imp__SetupDiOpenClassRegKey@8 0048f380     setupapi:SETUPAPI.dll
 0002:00000384       \177SETUPAPI_NULL_THUNK_DATA 0048f384     setupapi:SETUPAPI.dll
 0002:00000388       __imp__DragQueryFileA@16   0048f388     shell32:SHELL32.dll
 0002:0000038c       __imp__DragFinish@4        0048f38c     shell32:SHELL32.dll
 0002:00000390       __imp__ShellExecuteW@24    0048f390     shell32:SHELL32.dll
 0002:00000394       __imp__SHChangeNotify@16   0048f394     shell32:SHELL32.dll
 0002:00000398       __imp__IsUserAnAdmin@0     0048f398     shell32:SHELL32.dll
 0002:0000039c       __imp__SHGetFileInfoA@20   0048f39c     shell32:SHELL32.dll
 0002:000003a0       __imp__SHGetMalloc@4       0048f3a0     shell32:SHELL32.dll
 0002:000003a4       __imp__SHBrowseForFolderW@4 0048f3a4     shell32:SHELL32.dll
 0002:000003a8       __imp__SHGetPathFromIDListA@8 0048f3a8     shell32:SHELL32.dll
 0002:000003ac       __imp__CommandLineToArgvW@8 0048f3ac     shell32:SHELL32.dll
 0002:000003b0       __imp__SHGetFolderPathA@20 0048f3b0     shell32:SHELL32.dll
 0002:000003b4       __imp__ShellExecuteA@24    0048f3b4     shell32:SHELL32.dll
 0002:000003b8       __imp__DragAcceptFiles@8   0048f3b8     shell32:SHELL32.dll
 0002:000003bc       \177SHELL32_NULL_THUNK_DATA 0048f3bc     shell32:SHELL32.dll
 0002:000003c0       __imp__SendMessageTimeoutA@28 0048f3c0     user32:USER32.dll
 0002:000003c4       __imp__SystemParametersInfoW@16 0048f3c4     user32:USER32.dll
 0002:000003c8       __imp__GetSystemMenu@8     0048f3c8     user32:USER32.dll
 0002:000003cc       __imp__AppendMenuA@16      0048f3cc     user32:USER32.dll
 0002:000003d0       __imp__AppendMenuW@16      0048f3d0     user32:USER32.dll
 0002:000003d4       __imp__TrackMouseEvent@4   0048f3d4     user32:USER32.dll
 0002:000003d8       __imp__SetForegroundWindow@4 0048f3d8     user32:USER32.dll
 0002:000003dc       __imp__CreateWindowExA@48  0048f3dc     user32:USER32.dll
 0002:000003e0       __imp__GetClipboardViewer@0 0048f3e0     user32:USER32.dll
 0002:000003e4       __imp__SendDlgItemMessageA@20 0048f3e4     user32:USER32.dll
 0002:000003e8       __imp__GetKeyState@4       0048f3e8     user32:USER32.dll
 0002:000003ec       __imp__EnumChildWindows@12 0048f3ec     user32:USER32.dll
 0002:000003f0       __imp__GetDlgCtrlID@4      0048f3f0     user32:USER32.dll
 0002:000003f4       __imp__GetClassNameA@12    0048f3f4     user32:USER32.dll
 0002:000003f8       __imp__SendMessageW@16     0048f3f8     user32:USER32.dll
 0002:000003fc       __imp__GetClassInfoA@12    0048f3fc     user32:USER32.dll
 0002:00000400       __imp__SetDlgItemTextW@12  0048f400     user32:USER32.dll
 0002:00000404       __imp__SendDlgItemMessageW@20 0048f404     user32:USER32.dll
 0002:00000408       __imp__GetWindowTextLengthW@4 0048f408     user32:USER32.dll
 0002:0000040c       __imp__UnhookWindowsHookEx@4 0048f40c     user32:USER32.dll
 0002:00000410       __imp__CallNextHookEx@16   0048f410     user32:USER32.dll
 0002:00000414       __imp__GetCursorPos@4      0048f414     user32:USER32.dll
 0002:00000418       __imp__GetCaretPos@4       0048f418     user32:USER32.dll
 0002:0000041c       __imp__GetQueueStatus@4    0048f41c     user32:USER32.dll
 0002:00000420       __imp__GetProcessWindowStation@0 0048f420     user32:USER32.dll
 0002:00000424       __imp__GetMessageTime@0    0048f424     user32:USER32.dll
 0002:00000428       __imp__GetOpenClipboardWindow@0 0048f428     user32:USER32.dll
 0002:0000042c       __imp__GetMessagePos@0     0048f42c     user32:USER32.dll
 0002:00000430       __imp__GetInputState@0     0048f430     user32:USER32.dll
 0002:00000434       __imp__GetFocus@0          0048f434     user32:USER32.dll
 0002:00000438       __imp__RegisterClassExA@4  0048f438     user32:USER32.dll
 0002:0000043c       __imp__GetDesktopWindow@0  0048f43c     user32:USER32.dll
 0002:00000440       __imp__PostThreadMessageA@16 0048f440     user32:USER32.dll
 0002:00000444       __imp__DispatchMessageA@4  0048f444     user32:USER32.dll
 0002:00000448       __imp__TranslateMessage@4  0048f448     user32:USER32.dll
 0002:0000044c       __imp__GetClipboardOwner@0 0048f44c     user32:USER32.dll
 0002:00000450       __imp__GetCapture@0        0048f450     user32:USER32.dll
 0002:00000454       __imp__SetWindowsHookExA@16 0048f454     user32:USER32.dll
 0002:00000458       __imp__SetLayeredWindowAttributes@16 0048f458     user32:USER32.dll
 0002:0000045c       __imp__LoadCursorA@8       0048f45c     user32:USER32.dll
 0002:00000460       __imp__SetCursor@4         0048f460     user32:USER32.dll
 0002:00000464       __imp__DefDlgProcA@16      0048f464     user32:USER32.dll
 0002:00000468       __imp__UnregisterClassA@8  0048f468     user32:USER32.dll
 0002:0000046c       __imp__LoadIconA@8         0048f46c     user32:USER32.dll
 0002:00000470       __imp__RegisterClassA@4    0048f470     user32:USER32.dll
 0002:00000474       __imp__GetUpdateRect@12    0048f474     user32:USER32.dll
 0002:00000478       __imp__BeginPaint@8        0048f478     user32:USER32.dll
 0002:0000047c       __imp__DefWindowProcA@16   0048f47c     user32:USER32.dll
 0002:00000480       __imp__GetDialogBaseUnits@0 0048f480     user32:USER32.dll
 0002:00000484       __imp__EndPaint@8          0048f484     user32:USER32.dll
 0002:00000488       __imp__LoadBitmapA@8       0048f488     user32:USER32.dll
 0002:0000048c       __imp__SetWindowLongA@12   0048f48c     user32:USER32.dll
 0002:00000490       __imp__CallWindowProcA@20  0048f490     user32:USER32.dll
 0002:00000494       __imp__GetClientRect@8     0048f494     user32:USER32.dll
 0002:00000498       __imp__GetSystemMetrics@4  0048f498     user32:USER32.dll
 0002:0000049c       __imp__GetWindowInfo@8     0048f49c     user32:USER32.dll
 0002:000004a0       __imp__SetWindowPos@28     0048f4a0     user32:USER32.dll
 0002:000004a4       __imp__GetDC@4             0048f4a4     user32:USER32.dll
 0002:000004a8       __imp__ReleaseDC@8         0048f4a8     user32:USER32.dll
 0002:000004ac       __imp__MessageBoxA@16      0048f4ac     user32:USER32.dll
 0002:000004b0       __imp__GetActiveWindow@0   0048f4b0     user32:USER32.dll
 0002:000004b4       __imp__KillTimer@8         0048f4b4     user32:USER32.dll
 0002:000004b8       __imp__GetAsyncKeyState@4  0048f4b8     user32:USER32.dll
 0002:000004bc       __imp__DestroyWindow@4     0048f4bc     user32:USER32.dll
 0002:000004c0       __imp__GetWindowRect@8     0048f4c0     user32:USER32.dll
 0002:000004c4       __imp__CreateDialogParamW@20 0048f4c4     user32:USER32.dll
 0002:000004c8       __imp__MapDialogRect@8     0048f4c8     user32:USER32.dll
 0002:000004cc       __imp__MoveWindow@24       0048f4cc     user32:USER32.dll
 0002:000004d0       __imp__GetKeyboardLayout@4 0048f4d0     user32:USER32.dll
 0002:000004d4       __imp__LoadKeyboardLayoutA@8 0048f4d4     user32:USER32.dll
 0002:000004d8       __imp__ShowWindow@8        0048f4d8     user32:USER32.dll
 0002:000004dc       __imp__SetDlgItemTextA@12  0048f4dc     user32:USER32.dll
 0002:000004e0       __imp__GetWindowTextLengthA@4 0048f4e0     user32:USER32.dll
 0002:000004e4       __imp__InvalidateRect@12   0048f4e4     user32:USER32.dll
 0002:000004e8       __imp__GetWindowTextW@12   0048f4e8     user32:USER32.dll
 0002:000004ec       __imp__GetDlgItemTextA@16  0048f4ec     user32:USER32.dll
 0002:000004f0       __imp__DialogBoxParamW@20  0048f4f0     user32:USER32.dll
 0002:000004f4       __imp__MessageBeep@4       0048f4f4     user32:USER32.dll
 0002:000004f8       __imp__GetParent@4         0048f4f8     user32:USER32.dll
 0002:000004fc       __imp__MessageBoxW@16      0048f4fc     user32:USER32.dll
 0002:00000500       __imp__SetFocus@4          0048f500     user32:USER32.dll
 0002:00000504       __imp__PeekMessageA@20     0048f504     user32:USER32.dll
 0002:00000508       __imp__SetTimer@16         0048f508     user32:USER32.dll
 0002:0000050c       __imp__EnableWindow@8      0048f50c     user32:USER32.dll
 0002:00000510       __imp__SendMessageA@16     0048f510     user32:USER32.dll
 0002:00000514       __imp__SetWindowTextA@8    0048f514     user32:USER32.dll
 0002:00000518       __imp__IsWindow@4          0048f518     user32:USER32.dll
 0002:0000051c       __imp__EndDialog@8         0048f51c     user32:USER32.dll
 0002:00000520       __imp__GetDlgItem@8        0048f520     user32:USER32.dll
 0002:00000524       __imp__EnumWindows@8       0048f524     user32:USER32.dll
 0002:00000528       __imp__GetWindowLongA@8    0048f528     user32:USER32.dll
 0002:0000052c       __imp__GetWindowTextA@12   0048f52c     user32:USER32.dll
 0002:00000530       __imp__PostMessageA@16     0048f530     user32:USER32.dll
 0002:00000534       __imp__SetWindowTextW@8    0048f534     user32:USER32.dll
 0002:00000538       __imp__wsprintfW           0048f538     user32:USER32.dll
 0002:0000053c       __imp__GetMessageA@16      0048f53c     user32:USER32.dll
 0002:00000540       __imp__ExitWindowsEx@8     0048f540     user32:USER32.dll
 0002:00000544       \177USER32_NULL_THUNK_DATA 0048f544     user32:USER32.dll
 0002:00000548       __imp__CoCreateInstance@20 0048f548     ole32:ole32.dll
 0002:0000054c       __imp__StringFromGUID2@12  0048f54c     ole32:ole32.dll
 0002:00000550       __imp__CoGetObject@16      0048f550     ole32:ole32.dll
 0002:00000554       __imp__CoInitialize@4      0048f554     ole32:ole32.dll
 0002:00000558       __imp__CoUninitialize@0    0048f558     ole32:ole32.dll
 0002:0000055c       __imp__CoRegisterClassObject@20 0048f55c     ole32:ole32.dll
 0002:00000560       __imp__CoRevokeClassObject@4 0048f560     ole32:ole32.dll
 0002:00000564       \177ole32_NULL_THUNK_DATA  0048f564     ole32:ole32.dll
 0002:00000568       ___xc_a                    0048f568     LIBCMT:crt0init.obj
 0002:00000598       ___xc_z                    0048f598     LIBCMT:crt0init.obj
 0002:0000059c       ___xi_a                    0048f59c     LIBCMT:crt0init.obj
 0002:000005bc       ___xi_z                    0048f5bc     LIBCMT:crt0init.obj
 0002:000005c0       ___xp_a                    0048f5c0     LIBCMT:crt0init.obj
 0002:000005cc       ___xp_z                    0048f5cc     LIBCMT:crt0init.obj
 0002:000005d0       ___xt_a                    0048f5d0     LIBCMT:crt0init.obj
 0002:000005d4       ___xt_z                    0048f5d4     LIBCMT:crt0init.obj
 0002:000005e0       ??_C@_0P@GHFPNOJB@bad?5allocation?$AA@ 0048f5e0     FormatCom.obj
 0002:000005f0       _LIBID_CipherShedFormatCom 0048f5f0     FormatCom.obj
 0002:00000600       _IID_ICipherShedFormatCom  0048f600     FormatCom.obj
 0002:00000610       _CLSID_CipherShedFormatCom 0048f610     FormatCom.obj
 0002:00000624       ??_7Exception@CipherShed@@6B@ 0048f624     FormatCom.obj
 0002:0000062c       ??_7UserAbort@CipherShed@@6B@ 0048f62c     FormatCom.obj
 0002:00000634       ??_7?$CipherShedFactory@VCipherShedFormatCom@@@@6B@ 0048f634     FormatCom.obj
 0002:00000650       ??_7CipherShedFormatCom@@6B@ 0048f650     FormatCom.obj
 0002:0000068c       ??_7bad_alloc@std@@6B@     0048f68c     InPlace.obj
 0002:00000694       ??_C@_0BO@LGBJGGOF@INPLACE_ENC_ALTERNATIVE_STEPS?$AA@ 0048f694     InPlace.obj
 0002:000006b4       ??_C@_17MFDLPPFM@?$AA?6?$AA?6?$AA?6?$AA?$AA@ 0048f6b4     InPlace.obj
 0002:000006bc       ??_C@_0BE@NLGDPAAC@In?9Place?5Encryption?$AA@ 0048f6bc     InPlace.obj
 0002:000006d0       ??_C@_0BO@IBNLKCDC@In?9Place?5Encryption?5Wipe?5Algo?$AA@ 0048f6d0     InPlace.obj
 0002:000006f0       ??_C@_02DPKJAMEF@?$CFd?$AA@ 0048f6f0     InPlace.obj
 0002:000006f4       ??_C@_0BK@KFDNCGEE@DEVICE_IN_USE_INPLACE_ENC?$AA@ 0048f6f4     InPlace.obj
 0002:00000710       ??_C@_0CL@CAPGNNOA@INPLACE_ENC_CANT_ACCESS_OR_GET_I@ 0048f710     InPlace.obj
 0002:0000073c       ??_C@_0CP@BEBKAKBO@INPLACE_ENC_CANT_ACCESS_OR_GET_I@ 0048f73c     InPlace.obj
 0002:0000076c       ??_C@_0CG@LMIKKFBM@VOL_LOCK_FAILED_OFFER_FORCED_DIS@ 0048f76c     InPlace.obj
 0002:00000794       ??_C@_0CK@OMIEFGPE@INPLACE_ENC_CANT_LOCK_OR_DISMOUN@ 0048f794     InPlace.obj
 0002:000007c0       ??_C@_0BI@FCILOPDD@SECTOR_SIZE_UNSUPPORTED?$AA@ 0048f7c0     InPlace.obj
 0002:000007d8       ??_C@_0CJ@DJNLKEPP@NOT_ENOUGH_FREE_FILESYS_SPACE_FO@ 0048f7d8     InPlace.obj
 0002:00000804       ??_C@_0CL@EKBFECDJ@PARTITION_TOO_SMALL_FOR_NONSYS_I@ 0048f804     InPlace.obj
 0002:00000830       ??_C@_0DC@BPGKKGKD@ONLY_MOUNTED_VOL_SUPPORTED_FOR_N@ 0048f830     InPlace.obj
 0002:00000864       ??_C@_0CL@COOAAIGJ@ONLY_NTFS_SUPPORTED_FOR_NONSYS_I@ 0048f864     InPlace.obj
 0002:00000890       ??_C@_04HPPAIJNK@NTFS?$AA@ 0048f890     InPlace.obj
 0002:00000898       ??_C@_0BO@NAOLHLLP@ADMIN_PRIVILEGES_WARN_DEVICES?$AA@ 0048f898     InPlace.obj
 0002:000008b8       ??_C@_0CG@BBECDHBI@RAW_DEV_NOT_SUPPORTED_FOR_INPLAC@ 0048f8b8     InPlace.obj
 0002:000008e0       ??_C@_0BJ@KPKOCMJM@INPLACE_ENC_INVALID_PATH?$AA@ 0048f8e0     InPlace.obj
 0002:000008fc       ??_C@_0BP@MDCLODBD@?2Device?2Harddisk?$CFd?2Partition?$CFd?$AA@ 0048f8fc     InPlace.obj
 0002:0000091c       ??_C@_0BJ@IDFJMMLD@?2Device?2HarddiskVolume?$CFd?$AA@ 0048f91c     InPlace.obj
 0002:00000938       ??_C@_0CI@PMIJHGDI@OS_NOT_SUPPORTED_FOR_NONSYS_INPL@ 0048f938     InPlace.obj
 0002:00000960       ??_C@_0BI@KOHPIJFG@ZEROED_BAD_SECTOR_COUNT?$AA@ 0048f960     InPlace.obj
 0002:00000978       ??_C@_0BK@ELCHMCAJ@ENABLE_BAD_SECTOR_ZEROING?$AA@ 0048f978     InPlace.obj
 0002:00000994       ??_C@_13FPGAJAPJ@?$AA?2?$AA?$AA@ 0048f994     InPlace.obj
 0002:00000998       ??_C@_15DDHGOCBH@?$AA?4?$AA?4?$AA?$AA@ 0048f998     InPlace.obj
 0002:000009a0       ??_C@_13JOFGPIOO@?$AA?4?$AA?$AA@ 0048f9a0     InPlace.obj
 0002:000009a4       ??_C@_15PKPONJIK@?$AA?2?$AA?$CK?$AA?$AA@ 0048f9a4     InPlace.obj
 0002:000009ac       ??_C@_19MJCDBCKE@?$AA?2?$AA?2?$AA?$DP?$AA?2?$AA?$AA@ 0048f9ac     InPlace.obj
 0002:000009b8       ??_C@_11LOCGONAA@?$AA?$AA@ 0048f9b8     InPlace.obj
 0002:000009bc       ??_C@_15DBHGMMAD@?$AAX?$AA?3?$AA?$AA@ 0048f9bc     InPlace.obj
 0002:000009c4       ??_C@_0L@DLEMDKJB@?1prinplace?$AA@ 0048f9c4     InPlace.obj
 0002:000009d0       ??_C@_0BG@EBLNDPCA@CANNOT_RESIZE_FILESYS?$AA@ 0048f9d0     InPlace.obj
 0002:000009ec       ??_7facet@locale@std@@6B@  0048f9ec     Tcformat.obj
 0002:000009f4       ??_7ios_base@std@@6B@      0048f9f4     Tcformat.obj
 0002:000009fc       ??_7Container@ForEach@CipherShed@@6B@ 0048f9fc     Tcformat.obj
 0002:00000a08       ??_C@_0L@FEEFGEIL@CipherShed?$AA@ 0048fa08     Tcformat.obj
 0002:00000a14       ??_C@_0BD@KMABOOHN@?6?7?$DM?1sysencryption?$DO?$AA@ 0048fa14     Tcformat.obj
 0002:00000a28       ??_C@_0CG@BNNHBPIN@?6?7?7?$DMconfig?5key?$DN?$CCWipeMode?$CC?$DO?$CFd?$DM?1co@ 0048fa28     Tcformat.obj
 0002:00000a50       ??_C@_0DE@HMBPOGIN@?6?7?7?$DMconfig?5key?$DN?$CCSystemEncryption@ 0048fa50     Tcformat.obj
 0002:00000a84       ??_C@_0BC@IEDCODCO@?6?7?$DMsysencryption?$DO?$AA@ 0048fa84     Tcformat.obj
 0002:00000a98       ??_C@_01NOFIACDB@w?$AA@    0048fa98     Tcformat.obj
 0002:00000a9c       ??_C@_0CE@LPCKNJKP@CANNOT_SAVE_SYS_ENCRYPTION_SETTI@ 0048fa9c     Tcformat.obj
 0002:00000ac0       ??_C@_0BG@NJOIKHOP@System?5Encryption?4xml?$AA@ 0048fac0     Tcformat.obj
 0002:00000ad8       ??_C@_0CF@BOINGOPM@ERR_GETTING_SYSTEM_ENCRYPTION_ST@ 0048fad8     Tcformat.obj
 0002:00000b00       ??_C@_0CI@FPFBOAHN@SYSTEM_ENCRYPTION_IN_PROGRESS_EL@ 0048fb00     Tcformat.obj
 0002:00000b28       ??_C@_0BF@MIMCAHPI@SecurityTokenLibrary?$AA@ 0048fb28     Tcformat.obj
 0002:00000b3d       ??_C@_00CNPNBAHC@?$AA@     0048fb3d     Tcformat.obj
 0002:00000b40       ??_C@_0BC@CGLEBHPJ@SaveVolumeHistory?$AA@ 0048fb40     Tcformat.obj
 0002:00000b54       ??_C@_0BM@GHIJBHNC@HiddenSectorDetectionStatus?$AA@ 0048fb54     Tcformat.obj
 0002:00000b70       ??_C@_0N@PLOGBODB@StartOnLogon?$AA@ 0048fb70     Tcformat.obj
 0002:00000b80       ??_C@_08BENDAOKD@Language?$AA@ 0048fb80     Tcformat.obj
 0002:00000b8c       ??_C@_0CA@EHDIKOJL@IDC_LINK_MORE_INFO_ABOUT_CIPHER?$AA@ 0048fb8c     Tcformat.obj
 0002:00000bac       ??_C@_0BH@PJGBOAEF@TWO_LAYER_CASCADE_HELP?$AA@ 0048fbac     Tcformat.obj
 0002:00000bc4       ??_C@_0BJ@CFADADFJ@THREE_LAYER_CASCADE_HELP?$AA@ 0048fbc4     Tcformat.obj
 0002:00000be0       ??_C@_0N@IDJJJPOF@TWOFISH_HELP?$AA@ 0048fbe0     Tcformat.obj
 0002:00000bf0       ??_C@_07DABDIDEC@Twofish?$AA@ 0048fbf0     Tcformat.obj
 0002:00000bf8       ??_C@_0N@PAOPLDOJ@SERPENT_HELP?$AA@ 0048fbf8     Tcformat.obj
 0002:00000c08       ??_C@_07CCCAKGBN@Serpent?$AA@ 0048fc08     Tcformat.obj
 0002:00000c10       ??_C@_08FJPFOLOD@AES_HELP?$AA@ 0048fc10     Tcformat.obj
 0002:00000c1c       ??_C@_0BA@LGBFJNHH@MORE_INFO_ABOUT?$AA@ 0048fc1c     Tcformat.obj
 0002:00000c2c       ??_C@_03BKNEFOAH@AES?$AA@  0048fc2c     Tcformat.obj
 0002:00000c30       ??_C@_06JHILMIHF@CANCEL?$AA@ 0048fc30     Tcformat.obj
 0002:00000c38       ??_C@_04PKHKLFPJ@PREV?$AA@ 0048fc38     Tcformat.obj
 0002:00000c40       ??_C@_04MOKMKBJN@NEXT?$AA@ 0048fc40     Tcformat.obj
 0002:00000c48       ??_C@_08EOJLPPDK@UISTR_NO?$AA@ 0048fc48     Tcformat.obj
 0002:00000c54       ??_C@_09JHINKGCK@UISTR_YES?$AA@ 0048fc54     Tcformat.obj
 0002:00000c60       ??_C@_13HOIJIPNN@?$AA?5?$AA?$AA@ 0048fc60     Tcformat.obj
 0002:00000c64       ??_C@_0BL@PONBLMNB@PROGRESS_STATUS_ENCRYPTING?$AA@ 0048fc64     Tcformat.obj
 0002:00000c80       ??_C@_0BL@MHLPJIOG@PROGRESS_STATUS_DECRYPTING?$AA@ 0048fc80     Tcformat.obj
 0002:00000c9c       ??_C@_0BI@FJOOBAJA@PROGRESS_STATUS_WAITING?$AA@ 0048fc9c     Tcformat.obj
 0002:00000cb4       ??_C@_01CLKCMJKC@?5?$AA@   0048fcb4     Tcformat.obj
 0002:00000cb8       ??_C@_0BO@DMHMPBKC@PROCESSED_PORTION_100_PERCENT?$AA@ 0048fcb8     Tcformat.obj
 0002:00000cd8       ??_C@_0BJ@HKENJBII@PROGRESS_STATUS_FINISHED?$AA@ 0048fcd8     Tcformat.obj
 0002:00000cf4       ??_C@_0BH@LLAADOBF@PROGRESS_STATUS_PAUSED?$AA@ 0048fcf4     Tcformat.obj
 0002:00000d0c       ??_C@_06PPGAKMJI@RESUME?$AA@ 0048fd0c     Tcformat.obj
 0002:00000d14       ??_C@_09PJBBBIIP@IDC_PAUSE?$AA@ 0048fd14     Tcformat.obj
 0002:00000d20       ??_C@_0CG@OIGJDCBH@FAILED_TO_INTERRUPT_SYSTEM_ENCRY@ 0048fd20     Tcformat.obj
 0002:00000d48       ??_C@_0CD@HEMAICHN@FAILED_TO_RESUME_SYSTEM_ENCRYPTI@ 0048fd48     Tcformat.obj
 0002:00000d6c       ??_C@_0BG@IDPLALHN@PROGRESS_STATUS_ERROR?$AA@ 0048fd6c     Tcformat.obj
 0002:00000d84       ??_C@_0BL@CIJLEOGN@PROGRESS_STATUS_FINALIZING?$AA@ 0048fd84     Tcformat.obj
 0002:00000da0       ??_C@_0BJ@EIBDNDIC@PROGRESS_STATUS_RESIZING?$AA@ 0048fda0     Tcformat.obj
 0002:00000dbc       ??_C@_0BK@NECHGBNE@PROGRESS_STATUS_PREPARING?$AA@ 0048fdbc     Tcformat.obj
 0002:00000dd8       ??_C@_01EEMJAFIK@?6?$AA@   0048fdd8     Tcformat.obj
 0002:00000ddc       ??_C@_05BFHEBJNP@?$CF02X?5?$AA@ 0048fddc     Tcformat.obj
 0002:00000de4       ??_C@_03NJNOMAJF@?5?4?5?$AA@ 0048fde4     Tcformat.obj
 0002:00000de8       ??_C@_04LAOFCJDB@?5?$CFc?5?$AA@ 0048fde8     Tcformat.obj
 0002:00000df0       ??_C@_0N@LKFCNANA@DISK_FREE_GB?$AA@ 0048fdf0     Tcformat.obj
 0002:00000e00       ??_C@_0P@IDAMPFNO@DEVICE_FREE_GB?$AA@ 0048fe00     Tcformat.obj
 0002:00000e10       ??_C@_0N@LHMFFFAG@DISK_FREE_MB?$AA@ 0048fe10     Tcformat.obj
 0002:00000e20       ??_C@_0P@IOJLHAAI@DEVICE_FREE_MB?$AA@ 0048fe20     Tcformat.obj
 0002:00000e30       ??_C@_0N@LDEICJLE@DISK_FREE_KB?$AA@ 0048fe30     Tcformat.obj
 0002:00000e40       ??_C@_0P@IKBGAMLK@DEVICE_FREE_KB?$AA@ 0048fe40     Tcformat.obj
 0002:00000e50       ??_C@_0BA@GNIBCOCE@DISK_FREE_BYTES?$AA@ 0048fe50     Tcformat.obj
 0002:00000e60       ??_C@_0BC@DDPKPAD@DEVICE_FREE_BYTES?$AA@ 0048fe60     Tcformat.obj
 0002:00000e74       ??_C@_0BD@NLEFDOGE@MAX_HIDVOL_SIZE_GB?$AA@ 0048fe74     Tcformat.obj
 0002:00000e88       ??_C@_0BD@NGNCLLLC@MAX_HIDVOL_SIZE_MB?$AA@ 0048fe88     Tcformat.obj
 0002:00000e9c       ??_C@_0BD@NCFPMHAA@MAX_HIDVOL_SIZE_KB?$AA@ 0048fe9c     Tcformat.obj
 0002:00000eb0       ??_C@_0BG@OMPICDCM@MAX_HIDVOL_SIZE_BYTES?$AA@ 0048feb0     Tcformat.obj
 0002:00000ec8       ??_C@_1M@KGONCMNM@?$AA?$CF?$AAs?$AA?6?$AA?$CF?$AAs?$AA?$AA@ 0048fec8     Tcformat.obj
 0002:00000ed4       ??_C@_0BC@LBACDGOD@CANNOT_CALC_SPACE?$AA@ 0048fed4     Tcformat.obj
 0002:00000ee8       ??_C@_0BA@GFCNKOPI@CANT_ACCESS_VOL?$AA@ 0048fee8     Tcformat.obj
 0002:00000ef8       ??_C@_0BB@FNOFFGJI@CANT_GET_VOLSIZE?$AA@ 0048fef8     Tcformat.obj
 0002:00000f0c       ??_C@_09BFNCKGCL@PATH_ITEM?$AA@ 0048ff0c     Tcformat.obj
 0002:00000f18       ??_C@_09DBGAMMMC@SIZE_ITEM?$AA@ 0048ff18     Tcformat.obj
 0002:00000f24       ??_C@_0CA@KEHLKHJA@NOT_APPLICABLE_OR_NOT_AVAILABLE?$AA@ 0048ff24     Tcformat.obj
 0002:00000f44       ??_C@_0L@PEDCDHCM@LABEL_ITEM?$AA@ 0048ff44     Tcformat.obj
 0002:00000f50       ??_C@_13LBAGMAIH@?$AA?6?$AA?$AA@ 0048ff50     Tcformat.obj
 0002:00000f54       ??_C@_19KHPJIBCC@?$AA?$CF?$AAh?$AAc?$AA?3?$AA?$AA@ 0048ff54     Tcformat.obj
 0002:00000f60       ??_C@_0BC@ELOGDKJ@DRIVE_LETTER_ITEM?$AA@ 0048ff60     Tcformat.obj
 0002:00000f74       ??_C@_15IABLJNFO@?$AA?6?$AA?6?$AA?$AA@ 0048ff74     Tcformat.obj
 0002:00000f7c       ??_C@_0BP@IMKLJEFC@ERASE_FILES_BY_CREATING_VOLUME?$AA@ 0048ff7c     Tcformat.obj
 0002:00000f9c       ??_C@_0DD@GFFEJLFD@OVERWRITEPROMPT_DEVICE_SECOND_WA@ 0048ff9c     Tcformat.obj
 0002:00000fd0       __real@42b00000            0048ffd0     Tcformat.obj
 0002:00000fd8       __real@4058ff5c28f5c28f    0048ffd8     Tcformat.obj
 0002:00000fe0       __real@42c80000            0048ffe0     Tcformat.obj
 0002:00000fe4       ??_C@_0BH@JPJDALOG@OVERWRITEPROMPT_DEVICE?$AA@ 0048ffe4     Tcformat.obj
 0002:00000ffc       ??_C@_0BL@IMNAFHOP@NONSYS_INPLACE_ENC_CONFIRM?$AA@ 0048fffc     Tcformat.obj
 0002:00001018       ??_C@_0CL@KCMNHFDO@OVERWRITEPROMPT_DEVICE_HIDDEN_OS@ 00490018     Tcformat.obj
 0002:00001044       ??_C@_1BK@GHMHFLJL@?$AA?5?$AA?$CI?$AA?$CF?$AAh?$AAc?$AA?3?$AA?5?$AA?8?$AA?$CF?$AAs?$AA?8?$AA?$CJ?$AA?$AA@ 00490044     Tcformat.obj
 0002:00001060       ??_C@_1BE@LDCEEKNB@?$AA?5?$AA?$CI?$AA?$CF?$AAh?$AAc?$AA?3?$AA?$CF?$AAs?$AA?$CJ?$AA?$AA@ 00490060     Tcformat.obj
 0002:00001074       ??_C@_0BP@DGIMBADH@AFTER_FORMAT_DRIVE_LETTER_WARN?$AA@ 00490074     Tcformat.obj
 0002:00001094       ??_C@_0BI@EIHCDBCC@NO_SPACE_FOR_HIDDEN_VOL?$AA@ 00490094     Tcformat.obj
 0002:000010ac       ??_C@_0BG@BIDCCDPC@MountVolumesRemovable?$AA@ 004900ac     Tcformat.obj
 0002:000010c4       ??_C@_0BI@IEBIBFIL@CANT_GET_CLUSTER_BITMAP?$AA@ 004900c4     Tcformat.obj
 0002:000010dc       ??_C@_0O@JJNKJOK@ERR_MEM_ALLOC?$AA@ 004900dc     Tcformat.obj
 0002:000010ec       ??_C@_0BG@EDMDLNEK@CANT_ACCESS_OUTER_VOL?$AA@ 004900ec     Tcformat.obj
 0002:00001108       ??_7?$basic_ostream@_WU?$char_traits@_W@std@@@std@@6B@ 00490108     Tcformat.obj
 0002:00001110       ??_7?$basic_istream@_WU?$char_traits@_W@std@@@std@@6B@ 00490110     Tcformat.obj
 0002:00001118       ??_7?$basic_iostream@_WU?$char_traits@_W@std@@@std@@6B@ 00490118     Tcformat.obj
 0002:00001120       ??_7?$basic_ios@_WU?$char_traits@_W@std@@@std@@6B@ 00490120     Tcformat.obj
 0002:0000112c       ??_7?$ctype@_W@std@@6B@    0049012c     Tcformat.obj
 0002:00001168       ??_C@_0BL@PHPLOOOK@FAILED_TO_INTERRUPT_WIPING?$AA@ 00490168     Tcformat.obj
 0002:00001184       ??_C@_0BH@PKDMJBLN@FAILED_TO_START_WIPING?$AA@ 00490184     Tcformat.obj
 0002:0000119c       ??_C@_0BA@NLOHJLIM@FORMAT_CANCELED?$AA@ 0049019c     Tcformat.obj
 0002:000011ac       ??_C@_0BM@JKEOLKCL@NONSYS_INPLACE_ENC_CANCELED?$AA@ 004901ac     Tcformat.obj
 0002:000011c8       ??_C@_0BA@IDMMBDGF@FORMAT_FINISHED?$AA@ 004901c8     Tcformat.obj
 0002:000011d8       ??_C@_0BG@PHMPDKJN@SPARSE_FILE_SIZE_NOTE?$AA@ 004901d8     Tcformat.obj
 0002:000011f0       ??_C@_0BF@ELGDKJEM@FORMAT_FINISHED_INFO?$AA@ 004901f0     Tcformat.obj
 0002:00001208       ??_C@_0CB@KOCBDKDK@NONSYS_INPLACE_ENC_FINISHED_INFO@ 00490208     Tcformat.obj
 0002:0000122c       ??_C@_0BM@NHKMKNFC@HIDVOL_FORMAT_FINISHED_HELP?$AA@ 0049022c     Tcformat.obj
 0002:00001248       ??_C@_0O@OIAKNAOK@CREATE_FAILED?$AA@ 00490248     Tcformat.obj
 0002:00001258       ??_C@_0CC@GOJAHDJH@INPLACE_ENC_GENERIC_ERR_ALT_STEP@ 00490258     Tcformat.obj
 0002:0000127c       ??_C@_0BM@DNIPKEFC@NO_FREE_DRIVE_FOR_OUTER_VOL?$AA@ 0049027c     Tcformat.obj
 0002:00001298       ??_C@_0BP@CBCIBGL@INPLACE_ENC_GENERIC_ERR_RESUME?$AA@ 00490298     Tcformat.obj
 0002:000012b8       ??_C@_0BF@IAAAEIAJ@CANT_MOUNT_OUTER_VOL?$AA@ 004902b8     Tcformat.obj
 0002:000012d0       ??_C@_0M@IMAOAGMP@OUTOFMEMORY?$AA@ 004902d0     Tcformat.obj
 0002:000012dc       ??_C@_0P@JKCBOPBP@ACCESSMODEFAIL?$AA@ 004902dc     Tcformat.obj
 0002:000012ec       ??_C@_0BA@JEAHJACA@OVERWRITEPROMPT?$AA@ 004902ec     Tcformat.obj
 0002:000012fc       ??_C@_0P@EMHOIPJB@READONLYPROMPT?$AA@ 004902fc     Tcformat.obj
 0002:0000130c       ??_C@_0BL@MHDAJDPI@ADMIN_PRIVILEGES_WARN_NTFS?$AA@ 0049030c     Tcformat.obj
 0002:00001328       ??_C@_0O@MKGMJGFE@EXT_PARTITION?$AA@ 00490328     Tcformat.obj
 0002:00001338       ??_C@_0CG@DBCOIOLF@ERR_HIDDEN_VOL_HOST_ENCRYPTED_IN@ 00490338     Tcformat.obj
 0002:00001360       ??_C@_0CE@PMECNFFM@HIDDEN_VOL_HOST_UNSUPPORTED_FILE@ 00490360     Tcformat.obj
 0002:00001384       ??_C@_0BI@JLECLIC@CANT_GET_OUTER_VOL_INFO?$AA@ 00490384     Tcformat.obj
 0002:0000139c       ??_C@_0BF@GKHHEFAE@HIDDEN_VOL_HOST_NTFS?$AA@ 0049039c     Tcformat.obj
 0002:000013b4       ??_C@_0CM@PCAIDDLK@HIDDEN_VOL_HOST_UNSUPPORTED_FILE@ 004903b4     Tcformat.obj
 0002:000013e0       ??_C@_03MPELFIKF@FAT?$AA@  004903e0     Tcformat.obj
 0002:000013e4       ??_C@_0BN@PEDIFLNF@ERR_HIDDEN_NOT_NORMAL_VOLUME?$AA@ 004903e4     Tcformat.obj
 0002:00001404       ??_C@_0BD@GJIBONDI@ERR_VOL_FORMAT_BAD?$AA@ 00490404     Tcformat.obj
 0002:0000141c       ??_7?$basic_streambuf@_WU?$char_traits@_W@std@@@std@@6B@ 0049041c     Tcformat.obj
 0002:00001458       ??_7?$basic_stringbuf@_WU?$char_traits@_W@std@@V?$allocator@_W@2@@std@@6B@ 00490458     Tcformat.obj
 0002:00001494       ??_7?$num_put@_WV?$ostreambuf_iterator@_WU?$char_traits@_W@std@@@std@@@std@@6B@ 00490494     Tcformat.obj
 0002:000014b8       ??_C@_05LAPONLG@false?$AA@ 004904b8     Tcformat.obj
 0002:000014c0       ??_C@_04LOAJBDKD@true?$AA@ 004904c0     Tcformat.obj
 0002:000014c8       ??_C@_08DDAIHKOO@IDCANCEL?$AA@ 004904c8     Tcformat.obj
 0002:000014d4       ??_C@_07OOEIKEPO@DECRYPT?$AA@ 004904d4     Tcformat.obj
 0002:000014dc       ??_C@_07CAOFPAJK@ENCRYPT?$AA@ 004904dc     Tcformat.obj
 0002:000014e4       ??_C@_0BK@CFANEEFJ@CHOOSE_ENCRYPT_OR_DECRYPT?$AA@ 004904e4     Tcformat.obj
 0002:00001500       ??_C@_0DA@NNBJDAHG@CHOOSE_ENCRYPT_OR_DECRYPT_FINALI@ 00490500     Tcformat.obj
 0002:00001530       ??_C@_05KEELGAD@DEFER?$AA@ 00490530     Tcformat.obj
 0002:00001538       ??_C@_0BL@LJPGNBNM@SYSTEM_ENCRYPTION_FINISHED?$AA@ 00490538     Tcformat.obj
 0002:00001554       ??_C@_0CE@PEBPFIOA@AfterSysEncProgressWMInitTasks?38@ 00490554     Tcformat.obj
 0002:0000157c       ??_7?$basic_stringstream@_WU?$char_traits@_W@std@@V?$allocator@_W@2@@std@@6B@ 0049057c     Tcformat.obj
 0002:00001584       ??_7?$numpunct@_W@std@@6B@ 00490584     Tcformat.obj
 0002:0000159c       ??_C@_0BP@CJOANMAM@NONSYS_INPLACE_ENC_IN_PROGRESS?$AA@ 0049059c     Tcformat.obj
 0002:000015c0       ??_7logic_error@std@@6B@   004905c0     Tcformat.obj
 0002:000015cc       ??_7runtime_error@std@@6B@ 004905cc     Tcformat.obj
 0002:000015d8       ??_7length_error@std@@6B@  004905d8     Tcformat.obj
 0002:000015e4       ??_7failure@ios_base@std@@6B@ 004905e4     Tcformat.obj
 0002:000015ec       ??_C@_0BD@OLBABOEK@vector?$DMT?$DO?5too?5long?$AA@ 004905ec     Tcformat.obj
 0002:00001600       ??_C@_08EPJLHIJG@bad?5cast?$AA@ 00490600     Tcformat.obj
 0002:0000160c       ??_C@_0BF@OOHOMBOF@ios_base?3?3eofbit?5set?$AA@ 0049060c     Tcformat.obj
 0002:00001624       ??_C@_0BG@FMKFHCIL@ios_base?3?3failbit?5set?$AA@ 00490624     Tcformat.obj
 0002:0000163c       ??_C@_0BF@PHHKMMFD@ios_base?3?3badbit?5set?$AA@ 0049063c     Tcformat.obj
 0002:00001654       ??_C@_0P@NDJDHMAP@UAC_INIT_ERROR?$AA@ 00490654     Tcformat.obj
 0002:00001664       ??_C@_05KPBLJGDL@runas?$AA@ 00490664     Tcformat.obj
 0002:0000166c       ??_C@_07MDDLOGBN@?1q?5UAC?5?$AA@ 0049066c     Tcformat.obj
 0002:00001674       ??_C@_02CLCFLINC@?1e?$AA@  00490674     Tcformat.obj
 0002:00001678       ??_C@_0BD@LGCKNJIO@COMMAND_LINE_ERROR?$AA@ 00490678     Tcformat.obj
 0002:0000168c       ??_C@_02KAJCLHKP@no?$AA@   0049068c     Tcformat.obj
 0002:00001690       ??_C@_01EFFIKLCJ@n?$AA@    00490690     Tcformat.obj
 0002:00001694       ??_C@_03ICICOMAL@yes?$AA@  00490694     Tcformat.obj
 0002:00001698       ??_C@_01EANLCPLP@y?$AA@    00490698     Tcformat.obj
 0002:0000169c       ??_C@_02OGHPLGEM@?1z?$AA@  0049069c     Tcformat.obj
 0002:000016a0       ??_C@_09FFOCOHMH@?1zinplace?$AA@ 004906a0     Tcformat.obj
 0002:000016ac       ??_C@_02DHLNANAF@?1s?$AA@  004906ac     Tcformat.obj
 0002:000016b0       ??_C@_07PFDFIFLD@?1sysenc?$AA@ 004906b0     Tcformat.obj
 0002:000016b8       ??_C@_02COKGDMEE@?1r?$AA@  004906b8     Tcformat.obj
 0002:000016bc       ??_C@_09PMGMEKMI@?1risysenc?$AA@ 004906bc     Tcformat.obj
 0002:000016c8       ??_C@_02BMJAFOMG@?1p?$AA@  004906c8     Tcformat.obj
 0002:000016cc       ??_C@_02IHJAPHNO@?1i?$AA@  004906cc     Tcformat.obj
 0002:000016d0       ??_C@_08MEKEMIGM@?1isysenc?$AA@ 004906d0     Tcformat.obj
 0002:000016dc       ??_C@_07MFEOHHG@?1encdev?$AA@ 004906dc     Tcformat.obj
 0002:000016e4       ??_C@_02DCDOIJJD@?1d?$AA@  004906e4     Tcformat.obj
 0002:000016e8       ??_C@_08FPKBNNLN@?1dsysenc?$AA@ 004906e8     Tcformat.obj
 0002:000016f4       ??_C@_02HNHPBPFE@?1c?$AA@  004906f4     Tcformat.obj
 0002:000016f8       ??_C@_08FFGENEKE@?1csysenc?$AA@ 004906f8     Tcformat.obj
 0002:00001704       ??_C@_02EPEJHNNG@?1a?$AA@  00490704     Tcformat.obj
 0002:00001708       ??_C@_09PIOBCILE@?1acsysenc?$AA@ 00490708     Tcformat.obj
 0002:00001714       ??_C@_09JABABBPB@?1tokenlib?$AA@ 00490714     Tcformat.obj
 0002:00001720       ??_C@_02FILGPIH@?1q?$AA@   00490720     Tcformat.obj
 0002:00001724       ??_C@_05CMMBDMDD@?1quit?$AA@ 00490724     Tcformat.obj
 0002:0000172c       ??_C@_02MINBGBBJ@?1n?$AA@  0049072c     Tcformat.obj
 0002:00001730       ??_C@_0M@IEGCIDAG@?1noisocheck?$AA@ 00490730     Tcformat.obj
 0002:0000173c       ??_C@_02JOILMGJP@?1h?$AA@  0049073c     Tcformat.obj
 0002:00001740       ??_C@_08BCLHLEKP@?1history?$AA@ 00490740     Tcformat.obj
 0002:0000174c       ??_C@_0L@JGIDNNFC@?9Embedding?$AA@ 0049074c     Tcformat.obj
 0002:00001758       ??_C@_0BK@JMBFHJFE@TRIPLE_DOT_GLYPH_ELLIPSIS?$AA@ 00490758     Tcformat.obj
 0002:00001778       ??_C@_1JO@BPJIPIJP@?$AA?$CK?$AA?$CK?$AA?$CK?$AA?$CK?$AA?$CK?$AA?$CK?$AA?$CK?$AA?$CK?$AA?$CK?$AA?$CK?$AA?$CK?$AA?$CK?$AA?$CK?$AA?$CK?$AA?$CK?$AA?$CK?$AA?$CK?$AA?$CK?$AA?$CK?$AA?$CK?$AA?$CK?$AA?$CK?$AA?$CK?$AA?$CK?$AA?$CK?$AA?$CK?$AA?$CK?$AA?$CK?$AA?$CK?$AA?$CK?$AA?$CK?$AA?$CK@ 00490778     Tcformat.obj
 0002:00001818       ??_C@_01KGKMHCOC@e?$AA@    00490818     Tcformat.obj
 0002:0000181c       ??_C@_01DDCIFGEA@E?$AA@    0049081c     Tcformat.obj
 0002:00001820       ??_C@_02EAOCLKAK@ld?$AA@   00490820     Tcformat.obj
 0002:00001824       ??_C@_02BDDLJJBK@lu?$AA@   00490824     Tcformat.obj
 0002:00001828       ??_C@_02HIKPPMOK@Ld?$AA@   00490828     Tcformat.obj
 0002:0000182c       ??_C@_02CLHGNPPK@Lu?$AA@   0049082c     Tcformat.obj
 0002:00001830       __real@38aa95a5b7f87a0f    00490830     Tcformat.obj
 0002:00001838       __real@4202a05f20000000    00490838     Tcformat.obj
 0002:00001840       __real@4733426172c74d82    00490840     Tcformat.obj
 0002:00001848       __real@0000000000000000    00490848     Tcformat.obj
 0002:00001850       __real@3fe0000000000000    00490850     Tcformat.obj
 0002:00001858       ??_C@_02BBAHNLBA@?$CFp?$AA@ 00490858     Tcformat.obj
 0002:00001860       ??_7?$ContainerForward@V?$vector@UHostDevice@@V?$allocator@UHostDevice@@@std@@@std@@@ForEach@CipherShed@@6B@ 00490860     Tcformat.obj
 0002:0000186c       ??_8?$basic_stringstream@DU?$char_traits@D@std@@V?$allocator@D@2@@std@@7B?$basic_istream@DU?$char_traits@D@std@@@1@@ 0049086c     BootEncryption.obj
 0002:0000186c       ??_8?$basic_stringstream@_WU?$char_traits@_W@std@@V?$allocator@_W@2@@std@@7B?$basic_istream@_WU?$char_traits@_W@std@@@1@@ 0049086c     Tcformat.obj
 0002:00001874       ??_C@_0BD@EJEDNFIG@CONFIRM_WIPE_ABORT?$AA@ 00490874     Tcformat.obj
 0002:00001888       ??_C@_0L@EDOIAICP@isoburning?$AA@ 00490888     Tcformat.obj
 0002:00001898       ??_C@_0EP@HCFFCIHD@?5?5?5?5?5?5?5?5?5?5?5?5?5?5?5?5?5?5?5?5?5?5?5?5?5?5?5?5?5?5?5?5@ 00490898     Tcformat.obj
 0002:000018e8       ??_C@_0BC@LJAPGPK@WARN_QUICK_FORMAT?$AA@ 004908e8     Tcformat.obj
 0002:000018fc       ??_C@_0BE@NLHJLKOB@CONFIRM_SPARSE_FILE?$AA@ 004908fc     Tcformat.obj
 0002:00001910       ??_C@_0CG@FCGANOF@ALGO_NOT_SUPPORTED_FOR_SYS_ENCRY@ 00490910     Tcformat.obj
 0002:00001938       ??_C@_06OACPEFAM@Floppy?$AA@ 00490938     Tcformat.obj
 0002:00001940       ??_C@_0L@GHEOANHD@OPEN_TITLE?$AA@ 00490940     Tcformat.obj
 0002:0000194c       ??_C@_0CK@PHDAOPJF@KEYFILES_NOT_SUPPORTED_FOR_SYS_E@ 0049094c     Tcformat.obj
 0002:00001978       ??_C@_0P@BELAJGNG@hashalgorithms?$AA@ 00490978     Tcformat.obj
 0002:00001988       ??_C@_08GJKBFMAA@cascades?$AA@ 00490988     Tcformat.obj
 0002:00001994       ??_C@_07MJGFOBBE@twofish?$AA@ 00490994     Tcformat.obj
 0002:0000199c       ??_C@_07NLFGMEEL@serpent?$AA@ 0049099c     Tcformat.obj
 0002:000019a4       ??_C@_03BHCPJDHL@aes?$AA@  004909a4     Tcformat.obj
 0002:000019a8       ??_C@_0N@LNDFLMFM@FORMAT_ABORT?$AA@ 004909a8     Tcformat.obj
 0002:000019b8       ??_C@_0N@NEKIIEOI@hiddenvolume?$AA@ 004909b8     Tcformat.obj
 0002:000019c8       ??_C@_0BD@JBNNBEBD@sysencprogressinfo?$AA@ 004909c8     Tcformat.obj
 0002:000019dc       ??_C@_0CN@EDGNFMHB@FILESYS_PAGE_HELP_EXPLANATION_HI@ 004909dc     Tcformat.obj
 0002:00001a0c       ??_C@_0N@LFKKAENK@hiddensysenc?$AA@ 00490a0c     Tcformat.obj
 0002:00001a1c       ??_C@_0M@FEPBHLEO@introsysenc?$AA@ 00490a1c     Tcformat.obj
 0002:00001a28       ??_C@_0P@JBBMPDEB@introcontainer?$AA@ 00490a28     Tcformat.obj
 0002:00001a38       ??_C@_15OJKDPEFE@?$AA?5?$AA?5?$AA?$AA@ 00490a38     Tcformat.obj
 0002:00001a40       ??_C@_04LEEAJJHO@WIPE?$AA@ 00490a40     Tcformat.obj
 0002:00001a48       ??_C@_0BH@IEGJMJEM@DEVICE_WIPE_PAGE_TITLE?$AA@ 00490a48     Tcformat.obj
 0002:00001a60       ??_C@_0BG@OABGGIFL@DEVICE_WIPE_PAGE_INFO?$AA@ 00490a60     Tcformat.obj
 0002:00001a78       ??_C@_0CA@NHNKCAEG@DEVICE_WIPE_PAGE_INFO_HIDDEN_OS?$AA@ 00490a78     Tcformat.obj
 0002:00001a98       ??_C@_0P@JJNKBKFB@WIPE_MODE_INFO?$AA@ 00490a98     Tcformat.obj
 0002:00001aa8       ??_C@_0BL@KAEKPGLE@SYSENC_HIDDEN_OS_WIPE_INFO?$AA@ 00490aa8     Tcformat.obj
 0002:00001ac4       ??_C@_0CB@MMHOKPDB@SYSENC_HIDDEN_OS_WIPE_INFO_TITLE@ 00490ac4     Tcformat.obj
 0002:00001ae8       ??_C@_0BE@EFANAKEM@PageDialogProc?34543?$AA@ 00490ae8     Tcformat.obj
 0002:00001afc       ??_C@_0BK@FHELJNGN@FIRST_HIDDEN_OS_BOOT_INFO?$AA@ 00490afc     Tcformat.obj
 0002:00001b18       ??_C@_0CE@LLANPMHF@SYSENC_HIDDEN_OS_INITIAL_INFO_TI@ 00490b18     Tcformat.obj
 0002:00001b3c       ??_C@_0BG@HBBDJEK@FORMAT_FINISHED_TITLE?$AA@ 00490b3c     Tcformat.obj
 0002:00001b54       ??_C@_0BN@DJMJCNLA@HIDVOL_FORMAT_FINISHED_TITLE?$AA@ 00490b54     Tcformat.obj
 0002:00001b74       ??_C@_0BF@GBMPIMLF@FORMAT_FINISHED_HELP?$AA@ 00490b74     Tcformat.obj
 0002:00001b8c       ??_C@_0CH@DILBCENC@SYSENC_HIDDEN_VOL_FORMAT_FINISHE@ 00490b8c     Tcformat.obj
 0002:00001bb4       ??_C@_0BK@GEKKOMHD@HIDVOL_HOST_FILLING_TITLE?$AA@ 00490bb4     Tcformat.obj
 0002:00001bd0       ??_C@_0BJ@NMHGGMKI@HIDVOL_HOST_FILLING_HELP?$AA@ 00490bd0     Tcformat.obj
 0002:00001bec       ??_C@_0CA@NGPBKLAB@HIDVOL_HOST_FILLING_HELP_SYSENC?$AA@ 00490bec     Tcformat.obj
 0002:00001c0c       ??_C@_1BC@JJPHEOJD@?$AA?$CF?$AAI?$AA6?$AA4?$AAd?$AA?5?$AA?$CF?$AAs?$AA?$AA@ 00490c0c     Tcformat.obj
 0002:00001c20       ??_C@_02LKLDBFPJ@MB?$AA@   00490c20     Tcformat.obj
 0002:00001c24       ??_C@_06DPGELLJH@FORMAT?$AA@ 00490c24     Tcformat.obj
 0002:00001c2c       ??_C@_03JMFMNIFM@?9?9?9?$AA@ 00490c2c     Tcformat.obj
 0002:00001c30       ??_C@_04OKGDLNCL@NONE?$AA@ 00490c30     Tcformat.obj
 0002:00001c38       ??_C@_02LODOGJEL@KB?$AA@   00490c38     Tcformat.obj
 0002:00001c3c       ??_C@_17OFEDBPDO@?$AA0?$AA?4?$AA5?$AA?$AA@ 00490c3c     Tcformat.obj
 0002:00001c44       ??_C@_07MGCPDNLD@DEFAULT?$AA@ 00490c44     Tcformat.obj
 0002:00001c50       ??_C@_0EP@NPBFJCJA@?$CK?$CK?$CK?$CK?$CK?$CK?$CK?$CK?$CK?$CK?$CK?$CK?$CK?$CK?$CK?$CK?$CK?$CK?$CK?$CK?$CK?$CK?$CK?$CK?$CK?$CK?$CK?$CK?$CK?$CK?$CK?$CK@ 00490c50     Tcformat.obj
 0002:00001ca0       ??_C@_0BA@LBGDFDPO@IDC_QUICKFORMAT?$AA@ 00490ca0     Tcformat.obj
 0002:00001cb0       ??_C@_0M@GPMOAIEF@SPARSE_FILE?$AA@ 00490cb0     Tcformat.obj
 0002:00001cbc       ??_C@_0N@FLIHGDJB@FORMAT_TITLE?$AA@ 00490cbc     Tcformat.obj
 0002:00001ccc       ??_C@_0BE@CEEOMNDM@FORMAT_HIDVOL_TITLE?$AA@ 00490ccc     Tcformat.obj
 0002:00001ce0       ??_C@_0BJ@LIGEKHGE@FORMAT_HIDVOL_HOST_TITLE?$AA@ 00490ce0     Tcformat.obj
 0002:00001cfc       ??_C@_0M@EEPPFDAO@FORMAT_HELP?$AA@ 00490cfc     Tcformat.obj
 0002:00001d08       ??_C@_0BI@MEDALEIG@FORMAT_HIDVOL_HOST_HELP?$AA@ 00490d08     Tcformat.obj
 0002:00001d20       ??_C@_08MFKGCNCO@FINALIZE?$AA@ 00490d20     Tcformat.obj
 0002:00001d2c       ??_C@_0CC@LOJCKPNA@NONSYS_INPLACE_ENC_FINISHED_TITL@ 00490d2c     Tcformat.obj
 0002:00001d50       ??_C@_0CI@MDGBIFPN@NONSYS_INPLACE_ENC_ENCRYPTION_PA@ 00490d50     Tcformat.obj
 0002:00001d78       ??_C@_0CK@KEEMKNMD@NONSYS_INPLACE_ENC_RESUME_VOL_SE@ 00490d78     Tcformat.obj
 0002:00001da4       ??_C@_0BM@LFGBLAAC@SYSENC_ENCRYPTION_PAGE_INFO?$AA@ 00490da4     Tcformat.obj
 0002:00001dc0       ??_C@_0L@POBGFBLK@DECRYPTION?$AA@ 00490dc0     Tcformat.obj
 0002:00001dcc       ??_C@_0L@MHHIHFIN@ENCRYPTION?$AA@ 00490dcc     Tcformat.obj
 0002:00001dd8       ??_C@_0CD@BONEGKLO@SYS_ENCRYPTION_PRETEST_RESULT_IN@ 00490dd8     Tcformat.obj
 0002:00001dfc       ??_C@_0CE@FEPHBNLJ@SYS_ENCRYPTION_PRETEST_RESULT_TI@ 00490dfc     Tcformat.obj
 0002:00001e20       ??_C@_04OIKJMBFP@TEST?$AA@ 00490e20     Tcformat.obj
 0002:00001e28       ??_C@_0BM@OIIAJLEO@SYS_ENCRYPTION_PRETEST_INFO?$AA@ 00490e28     Tcformat.obj
 0002:00001e44       ??_C@_0BN@OJLMLLFE@SYS_ENCRYPTION_PRETEST_TITLE?$AA@ 00490e44     Tcformat.obj
 0002:00001e64       ??_C@_05JLPDBANI@START?$AA@ 00490e64     Tcformat.obj
 0002:00001e6c       ??_C@_0CA@GFBCACCB@HIDDEN_OS_CREATION_PREINFO_HELP?$AA@ 00490e6c     Tcformat.obj
 0002:00001e8c       ??_C@_0CB@PAHHLDJJ@HIDDEN_OS_CREATION_PREINFO_TITLE@ 00490e8c     Tcformat.obj
 0002:00001eb0       ??_C@_0BL@KPLPAAMG@INPLACE_ENC_WIPE_MODE_INFO?$AA@ 00490eb0     Tcformat.obj
 0002:00001ecc       ??_C@_0BA@GEMFOMCA@WIPE_MODE_TITLE?$AA@ 00490ecc     Tcformat.obj
 0002:00001edc       ??_C@_0BK@PHEMJDOE@RESCUE_DISK_VERIFIED_INFO?$AA@ 00490edc     Tcformat.obj
 0002:00001ef8       ??_C@_0CA@OFKHEBFP@RESCUE_DISK_DISK_VERIFIED_TITLE?$AA@ 00490ef8     Tcformat.obj
 0002:00001f18       ??_C@_0BD@CHINNFGJ@LAUNCH_WIN_ISOBURN?$AA@ 00490f18     Tcformat.obj
 0002:00001f2c       ??_C@_0BG@KIJPDAJH@RESCUE_DISK_BURN_INFO?$AA@ 00490f2c     Tcformat.obj
 0002:00001f44       ??_C@_0BP@JAENMDIB@RESCUE_DISK_BURN_INFO_NO_CHECK?$AA@ 00490f44     Tcformat.obj
 0002:00001f64       ??_C@_0CI@IHEJGKND@RESCUE_DISK_BURN_INFO_NONWIN_ISO@ 00490f64     Tcformat.obj
 0002:00001f8c       ??_C@_0BM@GPDOJGLC@RESCUE_DISK_RECORDING_TITLE?$AA@ 00490f8c     Tcformat.obj
 0002:00001fa8       ??_C@_0BK@NAGNMEFO@RESCUE_DISK_CREATED_TITLE?$AA@ 00490fa8     Tcformat.obj
 0002:00001fc4       ??_C@_0BB@KBMALCGN@RESCUE_DISK_INFO?$AA@ 00490fc4     Tcformat.obj
 0002:00001fd8       ??_C@_0M@IGHMLIGA@RESCUE_DISK?$AA@ 00490fd8     Tcformat.obj
 0002:00001fe4       ??_C@_0P@KEHBBAFI@KEYS_GEN_TITLE?$AA@ 00490fe4     Tcformat.obj
 0002:00001ff4       ??_C@_0BN@DAHBFIJD@COLLECTING_RANDOM_DATA_TITLE?$AA@ 00490ff4     Tcformat.obj
 0002:00002014       ??_C@_0CF@BDOPEICN@FILESYS_PAGE_HELP_EXPLANATION_HI@ 00491014     Tcformat.obj
 0002:0000203c       ??_C@_0BO@NPNHCCNA@FILESYS_PAGE_HELP_EXPLANATION?$AA@ 0049103c     Tcformat.obj
 0002:0000205c       ??_C@_0P@JPAMOBPC@NOTE_BEGINNING?$AA@ 0049105c     Tcformat.obj
 0002:0000206c       ??_C@_0BL@IEILEGP@FILESYS_PAGE_HELP_QUESTION?$AA@ 0049106c     Tcformat.obj
 0002:00002088       ??_C@_0BD@LCAKBGFA@FILESYS_PAGE_TITLE?$AA@ 00491088     Tcformat.obj
 0002:0000209c       ??_C@_0P@ONGBFCBF@PASSWORD_TITLE?$AA@ 0049109c     Tcformat.obj
 0002:000020ac       ??_C@_0BG@ILMPEOM@PASSWORD_HIDVOL_TITLE?$AA@ 004910ac     Tcformat.obj
 0002:000020c4       ??_C@_0BJ@CPICCPLA@PASSWORD_HIDDEN_OS_TITLE?$AA@ 004910c4     Tcformat.obj
 0002:000020e0       ??_C@_0O@MEODOKDB@PASSWORD_HELP?$AA@ 004910e0     Tcformat.obj
 0002:000020f0       ??_C@_0BI@MNFELCPB@PASSWORD_HIDDENVOL_HELP?$AA@ 004910f0     Tcformat.obj
 0002:00002108       ??_C@_0BI@PAGBOIIN@PASSWORD_HIDDEN_OS_HELP?$AA@ 00491108     Tcformat.obj
 0002:00002120       ??_C@_0BN@OJJOHFMM@PASSWORD_HIDDENVOL_HOST_HELP?$AA@ 00491120     Tcformat.obj
 0002:00002140       ??_C@_0BO@EJBBHKGE@PASSWORD_SYSENC_OUTERVOL_HELP?$AA@ 00491140     Tcformat.obj
 0002:00002160       ??_C@_0BB@MMDPAFIK@CANNOT_SET_TIMER?$AA@ 00491160     Tcformat.obj
 0002:00002174       ??_C@_0CL@KAEHBIEI@CANT_CHANGE_KEYB_LAYOUT_FOR_SYS_@ 00491174     Tcformat.obj
 0002:000021a0       ??_C@_08OKJEGFFL@00000409?$AA@ 004911a0     Tcformat.obj
 0002:000021ac       ??_C@_04JIMNDDED@?$CF08X?$AA@ 004911ac     Tcformat.obj
 0002:000021b4       ??_C@_0BL@DDMDKDAG@PASSWORD_HIDVOL_HOST_TITLE?$AA@ 004911b4     Tcformat.obj
 0002:000021d0       ??_C@_08KENNMKEI@PASSWORD?$AA@ 004911d0     Tcformat.obj
 0002:000021dc       ??_C@_0CE@MPBBLHJC@PASSWORD_HIDDENVOL_HOST_DIRECT_H@ 004911dc     Tcformat.obj
 0002:00002200       ??_C@_0CN@CCCDIOBF@NONSYS_INPLACE_ENC_RESUME_PASSWO@ 00491200     Tcformat.obj
 0002:00002230       ??_C@_0L@DGAKGAKL@SIZE_TITLE?$AA@ 00491230     Tcformat.obj
 0002:0000223c       ??_C@_0BC@COPDBOHD@SIZE_HIDVOL_TITLE?$AA@ 0049123c     Tcformat.obj
 0002:00002250       ??_C@_0BH@GBEPPLEC@SIZE_HIDVOL_HOST_TITLE?$AA@ 00491250     Tcformat.obj
 0002:00002268       ??_C@_05OINFJHGD@?$CFI64u?$AA@ 00491268     Tcformat.obj
 0002:00002270       ??_C@_07NFANNNEC@UNKNOWN?$AA@ 00491270     Tcformat.obj
 0002:00002278       ??_C@_19LJDFFCJJ@?$AA?$CF?$AAs?$AA?$CF?$AAs?$AA?$AA@ 00491278     Tcformat.obj
 0002:00002284       ??_C@_0BE@FGKMPGH@SIZE_PARTITION_HELP?$AA@ 00491284     Tcformat.obj
 0002:00002298       ??_C@_0CC@MIIACKDF@SIZE_PARTITION_HIDDEN_SYSENC_HEL@ 00491298     Tcformat.obj
 0002:000022bc       ??_C@_0BP@JPPBFIHO@SIZE_PARTITION_HIDDEN_VOL_HELP?$AA@ 004912bc     Tcformat.obj
 0002:000022dc       ??_C@_09BEBIICBL@SIZE_HELP?$AA@ 004912dc     Tcformat.obj
 0002:000022e8       ??_C@_0BF@LOOCDJPI@SIZE_HELP_HIDDEN_VOL?$AA@ 004912e8     Tcformat.obj
 0002:00002300       ??_C@_0BK@DEODNGPK@SIZE_HELP_HIDDEN_HOST_VOL?$AA@ 00491300     Tcformat.obj
 0002:0000231c       ??_C@_0N@IMFDFPGM@CIPHER_TITLE?$AA@ 0049131c     Tcformat.obj
 0002:0000232c       ??_C@_0BE@JFKJAJEK@CIPHER_HIDVOL_TITLE?$AA@ 0049132c     Tcformat.obj
 0002:00002340       ??_C@_0BJ@GGKKJCIG@CIPHER_HIDVOL_HOST_TITLE?$AA@ 00491340     Tcformat.obj
 0002:0000235c       ??_C@_0BH@GDOHBMLG@HIDVOL_PRE_CIPHER_HELP?$AA@ 0049135c     Tcformat.obj
 0002:00002374       ??_C@_0BK@FGHOHKMP@HIDDEN_OS_PRE_CIPHER_HELP?$AA@ 00491374     Tcformat.obj
 0002:00002390       ??_C@_04GOLNGIJ@EXIT?$AA@  00491390     Tcformat.obj
 0002:00002398       ??_C@_0CF@OIPNIHCG@HIDDEN_VOLUME_TOO_SMALL_FOR_OS_C@ 00491398     Tcformat.obj
 0002:000023c0       ??_C@_0BI@JOBKEAGA@HIDVOL_PRE_CIPHER_TITLE?$AA@ 004913c0     Tcformat.obj
 0002:000023d8       ??_C@_0N@PJPEEMEG@INVALID_PATH?$AA@ 004913d8     Tcformat.obj
 0002:000023e8       ??_C@_0BM@GCHOHFOK@HIDVOL_HOST_PRE_CIPHER_HELP?$AA@ 004913e8     Tcformat.obj
 0002:00002404       ??_C@_0CD@OMGBOOGK@HIDVOL_HOST_PRE_CIPHER_HELP_SYSE@ 00491404     Tcformat.obj
 0002:00002428       ??_C@_0BN@PMMGMENG@HIDVOL_HOST_PRE_CIPHER_TITLE?$AA@ 00491428     Tcformat.obj
 0002:00002448       ??_C@_0CI@FGJIGFAK@DEVICE_TRANSFORM_MODE_PAGE_INPLA@ 00491448     Tcformat.obj
 0002:00002470       ??_C@_0CH@CJGGIKCO@DEVICE_TRANSFORM_MODE_PAGE_FORMA@ 00491470     Tcformat.obj
 0002:00002498       ??_C@_0CB@IJHCDAO@DEVICE_TRANSFORM_MODE_PAGE_TITLE@ 00491498     Tcformat.obj
 0002:000024bc       ??_C@_0L@DGHBDDNJ@FILE_TITLE?$AA@ 004914bc     Tcformat.obj
 0002:000024c8       ??_C@_09GPELPABL@FILE_HELP?$AA@ 004914c8     Tcformat.obj
 0002:000024d4       ??_C@_0BK@JMGOJAKG@FILE_HELP_HIDDEN_HOST_VOL?$AA@ 004914d4     Tcformat.obj
 0002:000024f0       ??_C@_0M@JNOAPEGE@DEVICE_HELP?$AA@ 004914f0     Tcformat.obj
 0002:000024fc       ??_C@_0BM@DMHDGBOJ@DEVICE_HELP_HIDDEN_HOST_VOL?$AA@ 004914fc     Tcformat.obj
 0002:00002518       ??_C@_0CB@LOIOBDOO@FILE_HELP_HIDDEN_HOST_VOL_DIRECT@ 00491518     Tcformat.obj
 0002:0000253c       ??_C@_0BA@HOMDJPL@IDC_SELECT_FILE?$AA@ 0049153c     Tcformat.obj
 0002:0000254c       ??_C@_0BC@NHEENOIC@IDC_SELECT_DEVICE?$AA@ 0049154c     Tcformat.obj
 0002:00002560       ??_C@_0CD@BGGCLDPJ@HIDDEN_VOL_WIZARD_MODE_DIRECT_HE@ 00491560     Tcformat.obj
 0002:00002584       ??_C@_0CD@LJCMOGBH@HIDDEN_VOL_WIZARD_MODE_NORMAL_HE@ 00491584     Tcformat.obj
 0002:000025a8       ??_C@_0BN@CFKNBCJG@HIDDEN_VOL_WIZARD_MODE_TITLE?$AA@ 004915a8     Tcformat.obj
 0002:000025c8       ??_C@_0BI@OKEJAKDK@NORMAL_VOLUME_TYPE_HELP?$AA@ 004915c8     Tcformat.obj
 0002:000025e0       ??_C@_0BI@OMMJFNJB@HIDDEN_VOLUME_TYPE_HELP?$AA@ 004915e0     Tcformat.obj
 0002:000025f8       ??_C@_0BC@IMPHNJMH@VOLUME_TYPE_TITLE?$AA@ 004915f8     Tcformat.obj
 0002:0000260c       ??_C@_0CA@FOODICMO@SYSENC_MULTI_BOOT_OUTCOME_TITLE?$AA@ 0049160c     Tcformat.obj
 0002:0000262c       ??_C@_0CK@NGBECAKP@SYSENC_MULTI_BOOT_NONWIN_BOOT_LO@ 0049162c     Tcformat.obj
 0002:00002658       ??_C@_0CL@PKMEBLJM@SYSENC_MULTI_BOOT_NONWIN_BOOT_LO@ 00491658     Tcformat.obj
 0002:00002684       ??_C@_0CE@CGLNKLHK@SYSENC_MULTI_BOOT_ADJACENT_SYS_H@ 00491684     Tcformat.obj
 0002:000026a8       ??_C@_0CF@MINJEEM@SYSENC_MULTI_BOOT_ADJACENT_SYS_T@ 004916a8     Tcformat.obj
 0002:000026d0       ??_C@_0CG@GBIPGAOP@SYSENC_MULTI_BOOT_NBR_SYS_DRIVES@ 004916d0     Tcformat.obj
 0002:000026f8       ??_C@_0CH@IMKPMBEM@SYSENC_MULTI_BOOT_NBR_SYS_DRIVES@ 004916f8     Tcformat.obj
 0002:00002720       ??_C@_0M@BAIFEFDO@TWO_OR_MORE?$AA@ 00491720     Tcformat.obj
 0002:0000272c       ??_C@_09BCPPDPEL@DIGIT_ONE?$AA@ 0049172c     Tcformat.obj
 0002:00002738       ??_C@_0CD@ODHMCLM@SYSENC_MULTI_BOOT_SYS_EQ_BOOT_HE@ 00491738     Tcformat.obj
 0002:0000275c       ??_C@_0CE@HOKCHJKA@SYSENC_MULTI_BOOT_SYS_EQ_BOOT_TI@ 0049175c     Tcformat.obj
 0002:00002780       ??_C@_0BK@NAIABFPC@SYS_MULTI_BOOT_MODE_TITLE?$AA@ 00491780     Tcformat.obj
 0002:0000279c       ??_C@_08HBBNJJLH@IDC_EXIT?$AA@ 0049179c     Tcformat.obj
 0002:000027a8       ??_C@_0BO@OEFOGNPK@RETRY_HIDDEN_SECTOR_DETECTION?$AA@ 004917a8     Tcformat.obj
 0002:000027c8       ??_C@_0BN@GHOENGPC@SKIP_HIDDEN_SECTOR_DETECTION?$AA@ 004917c8     Tcformat.obj
 0002:000027e8       ??_C@_0CK@KEHMFNIA@HIDDEN_SECTOR_DETECTION_FAILED_P@ 004917e8     Tcformat.obj
 0002:00002814       ??_C@_0BL@OAMDPDOH@SYSENC_DRIVE_ANALYSIS_INFO?$AA@ 00491814     Tcformat.obj
 0002:00002830       ??_C@_0BM@EGLOODHA@SYSENC_DRIVE_ANALYSIS_TITLE?$AA@ 00491830     Tcformat.obj
 0002:0000284c       ??_C@_0BP@FCJHFGGJ@SYSENC_PRE_DRIVE_ANALYSIS_HELP?$AA@ 0049184c     Tcformat.obj
 0002:0000286c       ??_C@_0CA@IIEHPPGP@SYSENC_PRE_DRIVE_ANALYSIS_TITLE?$AA@ 0049186c     Tcformat.obj
 0002:0000288c       ??_C@_0CJ@CMOPFEFD@SYS_ENCRYPTION_SPAN_WHOLE_SYS_DR@ 0049188c     Tcformat.obj
 0002:000028b8       ??_C@_0BK@FBGFJBLB@SYS_ENCRYPTION_SPAN_TITLE?$AA@ 004918b8     Tcformat.obj
 0002:000028d4       ??_C@_0CF@GBPOCIAL@SYSENC_HIDDEN_OS_REQ_CHECK_PAGE_@ 004918d4     Tcformat.obj
 0002:000028fc       ??_C@_0CG@CLMIJGGF@SYSENC_HIDDEN_OS_REQ_CHECK_PAGE_@ 004918fc     Tcformat.obj
 0002:00002924       ??_C@_0BI@EEMGDNEH@SYSENC_NORMAL_TYPE_HELP?$AA@ 00491924     Tcformat.obj
 0002:0000293c       ??_C@_0BI@FECPKDFP@SYSENC_HIDDEN_TYPE_HELP?$AA@ 0049193c     Tcformat.obj
 0002:00002954       ??_C@_0BH@LFFPJFCG@SYSENC_TYPE_PAGE_TITLE?$AA@ 00491954     Tcformat.obj
 0002:0000296c       ??_C@_0M@BGLIKHAN@INTRO_TITLE?$AA@ 0049196c     Tcformat.obj
 0002:00002978       ??_C@_0P@IDKFBPLE@FORMAT_PAGE_?$CFd?$AA@ 00491978     Tcformat.obj
 0002:00002988       ??_C@_0BM@IHMEHMBJ@IDD_VOL_CREATION_WIZARD_DLG?$AA@ 00491988     Tcformat.obj
 0002:000029a4       ??_C@_0BN@GMGGDPEP@HIDDEN_OS_PRE_CIPHER_WARNING?$AA@ 004919a4     Tcformat.obj
 0002:000029c4       ??_C@_0BI@DFBMOJJF@PASSWORD_HIDDEN_OS_NOTE?$AA@ 004919c4     Tcformat.obj
 0002:000029dc       ??_C@_0CC@MKLHADEI@SETUP_FAILED_BOOT_DRIVE_ENCRYPTE@ 004919dc     Tcformat.obj
 0002:00002a00       ??_C@_0CD@NPEEBJKE@HIDDEN_OS_PRECLUDES_SINGLE_KEY_W@ 00491a00     Tcformat.obj
 0002:00002a24       ??_C@_0BH@HHEGHILA@WHOLE_SYC_DEVICE_RECOM?$AA@ 00491a24     Tcformat.obj
 0002:00002a3c       ??_C@_0CA@DBKKOPEJ@WDE_EXTENDED_PARTITIONS_WARNING?$AA@ 00491a3c     Tcformat.obj
 0002:00002a5c       ??_C@_0CI@HLDNCEMH@WDE_UNSUPPORTED_FOR_EXTENDED_PAR@ 00491a5c     Tcformat.obj
 0002:00002a84       ??_C@_0CH@KNBCDPOB@ASK_ENCRYPT_PARTITION_INSTEAD_OF@ 00491a84     Tcformat.obj
 0002:00002aac       ??_C@_0CB@CKHHFLEI@SYSDRIVE_NON_STANDARD_PARTITIONS@ 00491aac     Tcformat.obj
 0002:00002ad0       ??_C@_0CJ@GFEACENL@SYS_ENCRYPTION_OR_DECRYPTION_IN_@ 00491ad0     Tcformat.obj
 0002:00002afc       ??_C@_0CA@HDGOHFPD@SYSTEM_ENCRYPTION_RESUME_PROMPT?$AA@ 00491afc     Tcformat.obj
 0002:00002b1c       ??_C@_0BA@ICICKJJH@CONFIRM_RESTART?$AA@ 00491b1c     Tcformat.obj
 0002:00002b2c       ??_C@_0DB@IJPDGLEP@HIDDEN_OS_CREATION_NOT_FINISHED_@ 00491b2c     Tcformat.obj
 0002:00002b60       ??_C@_0DB@KJCGFBOB@HIDDEN_OS_CREATION_NOT_FINISHED_@ 00491b60     Tcformat.obj
 0002:00002b94       ??_C@_0CN@NFNCFNOG@HIDDEN_OS_CREATION_NOT_FINISHED_@ 00491b94     Tcformat.obj
 0002:00002bc4       ??_C@_0CE@BLKNBIFF@HIDDEN_OS_CREATION_NOT_FINISHED_@ 00491bc4     Tcformat.obj
 0002:00002be8       ??_C@_0BL@BAAJMEPI@OS_WIPING_NOT_FINISHED_ASK?$AA@ 00491be8     Tcformat.obj
 0002:00002c04       ??_C@_0BK@DFBAAIPH@BOOT_PRETEST_FAILED_RETRY?$AA@ 00491c04     Tcformat.obj
 0002:00002c20       ??_C@_0BG@BONFNHI@AfterWMInitTasks?38739?$AA@ 00491c20     Tcformat.obj
 0002:00002c38       ??_C@_0BG@OLCJJLLP@AfterWMInitTasks?38874?$AA@ 00491c38     Tcformat.obj
 0002:00002c50       ??_C@_0BG@EHDDKOCF@AfterWMInitTasks?38653?$AA@ 00491c50     Tcformat.obj
 0002:00002c68       ??_C@_0CP@MHIMBFBH@SYS_PARTITION_OR_DRIVE_APPEARS_F@ 00491c68     Tcformat.obj
 0002:00002c98       ??_C@_0BC@BOICFCMD@NOTHING_TO_RESUME?$AA@ 00491c98     Tcformat.obj
 0002:00002cac       ??_C@_0CL@LHNBFDMB@SYSTEM_ENCRYPTION_SCHEDULED_BUT_@ 00491cac     Tcformat.obj
 0002:00002cd8       ??_C@_0BG@MOMPKGDO@AfterWMInitTasks?38480?$AA@ 00491cd8     Tcformat.obj
 0002:00002cf0       ??_C@_0BJ@KGJBOMKO@CANNOT_DECRYPT_HIDDEN_OS?$AA@ 00491cf0     Tcformat.obj
 0002:00002d0c       ??_C@_0BH@KAHGPAJO@CONFIRM_EXIT_UNIVERSAL?$AA@ 00491d0c     Tcformat.obj
 0002:00002d24       ??_C@_0BP@IFOLEKLB@CONFIRM_CANCEL_SYS_ENC_PRETEST?$AA@ 00491d24     Tcformat.obj
 0002:00002d44       ??_C@_0CC@KDAJHHMG@CONFIRM_CANCEL_HIDDEN_OS_CREATIO@ 00491d44     Tcformat.obj
 0002:00002d68       ??_C@_0CA@OMHIMMHH@SYSTEM_ENCRYPTION_DEFER_CONFIRM?$AA@ 00491d68     Tcformat.obj
 0002:00002d88       ??_C@_0CA@MDOAMJOP@SYSTEM_DECRYPTION_DEFER_CONFIRM?$AA@ 00491d88     Tcformat.obj
 0002:00002da8       ??_C@_0CB@MEPMKNNG@NONSYS_INPLACE_ENC_DEFER_CONFIRM@ 00491da8     Tcformat.obj
 0002:00002dcc       ??_C@_0CK@DBNLNPHP@FOUND_NO_PARTITION_W_DEFERRED_IN@ 00491dcc     Tcformat.obj
 0002:00002df8       ??_C@_0P@BMFNBJAJ@WIPE_MODE_WARN?$AA@ 00491df8     Tcformat.obj
 0002:00002e08       ??_C@_0BD@ICCGDAH@CONFIRM_WIPE_START?$AA@ 00491e08     Tcformat.obj
 0002:00002e1c       ??_C@_0CH@LLDBJBEP@CONFIRM_WIPE_START_DECOY_SYS_PAR@ 00491e1c     Tcformat.obj
 0002:00002e44       ??_C@_0BI@GNHKCMLM@CANT_DISMOUNT_OUTER_VOL?$AA@ 00491e44     Tcformat.obj
 0002:00002e5c       ??_C@_0BD@NGECJJAH@FORMAT_IN_PROGRESS?$AA@ 00491e5c     Tcformat.obj
 0002:00002e70       ??_C@_0BC@DADPIOMM@CLUSTER_TOO_SMALL?$AA@ 00491e70     Tcformat.obj
 0002:00002e84       ??_C@_0BP@NLBJKNFD@CONFIRM_FAT_FOR_FILES_OVER_4GB?$AA@ 00491e84     Tcformat.obj
 0002:00002ea4       ??_C@_0BJ@NALGNOGO@HIDDEN_VOL_HOST_NTFS_ASK?$AA@ 00491ea4     Tcformat.obj
 0002:00002ec0       ??_C@_0CG@HAPBHPDC@FAT_NOT_AVAILABLE_FOR_SO_LARGE_V@ 00491ec0     Tcformat.obj
 0002:00002ee8       ??_C@_0CK@PNCJJOHK@OUTER_VOLUME_TOO_SMALL_FOR_HIDDE@ 00491ee8     Tcformat.obj
 0002:00002f18       __real@4000cccccccccccd    00491f18     Tcformat.obj
 0002:00002f20       ??_C@_0BN@EFIGHBDJ@OFFER_FAT_FORMAT_ALTERNATIVE?$AA@ 00491f20     Tcformat.obj
 0002:00002f40       ??_C@_0CH@MGEMKCIE@CANNOT_INITIATE_SYS_ENCRYPTION_P@ 00491f40     Tcformat.obj
 0002:00002f68       ??_C@_0CD@DFDNFFMK@CANNOT_INITIATE_HIDDEN_OS_CREATI@ 00491f68     Tcformat.obj
 0002:00002f8c       ??_C@_0BG@DGIFCGMK@PREBOOT_NOT_LOCALIZED?$AA@ 00491f8c     Tcformat.obj
 0002:00002fa4       ??_C@_0BJ@KDGMPLJF@RESCUE_DISK_CHECK_FAILED?$AA@ 00491fa4     Tcformat.obj
 0002:00002fc0       ??_C@_0CL@LCMPFPDG@RESCUE_DISK_CHECK_FAILED_SENTENC@ 00491fc0     Tcformat.obj
 0002:00002fec       ??_C@_0CH@GAGHEKIC@RESCUE_DISK_WIN_ISOBURN_PRELAUNC@ 00491fec     Tcformat.obj
 0002:00003014       ??_C@_0BP@EJPBDEFG@RESCUE_DISK_BURN_NO_CHECK_WARN?$AA@ 00492014     Tcformat.obj
 0002:00003034       ??_C@_0CK@BHLKCEED@CD_BURNER_NOT_PRESENT_WILL_STORE@ 00492034     Tcformat.obj
 0002:00003060       ??_C@_0CF@OBJIPJKN@CD_BURNER_NOT_PRESENT_WILL_STORE@ 00492060     Tcformat.obj
 0002:00003088       ??_C@_0BG@GLKAIFEA@CD_BURNER_NOT_PRESENT?$AA@ 00492088     Tcformat.obj
 0002:000030a0       ??_C@_0CE@FEAJEJEJ@CD_BURNER_NOT_PRESENT_CONNECTED_@ 004920a0     Tcformat.obj
 0002:000030c4       ??_C@_0CJ@FCOKHALJ@CD_BURNER_NOT_PRESENT_WILL_CONNE@ 004920c4     Tcformat.obj
 0002:000030f0       ??_C@_0DG@KNHACFHE@CANNOT_CREATE_NON_HIDDEN_NTFS_VO@ 004920f0     Tcformat.obj
 0002:00003128       ??_C@_0CF@HFPIFBIF@CANNOT_SATISFY_OVER_4G_FILE_SIZE@ 00492128     Tcformat.obj
 0002:00003150       ??_C@_0BP@BGCHIACG@CANNOT_RESTORE_KEYBOARD_LAYOUT?$AA@ 00492150     Tcformat.obj
 0002:00003170       ??_C@_0BJ@CPHEENHA@UNSUPPORTED_CHARS_IN_PWD?$AA@ 00492170     Tcformat.obj
 0002:0000318c       ??_C@_0CH@NJLIGNCF@FREE_SPACE_FOR_WRITING_TO_OUTER_@ 0049218c     Tcformat.obj
 0002:000031b8       __real@3feb333333333333    004921b8     Tcformat.obj
 0002:000031c0       ??_C@_0BL@IAHLEEBN@VOLUME_TOO_LARGE_FOR_WINXP?$AA@ 004921c0     Tcformat.obj
 0002:000031dc       ??_C@_0BL@FEGMEEPN@VOLUME_TOO_LARGE_FOR_FAT32?$AA@ 004921dc     Tcformat.obj
 0002:000031f8       ??_C@_05HNJNFBJJ@FAT32?$AA@ 004921f8     Tcformat.obj
 0002:00003200       ??_C@_0CA@HENDJLLF@NOTE_CASCADE_FOR_SYS_ENCRYPTION?$AA@ 00492200     Tcformat.obj
 0002:00003220       ??_C@_0CD@HEIAMGDN@CONFIRM_CASCADE_FOR_SYS_ENCRYPTI@ 00492220     Tcformat.obj
 0002:00003244       ??_C@_0CC@NCAFIIDC@NONSYS_INPLACE_ENC_CONFIRM_BACKU@ 00492244     Tcformat.obj
 0002:00003268       ??_C@_0BH@BGCKDFKI@HIDDEN_VOL_HOST_SPARSE?$AA@ 00492268     Tcformat.obj
 0002:00003280       ??_C@_0BL@LHDMMKJO@EXE_FILE_EXTENSION_CONFIRM?$AA@ 00492280     Tcformat.obj
 0002:0000329c       ??_C@_0BP@NCOMIFAB@CONFIRM_SYSTEM_ENCRYPTION_MODE?$AA@ 0049229c     Tcformat.obj
 0002:000032bc       ??_C@_0BA@ECFGGOBI@ALREADY_MOUNTED?$AA@ 004922bc     Tcformat.obj
 0002:000032cc       ??_C@_0CD@DKKKPMLO@DEVICE_SELECTED_IN_NON_DEVICE_MO@ 004922cc     Tcformat.obj
 0002:000032f0       ??_C@_0CK@NNPIGIED@HIDDEN_VOL_CREATION_UNDER_HIDDEN@ 004922f0     Tcformat.obj
 0002:0000331c       ??_C@_0BN@DOPCDKC@ADMIN_PRIVILEGES_WARN_HIDVOL?$AA@ 0049231c     Tcformat.obj
 0002:0000333c       ??_C@_0BK@EHEECKKC@WINDOWS_BOOT_LOADER_HINTS?$AA@ 0049233c     Tcformat.obj
 0002:00003358       ??_C@_0CI@KANLNDNO@CUSTOM_BOOT_MANAGERS_IN_MBR_UNSU@ 00492358     Tcformat.obj
 0002:00003380       ??_C@_0DC@EAFFGLI@WDE_UNSUPPORTED_FOR_MULTIPLE_SYS@ 00492380     Tcformat.obj
 0002:000033b4       ??_C@_0CE@BLBEBHP@SYS_PARTITION_MUST_BE_ON_BOOT_DR@ 004923b4     Tcformat.obj
 0002:000033d8       ??_C@_0BG@HEENEHGK@DECOY_OS_REQUIREMENTS?$AA@ 004923d8     Tcformat.obj
 0002:000033f0       ??_C@_0CH@PDMBGJBN@CONFIRM_HIDDEN_OS_EXTRA_BOOT_PAR@ 004923f0     Tcformat.obj
 0002:00003418       ??_C@_0CF@PJBIBHBE@UNSUPPORTED_HIDDEN_OS_MULTI_BOOT@ 00492418     Tcformat.obj
 0002:00003440       ??_C@_0BF@OEFLIJFC@HIDDEN_OS_MULTI_BOOT?$AA@ 00492440     Tcformat.obj
 0002:00003458       ??_C@_0BN@EDCHAEND@MULTI_BOOT_FOR_ADVANCED_ONLY?$AA@ 00492458     Tcformat.obj
 0002:00003478       ??_C@_0CH@OILEALFF@HIDDEN_OS_WRITE_PROTECTION_EXPLA@ 00492478     Tcformat.obj
 0002:000034a0       ??_C@_0CG@LFCLDECM@HIDDEN_OS_WRITE_PROTECTION_BRIEF@ 004924a0     Tcformat.obj
 0002:000034c8       ??_C@_0BL@IDNPDOGL@DECOY_OS_REINSTALL_WARNING?$AA@ 004924c8     Tcformat.obj
 0002:000034e4       ??_C@_0CI@HFDNHKMM@GAP_BETWEEN_SYS_AND_HIDDEN_OS_PA@ 004924e4     Tcformat.obj
 0002:0000350c       ??_C@_0BI@BGKLALIE@CONTAINER_ADMIN_WARNING?$AA@ 0049250c     Tcformat.obj
 0002:00003524       ??_C@_0BJ@EAMLJMAO@DECOY_OS_VERSION_WARNING?$AA@ 00492524     Tcformat.obj
 0002:00003540       ??_C@_0CF@JGIFKPLM@WIPE_FINISHED_DECOY_SYSTEM_PARTI@ 00492540     Tcformat.obj
 0002:00003568       ??_C@_0BN@KCOCCGGE@SYS_DRIVE_SIZE_PROBE_TIMEOUT?$AA@ 00492568     Tcformat.obj
 0002:00003588       ??_C@_0CF@OEJEFNLJ@ALT_KEY_CHARS_NOT_FOR_SYS_ENCRYP@ 00492588     Tcformat.obj
 0002:000035b0       ??_C@_0CA@HGCGAMEK@KEYB_LAYOUT_SYS_ENC_EXPLANATION?$AA@ 004925b0     Tcformat.obj
 0002:000035d0       ??_C@_0BN@MNCKOJDH@KEYB_LAYOUT_CHANGE_PREVENTED?$AA@ 004925d0     Tcformat.obj
 0002:000035f0       ??_C@_0CF@BKMHLPHL@DISCARD_UNREADABLE_ENCRYPTED_SEC@ 004925f0     Tcformat.obj
 0002:00003618       ??_C@_0BL@HGGGHBLG@SYSTEM_DECRYPTION_FINISHED?$AA@ 00492618     Tcformat.obj
 0002:00003634       ??_C@_04JFFKLGJF@?$CF02X?$AA@ 00492634     Tcformat.obj
 0002:0000363c       ??_C@_0BM@LNJIBCAI@?2CipherShed?5Rescue?5Disk?4iso?$AA@ 0049263c     Tcformat.obj
 0002:00003658       ??_C@_0BI@FLNDDLDP@TC_INSTALLER_IS_RUNNING?$AA@ 00492658     Tcformat.obj
 0002:00003670       ??_C@_0BG@DKEEGIEL@ERR_SELF_TESTS_FAILED?$AA@ 00492670     Tcformat.obj
 0002:00003688       ??_C@_08ELEAABKI@NODRIVER?$AA@ 00492688     Tcformat.obj
 0002:00003694       ??_C@_09PLHAEEAO@INIT_RAND?$AA@ 00492694     Tcformat.obj
 0002:000036a0       ??_C@_0N@PDPHKHCO@INIT_SYS_ENC?$AA@ 004926a0     Tcformat.obj
 0002:000036b0       ??_C@_1DO@BMONIIMG@?$AAE?$AAl?$AAe?$AAv?$AAa?$AAt?$AAi?$AAo?$AAn?$AA?3?$AAA?$AAd?$AAm?$AAi?$AAn?$AAi?$AAs?$AAt?$AAr?$AAa?$AAt?$AAo?$AAr?$AA?$CB?$AAn?$AAe?$AAw?$AA?3?$AA?$CF?$AAs?$AA?$AA@ 004926b0     BaseCom.obj
 0002:000036f0       ??_C@_06JBKGCNBB@Delete?$AA@ 004926f0     BootEncryption.obj
 0002:000036f8       ??_C@_08KAAPDIAN@NoRemove?$AA@ 004926f8     BootEncryption.obj
 0002:00003704       ??_C@_0M@DBGDLGLL@ForceRemove?$AA@ 00492704     BootEncryption.obj
 0002:00003710       ??_C@_03LAIAPFCB@Val?$AA@  00492710     BootEncryption.obj
 0002:00003714       ??_C@_01HMGJMAIH@B?$AA@    00492714     BootEncryption.obj
 0002:00003718       ??_C@_01CKDDGHAB@D?$AA@    00492718     BootEncryption.obj
 0002:0000371c       ??_C@_01PLPBNMEI@M?$AA@    0049271c     BootEncryption.obj
 0002:00003720       ??_C@_01CPLAODJH@S?$AA@    00492720     BootEncryption.obj
 0002:00003748       ??_7ParameterIncorrect@CipherShed@@6B@ 00492748     BootEncryption.obj
 0002:00003750       ??_7TimeOut@CipherShed@@6B@ 00492750     BootEncryption.obj
 0002:00003754       ??_C@_1BA@BKONPLFM@?$AAT?$AAi?$AAm?$AAe?$AAo?$AAu?$AAt?$AA?$AA@ 00492754     BootEncryption.obj
 0002:00003764       ??_C@_0CM@CEEDGJNL@SYSTEM?2CurrentControlSet?2Service@ 00492764     BootEncryption.obj
 0002:00003790       ??_C@_0BA@DGAECNJJ@TrueCryptConfig?$AA@ 00492790     BootEncryption.obj
 0002:000037a4       ??_7?$basic_ostream@DU?$char_traits@D@std@@@std@@6B@ 004927a4     BootEncryption.obj
 0002:000037ac       ??_7?$basic_istream@DU?$char_traits@D@std@@@std@@6B@ 004927ac     BootEncryption.obj
 0002:000037b4       ??_7?$basic_iostream@DU?$char_traits@D@std@@@std@@6B@ 004927b4     BootEncryption.obj
 0002:000037bc       ??_7?$basic_ios@DU?$char_traits@D@std@@@std@@6B@ 004927bc     BootEncryption.obj
 0002:000037c4       ??_7?$ctype@D@std@@6B@     004927c4     BootEncryption.obj
 0002:000037f4       ??_7SystemException@CipherShed@@6B@ 004927f4     BootEncryption.obj
 0002:000037f8       ??_C@_05FHMJPCKA@Start?$AA@ 004927f8     BootEncryption.obj
 0002:00003800       ??_C@_0DE@BEKIOJOB@CipherShed?3?3BootEncryption?3?3Crea@ 00492800     BootEncryption.obj
 0002:00003834       ??_C@_0DE@KAMEPNJL@CipherShed?3?3BootEncryption?3?3Crea@ 00492834     BootEncryption.obj
 0002:0000386c       ??_7?$basic_streambuf@DU?$char_traits@D@std@@@std@@6B@ 0049286c     BootEncryption.obj
 0002:000038a8       ??_7?$basic_stringbuf@DU?$char_traits@D@std@@V?$allocator@D@2@@std@@6B@ 004928a8     BootEncryption.obj
 0002:000038e4       ??_7?$num_put@DV?$ostreambuf_iterator@DU?$char_traits@D@std@@@std@@@std@@6B@ 004928e4     BootEncryption.obj
 0002:00003908       ??_C@_0CE@GNNPIDPE@CipherShed?3?3Elevator?3?3CallDriver@ 00492908     BootEncryption.obj
 0002:0000392c       ??_C@_0CE@DJMDJKCL@CipherShed?3?3Elevator?3?3CallDriver@ 0049292c     BootEncryption.obj
 0002:00003950       ??_C@_0CI@EGPFOACG@CipherShed?3?3Elevator?3?3ReadWriteF@ 00492950     BootEncryption.obj
 0002:00003978       ??_C@_0DE@KBNMFIML@CipherShed?3?3BootEncryption?3?3GetV@ 00492978     BootEncryption.obj
 0002:000039ac       ??_C@_0DC@PEOMHNLJ@CipherShed?3?3BootEncryption?3?3Star@ 004929ac     BootEncryption.obj
 0002:000039e0       ??_C@_0DC@IJJLIJPM@CipherShed?3?3BootEncryption?3?3Star@ 004929e0     BootEncryption.obj
 0002:00003a14       ??_C@_0DC@LKGPIBEJ@CipherShed?3?3BootEncryption?3?3Star@ 00492a14     BootEncryption.obj
 0002:00003a48       ??_C@_0DB@MMOGPFNJ@CipherShed?3?3BootEncryption?3?3Star@ 00492a48     BootEncryption.obj
 0002:00003a7c       ??_C@_0DB@OIGGNLGJ@CipherShed?3?3BootEncryption?3?3Star@ 00492a7c     BootEncryption.obj
 0002:00003ab4       ??_7?$basic_stringstream@DU?$char_traits@D@std@@V?$allocator@D@2@@std@@6B@ 00492ab4     BootEncryption.obj
 0002:00003abc       ??_7?$numpunct@D@std@@6B@  00492abc     BootEncryption.obj
 0002:00003ad8       ??_7ErrorException@CipherShed@@6B@ 00492ad8     BootEncryption.obj
 0002:00003adc       ??_C@_0BB@MOGOBHAF@list?$DMT?$DO?5too?5long?$AA@ 00492adc     BootEncryption.obj
 0002:00003af0       ??_C@_01PKGAHCOL@?$CJ?$AA@ 00492af0     BootEncryption.obj
 0002:00003af8       ??_C@_0IM@CKBKFPJM@Parameter?5incorrect?4?6?6?6?$CIIf?5you?5r@ 00492af8     BootEncryption.obj
 0002:00003b84       ??_C@_04GBDIODIA@?2?2?4?2?$AA@ 00492b84     BootEncryption.obj
 0002:00003b8c       ??_C@_0BM@DMJIFPGL@FOR_MORE_INFO_ON_PARTITIONS?$AA@ 00492b8c     BootEncryption.obj
 0002:00003ba8       ??_C@_0CE@LDACPNCN@TWO_SYSTEMS_IN_ONE_PARTITION_REM@ 00492ba8     BootEncryption.obj
 0002:00003bcc       ??_C@_0CN@IFJIKPHJ@CipherShed?3?3BootEncryption?3?3GetT@ 00492bcc     BootEncryption.obj
 0002:00003bfc       ??_C@_0BH@KENEBBHH@Original?5System?5Loader?$AA@ 00492bfc     BootEncryption.obj
 0002:00003c14       ??_C@_0L@LGADMAPO@?2TrueCrypt?$AA@ 00492c14     BootEncryption.obj
 0002:00003c20       ??_C@_03OPPAHFLA@X?3?2?$AA@ 00492c20     BootEncryption.obj
 0002:00003c24       ??_C@_02EHLIIHJM@X?3?$AA@  00492c24     BootEncryption.obj
 0002:00003c28       ??_C@_0DC@LNPGLDIG@CipherShed?3?3BootEncryption?3?3Veri@ 00492c28     BootEncryption.obj
 0002:00003c5c       ??_C@_0DC@PMGJGMIM@SYSTEM?2CurrentControlSet?2Control@ 00492c5c     BootEncryption.obj
 0002:00003c90       ??_C@_0DC@DDPDEKGA@SYSTEM?2CurrentControlSet?2Control@ 00492c90     BootEncryption.obj
 0002:00003cc8       ??_C@_0EL@DAJCBMFB@SYSTEM?2CurrentControlSet?2Control@ 00492cc8     BootEncryption.obj
 0002:00003d18       ??_C@_0EL@LBBGNDAK@SYSTEM?2CurrentControlSet?2Control@ 00492d18     BootEncryption.obj
 0002:00003d64       ??_C@_07LMLHFMEG@Service?$AA@ 00492d64     BootEncryption.obj
 0002:00003d6c       ??_C@_0CL@GLOJDCBD@Mounts?5CipherShed?5system?5favorit@ 00492d6c     BootEncryption.obj
 0002:00003d98       ??_C@_0BJ@PDMGJHBJ@TrueCryptSystemFavorites?$AA@ 00492d98     BootEncryption.obj
 0002:00003db4       ??_C@_0BL@PJLIINBJ@TrueCrypt?5System?5Favorites?$AA@ 00492db4     BootEncryption.obj
 0002:00003dd0       ??_C@_09ENFKIOHO@Event?5Log?$AA@ 00492dd0     BootEncryption.obj
 0002:00003ddc       ??_C@_0BK@KLJIEDOC@?$CC?5?1systemFavoritesService?$AA@ 00492ddc     BootEncryption.obj
 0002:00003df8       ??_C@_01BJJEKLCA@?$CC?$AA@ 00492df8     BootEncryption.obj
 0002:00003dfc       ??_C@_0P@KEOPEMDF@CipherShed?4exe?$AA@ 00492dfc     BootEncryption.obj
 0002:00003e10       ??_C@_0ED@FMLJHJOD@System?2CurrentControlSet?2Control@ 00492e10     BootEncryption.obj
 0002:00003e54       ??_C@_0M@BHFNFFHI@PagingFiles?$AA@ 00492e54     BootEncryption.obj
 0002:00003e60       ??_C@_0BE@GGLBNJIB@X?3?2pagefile?4sys?50?50?$AA@ 00492e60     BootEncryption.obj
 0002:00003e74       ??_C@_06IBDJIBGI@Filter?$AA@ 00492e74     BootEncryption.obj
 0002:00003e7c       ??_C@_01KICIPPFI@?2?$AA@   00492e7c     BootEncryption.obj
 0002:00003e80       ??_C@_0BH@CAKDGKKJ@?2drivers?2truecrypt?4sys?$AA@ 00492e80     BootEncryption.obj
 0002:00003e98       ??_C@_09EFLFAGB@truecrypt?$AA@ 00492e98     BootEncryption.obj
 0002:00003ea4       ??_C@_0BK@HBDIJMEI@TEMP_NOT_ON_SYS_PARTITION?$AA@ 00492ea4     BootEncryption.obj
 0002:00003ec0       ??_C@_0CC@GBKHKMEM@USER_PROFILE_NOT_ON_SYS_PARTITIO@ 00492ec0     BootEncryption.obj
 0002:00003ee4       ??_C@_05JLNEMJLN@dummy?$AA@ 00492ee4     BootEncryption.obj
 0002:00003eec       ??_C@_0CH@FJCBOPJI@RESTRICT_PAGING_FILES_TO_SYS_PAR@ 00492eec     BootEncryption.obj
 0002:00003f14       ??_C@_0CM@BBEONPDF@LEAKS_OUTSIDE_SYSPART_UNIVERSAL_@ 00492f14     BootEncryption.obj
 0002:00003f40       ??_C@_0CB@KMEGGAHA@PAGING_FILE_NOT_ON_SYS_PARTITION@ 00492f40     BootEncryption.obj
 0002:00003f64       ??_8?$basic_iostream@_WU?$char_traits@_W@std@@@std@@7B?$basic_ostream@_WU?$char_traits@_W@std@@@1@@ 00492f64     Tcformat.obj
 0002:00003f64       ??_8?$basic_iostream@DU?$char_traits@D@std@@@std@@7B?$basic_ostream@DU?$char_traits@D@std@@@1@@ 00492f64     BootEncryption.obj
 0002:00003f6c       ??_8?$basic_iostream@_WU?$char_traits@_W@std@@@std@@7B?$basic_istream@_WU?$char_traits@_W@std@@@1@@ 00492f6c     Tcformat.obj
 0002:00003f6c       ??_8?$basic_iostream@DU?$char_traits@D@std@@@std@@7B?$basic_istream@DU?$char_traits@D@std@@@1@@ 00492f6c     BootEncryption.obj
 0002:00003f74       ??_8?$basic_stringstream@DU?$char_traits@D@std@@V?$allocator@D@2@@std@@7B?$basic_ostream@DU?$char_traits@D@std@@@1@@ 00492f74     BootEncryption.obj
 0002:00003f74       ??_8?$basic_stringstream@_WU?$char_traits@_W@std@@V?$allocator@_W@2@@std@@7B?$basic_ostream@_WU?$char_traits@_W@std@@@1@@ 00492f74     Tcformat.obj
 0002:00003f80       ??_7?$ContainerForward@V?$list@UPartition@CipherShed@@V?$allocator@UPartition@CipherShed@@@std@@@std@@@ForEach@CipherShed@@6B@ 00492f80     BootEncryption.obj
 0002:00003f8c       ??_C@_01JLIPDDHJ@?3?$AA@   00492f8c     BootEncryption.obj
 0002:00003f90       ??_C@_17LGGGMOOB@?$AA?$CF?$AAh?$AAs?$AA?$AA@ 00492f90     BootEncryption.obj
 0002:00003f98       ??_C@_0BB@EPPOJBJL@?2Device?2Harddisk?$AA@ 00492f98     BootEncryption.obj
 0002:00003fac       ??_C@_0L@DPPABKKK@?2Partition?$AA@ 00492fac     BootEncryption.obj
 0002:00003fb8       ??_C@_0M@OJHKIMBP@?2Partition0?$AA@ 00492fb8     BootEncryption.obj
 0002:00003fc4       ??_C@_0DA@NMHPMMAN@CipherShed?3?3BootEncryption?3?3Regi@ 00492fc4     BootEncryption.obj
 0002:00003ff4       ??_C@_03CGLHDMIP@?$CC?$AN?6?$AA@ 00492ff4     BootEncryption.obj
 0002:00003ff8       ??_C@_02JGFLNPEJ@?0?$CC?$AA@ 00492ff8     BootEncryption.obj
 0002:00003ffc       ??_C@_08OHAGLOJG@?$CC?00x0001?$AA@ 00492ffc     BootEncryption.obj
 0002:00004008       ??_C@_0CN@BKHLFBOK@Reg?$DNtruecrypt_reg?$AN?6?$AN?6?$FLtruecrypt_@ 00493008     BootEncryption.obj
 0002:00004038       ??_C@_0O@HCLLBHKI@?$FLtruecrypt?$FN?$AN?6?$AA@ 00493038     BootEncryption.obj
 0002:00004048       ??_C@_03ENJJMCOJ@Del?$AA@  00493048     BootEncryption.obj
 0002:0000404c       ??_C@_04JBLMLCOF@8002?$AA@ 0049304c     BootEncryption.obj
 0002:00004054       ??_C@_03LDFMNCOE@Add?$AA@  00493054     BootEncryption.obj
 0002:00004058       ??_C@_04FLCDBBKO@0008?$AA@ 00493058     BootEncryption.obj
 0002:00004060       ??_C@_0BM@GBCKDJAI@?2truecrypt_driver_setup?4inf?$AA@ 00493060     BootEncryption.obj
 0002:0000407c       ??_C@_0N@KPKBADH@UpperFilters?$AA@ 0049307c     BootEncryption.obj
 0002:0000408c       ??_C@_0CO@FIPMIJLN@SYSTEM?2CurrentControlSet?2Control@ 0049308c     BootEncryption.obj
 0002:000040bc       ??_C@_0M@DBKHNNPD@DumpFilters?$AA@ 004930bc     BootEncryption.obj
 0002:000040c8       ??_C@_0O@OJENBJKN@truecrypt?4sys?$AA@ 004930c8     BootEncryption.obj
 0002:000040d8       ??_C@_0DG@DPKAKJNE@CipherShed?3?3BootEncryption?3?3Regi@ 004930d8     BootEncryption.obj
 0002:00004110       ??_C@_0O@ICNEBHDC@PhysicalDrive?$AA@ 00493110     BootEncryption.obj
 0002:00004120       ??_C@_0DM@GPLMBDCL@CipherShed?3?3BootEncryption?3?3GetS@ 00493120     BootEncryption.obj
 0002:0000415c       ??_C@_1O@MIGMNGND@?$AA?2?$AAn?$AAt?$AAl?$AAd?$AAr?$AA?$AA@ 0049315c     BootEncryption.obj
 0002:0000416c       ??_C@_1BC@EONGMCPP@?$AA?2?$AAb?$AAo?$AAo?$AAt?$AAm?$AAg?$AAr?$AA?$AA@ 0049316c     BootEncryption.obj
 0002:00004180       ??_C@_06JLGNLLFE@?2ntldr?$AA@ 00493180     BootEncryption.obj
 0002:00004188       ??_C@_08OINNAHG@?2bootmgr?$AA@ 00493188     BootEncryption.obj
 0002:00004194       ??_C@_0DK@JGBACLGO@CipherShed?3?3BootEncryption?3?3Crea@ 00493194     BootEncryption.obj
 0002:000041d0       ??_C@_0DK@BEMHCBCE@CipherShed?3?3BootEncryption?3?3Crea@ 004931d0     BootEncryption.obj
 0002:0000420c       ??_C@_0DK@GLPGGLDI@CipherShed?3?3BootEncryption?3?3Crea@ 0049320c     BootEncryption.obj
 0002:00004248       ??_C@_0DK@HIHDHHHD@CipherShed?3?3BootEncryption?3?3Crea@ 00493248     BootEncryption.obj
 0002:00004284       ??_C@_03POBHGEJB@BIN?$AA@  00493284     BootEncryption.obj
 0002:00004288       ??_C@_0DJ@GPBHKCOJ@CipherShed?3?3BootEncryption?3?3Crea@ 00493288     BootEncryption.obj
 0002:000042c4       ??_C@_0DJ@ODNDPJBL@CipherShed?3?3BootEncryption?3?3Crea@ 004932c4     BootEncryption.obj
 0002:00004300       ??_C@_0DG@CKKLIKE@CipherShed?3?3BootEncryption?3?3Read@ 00493300     BootEncryption.obj
 0002:00004338       ??_C@_0BE@GPJOEGCF@ERROR_MBR_PROTECTED?$AA@ 00493338     BootEncryption.obj
 0002:0000434c       ??_C@_09EMKKFGIH@TrueCrypt?$AA@ 0049334c     BootEncryption.obj
 0002:00004358       ??_C@_0CH@FHEPLLOO@SYS_LOADER_UNAVAILABLE_FOR_RESCU@ 00493358     BootEncryption.obj
 0002:00004380       ??_C@_0DG@JACPMNCC@CipherShed?3?3BootEncryption?3?3Crea@ 00493380     BootEncryption.obj
 0002:000043b8       ??_C@_07DAAEPPCP@?$PPCD001?$AB?$AA@ 004933b8     BootEncryption.obj
 0002:000043c0       ??_C@_0BO@DHOJLLGB@CD001?$ABEL?5TORITO?5SPECIFICATION?$AA@ 004933c0     BootEncryption.obj
 0002:000043e0       ??_C@_0CB@CJJIHEGK@CipherShed?5Rescue?5Disk?5?5?5?5?5?5?5?5?5?5@ 004933e0     BootEncryption.obj
 0002:00004404       ??_C@_07NKOFPJFH@?$ABCD001?$AB?$AA@ 00493404     BootEncryption.obj
 0002:0000440c       ??_C@_0DG@DFFALKBD@CipherShed?3?3BootEncryption?3?3Crea@ 0049340c     BootEncryption.obj
 0002:00004444       ??_C@_0DF@IFPPOCCI@CipherShed?3?3BootEncryption?3?3Inst@ 00493444     BootEncryption.obj
 0002:0000447c       ??_C@_0CB@MECAALD@TC_BOOT_LOADER_ALREADY_INSTALLED@ 0049347c     BootEncryption.obj
 0002:000044a0       ??_C@_0DF@ENOIFGHN@CipherShed?3?3BootEncryption?3?3Rest@ 004934a0     BootEncryption.obj
 0002:000044d8       ??_C@_0CL@ONMILKEN@CipherShed?3?3BootEncryption?3?3Dein@ 004934d8     BootEncryption.obj
 0002:00004504       ??_C@_0BK@DNPPNAJB@SYS_LOADER_RESTORE_FAILED?$AA@ 00493504     BootEncryption.obj
 0002:00004520       ??_C@_0CL@LMNNHBJM@CipherShed?3?3BootEncryption?3?3Dein@ 00493520     BootEncryption.obj
 0002:0000454c       ??_C@_0CJ@JDMKDHBB@CipherShed?3?3BootEncryption?3?3Inst@ 0049354c     BootEncryption.obj
 0002:00004578       ??_C@_0CC@PECBFKPM@PARTITION_TOO_SMALL_FOR_HIDDEN_O@ 00493578     BootEncryption.obj
 0002:000045a0       __real@3ff0cccccccccccd    004935a0     BootEncryption.obj
 0002:000045a8       ??_C@_0CH@NLNOGBOO@PARTITION_TOO_SMALL_FOR_HIDDEN_O@ 004935a8     BootEncryption.obj
 0002:000045d0       ??_C@_0CE@MAHFALCP@NO_PARTITION_FOLLOWS_BOOT_PARTIT@ 004935d0     BootEncryption.obj
 0002:000045f4       ??_C@_0BM@FBNGAMD@SYSTEM_PARTITION_NOT_ACTIVE?$AA@ 004935f4     BootEncryption.obj
 0002:00004610       ??_C@_0DI@GANEDLKO@CipherShed?3?3BootEncryption?3?3GetP@ 00493610     BootEncryption.obj
 0002:00004648       ??_C@_0EB@LMALMOBJ@CipherShed?3?3BootEncryption?3?3Syst@ 00493648     BootEncryption.obj
 0002:0000468c       ??_C@_0DM@EMOLLBJP@CipherShed?3?3BootEncryption?3?3Wipe@ 0049368c     BootEncryption.obj
 0002:000046c8       ??_C@_0DM@NIPGLBBL@CipherShed?3?3BootEncryption?3?3Wipe@ 004936c8     BootEncryption.obj
 0002:00004704       ??_C@_0CA@PKMHCFDK@WINDOWS_NOT_ON_BOOT_DRIVE_ERROR?$AA@ 00493704     BootEncryption.obj
 0002:00004724       ??_C@_0CE@NNOADDIE@SYSENC_UNSUPPORTED_SECTOR_SIZE_B@ 00493724     BootEncryption.obj
 0002:00004748       ??_C@_0BJ@HICFFOOK@NO_SPACE_FOR_BOOT_LOADER?$AA@ 00493748     BootEncryption.obj
 0002:00004764       ??_C@_0CE@HGBKLHHD@SYSENC_UNSUPPORTED_FOR_DYNAMIC_D@ 00493764     BootEncryption.obj
 0002:00004788       ??_C@_0BL@CEKJKLIB@GPT_BOOT_DRIVE_UNSUPPORTED?$AA@ 00493788     BootEncryption.obj
 0002:000047a4       ??_C@_0BO@EPIDJGMK@FEATURE_REQUIRES_INSTALLATION?$AA@ 004937a4     BootEncryption.obj
 0002:000047c4       ??_C@_0CI@OBNNMOKO@SYS_ENCRYPTION_UNSUPPORTED_ON_VI@ 004937c4     BootEncryption.obj
 0002:000047ec       ??_C@_0CJ@BKBFFPJL@SYS_ENCRYPTION_UNSUPPORTED_ON_CU@ 004937ec     BootEncryption.obj
 0002:00004818       ??_C@_0DJ@DHJELNOI@CipherShed?3?3BootEncryption?3?3Prep@ 00493818     BootEncryption.obj
 0002:00004854       ??_C@_0CM@NPKCCOOP@WHOLE_DRIVE_ENCRYPTION_PREVENTED@ 00493854     BootEncryption.obj
 0002:00004880       ??_C@_0DF@KHFKKMDL@CipherShed?3?3BootEncryption?3?3Prep@ 00493880     BootEncryption.obj
 0002:000048b8       ??_C@_06EEAEEKCL@?$CFs?7?$CFs?6?$AA@ 004938b8     Cmdline.obj
 0002:000048c0       ??_C@_0BI@HHPEFDNB@Command?5line?5options?3?6?6?$AA@ 004938c0     Cmdline.obj
 0002:000048d8       ??_C@_0BE@GKKPACCB@IDD_COMMANDHELP_DLG?$AA@ 004938d8     Cmdline.obj
 0002:000048ec       ??_C@_06EMCPHFGM@volume?$AA@ 004938ec     Combo.obj
 0002:000048f4       ??_C@_0M@COMBLGLD@History?4xml?$AA@ 004938f4     Combo.obj
 0002:00004900       ??_C@_0N@GOMGLJCI@?6?7?$DM?1history?$DO?$AA@ 00493900     Combo.obj
 0002:00004910       ??_C@_0BH@PGAPGLND@?6?7?7?$DMvolume?$DO?$CFs?$DM?1volume?$DO?$AA@ 00493910     Combo.obj
 0002:00004928       ??_C@_0M@MCACFAKG@?6?7?$DMhistory?$DO?$AA@ 00493928     Combo.obj
 0002:00004934       ??_C@_05HJMENKNE@SHA?91?$AA@ 00493934     Crypto.obj
 0002:0000493c       ??_C@_09HLDHDDJL@Whirlpool?$AA@ 0049393c     Crypto.obj
 0002:00004948       ??_C@_07MEOJAOJE@SHA?9512?$AA@ 00493948     Crypto.obj
 0002:00004950       ??_C@_0L@PKFJAMAA@RIPEMD?9160?$AA@ 00493950     Crypto.obj
 0002:0000495c       ??_C@_0L@NEGMAKNF@Triple?5DES?$AA@ 0049395c     Crypto.obj
 0002:00004968       ??_C@_05LCFOLDPB@CAST5?$AA@ 00493968     Crypto.obj
 0002:00004970       ??_C@_08KOMAHJJD@Blowfish?$AA@ 00493970     Crypto.obj
 0002:0000497c       ??_C@_01JOAMLHOP@?9?$AA@   0049397c     Crypto.obj
 0002:00004980       ??_C@_01OGPIMHDM@?$DP?$AA@ 00493980     Crypto.obj
 0002:00004988       ??_7out_of_range@std@@6B@  00493988     Dictionary.obj
 0002:00004990       ??_C@_0BE@JONHPENG@map?1set?$DMT?$DO?5too?5long?$AA@ 00493990     Dictionary.obj
 0002:000049a4       ??_C@_0BM@PAPJHAGI@invalid?5map?1set?$DMT?$DO?5iterator?$AA@ 004939a4     Dictionary.obj
 0002:000049c4       ??_7GetPinFunctor@CipherShed@@6B@ 004939c4     Dlgcode.obj
 0002:000049d0       ??_7SendExceptionFunctor@CipherShed@@6B@ 004939d0     Dlgcode.obj
 0002:000049d8       ??_C@_08MBBBEOPI@?2Device?2?$AA@ 004939d8     Dlgcode.obj
 0002:000049e4       ??_C@_06DIBEOEIP@?2?2?4?2?$CFs?$AA@ 004939e4     Dlgcode.obj
 0002:000049ec       ??_C@_0N@ILHOJEMA@truecrypt?$CFlu?$AA@ 004939ec     Dlgcode.obj
 0002:00004a00       __real@3feff7ced916872b    00493a00     Dlgcode.obj
 0002:00004a08       __real@407ca00000000000    00493a08     Dlgcode.obj
 0002:00004a10       __real@407a700000000000    00493a10     Dlgcode.obj
 0002:00004a18       __real@3ff0000000000000    00493a18     Dlgcode.obj
 0002:00004a20       ??_C@_07EFPKBNGC@REDTICK?$AA@ 00493a20     Dlgcode.obj
 0002:00004a28       ??_C@_0BF@OGMMPIGE@WIPE_MODE_35_GUTMANN?$AA@ 00493a28     Dlgcode.obj
 0002:00004a40       ??_C@_0BF@JKLBNOMP@WIPE_MODE_7_DOD_5220?$AA@ 00493a40     Dlgcode.obj
 0002:00004a58       ??_C@_0BF@CKGIKNEN@WIPE_MODE_3_DOD_5220?$AA@ 00493a58     Dlgcode.obj
 0002:00004a70       ??_C@_0BB@NCGBCPHN@WIPE_MODE_1_RAND?$AA@ 00493a70     Dlgcode.obj
 0002:00004a84       ??_C@_0P@GHLKBIBG@WIPE_MODE_NONE?$AA@ 00493a84     Dlgcode.obj
 0002:00004a94       ??_C@_0BC@CGMNKFDG@DEVICE_LOWER_CASE?$AA@ 00493a94     Dlgcode.obj
 0002:00004aa8       ??_C@_0BC@EBLCOINE@DEVICE_UPPER_CASE?$AA@ 00493aa8     Dlgcode.obj
 0002:00004abc       ??_C@_0BC@OHAOKKGN@VOLUME_LOWER_CASE?$AA@ 00493abc     Dlgcode.obj
 0002:00004ad0       ??_C@_0BC@IAHBOHIP@VOLUME_UPPER_CASE?$AA@ 00493ad0     Dlgcode.obj
 0002:00004ae4       ??_C@_0P@KFCBFOIJ@HarddiskVolume?$AA@ 00493ae4     Dlgcode.obj
 0002:00004af4       ??_C@_0BF@DEJBIFMK@PARTITION_LOWER_CASE?$AA@ 00493af4     Dlgcode.obj
 0002:00004b0c       ??_C@_0BF@FDOOMICI@PARTITION_UPPER_CASE?$AA@ 00493b0c     Dlgcode.obj
 0002:00004b24       ??_C@_0L@MAFJOMBB@Partition0?$AA@ 00493b24     Dlgcode.obj
 0002:00004b30       ??_C@_09MFFJIMND@Partition?$AA@ 00493b30     Dlgcode.obj
 0002:00004b3c       ??_C@_0CA@NOOFMILL@TrueCryptEncryptionFreeCpuCount?$AA@ 00493b3c     Dlgcode.obj
 0002:00004b5c       ??_C@_0BK@LMECBCPP@CipherShed?5User?5Guide?4pdf?$AA@ 00493b5c     Dlgcode.obj
 0002:00004b78       ??_C@_0BN@EOEFIMME@CipherShed?5User?5Guide?4?$CFs?4pdf?$AA@ 00493b78     Dlgcode.obj
 0002:00004b98       ??_C@_02LFNMGJAP@en?$AA@   00493b98     Dlgcode.obj
 0002:00004b9c       ??_C@_06KJMEDNIB@Static?$AA@ 00493b9c     Dlgcode.obj
 0002:00004ba4       ??_C@_06LKBCGDFD@Button?$AA@ 00493ba4     Dlgcode.obj
 0002:00004bac       ??_C@_1BG@INDNNNCG@?$AAC?$AAi?$AAp?$AAh?$AAe?$AAr?$AAS?$AAh?$AAe?$AAd?$AA?$AA@ 00493bac     Dlgcode.obj
 0002:00004bc4       ??_C@_04PMOCAHAA@open?$AA@ 00493bc4     Dlgcode.obj
 0002:00004bcc       ??_C@_04CGJNICGF@?$CFc?3?2?$AA@ 00493bcc     Dlgcode.obj
 0002:00004bd4       ??_C@_0O@DMIKDLEM@CabinetWClass?$AA@ 00493bd4     Dlgcode.obj
 0002:00004be4       ??_C@_1BA@PMDFMIGE@?$AA?$CF?$AA?4?$AA1?$AAf?$AA?5?$AA?$CF?$AAs?$AA?$AA@ 00493be4     Dlgcode.obj
 0002:00004bf8       __real@3f50000000000000    00493bf8     Dlgcode.obj
 0002:00004c00       ??_C@_04ELFAHOMP@BYTE?$AA@ 00493c00     Dlgcode.obj
 0002:00004c08       ??_C@_02KOENCFNK@PB?$AA@   00493c08     Dlgcode.obj
 0002:00004c0c       ??_C@_02KJEEINAG@TB?$AA@   00493c0c     Dlgcode.obj
 0002:00004c10       ??_C@_02LHCEJACP@GB?$AA@   00493c10     Dlgcode.obj
 0002:00004c14       ??_C@_09OHHMGFOM@B_PER_SEC?$AA@ 00493c14     Dlgcode.obj
 0002:00004c20       ??_C@_0L@BHMPGBFC@PB_PER_SEC?$AA@ 00493c20     Dlgcode.obj
 0002:00004c2c       ??_C@_0L@KHBGBCNA@TB_PER_SEC?$AA@ 00493c2c     Dlgcode.obj
 0002:00004c38       ??_C@_0L@JAACLABK@GB_PER_SEC?$AA@ 00493c38     Dlgcode.obj
 0002:00004c44       ??_C@_0L@HCKNOIJO@MB_PER_SEC?$AA@ 00493c44     Dlgcode.obj
 0002:00004c50       ??_C@_0L@JKBICCNN@KB_PER_SEC?$AA@ 00493c50     Dlgcode.obj
 0002:00004c5c       ??_C@_0BB@CMDEHNDL@ERR_PERF_COUNTER?$AA@ 00493c5c     Dlgcode.obj
 0002:00004c70       ??_C@_0BB@GHIALFFI@0000000000000000?$AA@ 00493c70     Dlgcode.obj
 0002:00004c84       ??_C@_0DB@ECLHIIM@00000000000000000000000000000000@ 00493c84     Dlgcode.obj
 0002:00004cb8       ??_C@_03KBFFJKPO@168?$AA@  00493cb8     Dlgcode.obj
 0002:00004cbc       ??_C@_0CB@KLIODADE@00000000000000000000000000000000@ 00493cbc     Dlgcode.obj
 0002:00004ce0       ??_C@_0HB@PCNCOLDD@00000000000000000000000000000000@ 00493ce0     Dlgcode.obj
 0002:00004d54       ??_C@_03KGFMDCCC@128?$AA@  00493d54     Dlgcode.obj
 0002:00004d58       ??_C@_03CPCFKGMH@256?$AA@  00493d58     Dlgcode.obj
 0002:00004d5c       ??_C@_03JFAPLOKC@448?$AA@  00493d5c     Dlgcode.obj
 0002:00004d60       ??_C@_01GBGANLPD@0?$AA@    00493d60     Dlgcode.obj
 0002:00004d68       ??_C@_0EB@CBHPLKKO@00000000000000000000000000000000@ 00493d68     Dlgcode.obj
 0002:00004dac       ??_C@_02JLHCEMDI@64?$AA@   00493dac     Dlgcode.obj
 0002:00004db0       ??_C@_0M@MKBGBFGO@CAPSLOCK_ON?$AA@ 00493db0     Dlgcode.obj
 0002:00004dbc       ??_C@_04OOOHIFAO@?4asa?$AA@ 00493dbc     Dlgcode.obj
 0002:00004dc4       ??_C@_04LNDOKGBO@?4asp?$AA@ 00493dc4     Dlgcode.obj
 0002:00004dcc       ??_C@_05BNFEPADL@?4aspx?$AA@ 00493dcc     Dlgcode.obj
 0002:00004dd4       ??_C@_03DAKFKKAH@?4ax?$AA@ 00493dd4     Dlgcode.obj
 0002:00004dd8       ??_C@_04JLAECNCN@?4bas?$AA@ 00493dd8     Dlgcode.obj
 0002:00004de0       ??_C@_04NEEFLLOK@?4bat?$AA@ 00493de0     Dlgcode.obj
 0002:00004de8       ??_C@_04GKHLBAIJ@?4bin?$AA@ 00493de8     Dlgcode.obj
 0002:00004df0       ??_C@_04DNKKNDNF@?4cer?$AA@ 00493df0     Dlgcode.obj
 0002:00004df8       ??_C@_04PICIEOBI@?4chm?$AA@ 00493df8     Dlgcode.obj
 0002:00004e00       ??_C@_04HILJPKAL@?4clb?$AA@ 00493e00     Dlgcode.obj
 0002:00004e08       ??_C@_04CPCBDHLK@?4cmd?$AA@ 00493e08     Dlgcode.obj
 0002:00004e10       ??_C@_04GHKFJLLC@?4cnt?$AA@ 00493e10     Dlgcode.obj
 0002:00004e18       ??_C@_04FFJDPJDA@?4cnv?$AA@ 00493e18     Dlgcode.obj
 0002:00004e20       ??_C@_04PNGHFIJN@?4com?$AA@ 00493e20     Dlgcode.obj
 0002:00004e28       ??_C@_04PDAGINJB@?4cpl?$AA@ 00493e28     Dlgcode.obj
 0002:00004e30       ??_C@_04NNKIFKME@?4cpx?$AA@ 00493e30     Dlgcode.obj
 0002:00004e38       ??_C@_04HCJJMBKG@?4crt?$AA@ 00493e38     Dlgcode.obj
 0002:00004e40       ??_C@_04JFCMPGMM@?4csh?$AA@ 00493e40     Dlgcode.obj
 0002:00004e48       ??_C@_04HLONOPDM@?4dll?$AA@ 00493e48     Dlgcode.obj
 0002:00004e50       ??_C@_04NNHIJLJN@?4drv?$AA@ 00493e50     Dlgcode.obj
 0002:00004e58       ??_C@_04KBABJHPM@?4dtd?$AA@ 00493e58     Dlgcode.obj
 0002:00004e60       ??_C@_04JLMDILM@?4exe?$AA@ 00493e60     Dlgcode.obj
 0002:00004e68       ??_C@_04CMLMHBEG@?4fxp?$AA@ 00493e68     Dlgcode.obj
 0002:00004e70       ??_C@_04JJJHJDPF@?4grp?$AA@ 00493e70     Dlgcode.obj
 0002:00004e78       ??_C@_04JIAFODPJ@?4h1s?$AA@ 00493e78     Dlgcode.obj
 0002:00004e80       ??_C@_04NHEMANNJ@?4hlp?$AA@ 00493e80     Dlgcode.obj
 0002:00004e88       ??_C@_04JGKANMAB@?4hta?$AA@ 00493e88     Dlgcode.obj
 0002:00004e90       ??_C@_04FJIHOGJP@?4ime?$AA@ 00493e90     Dlgcode.obj
 0002:00004e98       ??_C@_04HAOMALAF@?4inf?$AA@ 00493e98     Dlgcode.obj
 0002:00004ea0       ??_C@_04EHFJONBB@?4ins?$AA@ 00493ea0     Dlgcode.obj
 0002:00004ea8       ??_C@_04HIIKIOPB@?4isp?$AA@ 00493ea8     Dlgcode.obj
 0002:00004eb0       ??_C@_04FGOIMLLH@?4its?$AA@ 00493eb0     Dlgcode.obj
 0002:00004eb8       ??_C@_03NPAEJMCN@?4js?$AA@ 00493eb8     Dlgcode.obj
 0002:00004ebc       ??_C@_04FNIKMHAL@?4jse?$AA@ 00493ebc     Dlgcode.obj
 0002:00004ec4       ??_C@_04FAJINOCD@?4ksh?$AA@ 00493ec4     Dlgcode.obj
 0002:00004ecc       ??_C@_04PCJMIFHK@?4lnk?$AA@ 00493ecc     Dlgcode.obj
 0002:00004ed4       ??_C@_04MGOELJON@?4mad?$AA@ 00493ed4     Dlgcode.obj
 0002:00004edc       ??_C@_04PENCNLGP@?4maf?$AA@ 00493edc     Dlgcode.obj
 0002:00004ee4       ??_C@_04ONMJOKCO@?4mag?$AA@ 00493ee4     Dlgcode.obj
 0002:00004eec       ??_C@_04BHCGACKE@?4mam?$AA@ 00493eec     Dlgcode.obj
 0002:00004ef4       ??_C@_04DMALFBGH@?4man?$AA@ 00493ef4     Dlgcode.obj
 0002:00004efc       ??_C@_04PBFBFPPJ@?4maq?$AA@ 00493efc     Dlgcode.obj
 0002:00004f04       ??_C@_04NKHMAMDK@?4mar?$AA@ 00493f04     Dlgcode.obj
 0002:00004f0c       ??_C@_04MDGHDNHL@?4mas?$AA@ 00493f0c     Dlgcode.obj
 0002:00004f14       ??_C@_04IMCGKLLM@?4mat?$AA@ 00493f14     Dlgcode.obj
 0002:00004f1c       ??_C@_04JFDNJKPN@?4mau?$AA@ 00493f1c     Dlgcode.obj
 0002:00004f24       ??_C@_04LOBAMJDO@?4mav?$AA@ 00493f24     Dlgcode.obj
 0002:00004f2c       ??_C@_04KHALPIHP@?4maw?$AA@ 00493f2c     Dlgcode.obj
 0002:00004f34       ??_C@_04LNFIIPED@?4mda?$AA@ 00493f34     Dlgcode.obj
 0002:00004f3c       ??_C@_04JGHFNMIA@?4mdb?$AA@ 00493f3c     Dlgcode.obj
 0002:00004f44       ??_C@_04NJDEEKEH@?4mde?$AA@ 00493f44     Dlgcode.obj
 0002:00004f4c       ??_C@_04IKONGJFH@?4mdt?$AA@ 00493f4c     Dlgcode.obj
 0002:00004f54       ??_C@_04KBMADKJE@?4mdw?$AA@ 00493f54     Dlgcode.obj
 0002:00004f5c       ??_C@_04BEGOEENJ@?4mdz?$AA@ 00493f5c     Dlgcode.obj
 0002:00004f64       ??_C@_04JGAHFIDE@?4msc?$AA@ 00493f64     Dlgcode.obj
 0002:00004f6c       ??_C@_04GMOILALO@?4msi?$AA@ 00493f6c     Dlgcode.obj
 0002:00004f74       ??_C@_04PHOIBJKG@?4msp?$AA@ 00493f74     Dlgcode.obj
 0002:00004f7c       ??_C@_04JDIENMKC@?4mst?$AA@ 00493f7c     Dlgcode.obj
 0002:00004f84       ??_C@_04GIGFMMAM@?4mui?$AA@ 00493f84     Dlgcode.obj
 0002:00004f8c       ??_C@_04NJAKABMG@?4nls?$AA@ 00493f8c     Dlgcode.obj
 0002:00004f94       ??_C@_04IJBOPIFF@?4ocx?$AA@ 00493f94     Dlgcode.obj
 0002:00004f9c       ??_C@_04HEIKDMLH@?4ops?$AA@ 00493f9c     Dlgcode.obj
 0002:00004fa4       ??_C@_04KMEOLMKH@?4pal?$AA@ 00493fa4     Dlgcode.obj
 0002:00004fac       ??_C@_04GHBDOCMB@?4pcd?$AA@ 00493fac     Dlgcode.obj
 0002:00004fb4       ??_C@_04FILCAFJF@?4pif?$AA@ 00493fb4     Dlgcode.obj
 0002:00004fbc       ??_C@_04EIMBEJAE@?4prf?$AA@ 00493fbc     Dlgcode.obj
 0002:00004fc4       ??_C@_04FBNKHIEF@?4prg?$AA@ 00493fc4     Dlgcode.obj
 0002:00004fcc       ??_C@_04DBPHFDOA@?4pst?$AA@ 00493fcc     Dlgcode.obj
 0002:00004fd4       ??_C@_04OCLKAFDL@?4reg?$AA@ 00493fd4     Dlgcode.obj
 0002:00004fdc       ??_C@_04EHJACPKN@?4scf?$AA@ 00493fdc     Dlgcode.obj
 0002:00004fe4       ??_C@_04GJDOPIPI@?4scr?$AA@ 00493fe4     Dlgcode.obj
 0002:00004fec       ??_C@_04DPGEFPHO@?4sct?$AA@ 00493fec     Dlgcode.obj
 0002:00004ff4       ??_C@_04CPKJAFEI@?4shb?$AA@ 00493ff4     Dlgcode.obj
 0002:00004ffc       ??_C@_04HMHACGFI@?4shs?$AA@ 00493ffc     Dlgcode.obj
 0002:00005004       ??_C@_04GBJEOPBP@?4sys?$AA@ 00494004     Dlgcode.obj
 0002:0000500c       ??_C@_04LFHHJFCN@?4tlb?$AA@ 0049400c     Dlgcode.obj
 0002:00005014       ??_C@_04NKPJABLD@?4tsp?$AA@ 00494014     Dlgcode.obj
 0002:0000501c       ??_C@_04IFPAFBLM@?4url?$AA@ 0049401c     Dlgcode.obj
 0002:00005024       ??_C@_03JJOBOFCJ@?4vb?$AA@ 00494024     Dlgcode.obj
 0002:00005028       ??_C@_04FKKBOGGL@?4vbe?$AA@ 00494028     Dlgcode.obj
 0002:00005030       ??_C@_04EGDJFDLM@?4vbs?$AA@ 00494030     Dlgcode.obj
 0002:00005038       ??_C@_09JNHDLKLO@?4vsmacros?$AA@ 00494038     Dlgcode.obj
 0002:00005044       ??_C@_04FLNNJKPL@?4vss?$AA@ 00494044     Dlgcode.obj
 0002:0000504c       ??_C@_04BEJMAMDM@?4vst?$AA@ 0049404c     Dlgcode.obj
 0002:00005054       ??_C@_04DPLBFPPP@?4vsw?$AA@ 00494054     Dlgcode.obj
 0002:0000505c       ??_C@_03MLPKKMAO@?4ws?$AA@ 0049405c     Dlgcode.obj
 0002:00005060       ??_C@_04KJKDOPMP@?4wsc?$AA@ 00494060     Dlgcode.obj
 0002:00005068       ??_C@_04NENEBLIK@?4wsf?$AA@ 00494068     Dlgcode.obj
 0002:00005070       ??_C@_04EKFHDGAE@?4wsh?$AA@ 00494070     Dlgcode.obj
 0002:00005078       ??_C@_04LOIBGJFO@?4xsd?$AA@ 00494078     Dlgcode.obj
 0002:00005080       ??_C@_04HGFIODFG@?4xsl?$AA@ 00494080     Dlgcode.obj
 0002:00005088       ??_C@_04GNGOLJF@?4386?$AA@ 00494088     Dlgcode.obj
 0002:00005090       ??_C@_04FOHEGJHC@?4acm?$AA@ 00494090     Dlgcode.obj
 0002:00005098       ??_C@_04JDOCPFPP@?4ade?$AA@ 00494098     Dlgcode.obj
 0002:000050a0       ??_C@_04KEFHBDOL@?4adp?$AA@ 004940a0     Dlgcode.obj
 0002:000050a8       ??_C@_04DCMADPCF@?4ani?$AA@ 004940a8     Dlgcode.obj
 0002:000050b0       ??_C@_04LPHIBIEH@?4app?$AA@ 004940b0     Dlgcode.obj
 0002:000050b8       ??_C@_04JDJAHBEL@?4asd?$AA@ 004940b8     Dlgcode.obj
 0002:000050c0       ??_C@_04KBKGBDMJ@?4asf?$AA@ 004940c0     Dlgcode.obj
 0002:000050c8       ??_C@_04HFOHCMBG@?4asx?$AA@ 004940c8     Dlgcode.obj
 0002:000050d0       ??_C@_04HCOOIEMK@?4awx?$AA@ 004940d0     Dlgcode.obj
 0002:000050d8       ??_C@_04HHONFNHK@?4boo?$AA@ 004940d8     Dlgcode.obj
 0002:000050e0       ??_C@_04GCBFBPPI@?4bz2?$AA@ 004940e0     Dlgcode.obj
 0002:000050e8       ??_C@_04BCMGGOLH@?4cdf?$AA@ 004940e8     Dlgcode.obj
 0002:000050f0       ??_C@_06POIMOJKC@?4class?$AA@ 004940f0     Dlgcode.obj
 0002:000050f8       ??_C@_05GCBAOBBN@?4dhtm?$AA@ 004940f8     Dlgcode.obj
 0002:00005100       ??_C@_06KKCMFIJD@?4dhtml?$AA@ 00494100     Dlgcode.obj
 0002:00005108       ??_C@_04FAMALMPP@?4dlo?$AA@ 00494108     Dlgcode.obj
 0002:00005110       ??_C@_04DIHMAKOE@?4emf?$AA@ 00494110     Dlgcode.obj
 0002:00005118       ??_C@_04MCJDOCGO@?4eml?$AA@ 00494118     Dlgcode.obj
 0002:00005120       ??_C@_04FDPPLPOO@?4flt?$AA@ 00494120     Dlgcode.obj
 0002:00005128       ??_C@_04FBLJABLH@?4fot?$AA@ 00494128     Dlgcode.obj
 0002:00005130       ??_C@_03GBOLEDH@?4gz?$AA@  00494130     Dlgcode.obj
 0002:00005134       ??_C@_04DKBFJDAN@?4htm?$AA@ 00494134     Dlgcode.obj
 0002:0000513c       ??_C@_05LHMDENIF@?4html?$AA@ 0049413c     Dlgcode.obj
 0002:00005144       ??_C@_04PHHEBHMK@?4ini?$AA@ 00494144     Dlgcode.obj
 0002:0000514c       ??_C@_04LCFBANHC@?4j2k?$AA@ 0049414c     Dlgcode.obj
 0002:00005154       ??_C@_04EHKLDEID@?4jar?$AA@ 00494154     Dlgcode.obj
 0002:0000515c       ??_C@_04GMEKPFFD@?4jff?$AA@ 0049415c     Dlgcode.obj
 0002:00005164       ??_C@_04GHBGLCGO@?4jif?$AA@ 00494164     Dlgcode.obj
 0002:0000516c       ??_C@_04POJMDHDM@?4jmh?$AA@ 0049416c     Dlgcode.obj
 0002:00005174       ??_C@_04HLECJFKK@?4jng?$AA@ 00494174     Dlgcode.obj
 0002:0000517c       ??_C@_04KKDGLCMB@?4jp2?$AA@ 0049417c     Dlgcode.obj
 0002:00005184       ??_C@_04FPMMHJFC@?4jpe?$AA@ 00494184     Dlgcode.obj
 0002:0000518c       ??_C@_05KPIGABMB@?4jpeg?$AA@ 0049418c     Dlgcode.obj
 0002:00005194       ??_C@_04GNPKBLNA@?4jpg?$AA@ 00494194     Dlgcode.obj
 0002:0000519c       ??_C@_04EPFEHOMD@?4lsp?$AA@ 0049419c     Dlgcode.obj
 0002:000051a4       ??_C@_04MMHKJEOH@?4mod?$AA@ 004941a4     Dlgcode.obj
 0002:000051ac       ??_C@_04MJHJENFH@?4nws?$AA@ 004941ac     Dlgcode.obj
 0002:000051b4       ??_C@_04PACIOCLB@?4obj?$AA@ 004941b4     Dlgcode.obj
 0002:000051bc       ??_C@_04DCGPEFLD@?4olb?$AA@ 004941bc     Dlgcode.obj
 0002:000051c4       ??_C@_04HDEPAGHI@?4osd?$AA@ 004941c4     Dlgcode.obj
 0002:000051cc       ??_C@_04LCEIGNIC@?4ov1?$AA@ 004941cc     Dlgcode.obj
 0002:000051d4       ??_C@_04JJGFDOEB@?4ov2?$AA@ 004941d4     Dlgcode.obj
 0002:000051dc       ??_C@_04IAHOAPAA@?4ov3?$AA@ 004941dc     Dlgcode.obj
 0002:000051e4       ??_C@_04LNFNEOJL@?4ovl?$AA@ 004941e4     Dlgcode.obj
 0002:000051ec       ??_C@_04GJBMHBEE@?4ovr?$AA@ 004941ec     Dlgcode.obj
 0002:000051f4       ??_C@_04HOMEEBJD@?4pdr?$AA@ 004941f4     Dlgcode.obj
 0002:000051fc       ??_C@_04LBNIPBFE@?4pgm?$AA@ 004941fc     Dlgcode.obj
 0002:00005204       ??_C@_04EFOINKHF@?4php?$AA@ 00494204     Dlgcode.obj
 0002:0000520c       ??_C@_04ECCNOALK@?4pkg?$AA@ 0049420c     Dlgcode.obj
 0002:00005214       ??_C@_03DOPLEBF@?4pl?$AA@  00494214     Dlgcode.obj
 0002:00005218       ??_C@_04EEOGCCFB@?4png?$AA@ 00494218     Dlgcode.obj
 0002:00005220       ??_C@_04CEMLAJPE@?4pot?$AA@ 00494220     Dlgcode.obj
 0002:00005228       ??_C@_04HMPAHLHO@?4pps?$AA@ 00494228     Dlgcode.obj
 0002:00005230       ??_C@_04DDLBONLJ@?4ppt?$AA@ 00494230     Dlgcode.obj
 0002:00005238       ??_C@_04LMPJOIKA@?4ps1?$AA@ 00494238     Dlgcode.obj
 0002:00005240       ??_C@_07KMHCJKCL@?4ps1xml?$AA@ 00494240     Dlgcode.obj
 0002:00005248       ??_C@_05HPAPKHGM@?4psc1?$AA@ 00494248     Dlgcode.obj
 0002:00005250       ??_C@_04NCAGELPD@?4rar?$AA@ 00494250     Dlgcode.obj
 0002:00005258       ??_C@_04BLKDLNGL@?4rpl?$AA@ 00494258     Dlgcode.obj
 0002:00005260       ??_C@_04OGEFPNDN@?4rtf?$AA@ 00494260     Dlgcode.obj
 0002:00005268       ??_C@_04EGFCEFJK@?4sbf?$AA@ 00494268     Dlgcode.obj
 0002:00005270       ??_C@_07PPFPDIDE@?4script?$AA@ 00494270     Dlgcode.obj
 0002:00005278       ??_C@_03GFMFMPEI@?4sh?$AA@ 00494278     Dlgcode.obj
 0002:0000527c       ??_C@_04EIEFGIL@?4sha?$AA@ 0049427c     Dlgcode.obj
 0002:00005284       ??_C@_05LANAKKIP@?4shtm?$AA@ 00494284     Dlgcode.obj
 0002:0000528c       ??_C@_06LEPPGKLA@?4shtml?$AA@ 0049428c     Dlgcode.obj
 0002:00005294       ??_C@_04KDBPNKAO@?4spl?$AA@ 00494294     Dlgcode.obj
 0002:0000529c       ??_C@_04FMLPCEAB@?4swf?$AA@ 0049429c     Dlgcode.obj
 0002:000052a4       ??_C@_04PHGNBECP@?4tar?$AA@ 004942a4     Dlgcode.obj
 0002:000052ac       ??_C@_04DLDJOCJF@?4tgz?$AA@ 004942ac     Dlgcode.obj
 0002:000052b4       ??_C@_04MMEBIPMJ@?4tmp?$AA@ 004942b4     Dlgcode.obj
 0002:000052bc       ??_C@_04MDCOKCOB@?4ttf?$AA@ 004942bc     Dlgcode.obj
 0002:000052c4       ??_C@_04EHPLDJIL@?4vcs?$AA@ 004942c4     Dlgcode.obj
 0002:000052cc       ??_C@_04JIOGEBGJ@?4vlm?$AA@ 004942cc     Dlgcode.obj
 0002:000052d4       ??_C@_04FCALPBIM@?4vxd?$AA@ 004942d4     Dlgcode.obj
 0002:000052dc       ??_C@_04LBPPCIEH@?4vxo?$AA@ 004942dc     Dlgcode.obj
 0002:000052e4       ??_C@_04CDBCGAHB@?4wiz?$AA@ 004942e4     Dlgcode.obj
 0002:000052ec       ??_C@_04DJEBBHEN@?4wll?$AA@ 004942ec     Dlgcode.obj
 0002:000052f4       ??_C@_04PAFKPHHC@?4wmd?$AA@ 004942f4     Dlgcode.obj
 0002:000052fc       ??_C@_04MCGMJFPA@?4wmf?$AA@ 004942fc     Dlgcode.obj
 0002:00005304       ??_C@_04PFNJHDOE@?4wms?$AA@ 00494304     Dlgcode.obj
 0002:0000530c       ??_C@_04CEBLMIKN@?4wmz?$AA@ 0049430c     Dlgcode.obj
 0002:00005314       ??_C@_04KLOFFBJG@?4wpc?$AA@ 00494314     Dlgcode.obj
 0002:0000531c       ??_C@_04GGHDMNBL@?4wwk?$AA@ 0049431c     Dlgcode.obj
 0002:00005324       ??_C@_05MHAAJLJO@?4xhtm?$AA@ 00494324     Dlgcode.obj
 0002:0000532c       ??_C@_06NODIJKHD@?4xhtml?$AA@ 0049432c     Dlgcode.obj
 0002:00005334       ??_C@_03NPMOFKN@?4xl?$AA@  00494334     Dlgcode.obj
 0002:00005338       ??_C@_04GAOAGNCM@?4xml?$AA@ 00494338     Dlgcode.obj
 0002:00005340       ??_C@_04CLJHFACG@?4zip?$AA@ 00494340     Dlgcode.obj
 0002:00005348       ??_C@_03GKKCJKIH@?47z?$AA@ 00494348     Dlgcode.obj
 0002:0000534c       ??_C@_1BK@LABJKOM@?$AA?2?$AAD?$AAo?$AAs?$AAD?$AAe?$AAv?$AAi?$AAc?$AAe?$AAs?$AA?2?$AA?$AA@ 0049434c     Dlgcode.obj
 0002:00005368       ??_C@_0BC@KCBPKCIG@CipherShed?5Format?$AA@ 00494368     Dlgcode.obj
 0002:0000537c       ??_C@_02KOPDJAMB@?$CC?5?$AA@ 0049437c     Dlgcode.obj
 0002:00005380       ??_C@_0M@EMLNMOID@?2TrueCrypt?2?$AA@ 00494380     Dlgcode.obj
 0002:0000538c       ??_C@_0CA@EGANCHGG@?6?7?7?$DMconfig?5key?$DN?$CC?$CFs?$CC?$DO?$CFs?$DM?1config?$DO?$AA@ 0049438c     Dlgcode.obj
 0002:000053ac       ??_C@_06HEJKKHEK@config?$AA@ 004943ac     Dlgcode.obj
 0002:000053b4       ??_C@_03ICHNJLJF@key?$AA@  004943b4     Dlgcode.obj
 0002:000053b8       ??_C@_08PNLNEKOB@kernel32?$AA@ 004943b8     Dlgcode.obj
 0002:000053c4       ??_C@_0P@LKABJJMO@IsWow64Process?$AA@ 004943c4     Dlgcode.obj
 0002:000053d4       ??_C@_0BE@POPFGFGJ@SeShutdownPrivilege?$AA@ 004943d4     Dlgcode.obj
 0002:000053e8       ??_C@_07HBPFMAGN@Volume?$HL?$AA@ 004943e8     Dlgcode.obj
 0002:000053f0       ??_C@_0BH@KELIABGB@DEVICE_NOT_READY_ERROR?$AA@ 004943f0     Dlgcode.obj
 0002:00005408       ??_C@_0BI@GBJLPDI@SYS_ASSIGN_DRIVE_LETTER?$AA@ 00494408     Dlgcode.obj
 0002:00005420       ??_C@_0BH@DCKIMKAI@SYS_AUTOMOUNT_DISABLED?$AA@ 00494420     Dlgcode.obj
 0002:00005438       ??_C@_0M@PNKDIFLK@NoAutoMount?$AA@ 00494438     Dlgcode.obj
 0002:00005444       ??_C@_0CL@PBEPCFPL@SYSTEM?2CurrentControlSet?2Service@ 00494444     Dlgcode.obj
 0002:00005470       ??_C@_0BH@GEMJKNEE@INCONSISTENCY_RESOLVED?$AA@ 00494470     Dlgcode.obj
 0002:00005488       ??_C@_0BB@FLLBKCCB@UNEXPECTED_STATE?$AA@ 00494488     Dlgcode.obj
 0002:0000549c       ??_C@_03EJABLKAK@?$DP?3?2?$AA@ 0049449c     Dlgcode.obj
 0002:000054a0       ??_C@_0BD@NLNANBEJ@ERR_HARDWARE_ERROR?$AA@ 004944a0     Dlgcode.obj
 0002:000054b4       ??_C@_0BC@GIPDODAO@ERR_ACCESS_DENIED?$AA@ 004944b4     Dlgcode.obj
 0002:000054c8       ??_C@_0CK@CMNICGGD@Global?2TrueCrypt?5System?5Encrypti@ 004944c8     Dlgcode.obj
 0002:000054f4       ??_C@_0CM@NNPMGACL@Global?2TrueCrypt?5In?9Place?5Encryp@ 004944f4     Dlgcode.obj
 0002:00005520       ??_C@_0BO@MBMDLLNJ@Global?2TrueCrypt?5Driver?5Setup?$AA@ 00494520     Dlgcode.obj
 0002:00005540       ??_C@_0BH@HKGDHIEL@Global?2TrueCrypt?5Setup?$AA@ 00494540     Dlgcode.obj
 0002:00005558       ??_C@_09IDILIKHG@NO_OS_VER?$AA@ 00494558     Dlgcode.obj
 0002:00005564       ??_C@_04OJAHODMC@Text?$AA@ 00494564     Dlgcode.obj
 0002:0000556c       ??_C@_0BG@NAJKGDG@DRIVER_INSTALL_FAILED?$AA@ 0049456c     Dlgcode.obj
 0002:00005584       ??_C@_0BP@MGAEPBHO@System32?2drivers?2truecrypt?4sys?$AA@ 00494584     Dlgcode.obj
 0002:000055a4       ??_C@_0BI@HINAFLMC@ADMIN_PRIVILEGES_DRIVER?$AA@ 004945a4     Dlgcode.obj
 0002:000055bc       ??_C@_0BB@DLIKOOJL@DRIVER_NOT_FOUND?$AA@ 004945bc     Dlgcode.obj
 0002:000055d0       ??_C@_0BD@KPNHALPO@?2truecrypt?9x64?4sys?$AA@ 004945d0     Dlgcode.obj
 0002:000055e4       ??_C@_0P@CEEJCOFL@?2truecrypt?4sys?$AA@ 004945e4     Dlgcode.obj
 0002:000055f4       ??_C@_0BE@BADKJOBO@CANNOT_WRITE_FILE_X?$AA@ 004945f4     Dlgcode.obj
 0002:00005608       ??_C@_0BL@HFEGJCP@IDD_RANDOM_POOL_ENRICHMENT?$AA@ 00494608     Dlgcode.obj
 0002:00005628       __real@4059000000000000    00494628     Dlgcode.obj
 0002:00005634       ??_7PinRequestHandler@?4??InitSecurityTokenLibrary@@9@6B@ 00494634     Dlgcode.obj
 0002:00005640       ??_7WarningHandler@?5??InitSecurityTokenLibrary@@9@6B@ 00494640     Dlgcode.obj
 0002:00005648       ??_C@_0N@HOCBKDMB@?2isoburn?4exe?$AA@ 00494648     Dlgcode.obj
 0002:00005658       ??_C@_08KAINEBEN@ABOUTBOX?$AA@ 00494658     Dlgcode.obj
 0002:00005664       ??_C@_1BO@CJPKCNHF@?$AAL?$AAu?$AAc?$AAi?$AAd?$AAa?$AA?5?$AAC?$AAo?$AAn?$AAs?$AAo?$AAl?$AAe?$AA?$AA@ 00494664     Dlgcode.obj
 0002:00005684       ??_C@_0L@MOFKMHPH@font_fixed?$AA@ 00494684     Dlgcode.obj
 0002:00005690       ??_C@_1CA@MBPOLHGL@?$AAT?$AAi?$AAm?$AAe?$AAs?$AA?5?$AAN?$AAe?$AAw?$AA?5?$AAR?$AAo?$AAm?$AAa?$AAn?$AA?$AA@ 00494690     Dlgcode.obj
 0002:000056b0       ??_C@_0L@NMFINBBB@font_title?$AA@ 004946b0     Dlgcode.obj
 0002:000056bc       ??_C@_1M@KAKMLIHO@?$AAA?$AAr?$AAi?$AAa?$AAl?$AA?$AA@ 004946bc     Dlgcode.obj
 0002:000056c8       ??_C@_09KDCDAOMH@font_bold?$AA@ 004946c8     Dlgcode.obj
 0002:000056d4       ??_C@_06DILOELAE@NOFONT?$AA@ 004946d4     Dlgcode.obj
 0002:000056dc       ??_C@_1BI@GNONBDFP@?$AAC?$AAo?$AAu?$AAr?$AAi?$AAe?$AAr?$AA?5?$AAN?$AAe?$AAw?$AA?$AA@ 004946dc     Dlgcode.obj
 0002:000056f8       __real@c028000000000000    004946f8     Dlgcode.obj
 0002:00005700       ??_C@_1O@FPBPJIKI@?$AAT?$AAa?$AAh?$AAo?$AAm?$AAa?$AA?$AA@ 00494700     Dlgcode.obj
 0002:00005710       ??_C@_1BA@HANLFFFG@?$AAd?$AAe?$AAf?$AAa?$AAu?$AAl?$AAt?$AA?$AA@ 00494710     Dlgcode.obj
 0002:00005720       ??_C@_0M@IGCGEGAM@font_normal?$AA@ 00494720     Dlgcode.obj
 0002:0000572c       ??_C@_05EMECODII@?$CFls?$CFc?$AA@ 0049472c     Dlgcode.obj
 0002:00005734       ??_C@_1DA@GMJGMIMP@?$AA?2?$AAD?$AAe?$AAv?$AAi?$AAc?$AAe?$AA?2?$AAT?$AAr?$AAu?$AAe?$AAC?$AAr?$AAy?$AAp?$AAt?$AAV?$AAo?$AAl?$AAu?$AAm?$AAe?$AA?$AA@ 00494734     Dlgcode.obj
 0002:00005764       ??_C@_0P@INOOLPM@UNMOUNT_FAILED?$AA@ 00494764     Dlgcode.obj
 0002:00005774       ??_C@_0BE@NAPDCKKE@UNMOUNT_LOCK_FAILED?$AA@ 00494774     Dlgcode.obj
 0002:00005788       ??_C@_09IMBMLODE@EnableLUA?$AA@ 00494788     Dlgcode.obj
 0002:00005794       ??_C@_0DK@IFNHFOHB@Software?2Microsoft?2Windows?2Curre@ 00494794     Dlgcode.obj
 0002:000057d0       ??_C@_0DO@FLBIDANE@Software?2Microsoft?2Windows?2Curre@ 004947d0     Dlgcode.obj
 0002:00005810       ??_C@_0O@GDPBNEAJ@?2?2?4?2TrueCrypt?$AA@ 00494810     Dlgcode.obj
 0002:00005820       ??_C@_0O@LOPOCHJI@?5?1a?5favorites?$AA@ 00494820     Dlgcode.obj
 0002:00005830       ??_C@_0M@JCEADJGE@?5?1a?5devices?$AA@ 00494830     Dlgcode.obj
 0002:0000583c       ??_C@_0BK@NFGDLGMG@?$CC?5?1q?5preferences?5?1a?5logon?$AA@ 0049483c     Dlgcode.obj
 0002:00005858       ??_C@_0EL@PILLFCOM@Software?2Microsoft?2Windows?2Curre@ 00494858     Dlgcode.obj
 0002:000058a4       ??_C@_07GIFPBEK@MRUList?$AA@ 004948a4     Dlgcode.obj
 0002:000058b0       ??_C@_0EP@FIHCEBDK@Software?2Microsoft?2Windows?2Curre@ 004948b0     Dlgcode.obj
 0002:00005900       ??_C@_09FBJLNPFF@MRUListEx?$AA@ 00494900     Dlgcode.obj
 0002:0000590c       ??_C@_0BE@KHAIBFAM@CLEAN_WINMRU_FAILED?$AA@ 0049490c     Dlgcode.obj
 0002:00005920       ??_C@_02HAOIJKIC@?$CFc?$AA@ 00494920     Dlgcode.obj
 0002:00005928       ??_C@_0EN@FCPBNDLP@Software?2Microsoft?2Windows?2Curre@ 00494928     Dlgcode.obj
 0002:00005978       ??_C@_04MBHGDIPH@Pidl?$AA@ 00494978     Dlgcode.obj
 0002:00005980       ??_C@_0BC@COHEMPD@?6?7?$DMconfiguration?$DO?$AA@ 00494980     Dlgcode.obj
 0002:00005994       ??_C@_0BC@FNANDAA@Configuration?4xml?$AA@ 00494994     Dlgcode.obj
 0002:000059a8       ??_C@_0BD@CKNEEBKA@?6?7?$DM?1configuration?$DO?$AA@ 004949a8     Dlgcode.obj
 0002:000059bc       ??_C@_07OLOEDEPC@keyfile?$AA@ 004949bc     Dlgcode.obj
 0002:000059c4       ??_C@_0BF@CEDLNBLM@Default?5Keyfiles?4xml?$AA@ 004949c4     Dlgcode.obj
 0002:000059dc       ??_C@_1BA@DBKIDAPL@?$AAc?$AAm?$AAd?$AA?4?$AAe?$AAx?$AAe?$AA?$AA@ 004949dc     Dlgcode.obj
 0002:000059ec       ??_C@_19BDAJEHDN@?$AAo?$AAp?$AAe?$AAn?$AA?$AA@ 004949ec     Dlgcode.obj
 0002:000059f8       ??_C@_1M@CDHIAJCD@?$AAr?$AAu?$AAn?$AAa?$AAs?$AA?$AA@ 004949f8     Dlgcode.obj
 0002:00005a08       ??_C@_1EA@HMCMLJPJ@?$AA?1?$AAC?$AA?5?$AAe?$AAc?$AAh?$AAo?$AA?5?$AA?$CF?$AAs?$AA?5?$AA?$CG?$AA?5?$AAc?$AAh?$AAk?$AAd?$AAs?$AAk?$AA?5?$AA?$CF?$AAh?$AAs?$AA?5?$AA?$CG?$AA?5?$AAp?$AAa?$AAu?$AAs?$AAe?$AA?$AA@ 00494a08     Dlgcode.obj
 0002:00005a48       ??_C@_1EM@PJNCBGHJ@?$AA?1?$AAC?$AA?5?$AAe?$AAc?$AAh?$AAo?$AA?5?$AA?$CF?$AAs?$AA?5?$AA?$CG?$AA?5?$AAc?$AAh?$AAk?$AAd?$AAs?$AAk?$AA?5?$AA?$CF?$AAh?$AAs?$AA?5?$AA?1?$AAF?$AA?5?$AA?1?$AAX?$AA?5?$AA?$CG?$AA?5@ 00494a48     Dlgcode.obj
 0002:00005a94       ??_C@_0M@DMNKLGFJ@CHECKING_FS?$AA@ 00494a94     Dlgcode.obj
 0002:00005aa0       ??_C@_0N@CFJEDEAE@REPAIRING_FS?$AA@ 00494aa0     Dlgcode.obj
 0002:00005ab0       ??_C@_0BO@JFNCHGE@FILESYS_REPAIR_CONFIRM_BACKUP?$AA@ 00494ab0     Dlgcode.obj
 0002:00005ad0       ??_C@_05DAJPPLDE@exit?6?$AA@ 00494ad0     Dlgcode.obj
 0002:00005ad8       ??_C@_0DG@HAFOMLKA@select?5partition?5?$CFd?6attributes?5v@ 00494ad8     Dlgcode.obj
 0002:00005b10       ??_C@_0CP@DIEKEDPA@select?5disk?5?$CFd?6attributes?5disk?5c@ 00494b10     Dlgcode.obj
 0002:00005b40       ??_C@_0CI@FDJHAAPA@?$EAdiskpart?5?1s?5?$CC?$CFs?$CC?6?$EApause?6?$EAdel?5?$CC?$CF@ 00494b40     Dlgcode.obj
 0002:00005b68       ??_C@_0DA@NHHHGBII@?$CFs?2CipherShed_Write_Protection_R@ 00494b68     Dlgcode.obj
 0002:00005b98       ??_C@_0CL@CNEGPLGJ@?$CFs?2CipherShed_Write_Protection_R@ 00494b98     Dlgcode.obj
 0002:00005bc4       ??_C@_09EPIDNIBP@SplashDlg?$AA@ 00494bc4     Dlgcode.obj
 0002:00005bd0       ??_C@_09ODDMBMG@CustomDlg?$AA@ 00494bd0     Dlgcode.obj
 0002:00005bdc       ??_C@_08OAECLFAP@WipeMode?$AA@ 00494bdc     Dlgcode.obj
 0002:00005be8       ??_C@_0BH@GJIMGGMJ@SystemEncryptionStatus?$AA@ 00494be8     Dlgcode.obj
 0002:00005c00       ??_C@_1EK@MEIFFNPL@?$AA?$CF?$AAl?$AAs?$AA?5?$AA?$CI?$AA?$CK?$AA?4?$AA?$CK?$AA?$CJ?$AA?$CF?$AAc?$AA?$CK?$AA?4?$AA?$CK?$AA?$CF?$AAc?$AA?$CF?$AAl?$AAs?$AA?5?$AA?$CI?$AA?$CK?$AA?4?$AAt?$AAc?$AA?$CJ?$AA?$CF?$AAc?$AA?$CK?$AA?4?$AAt?$AAc@ 00494c00     Dlgcode.obj
 0002:00005c4c       ??_C@_09EEODDAII@ALL_FILES?$AA@ 00494c4c     Dlgcode.obj
 0002:00005c58       ??_C@_0L@KDKDGGJA@TC_VOLUMES?$AA@ 00494c58     Dlgcode.obj
 0002:00005c64       ??_C@_07MAJILGNB@notepad?$AA@ 00494c64     Dlgcode.obj
 0002:00005c6c       ??_C@_02DEBJNODD@?$PP?$PO?$AA@ 00494c6c     Dlgcode.obj
 0002:00005c70       ??_C@_04IOIMBAGL@?1p?5?$CC?$AA@ 00494c70     Dlgcode.obj
 0002:00005c78       ??_C@_0CN@CEHMIIEP@NONSYS_INPLACE_ENC_NOTIFICATION_@ 00494c78     Dlgcode.obj
 0002:00005ca8       ??_C@_0BC@OBEHEBCI@KEEP_PROMPTING_ME?$AA@ 00494ca8     Dlgcode.obj
 0002:00005cbc       ??_C@_0BB@DBNBKEPD@DO_NOT_PROMPT_ME?$AA@ 00494cbc     Dlgcode.obj
 0002:00005cd0       ??_C@_0CM@MNHDIPFC@ASK_NONSYS_INPLACE_ENC_NOTIFICAT@ 00494cd0     Dlgcode.obj
 0002:00005cfc       ??_C@_0CB@FLOKBEFC@NONSYS_INPLACE_ENC_RESUME_PROMPT@ 00494cfc     Dlgcode.obj
 0002:00005d20       ??_C@_0BA@CBDNBIND@KEYFILE_CREATED?$AA@ 00494d20     Dlgcode.obj
 0002:00005d30       ??_C@_0BG@HKFCCDBK@IDD_KEYFILE_GENERATOR?$AA@ 00494d30     Dlgcode.obj
 0002:00005d4c       ??_7?$ContainerForward@V?$basic_string@DU?$char_traits@D@std@@V?$allocator@D@2@@std@@@ForEach@CipherShed@@6B@ 00494d4c     Dlgcode.obj
 0002:00005d58       ??_C@_0BL@JMLKAJFL@PASSWORD_WRONG_CAPSLOCK_ON?$AA@ 00494d58     Dlgcode.obj
 0002:00005d74       ??_C@_0P@MKGPOAFK@PASSWORD_WRONG?$AA@ 00494d74     Dlgcode.obj
 0002:00005d84       ??_C@_0BK@LAEGKAMJ@PASSWORD_OR_KEYFILE_WRONG?$AA@ 00494d84     Dlgcode.obj
 0002:00005da0       ??_C@_0M@FDOCLIJD@ERR_UNKNOWN?$AA@ 00494da0     Dlgcode.obj
 0002:00005dac       ??_C@_0BI@NIGJHOFH@ERR_PARAMETER_INCORRECT?$AA@ 00494dac     Dlgcode.obj
 0002:00005dc4       ??_C@_0CF@MBJPLKGL@ERR_SYS_HIDVOL_HEAD_REENC_MODE_W@ 00494dc4     Dlgcode.obj
 0002:00005dec       ??_C@_0CC@BGLNMIMN@ERR_NONSYS_INPLACE_ENC_INCOMPLET@ 00494dec     Dlgcode.obj
 0002:00005e10       ??_C@_0BN@JLJPGHCL@ERR_ENCRYPTION_NOT_COMPLETED?$AA@ 00494e10     Dlgcode.obj
 0002:00005e30       ??_C@_0BF@LDKGLOCG@NEW_VERSION_REQUIRED?$AA@ 00494e30     Dlgcode.obj
 0002:00005e48       ??_C@_0P@LICKOHFP@DRIVER_VERSION?$AA@ 00494e48     Dlgcode.obj
 0002:00005e58       ??_C@_0O@ILOHOCOF@ACCESS_DENIED?$AA@ 00494e58     Dlgcode.obj
 0002:00005e68       ??_C@_0P@ECPPAAM@NO_FREE_DRIVES?$AA@ 00494e68     Dlgcode.obj
 0002:00005e78       ??_C@_0BB@JCPIJGNN@VOL_MOUNT_FAILED?$AA@ 00494e78     Dlgcode.obj
 0002:00005e8c       ??_C@_0BB@GLPAMHI@FILE_OPEN_FAILED?$AA@ 00494e8c     Dlgcode.obj
 0002:00005ea0       ??_C@_0BE@NEFDJEPG@VOL_ALREADY_MOUNTED?$AA@ 00494ea0     Dlgcode.obj
 0002:00005eb4       ??_C@_0BJ@DGGCCNCK@ERR_CIPHER_INIT_WEAK_KEY?$AA@ 00494eb4     Dlgcode.obj
 0002:00005ed0       ??_C@_0BI@BFLHAGLK@ERR_CIPHER_INIT_FAILURE?$AA@ 00494ed0     Dlgcode.obj
 0002:00005ee8       ??_C@_0M@KFLNHABP@VOL_SEEKING?$AA@ 00494ee8     Dlgcode.obj
 0002:00005ef4       ??_C@_0P@BKLABIJI@WRONG_VOL_TYPE?$AA@ 00494ef4     Dlgcode.obj
 0002:00005f04       ??_C@_0BK@FLKCANLN@COMPRESSION_NOT_SUPPORTED?$AA@ 00494f04     Dlgcode.obj
 0002:00005f20       ??_C@_0P@HPMGPOAF@VOL_SIZE_WRONG?$AA@ 00494f20     Dlgcode.obj
 0002:00005f30       ??_C@_0P@DNONBLBD@OPENFILES_LOCK?$AA@ 00494f30     Dlgcode.obj
 0002:00005f40       ??_C@_0BB@HBDCANKP@OPENFILES_DRIVER?$AA@ 00494f40     Dlgcode.obj
 0002:00005f54       ??_C@_09IILMPLJM@NOT_FOUND?$AA@ 00494f54     Dlgcode.obj
 0002:00005f60       ??_C@_01LFCBOECM@?4?$AA@   00494f60     Dlgcode.obj
 0002:00005f64       ??_C@_0BE@LMGFCBMP@IDD_CIPHER_TEST_DLG?$AA@ 00494f64     Dlgcode.obj
 0002:00005f78       ??_C@_04NOJCDH@?$CF02x?$AA@ 00494f78     Dlgcode.obj
 0002:00005f80       ??_C@_0CD@CMIOHKDK@TEST_INCORRECT_TEST_DATA_UNIT_SI@ 00494f80     Dlgcode.obj
 0002:00005fa4       ??_C@_0CC@KLEPGHII@TEST_INCORRECT_SECONDARY_KEY_SIZ@ 00494fa4     Dlgcode.obj
 0002:00005fc8       ??_C@_0BF@ONCDDKDD@TEST_CIPHERTEXT_SIZE?$AA@ 00494fc8     Dlgcode.obj
 0002:00005fe0       ??_C@_0BE@EILEFIMF@TEST_PLAINTEXT_SIZE?$AA@ 00494fe0     Dlgcode.obj
 0002:00005ff4       ??_C@_0O@HIHJOOAG@TEST_KEY_SIZE?$AA@ 00494ff4     Dlgcode.obj
 0002:00006004       ??_C@_0N@KEJMMFLH@TESTS_PASSED?$AA@ 00495004     Dlgcode.obj
 0002:00006014       ??_C@_0N@ICLIKEKJ@TESTS_FAILED?$AA@ 00495014     Dlgcode.obj
 0002:00006024       ??_C@_0BJ@FNCHKEAA@GetSystemWow64DirectoryA?$AA@ 00495024     Dlgcode.obj
 0002:00006040       ??_C@_0BA@OFMBGJKB@X?3?2pagefile?4sys?$AA@ 00495040     Dlgcode.obj
 0002:00006050       ??_C@_06EFIGOLMA@?2?2?4?2X?3?$AA@ 00495050     Dlgcode.obj
 0002:00006058       ??_C@_0BF@EKLCPBAN@ENTER_TOKEN_PASSWORD?$AA@ 00495058     Dlgcode.obj
 0002:00006070       ??_C@_0BD@PPCCOPON@IDD_TOKEN_PASSWORD?$AA@ 00495070     Dlgcode.obj
 0002:00006084       ??_C@_0BK@OPPAPAFF@PKCS11_MODULE_INIT_FAILED?$AA@ 00495084     Dlgcode.obj
 0002:000060a0       ??_C@_0BL@NECJIJNL@NO_PKCS11_MODULE_SPECIFIED?$AA@ 004950a0     Dlgcode.obj
 0002:000060bc       ??_C@_02EKJJMPLG@?$HN?2?$AA@ 004950bc     Dlgcode.obj
 0002:000060c0       ??_C@_0M@JJLAKNKG@isoburn?4exe?$AA@ 004950c0     Dlgcode.obj
 0002:000060cc       ??_C@_1DO@HBNMGCKD@?$AA?2?$AAD?$AAe?$AAv?$AAi?$AAc?$AAe?$AA?2?$AAH?$AAa?$AAr?$AAd?$AAd?$AAi?$AAs?$AAk?$AA?$CF?$AAd?$AA?2?$AAP?$AAa?$AAr?$AAt?$AAi?$AAt?$AAi?$AAo?$AAn?$AA?$CF?$AAd?$AA?$AA@ 004950cc     Dlgcode.obj
 0002:0000610c       ??_C@_0CH@LFBCKMNM@SYS_ENCRYPTION_PRETEST_INFO2_POR@ 0049510c     Dlgcode.obj
 0002:00006134       ??_C@_0CH@PKFDDKBL@SYS_ENCRYPTION_PRETEST_INFO2_POR@ 00495134     Dlgcode.obj
 0002:0000615c       ??_C@_0CH@ODEIALFK@SYS_ENCRYPTION_PRETEST_INFO2_POR@ 0049515c     Dlgcode.obj
 0002:00006184       ??_C@_0CH@MIGFFIJJ@SYS_ENCRYPTION_PRETEST_INFO2_POR@ 00495184     Dlgcode.obj
 0002:000061ac       ??_C@_0BL@BIFKAJPO@RESCUE_DISK_HELP_PORTION_9?$AA@ 004951ac     Dlgcode.obj
 0002:000061c8       ??_C@_0BL@BEBDILP@RESCUE_DISK_HELP_PORTION_8?$AA@ 004951c8     Dlgcode.obj
 0002:000061e4       ??_C@_0BL@IGNJCEHA@RESCUE_DISK_HELP_PORTION_7?$AA@ 004951e4     Dlgcode.obj
 0002:00006200       ??_C@_0BL@JPMCBFDB@RESCUE_DISK_HELP_PORTION_6?$AA@ 00495200     Dlgcode.obj
 0002:0000621c       ??_C@_0BL@LEOPEGPC@RESCUE_DISK_HELP_PORTION_5?$AA@ 0049521c     Dlgcode.obj
 0002:00006238       ??_C@_0BL@KNPEHHLD@RESCUE_DISK_HELP_PORTION_4?$AA@ 00495238     Dlgcode.obj
 0002:00006254       ??_C@_0BL@OCLFOBHE@RESCUE_DISK_HELP_PORTION_3?$AA@ 00495254     Dlgcode.obj
 0002:00006270       ??_C@_0BL@PLKONADF@RESCUE_DISK_HELP_PORTION_2?$AA@ 00495270     Dlgcode.obj
 0002:0000628c       ??_C@_0BL@NAIDIDPG@RESCUE_DISK_HELP_PORTION_1?$AA@ 0049528c     Dlgcode.obj
 0002:000062a8       ??_C@_0CB@MBHBFDO@DECOY_OS_INSTRUCTIONS_PORTION_18@ 004952a8     Dlgcode.obj
 0002:000062cc       ??_C@_0CB@ILIPAJPB@DECOY_OS_INSTRUCTIONS_PORTION_17@ 004952cc     Dlgcode.obj
 0002:000062f0       ??_C@_0CB@JCJEDILA@DECOY_OS_INSTRUCTIONS_PORTION_16@ 004952f0     Dlgcode.obj
 0002:00006314       ??_C@_0CB@LJLJGLHD@DECOY_OS_INSTRUCTIONS_PORTION_15@ 00495314     Dlgcode.obj
 0002:00006338       ??_C@_0CB@KAKCFKDC@DECOY_OS_INSTRUCTIONS_PORTION_14@ 00495338     Dlgcode.obj
 0002:0000635c       ??_C@_0CB@OPODMMPF@DECOY_OS_INSTRUCTIONS_PORTION_13@ 0049535c     Dlgcode.obj
 0002:00006380       ??_C@_0CB@PGPIPNLE@DECOY_OS_INSTRUCTIONS_PORTION_12@ 00495380     Dlgcode.obj
 0002:000063a4       ??_C@_0CB@NNNFKOHH@DECOY_OS_INSTRUCTIONS_PORTION_11@ 004953a4     Dlgcode.obj
 0002:000063c8       ??_C@_0CB@MEMOJPDG@DECOY_OS_INSTRUCTIONS_PORTION_10@ 004953c8     Dlgcode.obj
 0002:000063ec       ??_C@_0CA@EBNFDEFN@DECOY_OS_INSTRUCTIONS_PORTION_9?$AA@ 004953ec     Dlgcode.obj
 0002:0000640c       ??_C@_0CA@FIMOAFBM@DECOY_OS_INSTRUCTIONS_PORTION_8?$AA@ 0049540c     Dlgcode.obj
 0002:0000642c       ??_C@_0CA@NPFGBJND@DECOY_OS_INSTRUCTIONS_PORTION_7?$AA@ 0049542c     Dlgcode.obj
 0002:0000644c       ??_C@_0CA@MGENCIJC@DECOY_OS_INSTRUCTIONS_PORTION_6?$AA@ 0049544c     Dlgcode.obj
 0002:0000646c       ??_C@_0CA@ONGAHLFB@DECOY_OS_INSTRUCTIONS_PORTION_5?$AA@ 0049546c     Dlgcode.obj
 0002:0000648c       ??_C@_0CA@PEHLEKBA@DECOY_OS_INSTRUCTIONS_PORTION_4?$AA@ 0049548c     Dlgcode.obj
 0002:000064ac       ??_C@_0CA@LLDKNMNH@DECOY_OS_INSTRUCTIONS_PORTION_3?$AA@ 004954ac     Dlgcode.obj
 0002:000064cc       ??_C@_0CA@KCCBONJG@DECOY_OS_INSTRUCTIONS_PORTION_2?$AA@ 004954cc     Dlgcode.obj
 0002:000064ec       ??_C@_0CA@IJAMLOFF@DECOY_OS_INSTRUCTIONS_PORTION_1?$AA@ 004954ec     Dlgcode.obj
 0002:0000650c       ??_C@_0CD@IBNJCEOK@How?5to?5Remove?5Extra?5Boot?5Partiti@ 0049550c     Dlgcode.obj
 0002:00006530       ??_C@_0CK@GKLMBFMH@EXTRA_BOOT_PARTITION_REMOVAL_INS@ 00495530     Dlgcode.obj
 0002:0000655c       ??_C@_0BH@DOMMMACL@How?5to?5Create?5Decoy?5OS?$AA@ 0049555c     Dlgcode.obj
 0002:00006574       ??_C@_0BM@BCCJBOGG@CipherShed?5Rescue?5Disk?5Help?$AA@ 00495574     Dlgcode.obj
 0002:00006590       ??_C@_0BJ@OAHHFEJL@Pre?9Boot?5Troubleshooting?$AA@ 00495590     Dlgcode.obj
 0002:000065ac       ??_C@_0BI@OOMIJPBL@LEGAL_NOTICES_DLG_TITLE?$AA@ 004955ac     Dlgcode.obj
 0002:000065c4       ??_C@_04HMNMCKMH@?2?2?$DP?2?$AA@ 004955c4     Dlgcode.obj
 0002:000065cc       ??_C@_06OLPECHEJ@?2?$DP?$DP?2?$CFs?$AA@ 004955cc     Dlgcode.obj
 0002:000065d4       ??_C@_0CD@MHPFPHDI@ASK_REMOVE_DEVICE_WRITE_PROTECTI@ 004955d4     Dlgcode.obj
 0002:000065f8       ??_C@_0BH@GHLJCPDI@?2Device?2HarddiskVolume?$AA@ 004955f8     Dlgcode.obj
 0002:00006610       ??_C@_0DB@LCJCCDBH@MOUNTED_DEVICE_FORCED_READ_ONLY_@ 00495610     Dlgcode.obj
 0002:00006644       ??_C@_0CA@HAHCAFMF@MOUNTED_DEVICE_FORCED_READ_ONLY?$AA@ 00495644     Dlgcode.obj
 0002:00006664       ??_C@_0CD@HGDBCKJG@MOUNTED_CONTAINER_FORCED_READ_ON@ 00495664     Dlgcode.obj
 0002:00006688       ??_C@_0BF@GHMEOCNL@MOUNTED_VOLUME_DIRTY?$AA@ 00495688     Dlgcode.obj
 0002:000066a0       ??_C@_0CE@NGBHCJPO@HEADER_DAMAGED_AUTO_USED_HEADER_@ 004956a0     Dlgcode.obj
 0002:000066c4       ??_C@_0CI@EOBACLIE@HIDDEN_VOL_PROT_PASSWORD_US_KEYB@ 004956c4     Dlgcode.obj
 0002:000066ec       ??_C@_1DM@FMJIKGBL@?$AA?2?$AAD?$AAe?$AAv?$AAi?$AAc?$AAe?$AA?2?$AAH?$AAa?$AAr?$AAd?$AAd?$AAi?$AAs?$AAk?$AA?$CF?$AAd?$AA?2?$AAP?$AAa?$AAr?$AAt?$AAi?$AAt?$AAi?$AAo?$AAn?$AA0?$AA?$AA@ 004956ec     Dlgcode.obj
 0002:00006728       ??_C@_0BN@CEPHIDFC@?2Device?2Harddisk?$CFd?2Partition?$AA@ 00495728     Dlgcode.obj
 0002:00006748       ??_C@_0BD@NBNNICAF@FILE_IN_USE_FAILED?$AA@ 00495748     Dlgcode.obj
 0002:0000675c       ??_C@_0M@CLFBJLHD@FILE_IN_USE?$AA@ 0049575c     Dlgcode.obj
 0002:00006768       ??_C@_1DK@KHADBPEJ@?$AA?2?$AAD?$AAe?$AAv?$AAi?$AAc?$AAe?$AA?2?$AAH?$AAa?$AAr?$AAd?$AAd?$AAi?$AAs?$AAk?$AA?$CF?$AAd?$AA?2?$AAP?$AAa?$AAr?$AAt?$AAi?$AAt?$AAi?$AAo?$AAn?$AA?$AA@ 00495768     Dlgcode.obj
 0002:000067a4       ??_C@_03IDDIGDHP@UNC?$AA@  004957a4     Dlgcode.obj
 0002:000067a8       ??_C@_02HDBGODGB@?2?2?$AA@ 004957a8     Dlgcode.obj
 0002:000067ac       ??_C@_0BJ@PCMNJMOK@DRIVE_LETTER_UNAVAILABLE?$AA@ 004957ac     Dlgcode.obj
 0002:000067cc       ??_7?$ContainerForward@V?$list@KV?$allocator@K@std@@@std@@@ForEach@CipherShed@@6B@ 004957cc     Dlgcode.obj
 0002:000067d8       ??_C@_03PFGLPIPP@?9sp?$AA@ 004957d8     Dlgcode.obj
 0002:000067dc       ??_C@_04DFMLABPB@?9x64?$AA@ 004957dc     Dlgcode.obj
 0002:000067e4       ??_C@_06FNMLEPMI@?9basic?$AA@ 004957e4     Dlgcode.obj
 0002:000067ec       ??_C@_05NIKDGMHP@Basic?$AA@ 004957ec     Dlgcode.obj
 0002:000067f4       ??_C@_08KHECKGMK@?9starter?$AA@ 004957f4     Dlgcode.obj
 0002:00006800       ??_C@_09FDAPKNJ@?9ultimate?$AA@ 00495800     Dlgcode.obj
 0002:0000680c       ??_C@_08DIOBIMMC@Ultimate?$AA@ 0049580c     Dlgcode.obj
 0002:00006818       ??_C@_0M@BOLPHPEH@?9datacenter?$AA@ 00495818     Dlgcode.obj
 0002:00006824       ??_C@_0L@OOPFNAF@Datacenter?$AA@ 00495824     Dlgcode.obj
 0002:00006830       ??_C@_0M@CCIJFPDH@?9enterprise?$AA@ 00495830     Dlgcode.obj
 0002:0000683c       ??_C@_0L@DCNJHNHF@Enterprise?$AA@ 0049583c     Dlgcode.obj
 0002:00006848       ??_C@_09LKNHIPDK@?9business?$AA@ 00495848     Dlgcode.obj
 0002:00006854       ??_C@_08IHAGPJCB@Business?$AA@ 00495854     Dlgcode.obj
 0002:00006860       ??_C@_0N@KIDDKEAC@Professional?$AA@ 00495860     Dlgcode.obj
 0002:00006870       ??_C@_09OBBBAFJO@?9standard?$AA@ 00495870     Dlgcode.obj
 0002:0000687c       ??_C@_08NMMAHDIF@Standard?$AA@ 0049587c     Dlgcode.obj
 0002:00006888       ??_C@_07ODEEFNBO@?9server?$AA@ 00495888     Dlgcode.obj
 0002:00006890       ??_C@_06HHKOBDNA@2008r2?$AA@ 00495890     Dlgcode.obj
 0002:00006898       ??_C@_01COCBENDE@7?$AA@    00495898     Dlgcode.obj
 0002:0000689c       ??_C@_04CBODECMO@2008?$AA@ 0049589c     Dlgcode.obj
 0002:000068a4       ??_C@_05FBPADAKE@vista?$AA@ 004958a4     Dlgcode.obj
 0002:000068ac       ??_C@_04MCBHJLAF@2003?$AA@ 004958ac     Dlgcode.obj
 0002:000068b4       ??_C@_04NOKDIIJN@?9pro?$AA@ 004958b4     Dlgcode.obj
 0002:000068bc       ??_C@_05GHINFEPM@?9home?$AA@ 004958bc     Dlgcode.obj
 0002:000068c4       ??_C@_02HFGDGGPD@xp?$AA@   004958c4     Dlgcode.obj
 0002:000068c8       ??_C@_04OJDKMIMG@2000?$AA@ 004958c8     Dlgcode.obj
 0002:000068d0       ??_C@_0M@MNPNDAHP@ProductName?$AA@ 004958d0     Dlgcode.obj
 0002:000068dc       ??_C@_0CN@LCMFDIEF@SOFTWARE?2Microsoft?2Windows?5NT?2Cu@ 004958dc     Dlgcode.obj
 0002:0000690c       ??_C@_03JECLAOEA@win?$AA@  0049590c     Dlgcode.obj
 0002:00006910       ??_C@_0DI@DCPBDEOF@http?3?1?1ciphershed?4org?1applink?$DPve@ 00495910     Dlgcode.obj
 0002:00006948       ??_C@_04CIEGKLKE@?$CGos?$DN?$AA@ 00495948     Dlgcode.obj
 0002:00006954       ??_7?$ContainerForward@V?$list@USecurityTokenInfo@CipherShed@@V?$allocator@USecurityTokenInfo@CipherShed@@@std@@@std@@@ForEach@CipherShed@@6B@ 00495954     Dlgcode.obj
 0002:00006964       ??_7?$ContainerForward@V?$vector@USecurityTokenKeyfile@CipherShed@@V?$allocator@USecurityTokenKeyfile@CipherShed@@@std@@@std@@@ForEach@CipherShed@@6B@ 00495964     Dlgcode.obj
 0002:00006974       ??_7?$ContainerForward@V?$list@USecurityTokenKeyfile@CipherShed@@V?$allocator@USecurityTokenKeyfile@CipherShed@@@std@@@std@@@ForEach@CipherShed@@6B@ 00495974     Dlgcode.obj
 0002:00006980       ??_C@_0DDJ@INFJPGJH@Portions?5of?5this?5software?5are?5ba@ 00495980     Dlgcode.obj
 0002:00006cbc       ??_C@_04GHJNJNPO@main?$AA@ 00495cbc     Dlgcode.obj
 0002:00006cc4       ??_C@_0CL@OLEPOIOI@Released?5by?5CipherShed?5on?5Februa@ 00495cc4     Dlgcode.obj
 0002:00006cf0       ??_C@_0O@HAOBOOIJ@CipherShed?5?$CFs?$AA@ 00495cf0     Dlgcode.obj
 0002:00006d00       ??_C@_05JPPCAGFG@0?47?43?$AA@ 00495d00     Dlgcode.obj
 0002:00006d08       ??_C@_0P@POMHPHDI@ciphershed?4org?$AA@ 00495d08     Dlgcode.obj
 0002:00006d18       ??_C@_0O@JLGCPBGA@IDD_ABOUT_DLG?$AA@ 00495d18     Dlgcode.obj
 0002:00006d28       ??_C@_0BF@JIKAMFDK@EXCEPTION_REPORT_EXT?$AA@ 00495d28     Dlgcode.obj
 0002:00006d40       ??_C@_0BH@KPCDNAAO@EXCEPTION_REPORT_TITLE?$AA@ 00495d40     Dlgcode.obj
 0002:00006d58       ??_C@_0BB@PFGPMKFM@EXCEPTION_REPORT?$AA@ 00495d58     Dlgcode.obj
 0002:00006d70       ??_C@_0IK@LKDHDEMN@https?3?1?1ciphershed?4org?1applink?$DPv@ 00495d70     Dlgcode.obj
 0002:00006dfc       ??_C@_06DLEPGFEF@format?$AA@ 00495dfc     Dlgcode.obj
 0002:00006e04       ??_C@_03NDFEINMN@x86?$AA@  00495e04     Dlgcode.obj
 0002:00006e08       ??_C@_03OLPMMCEF@x64?$AA@  00495e08     Dlgcode.obj
 0002:00006e0c       ??_C@_0BA@EIBJDAPB@?$CGlangpack?$DN?$CFs_?$CFs?$AA@ 00495e0c     Dlgcode.obj
 0002:00006e1c       ??_C@_03BPHHBGPB@?$DN0x?$AA@ 00495e1c     Dlgcode.obj
 0002:00006e20       ??_C@_01NEMOKFLO@?$DN?$AA@ 00495e20     Dlgcode.obj
 0002:00006e24       ??_C@_03EGAGLKPK@?$CGst?$AA@ 00495e24     Dlgcode.obj
 0002:00006e28       ??_C@_0M@GHNAPHBH@SymFromAddr?$AA@ 00495e28     Dlgcode.obj
 0002:00006e34       ??_C@_0M@FJINHFIC@StackWalk64?$AA@ 00495e34     Dlgcode.obj
 0002:00006e40       ??_C@_0BD@JCAKOMOK@SymGetModuleBase64?$AA@ 00495e40     Dlgcode.obj
 0002:00006e54       ??_C@_0BJ@OOGADJNM@SymFunctionTableAccess64?$AA@ 00495e54     Dlgcode.obj
 0002:00006e70       ??_C@_0O@MCMFENKA@SymInitialize?$AA@ 00495e70     Dlgcode.obj
 0002:00006e80       ??_C@_0O@LIDFOEPH@SymSetOptions?$AA@ 00495e80     Dlgcode.obj
 0002:00006e90       ??_C@_0O@KGBKFDLO@SymGetOptions?$AA@ 00495e90     Dlgcode.obj
 0002:00006ea0       ??_C@_0M@OOEJBPPK@dbghelp?4dll?$AA@ 00495ea0     Dlgcode.obj
 0002:00006eac       ??_C@_0BN@PKGEAFIB@EXCEPTION_REPORT_EXT_FILESEL?$AA@ 00495eac     Dlgcode.obj
 0002:00006ecc       ??_C@_0O@HCBFIMAP@INIT_RICHEDIT?$AA@ 00495ecc     Dlgcode.obj
 0002:00006edc       ??_C@_0N@BMEDOHMB@Riched20?4dll?$AA@ 00495edc     Dlgcode.obj
 0002:00006eec       ??_C@_0O@PKFAAFKJ@INIT_REGISTER?$AA@ 00495eec     Dlgcode.obj
 0002:00006efc       ??_C@_06FGFHJIJL@?$CD32770?$AA@ 00495efc     Dlgcode.obj
 0002:00006f04       ??_C@_0BC@GALHPKAM@HIBERBOOT_WARNING?$AA@ 00495f04     Dlgcode.obj
 0002:00006f18       ??_C@_0BB@HPCHMKPF@HiberbootEnabled?$AA@ 00495f18     Dlgcode.obj
 0002:00006f2c       ??_C@_0DH@LALKCDG@SYSTEM?2CurrentControlSet?2Control@ 00495f2c     Dlgcode.obj
 0002:00006f64       ??_C@_0BB@EMKOIAFP@HibernateEnabled?$AA@ 00495f64     Dlgcode.obj
 0002:00006f78       ??_C@_0CH@FAGKKBPC@SYSTEM?2CurrentControlSet?2Control@ 00495f78     Dlgcode.obj
 0002:00006fa0       ??_C@_0BO@CHBDAIFD@LARGE_IDE_WARNING_2K_REGISTRY?$AA@ 00495fa0     Dlgcode.obj
 0002:00006fc0       ??_C@_0N@MGFEFGLL@EnableBigLba?$AA@ 00495fc0     Dlgcode.obj
 0002:00006fd0       ??_C@_0DD@HENCBNAN@SYSTEM?2CurrentControlSet?2Service@ 00495fd0     Dlgcode.obj
 0002:00007004       ??_C@_0BF@FAAJOFOJ@LARGE_IDE_WARNING_2K?$AA@ 00496004     Dlgcode.obj
 0002:0000701c       ??_C@_0BF@LMHPGAIF@LARGE_IDE_WARNING_XP?$AA@ 0049601c     Dlgcode.obj
 0002:00007034       ??_C@_0CI@KAEBDPBB@System?2CurrentControlSet?2Control@ 00496034     Dlgcode.obj
 0002:0000705c       ??_C@_0P@IEEIGCBO@UNSUPPORTED_OS?$AA@ 0049605c     Dlgcode.obj
 0002:0000706c       ??_C@_1DK@KHACNMIN@?$AAC?$AAi?$AAp?$AAh?$AAe?$AAr?$AAS?$AAh?$AAe?$AAd?$AAP?$AAr?$AAo?$AAj?$AAe?$AAc?$AAt?$AA?4?$AAC?$AAi?$AAp?$AAh?$AAe?$AAr?$AAS?$AAh?$AAe?$AAd?$AA?$AA@ 0049606c     Dlgcode.obj
 0002:000070a8       ??_C@_0M@KFDNOLCO@shell32?4dll?$AA@ 004960a8     Dlgcode.obj
 0002:000070b4       ??_C@_0CI@MDCPAMLM@SetCurrentProcessExplicitAppUser@ 004960b4     Dlgcode.obj
 0002:000070dc       ??_C@_0BA@KDBBKJMB@parallelization?$AA@ 004960dc     Dlgcode.obj
 0002:000070ec       ??_C@_0P@DAOCBLPH@hwacceleration?$AA@ 004960ec     Dlgcode.obj
 0002:000070fc       ??_C@_0CJ@DPNMADAJ@LIMITED_THREAD_COUNT_AFFECTS_PER@ 004960fc     Dlgcode.obj
 0002:00007128       ??_C@_0BC@OLBIFKJH@NUMBER_OF_THREADS?$AA@ 00496128     Dlgcode.obj
 0002:0000713c       ??_C@_0CE@PCOLOOBN@DISABLED_HW_AES_AFFECTS_PERFORMA@ 0049613c     Dlgcode.obj
 0002:00007160       ??_C@_0P@OLANKFFE@UISTR_DISABLED?$AA@ 00496160     Dlgcode.obj
 0002:00007170       ??_C@_1O@MPLLELLM@?$AA2?$AA0?$AA0?$AA?5?$AA?$CF?$AAs?$AA?$AA@ 00496170     Dlgcode.obj
 0002:00007180       ??_C@_1M@LHMOADBN@?$AA5?$AA0?$AA?5?$AA?$CF?$AAs?$AA?$AA@ 00496180     Dlgcode.obj
 0002:0000718c       ??_C@_1M@LEMIDIGC@?$AA1?$AA0?$AA?5?$AA?$CF?$AAs?$AA?$AA@ 0049618c     Dlgcode.obj
 0002:00007198       ??_C@_19EFDCCHFE@?$AA5?$AA?5?$AA?$CF?$AAs?$AA?$AA@ 00496198     Dlgcode.obj
 0002:000071a4       ??_C@_19EMNJIHCO@?$AA1?$AA?5?$AA?$CF?$AAs?$AA?$AA@ 004961a4     Dlgcode.obj
 0002:000071b0       ??_C@_1O@KKHGOBHM@?$AA5?$AA0?$AA0?$AA?5?$AA?$CF?$AAs?$AA?$AA@ 004961b0     Dlgcode.obj
 0002:000071c0       ??_C@_1O@LDNKGOGH@?$AA1?$AA0?$AA0?$AA?5?$AA?$CF?$AAs?$AA?$AA@ 004961c0     Dlgcode.obj
 0002:000071d0       ??_C@_0L@CNNDFAGN@MEAN_SPEED?$AA@ 004961d0     Dlgcode.obj
 0002:000071dc       ??_C@_0BJ@CAIGIJEE@ALPHABETICAL_CATEGORIZED?$AA@ 004961dc     Dlgcode.obj
 0002:000071f8       ??_C@_04CKNGLJGJ@MEAN?$AA@ 004961f8     Dlgcode.obj
 0002:00007200       ??_C@_09KPCECDGB@ALGORITHM?$AA@ 00496200     Dlgcode.obj
 0002:0000720c       ??_C@_0BC@LMCINEGC@IDD_BENCHMARK_DLG?$AA@ 0049620c     Dlgcode.obj
 0002:00007220       ??_C@_04PCJFHION@help?$AA@ 00496220     Dlgcode.obj
 0002:00007228       ??_C@_0BC@HCJJOEDJ@HELP_READER_ERROR?$AA@ 00496228     Dlgcode.obj
 0002:0000723c       ??_C@_13MCLHKIEA@?$AA?$FL?$AA?$AA@ 0049623c     Dlgcode.obj
 0002:00007240       ??_C@_15FOBPOKEL@?$AA?$FN?$AA?5?$AA?$AA@ 00496240     Dlgcode.obj
 0002:00007248       ??_C@_0BA@PNGOBCAF@NO_TOKENS_FOUND?$AA@ 00496248     Dlgcode.obj
 0002:00007258       ??_C@_0BG@LFJKCHMB@IDD_NEW_TOKEN_KEYFILE?$AA@ 00496258     Dlgcode.obj
 0002:00007270       ??_C@_0P@CDPPHMOE@SELECT_KEYFILE?$AA@ 00496270     Dlgcode.obj
 0002:00007280       ??_C@_0BJ@BMFGOBOD@CONFIRM_SEL_FILES_DELETE?$AA@ 00496280     Dlgcode.obj
 0002:0000729c       ??_C@_0BB@PPCMEB@KEYFILE_EXPORTED?$AA@ 0049629c     Dlgcode.obj
 0002:000072b0       ??_C@_0BI@IHKDKJBG@TOKEN_DATA_OBJECT_LABEL?$AA@ 004962b0     Dlgcode.obj
 0002:000072c8       ??_C@_0L@NGNPCFGO@TOKEN_NAME?$AA@ 004962c8     Dlgcode.obj
 0002:000072d4       ??_C@_0O@FCMHIAOH@TOKEN_SLOT_ID?$AA@ 004962d4     Dlgcode.obj
 0002:000072e4       ??_C@_0BD@HDBJEGLD@IDD_TOKEN_KEYFILES?$AA@ 004962e4     Dlgcode.obj
 0002:000072f8       ??_C@_0BG@NCEDCOKN@SELECT_TOKEN_KEYFILES?$AA@ 004962f8     Dlgcode.obj
 0002:00007310       ??_C@_0CA@KIHOPKHK@WHOLE_NONSYS_DEVICE_ENC_CONFIRM?$AA@ 00496310     Dlgcode.obj
 0002:00007330       ??_C@_0CJ@GBJECFP@DEVICE_PARTITIONS_ERR_W_INPLACE_@ 00496330     Dlgcode.obj
 0002:0000735c       ??_C@_0CN@DJPENAJO@CONFIRM_CHANGE_WIZARD_MODE_TO_FI@ 0049635c     Dlgcode.obj
 0002:0000738c       ??_C@_0CA@MMDKGOOF@FORMAT_DEVICE_FOR_ADVANCED_ONLY?$AA@ 0049638c     Dlgcode.obj
 0002:000073ac       ??_C@_13EBCNDICG@?$AA?3?$AA?$AA@ 004963ac     Dlgcode.obj
 0002:000073b0       ??_C@_08IPBANHMA@HARDDISK?$AA@ 004963b0     Dlgcode.obj
 0002:000073bc       ??_C@_1M@DJFDNGE@?$AA?$CF?$AAs?$AA?5?$AA?$CF?$AAd?$AA?$AA@ 004963bc     Dlgcode.obj
 0002:000073c8       ??_C@_0P@MBKJGBEM@REMOVABLE_DISK?$AA@ 004963c8     Dlgcode.obj
 0002:000073d8       ??_C@_0L@IJFHJLKD@RAWDEVICES?$AA@ 004963d8     Dlgcode.obj
 0002:000073e4       ??_C@_05EILEDKCG@LABEL?$AA@ 004963e4     Dlgcode.obj
 0002:000073ec       ??_C@_04EMFHLKGI@SIZE?$AA@ 004963ec     Dlgcode.obj
 0002:000073f4       ??_C@_05JLAEHEHI@DRIVE?$AA@ 004963f4     Dlgcode.obj
 0002:000073fc       ??_C@_06CDNPEPDB@DEVICE?$AA@ 004963fc     Dlgcode.obj
 0002:00007404       ??_C@_0BD@OAMDNKIF@IDD_RAWDEVICES_DLG?$AA@ 00496404     Dlgcode.obj
 0002:00007418       ??_C@_08JPOPGMJJ@FAT12?5?5?5?$AA@ 00496418     Fat.obj
 0002:00007424       ??_C@_08GKGPMKFJ@FAT16?5?5?5?$AA@ 00496424     Fat.obj
 0002:00007430       ??_C@_08NCCHMNJC@FAT32?5?5?5?$AA@ 00496430     Fat.obj
 0002:0000743c       ??_C@_08PGBLPCGG@MSDOS5?40?$AA@ 0049643c     Fat.obj
 0002:00007448       ??_C@_19ENNDBEJL@?$AAN?$AAT?$AAF?$AAS?$AA?$AA@ 00496448     Format.obj
 0002:00007454       ??_C@_15GKAHMKIN@?$AA?3?$AA?2?$AA?$AA@ 00496454     Format.obj
 0002:0000745c       ??_C@_08KDJACLKO@FormatEx?$AA@ 0049645c     Format.obj
 0002:00007468       ??_C@_09IFOENPLD@fmifs?4dll?$AA@ 00496468     Format.obj
 0002:00007474       ??_C@_0BD@KDGBHLHC@FORMAT_NTFS_FAILED?$AA@ 00496474     Format.obj
 0002:00007488       ??_C@_0BC@NBGKCIGC@CANT_MOUNT_VOLUME?$AA@ 00496488     Format.obj
 0002:0000749c       ??_C@_0BB@FNPBIAIE@FORMAT_NTFS_STOP?$AA@ 0049649c     Format.obj
 0002:000074b0       ??_C@_0BL@GAPIEOII@FORMAT_NTFS_FAILED_ASK_FAT?$AA@ 004964b0     Format.obj
 0002:000074cc       ??_C@_0BF@OLCHNIN@CANT_DISMOUNT_VOLUME?$AA@ 004964cc     Format.obj
 0002:000074e4       ??_C@_0M@BCIBMEHP@NO?5NAME?5?5?5?5?$AA@ 004964e4     Format.obj
 0002:000074f0       ??_C@_0BF@LPDGKFHG@DEVICE_IN_USE_FORMAT?$AA@ 004964f0     Format.obj
 0002:00007508       ??_C@_0BN@NJIOHEOP@FORMAT_CANT_DISMOUNT_FILESYS?$AA@ 00496508     Format.obj
 0002:00007d28       ??_C@_02JDPG@rb?$AA@       00496d28     Keyfiles.obj
 0002:00007d2c       ??_C@_0BH@EHNHOJEI@ERR_KEYFILE_PATH_EMPTY?$AA@ 00496d2c     Keyfiles.obj
 0002:00007d44       ??_C@_06GIIGBPHC@?$CFs?$CFc?$CFs?$AA@ 00496d44     Keyfiles.obj
 0002:00007d4c       ??_C@_0BJ@LAFEHOHO@ERR_PROCESS_KEYFILE_PATH?$AA@ 00496d4c     Keyfiles.obj
 0002:00007d68       ??_C@_06BNHEIDIH@?$CFs?2?$CK?4?$CK?$AA@ 00496d68     Keyfiles.obj
 0002:00007d70       ??_C@_0BE@BKNFAOGD@ERR_PROCESS_KEYFILE?$AA@ 00496d70     Keyfiles.obj
 0002:00007d88       ??_7?$ContainerForward@V?$list@USecurityTokenKeyfilePath@CipherShed@@V?$allocator@USecurityTokenKeyfilePath@CipherShed@@@std@@@std@@@ForEach@CipherShed@@6B@ 00496d88     Keyfiles.obj
 0002:00007d94       ??_C@_08FHEKFNDB@keyfiles?$AA@ 00496d94     Keyfiles.obj
 0002:00007da0       ??_C@_0BE@EJPKDEGH@SELECT_KEYFILE_PATH?$AA@ 00496da0     Keyfiles.obj
 0002:00007db4       ??_C@_0O@JNGBBDK@KEYFILES_NOTE?$AA@ 00496db4     Keyfiles.obj
 0002:00007dc4       ??_C@_07BGLJIIHG@KEYFILE?$AA@ 00496dc4     Keyfiles.obj
 0002:00007dcc       ??_C@_0N@OGGIJBFO@IDD_KEYFILES?$AA@ 00496dcc     Keyfiles.obj
 0002:00007ddc       ??_C@_03FJEFHLHG@Xml?$AA@  00496ddc     Language.obj
 0002:00007de0       ??_C@_1BO@DAKOOJFM@?$AA?2?$AAL?$AAa?$AAn?$AAg?$AAu?$AAa?$AAg?$AAe?$AA?$CK?$AA?4?$AAx?$AAm?$AAl?$AA?$AA@ 00496de0     Language.obj
 0002:00007e00       ??_C@_1BE@ONAPIBAL@?$AA?$FL?$AA?$DP?$AA?$FN?$AA?$CF?$AAh?$AAs?$AA?$FL?$AA?$DP?$AA?$FN?$AA?$AA@ 00496e00     Language.obj
 0002:00007e14       ??_C@_0O@MBEIEFFD@?$CDdefine?5?$CFs?5?$CFd?$AA@ 00496e14     Language.obj
 0002:00007e24       ??_C@_06OENKJGA@Header?$AA@ 00496e24     Language.obj
 0002:00007e2c       ??_C@_06CALLMKCG@IDHELP?$AA@ 00496e2c     Language.obj
 0002:00007e34       ??_C@_07CIAHAGHC@IDCLOSE?$AA@ 00496e34     Language.obj
 0002:00007e3c       ??_C@_04BAADKBID@IDOK?$AA@ 00496e3c     Language.obj
 0002:00007e44       ??_C@_0CO@OPBINFGK@CipherShed?3?5Error?5while?5decoding@ 00496e44     Language.obj
 0002:00007e74       ??_C@_0DC@NDOJKNIA@CipherShed?3?5Unknown?5?8?2?8?5escape?5s@ 00496e74     Language.obj
 0002:00007ea8       ??_C@_05ENKANFLO@class?$AA@ 00496ea8     Language.obj
 0002:00007eb0       ??_C@_05DONAFDKA@font_?$AA@ 00496eb0     Language.obj
 0002:00007eb8       ??_C@_04IAGNFIBA@size?$AA@ 00496eb8     Language.obj
 0002:00007ec0       ??_C@_04POCOPAPC@face?$AA@ 00496ec0     Language.obj
 0002:00007ec8       ??_C@_04IOHABJIC@lang?$AA@ 00496ec8     Language.obj
 0002:00007ed0       ??_C@_04EFPADHIC@font?$AA@ 00496ed0     Language.obj
 0002:00007ed8       ??_C@_07CPCPJPKL@version?$AA@ 00496ed8     Language.obj
 0002:00007ee0       ??_C@_06CLEJICHF@langid?$AA@ 00496ee0     Language.obj
 0002:00007ee8       ??_C@_08JGCCIMAA@language?$AA@ 00496ee8     Language.obj
 0002:00007ef8       ??_C@_1EAI@KOJNONI@?$AAT?$AAh?$AAe?$AA?5?$AAi?$AAn?$AAs?$AAt?$AAa?$AAl?$AAl?$AAe?$AAd?$AA?5?$AAl?$AAa?$AAn?$AAg?$AAu?$AAa?$AAg?$AAe?$AA?5?$AAp?$AAa?$AAc?$AAk?$AA?5?$AAi?$AAs?$AA?5?$AAi@ 00496ef8     Language.obj
 0002:00008300       ??_C@_05KOLFGEDA@DEBUG?$AA@ 00497300     Language.obj
 0002:00008308       ??_C@_0N@LEFFHNKM@prog?9version?$AA@ 00497308     Language.obj
 0002:00008318       ??_C@_0N@MFNNBINO@localization?$AA@ 00497318     Language.obj
 0002:00008328       ??_C@_06ICGJLFIM@string?$AA@ 00497328     Language.obj
 0002:00008330       ??_C@_07MMBOFDEG@control?$AA@ 00497330     Language.obj
 0002:00008338       ??_C@_0M@DOLNAGBN@translators?$AA@ 00497338     Language.obj
 0002:00008344       ??_C@_15KHFHDPFH@?$AA?9?$AA?9?$AA?$AA@ 00497344     Language.obj
 0002:0000834c       ??_C@_0BC@KEBBFOHL@LANG_PACK_VERSION?$AA@ 0049734c     Language.obj
 0002:00008360       ??_C@_1BA@CLLEDPIF@?$AAE?$AAn?$AAg?$AAl?$AAi?$AAs?$AAh?$AA?$AA@ 00497360     Language.obj
 0002:00008370       ??_C@_04MEMAJGDJ@name?$AA@ 00497370     Language.obj
 0002:00008378       ??_C@_0N@CHAAEAGP@IDD_LANGUAGE?$AA@ 00497378     Language.obj
 0002:00008388       ??_C@_0O@GFLMAIPO@localizations?$AA@ 00497388     Language.obj
 0002:00008398       ??_C@_0BM@OECEHKD@?$CGlangpackversion?$DN?$CFs?$CGlang?$DN?$CFs?$AA@ 00497398     Language.obj
 0002:000083b4       ??_C@_0BI@FPFPGNBO@PASSWORD_LENGTH_WARNING?$AA@ 004973b4     Password.obj
 0002:000083cc       ??_C@_04EFPNNCJL@DAYS?$AA@ 004973cc     Progress.obj
 0002:000083d4       ??_C@_05HFOIBCBM@HOURS?$AA@ 004973d4     Progress.obj
 0002:000083dc       ??_C@_07JPNPDFOO@MINUTES?$AA@ 004973dc     Progress.obj
 0002:000083e4       ??_C@_07JJOGDNLC@SECONDS?$AA@ 004973e4     Progress.obj
 0002:000083f0       __real@40c3880000000000    004973f0     Progress.obj
 0002:000083f8       ??_C@_17GMPJMPF@?$AA?$CF?$AAs?$AA?5?$AA?$AA@ 004973f8     Progress.obj
 0002:00008400       __real@3f50624dd2f1a9fc    00497400     Progress.obj
 0002:00008408       ??_C@_1BE@GLDKIDIH@?$AA?$CF?$AAI?$AA6?$AA4?$AAd?$AA?5?$AA?$CF?$AAs?$AA?5?$AA?$AA@ 00497408     Progress.obj
 0002:0000841c       ??_C@_0BM@HDAHKLF@PROCESSED_PORTION_X_PERCENT?$AA@ 0049741c     Progress.obj
 0002:00008438       __real@4058fffffffeed1f    00497438     Progress.obj
 0002:00008440       __real@3f1a36e2eb1c432d    00497440     Progress.obj
 0002:00008448       ??_C@_0BL@BENPDJPG@ERR_NOT_ENOUGH_RANDOM_DATA?$AA@ 00497448     Random.obj
 0002:00008464       ??_C@_0BE@JBDFGGOO@?2?2?4?2PhysicalDrive?$CFd?$AA@ 00497464     Random.obj
 0002:00008478       ??_C@_1BK@FJCAAMNP@?$AAL?$AAa?$AAn?$AAm?$AAa?$AAn?$AAS?$AAe?$AAr?$AAv?$AAe?$AAr?$AA?$AA@ 00497478     Random.obj
 0002:00008494       ??_C@_1CE@MINGJEKI@?$AAL?$AAa?$AAn?$AAm?$AAa?$AAn?$AAW?$AAo?$AAr?$AAk?$AAs?$AAt?$AAa?$AAt?$AAi?$AAo?$AAn?$AA?$AA@ 00497494     Random.obj
 0002:000084b8       ??_C@_0BB@EODNGDFL@NetApiBufferFree?$AA@ 004974b8     Random.obj
 0002:000084cc       ??_C@_0BB@HGFPEPHK@NetApiBufferSize?$AA@ 004974cc     Random.obj
 0002:000084e0       ??_C@_0BB@NIBHPBJM@NetStatisticsGet?$AA@ 004974e0     Random.obj
 0002:000084f4       ??_C@_0N@HNENINMF@NETAPI32?4DLL?$AA@ 004974f4     Random.obj
 0002:00008504       ??_C@_05LELOMLIF@WinNT?$AA@ 00497504     Random.obj
 0002:0000850c       ??_C@_0M@GGPOPAAP@ProductType?$AA@ 0049750c     Random.obj
 0002:00008518       ??_C@_0DA@NKLICLFP@SYSTEM?2CurrentControlSet?2Control@ 00497518     Random.obj
 0002:00008548       ??_C@_04HDOCAJNK@?$CFs?$CFs?$AA@ 00497548     Registry.obj
 0002:00008550       ??_C@_0CC@HPOBEDNL@Software?2Microsoft?2Windows?2Curre@ 00497550     Registry.obj
 0002:00008574       ??_C@_0N@PGJGCAIL@tVersion?2Run?$AA@ 00497574     Registry.obj
 0002:00008588       ??_7Pkcs11Exception@CipherShed@@6B@ 00497588     SecurityToken.obj
 0002:00008590       ??_7InvalidSecurityTokenKeyfilePath@CipherShed@@6B@ 00497590     SecurityToken.obj
 0002:00008594       ??_C@_0BL@JIBHLIDC@INVALID_TOKEN_KEYFILE_PATH?$AA@ 00497594     SecurityToken.obj
 0002:000085b4       ??_7SecurityTokenKeyfileNotFound@CipherShed@@6B@ 004975b4     SecurityToken.obj
 0002:000085b8       ??_C@_0BI@BBCBGCML@TOKEN_KEYFILE_NOT_FOUND?$AA@ 004975b8     SecurityToken.obj
 0002:000085d4       ??_7SecurityTokenLibraryNotInitialized@CipherShed@@6B@ 004975d4     SecurityToken.obj
 0002:000085dc       ??_7SecurityTokenKeyfileAlreadyExists@CipherShed@@6B@ 004975dc     SecurityToken.obj
 0002:000085e0       ??_C@_0BN@LMLDGKPH@TOKEN_KEYFILE_ALREADY_EXISTS?$AA@ 004975e0     SecurityToken.obj
 0002:00008600       ??_C@_1BC@ELBDEFGA@?$AAt?$AAo?$AAk?$AAe?$AAn?$AA?3?$AA?1?$AA?1?$AA?$AA@ 00497600     SecurityToken.obj
 0002:00008618       ??_7?$ContainerForward@V?$vector@KV?$allocator@K@std@@@std@@@ForEach@CipherShed@@6B@ 00497618     SecurityToken.obj
 0002:00008628       ??_7?$ContainerForward@V?$map@KUPkcs11Session@CipherShed@@U?$less@K@std@@V?$allocator@U?$pair@$$CBKUPkcs11Session@CipherShed@@@std@@@4@@std@@@ForEach@CipherShed@@6B@ 00497628     SecurityToken.obj
 0002:00008634       ??_C@_0CM@LGPNOOEF@CipherShed?3?3SecurityToken?3?3Close@ 00497634     SecurityToken.obj
 0002:00008660       ??_C@_0DC@MLHNLEHK@CipherShed?3?3SecurityToken?3?3GetOb@ 00497660     SecurityToken.obj
 0002:00008694       ??_C@_0CK@JPLECCJP@CipherShed?3?3SecurityToken?3?3GetOb@ 00497694     SecurityToken.obj
 0002:000086c0       ??_C@_1BM@IPMKACB@?$AAt?$AAo?$AAk?$AAe?$AAn?$AA?3?$AA?1?$AA?1?$AAs?$AAl?$AAo?$AAt?$AA?1?$AA?$AA@ 004976c0     SecurityToken.obj
 0002:000086dc       ??_C@_1O@HIAFDIDB@?$AA?1?$AAf?$AAi?$AAl?$AAe?$AA?1?$AA?$AA@ 004976dc     SecurityToken.obj
 0002:000086ec       ??_C@_01IPJKGB@?$CD?$AA@   004976ec     SecurityToken.obj
 0002:000086f0       ??_C@_0BC@GHFGDNNP@C_GetFunctionList?$AA@ 004976f0     SecurityToken.obj
 0002:00008704       ??_C@_02MDDDDAID@0x?$AA@   00497704     SecurityToken.obj
 0002:000089b8       ??_C@_0L@JIDCKNME@CKR_CANCEL?$AA@ 004979b8     SecurityToken.obj
 0002:000089c4       ??_C@_0BA@HHDKGBBP@CKR_HOST_MEMORY?$AA@ 004979c4     SecurityToken.obj
 0002:000089d4       ??_C@_0BE@FOAEJLLC@CKR_SLOT_ID_INVALID?$AA@ 004979d4     SecurityToken.obj
 0002:000089e8       ??_C@_0BC@BPPOLCIH@CKR_GENERAL_ERROR?$AA@ 004979e8     SecurityToken.obj
 0002:000089fc       ??_C@_0BE@DIFKEOGI@CKR_FUNCTION_FAILED?$AA@ 004979fc     SecurityToken.obj
 0002:00008a10       ??_C@_0BC@LNHMJFHC@CKR_ARGUMENTS_BAD?$AA@ 00497a10     SecurityToken.obj
 0002:00008a24       ??_C@_0N@KFPEOGN@CKR_NO_EVENT?$AA@ 00497a24     SecurityToken.obj
 0002:00008a34       ??_C@_0BL@NDINCBKJ@CKR_NEED_TO_CREATE_THREADS?$AA@ 00497a34     SecurityToken.obj
 0002:00008a50       ??_C@_0O@OHMKMDKB@CKR_CANT_LOCK?$AA@ 00497a50     SecurityToken.obj
 0002:00008a60       ??_C@_0BI@IDDIMLAI@CKR_ATTRIBUTE_READ_ONLY?$AA@ 00497a60     SecurityToken.obj
 0002:00008a78       ??_C@_0BI@LPANBEIN@CKR_ATTRIBUTE_SENSITIVE?$AA@ 00497a78     SecurityToken.obj
 0002:00008a90       ??_C@_0BL@CJHMMHEH@CKR_ATTRIBUTE_TYPE_INVALID?$AA@ 00497a90     SecurityToken.obj
 0002:00008aac       ??_C@_0BM@LMONJDMA@CKR_ATTRIBUTE_VALUE_INVALID?$AA@ 00497aac     SecurityToken.obj
 0002:00008ac8       ??_C@_0BB@HONBBNLK@CKR_DATA_INVALID?$AA@ 00497ac8     SecurityToken.obj
 0002:00008adc       ??_C@_0BD@BPCFCEOF@CKR_DATA_LEN_RANGE?$AA@ 00497adc     SecurityToken.obj
 0002:00008af0       ??_C@_0BB@OAEPJIAO@CKR_DEVICE_ERROR?$AA@ 00497af0     SecurityToken.obj
 0002:00008b04       ??_C@_0BC@EDKNPIJF@CKR_DEVICE_MEMORY?$AA@ 00497b04     SecurityToken.obj
 0002:00008b18       ??_C@_0BD@CLPGKOPG@CKR_DEVICE_REMOVED?$AA@ 00497b18     SecurityToken.obj
 0002:00008b2c       ??_C@_0BL@HMMBAKLE@CKR_ENCRYPTED_DATA_INVALID?$AA@ 00497b2c     SecurityToken.obj
 0002:00008b48       ??_C@_0BN@CHFIOLM@CKR_ENCRYPTED_DATA_LEN_RANGE?$AA@ 00497b48     SecurityToken.obj
 0002:00008b68       ??_C@_0BG@GFNGJBLD@CKR_FUNCTION_CANCELED?$AA@ 00497b68     SecurityToken.obj
 0002:00008b80       ??_C@_0BK@CPMALGEH@CKR_FUNCTION_NOT_PARALLEL?$AA@ 00497b80     SecurityToken.obj
 0002:00008b9c       ??_C@_0BL@FLCFPGMF@CKR_FUNCTION_NOT_SUPPORTED?$AA@ 00497b9c     SecurityToken.obj
 0002:00008bb8       ??_C@_0BH@JBCBCIHC@CKR_KEY_HANDLE_INVALID?$AA@ 00497bb8     SecurityToken.obj
 0002:00008bd0       ??_C@_0BD@DCCEPOIK@CKR_KEY_SIZE_RANGE?$AA@ 00497bd0     SecurityToken.obj
 0002:00008be4       ??_C@_0BK@FBLHAPGA@CKR_KEY_TYPE_INCONSISTENT?$AA@ 00497be4     SecurityToken.obj
 0002:00008c00       ??_C@_0BD@CADJPHKC@CKR_KEY_NOT_NEEDED?$AA@ 00497c00     SecurityToken.obj
 0002:00008c14       ??_C@_0BA@PBNACHHM@CKR_KEY_CHANGED?$AA@ 00497c14     SecurityToken.obj
 0002:00008c24       ??_C@_0P@CIJPGKMN@CKR_KEY_NEEDED?$AA@ 00497c24     SecurityToken.obj
 0002:00008c34       ??_C@_0BF@GCBGIGLD@CKR_KEY_INDIGESTIBLE?$AA@ 00497c34     SecurityToken.obj
 0002:00008c4c       ??_C@_0BP@PCNBFOEJ@CKR_KEY_FUNCTION_NOT_PERMITTED?$AA@ 00497c4c     SecurityToken.obj
 0002:00008c6c       ??_C@_0BG@IEKNAGOL@CKR_KEY_NOT_WRAPPABLE?$AA@ 00497c6c     SecurityToken.obj
 0002:00008c84       ??_C@_0BG@OIKHBDLJ@CKR_KEY_UNEXTRACTABLE?$AA@ 00497c84     SecurityToken.obj
 0002:00008c9c       ??_C@_0BG@FIBINAPL@CKR_MECHANISM_INVALID?$AA@ 00497c9c     SecurityToken.obj
 0002:00008cb4       ??_C@_0BM@NHMBLBHF@CKR_MECHANISM_PARAM_INVALID?$AA@ 00497cb4     SecurityToken.obj
 0002:00008cd0       ??_C@_0BK@NIGFIGL@CKR_OBJECT_HANDLE_INVALID?$AA@ 00497cd0     SecurityToken.obj
 0002:00008cec       ??_C@_0BF@LACBDJFM@CKR_OPERATION_ACTIVE?$AA@ 00497cec     SecurityToken.obj
 0002:00008d04       ??_C@_0BO@NIGNIKB@CKR_OPERATION_NOT_INITIALIZED?$AA@ 00497d04     SecurityToken.obj
 0002:00008d24       ??_C@_0BC@PIDGDJNE@CKR_PIN_INCORRECT?$AA@ 00497d24     SecurityToken.obj
 0002:00008d38       ??_C@_0BA@PDLKJELN@CKR_PIN_INVALID?$AA@ 00497d38     SecurityToken.obj
 0002:00008d48       ??_C@_0BC@MEAAAEMN@CKR_PIN_LEN_RANGE?$AA@ 00497d48     SecurityToken.obj
 0002:00008d5c       ??_C@_0BA@PPOOFJBC@CKR_PIN_EXPIRED?$AA@ 00497d5c     SecurityToken.obj
 0002:00008d6c       ??_C@_0P@JGPCDBMN@CKR_PIN_LOCKED?$AA@ 00497d6c     SecurityToken.obj
 0002:00008d7c       ??_C@_0BD@EFPEBFCO@CKR_SESSION_CLOSED?$AA@ 00497d7c     SecurityToken.obj
 0002:00008d90       ??_C@_0BC@GFNLAALM@CKR_SESSION_COUNT?$AA@ 00497d90     SecurityToken.obj
 0002:00008da4       ??_C@_0BL@JFEIAJEO@CKR_SESSION_HANDLE_INVALID?$AA@ 00497da4     SecurityToken.obj
 0002:00008dc0       ??_C@_0CD@CNJKDODF@CKR_SESSION_PARALLEL_NOT_SUPPORT@ 00497dc0     SecurityToken.obj
 0002:00008de4       ??_C@_0BG@NACFPKBK@CKR_SESSION_READ_ONLY?$AA@ 00497de4     SecurityToken.obj
 0002:00008dfc       ??_C@_0BD@CJEENIOI@CKR_SESSION_EXISTS?$AA@ 00497dfc     SecurityToken.obj
 0002:00008e10       ??_C@_0BN@FEECMDLD@CKR_SESSION_READ_ONLY_EXISTS?$AA@ 00497e10     SecurityToken.obj
 0002:00008e30       ??_C@_0CB@MOHOJDLI@CKR_SESSION_READ_WRITE_SO_EXISTS@ 00497e30     SecurityToken.obj
 0002:00008e54       ??_C@_0BG@FJFGJBPL@CKR_SIGNATURE_INVALID?$AA@ 00497e54     SecurityToken.obj
 0002:00008e6c       ??_C@_0BI@BCEJLCCN@CKR_SIGNATURE_LEN_RANGE?$AA@ 00497e6c     SecurityToken.obj
 0002:00008e84       ??_C@_0BI@OKLBFCJN@CKR_TEMPLATE_INCOMPLETE?$AA@ 00497e84     SecurityToken.obj
 0002:00008e9c       ??_C@_0BK@NFOMODKD@CKR_TEMPLATE_INCONSISTENT?$AA@ 00497e9c     SecurityToken.obj
 0002:00008eb8       ??_C@_0BG@GJCOFLCP@CKR_TOKEN_NOT_PRESENT?$AA@ 00497eb8     SecurityToken.obj
 0002:00008ed0       ??_C@_0BJ@DKIDJOKM@CKR_TOKEN_NOT_RECOGNIZED?$AA@ 00497ed0     SecurityToken.obj
 0002:00008eec       ??_C@_0BK@LICPHIEK@CKR_TOKEN_WRITE_PROTECTED?$AA@ 00497eec     SecurityToken.obj
 0002:00008f08       ??_C@_0CC@BHIKKBJK@CKR_UNWRAPPING_KEY_HANDLE_INVALI@ 00497f08     SecurityToken.obj
 0002:00008f2c       ??_C@_0BO@EDNGDMCF@CKR_UNWRAPPING_KEY_SIZE_RANGE?$AA@ 00497f2c     SecurityToken.obj
 0002:00008f4c       ??_C@_0CF@FNADNHJM@CKR_UNWRAPPING_KEY_TYPE_INCONSIS@ 00497f4c     SecurityToken.obj
 0002:00008f74       ??_C@_0BL@HHCLDMIB@CKR_USER_ALREADY_LOGGED_IN?$AA@ 00497f74     SecurityToken.obj
 0002:00008f90       ??_C@_0BH@PHIJDFPC@CKR_USER_NOT_LOGGED_IN?$AA@ 00497f90     SecurityToken.obj
 0002:00008fa8       ??_C@_0BN@CJFMMEDO@CKR_USER_PIN_NOT_INITIALIZED?$AA@ 00497fa8     SecurityToken.obj
 0002:00008fc8       ??_C@_0BG@ECPOFDO@CKR_USER_TYPE_INVALID?$AA@ 00497fc8     SecurityToken.obj
 0002:00008fe0       ??_C@_0CD@GJCCPLNL@CKR_USER_ANOTHER_ALREADY_LOGGED_@ 00497fe0     SecurityToken.obj
 0002:00009004       ??_C@_0BI@MGNIFGMM@CKR_USER_TOO_MANY_TYPES?$AA@ 00498004     SecurityToken.obj
 0002:0000901c       ??_C@_0BI@CPLHFH@CKR_WRAPPED_KEY_INVALID?$AA@ 0049801c     SecurityToken.obj
 0002:00009034       ??_C@_0BK@MCPGJNEM@CKR_WRAPPED_KEY_LEN_RANGE?$AA@ 00498034     SecurityToken.obj
 0002:00009050       ??_C@_0CA@DLBMIHED@CKR_WRAPPING_KEY_HANDLE_INVALID?$AA@ 00498050     SecurityToken.obj
 0002:00009070       ??_C@_0BM@OCCHBGKK@CKR_WRAPPING_KEY_SIZE_RANGE?$AA@ 00498070     SecurityToken.obj
 0002:0000908c       ??_C@_0CD@FOJGMFK@CKR_WRAPPING_KEY_TYPE_INCONSISTE@ 0049808c     SecurityToken.obj
 0002:000090b0       ??_C@_0BO@GILEANPO@CKR_RANDOM_SEED_NOT_SUPPORTED?$AA@ 004980b0     SecurityToken.obj
 0002:000090d0       ??_C@_0BC@JEFNGGNK@CKR_RANDOM_NO_RNG?$AA@ 004980d0     SecurityToken.obj
 0002:000090e4       ??_C@_0BK@MMHDGADE@CKR_DOMAIN_PARAMS_INVALID?$AA@ 004980e4     SecurityToken.obj
 0002:00009100       ??_C@_0BF@DHOMKFCE@CKR_BUFFER_TOO_SMALL?$AA@ 00498100     SecurityToken.obj
 0002:00009118       ??_C@_0BI@JPLEOJGD@CKR_SAVED_STATE_INVALID?$AA@ 00498118     SecurityToken.obj
 0002:00009130       ??_C@_0BK@NJDKONLD@CKR_INFORMATION_SENSITIVE?$AA@ 00498130     SecurityToken.obj
 0002:0000914c       ??_C@_0BF@EAMMCHLP@CKR_STATE_UNSAVEABLE?$AA@ 0049814c     SecurityToken.obj
 0002:00009164       ??_C@_0BN@ODFNBLKM@CKR_CRYPTOKI_NOT_INITIALIZED?$AA@ 00498164     SecurityToken.obj
 0002:00009184       ??_C@_0CB@JBBGANIO@CKR_CRYPTOKI_ALREADY_INITIALIZED@ 00498184     SecurityToken.obj
 0002:000091a8       ??_C@_0O@GIMOJHGA@CKR_MUTEX_BAD?$AA@ 004981a8     SecurityToken.obj
 0002:000091b8       ??_C@_0BF@NLNAHNBM@CKR_MUTEX_NOT_LOCKED?$AA@ 004981b8     SecurityToken.obj
 0002:000091d0       ??_C@_0BB@NJDNOJFN@CKR_NEW_PIN_MODE?$AA@ 004981d0     SecurityToken.obj
 0002:000091e4       ??_C@_0N@IBMCNMKC@CKR_NEXT_OTP?$AA@ 004981e4     SecurityToken.obj
 0002:000091f4       ??_C@_0BG@GCNMIEKF@CKR_FUNCTION_REJECTED?$AA@ 004981f4     SecurityToken.obj
 0002:0000920c       ??_C@_1BK@FLCMNAGD@?$AA?6?$AA?6?$AAE?$AAr?$AAr?$AAo?$AAr?$AA?5?$AAc?$AAo?$AAd?$AAe?$AA?$AA@ 0049820c     SecurityToken.obj
 0002:00009228       ??_C@_1BG@PNNJJJBG@?$AA?$CF?$AAs?$AA?3?$AA?6?$AA?6?$AA?$CF?$AAh?$AAs?$AA?$CF?$AAs?$AA?$AA@ 00498228     SecurityToken.obj
 0002:00009240       ??_C@_0BF@NKGFDJIN@SECURITY_TOKEN_ERROR?$AA@ 00498240     SecurityToken.obj
 0002:00009258       ??_C@_04DIIAEOAC@CKR_?$AA@ 00498258     SecurityToken.obj
 0002:00009260       ??_C@_15ELOONFKJ@?$AA?3?$AA?5?$AA?$AA@ 00498260     SecurityToken.obj
 0002:00009268       ??_C@_1CC@OMDFECBP@?$AAt?$AAo?$AAk?$AAe?$AAn?$AA?3?$AA?1?$AA?1?$AAs?$AAl?$AAo?$AAt?$AA?1?$AA?$CF?$AAl?$AAu?$AA?$AA@ 00498268     SecurityToken.obj
 0002:0000928c       ??_C@_0CN@JHEJGEDF@CipherShed?3?3SecurityToken?3?3Creat@ 0049828c     SecurityToken.obj
 0002:000092c0       ??_C@_0EB@PHFBDMAI@?$AD?$JB?R?$IA?$AA?$LGb?$LL?$LI?f?$CD?$DO?hl?r?$LC?$IEtLs?$ILX?$AA?$LK?$CI?$BC?mRo?c?$BF?3@ 004982c0     Tests.obj
 0002:00009304       ??_C@_0DJ@NGDOEGCI@abcdbcdecdefdefgefghfghighijhijk@ 00498304     Tests.obj
 0002:00009340       ??_C@_0EB@DIMDKBBC@?$AA?$BB?$CC3DUfw?$II?$JJ?$KK?$LL?L?$NN?n?$PP?$AB?$CDEg?$IJ?$KL?M?o?$AA?$BB?$CC3DUfw@ 00498340     Tests.obj
 0002:00009384       ??_C@_0BF@PFENIDMG@?$IF?qdp?$DOa?$KG11?$LO?$HOE?$JF?$IO?$AH?$JE?$BC9?$AE?y?$AA@ 00498384     Tests.obj
 0002:0000939c       ??_C@_0BF@HFFLEHPC@?x6b?L?$IN3?$JM?$CC?$HO?$GA?$AP?MclW?RW?$BL?$BM4?$AA@ 0049839c     Tests.obj
 0002:000093b8       ??_C@_0FB@JDIKKJCI@12345678901234567890123456789012@ 004983b8     Tests.obj
 0002:0000940c       ??_C@_0P@ONGHGJEC@message?5digest?$AA@ 0049840c     Tests.obj
 0002:0000941c       ??_C@_0BF@JFBGCNOI@?$AB?$CDEg?$IJ?$KL?M?o?$PO?$NM?$LK?$JIvT2?$BA?$AA?$BB?$CC3?$AA@ 0049841c     Tests.obj
 0002:00009434       ??_C@_0BF@EKEAJOKM@?$AA?$BB?$CC3DUfw?$II?$JJ?$KK?$LL?L?$NN?n?$PP?$AB?$CDEg?$AA@ 00498434     Tests.obj
 0002:0000944c       ??_C@_0BF@OJOCDNBL@?$BC?$FNsB?$LJ?$KM?$BB?M?$JB?$KD?$JK?t?$IK?$KB?$HLOc?qu?S?$AA@ 0049844c     Tests.obj
 0002:00009464       ??_C@_0BF@NPPNDLAN@?o?$PM?$NPj?e?k?1?$KC?Rt?$BG?U?q?$IE?$NP?$JM?$CF?$JK?$HMy?$AA@ 00498464     Tests.obj
 0002:0000947c       ??_C@_0BF@BDDOKADE@?$LG?$BH1?$IGU?$AFrd?b?$IL?$MA?$LG?$PL7?$IM?$IO?qF?$LO?$AA?$AA@ 0049847c     Tests.obj
 0002:00009494       ??_C@_0BF@KOBLBFLL@?$LM?t?$BO?$KL?$IL?$LC?X?$AC?s?P?2?$KP?$HM?$LA?$JC?l?x?Q?$KD?$KK?$AA@ 00498494     Tests.obj
 0002:000094ac       ??_C@_09OCHOFPMP@Sample?5?$CD3?$AA@ 004984ac     Tests.obj
 0002:000094b8       ??_C@_0GF@PEHFLIKL@PQRSTUVWXYZ?$FL?2?$FN?$FO_?$GAabcdefghijklmno@ 004984b8     Tests.obj
 0002:00009520       ??_C@_0EB@IAGJFOJI@?c?$HLjw?$FN?H?$HN?$LK?$KE?$NP?$KJ?yn?$FO?$DP?$PN?$NO?$LNq?x?$IGr?$IJ?$IG?$FN?u?$KD?9?5?M?ID@ 00498520     Tests.obj
 0002:00009568       ??_C@_0EB@HIMJOCNA@?$IA?$LCBc?G?A?$KD?k?$LH?$BE?$JD?A?$NN?$HL?h?$LE?$JLF?Q?t?$BLJ?n?A?$BC?$BL?$AB7?$ID?x?sR@ 00498568     Tests.obj
 0002:000095b0       ??_C@_0EB@LPCMCIMB@?$LA?$LKFV7E?$IMi?$JA?e?$KI?E?v?$BNJ?w?ev?Y?$HP?yK?$IH?9?go?$IAP6?$BO?c?$NL@ 004985b0     Tests.obj
 0002:000095f8       ??_C@_0EB@KHIOOKPP@?zs?$LA?$AI?$JNV?$KC?$IE?o?$LA?pul?$IJ?$AL?i?$LB?$LF?$NL?$NN?$IO?h?$BK6U?x?$DO3?$LC?8?$JN9@ 004985f8     Tests.obj
 0002:00009640       ??_C@_0EB@OCCGLAFJ@?$BGKz?$HL?$PM?x?$BJ?b?c?$JF?$PL?g?$DLV?$OA?$KD?$IH?$LNd?$CC?4?$ID?$BP?V?$BA?8?$AM?W?j?$CF?$AFT@ 00498640     Tests.obj
 0002:00009688       ??_C@_0EB@NPCMCGAL@?$IH?$KK?$HM?$NO?$KF?oa?$JNO?p?$LE$?$BK?$BNl?$LA?$CDy?t?b?NN?Bxz?P?$LD?$AFE?a?$HM?$NO@ 00498688     Tests.obj
 0002:000096d0       ??_C@_0JJ@PIHOAKB@This?5is?5a?5test?5using?5a?5larger?5th@ 004986d0     Tests.obj
 0002:0000976c       ??_C@_0DH@HELOGHDO@Test?5Using?5Larger?5Than?5Block?9Siz@ 0049876c     Tests.obj
 0002:000097a4       ??_C@_0DD@JCGDPDJ@?M?M?M?M?M?M?M?M?M?M?M?M?M?M?M?M?M?M?M?M?M?M?M?M?M?M?M?M?M?M?M?M@ 004987a4     Tests.obj
 0002:000097d8       ??_C@_0DD@ODBBAMCC@?$NN?$NN?$NN?$NN?$NN?$NN?$NN?$NN?$NN?$NN?$NN?$NN?$NN?$NN?$NN?$NN?$NN?$NN?$NN?$NN?$NN?$NN?$NN?$NN?$NN?$NN?$NN?$NN?$NN?$NN?$NN?$NN@ 004987d8     Tests.obj
 0002:0000980c       ??_C@_0BN@GJJCPKAL@what?5do?5ya?5want?5for?5nothing?$DP?$AA@ 0049880c     Tests.obj
 0002:0000982c       ??_C@_08BPPJKMC@Hi?5There?$AA@ 0049882c     Tests.obj
 0002:00009838       ??_C@_0IE@FDPIKKAI@?$KK?$KK?$KK?$KK?$KK?$KK?$KK?$KK?$KK?$KK?$KK?$KK?$KK?$KK?$KK?$KK?$KK?$KK?$KK?$KK?$KK?$KK?$KK?$KK?$KK?$KK?$KK?$KK?$KK?$KK?$KK?$KK@ 00498838     Tests.obj
 0002:000098bc       ??_C@_0BK@LNLLCJNI@?$AB?$AC?$AD?$AE?$AF?$AG?$AH?$AI?7?6?$AL?$AM?$AN?$AO?$AP?$BA?$BB?$BC?$BD?$BE?$BF?$BG?$BH?$BI?$BJ?$AA@ 004988bc     Tests.obj
 0002:000098d8       ??_C@_0BF@GHKGHDBL@?$KK?$KK?$KK?$KK?$KK?$KK?$KK?$KK?$KK?$KK?$KK?$KK?$KK?$KK?$KK?$KK?$KK?$KK?$KK?$KK?$AA@ 004988d8     Tests.obj
 0002:000098f0       ??_C@_04HDLGGHEL@Jefe?$AA@ 004988f0     Tests.obj
 0002:000098f8       ??_C@_0BF@EOMNKBPJ@?$AL?$AL?$AL?$AL?$AL?$AL?$AL?$AL?$AL?$AL?$AL?$AL?$AL?$AL?$AL?$AL?$AL?$AL?$AL?$AL?$AA@ 004988f8     Tests.obj
 0002:00009910       ??_C@_0BA@DNGGBODD@Twofish?9Serpent?$AA@ 00498910     Tests.obj
 0002:00009920       ??_C@_0BE@HADLPGPH@Serpent?9Twofish?9AES?$AA@ 00498920     Tests.obj
 0002:00009934       ??_C@_0M@MCFMFOIH@Serpent?9AES?$AA@ 00498934     Tests.obj
 0002:00009940       ??_C@_0BE@LPKAFENL@AES?9Twofish?9Serpent?$AA@ 00498940     Tests.obj
 0002:00009954       ??_C@_0M@DKAIMMJ@AES?9Twofish?$AA@ 00498954     Tests.obj
 0002:00009960       ??_C@_0BF@GDBAFGNG@AES?9Blowfish?9Serpent?$AA@ 00498960     Tests.obj
 0002:00009978       ??_C@_0N@NEJJJADE@AES?9Blowfish?$AA@ 00498978     Tests.obj
 0002:00009988       ??_C@_0GB@BHABHNEI@P?$HM6o?n?$BA?4?$JK?b?$IK?U?$ICr?$HN?8?$AP?hM?$HPhz?O?$LF?gCg?$KK?$JI?$JDR?$CL?7@ 00498988     Tests.obj
 0002:000099ec       ??_C@_0DB@KJBGHKFA@z?$DN?$HM?$AD?g?$CGk?x?$DNx?$PL?$CJ?Rd?$BPV?j?p?e?u?L?D?31?$KI?$IEp?$LP?$LNo?$IOx@ 004989ec     Tests.obj
 0002:00009a20       ??_C@_0DB@MAMEFANK@?2u?N?p?$BK?$JG?$AN?wL?$LG?$LE?$JL?$JO8?f?$LF?$DL?$BB?$IA?c?1?w?$OA?$NN?$KK?J?$IP?$IB?8?v?$JPO@ 00498a20     Tests.obj
 0002:00009a58       ??_C@_0JB@EEHAMOLN@?$BDd?$KO?x?$AN?uWl0?UqL?$KHu?$DP?$PN?$AA?e?$CF?$IL9?GD?$HP?N?$CD?$DN?$AIu?$OA?1H@ 00498a58     Tests.obj
 0002:00009aec       ??_C@_08NLHBPEGP@password?$AA@ 00498aec     Tests.obj
 0002:00009af8       ??_C@_04NDGDACAK@?$BC4Vx?$AA@ 00498af8     Tests.obj
 0002:00009b00       ??_C@_04GFKCAHFK@?5?$DN?5?$CC?$AA@ 00498b00     Xml.obj
 0002:00009b08       ??_C@_03PFIILPDO@?5?$DN?$CC?$AA@ 00498b08     Xml.obj
 0002:00009b0c       ??_C@_03EDAFAAFP@?$DN?5?$CC?$AA@ 00498b0c     Xml.obj
 0002:00009b10       ??_C@_02ILLPBGAO@?$DN?$CC?$AA@ 00498b10     Xml.obj
 0002:00009b14       ??_C@_05JKJFEODM@?$CGamp?$DL?$AA@ 00498b14     Xml.obj
 0002:00009b1c       ??_C@_04LOOHDCEI@?$CGgt?$DL?$AA@ 00498b1c     Xml.obj
 0002:00009b24       ??_C@_04GJOGLFEJ@?$CGlt?$DL?$AA@ 00498b24     Xml.obj
 0002:00009b2c       ??_C@_0DD@NFGIKLFN@?$DM?$DPxml?5version?$DN?$CC1?40?$CC?5encoding?$DN?$CCut@ 00498b2c     Xml.obj
 0002:00009b60       ??_C@_0O@KNDIKFEF@?6?$DM?1TrueCrypt?$DO?$AA@ 00498b60     Xml.obj
 0002:0000d580       _k256                      0049c580     crypto:Sha2.obj
 0002:0000d680       _i224                      0049c680     crypto:Sha2.obj
 0002:0000d6a0       _i256                      0049c6a0     crypto:Sha2.obj
 0002:0000d6c0       _k512                      0049c6c0     crypto:Sha2.obj
 0002:0000d940       _i384                      0049c940     crypto:Sha2.obj
 0002:0000dbc0       _i512                      0049cbc0     crypto:Sha2.obj
 0002:00011ea0       _t_rc                      004a0ea0     crypto:Aestab.obj
 0002:00011ee0       _t_fn                      004a0ee0     crypto:Aestab.obj
 0002:00012ee0       _t_fl                      004a1ee0     crypto:Aestab.obj
 0002:00013ee0       _t_in                      004a2ee0     crypto:Aestab.obj
 0002:00014ee0       _t_il                      004a3ee0     crypto:Aestab.obj
 0002:00015ee0       _t_im                      004a4ee0     crypto:Aestab.obj
 0002:00016ee0       _IID_IUnknown              004a5ee0     uuid:unknwn_i.obj
 0002:00016ef0       _IID_IClassFactory         004a5ef0     uuid:unknwn_i.obj
 0002:00016f00       _GUID_DEVCLASS_DISKDRIVE   004a5f00     uuid:cguid_i.obj
 0002:00016f10       _GUID_DEVCLASS_FLOPPYDISK  004a5f10     uuid:cguid_i.obj
 0002:00016f20       _GUID_DEVCLASS_VOLUME      004a5f20     uuid:cguid_i.obj
 0002:00016f30       ??_C@_0BA@JFNIOLAK@string?5too?5long?$AA@ 004a5f30     libcpmt:string.obj
 0002:00016f40       ??_C@_0BI@CFPLBAOH@invalid?5string?5position?$AA@ 004a5f40     libcpmt:string.obj
 0002:00016f5c       ??_7_Locimp@locale@std@@6B@ 004a5f5c     libcpmt:locale0.obj
 0002:00016f60       ??_C@_01NBENCBCI@?$CK?$AA@ 004a5f60     libcpmt:locale0.obj
 0002:00016f64       ??_C@_01GFHCPBMG@C?$AA@    004a5f64     libcpmt:locale0.obj
 0002:00016f68       ?_BADOFF@std@@3JB          004a5f68     libcpmt:ios.obj
 0002:00016f70       ??_7type_info@@6B@         004a5f70     LIBCMT:typinfo.obj
 0002:00016f98       ??_7exception@std@@6B@     004a5f98     LIBCMT:stdexcpt.obj
 0002:00016fa0       ??_C@_0BC@EOODALEL@Unknown?5exception?$AA@ 004a5fa0     LIBCMT:stdexcpt.obj
 0002:00016fb8       ??_7bad_cast@std@@6B@      004a5fb8     LIBCMT:stdexcpt.obj
 0002:00016fc0       ??_C@_0P@MIGLKIOC@CorExitProcess?$AA@ 004a5fc0     LIBCMT:crt0dat.obj
 0002:00016fd0       ??_C@_1BI@BGOHAHKC@?$AAm?$AAs?$AAc?$AAo?$AAr?$AAe?$AAe?$AA?4?$AAd?$AAl?$AAl?$AA?$AA@ 004a5fd0     LIBCMT:crt0dat.obj
 0002:00016fe8       __FPinit                   004a5fe8     LIBCMT:_fpinit_.obj
 0002:00016fec       __FPmtinit                 004a5fec     LIBCMT:_fpinit_.obj
 0002:00016ff0       __FPmtterm                 004a5ff0     LIBCMT:_fpinit_.obj
 0002:000170a0       ??_C@_03LLEJOLGL@?4?1?2?$AA@ 004a60a0     LIBCMT:stati32.obj
 0002:000170a4       ??_C@_02EAOCEIGI@?$DP?$CK?$AA@ 004a60a4     LIBCMT:stati32.obj
 0002:000170a8       ??_C@_13NOLLCAOD@?$AA?$AA?$AA?$AA@ 004a60a8     LIBCMT:a_map.obj
 0002:000170b0       ___newctype                004a60b0     LIBCMT:ctype.obj
 0002:000173b0       __wctype                   004a63b0     LIBCMT:ctype.obj
 0002:000175b8       ___newclmap                004a65b8     LIBCMT:ctype.obj
 0002:00017738       ___newcumap                004a6738     LIBCMT:ctype.obj
 0002:000178b8       ??_C@_07LCBHPJJN@LC_TIME?$AA@ 004a68b8     LIBCMT:setlocal.obj
 0002:000178c0       ??_C@_0L@DLHIECNL@LC_NUMERIC?$AA@ 004a68c0     LIBCMT:setlocal.obj
 0002:000178cc       ??_C@_0M@MIENIKLA@LC_MONETARY?$AA@ 004a68cc     LIBCMT:setlocal.obj
 0002:000178d8       ??_C@_08EADHIDAD@LC_CTYPE?$AA@ 004a68d8     LIBCMT:setlocal.obj
 0002:000178e4       ??_C@_0L@KFJHEKIK@LC_COLLATE?$AA@ 004a68e4     LIBCMT:setlocal.obj
 0002:000178f0       ??_C@_06NEFDFEKB@LC_ALL?$AA@ 004a68f0     LIBCMT:setlocal.obj
 0002:000178f8       ___lc_category             004a68f8     LIBCMT:setlocal.obj
 0002:000179c0       ??_C@_03EGDHDPFD@_?4?0?$AA@ 004a69c0     LIBCMT:setlocal.obj
 0002:000179c4       ??_C@_01IDAFKMJL@_?$AA@    004a69c4     LIBCMT:setlocal.obj
 0002:000179c8       ??_C@_01ICJEACDI@?$DL?$AA@ 004a69c8     LIBCMT:setlocal.obj
 0002:000179cc       ??_C@_02BALPLPBG@?$DN?$DL?$AA@ 004a69cc     LIBCMT:setlocal.obj
 0002:000179d0       __pDestructExceptionObject 004a69d0     LIBCMT:frame.obj
 0002:000179d8       ??_7bad_exception@std@@6B@ 004a69d8     LIBCMT:frame.obj
 0002:000179e0       ??_C@_0O@DPKOEFFH@bad?5exception?$AA@ 004a69e0     LIBCMT:frame.obj
 0002:000179f0       ??_C@_0P@GGKDKEEG@runtime?5error?5?$AA@ 004a69f0     LIBCMT:crt0msg.obj
 0002:00017a00       ??_C@_02PCIJFNDE@?$AN?6?$AA@ 004a6a00     LIBCMT:crt0msg.obj
 0002:00017a04       ??_C@_0O@MJNIPGOH@TLOSS?5error?$AN?6?$AA@ 004a6a04     LIBCMT:crt0msg.obj
 0002:00017a14       ??_C@_0N@BONNPDHF@SING?5error?$AN?6?$AA@ 004a6a14     LIBCMT:crt0msg.obj
 0002:00017a24       ??_C@_0P@MBDAJNE@DOMAIN?5error?$AN?6?$AA@ 004a6a24     LIBCMT:crt0msg.obj
 0002:00017a38       ??_C@_0JL@DFDOOABL@R6034?$AN?6An?5application?5has?5made?5a@ 004a6a38     LIBCMT:crt0msg.obj
 0002:00017ad8       ??_C@_0PH@EPAFIJ@R6033?$AN?6?9?5Attempt?5to?5use?5MSIL?5cod@ 004a6ad8     LIBCMT:crt0msg.obj
 0002:00017bd0       ??_C@_0DD@BKEEABMM@R6032?$AN?6?9?5not?5enough?5space?5for?5lo@ 004a6bd0     LIBCMT:crt0msg.obj
 0002:00017c08       ??_C@_0GD@OFKILIED@R6031?$AN?6?9?5Attempt?5to?5initialize?5t@ 004a6c08     LIBCMT:crt0msg.obj
 0002:00017c6c       ??_C@_0BP@LPMHJOKI@R6030?$AN?6?9?5CRT?5not?5initialized?$AN?6?$AA@ 004a6c6c     LIBCMT:crt0msg.obj
 0002:00017c8c       ??_C@_0CF@KJDAIALP@R6028?$AN?6?9?5unable?5to?5initialize?5he@ 004a6c8c     LIBCMT:crt0msg.obj
 0002:00017cb4       ??_C@_0DF@GAKBPDFP@R6027?$AN?6?9?5not?5enough?5space?5for?5lo@ 004a6cb4     LIBCMT:crt0msg.obj
 0002:00017cec       ??_C@_0DF@IBLNNAIG@R6026?$AN?6?9?5not?5enough?5space?5for?5st@ 004a6cec     LIBCMT:crt0msg.obj
 0002:00017d24       ??_C@_0CG@IOHKGFNJ@R6025?$AN?6?9?5pure?5virtual?5function?5c@ 004a6d24     LIBCMT:crt0msg.obj
 0002:00017d4c       ??_C@_0DF@JIJJFJDC@R6024?$AN?6?9?5not?5enough?5space?5for?5_o@ 004a6d4c     LIBCMT:crt0msg.obj
 0002:00017d84       ??_C@_0CJ@EGEJHFME@R6019?$AN?6?9?5unable?5to?5open?5console?5@ 004a6d84     LIBCMT:crt0msg.obj
 0002:00017db0       ??_C@_0CB@GNHNIELH@R6018?$AN?6?9?5unexpected?5heap?5error?$AN?6@ 004a6db0     LIBCMT:crt0msg.obj
 0002:00017dd4       ??_C@_0CN@FOLDKNG@R6017?$AN?6?9?5unexpected?5multithread?5@ 004a6dd4     LIBCMT:crt0msg.obj
 0002:00017e04       ??_C@_0CM@FAHFJNHO@R6016?$AN?6?9?5not?5enough?5space?5for?5th@ 004a6e04     LIBCMT:crt0msg.obj
 0002:00017e30       ??_C@_0JG@LBKMGKLD@?$AN?6This?5application?5has?5requested@ 004a6e30     LIBCMT:crt0msg.obj
 0002:00017ec8       ??_C@_0CM@FLCNIPKK@R6009?$AN?6?9?5not?5enough?5space?5for?5en@ 004a6ec8     LIBCMT:crt0msg.obj
 0002:00017ef4       ??_C@_0CK@KMMJOAPP@R6008?$AN?6?9?5not?5enough?5space?5for?5ar@ 004a6ef4     LIBCMT:crt0msg.obj
 0002:00017f20       ??_C@_0CN@LEKKICBM@R6002?$AN?6?9?5floating?5point?5support?5@ 004a6f20     LIBCMT:crt0msg.obj
 0002:00017f50       ??_C@_0CF@GOGNBNAK@Microsoft?5Visual?5C?$CL?$CL?5Runtime?5Lib@ 004a6f50     LIBCMT:crt0msg.obj
 0002:00017f78       ??_C@_02PHMGELLB@?6?6?$AA@ 004a6f78     LIBCMT:crt0msg.obj
 0002:00017f7c       ??_C@_03KHICJKCI@?4?4?4?$AA@ 004a6f7c     LIBCMT:crt0msg.obj
 0002:00017f80       ??_C@_0BH@DNAGHKFM@?$DMprogram?5name?5unknown?$DO?$AA@ 004a6f80     LIBCMT:crt0msg.obj
 0002:00017f98       ??_C@_0BK@OFGJDLJJ@Runtime?5Error?$CB?6?6Program?3?5?$AA@ 004a6f98     LIBCMT:crt0msg.obj
 0002:00017fb4       ??_C@_0O@NLDKAIKN@EncodePointer?$AA@ 004a6fb4     LIBCMT:tidtable.obj
 0002:00017fc4       ??_C@_1BK@DBDEIDLH@?$AAK?$AAE?$AAR?$AAN?$AAE?$AAL?$AA3?$AA2?$AA?4?$AAD?$AAL?$AAL?$AA?$AA@ 004a6fc4     LIBCMT:tidtable.obj
 0002:00017fe0       ??_C@_0O@KBPMFGHI@DecodePointer?$AA@ 004a6fe0     LIBCMT:tidtable.obj
 0002:00017ff0       ??_C@_07PEJMOBNF@FlsFree?$AA@ 004a6ff0     LIBCMT:tidtable.obj
 0002:00017ff8       ??_C@_0M@JCPCPOEF@FlsSetValue?$AA@ 004a6ff8     LIBCMT:tidtable.obj
 0002:00018004       ??_C@_0M@GDNOONDI@FlsGetValue?$AA@ 004a7004     LIBCMT:tidtable.obj
 0002:00018010       ??_C@_08KNHFBNJ@FlsAlloc?$AA@ 004a7010     LIBCMT:tidtable.obj
 0002:00018024       ??_C@_1O@CEDCILHN@?$AA?$CI?$AAn?$AAu?$AAl?$AAl?$AA?$CJ?$AA?$AA@ 004a7024     LIBCMT:output.obj
 0002:00018034       ??_C@_06OJHGLDPL@?$CInull?$CJ?$AA@ 004a7034     LIBCMT:output.obj
 0002:00018040       ___lookuptable             004a7040     LIBCMT:output.obj
 0002:000180c0       __XcptActTab               004a70c0     LIBCMT:winxfltr.obj
 0002:00018138       ??_C@_05KLBDPFGC@e?$CL000?$AA@ 004a7138     LIBCMT:cvt.obj
 0002:00018140       __real@4150017ec0000000    004a7140     LIBCMT:_testfdiv_.obj
 0002:00018148       __real@4147ffff80000000    004a7148     LIBCMT:_testfdiv_.obj
 0002:00018150       ??_C@_0BK@NHEOCAHP@IsProcessorFeaturePresent?$AA@ 004a7150     LIBCMT:_testfdiv_.obj
 0002:0001816c       ??_C@_08CPNIBGIE@KERNEL32?$AA@ 004a716c     LIBCMT:_testfdiv_.obj
 0002:000181e0       ??_C@_03IIINPABG@tan?$AA@  004a71e0     LIBCMT:_libm_error_.obj
 0002:000181e4       ??_C@_03LALBNOCG@cos?$AA@  004a71e4     LIBCMT:_libm_error_.obj
 0002:000181e8       ??_C@_03BLEJJJBH@sin?$AA@  004a71e8     LIBCMT:_libm_error_.obj
 0002:000181ec       ??_C@_04EHEDPDJG@modf?$AA@ 004a71ec     LIBCMT:_libm_error_.obj
 0002:000181f4       ??_C@_05PBJFFIGL@floor?$AA@ 004a71f4     LIBCMT:_libm_error_.obj
 0002:000181fc       ??_C@_04GFPJNGEK@ceil?$AA@ 004a71fc     LIBCMT:_libm_error_.obj
 0002:00018204       ??_C@_04MLLJIGOK@atan?$AA@ 004a7204     LIBCMT:_libm_error_.obj
 0002:0001820c       ??_C@_05EOHGHCHD@exp10?$AA@ 004a720c     LIBCMT:_libm_error_.obj
 0002:00018214       ??_C@_04PDIFKINK@acos?$AA@ 004a7214     LIBCMT:_libm_error_.obj
 0002:0001821c       ??_C@_04FIHNOPOL@asin?$AA@ 004a721c     LIBCMT:_libm_error_.obj
 0002:00018224       ??_C@_03MGHMBJCF@log?$AA@  004a7224     LIBCMT:_libm_error_.obj
 0002:00018228       ??_C@_05HGHHAHAP@log10?$AA@ 004a7228     LIBCMT:_libm_error_.obj
 0002:00018230       ??_C@_03KHJOGHMM@exp?$AA@  004a7230     LIBCMT:_libm_error_.obj
 0002:00018234       ??_C@_03JGHBODFD@pow?$AA@  004a7234     LIBCMT:_libm_error_.obj
 0002:00018238       ??_C@_08JCCMCCIL@HH?3mm?3ss?$AA@ 004a7238     LIBCMT:strftime.obj
 0002:00018244       ??_C@_0BE@CKGJFCPC@dddd?0?5MMMM?5dd?0?5yyyy?$AA@ 004a7244     LIBCMT:strftime.obj
 0002:00018258       ??_C@_08BPBNCDIB@MM?1dd?1yy?$AA@ 004a7258     LIBCMT:strftime.obj
 0002:00018264       ??_C@_02CJNFDJBF@PM?$AA@   004a7264     LIBCMT:strftime.obj
 0002:00018268       ??_C@_02DEDBPAFC@AM?$AA@   004a7268     LIBCMT:strftime.obj
 0002:0001826c       ??_C@_08EDHMEBNP@December?$AA@ 004a726c     LIBCMT:strftime.obj
 0002:00018278       ??_C@_08HCHEGEOA@November?$AA@ 004a7278     LIBCMT:strftime.obj
 0002:00018284       ??_C@_07JJNFCEND@October?$AA@ 004a7284     LIBCMT:strftime.obj
 0002:0001828c       ??_C@_09BHHEALKD@September?$AA@ 004a728c     LIBCMT:strftime.obj
 0002:00018298       ??_C@_06LBBHFDDG@August?$AA@ 004a7298     LIBCMT:strftime.obj
 0002:000182a0       ??_C@_04MIEPOIFP@July?$AA@ 004a72a0     LIBCMT:strftime.obj
 0002:000182a8       ??_C@_04CNLMGBGM@June?$AA@ 004a72a8     LIBCMT:strftime.obj
 0002:000182b0       ??_C@_05DMJDNLEJ@April?$AA@ 004a72b0     LIBCMT:strftime.obj
 0002:000182b8       ??_C@_05HPCKOFNC@March?$AA@ 004a72b8     LIBCMT:strftime.obj
 0002:000182c0       ??_C@_08GNJGEPFN@February?$AA@ 004a72c0     LIBCMT:strftime.obj
 0002:000182cc       ??_C@_07CGJPFGJA@January?$AA@ 004a72cc     LIBCMT:strftime.obj
 0002:000182d4       ??_C@_03MKABNOCG@Dec?$AA@  004a72d4     LIBCMT:strftime.obj
 0002:000182d8       ??_C@_03JPJOFNIA@Nov?$AA@  004a72d8     LIBCMT:strftime.obj
 0002:000182dc       ??_C@_03BMAOKBAD@Oct?$AA@  004a72dc     LIBCMT:strftime.obj
 0002:000182e0       ??_C@_03GGCAPAJC@Sep?$AA@  004a72e0     LIBCMT:strftime.obj
 0002:000182e4       ??_C@_03IFJFEIGA@Aug?$AA@  004a72e4     LIBCMT:strftime.obj
 0002:000182e8       ??_C@_03LBGABGKK@Jul?$AA@  004a72e8     LIBCMT:strftime.obj
 0002:000182ec       ??_C@_03IDFGHECI@Jun?$AA@  004a72ec     LIBCMT:strftime.obj
 0002:000182f0       ??_C@_03CNMDKL@May?$AA@    004a72f0     LIBCMT:strftime.obj
 0002:000182f4       ??_C@_03LEOLGMJP@Apr?$AA@  004a72f4     LIBCMT:strftime.obj
 0002:000182f8       ??_C@_03ODNJBKGA@Mar?$AA@  004a72f8     LIBCMT:strftime.obj
 0002:000182fc       ??_C@_03HJBDCHOM@Feb?$AA@  004a72fc     LIBCMT:strftime.obj
 0002:00018300       ??_C@_03JIHJHPIE@Jan?$AA@  004a7300     LIBCMT:strftime.obj
 0002:00018304       ??_C@_08INBOOONO@Saturday?$AA@ 004a7304     LIBCMT:strftime.obj
 0002:00018310       ??_C@_06JECMNKMI@Friday?$AA@ 004a7310     LIBCMT:strftime.obj
 0002:00018318       ??_C@_08HACCIKIA@Thursday?$AA@ 004a7318     LIBCMT:strftime.obj
 0002:00018324       ??_C@_09DLIGFAKA@Wednesday?$AA@ 004a7324     LIBCMT:strftime.obj
 0002:00018330       ??_C@_07BAAGCFCM@Tuesday?$AA@ 004a7330     LIBCMT:strftime.obj
 0002:00018338       ??_C@_06JLEDEDGH@Monday?$AA@ 004a7338     LIBCMT:strftime.obj
 0002:00018340       ??_C@_06OOPIFAJ@Sunday?$AA@ 004a7340     LIBCMT:strftime.obj
 0002:00018348       ??_C@_03FEFJNEK@Sat?$AA@   004a7348     LIBCMT:strftime.obj
 0002:0001834c       ??_C@_03IDIOELNC@Fri?$AA@  004a734c     LIBCMT:strftime.obj
 0002:00018350       ??_C@_03IOFIKPDN@Thu?$AA@  004a7350     LIBCMT:strftime.obj
 0002:00018354       ??_C@_03MHOMLAJA@Wed?$AA@  004a7354     LIBCMT:strftime.obj
 0002:00018358       ??_C@_03NAGEINEP@Tue?$AA@  004a7358     LIBCMT:strftime.obj
 0002:0001835c       ??_C@_03PDAGKDH@Mon?$AA@   004a735c     LIBCMT:strftime.obj
 0002:00018360       ??_C@_03KOEHGMDN@Sun?$AA@  004a7360     LIBCMT:strftime.obj
 0002:00018364       ??_C@_0O@FMJNFNKE@united?9states?$AA@ 004a7364     LIBCMT:getqloc.obj
 0002:00018374       ??_C@_0P@NDHFFKCA@united?9kingdom?$AA@ 004a7374     LIBCMT:getqloc.obj
 0002:00018384       ??_C@_0BC@HHDADLGF@trinidad?5?$CG?5tobago?$AA@ 004a7384     LIBCMT:getqloc.obj
 0002:00018398       ??_C@_0M@IOAEBDAC@south?9korea?$AA@ 004a7398     LIBCMT:getqloc.obj
 0002:000183a4       ??_C@_0N@FIELFKIJ@south?9africa?$AA@ 004a73a4     LIBCMT:getqloc.obj
 0002:000183b4       ??_C@_0M@OPNDHCMC@south?5korea?$AA@ 004a73b4     LIBCMT:getqloc.obj
 0002:000183c0       ??_C@_0N@MDEOEPFI@south?5africa?$AA@ 004a73c0     LIBCMT:getqloc.obj
 0002:000183d0       ??_C@_06FKAPCJLB@slovak?$AA@ 004a73d0     LIBCMT:getqloc.obj
 0002:000183d8       ??_C@_0M@EFJANOAL@puerto?9rico?$AA@ 004a73d8     LIBCMT:getqloc.obj
 0002:000183e4       ??_C@_08PGOJKDAI@pr?9china?$AA@ 004a73e4     LIBCMT:getqloc.obj
 0002:000183f0       ??_C@_08JHDOMCMI@pr?5china?$AA@ 004a73f0     LIBCMT:getqloc.obj
 0002:000183fc       ??_C@_02JHCHFBLL@nz?$AA@   004a73fc     LIBCMT:getqloc.obj
 0002:00018400       ??_C@_0M@LINHDHKP@new?9zealand?$AA@ 004a7400     LIBCMT:getqloc.obj
 0002:0001840c       ??_C@_09IIIPPBDB@hong?9kong?$AA@ 004a740c     LIBCMT:getqloc.obj
 0002:00018418       ??_C@_07HJLCKBG@holland?$AA@ 004a7418     LIBCMT:getqloc.obj
 0002:00018420       ??_C@_0O@LEHGMHAG@great?5britain?$AA@ 004a7420     LIBCMT:getqloc.obj
 0002:00018430       ??_C@_07FACOMELA@england?$AA@ 004a7430     LIBCMT:getqloc.obj
 0002:00018438       ??_C@_05JIHCEICB@czech?$AA@ 004a7438     LIBCMT:getqloc.obj
 0002:00018440       ??_C@_05BBJOBLGB@china?$AA@ 004a7440     LIBCMT:getqloc.obj
 0002:00018448       ??_C@_07GPKPHICP@britain?$AA@ 004a7448     LIBCMT:getqloc.obj
 0002:00018450       ??_C@_07MHIPBHMG@america?$AA@ 004a7450     LIBCMT:getqloc.obj
 0002:00018458       ??_C@_03KIALPMKC@usa?$AA@  004a7458     LIBCMT:getqloc.obj
 0002:0001845c       ??_C@_02FGJGKGGD@us?$AA@   004a745c     LIBCMT:getqloc.obj
 0002:00018460       ??_C@_02NEINDODK@uk?$AA@   004a7460     LIBCMT:getqloc.obj
 0002:00018464       ??_C@_05JMPCFJFJ@swiss?$AA@ 004a7464     LIBCMT:getqloc.obj
 0002:0001846c       ??_C@_0BA@HLOCPIOD@swedish?9finland?$AA@ 004a746c     LIBCMT:getqloc.obj
 0002:0001847c       ??_C@_0BC@PKCNIABK@spanish?9venezuela?$AA@ 004a747c     LIBCMT:getqloc.obj
 0002:00018490       ??_C@_0BA@GBHHMIJI@spanish?9uruguay?$AA@ 004a7490     LIBCMT:getqloc.obj
 0002:000184a0       ??_C@_0BE@BHDOHPMC@spanish?9puerto?5rico?$AA@ 004a74a0     LIBCMT:getqloc.obj
 0002:000184b4       ??_C@_0N@KMOIDGGN@spanish?9peru?$AA@ 004a74b4     LIBCMT:getqloc.obj
 0002:000184c4       ??_C@_0BB@HMHLPGPH@spanish?9paraguay?$AA@ 004a74c4     LIBCMT:getqloc.obj
 0002:000184d8       ??_C@_0P@MCPKNGFD@spanish?9panama?$AA@ 004a74d8     LIBCMT:getqloc.obj
 0002:000184e8       ??_C@_0BC@IHOHGAIL@spanish?9nicaragua?$AA@ 004a74e8     LIBCMT:getqloc.obj
 0002:000184fc       ??_C@_0P@KLMJDNFJ@spanish?9modern?$AA@ 004a74fc     LIBCMT:getqloc.obj
 0002:0001850c       ??_C@_0BA@BPAPGBCM@spanish?9mexican?$AA@ 004a750c     LIBCMT:getqloc.obj
 0002:0001851c       ??_C@_0BB@PDECHHHE@spanish?9honduras?$AA@ 004a751c     LIBCMT:getqloc.obj
 0002:00018530       ??_C@_0BC@KLHKFGDB@spanish?9guatemala?$AA@ 004a7530     LIBCMT:getqloc.obj
 0002:00018544       ??_C@_0BE@MFOOKJAI@spanish?9el?5salvador?$AA@ 004a7544     LIBCMT:getqloc.obj
 0002:00018558       ??_C@_0BA@FCOKFPFC@spanish?9ecuador?$AA@ 004a7558     LIBCMT:getqloc.obj
 0002:00018568       ??_C@_0BL@PLMGIMOO@spanish?9dominican?5republic?$AA@ 004a7568     LIBCMT:getqloc.obj
 0002:00018584       ??_C@_0BD@HLGDNMHB@spanish?9costa?5rica?$AA@ 004a7584     LIBCMT:getqloc.obj
 0002:00018598       ??_C@_0BB@PKCBKCPE@spanish?9colombia?$AA@ 004a7598     LIBCMT:getqloc.obj
 0002:000185ac       ??_C@_0O@MCBIJGNE@spanish?9chile?$AA@ 004a75ac     LIBCMT:getqloc.obj
 0002:000185bc       ??_C@_0BA@BEFEIGJJ@spanish?9bolivia?$AA@ 004a75bc     LIBCMT:getqloc.obj
 0002:000185cc       ??_C@_0BC@EMECMPD@spanish?9argentina?$AA@ 004a75cc     LIBCMT:getqloc.obj
 0002:000185e0       ??_C@_0BF@EALFLENP@portuguese?9brazilian?$AA@ 004a75e0     LIBCMT:getqloc.obj
 0002:000185f8       ??_C@_0BC@HBLEBLNN@norwegian?9nynorsk?$AA@ 004a75f8     LIBCMT:getqloc.obj
 0002:0001860c       ??_C@_0BB@HMACDDCK@norwegian?9bokmal?$AA@ 004a760c     LIBCMT:getqloc.obj
 0002:00018620       ??_C@_09BAFFPPHE@norwegian?$AA@ 004a7620     LIBCMT:getqloc.obj
 0002:0001862c       ??_C@_0O@EAJFJDFG@italian?9swiss?$AA@ 004a762c     LIBCMT:getqloc.obj
 0002:0001863c       ??_C@_0O@CNOMPGD@irish?9english?$AA@ 004a763c     LIBCMT:getqloc.obj
 0002:0001864c       ??_C@_0N@EDHBGCKG@german?9swiss?$AA@ 004a764c     LIBCMT:getqloc.obj
 0002:0001865c       ??_C@_0BC@JACMHNBP@german?9luxembourg?$AA@ 004a765c     LIBCMT:getqloc.obj
 0002:00018670       ??_C@_0BE@HBGMGFEG@german?9lichtenstein?$AA@ 004a7670     LIBCMT:getqloc.obj
 0002:00018684       ??_C@_0BA@HKKBIBKL@german?9austrian?$AA@ 004a7684     LIBCMT:getqloc.obj
 0002:00018694       ??_C@_0N@GCAEPEBK@french?9swiss?$AA@ 004a7694     LIBCMT:getqloc.obj
 0002:000186a4       ??_C@_0BC@DJFJJCK@french?9luxembourg?$AA@ 004a76a4     LIBCMT:getqloc.obj
 0002:000186b8       ??_C@_0BA@NNCEDFIC@french?9canadian?$AA@ 004a76b8     LIBCMT:getqloc.obj
 0002:000186c8       ??_C@_0P@CMPOCLM@french?9belgian?$AA@ 004a76c8     LIBCMT:getqloc.obj
 0002:000186d8       ??_C@_0M@GHHDJOK@english?9usa?$AA@ 004a76d8     LIBCMT:getqloc.obj
 0002:000186e4       ??_C@_0L@PLDJKEIL@english?9us?$AA@ 004a76e4     LIBCMT:getqloc.obj
 0002:000186f0       ??_C@_0L@HJCCDMNC@english?9uk?$AA@ 004a76f0     LIBCMT:getqloc.obj
 0002:000186fc       ??_C@_0BK@CKLIAGJB@english?9trinidad?5y?5tobago?$AA@ 004a76fc     LIBCMT:getqloc.obj
 0002:00018718       ??_C@_0BF@JMJMGNNF@english?9south?5africa?$AA@ 004a7718     LIBCMT:getqloc.obj
 0002:00018730       ??_C@_0L@DKIIFDFD@english?9nz?$AA@ 004a7730     LIBCMT:getqloc.obj
 0002:0001873c       ??_C@_0BA@ONHGJCLH@english?9jamaica?$AA@ 004a773c     LIBCMT:getqloc.obj
 0002:0001874c       ??_C@_0M@HJBGHOPO@english?9ire?$AA@ 004a774c     LIBCMT:getqloc.obj
 0002:00018758       ??_C@_0BC@LFEKMIFB@english?9caribbean?$AA@ 004a7758     LIBCMT:getqloc.obj
 0002:0001876c       ??_C@_0M@OLDPFKHI@english?9can?$AA@ 004a776c     LIBCMT:getqloc.obj
 0002:00018778       ??_C@_0P@OMDEHBMP@english?9belize?$AA@ 004a7778     LIBCMT:getqloc.obj
 0002:00018788       ??_C@_0M@KFHFPFED@english?9aus?$AA@ 004a7788     LIBCMT:getqloc.obj
 0002:00018794       ??_C@_0BB@MNMBKDFE@english?9american?$AA@ 004a7794     LIBCMT:getqloc.obj
 0002:000187a8       ??_C@_0O@KIDLNNBA@dutch?9belgian?$AA@ 004a77a8     LIBCMT:getqloc.obj
 0002:000187b8       ??_C@_0BE@JBKABBMH@chinese?9traditional?$AA@ 004a77b8     LIBCMT:getqloc.obj
 0002:000187cc       ??_C@_0BC@MJJMPKCG@chinese?9singapore?$AA@ 004a77cc     LIBCMT:getqloc.obj
 0002:000187e0       ??_C@_0BD@FDKADDCP@chinese?9simplified?$AA@ 004a77e0     LIBCMT:getqloc.obj
 0002:000187f4       ??_C@_0BB@DBEFDDME@chinese?9hongkong?$AA@ 004a77f4     LIBCMT:getqloc.obj
 0002:00018808       ??_C@_07DHNMFMCI@chinese?$AA@ 004a7808     LIBCMT:getqloc.obj
 0002:00018810       ??_C@_03FNDDCHI@chi?$AA@   004a7810     LIBCMT:getqloc.obj
 0002:00018814       ??_C@_03BMMIADDJ@chh?$AA@  004a7814     LIBCMT:getqloc.obj
 0002:00018818       ??_C@_08OAIPJDGI@canadian?$AA@ 004a7818     LIBCMT:getqloc.obj
 0002:00018824       ??_C@_07HBPMNPNJ@belgian?$AA@ 004a7824     LIBCMT:getqloc.obj
 0002:0001882c       ??_C@_0L@OEKOPBEL@australian?$AA@ 004a782c     LIBCMT:getqloc.obj
 0002:00018838       ??_C@_0BB@MEIMBEDG@american?9english?$AA@ 004a7838     LIBCMT:getqloc.obj
 0002:0001884c       ??_C@_0BB@DFMDPDGB@american?5english?$AA@ 004a784c     LIBCMT:getqloc.obj
 0002:00018860       ??_C@_08IJLOKOLL@american?$AA@ 004a7860     LIBCMT:getqloc.obj
 0002:00018870       ___rg_language             004a7870     LIBCMT:getqloc.obj
 0002:00018a78       ___rg_country              004a7a78     LIBCMT:getqloc.obj
 0002:00018b30       ___rglangidNotDefault      004a7b30     LIBCMT:getqloc.obj
 0002:00018b44       ??_C@_03NFKLAGEF@OCP?$AA@  004a7b44     LIBCMT:getqloc.obj
 0002:00018b48       ??_C@_03DFHEHBHG@ACP?$AA@  004a7b48     LIBCMT:getqloc.obj
 0002:00018b4c       ??_C@_0BC@NFIEMBLL@Norwegian?9Nynorsk?$AA@ 004a7b4c     LIBCMT:getqloc.obj
 0002:00018b60       ??_C@_0BK@CFCOFLF@?5Complete?5Object?5Locator?8?$AA@ 004a7b60     LIBCMT:undname.obj
 0002:00018b7c       ??_C@_0BN@MECKDCOJ@?5Class?5Hierarchy?5Descriptor?8?$AA@ 004a7b7c     LIBCMT:undname.obj
 0002:00018b9c       ??_C@_0BD@LGICGFMM@?5Base?5Class?5Array?8?$AA@ 004a7b9c     LIBCMT:undname.obj
 0002:00018bb0       ??_C@_0BM@LDKODKLH@?5Base?5Class?5Descriptor?5at?5?$CI?$AA@ 004a7bb0     LIBCMT:undname.obj
 0002:00018bcc       ??_C@_0BC@DAFEJGAK@?5Type?5Descriptor?8?$AA@ 004a7bcc     LIBCMT:undname.obj
 0002:00018be0       ??_C@_0BM@PMGGMLDN@?$GAlocal?5static?5thread?5guard?8?$AA@ 004a7be0     LIBCMT:undname.obj
 0002:00018bfc       ??_C@_0CL@FGIJHLCE@?$GAmanaged?5vector?5copy?5constructor@ 004a7bfc     LIBCMT:undname.obj
 0002:00018c28       ??_C@_0CJ@GJELGAMM@?$GAvector?5vbase?5copy?5constructor?5i@ 004a7c28     LIBCMT:undname.obj
 0002:00018c54       ??_C@_0CD@CGAJBKEJ@?$GAvector?5copy?5constructor?5iterato@ 004a7c54     LIBCMT:undname.obj
 0002:00018c78       ??_C@_0CB@PDBIFEP@?$GAdynamic?5atexit?5destructor?5for?5?8@ 004a7c78     LIBCMT:undname.obj
 0002:00018c9c       ??_C@_0BL@CLIPGLGB@?$GAdynamic?5initializer?5for?5?8?$AA@ 004a7c9c     LIBCMT:undname.obj
 0002:00018cb8       ??_C@_0CM@FCBBDIGB@?$GAeh?5vector?5vbase?5copy?5constructo@ 004a7cb8     LIBCMT:undname.obj
 0002:00018ce4       ??_C@_0CG@HLDDJMAG@?$GAeh?5vector?5copy?5constructor?5iter@ 004a7ce4     LIBCMT:undname.obj
 0002:00018d0c       ??_C@_0CF@IMGKMJNO@?$GAmanaged?5vector?5destructor?5itera@ 004a7d0c     LIBCMT:undname.obj
 0002:00018d34       ??_C@_0CG@CFDHKGGD@?$GAmanaged?5vector?5constructor?5iter@ 004a7d34     LIBCMT:undname.obj
 0002:00018d5c       ??_C@_0BN@CKNJLHMB@?$GAplacement?5delete?$FL?$FN?5closure?8?$AA@ 004a7d5c     LIBCMT:undname.obj
 0002:00018d7c       ??_C@_0BL@CNOONJFP@?$GAplacement?5delete?5closure?8?$AA@ 004a7d7c     LIBCMT:undname.obj
 0002:00018d98       ??_C@_0P@HJKNJFNN@?$GAomni?5callsig?8?$AA@ 004a7d98     LIBCMT:undname.obj
 0002:00018da8       ??_C@_09LBNFPBCA@?5delete?$FL?$FN?$AA@ 004a7da8     LIBCMT:undname.obj
 0002:00018db4       ??_C@_06FHBGPFGH@?5new?$FL?$FN?$AA@ 004a7db4     LIBCMT:undname.obj
 0002:00018dbc       ??_C@_0CE@IIHCMGGL@?$GAlocal?5vftable?5constructor?5closu@ 004a7dbc     LIBCMT:undname.obj
 0002:00018de0       ??_C@_0BA@KKLDJDLB@?$GAlocal?5vftable?8?$AA@ 004a7de0     LIBCMT:undname.obj
 0002:00018df0       ??_C@_05KHLCHHI@?$GARTTI?$AA@ 004a7df0     LIBCMT:undname.obj
 0002:00018df8       ??_C@_03KLGMFNMG@?$GAEH?$AA@ 004a7df8     LIBCMT:undname.obj
 0002:00018dfc       ??_C@_0BA@KBCDOMBN@?$GAudt?5returning?8?$AA@ 004a7dfc     LIBCMT:undname.obj
 0002:00018e0c       ??_C@_0BL@LLKPOHJI@?$GAcopy?5constructor?5closure?8?$AA@ 004a7e0c     LIBCMT:undname.obj
 0002:00018e28       ??_C@_0CH@OOJPLCPH@?$GAeh?5vector?5vbase?5constructor?5ite@ 004a7e28     LIBCMT:undname.obj
 0002:00018e50       ??_C@_0CA@GCEOPDGL@?$GAeh?5vector?5destructor?5iterator?8?$AA@ 004a7e50     LIBCMT:undname.obj
 0002:00018e70       ??_C@_0CB@JONCMFFK@?$GAeh?5vector?5constructor?5iterator?8@ 004a7e70     LIBCMT:undname.obj
 0002:00018e94       ??_C@_0BL@NILFHHPC@?$GAvirtual?5displacement?5map?8?$AA@ 004a7e94     LIBCMT:undname.obj
 0002:00018eb0       ??_C@_0CE@IKBNEHA@?$GAvector?5vbase?5constructor?5iterat@ 004a7eb0     LIBCMT:undname.obj
 0002:00018ed4       ??_C@_0BN@LFPFMEDL@?$GAvector?5destructor?5iterator?8?$AA@ 004a7ed4     LIBCMT:undname.obj
 0002:00018ef4       ??_C@_0BO@PFGOCPJJ@?$GAvector?5constructor?5iterator?8?$AA@ 004a7ef4     LIBCMT:undname.obj
 0002:00018f14       ??_C@_0BN@IMDCHIKM@?$GAscalar?5deleting?5destructor?8?$AA@ 004a7f14     LIBCMT:undname.obj
 0002:00018f34       ??_C@_0BO@OBMKPJIG@?$GAdefault?5constructor?5closure?8?$AA@ 004a7f34     LIBCMT:undname.obj
 0002:00018f54       ??_C@_0BN@DEGPLNFK@?$GAvector?5deleting?5destructor?8?$AA@ 004a7f54     LIBCMT:undname.obj
 0002:00018f74       ??_C@_0BD@JDLKDPAB@?$GAvbase?5destructor?8?$AA@ 004a7f74     LIBCMT:undname.obj
 0002:00018f88       ??_C@_08OBABFOLI@?$GAstring?8?$AA@ 004a7f88     LIBCMT:undname.obj
 0002:00018f94       ??_C@_0BF@KDPPACIK@?$GAlocal?5static?5guard?8?$AA@ 004a7f94     LIBCMT:undname.obj
 0002:00018fac       ??_C@_08LLFFHHDJ@?$GAtypeof?8?$AA@ 004a7fac     LIBCMT:undname.obj
 0002:00018fb8       ??_C@_07FEEIOKP@?$GAvcall?8?$AA@ 004a7fb8     LIBCMT:undname.obj
 0002:00018fc0       ??_C@_09BLBHBJP@?$GAvbtable?8?$AA@ 004a7fc0     LIBCMT:undname.obj
 0002:00018fcc       ??_C@_09IFPLHPGF@?$GAvftable?8?$AA@ 004a7fcc     LIBCMT:undname.obj
 0002:00018fd8       ??_C@_02MHEGNOJ@?$FO?$DN?$AA@ 004a7fd8     LIBCMT:undname.obj
 0002:00018fdc       ??_C@_02DHLNPPGH@?$HM?$DN?$AA@ 004a7fdc     LIBCMT:undname.obj
 0002:00018fe0       ??_C@_02FGJGFEAB@?$CG?$DN?$AA@ 004a7fe0     LIBCMT:undname.obj
 0002:00018fe4       ??_C@_03CDNPDDLA@?$DM?$DM?$DN?$AA@ 004a7fe4     LIBCMT:undname.obj
 0002:00018fe8       ??_C@_03IKFCCPFF@?$DO?$DO?$DN?$AA@ 004a7fe8     LIBCMT:undname.obj
 0002:00018fec       ??_C@_02FENAOKFI@?$CF?$DN?$AA@ 004a7fec     LIBCMT:undname.obj
 0002:00018ff0       ??_C@_02FJEHGPIO@?1?$DN?$AA@ 004a7ff0     LIBCMT:undname.obj
 0002:00018ff4       ??_C@_02FKMDLLOA@?9?$DN?$AA@ 004a7ff4     LIBCMT:undname.obj
 0002:00018ff8       ??_C@_02FOEOMHFC@?$CL?$DN?$AA@ 004a7ff8     LIBCMT:undname.obj
 0002:00018ffc       ??_C@_02FPIMKNGF@?$CK?$DN?$AA@ 004a7ffc     LIBCMT:undname.obj
 0002:00019000       ??_C@_02NONPIBCD@?$HM?$HM?$AA@ 004a8000     LIBCMT:undname.obj
 0002:00019004       ??_C@_02PPKAJPJL@?$CG?$CG?$AA@ 004a8004     LIBCMT:undname.obj
 0002:00019008       ??_C@_01DNKMNLPK@?$HM?$AA@ 004a8008     LIBCMT:undname.obj
 0002:0001900c       ??_C@_01JKBOJNNK@?$FO?$AA@ 004a800c     LIBCMT:undname.obj
 0002:00019010       ??_C@_01PJKLJHI@?$HO?$AA@  004a8010     LIBCMT:undname.obj
 0002:00019014       ??_C@_02HCKGKOFO@?$CI?$CJ?$AA@ 004a8014     LIBCMT:undname.obj
 0002:00019018       ??_C@_01IHBHIGKO@?0?$AA@   004a8018     LIBCMT:undname.obj
 0002:0001901c       ??_C@_02EEKDKGMJ@?$DO?$DN?$AA@ 004a801c     LIBCMT:undname.obj
 0002:00019020       ??_C@_01PPODPGHN@?$DO?$AA@ 004a8020     LIBCMT:undname.obj
 0002:00019024       ??_C@_02EHCHHCKH@?$DM?$DN?$AA@ 004a8024     LIBCMT:undname.obj
 0002:00019028       ??_C@_01MNNFJEPP@?$DM?$AA@ 004a8028     LIBCMT:undname.obj
 0002:0001902c       ??_C@_01FGNFDNOH@?$CF?$AA@ 004a802c     LIBCMT:undname.obj
 0002:00019030       ??_C@_01KMDKNFGN@?1?$AA@   004a8030     LIBCMT:undname.obj
 0002:00019034       ??_C@_03MNHNFDLC@?9?$DO?$CK?$AA@ 004a8034     LIBCMT:undname.obj
 0002:00019038       ??_C@_01HNPIGOCE@?$CG?$AA@ 004a8038     LIBCMT:undname.obj
 0002:0001903c       ??_C@_01MIFGBAGJ@?$CL?$AA@ 004a803c     LIBCMT:undname.obj
 0002:00019040       ??_C@_02BAABKJLB@?9?9?$AA@ 004a8040     LIBCMT:undname.obj
 0002:00019044       ??_C@_02ECNGHCIF@?$CL?$CL?$AA@ 004a8044     LIBCMT:undname.obj
 0002:00019048       ??_C@_02HBOOOICD@?9?$DO?$AA@ 004a8048     LIBCMT:undname.obj
 0002:0001904c       ??_C@_08LHJFAFGD@operator?$AA@ 004a804c     LIBCMT:undname.obj
 0002:00019058       ??_C@_02GPECMEKF@?$FL?$FN?$AA@ 004a8058     LIBCMT:undname.obj
 0002:0001905c       ??_C@_02FDNJECIE@?$CB?$DN?$AA@ 004a805c     LIBCMT:undname.obj
 0002:00019060       ??_C@_02EGOFBIJA@?$DN?$DN?$AA@ 004a8060     LIBCMT:undname.obj
 0002:00019064       ??_C@_01DCLJPIOD@?$CB?$AA@ 004a8064     LIBCMT:undname.obj
 0002:00019068       ??_C@_02FODMEDOG@?$DM?$DM?$AA@ 004a8068     LIBCMT:undname.obj
 0002:0001906c       ??_C@_02GPIOPFAK@?$DO?$DO?$AA@ 004a806c     LIBCMT:undname.obj
 0002:00019070       ??_C@_07FPCDHGMM@?5delete?$AA@ 004a8070     LIBCMT:undname.obj
 0002:00019078       ??_C@_04NIHEBCM@?5new?$AA@ 004a8078     LIBCMT:undname.obj
 0002:00019080       ??_C@_0M@GFIIJFMG@__unaligned?$AA@ 004a8080     LIBCMT:undname.obj
 0002:0001908c       ??_C@_0L@PILCLIHE@__restrict?$AA@ 004a808c     LIBCMT:undname.obj
 0002:00019098       ??_C@_07JOMMBBKO@__ptr64?$AA@ 004a8098     LIBCMT:undname.obj
 0002:000190a0       ??_C@_09HIJEGCPM@__clrcall?$AA@ 004a80a0     LIBCMT:undname.obj
 0002:000190ac       ??_C@_0L@JMKHOMEK@__fastcall?$AA@ 004a80ac     LIBCMT:undname.obj
 0002:000190b8       ??_C@_0L@NPHFGOKO@__thiscall?$AA@ 004a80b8     LIBCMT:undname.obj
 0002:000190c4       ??_C@_09IFJBGAPI@__stdcall?$AA@ 004a80c4     LIBCMT:undname.obj
 0002:000190d0       ??_C@_08GHMPAG@__pascal?$AA@ 004a80d0     LIBCMT:undname.obj
 0002:000190dc       ??_C@_07KOLFKCDI@__cdecl?$AA@ 004a80dc     LIBCMT:undname.obj
 0002:000190e4       ??_C@_08EHJDFFNH@__based?$CI?$AA@ 004a80e4     LIBCMT:undname.obj
 0002:00019270       ??_C@_0BI@DFKBFLJE@GetProcessWindowStation?$AA@ 004a8270     LIBCMT:crtmbox.obj
 0002:00019288       ??_C@_0BK@CIDNPOGP@GetUserObjectInformationA?$AA@ 004a8288     LIBCMT:crtmbox.obj
 0002:000192a4       ??_C@_0BD@HHGDFDBJ@GetLastActivePopup?$AA@ 004a82a4     LIBCMT:crtmbox.obj
 0002:000192b8       ??_C@_0BA@HNOPNCHB@GetActiveWindow?$AA@ 004a82b8     LIBCMT:crtmbox.obj
 0002:000192c8       ??_C@_0M@CHKKJDAI@MessageBoxA?$AA@ 004a82c8     LIBCMT:crtmbox.obj
 0002:000192d4       ??_C@_0L@NDEGIDAG@USER32?4DLL?$AA@ 004a82d4     LIBCMT:crtmbox.obj
 0002:000192e0       ___lookuptable_s           004a82e0     LIBCMT:outputs.obj
 0002:0001933c       ??_C@_0L@KDOEJCKC@_nextafter?$AA@ 004a833c     LIBCMT:_fpexcept_.obj
 0002:00019348       ??_C@_05JGDBENOH@_logb?$AA@ 004a8348     LIBCMT:_fpexcept_.obj
 0002:00019350       ??_C@_03ONILCKOB@_yn?$AA@  004a8350     LIBCMT:_fpexcept_.obj
 0002:00019354       ??_C@_03NAKIGLHK@_y1?$AA@  004a8354     LIBCMT:_fpexcept_.obj
 0002:00019358       ??_C@_03MJLDFKDL@_y0?$AA@  004a8358     LIBCMT:_fpexcept_.obj
 0002:0001935c       ??_C@_05GKKHEGJL@frexp?$AA@ 004a835c     LIBCMT:_fpexcept_.obj
 0002:00019364       ??_C@_04KEPJIHGP@fmod?$AA@ 004a8364     LIBCMT:_fpexcept_.obj
 0002:0001936c       ??_C@_06MEIMCGCF@_hypot?$AA@ 004a836c     LIBCMT:_fpexcept_.obj
 0002:00019374       ??_C@_05KBKMEMPO@_cabs?$AA@ 004a8374     LIBCMT:_fpexcept_.obj
 0002:0001937c       ??_C@_05CEJMAHNP@ldexp?$AA@ 004a837c     LIBCMT:_fpexcept_.obj
 0002:00019384       ??_C@_04ODHECPBC@fabs?$AA@ 004a8384     LIBCMT:_fpexcept_.obj
 0002:0001938c       ??_C@_04EIAKFFMI@sqrt?$AA@ 004a838c     LIBCMT:_fpexcept_.obj
 0002:00019394       ??_C@_05KNGEOGJB@atan2?$AA@ 004a8394     LIBCMT:_fpexcept_.obj
 0002:0001939c       ??_C@_04FJHINJAO@tanh?$AA@ 004a839c     LIBCMT:_fpexcept_.obj
 0002:000193a4       ??_C@_04HPJJNFIM@cosh?$AA@ 004a83a4     LIBCMT:_fpexcept_.obj
 0002:000193ac       ??_C@_04COOMCNPB@sinh?$AA@ 004a83ac     LIBCMT:_fpexcept_.obj
 0002:000193b4       ??_C@_07GPDNMNG@CONOUT$?$AA@ 004a83b4     LIBCMT:initcon.obj
 0002:000193bc       ??_C@_02CLFPBFFP@TZ?$AA@   004a83bc     LIBCMT:tzset.obj
 0002:000193c0       ___dnames                  004a83c0     LIBCMT:timeset.obj
 0002:000193d8       ___mnames                  004a83d8     LIBCMT:timeset.obj
 0002:00019400       ??_C@_06IMKFLFPG@1?$CDQNAN?$AA@ 004a8400     LIBCMT:_x10fout_.obj
 0002:00019408       ??_C@_05DNEBIAHO@1?$CDINF?$AA@ 004a8408     LIBCMT:_x10fout_.obj
 0002:00019410       ??_C@_05PHHOCPM@1?$CDIND?$AA@ 004a8410     LIBCMT:_x10fout_.obj
 0002:00019418       ??_C@_06PGGFOGJG@1?$CDSNAN?$AA@ 004a8418     LIBCMT:_x10fout_.obj
 0002:00019420       __load_config_used         004a8420     LIBCMT:loadcfg.obj
 0002:00019468       ??_R4Exception@CipherShed@@6B@ 004a8468     FormatCom.obj
 0002:0001947c       ??_R3Exception@CipherShed@@8 004a847c     FormatCom.obj
 0002:0001948c       ??_R2Exception@CipherShed@@8 004a848c     FormatCom.obj
 0002:00019494       ??_R1A@?0A@EA@Exception@CipherShed@@8 004a8494     FormatCom.obj
 0002:000194b0       ??_R4UserAbort@CipherShed@@6B@ 004a84b0     FormatCom.obj
 0002:000194c4       ??_R3UserAbort@CipherShed@@8 004a84c4     FormatCom.obj
 0002:000194d4       ??_R2UserAbort@CipherShed@@8 004a84d4     FormatCom.obj
 0002:000194e0       ??_R1A@?0A@EA@UserAbort@CipherShed@@8 004a84e0     FormatCom.obj
 0002:000194fc       ??_R4?$CipherShedFactory@VCipherShedFormatCom@@@@6B@ 004a84fc     FormatCom.obj
 0002:00019510       ??_R3?$CipherShedFactory@VCipherShedFormatCom@@@@8 004a8510     FormatCom.obj
 0002:00019520       ??_R2?$CipherShedFactory@VCipherShedFormatCom@@@@8 004a8520     FormatCom.obj
 0002:00019530       ??_R1A@?0A@EA@?$CipherShedFactory@VCipherShedFormatCom@@@@8 004a8530     FormatCom.obj
 0002:0001954c       ??_R1A@?0A@EA@IClassFactory@@8 004a854c     FormatCom.obj
 0002:00019568       ??_R3IClassFactory@@8      004a8568     FormatCom.obj
 0002:00019578       ??_R2IClassFactory@@8      004a8578     FormatCom.obj
 0002:00019584       ??_R1A@?0A@EA@IUnknown@@8  004a8584     FormatCom.obj
 0002:000195a0       ??_R3IUnknown@@8           004a85a0     FormatCom.obj
 0002:000195b0       ??_R2IUnknown@@8           004a85b0     FormatCom.obj
 0002:000195b8       ??_R4CipherShedFormatCom@@6B@ 004a85b8     FormatCom.obj
 0002:000195cc       ??_R3CipherShedFormatCom@@8 004a85cc     FormatCom.obj
 0002:000195dc       ??_R2CipherShedFormatCom@@8 004a85dc     FormatCom.obj
 0002:000195ec       ??_R1A@?0A@EA@CipherShedFormatCom@@8 004a85ec     FormatCom.obj
 0002:00019608       ??_R1A@?0A@EA@ICipherShedFormatCom@@8 004a8608     FormatCom.obj
 0002:00019624       ??_R3ICipherShedFormatCom@@8 004a8624     FormatCom.obj
 0002:00019634       ??_R2ICipherShedFormatCom@@8 004a8634     FormatCom.obj
 0002:00019640       ??_R4bad_alloc@std@@6B@    004a8640     InPlace.obj
 0002:00019654       ??_R3bad_alloc@std@@8      004a8654     InPlace.obj
 0002:00019664       ??_R2bad_alloc@std@@8      004a8664     InPlace.obj
 0002:00019670       ??_R1A@?0A@EA@bad_alloc@std@@8 004a8670     InPlace.obj
 0002:0001968c       ??_R1A@?0A@EA@exception@std@@8 004a868c     InPlace.obj
 0002:000196a8       ??_R3exception@std@@8      004a86a8     InPlace.obj
 0002:000196b8       ??_R2exception@std@@8      004a86b8     InPlace.obj
 0002:000196c0       ??_R4facet@locale@std@@6B@ 004a86c0     Tcformat.obj
 0002:000196d4       ??_R3facet@locale@std@@8   004a86d4     Tcformat.obj
 0002:000196e4       ??_R2facet@locale@std@@8   004a86e4     Tcformat.obj
 0002:000196ec       ??_R1A@?0A@EA@facet@locale@std@@8 004a86ec     Tcformat.obj
 0002:00019708       ??_R3ctype_base@std@@8     004a8708     Tcformat.obj
 0002:00019718       ??_R2ctype_base@std@@8     004a8718     Tcformat.obj
 0002:00019724       ??_R1A@?0A@EA@ctype_base@std@@8 004a8724     Tcformat.obj
 0002:00019740       ??_R4ios_base@std@@6B@     004a8740     Tcformat.obj
 0002:00019754       ??_R3ios_base@std@@8       004a8754     Tcformat.obj
 0002:00019764       ??_R2ios_base@std@@8       004a8764     Tcformat.obj
 0002:00019770       ??_R1A@?0A@EA@ios_base@std@@8 004a8770     Tcformat.obj
 0002:0001978c       ??_R13?0A@EA@?$_Iosb@H@std@@8 004a878c     Tcformat.obj
 0002:000197a8       ??_R3?$_Iosb@H@std@@8      004a87a8     Tcformat.obj
 0002:000197b8       ??_R2?$_Iosb@H@std@@8      004a87b8     Tcformat.obj
 0002:000197c0       ??_R1A@?0A@EA@?$_Iosb@H@std@@8 004a87c0     Tcformat.obj
 0002:000197dc       ??_R4Container@ForEach@CipherShed@@6B@ 004a87dc     Tcformat.obj
 0002:000197f0       ??_R3Container@ForEach@CipherShed@@8 004a87f0     Tcformat.obj
 0002:00019800       ??_R2Container@ForEach@CipherShed@@8 004a8800     Tcformat.obj
 0002:00019808       ??_R1A@?0A@EA@Container@ForEach@CipherShed@@8 004a8808     Tcformat.obj
 0002:00019824       ??_R4?$basic_ostream@_WU?$char_traits@_W@std@@@std@@6B@ 004a8824     Tcformat.obj
 0002:00019838       ??_R3?$basic_ostream@_WU?$char_traits@_W@std@@@std@@8 004a8838     Tcformat.obj
 0002:00019848       ??_R2?$basic_ostream@_WU?$char_traits@_W@std@@@std@@8 004a8848     Tcformat.obj
 0002:0001985c       ??_R1A@?0A@EA@?$basic_ostream@_WU?$char_traits@_W@std@@@std@@8 004a885c     Tcformat.obj
 0002:00019878       ??_R1A@A@3FA@?$basic_ios@_WU?$char_traits@_W@std@@@std@@8 004a8878     Tcformat.obj
 0002:00019894       ??_R3?$basic_ios@_WU?$char_traits@_W@std@@@std@@8 004a8894     Tcformat.obj
 0002:000198a4       ??_R2?$basic_ios@_WU?$char_traits@_W@std@@@std@@8 004a88a4     Tcformat.obj
 0002:000198b4       ??_R1A@?0A@EA@?$basic_ios@_WU?$char_traits@_W@std@@@std@@8 004a88b4     Tcformat.obj
 0002:000198d0       ??_R1A@A@3EA@ios_base@std@@8 004a88d0     Tcformat.obj
 0002:000198ec       ??_R13A@3EA@?$_Iosb@H@std@@8 004a88ec     Tcformat.obj
 0002:00019908       ??_R4?$basic_istream@_WU?$char_traits@_W@std@@@std@@6B@ 004a8908     Tcformat.obj
 0002:0001991c       ??_R3?$basic_istream@_WU?$char_traits@_W@std@@@std@@8 004a891c     Tcformat.obj
 0002:0001992c       ??_R2?$basic_istream@_WU?$char_traits@_W@std@@@std@@8 004a892c     Tcformat.obj
 0002:00019940       ??_R1A@?0A@EA@?$basic_istream@_WU?$char_traits@_W@std@@@std@@8 004a8940     Tcformat.obj
 0002:0001995c       ??_R4?$basic_iostream@_WU?$char_traits@_W@std@@@std@@6B@ 004a895c     Tcformat.obj
 0002:00019970       ??_R3?$basic_iostream@_WU?$char_traits@_W@std@@@std@@8 004a8970     Tcformat.obj
 0002:00019980       ??_R2?$basic_iostream@_WU?$char_traits@_W@std@@@std@@8 004a8980     Tcformat.obj
 0002:000199a8       ??_R1A@?0A@EA@?$basic_iostream@_WU?$char_traits@_W@std@@@std@@8 004a89a8     Tcformat.obj
 0002:000199c4       ??_R17?0A@EA@?$basic_ostream@_WU?$char_traits@_W@std@@@std@@8 004a89c4     Tcformat.obj
 0002:000199e0       ??_R4?$basic_ios@_WU?$char_traits@_W@std@@@std@@6B@ 004a89e0     Tcformat.obj
 0002:000199f4       ??_R4?$ctype@_W@std@@6B@   004a89f4     Tcformat.obj
 0002:00019a08       ??_R3?$ctype@_W@std@@8     004a8a08     Tcformat.obj
 0002:00019a18       ??_R2?$ctype@_W@std@@8     004a8a18     Tcformat.obj
 0002:00019a28       ??_R1A@?0A@EA@?$ctype@_W@std@@8 004a8a28     Tcformat.obj
 0002:00019a44       ??_R4?$basic_streambuf@_WU?$char_traits@_W@std@@@std@@6B@ 004a8a44     Tcformat.obj
 0002:00019a58       ??_R3?$basic_streambuf@_WU?$char_traits@_W@std@@@std@@8 004a8a58     Tcformat.obj
 0002:00019a68       ??_R2?$basic_streambuf@_WU?$char_traits@_W@std@@@std@@8 004a8a68     Tcformat.obj
 0002:00019a70       ??_R1A@?0A@EA@?$basic_streambuf@_WU?$char_traits@_W@std@@@std@@8 004a8a70     Tcformat.obj
 0002:00019a8c       ??_R4?$basic_stringbuf@_WU?$char_traits@_W@std@@V?$allocator@_W@2@@std@@6B@ 004a8a8c     Tcformat.obj
 0002:00019aa0       ??_R3?$basic_stringbuf@_WU?$char_traits@_W@std@@V?$allocator@_W@2@@std@@8 004a8aa0     Tcformat.obj
 0002:00019ab0       ??_R2?$basic_stringbuf@_WU?$char_traits@_W@std@@V?$allocator@_W@2@@std@@8 004a8ab0     Tcformat.obj
 0002:00019abc       ??_R1A@?0A@EA@?$basic_stringbuf@_WU?$char_traits@_W@std@@V?$allocator@_W@2@@std@@8 004a8abc     Tcformat.obj
 0002:00019ad8       ??_R4?$num_put@_WV?$ostreambuf_iterator@_WU?$char_traits@_W@std@@@std@@@std@@6B@ 004a8ad8     Tcformat.obj
 0002:00019aec       ??_R3?$num_put@_WV?$ostreambuf_iterator@_WU?$char_traits@_W@std@@@std@@@std@@8 004a8aec     Tcformat.obj
 0002:00019afc       ??_R2?$num_put@_WV?$ostreambuf_iterator@_WU?$char_traits@_W@std@@@std@@@std@@8 004a8afc     Tcformat.obj
 0002:00019b08       ??_R1A@?0A@EA@?$num_put@_WV?$ostreambuf_iterator@_WU?$char_traits@_W@std@@@std@@@std@@8 004a8b08     Tcformat.obj
 0002:00019b24       ??_R4?$basic_stringstream@_WU?$char_traits@_W@std@@V?$allocator@_W@2@@std@@6B@ 004a8b24     Tcformat.obj
 0002:00019b38       ??_R3?$basic_stringstream@_WU?$char_traits@_W@std@@V?$allocator@_W@2@@std@@8 004a8b38     Tcformat.obj
 0002:00019b48       ??_R2?$basic_stringstream@_WU?$char_traits@_W@std@@V?$allocator@_W@2@@std@@8 004a8b48     Tcformat.obj
 0002:00019b74       ??_R1A@?0A@EA@?$basic_stringstream@_WU?$char_traits@_W@std@@V?$allocator@_W@2@@std@@8 004a8b74     Tcformat.obj
 0002:00019b90       ??_R4?$numpunct@_W@std@@6B@ 004a8b90     Tcformat.obj
 0002:00019ba4       ??_R3?$numpunct@_W@std@@8  004a8ba4     Tcformat.obj
 0002:00019bb4       ??_R2?$numpunct@_W@std@@8  004a8bb4     Tcformat.obj
 0002:00019bc0       ??_R1A@?0A@EA@?$numpunct@_W@std@@8 004a8bc0     Tcformat.obj
 0002:00019bdc       ??_R4logic_error@std@@6B@  004a8bdc     Tcformat.obj
 0002:00019bf0       ??_R3logic_error@std@@8    004a8bf0     Tcformat.obj
 0002:00019c00       ??_R2logic_error@std@@8    004a8c00     Tcformat.obj
 0002:00019c0c       ??_R1A@?0A@EA@logic_error@std@@8 004a8c0c     Tcformat.obj
 0002:00019c28       ??_R4runtime_error@std@@6B@ 004a8c28     Tcformat.obj
 0002:00019c3c       ??_R3runtime_error@std@@8  004a8c3c     Tcformat.obj
 0002:00019c4c       ??_R2runtime_error@std@@8  004a8c4c     Tcformat.obj
 0002:00019c58       ??_R1A@?0A@EA@runtime_error@std@@8 004a8c58     Tcformat.obj
 0002:00019c74       ??_R4length_error@std@@6B@ 004a8c74     Tcformat.obj
 0002:00019c88       ??_R3length_error@std@@8   004a8c88     Tcformat.obj
 0002:00019c98       ??_R2length_error@std@@8   004a8c98     Tcformat.obj
 0002:00019ca8       ??_R1A@?0A@EA@length_error@std@@8 004a8ca8     Tcformat.obj
 0002:00019cc4       ??_R4failure@ios_base@std@@6B@ 004a8cc4     Tcformat.obj
 0002:00019cd8       ??_R3failure@ios_base@std@@8 004a8cd8     Tcformat.obj
 0002:00019ce8       ??_R2failure@ios_base@std@@8 004a8ce8     Tcformat.obj
 0002:00019cf8       ??_R1A@?0A@EA@failure@ios_base@std@@8 004a8cf8     Tcformat.obj
 0002:00019d14       ??_R4?$ContainerForward@V?$vector@UHostDevice@@V?$allocator@UHostDevice@@@std@@@std@@@ForEach@CipherShed@@6B@ 004a8d14     Tcformat.obj
 0002:00019d28       ??_R3?$ContainerForward@V?$vector@UHostDevice@@V?$allocator@UHostDevice@@@std@@@std@@@ForEach@CipherShed@@8 004a8d28     Tcformat.obj
 0002:00019d38       ??_R2?$ContainerForward@V?$vector@UHostDevice@@V?$allocator@UHostDevice@@@std@@@std@@@ForEach@CipherShed@@8 004a8d38     Tcformat.obj
 0002:00019d44       ??_R1A@?0A@EA@?$ContainerForward@V?$vector@UHostDevice@@V?$allocator@UHostDevice@@@std@@@std@@@ForEach@CipherShed@@8 004a8d44     Tcformat.obj
 0002:00019d60       ??_R4ParameterIncorrect@CipherShed@@6B@ 004a8d60     BootEncryption.obj
 0002:00019d74       ??_R3ParameterIncorrect@CipherShed@@8 004a8d74     BootEncryption.obj
 0002:00019d84       ??_R2ParameterIncorrect@CipherShed@@8 004a8d84     BootEncryption.obj
 0002:00019d90       ??_R1A@?0A@EA@ParameterIncorrect@CipherShed@@8 004a8d90     BootEncryption.obj
 0002:00019dac       ??_R4TimeOut@CipherShed@@6B@ 004a8dac     BootEncryption.obj
 0002:00019dc0       ??_R3TimeOut@CipherShed@@8 004a8dc0     BootEncryption.obj
 0002:00019dd0       ??_R2TimeOut@CipherShed@@8 004a8dd0     BootEncryption.obj
 0002:00019ddc       ??_R1A@?0A@EA@TimeOut@CipherShed@@8 004a8ddc     BootEncryption.obj
 0002:00019df8       ??_R4?$basic_ostream@DU?$char_traits@D@std@@@std@@6B@ 004a8df8     BootEncryption.obj
 0002:00019e0c       ??_R3?$basic_ostream@DU?$char_traits@D@std@@@std@@8 004a8e0c     BootEncryption.obj
 0002:00019e1c       ??_R2?$basic_ostream@DU?$char_traits@D@std@@@std@@8 004a8e1c     BootEncryption.obj
 0002:00019e30       ??_R1A@?0A@EA@?$basic_ostream@DU?$char_traits@D@std@@@std@@8 004a8e30     BootEncryption.obj
 0002:00019e4c       ??_R1A@A@3FA@?$basic_ios@DU?$char_traits@D@std@@@std@@8 004a8e4c     BootEncryption.obj
 0002:00019e68       ??_R3?$basic_ios@DU?$char_traits@D@std@@@std@@8 004a8e68     BootEncryption.obj
 0002:00019e78       ??_R2?$basic_ios@DU?$char_traits@D@std@@@std@@8 004a8e78     BootEncryption.obj
 0002:00019e88       ??_R1A@?0A@EA@?$basic_ios@DU?$char_traits@D@std@@@std@@8 004a8e88     BootEncryption.obj
 0002:00019ea4       ??_R4?$basic_istream@DU?$char_traits@D@std@@@std@@6B@ 004a8ea4     BootEncryption.obj
 0002:00019eb8       ??_R3?$basic_istream@DU?$char_traits@D@std@@@std@@8 004a8eb8     BootEncryption.obj
 0002:00019ec8       ??_R2?$basic_istream@DU?$char_traits@D@std@@@std@@8 004a8ec8     BootEncryption.obj
 0002:00019edc       ??_R1A@?0A@EA@?$basic_istream@DU?$char_traits@D@std@@@std@@8 004a8edc     BootEncryption.obj
 0002:00019ef8       ??_R4?$basic_iostream@DU?$char_traits@D@std@@@std@@6B@ 004a8ef8     BootEncryption.obj
 0002:00019f0c       ??_R3?$basic_iostream@DU?$char_traits@D@std@@@std@@8 004a8f0c     BootEncryption.obj
 0002:00019f1c       ??_R2?$basic_iostream@DU?$char_traits@D@std@@@std@@8 004a8f1c     BootEncryption.obj
 0002:00019f44       ??_R1A@?0A@EA@?$basic_iostream@DU?$char_traits@D@std@@@std@@8 004a8f44     BootEncryption.obj
 0002:00019f60       ??_R17?0A@EA@?$basic_ostream@DU?$char_traits@D@std@@@std@@8 004a8f60     BootEncryption.obj
 0002:00019f7c       ??_R4?$basic_ios@DU?$char_traits@D@std@@@std@@6B@ 004a8f7c     BootEncryption.obj
 0002:00019f90       ??_R4?$ctype@D@std@@6B@    004a8f90     BootEncryption.obj
 0002:00019fa4       ??_R3?$ctype@D@std@@8      004a8fa4     BootEncryption.obj
 0002:00019fb4       ??_R2?$ctype@D@std@@8      004a8fb4     BootEncryption.obj
 0002:00019fc4       ??_R1A@?0A@EA@?$ctype@D@std@@8 004a8fc4     BootEncryption.obj
 0002:00019fe0       ??_R4SystemException@CipherShed@@6B@ 004a8fe0     BootEncryption.obj
 0002:00019ff4       ??_R3SystemException@CipherShed@@8 004a8ff4     BootEncryption.obj
 0002:0001a004       ??_R2SystemException@CipherShed@@8 004a9004     BootEncryption.obj
 0002:0001a010       ??_R1A@?0A@EA@SystemException@CipherShed@@8 004a9010     BootEncryption.obj
 0002:0001a02c       ??_R4?$basic_streambuf@DU?$char_traits@D@std@@@std@@6B@ 004a902c     BootEncryption.obj
 0002:0001a040       ??_R3?$basic_streambuf@DU?$char_traits@D@std@@@std@@8 004a9040     BootEncryption.obj
 0002:0001a050       ??_R2?$basic_streambuf@DU?$char_traits@D@std@@@std@@8 004a9050     BootEncryption.obj
 0002:0001a058       ??_R1A@?0A@EA@?$basic_streambuf@DU?$char_traits@D@std@@@std@@8 004a9058     BootEncryption.obj
 0002:0001a074       ??_R4?$basic_stringbuf@DU?$char_traits@D@std@@V?$allocator@D@2@@std@@6B@ 004a9074     BootEncryption.obj
 0002:0001a088       ??_R3?$basic_stringbuf@DU?$char_traits@D@std@@V?$allocator@D@2@@std@@8 004a9088     BootEncryption.obj
 0002:0001a098       ??_R2?$basic_stringbuf@DU?$char_traits@D@std@@V?$allocator@D@2@@std@@8 004a9098     BootEncryption.obj
 0002:0001a0a4       ??_R1A@?0A@EA@?$basic_stringbuf@DU?$char_traits@D@std@@V?$allocator@D@2@@std@@8 004a90a4     BootEncryption.obj
 0002:0001a0c0       ??_R4?$num_put@DV?$ostreambuf_iterator@DU?$char_traits@D@std@@@std@@@std@@6B@ 004a90c0     BootEncryption.obj
 0002:0001a0d4       ??_R3?$num_put@DV?$ostreambuf_iterator@DU?$char_traits@D@std@@@std@@@std@@8 004a90d4     BootEncryption.obj
 0002:0001a0e4       ??_R2?$num_put@DV?$ostreambuf_iterator@DU?$char_traits@D@std@@@std@@@std@@8 004a90e4     BootEncryption.obj
 0002:0001a0f0       ??_R1A@?0A@EA@?$num_put@DV?$ostreambuf_iterator@DU?$char_traits@D@std@@@std@@@std@@8 004a90f0     BootEncryption.obj
 0002:0001a10c       ??_R4?$basic_stringstream@DU?$char_traits@D@std@@V?$allocator@D@2@@std@@6B@ 004a910c     BootEncryption.obj
 0002:0001a120       ??_R3?$basic_stringstream@DU?$char_traits@D@std@@V?$allocator@D@2@@std@@8 004a9120     BootEncryption.obj
 0002:0001a130       ??_R2?$basic_stringstream@DU?$char_traits@D@std@@V?$allocator@D@2@@std@@8 004a9130     BootEncryption.obj
 0002:0001a15c       ??_R1A@?0A@EA@?$basic_stringstream@DU?$char_traits@D@std@@V?$allocator@D@2@@std@@8 004a915c     BootEncryption.obj
 0002:0001a178       ??_R4?$numpunct@D@std@@6B@ 004a9178     BootEncryption.obj
 0002:0001a18c       ??_R3?$numpunct@D@std@@8   004a918c     BootEncryption.obj
 0002:0001a19c       ??_R2?$numpunct@D@std@@8   004a919c     BootEncryption.obj
 0002:0001a1a8       ??_R1A@?0A@EA@?$numpunct@D@std@@8 004a91a8     BootEncryption.obj
 0002:0001a1c4       ??_R4ErrorException@CipherShed@@6B@ 004a91c4     BootEncryption.obj
 0002:0001a1d8       ??_R3ErrorException@CipherShed@@8 004a91d8     BootEncryption.obj
 0002:0001a1e8       ??_R2ErrorException@CipherShed@@8 004a91e8     BootEncryption.obj
 0002:0001a1f4       ??_R1A@?0A@EA@ErrorException@CipherShed@@8 004a91f4     BootEncryption.obj
 0002:0001a210       ??_R4?$ContainerForward@V?$list@UPartition@CipherShed@@V?$allocator@UPartition@CipherShed@@@std@@@std@@@ForEach@CipherShed@@6B@ 004a9210     BootEncryption.obj
 0002:0001a224       ??_R3?$ContainerForward@V?$list@UPartition@CipherShed@@V?$allocator@UPartition@CipherShed@@@std@@@std@@@ForEach@CipherShed@@8 004a9224     BootEncryption.obj
 0002:0001a234       ??_R2?$ContainerForward@V?$list@UPartition@CipherShed@@V?$allocator@UPartition@CipherShed@@@std@@@std@@@ForEach@CipherShed@@8 004a9234     BootEncryption.obj
 0002:0001a240       ??_R1A@?0A@EA@?$ContainerForward@V?$list@UPartition@CipherShed@@V?$allocator@UPartition@CipherShed@@@std@@@std@@@ForEach@CipherShed@@8 004a9240     BootEncryption.obj
 0002:0001a25c       ??_R4out_of_range@std@@6B@ 004a925c     Dictionary.obj
 0002:0001a270       ??_R3out_of_range@std@@8   004a9270     Dictionary.obj
 0002:0001a280       ??_R2out_of_range@std@@8   004a9280     Dictionary.obj
 0002:0001a290       ??_R1A@?0A@EA@out_of_range@std@@8 004a9290     Dictionary.obj
 0002:0001a2ac       ??_R4GetPinFunctor@CipherShed@@6B@ 004a92ac     Dlgcode.obj
 0002:0001a2c0       ??_R3GetPinFunctor@CipherShed@@8 004a92c0     Dlgcode.obj
 0002:0001a2d0       ??_R2GetPinFunctor@CipherShed@@8 004a92d0     Dlgcode.obj
 0002:0001a2d8       ??_R1A@?0A@EA@GetPinFunctor@CipherShed@@8 004a92d8     Dlgcode.obj
 0002:0001a2f4       ??_R4SendExceptionFunctor@CipherShed@@6B@ 004a92f4     Dlgcode.obj
 0002:0001a308       ??_R3SendExceptionFunctor@CipherShed@@8 004a9308     Dlgcode.obj
 0002:0001a318       ??_R2SendExceptionFunctor@CipherShed@@8 004a9318     Dlgcode.obj
 0002:0001a320       ??_R1A@?0A@EA@SendExceptionFunctor@CipherShed@@8 004a9320     Dlgcode.obj
 0002:0001a33c       ??_R4PinRequestHandler@?4??InitSecurityTokenLibrary@@9@6B@ 004a933c     Dlgcode.obj
 0002:0001a350       ??_R3PinRequestHandler@?4?InitSecurityTokenLibrary@8 004a9350     Dlgcode.obj
 0002:0001a360       ??_R2PinRequestHandler@?4?InitSecurityTokenLibrary@8 004a9360     Dlgcode.obj
 0002:0001a36c       ??_R1A@?0A@EA@PinRequestHandler@?4?InitSecurityTokenLibrary@8 004a936c     Dlgcode.obj
 0002:0001a388       ??_R4WarningHandler@?5??InitSecurityTokenLibrary@@9@6B@ 004a9388     Dlgcode.obj
 0002:0001a39c       ??_R3WarningHandler@?5?InitSecurityTokenLibrary@8 004a939c     Dlgcode.obj
 0002:0001a3ac       ??_R2WarningHandler@?5?InitSecurityTokenLibrary@8 004a93ac     Dlgcode.obj
 0002:0001a3b8       ??_R1A@?0A@EA@WarningHandler@?5?InitSecurityTokenLibrary@8 004a93b8     Dlgcode.obj
 0002:0001a3d4       ??_R4?$ContainerForward@V?$basic_string@DU?$char_traits@D@std@@V?$allocator@D@2@@std@@@ForEach@CipherShed@@6B@ 004a93d4     Dlgcode.obj
 0002:0001a3e8       ??_R3?$ContainerForward@V?$basic_string@DU?$char_traits@D@std@@V?$allocator@D@2@@std@@@ForEach@CipherShed@@8 004a93e8     Dlgcode.obj
 0002:0001a3f8       ??_R2?$ContainerForward@V?$basic_string@DU?$char_traits@D@std@@V?$allocator@D@2@@std@@@ForEach@CipherShed@@8 004a93f8     Dlgcode.obj
 0002:0001a404       ??_R1A@?0A@EA@?$ContainerForward@V?$basic_string@DU?$char_traits@D@std@@V?$allocator@D@2@@std@@@ForEach@CipherShed@@8 004a9404     Dlgcode.obj
 0002:0001a420       ??_R4?$ContainerForward@V?$list@KV?$allocator@K@std@@@std@@@ForEach@CipherShed@@6B@ 004a9420     Dlgcode.obj
 0002:0001a434       ??_R3?$ContainerForward@V?$list@KV?$allocator@K@std@@@std@@@ForEach@CipherShed@@8 004a9434     Dlgcode.obj
 0002:0001a444       ??_R2?$ContainerForward@V?$list@KV?$allocator@K@std@@@std@@@ForEach@CipherShed@@8 004a9444     Dlgcode.obj
 0002:0001a450       ??_R1A@?0A@EA@?$ContainerForward@V?$list@KV?$allocator@K@std@@@std@@@ForEach@CipherShed@@8 004a9450     Dlgcode.obj
 0002:0001a46c       ??_R4?$ContainerForward@V?$list@USecurityTokenInfo@CipherShed@@V?$allocator@USecurityTokenInfo@CipherShed@@@std@@@std@@@ForEach@CipherShed@@6B@ 004a946c     Dlgcode.obj
 0002:0001a480       ??_R3?$ContainerForward@V?$list@USecurityTokenInfo@CipherShed@@V?$allocator@USecurityTokenInfo@CipherShed@@@std@@@std@@@ForEach@CipherShed@@8 004a9480     Dlgcode.obj
 0002:0001a490       ??_R2?$ContainerForward@V?$list@USecurityTokenInfo@CipherShed@@V?$allocator@USecurityTokenInfo@CipherShed@@@std@@@std@@@ForEach@CipherShed@@8 004a9490     Dlgcode.obj
 0002:0001a49c       ??_R1A@?0A@EA@?$ContainerForward@V?$list@USecurityTokenInfo@CipherShed@@V?$allocator@USecurityTokenInfo@CipherShed@@@std@@@std@@@ForEach@CipherShed@@8 004a949c     Dlgcode.obj
 0002:0001a4b8       ??_R4?$ContainerForward@V?$vector@USecurityTokenKeyfile@CipherShed@@V?$allocator@USecurityTokenKeyfile@CipherShed@@@std@@@std@@@ForEach@CipherShed@@6B@ 004a94b8     Dlgcode.obj
 0002:0001a4cc       ??_R3?$ContainerForward@V?$vector@USecurityTokenKeyfile@CipherShed@@V?$allocator@USecurityTokenKeyfile@CipherShed@@@std@@@std@@@ForEach@CipherShed@@8 004a94cc     Dlgcode.obj
 0002:0001a4dc       ??_R2?$ContainerForward@V?$vector@USecurityTokenKeyfile@CipherShed@@V?$allocator@USecurityTokenKeyfile@CipherShed@@@std@@@std@@@ForEach@CipherShed@@8 004a94dc     Dlgcode.obj
 0002:0001a4e8       ??_R1A@?0A@EA@?$ContainerForward@V?$vector@USecurityTokenKeyfile@CipherShed@@V?$allocator@USecurityTokenKeyfile@CipherShed@@@std@@@std@@@ForEach@CipherShed@@8 004a94e8     Dlgcode.obj
 0002:0001a504       ??_R4?$ContainerForward@V?$list@USecurityTokenKeyfile@CipherShed@@V?$allocator@USecurityTokenKeyfile@CipherShed@@@std@@@std@@@ForEach@CipherShed@@6B@ 004a9504     Dlgcode.obj
 0002:0001a518       ??_R3?$ContainerForward@V?$list@USecurityTokenKeyfile@CipherShed@@V?$allocator@USecurityTokenKeyfile@CipherShed@@@std@@@std@@@ForEach@CipherShed@@8 004a9518     Dlgcode.obj
 0002:0001a528       ??_R2?$ContainerForward@V?$list@USecurityTokenKeyfile@CipherShed@@V?$allocator@USecurityTokenKeyfile@CipherShed@@@std@@@std@@@ForEach@CipherShed@@8 004a9528     Dlgcode.obj
 0002:0001a534       ??_R1A@?0A@EA@?$ContainerForward@V?$list@USecurityTokenKeyfile@CipherShed@@V?$allocator@USecurityTokenKeyfile@CipherShed@@@std@@@std@@@ForEach@CipherShed@@8 004a9534     Dlgcode.obj
 0002:0001a550       ??_R4?$ContainerForward@V?$list@USecurityTokenKeyfilePath@CipherShed@@V?$allocator@USecurityTokenKeyfilePath@CipherShed@@@std@@@std@@@ForEach@CipherShed@@6B@ 004a9550     Keyfiles.obj
 0002:0001a564       ??_R3?$ContainerForward@V?$list@USecurityTokenKeyfilePath@CipherShed@@V?$allocator@USecurityTokenKeyfilePath@CipherShed@@@std@@@std@@@ForEach@CipherShed@@8 004a9564     Keyfiles.obj
 0002:0001a574       ??_R2?$ContainerForward@V?$list@USecurityTokenKeyfilePath@CipherShed@@V?$allocator@USecurityTokenKeyfilePath@CipherShed@@@std@@@std@@@ForEach@CipherShed@@8 004a9574     Keyfiles.obj
 0002:0001a580       ??_R1A@?0A@EA@?$ContainerForward@V?$list@USecurityTokenKeyfilePath@CipherShed@@V?$allocator@USecurityTokenKeyfilePath@CipherShed@@@std@@@std@@@ForEach@CipherShed@@8 004a9580     Keyfiles.obj
 0002:0001a59c       ??_R4Pkcs11Exception@CipherShed@@6B@ 004a959c     SecurityToken.obj
 0002:0001a5b0       ??_R3Pkcs11Exception@CipherShed@@8 004a95b0     SecurityToken.obj
 0002:0001a5c0       ??_R2Pkcs11Exception@CipherShed@@8 004a95c0     SecurityToken.obj
 0002:0001a5cc       ??_R1A@?0A@EA@Pkcs11Exception@CipherShed@@8 004a95cc     SecurityToken.obj
 0002:0001a5e8       ??_R4InvalidSecurityTokenKeyfilePath@CipherShed@@6B@ 004a95e8     SecurityToken.obj
 0002:0001a5fc       ??_R3InvalidSecurityTokenKeyfilePath@CipherShed@@8 004a95fc     SecurityToken.obj
 0002:0001a60c       ??_R2InvalidSecurityTokenKeyfilePath@CipherShed@@8 004a960c     SecurityToken.obj
 0002:0001a618       ??_R1A@?0A@EA@InvalidSecurityTokenKeyfilePath@CipherShed@@8 004a9618     SecurityToken.obj
 0002:0001a634       ??_R4SecurityTokenKeyfileNotFound@CipherShed@@6B@ 004a9634     SecurityToken.obj
 0002:0001a648       ??_R3SecurityTokenKeyfileNotFound@CipherShed@@8 004a9648     SecurityToken.obj
 0002:0001a658       ??_R2SecurityTokenKeyfileNotFound@CipherShed@@8 004a9658     SecurityToken.obj
 0002:0001a664       ??_R1A@?0A@EA@SecurityTokenKeyfileNotFound@CipherShed@@8 004a9664     SecurityToken.obj
 0002:0001a680       ??_R4SecurityTokenLibraryNotInitialized@CipherShed@@6B@ 004a9680     SecurityToken.obj
 0002:0001a694       ??_R3SecurityTokenLibraryNotInitialized@CipherShed@@8 004a9694     SecurityToken.obj
 0002:0001a6a4       ??_R2SecurityTokenLibraryNotInitialized@CipherShed@@8 004a96a4     SecurityToken.obj
 0002:0001a6b0       ??_R1A@?0A@EA@SecurityTokenLibraryNotInitialized@CipherShed@@8 004a96b0     SecurityToken.obj
 0002:0001a6cc       ??_R4SecurityTokenKeyfileAlreadyExists@CipherShed@@6B@ 004a96cc     SecurityToken.obj
 0002:0001a6e0       ??_R3SecurityTokenKeyfileAlreadyExists@CipherShed@@8 004a96e0     SecurityToken.obj
 0002:0001a6f0       ??_R2SecurityTokenKeyfileAlreadyExists@CipherShed@@8 004a96f0     SecurityToken.obj
 0002:0001a6fc       ??_R1A@?0A@EA@SecurityTokenKeyfileAlreadyExists@CipherShed@@8 004a96fc     SecurityToken.obj
 0002:0001a718       ??_R4?$ContainerForward@V?$vector@KV?$allocator@K@std@@@std@@@ForEach@CipherShed@@6B@ 004a9718     SecurityToken.obj
 0002:0001a72c       ??_R3?$ContainerForward@V?$vector@KV?$allocator@K@std@@@std@@@ForEach@CipherShed@@8 004a972c     SecurityToken.obj
 0002:0001a73c       ??_R2?$ContainerForward@V?$vector@KV?$allocator@K@std@@@std@@@ForEach@CipherShed@@8 004a973c     SecurityToken.obj
 0002:0001a748       ??_R1A@?0A@EA@?$ContainerForward@V?$vector@KV?$allocator@K@std@@@std@@@ForEach@CipherShed@@8 004a9748     SecurityToken.obj
 0002:0001a764       ??_R4?$ContainerForward@V?$map@KUPkcs11Session@CipherShed@@U?$less@K@std@@V?$allocator@U?$pair@$$CBKUPkcs11Session@CipherShed@@@std@@@4@@std@@@ForEach@CipherShed@@6B@ 004a9764     SecurityToken.obj
 0002:0001a778       ??_R3?$ContainerForward@V?$map@KUPkcs11Session@CipherShed@@U?$less@K@std@@V?$allocator@U?$pair@$$CBKUPkcs11Session@CipherShed@@@std@@@4@@std@@@ForEach@CipherShed@@8 004a9778     SecurityToken.obj
 0002:0001a788       ??_R2?$ContainerForward@V?$map@KUPkcs11Session@CipherShed@@U?$less@K@std@@V?$allocator@U?$pair@$$CBKUPkcs11Session@CipherShed@@@std@@@4@@std@@@ForEach@CipherShed@@8 004a9788     SecurityToken.obj
 0002:0001a794       ??_R1A@?0A@EA@?$ContainerForward@V?$map@KUPkcs11Session@CipherShed@@U?$less@K@std@@V?$allocator@U?$pair@$$CBKUPkcs11Session@CipherShed@@@std@@@4@@std@@@ForEach@CipherShed@@8 004a9794     SecurityToken.obj
 0002:0001a7b0       ??_R4_Locimp@locale@std@@6B@ 004a97b0     libcpmt:locale0.obj
 0002:0001a7c4       ??_R3_Locimp@locale@std@@8 004a97c4     libcpmt:locale0.obj
 0002:0001a7d4       ??_R2_Locimp@locale@std@@8 004a97d4     libcpmt:locale0.obj
 0002:0001a7e0       ??_R1A@?0A@EA@_Locimp@locale@std@@8 004a97e0     libcpmt:locale0.obj
 0002:0001a7fc       ??_R4type_info@@6B@        004a97fc     LIBCMT:typinfo.obj
 0002:0001a810       ??_R3type_info@@8          004a9810     LIBCMT:typinfo.obj
 0002:0001a820       ??_R2type_info@@8          004a9820     LIBCMT:typinfo.obj
 0002:0001a828       ??_R1A@?0A@EA@type_info@@8 004a9828     LIBCMT:typinfo.obj
 0002:0001a844       ??_R4exception@std@@6B@    004a9844     LIBCMT:stdexcpt.obj
 0002:0001a858       ??_R4bad_cast@std@@6B@     004a9858     LIBCMT:stdexcpt.obj
 0002:0001a86c       ??_R3bad_cast@std@@8       004a986c     LIBCMT:stdexcpt.obj
 0002:0001a87c       ??_R2bad_cast@std@@8       004a987c     LIBCMT:stdexcpt.obj
 0002:0001a888       ??_R1A@?0A@EA@bad_cast@std@@8 004a9888     LIBCMT:stdexcpt.obj
 0002:0001a8a4       ??_R4bad_exception@std@@6B@ 004a98a4     LIBCMT:frame.obj
 0002:0001a8b8       ??_R3bad_exception@std@@8  004a98b8     LIBCMT:frame.obj
 0002:0001a8c8       ??_R2bad_exception@std@@8  004a98c8     LIBCMT:frame.obj
 0002:0001a8d4       ??_R1A@?0A@EA@bad_exception@std@@8 004a98d4     LIBCMT:frame.obj
 0002:0001a8f0       ___safe_se_handler_table   004a98f0     <linker-defined>
 0002:0001ac5c       ___rtc_iaa                 004a9c5c     LIBCMT:_initsect_.obj
 0002:0001ac60       ___rtc_izz                 004a9c60     LIBCMT:_initsect_.obj
 0002:0001ac64       ___rtc_taa                 004a9c64     LIBCMT:_initsect_.obj
 0002:0001ac68       ___rtc_tzz                 004a9c68     LIBCMT:_initsect_.obj
 0002:0001ac70       __TI2?AUUserAbort@CipherShed@@ 004a9c70     FormatCom.obj
 0002:0001ac80       __CTA2?AUUserAbort@CipherShed@@ 004a9c80     FormatCom.obj
 0002:0001ac8c       __CT??_R0?AUUserAbort@CipherShed@@@8??0UserAbort@CipherShed@@QAE@ABU01@@Z4 004a9c8c     FormatCom.obj
 0002:0001aca8       __CT??_R0?AUException@CipherShed@@@8??0Exception@CipherShed@@QAE@ABU01@@Z4 004a9ca8     FormatCom.obj
 0002:0001acc4       __TI2?AVbad_alloc@std@@    004a9cc4     InPlace.obj
 0002:0001acd4       __CTA2?AVbad_alloc@std@@   004a9cd4     InPlace.obj
 0002:0001ace0       __CT??_R0?AVbad_alloc@std@@@8??0bad_alloc@std@@QAE@ABV01@@Z12 004a9ce0     InPlace.obj
 0002:0001acfc       __CT??_R0?AVexception@std@@@8??0exception@std@@QAE@ABV01@@Z12 004a9cfc     InPlace.obj
 0002:0001b950       __TI3?AVlength_error@std@@ 004aa950     Tcformat.obj
 0002:0001b960       __CTA3?AVlength_error@std@@ 004aa960     Tcformat.obj
 0002:0001b970       __CT??_R0?AVlength_error@std@@@8??0length_error@std@@QAE@ABV01@@Z40 004aa970     Tcformat.obj
 0002:0001b98c       __CT??_R0?AVlogic_error@std@@@8??0logic_error@std@@QAE@ABV01@@Z40 004aa98c     Tcformat.obj
 0002:0001b9a8       __TI2?AVbad_cast@std@@     004aa9a8     Tcformat.obj
 0002:0001b9b8       __CTA2?AVbad_cast@std@@    004aa9b8     Tcformat.obj
 0002:0001b9c4       __CT??_R0?AVbad_cast@std@@@8??0bad_cast@std@@QAE@ABV01@@Z12 004aa9c4     Tcformat.obj
 0002:0001ba2c       __TI3?AVfailure@ios_base@std@@ 004aaa2c     Tcformat.obj
 0002:0001ba78       __CTA3?AVfailure@ios_base@std@@ 004aaa78     Tcformat.obj
 0002:0001ba88       __CT??_R0?AVfailure@ios_base@std@@@8??0failure@ios_base@std@@QAE@ABV012@@Z40 004aaa88     Tcformat.obj
 0002:0001baa4       __CT??_R0?AVruntime_error@std@@@8??0runtime_error@std@@QAE@ABV01@@Z40 004aaaa4     Tcformat.obj
 0002:0001c9b8       __TI1?AVCAtlException@ATL@@ 004ab9b8     BaseCom.obj
 0002:0001c9c8       __CTA1?AVCAtlException@ATL@@ 004ab9c8     BaseCom.obj
 0002:0001c9d0       __CT??_R0?AVCAtlException@ATL@@@84 004ab9d0     BaseCom.obj
 0002:0001cd04       __TI2?AUSystemException@CipherShed@@ 004abd04     BootEncryption.obj
 0002:0001cd14       __CTA2?AUSystemException@CipherShed@@ 004abd14     BootEncryption.obj
 0002:0001cd20       __CT??_R0?AUSystemException@CipherShed@@@8??0SystemException@CipherShed@@QAE@ABU01@@Z8 004abd20     BootEncryption.obj
 0002:0001cd3c       __TI2?AUParameterIncorrect@CipherShed@@ 004abd3c     BootEncryption.obj
 0002:0001cd78       __CTA2?AUParameterIncorrect@CipherShed@@ 004abd78     BootEncryption.obj
 0002:0001cd84       __CT??_R0?AUParameterIncorrect@CipherShed@@@8??0ParameterIncorrect@CipherShed@@QAE@ABU01@@Z8 004abd84     BootEncryption.obj
 0002:0001d384       __TI2?AUErrorException@CipherShed@@ 004ac384     BootEncryption.obj
 0002:0001d400       __CTA2?AUErrorException@CipherShed@@ 004ac400     BootEncryption.obj
 0002:0001d40c       __CT??_R0?AUErrorException@CipherShed@@@8??0ErrorException@CipherShed@@QAE@ABU01@@Z36 004ac40c     BootEncryption.obj
 0002:0001e2f8       __TI2?AUTimeOut@CipherShed@@ 004ad2f8     BootEncryption.obj
 0002:0001e308       __CTA2?AUTimeOut@CipherShed@@ 004ad308     BootEncryption.obj
 0002:0001e314       __CT??_R0?AUTimeOut@CipherShed@@@8??0TimeOut@CipherShed@@QAE@ABU01@@Z4 004ad314     BootEncryption.obj
 0002:0001e454       __TI3?AVout_of_range@std@@ 004ad454     Dictionary.obj
 0002:0001e464       __CTA3?AVout_of_range@std@@ 004ad464     Dictionary.obj
 0002:0001e474       __CT??_R0?AVout_of_range@std@@@8??0out_of_range@std@@QAE@ABV01@@Z40 004ad474     Dictionary.obj
 0002:0001f82c       __TI2?AUSecurityTokenLibraryNotInitialized@CipherShed@@ 004ae82c     SecurityToken.obj
 0002:0001f83c       __CTA2?AUSecurityTokenLibraryNotInitialized@CipherShed@@ 004ae83c     SecurityToken.obj
 0002:0001f848       __CT??_R0?AUSecurityTokenLibraryNotInitialized@CipherShed@@@8??0SecurityTokenLibraryNotInitialized@CipherShed@@QAE@ABU01@@Z4 004ae848     SecurityToken.obj
 0002:0001f914       __TI2?AUPkcs11Exception@CipherShed@@ 004ae914     SecurityToken.obj
 0002:0001f960       __CTA2?AUPkcs11Exception@CipherShed@@ 004ae960     SecurityToken.obj
 0002:0001f96c       __CT??_R0?AUPkcs11Exception@CipherShed@@@8??0Pkcs11Exception@CipherShed@@QAE@ABU01@@Z24 004ae96c     SecurityToken.obj
 0002:0002004c       __TI2?AUSecurityTokenKeyfileNotFound@CipherShed@@ 004af04c     SecurityToken.obj
 0002:0002005c       __TI2?AUInvalidSecurityTokenKeyfilePath@CipherShed@@ 004af05c     SecurityToken.obj
 0002:000200d8       __CTA2?AUInvalidSecurityTokenKeyfilePath@CipherShed@@ 004af0d8     SecurityToken.obj
 0002:000200e4       __CT??_R0?AUInvalidSecurityTokenKeyfilePath@CipherShed@@@8??0InvalidSecurityTokenKeyfilePath@CipherShed@@QAE@ABU01@@Z4 004af0e4     SecurityToken.obj
 0002:00020100       __CTA2?AUSecurityTokenKeyfileNotFound@CipherShed@@ 004af100     SecurityToken.obj
 0002:0002010c       __CT??_R0?AUSecurityTokenKeyfileNotFound@CipherShed@@@8??0SecurityTokenKeyfileNotFound@CipherShed@@QAE@ABU01@@Z4 004af10c     SecurityToken.obj
 0002:00020128       __TI2?AUSecurityTokenKeyfileAlreadyExists@CipherShed@@ 004af128     SecurityToken.obj
 0002:00020184       __CTA2?AUSecurityTokenKeyfileAlreadyExists@CipherShed@@ 004af184     SecurityToken.obj
 0002:00020190       __CT??_R0?AUSecurityTokenKeyfileAlreadyExists@CipherShed@@@8??0SecurityTokenKeyfileAlreadyExists@CipherShed@@QAE@ABU01@@Z4 004af190     SecurityToken.obj
 0002:00020674       __TI2?AVbad_exception@std@@ 004af674     LIBCMT:frame.obj
 0002:00020684       __CTA2?AVbad_exception@std@@ 004af684     LIBCMT:frame.obj
 0002:00020690       __CT??_R0?AVbad_exception@std@@@8??0bad_exception@std@@QAE@ABV01@@Z12 004af690     LIBCMT:frame.obj
 0002:00020a5c       __IMPORT_DESCRIPTOR_COMCTL32 004afa5c     comctl32:COMCTL32.dll
 0002:00020a70       __IMPORT_DESCRIPTOR_SETUPAPI 004afa70     setupapi:SETUPAPI.dll
 0002:00020a84       __IMPORT_DESCRIPTOR_KERNEL32 004afa84     kernel32:KERNEL32.dll
 0002:00020a98       __IMPORT_DESCRIPTOR_USER32 004afa98     user32:USER32.dll
 0002:00020aac       __IMPORT_DESCRIPTOR_GDI32  004afaac     gdi32:GDI32.dll
 0002:00020ac0       __IMPORT_DESCRIPTOR_COMDLG32 004afac0     comdlg32:COMDLG32.dll
 0002:00020ad4       __IMPORT_DESCRIPTOR_ADVAPI32 004afad4     advapi32:ADVAPI32.dll
 0002:00020ae8       __IMPORT_DESCRIPTOR_SHELL32 004afae8     shell32:SHELL32.dll
 0002:00020afc       __IMPORT_DESCRIPTOR_ole32  004afafc     ole32:ole32.dll
 0002:00020b10       __IMPORT_DESCRIPTOR_OLEAUT32 004afb10     oleaut32:OLEAUT32.dll
 0002:00020b24       __NULL_IMPORT_DESCRIPTOR   004afb24     comctl32:COMCTL32.dll
 0003:00000004       ??_R0?AUException@CipherShed@@@8 004b2004     FormatCom.obj
 0003:00000028       ??_R0?AUUserAbort@CipherShed@@@8 004b2028     FormatCom.obj
 0003:0000004c       ??_R0?AV?$CipherShedFactory@VCipherShedFormatCom@@@@@8 004b204c     FormatCom.obj
 0003:00000088       ??_R0?AUIClassFactory@@@8  004b2088     FormatCom.obj
 0003:000000a4       ??_R0?AUIUnknown@@@8       004b20a4     FormatCom.obj
 0003:000000bc       ??_R0?AVCipherShedFormatCom@@@8 004b20bc     FormatCom.obj
 0003:000000e0       ??_R0?AUICipherShedFormatCom@@@8 004b20e0     FormatCom.obj
 0003:00000108       ??_R0?AVbad_alloc@std@@@8  004b2108     InPlace.obj
 0003:00000124       ??_R0?AVexception@std@@@8  004b2124     InPlace.obj
 0003:00000144       ?nCurPageNo@@3HA           004b2144     Tcformat.obj
 0003:00000148       ?nLastPageNo@@3HA          004b2148     Tcformat.obj
 0003:0000014c       ?nVolumeEA@@3HA            004b214c     Tcformat.obj
 0003:00000150       ?SysEncDetectHiddenSectors@@3HA 004b2150     Tcformat.obj
 0003:00000154       ?hiddenVolHostDriveNo@@3HA 004b2154     Tcformat.obj
 0003:00000158       ?hash_algo@@3HA            004b2158     Tcformat.obj
 0003:0000015c       ?nMultiplier@@3HA          004b215c     Tcformat.obj
 0003:00000160       _showKeys                  004b2160     Tcformat.obj
 0003:00000164       ?OrigKeyboardLayout@@3PADA 004b2164     Tcformat.obj
 0003:00000170       _bWarnDeviceFormatAdvanced 004b2170     Tcformat.obj
 0003:00000174       ?bWarnOuterVolSuitableFileSys@@3HA 004b2174     Tcformat.obj
 0003:00000178       ?bDisplayPoolContents@@3HA 004b2178     Tcformat.obj
 0003:00000180       ?SysEncMultiBootCfgOutcome@@3PA_WA 004b2180     Tcformat.obj
 0003:00002180       ??_R0?AVfacet@locale@std@@@8 004b4180     Tcformat.obj
 0003:000021a0       ??_R0?AUctype_base@std@@@8 004b41a0     Tcformat.obj
 0003:000021c0       ??_R0?AVios_base@std@@@8   004b41c0     Tcformat.obj
 0003:000021dc       ??_R0?AV?$_Iosb@H@std@@@8  004b41dc     Tcformat.obj
 0003:000021f8       ??_R0?AUContainer@ForEach@CipherShed@@@8 004b41f8     Tcformat.obj
 0003:00002224       ??_R0?AUTimeOut@CipherShed@@@8 004b4224     Tcformat.obj
 0003:00002248       ??_R0?AV?$basic_ostream@_WU?$char_traits@_W@std@@@std@@@8 004b4248     Tcformat.obj
 0003:00002284       ??_R0?AV?$basic_ios@_WU?$char_traits@_W@std@@@std@@@8 004b4284     Tcformat.obj
 0003:000022bc       ??_R0?AV?$basic_istream@_WU?$char_traits@_W@std@@@std@@@8 004b42bc     Tcformat.obj
 0003:000022f8       ??_R0?AV?$basic_iostream@_WU?$char_traits@_W@std@@@std@@@8 004b42f8     Tcformat.obj
 0003:00002338       ??_R0?AV?$ctype@_W@std@@@8 004b4338     Tcformat.obj
 0003:00002358       ??_R0?AV?$basic_streambuf@_WU?$char_traits@_W@std@@@std@@@8 004b4358     Tcformat.obj
 0003:00002398       ??_R0?AV?$basic_stringbuf@_WU?$char_traits@_W@std@@V?$allocator@_W@2@@std@@@8 004b4398     Tcformat.obj
 0003:000023e8       ??_R0?AV?$num_put@_WV?$ostreambuf_iterator@_WU?$char_traits@_W@std@@@std@@@std@@@8 004b43e8     Tcformat.obj
 0003:00002440       ??_R0?AV?$basic_stringstream@_WU?$char_traits@_W@std@@V?$allocator@_W@2@@std@@@8 004b4440     Tcformat.obj
 0003:00002494       ??_R0?AV?$numpunct@_W@std@@@8 004b4494     Tcformat.obj
 0003:000024b4       ??_R0?AVlogic_error@std@@@8 004b44b4     Tcformat.obj
 0003:000024d4       ??_R0?AVruntime_error@std@@@8 004b44d4     Tcformat.obj
 0003:000024f4       ??_R0?AVlength_error@std@@@8 004b44f4     Tcformat.obj
 0003:00002514       ??_R0?AVfailure@ios_base@std@@@8 004b4514     Tcformat.obj
 0003:00002538       ??_R0?AVbad_cast@std@@@8   004b4538     Tcformat.obj
 0003:00002558       ??_R0?AU?$ContainerForward@V?$vector@UHostDevice@@V?$allocator@UHostDevice@@@std@@@std@@@ForEach@CipherShed@@@8 004b4558     Tcformat.obj
 0003:000025cc       ??_R0?AUSystemException@CipherShed@@@8 004b45cc     Tcformat.obj
 0003:000025fc       ??_R0?AVCAtlException@ATL@@@8 004b45fc     BaseCom.obj
 0003:00002620       ??_R0?AUParameterIncorrect@CipherShed@@@8 004b4620     BootEncryption.obj
 0003:0000264c       ??_R0?AV?$basic_ostream@DU?$char_traits@D@std@@@std@@@8 004b464c     BootEncryption.obj
 0003:00002688       ??_R0?AV?$basic_ios@DU?$char_traits@D@std@@@std@@@8 004b4688     BootEncryption.obj
 0003:000026c0       ??_R0?AV?$basic_istream@DU?$char_traits@D@std@@@std@@@8 004b46c0     BootEncryption.obj
 0003:000026fc       ??_R0?AV?$basic_iostream@DU?$char_traits@D@std@@@std@@@8 004b46fc     BootEncryption.obj
 0003:00002738       ??_R0?AV?$ctype@D@std@@@8  004b4738     BootEncryption.obj
 0003:00002754       ??_R0?AV?$basic_streambuf@DU?$char_traits@D@std@@@std@@@8 004b4754     BootEncryption.obj
 0003:00002790       ??_R0?AV?$basic_stringbuf@DU?$char_traits@D@std@@V?$allocator@D@2@@std@@@8 004b4790     BootEncryption.obj
 0003:000027e0       ??_R0?AV?$num_put@DV?$ostreambuf_iterator@DU?$char_traits@D@std@@@std@@@std@@@8 004b47e0     BootEncryption.obj
 0003:00002838       ??_R0?AV?$basic_stringstream@DU?$char_traits@D@std@@V?$allocator@D@2@@std@@@8 004b4838     BootEncryption.obj
 0003:00002888       ??_R0?AV?$numpunct@D@std@@@8 004b4888     BootEncryption.obj
 0003:000028a8       ??_R0?AUErrorException@CipherShed@@@8 004b48a8     BootEncryption.obj
 0003:000028d0       ??_R0?AU?$ContainerForward@V?$list@UPartition@CipherShed@@V?$allocator@UPartition@CipherShed@@@std@@@std@@@ForEach@CipherShed@@@8 004b48d0     BootEncryption.obj
 0003:00002958       _crc_32_tab                004b4958     Crc.obj
 0003:000030d4       ??_R0?AVout_of_range@std@@@8 004b50d4     Dictionary.obj
 0003:000030fc       _ScreenDPI                 004b50fc     Dlgcode.obj
 0003:00003100       ?DPIScaleFactorX@@3NA      004b5100     Dlgcode.obj
 0003:00003108       ?DPIScaleFactorY@@3NA      004b5108     Dlgcode.obj
 0003:00003110       _DlgAspectRatio            004b5110     Dlgcode.obj
 0003:00003118       _bPreserveTimestamp        004b5118     Dlgcode.obj
 0003:0000311c       _hDriver                   004b511c     Dlgcode.obj
 0003:00003120       ?benchmarkBufferSize@@3HA  004b5120     Dlgcode.obj
 0003:00003124       ?benchmarkLastBufferSize@@3HA 004b5124     Dlgcode.obj
 0003:00003128       ?benchmarkSortMethod@@3HA  004b5128     Dlgcode.obj
 0003:0000312c       ?ExtraBootPartitionDevicePath@@3V?$basic_string@DU?$char_traits@D@std@@V?$allocator@D@2@@std@@A 004b512c     Dlgcode.obj
 0003:00003148       ??_R0?AUGetPinFunctor@CipherShed@@@8 004b5148     Dlgcode.obj
 0003:00003170       ??_R0?AUSendExceptionFunctor@CipherShed@@@8 004b5170     Dlgcode.obj
 0003:00003494       ??_R0?AUPinRequestHandler@?4?InitSecurityTokenLibrary@@8 004b5494     Dlgcode.obj
 0003:000034d0       ??_R0?AUWarningHandler@?5?InitSecurityTokenLibrary@@8 004b54d0     Dlgcode.obj
 0003:00003510       ??_R0?AU?$ContainerForward@V?$basic_string@DU?$char_traits@D@std@@V?$allocator@D@2@@std@@@ForEach@CipherShed@@@8 004b5510     Dlgcode.obj
 0003:00003588       ??_R0?AU?$ContainerForward@V?$list@KV?$allocator@K@std@@@std@@@ForEach@CipherShed@@@8 004b5588     Dlgcode.obj
 0003:000035e0       ??_R0?AU?$ContainerForward@V?$list@USecurityTokenInfo@CipherShed@@V?$allocator@USecurityTokenInfo@CipherShed@@@std@@@std@@@ForEach@CipherShed@@@8 004b55e0     Dlgcode.obj
 0003:00003678       ??_R0?AU?$ContainerForward@V?$vector@USecurityTokenKeyfile@CipherShed@@V?$allocator@USecurityTokenKeyfile@CipherShed@@@std@@@std@@@ForEach@CipherShed@@@8 004b5678     Dlgcode.obj
 0003:00003718       ??_R0?AU?$ContainerForward@V?$list@USecurityTokenKeyfile@CipherShed@@V?$allocator@USecurityTokenKeyfile@CipherShed@@@std@@@std@@@ForEach@CipherShed@@@8 004b5718     Dlgcode.obj
 0003:000037b4       _FormatWriteBufferSize     004b57b4     Format.obj
 0003:000037d0       ??_R0?AU?$ContainerForward@V?$list@USecurityTokenKeyfilePath@CipherShed@@V?$allocator@USecurityTokenKeyfilePath@CipherShed@@@std@@@std@@@ForEach@CipherShed@@@8 004b57d0     Keyfiles.obj
 0003:0000387c       _bFastPollEnabled          004b587c     Random.obj
 0003:00003880       _bRandmixEnabled           004b5880     Random.obj
 0003:00003890       ??_R0?AUPkcs11Exception@CipherShed@@@8 004b5890     SecurityToken.obj
 0003:000038bc       ??_R0?AUInvalidSecurityTokenKeyfilePath@CipherShed@@@8 004b58bc     SecurityToken.obj
 0003:000038f8       ??_R0?AUSecurityTokenKeyfileNotFound@CipherShed@@@8 004b58f8     SecurityToken.obj
 0003:00003930       ??_R0?AUSecurityTokenLibraryNotInitialized@CipherShed@@@8 004b5930     SecurityToken.obj
 0003:0000396c       ??_R0?AUSecurityTokenKeyfileAlreadyExists@CipherShed@@@8 004b596c     SecurityToken.obj
 0003:000039a8       ??_R0?AU?$ContainerForward@V?$vector@KV?$allocator@K@std@@@std@@@ForEach@CipherShed@@@8 004b59a8     SecurityToken.obj
 0003:00003a08       ??_R0?AU?$ContainerForward@V?$map@KUPkcs11Session@CipherShed@@U?$less@K@std@@V?$allocator@U?$pair@$$CBKUPkcs11Session@CipherShed@@@std@@@4@@std@@@ForEach@CipherShed@@@8 004b5a08     SecurityToken.obj
 0003:00003ab8       _XTS_vectors               004b5ab8     Tests.obj
 0003:00005034       _hmac_whirlpool_test_key   004b7034     Tests.obj
 0003:00005038       _bf_ecb_vectors            004b7038     Tests.obj
 0003:00005368       _tripledes_vectors         004b7368     Tests.obj
 0003:00005390       _cast_ecb_vectors          004b7390     Tests.obj
 0003:000053b0       _aes_ecb_vectors           004b73b0     Tests.obj
 0003:000053f0       _serpent_vectors           004b73f0     Tests.obj
 0003:00005430       _twofish_vectors           004b7430     Tests.obj
 0003:00005470       _hmac_sha512_test_keys     004b7470     Tests.obj
 0003:00005488       _hmac_sha512_test_data     004b7488     Tests.obj
 0003:000054a0       _hmac_sha512_test_vectors  004b74a0     Tests.obj
 0003:000054b8       _hmac_sha1_test_keys       004b74b8     Tests.obj
 0003:000054c8       _hmac_sha1_test_data       004b74c8     Tests.obj
 0003:000054d8       _hmac_sha1_test_vectors    004b74d8     Tests.obj
 0003:000054e8       _hmac_ripemd160_test_keys  004b74e8     Tests.obj
 0003:000054f0       _hmac_ripemd160_test_data  004b74f0     Tests.obj
 0003:000054f8       _hmac_ripemd160_test_vectors 004b74f8     Tests.obj
 0003:00005500       _hmac_whirlpool_test_data  004b7500     Tests.obj
 0003:00005504       _hmac_whirlpool_test_vectors 004b7504     Tests.obj
 0003:00005508       _lrw_vectors               004b7508     Tests.obj
 0003:0000571c       ??_R0?AV_Locimp@locale@std@@@8 004b771c     libcpmt:locale0.obj
 0003:00005744       ?_Sync@ios_base@std@@0_NA  004b7744     libcpmt:ios.obj
 0003:00005758       ?_PJP_CPP_Copyright@@3PADA 004b7758     libcpmt:iosptrs.obj
 0003:000057b8       ??_R0?AVtype_info@@@8      004b77b8     LIBCMT:typinfo.obj
 0003:000057e0       ___security_cookie         004b77e0     LIBCMT:gs_cookie.obj
 0003:000057e4       ___security_cookie_complement 004b77e4     LIBCMT:gs_cookie.obj
 0003:000057f0       __aexit_rtn                004b77f0     LIBCMT:crt0dat.obj
 0003:000057f4       __fltused                  004b77f4     LIBCMT:_fpinit_.obj
 0003:000057f8       __ldused                   004b77f8     LIBCMT:_fpinit_.obj
 0003:00005970       ___lconv_static_decimal    004b7970     LIBCMT:lconv.obj
 0003:00005974       ___lconv_c                 004b7974     LIBCMT:lconv.obj
 0003:000059a4       ___lconv                   004b79a4     LIBCMT:lconv.obj
 0003:000059b0       ___app_type                004b79b0     LIBCMT:wincrt0.obj
 0003:000059c0       __pctype                   004b79c0     LIBCMT:ctype.obj
 0003:000059c4       __pwctype                  004b79c4     LIBCMT:ctype.obj
 0003:000059c8       ___abort_behavior          004b79c8     LIBCMT:abort.obj
 0003:000059d4       ??_R0?AVbad_exception@std@@@8 004b79d4     LIBCMT:frame.obj
 0003:00005ab8       ___flsindex                004b7ab8     LIBCMT:tidtable.obj
 0003:00005abc       ___getvalueindex           004b7abc     LIBCMT:tidtable.obj
 0003:00005ac0       __amblksiz                 004b7ac0     LIBCMT:heapinit.obj
 0003:00005be8       ___nullstring              004b7be8     LIBCMT:output.obj
 0003:00005bec       ___wnullstring             004b7bec     LIBCMT:output.obj
 0003:00005bf0       __iob                      004b7bf0     LIBCMT:_file.obj
 0003:00005e70       ___badioinfo               004b7e70     LIBCMT:ioinit.obj
 0003:00005eb0       __cfltcvt_tab              004b7eb0     LIBCMT:cmiscdat.obj
 0003:00005ed8       __First_FPE_Indx           004b7ed8     LIBCMT:winxfltr.obj
 0003:00005edc       __Num_FPE                  004b7edc     LIBCMT:winxfltr.obj
 0003:00005ee0       __XcptActTabSize           004b7ee0     LIBCMT:winxfltr.obj
 0003:00005ee4       __XcptActTabCount          004b7ee4     LIBCMT:winxfltr.obj
 0003:00005ee8       ___globallocalestatus      004b7ee8     LIBCMT:glstatus.obj
 0003:00005ef0       ___clocalestr              004b7ef0     LIBCMT:nlsdata2.obj
 0003:00005ef8       ___initiallocinfo          004b7ef8     LIBCMT:nlsdata2.obj
 0003:00005fd0       ___ptlocinfo               004b7fd0     LIBCMT:nlsdata2.obj
 0003:00005fd4       ___lc_clike                004b7fd4     LIBCMT:nlsdata2.obj
 0003:00005fd8       ___initiallocalestructinfo 004b7fd8     LIBCMT:nlsdata2.obj
 0003:00005fe0       ___initialmbcinfo          004b7fe0     LIBCMT:mbctype.obj
 0003:00006200       __mbctype                  004b8200     LIBCMT:mbctype.obj
 0003:00006308       __mbcasemap                004b8308     LIBCMT:mbctype.obj
 0003:00006408       ___ptmbcinfo               004b8408     LIBCMT:mbctype.obj
 0003:00006510       __lookuptrailbytes         004b8510     LIBCMT:read.obj
 0003:00006610       ___lc_time_c               004b8610     LIBCMT:strftime.obj
 0003:000066c8       ___lc_time_curr            004b86c8     LIBCMT:strftime.obj
 0003:000066cc       ___mb_cur_max              004b86cc     LIBCMT:nlsdata1.obj
 0003:000066d0       ___decimal_point           004b86d0     LIBCMT:nlsdata1.obj
 0003:000066d4       ___decimal_point_length    004b86d4     LIBCMT:nlsdata1.obj
 0003:000066e0       __NLG_Destination          004b86e0     LIBCMT:exsup.obj
 0003:000066f0       __matherr_flag             004b86f0     LIBCMT:_matherr_.obj
 0003:000067e0       __d_inf                    004b87e0     LIBCMT:_util_.obj
 0003:000067e8       __d_ind                    004b87e8     LIBCMT:_util_.obj
 0003:000067f0       __d_max                    004b87f0     LIBCMT:_util_.obj
 0003:000067f8       __d_min                    004b87f8     LIBCMT:_util_.obj
 0003:00006800       __d_mzero                  004b8800     LIBCMT:_util_.obj
 0003:00006824       __coninpfh                 004b8824     LIBCMT:initcon.obj
 0003:00006828       __confh                    004b8828     LIBCMT:initcon.obj
 0003:00006848       __timezone                 004b8848     LIBCMT:timeset.obj
 0003:0000684c       __daylight                 004b884c     LIBCMT:timeset.obj
 0003:00006850       __dstbias                  004b8850     LIBCMT:timeset.obj
 0003:000068d8       __tzname                   004b88d8     LIBCMT:timeset.obj
 0003:000068e0       __lpdays                   004b88e0     LIBCMT:days.obj
 0003:00006914       __days                     004b8914     LIBCMT:days.obj
 0003:00006980       __pow10pos                 004b8980     LIBCMT:_constpow_.obj
 0003:00006ae0       __pow10neg                 004b8ae0     LIBCMT:_constpow_.obj
 0003:00006c48       ?SysEncMultiBootCfg@@3USYSENC_MULTIBOOT_CFG@@A 004b8c48     Tcformat.obj
 0003:00006c5c       ?SysEncDriveAnalysisStart@@3HA 004b8c5c     Tcformat.obj
 0003:00006c60       ?szFileName@@3PADA         004b8c60     Tcformat.obj
 0003:00006d68       ?outRandPoolDispBuffer@@3PAEA 004b8d68     Tcformat.obj
 0003:00006ee0       _HeaderKeyGUIView          004b8ee0     Tcformat.obj
 0003:00006f20       ?szTmpPas@@3PADA           004b8f20     Tcformat.obj
 0003:00006f68       ?szRawPassword@@3PA_WA     004b8f68     Tcformat.obj
 0003:00006ff0       ?volumePassword@@3UPassword@@A 004b8ff0     Tcformat.obj
 0003:00007038       ?szDiskFile@@3PADA         004b9038     Tcformat.obj
 0003:00007140       ?realClusterSize@@3HA      004b9140     Tcformat.obj
 0003:00007148       ?BootEncStatus@@3UBootEncryptionStatus@@A 004b9148     Tcformat.obj
 0003:000071a8       ?randPool@@3PAEA           004b91a8     Tcformat.obj
 0003:00007220       ?szRescueDiskISO@@3PADA    004b9220     Tcformat.obj
 0003:00007328       _MasterKeyGUIView          004b9328     Tcformat.obj
 0003:00007368       ?lastRandPool@@3PAEA       004b9368     Tcformat.obj
 0003:000073e0       ?szVerify@@3PA_WA          004b93e0     Tcformat.obj
 0003:00007464       ?BootEncObj@@3PAVBootEncryption@CipherShed@@A 004b9464     Tcformat.obj
 0003:00007468       _hCurPage                  004b9468     Tcformat.obj
 0003:0000746c       _WizardMode                004b946c     Tcformat.obj
 0003:00007470       ?bHiddenOS@@3HC            004b9470     Tcformat.obj
 0003:00007474       ?bDirectSysEncMode@@3HA    004b9474     Tcformat.obj
 0003:00007478       ?bDirectSysEncModeCommand@@3HA 004b9478     Tcformat.obj
 0003:0000747c       ?DirectDeviceEncMode@@3HA  004b947c     Tcformat.obj
 0003:00007480       ?DirectNonSysInplaceEncResumeMode@@3HA 004b9480     Tcformat.obj
 0003:00007484       ?DirectPromptNonSysInplaceEncResumeMode@@3HA 004b9484     Tcformat.obj
 0003:00007488       _bInPlaceEncNonSys         004b9488     Tcformat.obj
 0003:0000748c       _bInPlaceEncNonSysResumed  004b948c     Tcformat.obj
 0003:00007490       _bFirstNonSysInPlaceEncResumeDone 004b9490     Tcformat.obj
 0003:00007494       ?bDeviceTransformModeChoiceMade@@3HA 004b9494     Tcformat.obj
 0003:00007498       _NonSysInplaceEncBytesDone 004b9498     Tcformat.obj
 0003:000074a0       _NonSysInplaceEncTotalSize 004b94a0     Tcformat.obj
 0003:000074a8       ?nNeedToStoreFilesOver4GB@@3HA 004b94a8     Tcformat.obj
 0003:000074ac       ?bSystemEncryptionInProgress@@3HA 004b94ac     Tcformat.obj
 0003:000074b0       ?bWholeSysDrive@@3HA       004b94b0     Tcformat.obj
 0003:000074b8       ?bSysEncDriveAnalysisInProgress@@3HC 004b94b8     Tcformat.obj
 0003:000074bc       ?bSysEncDriveAnalysisTimeOutOccurred@@3HC 004b94bc     Tcformat.obj
 0003:000074c0       ?bDontVerifyRescueDisk@@3HA 004b94c0     Tcformat.obj
 0003:000074c4       ?bFirstSysEncResumeDone@@3HA 004b94c4     Tcformat.obj
 0003:000074c8       ?nMultiBoot@@3HA           004b94c8     Tcformat.obj
 0003:000074cc       ?bHiddenVol@@3HC           004b94cc     Tcformat.obj
 0003:000074d0       _bHiddenVolHost            004b94d0     Tcformat.obj
 0003:000074d4       _bHiddenVolDirect          004b94d4     Tcformat.obj
 0003:000074d8       ?bHiddenVolFinished@@3HC   004b94d8     Tcformat.obj
 0003:000074dc       _bRemovableHostDevice      004b94dc     Tcformat.obj
 0003:000074e0       ?nUIVolumeSize@@3_KA       004b94e0     Tcformat.obj
 0003:000074e8       ?nVolumeSize@@3_KA         004b94e8     Tcformat.obj
 0003:000074f0       ?nHiddenVolHostSize@@3_KA  004b94f0     Tcformat.obj
 0003:000074f8       ?nMaximumHiddenVolSize@@3_JA 004b94f8     Tcformat.obj
 0003:00007500       ?nbrFreeClusters@@3_JA     004b9500     Tcformat.obj
 0003:00007508       ?bDeviceWipeInProgress@@3HA 004b9508     Tcformat.obj
 0003:0000750c       ?bTryToCorrectReadErrors@@3HC 004b950c     Tcformat.obj
 0003:00007510       ?DiscardUnreadableEncryptedSectors@@3HC 004b9510     Tcformat.obj
 0003:00007514       _bVolTransformThreadCancel 004b9514     Tcformat.obj
 0003:00007518       ?bVolTransformThreadRunning@@3HC 004b9518     Tcformat.obj
 0003:0000751c       ?bVolTransformThreadToRun@@3HC 004b951c     Tcformat.obj
 0003:00007520       ?bConfirmQuit@@3HC         004b9520     Tcformat.obj
 0003:00007524       ?bConfirmQuitSysEncPretest@@3HC 004b9524     Tcformat.obj
 0003:00007528       ?bDevice@@3HA              004b9528     Tcformat.obj
 0003:0000752c       _hMasterKey                004b952c     Tcformat.obj
 0003:00007530       _hHeaderKey                004b9530     Tcformat.obj
 0003:00007534       ?hRandPool@@3RAUHWND__@@A  004b9534     Tcformat.obj
 0003:00007538       ?hRandPoolSys@@3RAUHWND__@@A 004b9538     Tcformat.obj
 0003:0000753c       ?hPasswordInputField@@3RAUHWND__@@A 004b953c     Tcformat.obj
 0003:00007540       ?hVerifyPasswordInputField@@3RAUHWND__@@A 004b9540     Tcformat.obj
 0003:00007544       ?hbmWizardBitmapRescaled@@3PAUHBITMAP__@@A 004b9544     Tcformat.obj
 0003:00007548       ?bKeyboardLayoutChanged@@3HA 004b9548     Tcformat.obj
 0003:0000754c       ?bKeybLayoutAltKeyWarningShown@@3HA 004b954c     Tcformat.obj
 0003:00007550       ?bHistoryCmdLine@@3HA      004b9550     Tcformat.obj
 0003:00007554       ?ComServerMode@@3HA        004b9554     Tcformat.obj
 0003:00007558       _nPbar                     004b9558     Tcformat.obj
 0003:0000755c       ?bSparseFileSwitch@@3HC    004b955c     Tcformat.obj
 0003:00007560       ?quickFormat@@3HC          004b9560     Tcformat.obj
 0003:00007564       ?fileSystem@@3HC           004b9564     Tcformat.obj
 0003:00007568       ?clusterSize@@3HC          004b9568     Tcformat.obj
 0003:0000756c       _NonSysInplaceEncStatus    004b956c     Tcformat.obj
 0003:00007570       ?DeferredNonSysInPlaceEncDevices@@3V?$vector@UHostDevice@@V?$allocator@UHostDevice@@@std@@@std@@A 004b9570     Tcformat.obj
 0003:0000765c       ?_Psave@?$_Facetptr@V?$ctype@_W@std@@@std@@2PBVfacet@locale@2@B 004b965c     Tcformat.obj
 0003:00007660       ?_Psave@?$_Facetptr@V?$num_put@_WV?$ostreambuf_iterator@_WU?$char_traits@_W@std@@@std@@@std@@@std@@2PBVfacet@locale@2@B 004b9660     Tcformat.obj
 0003:00007664       ?_Psave@?$_Facetptr@V?$numpunct@_W@std@@@std@@2PBVfacet@locale@2@B 004b9664     Tcformat.obj
 0003:000076ec       ?id@?$numpunct@_W@std@@2V0locale@2@A 004b96ec     Tcformat.obj
 0003:000076f0       ?id@?$num_put@_WV?$ostreambuf_iterator@_WU?$char_traits@_W@std@@@std@@@std@@2V0locale@2@A 004b96f0     Tcformat.obj
 0003:000076f4       ?ElevatedComInstanceThreadId@Elevator@CipherShed@@1KA 004b96f4     BootEncryption.obj
 0003:000076f8       ?ElevatedComInstance@Elevator@CipherShed@@1PAUICipherShedFormatCom@@A 004b96f8     BootEncryption.obj
 0003:000076fc       ?ReferenceCount@Elevator@CipherShed@@1HA 004b96fc     BootEncryption.obj
 0003:00007700       ?_Psave@?$_Facetptr@V?$ctype@D@std@@@std@@2PBVfacet@locale@2@B 004b9700     BootEncryption.obj
 0003:00007704       ?_Psave@?$_Facetptr@V?$num_put@DV?$ostreambuf_iterator@DU?$char_traits@D@std@@@std@@@std@@@std@@2PBVfacet@locale@2@B 004b9704     BootEncryption.obj
 0003:00007708       ?_Psave@?$_Facetptr@V?$numpunct@D@std@@@std@@2PBVfacet@locale@2@B 004b9708     BootEncryption.obj
 0003:00007710       ?id@?$num_put@DV?$ostreambuf_iterator@DU?$char_traits@D@std@@@std@@@std@@2V0locale@2@A 004b9710     BootEncryption.obj
 0003:00007714       ?id@?$numpunct@D@std@@2V0locale@2@A 004b9714     BootEncryption.obj
 0003:00007770       ?hDlgClass@@3GA            004b9770     Dlgcode.obj
 0003:00007778       _szHelpFile                004b9778     Dlgcode.obj
 0003:0000787c       _defaultKeyFilesParam      004b987c     Dlgcode.obj
 0003:00007884       _WindowTitleBarFont        004b9884     Dlgcode.obj
 0003:00007888       _SecurityTokenLibraryPath  004b9888     Dlgcode.obj
 0003:0000798c       ?DriverVersion@@3JA        004b998c     Dlgcode.obj
 0003:00007990       _LastDialogId              004b9990     Dlgcode.obj
 0003:00007994       _LastMountedVolumeDirty    004b9994     Dlgcode.obj
 0003:000279a0       ?benchmarkPerformanceFrequency@@3T_LARGE_INTEGER@@A 004d99a0     Dlgcode.obj
 0003:000279b0       ?SystemFileSelectorCallerThreadId@@3KA 004d99b0     Dlgcode.obj
 0003:000279b4       _ConfigBuffer              004d99b4     Dlgcode.obj
 0003:000279b8       ?SysPartitionDevicePath@@3PADA 004d99b8     Dlgcode.obj
 0003:00027abc       ?hSplashClass@@3GA         004d9abc     Dlgcode.obj
 0003:00027ac0       ?benchmarkTable@@3PAUBENCHMARK_REC@@A 004d9ac0     Dlgcode.obj
 0003:0002acc0       ?SysDriveDevicePath@@3PADA 004dccc0     Dlgcode.obj
 0003:0002adc8       _szHelpFile2               004dcdc8     Dlgcode.obj
 0003:0002aecc       _hFixedDigitFont           004dcecc     Dlgcode.obj
 0003:0002aed0       _hBoldFont                 004dced0     Dlgcode.obj
 0003:0002aed4       _hTitleFont                004dced4     Dlgcode.obj
 0003:0002aed8       _hFixedFont                004dced8     Dlgcode.obj
 0003:0002aedc       _hUserFont                 004dcedc     Dlgcode.obj
 0003:0002aee0       _hUserUnderlineFont        004dcee0     Dlgcode.obj
 0003:0002aee4       _hUserBoldFont             004dcee4     Dlgcode.obj
 0003:0002aee8       ?hUserUnderlineBoldFont@@3PAUHFONT__@@A 004dcee8     Dlgcode.obj
 0003:0002aeec       _MainDlg                   004dceec     Dlgcode.obj
 0003:0002aef0       _lpszTitle                 004dcef0     Dlgcode.obj
 0003:0002aef4       _Silent                    004dcef4     Dlgcode.obj
 0003:0002aef8       _bStartOnLogon             004dcef8     Dlgcode.obj
 0003:0002aefc       _bMountDevicesOnLogon      004dcefc     Dlgcode.obj
 0003:0002af00       _bMountFavoritesOnLogon    004dcf00     Dlgcode.obj
 0003:0002af04       _bHistory                  004dcf04     Dlgcode.obj
 0003:0002af08       _HiddenSectorDetectionStatus 004dcf08     Dlgcode.obj
 0003:0002af0c       _nCurrentOS                004dcf0c     Dlgcode.obj
 0003:0002af10       _CurrentOSMajor            004dcf10     Dlgcode.obj
 0003:0002af14       _CurrentOSMinor            004dcf14     Dlgcode.obj
 0003:0002af18       _CurrentOSServicePack      004dcf18     Dlgcode.obj
 0003:0002af1c       _RemoteSession             004dcf1c     Dlgcode.obj
 0003:0002af20       _UacElevated               004dcf20     Dlgcode.obj
 0003:0002af24       ?bPortableModeConfirmed@@3HA 004dcf24     Dlgcode.obj
 0003:0002af28       _bInPlaceEncNonSysPending  004dcf28     Dlgcode.obj
 0003:0002af2c       _KeyFilesEnable            004dcf2c     Dlgcode.obj
 0003:0002af30       _FirstKeyFile              004dcf30     Dlgcode.obj
 0003:0002af34       _IgnoreWmDeviceChange      004dcf34     Dlgcode.obj
 0003:0002af38       _DeviceChangeBroadcastDisabled 004dcf38     Dlgcode.obj
 0003:0002af3c       _MountVolumesAsSystemFavorite 004dcf3c     Dlgcode.obj
 0003:0002af40       _FavoriteMountOnArrivalInProgress 004dcf40     Dlgcode.obj
 0003:0002af44       _MultipleMountOperationInProgress 004dcf44     Dlgcode.obj
 0003:0002af48       ?hSysEncMutex@@3RAXA       004dcf48     Dlgcode.obj
 0003:0002af4c       ?hNonSysInplaceEncMutex@@3RAXA 004dcf4c     Dlgcode.obj
 0003:0002af50       ?hDriverSetupMutex@@3RAXA  004dcf50     Dlgcode.obj
 0003:0002af54       ?hAppSetupMutex@@3RAXA     004dcf54     Dlgcode.obj
 0003:0002af58       _hInst                     004dcf58     Dlgcode.obj
 0003:0002af5c       ?hCursor@@3PAUHICON__@@A   004dcf5c     Dlgcode.obj
 0003:0002af60       _SystemEncryptionStatus    004dcf60     Dlgcode.obj
 0003:0002af64       _nWipeMode                 004dcf64     Dlgcode.obj
 0003:0002af68       _bSysPartitionSelected     004dcf68     Dlgcode.obj
 0003:0002af6c       _bSysDriveSelected         004dcf6c     Dlgcode.obj
 0003:0002af70       ?bCachedSysDevicePathsValid@@3DA 004dcf70     Dlgcode.obj
 0003:0002af74       _bHyperLinkBeingTracked    004dcf74     Dlgcode.obj
 0003:0002af78       ?WrongPwdRetryCounter@@3HA 004dcf78     Dlgcode.obj
 0003:0002af7c       ?SystemFileSelectorCallPending@@3HA 004dcf7c     Dlgcode.obj
 0003:0002af80       ?benchmarkTotalItems@@3HA  004dcf80     Dlgcode.obj
 0003:0002e080       _HiddenFilesPresentInKeyfilePath 004e0080     Keyfiles.obj
 0003:0002e2a4       _hMouse                    004e02a4     Random.obj
 0003:0002e2a8       _hKeyboard                 004e02a8     Random.obj
 0003:0002e2ac       _bThreadTerminate          004e02ac     Random.obj
 0003:0002e2b0       _hNetAPI32                 004e02b0     Random.obj
 0003:0002e2b4       _CryptoAPIAvailable        004e02b4     Random.obj
 0003:0002e2b8       _pNetStatisticsGet         004e02b8     Random.obj
 0003:0002e2bc       _pNetApiBufferSize         004e02bc     Random.obj
 0003:0002e2c0       _pNetApiBufferFree         004e02c0     Random.obj
 0003:0002e2c8       ?Pkcs11LibraryHandle@SecurityToken@CipherShed@@1PAUHINSTANCE__@@A 004e02c8     SecurityToken.obj
 0003:0002e2cc       ?Initialized@SecurityToken@CipherShed@@1_NA 004e02cc     SecurityToken.obj
 0003:0002e2d0       ?Pkcs11Functions@SecurityToken@CipherShed@@1PAUCK_FUNCTION_LIST@@A 004e02d0     SecurityToken.obj
 0003:0002e2d4       ?Sessions@SecurityToken@CipherShed@@1V?$map@KUPkcs11Session@CipherShed@@U?$less@K@std@@V?$allocator@U?$pair@$$CBKUPkcs11Session@CipherShed@@@std@@@4@@std@@A 004e02d4     SecurityToken.obj
 0003:0002e2f4       ?PinCallback@SecurityToken@CipherShed@@1V?$auto_ptr@UGetPinFunctor@CipherShed@@@std@@A 004e02f4     SecurityToken.obj
 0003:0002e2f8       ?WarningCallback@SecurityToken@CipherShed@@1V?$auto_ptr@USendExceptionFunctor@CipherShed@@@std@@A 004e02f8     SecurityToken.obj
 0003:0002e588       _ReadVolumeHeaderRecoveryMode 004e0588     Volumes.obj
 0003:0002f804       ?_Clocptr@_Locimp@locale@std@@0PAV123@A 004e1804     libcpmt:locale0.obj
 0003:0002f808       ?_Id_cnt@id@locale@std@@0HA 004e1808     libcpmt:locale0.obj
 0003:0002f80c       ?id@?$ctype@D@std@@2V0locale@2@A 004e180c     libcpmt:locale0.obj
 0003:0002f810       ?id@?$codecvt@GDH@std@@2V0locale@2@A 004e1810     libcpmt:locale0.obj
 0003:0002f814       ?id@?$ctype@_W@std@@2V0locale@2@A 004e1814     libcpmt:locale0.obj
 0003:0002f818       ?id@?$codecvt@_WDH@std@@2V0locale@2@A 004e1818     libcpmt:locale0.obj
 0003:0002f820       ?id@?$ctype@G@std@@2V0locale@2@A 004e1820     libcpmt:locale0.obj
 0003:0002f828       ?_Fpz@std@@3_JA            004e1828     libcpmt:ios.obj
 0003:0002f830       ?_Index@ios_base@std@@0HA  004e1830     libcpmt:ios.obj
 0003:0002f960       ?_Ptr_cin@std@@3PAV?$basic_istream@DU?$char_traits@D@std@@@1@A 004e1960     libcpmt:iosptrs.obj
 0003:0002f964       ?_Ptr_cout@std@@3PAV?$basic_ostream@DU?$char_traits@D@std@@@1@A 004e1964     libcpmt:iosptrs.obj
 0003:0002f968       ?_Ptr_cerr@std@@3PAV?$basic_ostream@DU?$char_traits@D@std@@@1@A 004e1968     libcpmt:iosptrs.obj
 0003:0002f96c       ?_Ptr_clog@std@@3PAV?$basic_ostream@DU?$char_traits@D@std@@@1@A 004e196c     libcpmt:iosptrs.obj
 0003:0002f970       ?_Ptr_wcin@std@@3PAV?$basic_istream@_WU?$char_traits@_W@std@@@1@A 004e1970     libcpmt:iosptrs.obj
 0003:0002f974       ?_Ptr_wcout@std@@3PAV?$basic_ostream@_WU?$char_traits@_W@std@@@1@A 004e1974     libcpmt:iosptrs.obj
 0003:0002f978       ?_Ptr_wcerr@std@@3PAV?$basic_ostream@_WU?$char_traits@_W@std@@@1@A 004e1978     libcpmt:iosptrs.obj
 0003:0002f97c       ?_Ptr_wclog@std@@3PAV?$basic_ostream@_WU?$char_traits@_W@std@@@1@A 004e197c     libcpmt:iosptrs.obj
 0003:0002f9bc       ___pInvalidArgHandler      004e19bc     LIBCMT:invarg.obj
 0003:0002f9c0       __umaskval                 004e19c0     LIBCMT:crt0dat.obj
 0003:0002f9c4       ___argc                    004e19c4     LIBCMT:crt0dat.obj
 0003:0002f9c8       ___argv                    004e19c8     LIBCMT:crt0dat.obj
 0003:0002f9cc       ___wargv                   004e19cc     LIBCMT:crt0dat.obj
 0003:0002f9d0       __environ                  004e19d0     LIBCMT:crt0dat.obj
 0003:0002f9d4       ___initenv                 004e19d4     LIBCMT:crt0dat.obj
 0003:0002f9d8       __wenviron                 004e19d8     LIBCMT:crt0dat.obj
 0003:0002f9dc       ___winitenv                004e19dc     LIBCMT:crt0dat.obj
 0003:0002f9e0       __pgmptr                   004e19e0     LIBCMT:crt0dat.obj
 0003:0002f9e4       __wpgmptr                  004e19e4     LIBCMT:crt0dat.obj
 0003:0002f9e8       __exitflag                 004e19e8     LIBCMT:crt0dat.obj
 0003:0002f9ec       __C_Termination_Done       004e19ec     LIBCMT:crt0dat.obj
 0003:0002f9f0       __C_Exit_Done              004e19f0     LIBCMT:crt0dat.obj
 0003:0002f9f4       ___fastflag                004e19f4     LIBCMT:_fpinit_.obj
 0003:0002f9f8       __adjust_fdiv              004e19f8     LIBCMT:_fpinit_.obj
 0003:0002f9fc       ___lconv_static_null       004e19fc     LIBCMT:lconv.obj
 0003:0002fa00       __aenvptr                  004e1a00     LIBCMT:wincrt0.obj
 0003:0002fa04       __wenvptr                  004e1a04     LIBCMT:wincrt0.obj
 0003:0002fa08       ___error_mode              004e1a08     LIBCMT:wincrt0.obj
 0003:0002fa10       __maxwait                  004e1a10     LIBCMT:crtheap.obj
 0003:0002fa14       ___locale_changed          004e1a14     LIBCMT:setlocal.obj
 0003:0002fd34       _gpFlsAlloc                004e1d34     LIBCMT:tidtable.obj
 0003:0002fd38       _gpFlsGetValue             004e1d38     LIBCMT:tidtable.obj
 0003:0002fd3c       _gpFlsSetValue             004e1d3c     LIBCMT:tidtable.obj
 0003:0002fd40       _gpFlsFree                 004e1d40     LIBCMT:tidtable.obj
 0003:0002fd4c       ___pPurecall               004e1d4c     LIBCMT:inithelp.obj
 0003:0002fd50       ?_pnhHeap@@3P6AHI@ZA       004e1d50     LIBCMT:handler.obj
 0003:0002fd54       __crtheap                  004e1d54     LIBCMT:heapinit.obj
 0003:0002fea8       ___sbh_pHeaderDefer        004e1ea8     LIBCMT:sbheap.obj
 0003:0002feac       __newmode                  004e1eac     LIBCMT:_newmode.obj
 0003:000301d4       ?__pInconsistency@@3P6AXXZA 004e21d4     LIBCMT:hooks.obj
 0003:000301d8       __cflush                   004e21d8     LIBCMT:_file.obj
 0003:000301dc       __stdbuf                   004e21dc     LIBCMT:_sftbuf.obj
 0003:00030200       ___lc_handle               004e2200     LIBCMT:nlsdata2.obj
 0003:00030218       ___lc_codepage             004e2218     LIBCMT:nlsdata2.obj
 0003:0003021c       ___lc_collate_cp           004e221c     LIBCMT:nlsdata2.obj
 0003:00030224       ___mbulinfo                004e2224     LIBCMT:mbctype.obj
 0003:00030230       ___mbcodepage              004e2230     LIBCMT:mbctype.obj
 0003:00030234       ___ismbcodepage            004e2234     LIBCMT:mbctype.obj
 0003:00030238       ___mblcid                  004e2238     LIBCMT:mbctype.obj
 0003:00030364       ?pArgList@UnDecorator@@0PAVReplicator@@A 004e2364     LIBCMT:undname.obj
 0003:00030368       ?pZNameList@UnDecorator@@0PAVReplicator@@A 004e2368     LIBCMT:undname.obj
 0003:0003036c       ?pTemplateArgList@UnDecorator@@0PAVReplicator@@A 004e236c     LIBCMT:undname.obj
 0003:00030370       ?gName@UnDecorator@@0PBDB  004e2370     LIBCMT:undname.obj
 0003:00030374       ?name@UnDecorator@@0PBDB   004e2374     LIBCMT:undname.obj
 0003:00030378       ?outputString@UnDecorator@@0PADA 004e2378     LIBCMT:undname.obj
 0003:0003037c       ?maxStringLength@UnDecorator@@0HA 004e237c     LIBCMT:undname.obj
 0003:00030380       ?disableFlags@UnDecorator@@0KA 004e2380     LIBCMT:undname.obj
 0003:00030384       ?m_pGetParameter@UnDecorator@@0P6APADJ@ZA 004e2384     LIBCMT:undname.obj
 0003:00030388       ?fExplicitTemplateParams@UnDecorator@@0_NA 004e2388     LIBCMT:undname.obj
 0003:00030389       ?fGetTemplateArgumentList@UnDecorator@@0_NA 004e2389     LIBCMT:undname.obj
 0003:000303a8       __commode                  004e23a8     LIBCMT:ncommode.obj
 0003:000303ac       __outputformat             004e23ac     LIBCMT:outputformat.obj
 0003:00030468       __fmode                    004e2468     LIBCMT:txtmode.obj
 0003:00030480       _ks_tmp                    004e2480     <common>
 0003:00031960       _critRandProt              004e3960     <common>
 0003:00031978       _hCryptProv                004e3978     <common>
 0003:0003197c       _LocalizationActive        004e397c     <common>
 0003:00031980       _LocalizationSerialNo      004e3980     <common>
 0003:000319a0       _UnknownString             004e39a0     <common>
 0003:000321a0       _FormatExResult            004e41a0     <common>
 0003:000321a4       ___use_sse2_mathfcns       004e41a4     <common>
 0003:000321a8       __pmatherr                 004e41a8     <common>
