; Listing generated by Microsoft (R) Optimizing Compiler Version 15.00.30729.01 

	TITLE	c:\home\public\Desktop\projects\ciphershed.build\src\Format\FormatCom.cpp
	.686P
	.XMM
	include listing.inc
	.model	flat

INCLUDELIB LIBCMT
INCLUDELIB OLDNAMES

PUBLIC	??_C@_0P@GHFPNOJB@bad?5allocation?$AA@		; `string'
PUBLIC	?_Min@?$AtlLimits@H@ATL@@2HB			; ATL::AtlLimits<int>::_Min
PUBLIC	?_Max@?$AtlLimits@H@ATL@@2HB			; ATL::AtlLimits<int>::_Max
PUBLIC	?_Min@?$AtlLimits@I@ATL@@2IB			; ATL::AtlLimits<unsigned int>::_Min
PUBLIC	?_Max@?$AtlLimits@I@ATL@@2IB			; ATL::AtlLimits<unsigned int>::_Max
PUBLIC	?_Min@?$AtlLimits@J@ATL@@2JB			; ATL::AtlLimits<long>::_Min
PUBLIC	?_Max@?$AtlLimits@J@ATL@@2JB			; ATL::AtlLimits<long>::_Max
PUBLIC	?_Min@?$AtlLimits@K@ATL@@2KB			; ATL::AtlLimits<unsigned long>::_Min
PUBLIC	?_Max@?$AtlLimits@K@ATL@@2KB			; ATL::AtlLimits<unsigned long>::_Max
PUBLIC	?_Min@?$AtlLimits@_J@ATL@@2_JB			; ATL::AtlLimits<__int64>::_Min
PUBLIC	?_Max@?$AtlLimits@_J@ATL@@2_JB			; ATL::AtlLimits<__int64>::_Max
PUBLIC	?_Min@?$AtlLimits@_K@ATL@@2_KB			; ATL::AtlLimits<unsigned __int64>::_Min
PUBLIC	?_Max@?$AtlLimits@_K@ATL@@2_KB			; ATL::AtlLimits<unsigned __int64>::_Max
PUBLIC	?m_bInitFailed@CAtlBaseModule@ATL@@2_NA		; ATL::CAtlBaseModule::m_bInitFailed
PUBLIC	?VT@?$CVarTypeInfo@D@ATL@@2GB			; ATL::CVarTypeInfo<char>::VT
PUBLIC	?pmField@?$CVarTypeInfo@D@ATL@@2QQtagVARIANT@@DQ3@ ; ATL::CVarTypeInfo<char>::pmField
PUBLIC	?VT@?$CVarTypeInfo@E@ATL@@2GB			; ATL::CVarTypeInfo<unsigned char>::VT
PUBLIC	?pmField@?$CVarTypeInfo@E@ATL@@2QQtagVARIANT@@EQ3@ ; ATL::CVarTypeInfo<unsigned char>::pmField
PUBLIC	?VT@?$CVarTypeInfo@PAD@ATL@@2GB			; ATL::CVarTypeInfo<char *>::VT
PUBLIC	?pmField@?$CVarTypeInfo@PAD@ATL@@2QQtagVARIANT@@PADQ3@ ; ATL::CVarTypeInfo<char *>::pmField
PUBLIC	?VT@?$CVarTypeInfo@PAE@ATL@@2GB			; ATL::CVarTypeInfo<unsigned char *>::VT
PUBLIC	?pmField@?$CVarTypeInfo@PAE@ATL@@2QQtagVARIANT@@PAEQ3@ ; ATL::CVarTypeInfo<unsigned char *>::pmField
PUBLIC	?VT@?$CVarTypeInfo@F@ATL@@2GB			; ATL::CVarTypeInfo<short>::VT
PUBLIC	?pmField@?$CVarTypeInfo@F@ATL@@2QQtagVARIANT@@FQ3@ ; ATL::CVarTypeInfo<short>::pmField
PUBLIC	?VT@?$CVarTypeInfo@PAF@ATL@@2GB			; ATL::CVarTypeInfo<short *>::VT
PUBLIC	?pmField@?$CVarTypeInfo@PAF@ATL@@2QQtagVARIANT@@PAFQ3@ ; ATL::CVarTypeInfo<short *>::pmField
PUBLIC	?VT@?$CVarTypeInfo@G@ATL@@2GB			; ATL::CVarTypeInfo<unsigned short>::VT
PUBLIC	?pmField@?$CVarTypeInfo@G@ATL@@2QQtagVARIANT@@GQ3@ ; ATL::CVarTypeInfo<unsigned short>::pmField
PUBLIC	?VT@?$CVarTypeInfo@PAG@ATL@@2GB			; ATL::CVarTypeInfo<unsigned short *>::VT
PUBLIC	?pmField@?$CVarTypeInfo@PAG@ATL@@2QQtagVARIANT@@PAGQ3@ ; ATL::CVarTypeInfo<unsigned short *>::pmField
PUBLIC	?VT@?$CVarTypeInfo@H@ATL@@2GB			; ATL::CVarTypeInfo<int>::VT
PUBLIC	?pmField@?$CVarTypeInfo@H@ATL@@2QQtagVARIANT@@HQ3@ ; ATL::CVarTypeInfo<int>::pmField
PUBLIC	?VT@?$CVarTypeInfo@PAH@ATL@@2GB			; ATL::CVarTypeInfo<int *>::VT
PUBLIC	?pmField@?$CVarTypeInfo@PAH@ATL@@2QQtagVARIANT@@PAHQ3@ ; ATL::CVarTypeInfo<int *>::pmField
PUBLIC	?VT@?$CVarTypeInfo@I@ATL@@2GB			; ATL::CVarTypeInfo<unsigned int>::VT
PUBLIC	?pmField@?$CVarTypeInfo@I@ATL@@2QQtagVARIANT@@IQ3@ ; ATL::CVarTypeInfo<unsigned int>::pmField
PUBLIC	?VT@?$CVarTypeInfo@PAI@ATL@@2GB			; ATL::CVarTypeInfo<unsigned int *>::VT
PUBLIC	?pmField@?$CVarTypeInfo@PAI@ATL@@2QQtagVARIANT@@PAIQ3@ ; ATL::CVarTypeInfo<unsigned int *>::pmField
PUBLIC	?VT@?$CVarTypeInfo@J@ATL@@2GB			; ATL::CVarTypeInfo<long>::VT
PUBLIC	?pmField@?$CVarTypeInfo@J@ATL@@2QQtagVARIANT@@JQ3@ ; ATL::CVarTypeInfo<long>::pmField
PUBLIC	?VT@?$CVarTypeInfo@PAJ@ATL@@2GB			; ATL::CVarTypeInfo<long *>::VT
PUBLIC	?pmField@?$CVarTypeInfo@PAJ@ATL@@2QQtagVARIANT@@PAJQ3@ ; ATL::CVarTypeInfo<long *>::pmField
PUBLIC	?VT@?$CVarTypeInfo@K@ATL@@2GB			; ATL::CVarTypeInfo<unsigned long>::VT
PUBLIC	?pmField@?$CVarTypeInfo@K@ATL@@2QQtagVARIANT@@KQ3@ ; ATL::CVarTypeInfo<unsigned long>::pmField
PUBLIC	?VT@?$CVarTypeInfo@PAK@ATL@@2GB			; ATL::CVarTypeInfo<unsigned long *>::VT
PUBLIC	?pmField@?$CVarTypeInfo@PAK@ATL@@2QQtagVARIANT@@PAKQ3@ ; ATL::CVarTypeInfo<unsigned long *>::pmField
PUBLIC	?VT@?$CVarTypeInfo@_J@ATL@@2GB			; ATL::CVarTypeInfo<__int64>::VT
PUBLIC	?pmField@?$CVarTypeInfo@_J@ATL@@2QQtagVARIANT@@_JQ3@ ; ATL::CVarTypeInfo<__int64>::pmField
PUBLIC	?VT@?$CVarTypeInfo@PA_J@ATL@@2GB		; ATL::CVarTypeInfo<__int64 *>::VT
PUBLIC	?pmField@?$CVarTypeInfo@PA_J@ATL@@2QQtagVARIANT@@PA_JQ3@ ; ATL::CVarTypeInfo<__int64 *>::pmField
PUBLIC	?VT@?$CVarTypeInfo@_K@ATL@@2GB			; ATL::CVarTypeInfo<unsigned __int64>::VT
PUBLIC	?pmField@?$CVarTypeInfo@_K@ATL@@2QQtagVARIANT@@_KQ3@ ; ATL::CVarTypeInfo<unsigned __int64>::pmField
PUBLIC	?VT@?$CVarTypeInfo@PA_K@ATL@@2GB		; ATL::CVarTypeInfo<unsigned __int64 *>::VT
PUBLIC	?pmField@?$CVarTypeInfo@PA_K@ATL@@2QQtagVARIANT@@PA_KQ3@ ; ATL::CVarTypeInfo<unsigned __int64 *>::pmField
PUBLIC	?VT@?$CVarTypeInfo@M@ATL@@2GB			; ATL::CVarTypeInfo<float>::VT
PUBLIC	?pmField@?$CVarTypeInfo@M@ATL@@2QQtagVARIANT@@MQ3@ ; ATL::CVarTypeInfo<float>::pmField
PUBLIC	?VT@?$CVarTypeInfo@PAM@ATL@@2GB			; ATL::CVarTypeInfo<float *>::VT
PUBLIC	?pmField@?$CVarTypeInfo@PAM@ATL@@2QQtagVARIANT@@PAMQ3@ ; ATL::CVarTypeInfo<float *>::pmField
PUBLIC	?VT@?$CVarTypeInfo@N@ATL@@2GB			; ATL::CVarTypeInfo<double>::VT
PUBLIC	?pmField@?$CVarTypeInfo@N@ATL@@2QQtagVARIANT@@NQ3@ ; ATL::CVarTypeInfo<double>::pmField
PUBLIC	?VT@?$CVarTypeInfo@PAN@ATL@@2GB			; ATL::CVarTypeInfo<double *>::VT
PUBLIC	?pmField@?$CVarTypeInfo@PAN@ATL@@2QQtagVARIANT@@PANQ3@ ; ATL::CVarTypeInfo<double *>::pmField
PUBLIC	?VT@?$CVarTypeInfo@UtagVARIANT@@@ATL@@2GB	; ATL::CVarTypeInfo<tagVARIANT>::VT
PUBLIC	?VT@?$CVarTypeInfo@PA_W@ATL@@2GB		; ATL::CVarTypeInfo<wchar_t *>::VT
PUBLIC	?pmField@?$CVarTypeInfo@PA_W@ATL@@2QQtagVARIANT@@PA_WQ3@ ; ATL::CVarTypeInfo<wchar_t *>::pmField
PUBLIC	?VT@?$CVarTypeInfo@PAPA_W@ATL@@2GB		; ATL::CVarTypeInfo<wchar_t * *>::VT
PUBLIC	?pmField@?$CVarTypeInfo@PAPA_W@ATL@@2QQtagVARIANT@@PAPA_WQ3@ ; ATL::CVarTypeInfo<wchar_t * *>::pmField
PUBLIC	?VT@?$CVarTypeInfo@PAUIUnknown@@@ATL@@2GB	; ATL::CVarTypeInfo<IUnknown *>::VT
PUBLIC	?pmField@?$CVarTypeInfo@PAUIUnknown@@@ATL@@2QQtagVARIANT@@PAUIUnknown@@Q3@ ; ATL::CVarTypeInfo<IUnknown *>::pmField
PUBLIC	?VT@?$CVarTypeInfo@PAPAUIUnknown@@@ATL@@2GB	; ATL::CVarTypeInfo<IUnknown * *>::VT
PUBLIC	?pmField@?$CVarTypeInfo@PAPAUIUnknown@@@ATL@@2QQtagVARIANT@@PAPAUIUnknown@@Q3@ ; ATL::CVarTypeInfo<IUnknown * *>::pmField
PUBLIC	?VT@?$CVarTypeInfo@PAUIDispatch@@@ATL@@2GB	; ATL::CVarTypeInfo<IDispatch *>::VT
PUBLIC	?pmField@?$CVarTypeInfo@PAUIDispatch@@@ATL@@2QQtagVARIANT@@PAUIDispatch@@Q3@ ; ATL::CVarTypeInfo<IDispatch *>::pmField
PUBLIC	?VT@?$CVarTypeInfo@PAPAUIDispatch@@@ATL@@2GB	; ATL::CVarTypeInfo<IDispatch * *>::VT
PUBLIC	?pmField@?$CVarTypeInfo@PAPAUIDispatch@@@ATL@@2QQtagVARIANT@@PAPAUIDispatch@@Q3@ ; ATL::CVarTypeInfo<IDispatch * *>::pmField
PUBLIC	?VT@?$CVarTypeInfo@TtagCY@@@ATL@@2GB		; ATL::CVarTypeInfo<tagCY>::VT
PUBLIC	?pmField@?$CVarTypeInfo@TtagCY@@@ATL@@2QQtagVARIANT@@TtagCY@@Q3@ ; ATL::CVarTypeInfo<tagCY>::pmField
PUBLIC	?VT@?$CVarTypeInfo@PATtagCY@@@ATL@@2GB		; ATL::CVarTypeInfo<tagCY *>::VT
PUBLIC	?pmField@?$CVarTypeInfo@PATtagCY@@@ATL@@2QQtagVARIANT@@PATtagCY@@Q3@ ; ATL::CVarTypeInfo<tagCY *>::pmField
PUBLIC	?_Value@?$_Is_swap_move@U_Swap_move_tag@std@@@std@@2_NB ; std::_Is_swap_move<std::_Swap_move_tag>::_Value
PUBLIC	?collate@?$_Locbase@H@std@@2HB			; std::_Locbase<int>::collate
PUBLIC	?ctype@?$_Locbase@H@std@@2HB			; std::_Locbase<int>::ctype
PUBLIC	?monetary@?$_Locbase@H@std@@2HB			; std::_Locbase<int>::monetary
PUBLIC	?numeric@?$_Locbase@H@std@@2HB			; std::_Locbase<int>::numeric
PUBLIC	?time@?$_Locbase@H@std@@2HB			; std::_Locbase<int>::time
PUBLIC	?messages@?$_Locbase@H@std@@2HB			; std::_Locbase<int>::messages
PUBLIC	?all@?$_Locbase@H@std@@2HB			; std::_Locbase<int>::all
PUBLIC	?none@?$_Locbase@H@std@@2HB			; std::_Locbase<int>::none
PUBLIC	?table_size@?$ctype@D@std@@2IB			; std::ctype<char>::table_size
PUBLIC	?skipws@?$_Iosb@H@std@@2W4_Fmtflags@12@B	; std::_Iosb<int>::skipws
PUBLIC	?unitbuf@?$_Iosb@H@std@@2W4_Fmtflags@12@B	; std::_Iosb<int>::unitbuf
PUBLIC	?uppercase@?$_Iosb@H@std@@2W4_Fmtflags@12@B	; std::_Iosb<int>::uppercase
PUBLIC	?showbase@?$_Iosb@H@std@@2W4_Fmtflags@12@B	; std::_Iosb<int>::showbase
PUBLIC	?showpoint@?$_Iosb@H@std@@2W4_Fmtflags@12@B	; std::_Iosb<int>::showpoint
PUBLIC	?showpos@?$_Iosb@H@std@@2W4_Fmtflags@12@B	; std::_Iosb<int>::showpos
PUBLIC	?left@?$_Iosb@H@std@@2W4_Fmtflags@12@B		; std::_Iosb<int>::left
PUBLIC	?right@?$_Iosb@H@std@@2W4_Fmtflags@12@B		; std::_Iosb<int>::right
PUBLIC	?internal@?$_Iosb@H@std@@2W4_Fmtflags@12@B	; std::_Iosb<int>::internal
PUBLIC	?dec@?$_Iosb@H@std@@2W4_Fmtflags@12@B		; std::_Iosb<int>::dec
PUBLIC	?oct@?$_Iosb@H@std@@2W4_Fmtflags@12@B		; std::_Iosb<int>::oct
PUBLIC	?hex@?$_Iosb@H@std@@2W4_Fmtflags@12@B		; std::_Iosb<int>::hex
PUBLIC	?scientific@?$_Iosb@H@std@@2W4_Fmtflags@12@B	; std::_Iosb<int>::scientific
PUBLIC	?fixed@?$_Iosb@H@std@@2W4_Fmtflags@12@B		; std::_Iosb<int>::fixed
PUBLIC	?hexfloat@?$_Iosb@H@std@@2W4_Fmtflags@12@B	; std::_Iosb<int>::hexfloat
PUBLIC	?boolalpha@?$_Iosb@H@std@@2W4_Fmtflags@12@B	; std::_Iosb<int>::boolalpha
PUBLIC	?_Stdio@?$_Iosb@H@std@@2W4_Fmtflags@12@B	; std::_Iosb<int>::_Stdio
PUBLIC	?adjustfield@?$_Iosb@H@std@@2W4_Fmtflags@12@B	; std::_Iosb<int>::adjustfield
PUBLIC	?basefield@?$_Iosb@H@std@@2W4_Fmtflags@12@B	; std::_Iosb<int>::basefield
PUBLIC	?floatfield@?$_Iosb@H@std@@2W4_Fmtflags@12@B	; std::_Iosb<int>::floatfield
PUBLIC	?goodbit@?$_Iosb@H@std@@2W4_Iostate@12@B	; std::_Iosb<int>::goodbit
PUBLIC	?eofbit@?$_Iosb@H@std@@2W4_Iostate@12@B		; std::_Iosb<int>::eofbit
PUBLIC	?failbit@?$_Iosb@H@std@@2W4_Iostate@12@B	; std::_Iosb<int>::failbit
PUBLIC	?badbit@?$_Iosb@H@std@@2W4_Iostate@12@B		; std::_Iosb<int>::badbit
PUBLIC	?_Hardfail@?$_Iosb@H@std@@2W4_Iostate@12@B	; std::_Iosb<int>::_Hardfail
PUBLIC	?in@?$_Iosb@H@std@@2W4_Openmode@12@B		; std::_Iosb<int>::in
PUBLIC	?out@?$_Iosb@H@std@@2W4_Openmode@12@B		; std::_Iosb<int>::out
PUBLIC	?ate@?$_Iosb@H@std@@2W4_Openmode@12@B		; std::_Iosb<int>::ate
PUBLIC	?app@?$_Iosb@H@std@@2W4_Openmode@12@B		; std::_Iosb<int>::app
PUBLIC	?trunc@?$_Iosb@H@std@@2W4_Openmode@12@B		; std::_Iosb<int>::trunc
PUBLIC	?_Nocreate@?$_Iosb@H@std@@2W4_Openmode@12@B	; std::_Iosb<int>::_Nocreate
PUBLIC	?_Noreplace@?$_Iosb@H@std@@2W4_Openmode@12@B	; std::_Iosb<int>::_Noreplace
PUBLIC	?binary@?$_Iosb@H@std@@2W4_Openmode@12@B	; std::_Iosb<int>::binary
PUBLIC	?beg@?$_Iosb@H@std@@2W4_Seekdir@12@B		; std::_Iosb<int>::beg
PUBLIC	?cur@?$_Iosb@H@std@@2W4_Seekdir@12@B		; std::_Iosb<int>::cur
PUBLIC	?end@?$_Iosb@H@std@@2W4_Seekdir@12@B		; std::_Iosb<int>::end
PUBLIC	?value@?$integral_constant@_N$0A@@tr1@std@@2_NB	; std::tr1::integral_constant<bool,0>::value
PUBLIC	?value@?$integral_constant@_N$00@tr1@std@@2_NB	; std::tr1::integral_constant<bool,1>::value
PUBLIC	?RescueIsoImageSize@BootEncryption@CipherShed@@1IB ; CipherShed::BootEncryption::RescueIsoImageSize
PUBLIC	_LIBID_CipherShedFormatCom
PUBLIC	_IID_ICipherShedFormatCom
PUBLIC	_CLSID_CipherShedFormatCom
;	COMDAT ?m_bInitFailed@CAtlBaseModule@ATL@@2_NA
_BSS	SEGMENT
?m_bInitFailed@CAtlBaseModule@ATL@@2_NA DB 01H DUP (?)	; ATL::CAtlBaseModule::m_bInitFailed
_BSS	ENDS
_BSS	SEGMENT
_ObjectCount DD	01H DUP (?)
_BSS	ENDS
CONST	SEGMENT
_LIBID_CipherShedFormatCom DD 0a7df958cH
	DW	0716H
	DW	049e9H
	DB	08cH
	DB	03eH
	DB	053H
	DB	0a7H
	DB	075H
	DB	079H
	DB	075H
	DB	076H
_IID_ICipherShedFormatCom DD 09ee02955H
	DW	0174aH
	DW	048f1H
	DB	082H
	DB	0cH
	DB	02H
	DB	02fH
	DB	032H
	DB	07bH
	DB	0e1H
	DB	09H
_CLSID_CipherShedFormatCom DD 0777dcdfdH
	DW	0c330H
	DW	0480bH
	DB	0b5H
	DB	082H
	DB	0b0H
	DB	02bH
	DB	057H
	DB	058H
	DB	0cH
	DB	0c9H
CONST	ENDS
;	COMDAT ?RescueIsoImageSize@BootEncryption@CipherShed@@1IB
CONST	SEGMENT
?RescueIsoImageSize@BootEncryption@CipherShed@@1IB DD 01c0000H ; CipherShed::BootEncryption::RescueIsoImageSize
CONST	ENDS
;	COMDAT ?value@?$integral_constant@_N$00@tr1@std@@2_NB
CONST	SEGMENT
?value@?$integral_constant@_N$00@tr1@std@@2_NB DB 01H	; std::tr1::integral_constant<bool,1>::value
CONST	ENDS
;	COMDAT ?value@?$integral_constant@_N$0A@@tr1@std@@2_NB
CONST	SEGMENT
?value@?$integral_constant@_N$0A@@tr1@std@@2_NB DB 00H	; std::tr1::integral_constant<bool,0>::value
CONST	ENDS
;	COMDAT ?end@?$_Iosb@H@std@@2W4_Seekdir@12@B
CONST	SEGMENT
?end@?$_Iosb@H@std@@2W4_Seekdir@12@B DD 02H		; std::_Iosb<int>::end
CONST	ENDS
;	COMDAT ?cur@?$_Iosb@H@std@@2W4_Seekdir@12@B
CONST	SEGMENT
?cur@?$_Iosb@H@std@@2W4_Seekdir@12@B DD 01H		; std::_Iosb<int>::cur
CONST	ENDS
;	COMDAT ?beg@?$_Iosb@H@std@@2W4_Seekdir@12@B
CONST	SEGMENT
?beg@?$_Iosb@H@std@@2W4_Seekdir@12@B DD 00H		; std::_Iosb<int>::beg
CONST	ENDS
;	COMDAT ?binary@?$_Iosb@H@std@@2W4_Openmode@12@B
CONST	SEGMENT
?binary@?$_Iosb@H@std@@2W4_Openmode@12@B DD 020H	; std::_Iosb<int>::binary
CONST	ENDS
;	COMDAT ?_Noreplace@?$_Iosb@H@std@@2W4_Openmode@12@B
CONST	SEGMENT
?_Noreplace@?$_Iosb@H@std@@2W4_Openmode@12@B DD 080H	; std::_Iosb<int>::_Noreplace
CONST	ENDS
;	COMDAT ?_Nocreate@?$_Iosb@H@std@@2W4_Openmode@12@B
CONST	SEGMENT
?_Nocreate@?$_Iosb@H@std@@2W4_Openmode@12@B DD 040H	; std::_Iosb<int>::_Nocreate
CONST	ENDS
;	COMDAT ?trunc@?$_Iosb@H@std@@2W4_Openmode@12@B
CONST	SEGMENT
?trunc@?$_Iosb@H@std@@2W4_Openmode@12@B DD 010H		; std::_Iosb<int>::trunc
CONST	ENDS
;	COMDAT ?app@?$_Iosb@H@std@@2W4_Openmode@12@B
CONST	SEGMENT
?app@?$_Iosb@H@std@@2W4_Openmode@12@B DD 08H		; std::_Iosb<int>::app
CONST	ENDS
;	COMDAT ?ate@?$_Iosb@H@std@@2W4_Openmode@12@B
CONST	SEGMENT
?ate@?$_Iosb@H@std@@2W4_Openmode@12@B DD 04H		; std::_Iosb<int>::ate
CONST	ENDS
;	COMDAT ?out@?$_Iosb@H@std@@2W4_Openmode@12@B
CONST	SEGMENT
?out@?$_Iosb@H@std@@2W4_Openmode@12@B DD 02H		; std::_Iosb<int>::out
CONST	ENDS
;	COMDAT ?in@?$_Iosb@H@std@@2W4_Openmode@12@B
CONST	SEGMENT
?in@?$_Iosb@H@std@@2W4_Openmode@12@B DD 01H		; std::_Iosb<int>::in
CONST	ENDS
;	COMDAT ?_Hardfail@?$_Iosb@H@std@@2W4_Iostate@12@B
CONST	SEGMENT
?_Hardfail@?$_Iosb@H@std@@2W4_Iostate@12@B DD 010H	; std::_Iosb<int>::_Hardfail
CONST	ENDS
;	COMDAT ?badbit@?$_Iosb@H@std@@2W4_Iostate@12@B
CONST	SEGMENT
?badbit@?$_Iosb@H@std@@2W4_Iostate@12@B DD 04H		; std::_Iosb<int>::badbit
CONST	ENDS
;	COMDAT ?failbit@?$_Iosb@H@std@@2W4_Iostate@12@B
CONST	SEGMENT
?failbit@?$_Iosb@H@std@@2W4_Iostate@12@B DD 02H		; std::_Iosb<int>::failbit
CONST	ENDS
;	COMDAT ?eofbit@?$_Iosb@H@std@@2W4_Iostate@12@B
CONST	SEGMENT
?eofbit@?$_Iosb@H@std@@2W4_Iostate@12@B DD 01H		; std::_Iosb<int>::eofbit
CONST	ENDS
;	COMDAT ?goodbit@?$_Iosb@H@std@@2W4_Iostate@12@B
CONST	SEGMENT
?goodbit@?$_Iosb@H@std@@2W4_Iostate@12@B DD 00H		; std::_Iosb<int>::goodbit
CONST	ENDS
;	COMDAT ?floatfield@?$_Iosb@H@std@@2W4_Fmtflags@12@B
CONST	SEGMENT
?floatfield@?$_Iosb@H@std@@2W4_Fmtflags@12@B DD 03000H	; std::_Iosb<int>::floatfield
CONST	ENDS
;	COMDAT ?basefield@?$_Iosb@H@std@@2W4_Fmtflags@12@B
CONST	SEGMENT
?basefield@?$_Iosb@H@std@@2W4_Fmtflags@12@B DD 0e00H	; std::_Iosb<int>::basefield
CONST	ENDS
;	COMDAT ?adjustfield@?$_Iosb@H@std@@2W4_Fmtflags@12@B
CONST	SEGMENT
?adjustfield@?$_Iosb@H@std@@2W4_Fmtflags@12@B DD 01c0H	; std::_Iosb<int>::adjustfield
CONST	ENDS
;	COMDAT ?_Stdio@?$_Iosb@H@std@@2W4_Fmtflags@12@B
CONST	SEGMENT
?_Stdio@?$_Iosb@H@std@@2W4_Fmtflags@12@B DD 08000H	; std::_Iosb<int>::_Stdio
CONST	ENDS
;	COMDAT ?boolalpha@?$_Iosb@H@std@@2W4_Fmtflags@12@B
CONST	SEGMENT
?boolalpha@?$_Iosb@H@std@@2W4_Fmtflags@12@B DD 04000H	; std::_Iosb<int>::boolalpha
CONST	ENDS
;	COMDAT ?hexfloat@?$_Iosb@H@std@@2W4_Fmtflags@12@B
CONST	SEGMENT
?hexfloat@?$_Iosb@H@std@@2W4_Fmtflags@12@B DD 03000H	; std::_Iosb<int>::hexfloat
CONST	ENDS
;	COMDAT ?fixed@?$_Iosb@H@std@@2W4_Fmtflags@12@B
CONST	SEGMENT
?fixed@?$_Iosb@H@std@@2W4_Fmtflags@12@B DD 02000H	; std::_Iosb<int>::fixed
CONST	ENDS
;	COMDAT ?scientific@?$_Iosb@H@std@@2W4_Fmtflags@12@B
CONST	SEGMENT
?scientific@?$_Iosb@H@std@@2W4_Fmtflags@12@B DD 01000H	; std::_Iosb<int>::scientific
CONST	ENDS
;	COMDAT ?hex@?$_Iosb@H@std@@2W4_Fmtflags@12@B
CONST	SEGMENT
?hex@?$_Iosb@H@std@@2W4_Fmtflags@12@B DD 0800H		; std::_Iosb<int>::hex
CONST	ENDS
;	COMDAT ?oct@?$_Iosb@H@std@@2W4_Fmtflags@12@B
CONST	SEGMENT
?oct@?$_Iosb@H@std@@2W4_Fmtflags@12@B DD 0400H		; std::_Iosb<int>::oct
CONST	ENDS
;	COMDAT ?dec@?$_Iosb@H@std@@2W4_Fmtflags@12@B
CONST	SEGMENT
?dec@?$_Iosb@H@std@@2W4_Fmtflags@12@B DD 0200H		; std::_Iosb<int>::dec
CONST	ENDS
;	COMDAT ?internal@?$_Iosb@H@std@@2W4_Fmtflags@12@B
CONST	SEGMENT
?internal@?$_Iosb@H@std@@2W4_Fmtflags@12@B DD 0100H	; std::_Iosb<int>::internal
CONST	ENDS
;	COMDAT ?right@?$_Iosb@H@std@@2W4_Fmtflags@12@B
CONST	SEGMENT
?right@?$_Iosb@H@std@@2W4_Fmtflags@12@B DD 080H		; std::_Iosb<int>::right
CONST	ENDS
;	COMDAT ?left@?$_Iosb@H@std@@2W4_Fmtflags@12@B
CONST	SEGMENT
?left@?$_Iosb@H@std@@2W4_Fmtflags@12@B DD 040H		; std::_Iosb<int>::left
CONST	ENDS
;	COMDAT ?showpos@?$_Iosb@H@std@@2W4_Fmtflags@12@B
CONST	SEGMENT
?showpos@?$_Iosb@H@std@@2W4_Fmtflags@12@B DD 020H	; std::_Iosb<int>::showpos
CONST	ENDS
;	COMDAT ?showpoint@?$_Iosb@H@std@@2W4_Fmtflags@12@B
CONST	SEGMENT
?showpoint@?$_Iosb@H@std@@2W4_Fmtflags@12@B DD 010H	; std::_Iosb<int>::showpoint
CONST	ENDS
;	COMDAT ?showbase@?$_Iosb@H@std@@2W4_Fmtflags@12@B
CONST	SEGMENT
?showbase@?$_Iosb@H@std@@2W4_Fmtflags@12@B DD 08H	; std::_Iosb<int>::showbase
CONST	ENDS
;	COMDAT ?uppercase@?$_Iosb@H@std@@2W4_Fmtflags@12@B
CONST	SEGMENT
?uppercase@?$_Iosb@H@std@@2W4_Fmtflags@12@B DD 04H	; std::_Iosb<int>::uppercase
CONST	ENDS
;	COMDAT ?unitbuf@?$_Iosb@H@std@@2W4_Fmtflags@12@B
CONST	SEGMENT
?unitbuf@?$_Iosb@H@std@@2W4_Fmtflags@12@B DD 02H	; std::_Iosb<int>::unitbuf
CONST	ENDS
;	COMDAT ?skipws@?$_Iosb@H@std@@2W4_Fmtflags@12@B
CONST	SEGMENT
?skipws@?$_Iosb@H@std@@2W4_Fmtflags@12@B DD 01H		; std::_Iosb<int>::skipws
CONST	ENDS
;	COMDAT ?table_size@?$ctype@D@std@@2IB
CONST	SEGMENT
?table_size@?$ctype@D@std@@2IB DD 0100H			; std::ctype<char>::table_size
CONST	ENDS
;	COMDAT ?none@?$_Locbase@H@std@@2HB
CONST	SEGMENT
?none@?$_Locbase@H@std@@2HB DD 00H			; std::_Locbase<int>::none
CONST	ENDS
;	COMDAT ?all@?$_Locbase@H@std@@2HB
CONST	SEGMENT
?all@?$_Locbase@H@std@@2HB DD 03fH			; std::_Locbase<int>::all
CONST	ENDS
;	COMDAT ?messages@?$_Locbase@H@std@@2HB
CONST	SEGMENT
?messages@?$_Locbase@H@std@@2HB DD 020H			; std::_Locbase<int>::messages
CONST	ENDS
;	COMDAT ?time@?$_Locbase@H@std@@2HB
CONST	SEGMENT
?time@?$_Locbase@H@std@@2HB DD 010H			; std::_Locbase<int>::time
CONST	ENDS
;	COMDAT ?numeric@?$_Locbase@H@std@@2HB
CONST	SEGMENT
?numeric@?$_Locbase@H@std@@2HB DD 08H			; std::_Locbase<int>::numeric
CONST	ENDS
;	COMDAT ?monetary@?$_Locbase@H@std@@2HB
CONST	SEGMENT
?monetary@?$_Locbase@H@std@@2HB DD 04H			; std::_Locbase<int>::monetary
CONST	ENDS
;	COMDAT ?ctype@?$_Locbase@H@std@@2HB
CONST	SEGMENT
?ctype@?$_Locbase@H@std@@2HB DD 02H			; std::_Locbase<int>::ctype
CONST	ENDS
;	COMDAT ?collate@?$_Locbase@H@std@@2HB
CONST	SEGMENT
?collate@?$_Locbase@H@std@@2HB DD 01H			; std::_Locbase<int>::collate
CONST	ENDS
_DATA	SEGMENT
__bad_alloc_Message DD FLAT:??_C@_0P@GHFPNOJB@bad?5allocation?$AA@
_DATA	ENDS
;	COMDAT ??_C@_0P@GHFPNOJB@bad?5allocation?$AA@
CONST	SEGMENT
??_C@_0P@GHFPNOJB@bad?5allocation?$AA@ DB 'bad allocation', 00H ; `string'
CONST	ENDS
;	COMDAT ?_Value@?$_Is_swap_move@U_Swap_move_tag@std@@@std@@2_NB
CONST	SEGMENT
?_Value@?$_Is_swap_move@U_Swap_move_tag@std@@@std@@2_NB DB 01H ; std::_Is_swap_move<std::_Swap_move_tag>::_Value
CONST	ENDS
;	COMDAT ?pmField@?$CVarTypeInfo@PATtagCY@@@ATL@@2QQtagVARIANT@@PATtagCY@@Q3@
CONST	SEGMENT
?pmField@?$CVarTypeInfo@PATtagCY@@@ATL@@2QQtagVARIANT@@PATtagCY@@Q3@ DD 08H ; ATL::CVarTypeInfo<tagCY *>::pmField
CONST	ENDS
;	COMDAT ?VT@?$CVarTypeInfo@PATtagCY@@@ATL@@2GB
CONST	SEGMENT
?VT@?$CVarTypeInfo@PATtagCY@@@ATL@@2GB DW 04006H	; ATL::CVarTypeInfo<tagCY *>::VT
CONST	ENDS
;	COMDAT ?pmField@?$CVarTypeInfo@TtagCY@@@ATL@@2QQtagVARIANT@@TtagCY@@Q3@
CONST	SEGMENT
?pmField@?$CVarTypeInfo@TtagCY@@@ATL@@2QQtagVARIANT@@TtagCY@@Q3@ DD 08H ; ATL::CVarTypeInfo<tagCY>::pmField
CONST	ENDS
;	COMDAT ?VT@?$CVarTypeInfo@TtagCY@@@ATL@@2GB
CONST	SEGMENT
?VT@?$CVarTypeInfo@TtagCY@@@ATL@@2GB DW 06H		; ATL::CVarTypeInfo<tagCY>::VT
CONST	ENDS
;	COMDAT ?pmField@?$CVarTypeInfo@PAPAUIDispatch@@@ATL@@2QQtagVARIANT@@PAPAUIDispatch@@Q3@
CONST	SEGMENT
?pmField@?$CVarTypeInfo@PAPAUIDispatch@@@ATL@@2QQtagVARIANT@@PAPAUIDispatch@@Q3@ DD 08H ; ATL::CVarTypeInfo<IDispatch * *>::pmField
CONST	ENDS
;	COMDAT ?VT@?$CVarTypeInfo@PAPAUIDispatch@@@ATL@@2GB
CONST	SEGMENT
?VT@?$CVarTypeInfo@PAPAUIDispatch@@@ATL@@2GB DW 04009H	; ATL::CVarTypeInfo<IDispatch * *>::VT
CONST	ENDS
;	COMDAT ?pmField@?$CVarTypeInfo@PAUIDispatch@@@ATL@@2QQtagVARIANT@@PAUIDispatch@@Q3@
CONST	SEGMENT
?pmField@?$CVarTypeInfo@PAUIDispatch@@@ATL@@2QQtagVARIANT@@PAUIDispatch@@Q3@ DD 08H ; ATL::CVarTypeInfo<IDispatch *>::pmField
CONST	ENDS
;	COMDAT ?VT@?$CVarTypeInfo@PAUIDispatch@@@ATL@@2GB
CONST	SEGMENT
?VT@?$CVarTypeInfo@PAUIDispatch@@@ATL@@2GB DW 09H	; ATL::CVarTypeInfo<IDispatch *>::VT
CONST	ENDS
;	COMDAT ?pmField@?$CVarTypeInfo@PAPAUIUnknown@@@ATL@@2QQtagVARIANT@@PAPAUIUnknown@@Q3@
CONST	SEGMENT
?pmField@?$CVarTypeInfo@PAPAUIUnknown@@@ATL@@2QQtagVARIANT@@PAPAUIUnknown@@Q3@ DD 08H ; ATL::CVarTypeInfo<IUnknown * *>::pmField
CONST	ENDS
;	COMDAT ?VT@?$CVarTypeInfo@PAPAUIUnknown@@@ATL@@2GB
CONST	SEGMENT
?VT@?$CVarTypeInfo@PAPAUIUnknown@@@ATL@@2GB DW 0400dH	; ATL::CVarTypeInfo<IUnknown * *>::VT
CONST	ENDS
;	COMDAT ?pmField@?$CVarTypeInfo@PAUIUnknown@@@ATL@@2QQtagVARIANT@@PAUIUnknown@@Q3@
CONST	SEGMENT
?pmField@?$CVarTypeInfo@PAUIUnknown@@@ATL@@2QQtagVARIANT@@PAUIUnknown@@Q3@ DD 08H ; ATL::CVarTypeInfo<IUnknown *>::pmField
CONST	ENDS
;	COMDAT ?VT@?$CVarTypeInfo@PAUIUnknown@@@ATL@@2GB
CONST	SEGMENT
?VT@?$CVarTypeInfo@PAUIUnknown@@@ATL@@2GB DW 0dH	; ATL::CVarTypeInfo<IUnknown *>::VT
CONST	ENDS
;	COMDAT ?pmField@?$CVarTypeInfo@PAPA_W@ATL@@2QQtagVARIANT@@PAPA_WQ3@
CONST	SEGMENT
?pmField@?$CVarTypeInfo@PAPA_W@ATL@@2QQtagVARIANT@@PAPA_WQ3@ DD 08H ; ATL::CVarTypeInfo<wchar_t * *>::pmField
CONST	ENDS
;	COMDAT ?VT@?$CVarTypeInfo@PAPA_W@ATL@@2GB
CONST	SEGMENT
?VT@?$CVarTypeInfo@PAPA_W@ATL@@2GB DW 04008H		; ATL::CVarTypeInfo<wchar_t * *>::VT
CONST	ENDS
;	COMDAT ?pmField@?$CVarTypeInfo@PA_W@ATL@@2QQtagVARIANT@@PA_WQ3@
CONST	SEGMENT
?pmField@?$CVarTypeInfo@PA_W@ATL@@2QQtagVARIANT@@PA_WQ3@ DD 08H ; ATL::CVarTypeInfo<wchar_t *>::pmField
CONST	ENDS
;	COMDAT ?VT@?$CVarTypeInfo@PA_W@ATL@@2GB
CONST	SEGMENT
?VT@?$CVarTypeInfo@PA_W@ATL@@2GB DW 08H			; ATL::CVarTypeInfo<wchar_t *>::VT
CONST	ENDS
;	COMDAT ?VT@?$CVarTypeInfo@UtagVARIANT@@@ATL@@2GB
CONST	SEGMENT
?VT@?$CVarTypeInfo@UtagVARIANT@@@ATL@@2GB DW 0cH	; ATL::CVarTypeInfo<tagVARIANT>::VT
CONST	ENDS
;	COMDAT ?pmField@?$CVarTypeInfo@PAN@ATL@@2QQtagVARIANT@@PANQ3@
CONST	SEGMENT
?pmField@?$CVarTypeInfo@PAN@ATL@@2QQtagVARIANT@@PANQ3@ DD 08H ; ATL::CVarTypeInfo<double *>::pmField
CONST	ENDS
;	COMDAT ?VT@?$CVarTypeInfo@PAN@ATL@@2GB
CONST	SEGMENT
?VT@?$CVarTypeInfo@PAN@ATL@@2GB DW 04005H		; ATL::CVarTypeInfo<double *>::VT
CONST	ENDS
;	COMDAT ?pmField@?$CVarTypeInfo@N@ATL@@2QQtagVARIANT@@NQ3@
CONST	SEGMENT
?pmField@?$CVarTypeInfo@N@ATL@@2QQtagVARIANT@@NQ3@ DD 08H ; ATL::CVarTypeInfo<double>::pmField
CONST	ENDS
;	COMDAT ?VT@?$CVarTypeInfo@N@ATL@@2GB
CONST	SEGMENT
?VT@?$CVarTypeInfo@N@ATL@@2GB DW 05H			; ATL::CVarTypeInfo<double>::VT
CONST	ENDS
;	COMDAT ?pmField@?$CVarTypeInfo@PAM@ATL@@2QQtagVARIANT@@PAMQ3@
CONST	SEGMENT
?pmField@?$CVarTypeInfo@PAM@ATL@@2QQtagVARIANT@@PAMQ3@ DD 08H ; ATL::CVarTypeInfo<float *>::pmField
CONST	ENDS
;	COMDAT ?VT@?$CVarTypeInfo@PAM@ATL@@2GB
CONST	SEGMENT
?VT@?$CVarTypeInfo@PAM@ATL@@2GB DW 04004H		; ATL::CVarTypeInfo<float *>::VT
CONST	ENDS
;	COMDAT ?pmField@?$CVarTypeInfo@M@ATL@@2QQtagVARIANT@@MQ3@
CONST	SEGMENT
?pmField@?$CVarTypeInfo@M@ATL@@2QQtagVARIANT@@MQ3@ DD 08H ; ATL::CVarTypeInfo<float>::pmField
CONST	ENDS
;	COMDAT ?VT@?$CVarTypeInfo@M@ATL@@2GB
CONST	SEGMENT
?VT@?$CVarTypeInfo@M@ATL@@2GB DW 04H			; ATL::CVarTypeInfo<float>::VT
CONST	ENDS
;	COMDAT ?pmField@?$CVarTypeInfo@PA_K@ATL@@2QQtagVARIANT@@PA_KQ3@
CONST	SEGMENT
?pmField@?$CVarTypeInfo@PA_K@ATL@@2QQtagVARIANT@@PA_KQ3@ DD 08H ; ATL::CVarTypeInfo<unsigned __int64 *>::pmField
CONST	ENDS
;	COMDAT ?VT@?$CVarTypeInfo@PA_K@ATL@@2GB
CONST	SEGMENT
?VT@?$CVarTypeInfo@PA_K@ATL@@2GB DW 04015H		; ATL::CVarTypeInfo<unsigned __int64 *>::VT
CONST	ENDS
;	COMDAT ?pmField@?$CVarTypeInfo@_K@ATL@@2QQtagVARIANT@@_KQ3@
CONST	SEGMENT
?pmField@?$CVarTypeInfo@_K@ATL@@2QQtagVARIANT@@_KQ3@ DD 08H ; ATL::CVarTypeInfo<unsigned __int64>::pmField
CONST	ENDS
;	COMDAT ?VT@?$CVarTypeInfo@_K@ATL@@2GB
CONST	SEGMENT
?VT@?$CVarTypeInfo@_K@ATL@@2GB DW 015H			; ATL::CVarTypeInfo<unsigned __int64>::VT
CONST	ENDS
;	COMDAT ?pmField@?$CVarTypeInfo@PA_J@ATL@@2QQtagVARIANT@@PA_JQ3@
CONST	SEGMENT
?pmField@?$CVarTypeInfo@PA_J@ATL@@2QQtagVARIANT@@PA_JQ3@ DD 08H ; ATL::CVarTypeInfo<__int64 *>::pmField
CONST	ENDS
;	COMDAT ?VT@?$CVarTypeInfo@PA_J@ATL@@2GB
CONST	SEGMENT
?VT@?$CVarTypeInfo@PA_J@ATL@@2GB DW 04014H		; ATL::CVarTypeInfo<__int64 *>::VT
CONST	ENDS
;	COMDAT ?pmField@?$CVarTypeInfo@_J@ATL@@2QQtagVARIANT@@_JQ3@
CONST	SEGMENT
?pmField@?$CVarTypeInfo@_J@ATL@@2QQtagVARIANT@@_JQ3@ DD 08H ; ATL::CVarTypeInfo<__int64>::pmField
CONST	ENDS
;	COMDAT ?VT@?$CVarTypeInfo@_J@ATL@@2GB
CONST	SEGMENT
?VT@?$CVarTypeInfo@_J@ATL@@2GB DW 014H			; ATL::CVarTypeInfo<__int64>::VT
CONST	ENDS
;	COMDAT ?pmField@?$CVarTypeInfo@PAK@ATL@@2QQtagVARIANT@@PAKQ3@
CONST	SEGMENT
?pmField@?$CVarTypeInfo@PAK@ATL@@2QQtagVARIANT@@PAKQ3@ DD 08H ; ATL::CVarTypeInfo<unsigned long *>::pmField
CONST	ENDS
;	COMDAT ?VT@?$CVarTypeInfo@PAK@ATL@@2GB
CONST	SEGMENT
?VT@?$CVarTypeInfo@PAK@ATL@@2GB DW 04013H		; ATL::CVarTypeInfo<unsigned long *>::VT
CONST	ENDS
;	COMDAT ?pmField@?$CVarTypeInfo@K@ATL@@2QQtagVARIANT@@KQ3@
CONST	SEGMENT
?pmField@?$CVarTypeInfo@K@ATL@@2QQtagVARIANT@@KQ3@ DD 08H ; ATL::CVarTypeInfo<unsigned long>::pmField
CONST	ENDS
;	COMDAT ?VT@?$CVarTypeInfo@K@ATL@@2GB
CONST	SEGMENT
?VT@?$CVarTypeInfo@K@ATL@@2GB DW 013H			; ATL::CVarTypeInfo<unsigned long>::VT
CONST	ENDS
;	COMDAT ?pmField@?$CVarTypeInfo@PAJ@ATL@@2QQtagVARIANT@@PAJQ3@
CONST	SEGMENT
?pmField@?$CVarTypeInfo@PAJ@ATL@@2QQtagVARIANT@@PAJQ3@ DD 08H ; ATL::CVarTypeInfo<long *>::pmField
CONST	ENDS
;	COMDAT ?VT@?$CVarTypeInfo@PAJ@ATL@@2GB
CONST	SEGMENT
?VT@?$CVarTypeInfo@PAJ@ATL@@2GB DW 04003H		; ATL::CVarTypeInfo<long *>::VT
CONST	ENDS
;	COMDAT ?pmField@?$CVarTypeInfo@J@ATL@@2QQtagVARIANT@@JQ3@
CONST	SEGMENT
?pmField@?$CVarTypeInfo@J@ATL@@2QQtagVARIANT@@JQ3@ DD 08H ; ATL::CVarTypeInfo<long>::pmField
CONST	ENDS
;	COMDAT ?VT@?$CVarTypeInfo@J@ATL@@2GB
CONST	SEGMENT
?VT@?$CVarTypeInfo@J@ATL@@2GB DW 03H			; ATL::CVarTypeInfo<long>::VT
CONST	ENDS
;	COMDAT ?pmField@?$CVarTypeInfo@PAI@ATL@@2QQtagVARIANT@@PAIQ3@
CONST	SEGMENT
?pmField@?$CVarTypeInfo@PAI@ATL@@2QQtagVARIANT@@PAIQ3@ DD 08H ; ATL::CVarTypeInfo<unsigned int *>::pmField
CONST	ENDS
;	COMDAT ?VT@?$CVarTypeInfo@PAI@ATL@@2GB
CONST	SEGMENT
?VT@?$CVarTypeInfo@PAI@ATL@@2GB DW 04013H		; ATL::CVarTypeInfo<unsigned int *>::VT
CONST	ENDS
;	COMDAT ?pmField@?$CVarTypeInfo@I@ATL@@2QQtagVARIANT@@IQ3@
CONST	SEGMENT
?pmField@?$CVarTypeInfo@I@ATL@@2QQtagVARIANT@@IQ3@ DD 08H ; ATL::CVarTypeInfo<unsigned int>::pmField
CONST	ENDS
;	COMDAT ?VT@?$CVarTypeInfo@I@ATL@@2GB
CONST	SEGMENT
?VT@?$CVarTypeInfo@I@ATL@@2GB DW 013H			; ATL::CVarTypeInfo<unsigned int>::VT
CONST	ENDS
;	COMDAT ?pmField@?$CVarTypeInfo@PAH@ATL@@2QQtagVARIANT@@PAHQ3@
CONST	SEGMENT
?pmField@?$CVarTypeInfo@PAH@ATL@@2QQtagVARIANT@@PAHQ3@ DD 08H ; ATL::CVarTypeInfo<int *>::pmField
CONST	ENDS
;	COMDAT ?VT@?$CVarTypeInfo@PAH@ATL@@2GB
CONST	SEGMENT
?VT@?$CVarTypeInfo@PAH@ATL@@2GB DW 04003H		; ATL::CVarTypeInfo<int *>::VT
CONST	ENDS
;	COMDAT ?pmField@?$CVarTypeInfo@H@ATL@@2QQtagVARIANT@@HQ3@
CONST	SEGMENT
?pmField@?$CVarTypeInfo@H@ATL@@2QQtagVARIANT@@HQ3@ DD 08H ; ATL::CVarTypeInfo<int>::pmField
CONST	ENDS
;	COMDAT ?VT@?$CVarTypeInfo@H@ATL@@2GB
CONST	SEGMENT
?VT@?$CVarTypeInfo@H@ATL@@2GB DW 03H			; ATL::CVarTypeInfo<int>::VT
CONST	ENDS
;	COMDAT ?pmField@?$CVarTypeInfo@PAG@ATL@@2QQtagVARIANT@@PAGQ3@
CONST	SEGMENT
?pmField@?$CVarTypeInfo@PAG@ATL@@2QQtagVARIANT@@PAGQ3@ DD 08H ; ATL::CVarTypeInfo<unsigned short *>::pmField
CONST	ENDS
;	COMDAT ?VT@?$CVarTypeInfo@PAG@ATL@@2GB
CONST	SEGMENT
?VT@?$CVarTypeInfo@PAG@ATL@@2GB DW 04012H		; ATL::CVarTypeInfo<unsigned short *>::VT
CONST	ENDS
;	COMDAT ?pmField@?$CVarTypeInfo@G@ATL@@2QQtagVARIANT@@GQ3@
CONST	SEGMENT
?pmField@?$CVarTypeInfo@G@ATL@@2QQtagVARIANT@@GQ3@ DD 08H ; ATL::CVarTypeInfo<unsigned short>::pmField
CONST	ENDS
;	COMDAT ?VT@?$CVarTypeInfo@G@ATL@@2GB
CONST	SEGMENT
?VT@?$CVarTypeInfo@G@ATL@@2GB DW 012H			; ATL::CVarTypeInfo<unsigned short>::VT
CONST	ENDS
;	COMDAT ?pmField@?$CVarTypeInfo@PAF@ATL@@2QQtagVARIANT@@PAFQ3@
CONST	SEGMENT
?pmField@?$CVarTypeInfo@PAF@ATL@@2QQtagVARIANT@@PAFQ3@ DD 08H ; ATL::CVarTypeInfo<short *>::pmField
CONST	ENDS
;	COMDAT ?VT@?$CVarTypeInfo@PAF@ATL@@2GB
CONST	SEGMENT
?VT@?$CVarTypeInfo@PAF@ATL@@2GB DW 04002H		; ATL::CVarTypeInfo<short *>::VT
CONST	ENDS
;	COMDAT ?pmField@?$CVarTypeInfo@F@ATL@@2QQtagVARIANT@@FQ3@
CONST	SEGMENT
?pmField@?$CVarTypeInfo@F@ATL@@2QQtagVARIANT@@FQ3@ DD 08H ; ATL::CVarTypeInfo<short>::pmField
CONST	ENDS
;	COMDAT ?VT@?$CVarTypeInfo@F@ATL@@2GB
CONST	SEGMENT
?VT@?$CVarTypeInfo@F@ATL@@2GB DW 02H			; ATL::CVarTypeInfo<short>::VT
CONST	ENDS
;	COMDAT ?pmField@?$CVarTypeInfo@PAE@ATL@@2QQtagVARIANT@@PAEQ3@
CONST	SEGMENT
?pmField@?$CVarTypeInfo@PAE@ATL@@2QQtagVARIANT@@PAEQ3@ DD 08H ; ATL::CVarTypeInfo<unsigned char *>::pmField
CONST	ENDS
;	COMDAT ?VT@?$CVarTypeInfo@PAE@ATL@@2GB
CONST	SEGMENT
?VT@?$CVarTypeInfo@PAE@ATL@@2GB DW 04011H		; ATL::CVarTypeInfo<unsigned char *>::VT
CONST	ENDS
;	COMDAT ?pmField@?$CVarTypeInfo@PAD@ATL@@2QQtagVARIANT@@PADQ3@
CONST	SEGMENT
?pmField@?$CVarTypeInfo@PAD@ATL@@2QQtagVARIANT@@PADQ3@ DD 08H ; ATL::CVarTypeInfo<char *>::pmField
CONST	ENDS
;	COMDAT ?VT@?$CVarTypeInfo@PAD@ATL@@2GB
CONST	SEGMENT
?VT@?$CVarTypeInfo@PAD@ATL@@2GB DW 04010H		; ATL::CVarTypeInfo<char *>::VT
CONST	ENDS
;	COMDAT ?pmField@?$CVarTypeInfo@E@ATL@@2QQtagVARIANT@@EQ3@
CONST	SEGMENT
?pmField@?$CVarTypeInfo@E@ATL@@2QQtagVARIANT@@EQ3@ DD 08H ; ATL::CVarTypeInfo<unsigned char>::pmField
CONST	ENDS
;	COMDAT ?VT@?$CVarTypeInfo@E@ATL@@2GB
CONST	SEGMENT
?VT@?$CVarTypeInfo@E@ATL@@2GB DW 011H			; ATL::CVarTypeInfo<unsigned char>::VT
CONST	ENDS
;	COMDAT ?pmField@?$CVarTypeInfo@D@ATL@@2QQtagVARIANT@@DQ3@
CONST	SEGMENT
?pmField@?$CVarTypeInfo@D@ATL@@2QQtagVARIANT@@DQ3@ DD 08H ; ATL::CVarTypeInfo<char>::pmField
CONST	ENDS
;	COMDAT ?VT@?$CVarTypeInfo@D@ATL@@2GB
CONST	SEGMENT
?VT@?$CVarTypeInfo@D@ATL@@2GB DW 010H			; ATL::CVarTypeInfo<char>::VT
CONST	ENDS
;	COMDAT ?_Max@?$AtlLimits@_K@ATL@@2_KB
CONST	SEGMENT
?_Max@?$AtlLimits@_K@ATL@@2_KB DQ ffffffffffffffffH	; ATL::AtlLimits<unsigned __int64>::_Max
CONST	ENDS
;	COMDAT ?_Min@?$AtlLimits@_K@ATL@@2_KB
CONST	SEGMENT
?_Min@?$AtlLimits@_K@ATL@@2_KB DQ 0000000000000000H	; ATL::AtlLimits<unsigned __int64>::_Min
CONST	ENDS
;	COMDAT ?_Max@?$AtlLimits@_J@ATL@@2_JB
CONST	SEGMENT
?_Max@?$AtlLimits@_J@ATL@@2_JB DQ 7fffffffffffffffH	; ATL::AtlLimits<__int64>::_Max
CONST	ENDS
;	COMDAT ?_Min@?$AtlLimits@_J@ATL@@2_JB
CONST	SEGMENT
?_Min@?$AtlLimits@_J@ATL@@2_JB DQ 8000000000000000H	; ATL::AtlLimits<__int64>::_Min
CONST	ENDS
;	COMDAT ?_Max@?$AtlLimits@K@ATL@@2KB
CONST	SEGMENT
?_Max@?$AtlLimits@K@ATL@@2KB DD 0ffffffffH		; ATL::AtlLimits<unsigned long>::_Max
CONST	ENDS
;	COMDAT ?_Min@?$AtlLimits@K@ATL@@2KB
CONST	SEGMENT
?_Min@?$AtlLimits@K@ATL@@2KB DD 00H			; ATL::AtlLimits<unsigned long>::_Min
CONST	ENDS
;	COMDAT ?_Max@?$AtlLimits@J@ATL@@2JB
CONST	SEGMENT
?_Max@?$AtlLimits@J@ATL@@2JB DD 07fffffffH		; ATL::AtlLimits<long>::_Max
CONST	ENDS
;	COMDAT ?_Min@?$AtlLimits@J@ATL@@2JB
CONST	SEGMENT
?_Min@?$AtlLimits@J@ATL@@2JB DD 080000000H		; ATL::AtlLimits<long>::_Min
CONST	ENDS
;	COMDAT ?_Max@?$AtlLimits@I@ATL@@2IB
CONST	SEGMENT
?_Max@?$AtlLimits@I@ATL@@2IB DD 0ffffffffH		; ATL::AtlLimits<unsigned int>::_Max
CONST	ENDS
;	COMDAT ?_Min@?$AtlLimits@I@ATL@@2IB
CONST	SEGMENT
?_Min@?$AtlLimits@I@ATL@@2IB DD 00H			; ATL::AtlLimits<unsigned int>::_Min
CONST	ENDS
;	COMDAT ?_Max@?$AtlLimits@H@ATL@@2HB
CONST	SEGMENT
?_Max@?$AtlLimits@H@ATL@@2HB DD 07fffffffH		; ATL::AtlLimits<int>::_Max
CONST	ENDS
;	COMDAT ?_Min@?$AtlLimits@H@ATL@@2HB
CONST	SEGMENT
?_Min@?$AtlLimits@H@ATL@@2HB DD 080000000H		; ATL::AtlLimits<int>::_Min
CONST	ENDS
PUBLIC	??_7Thank_you@Define_the_symbol__ATL_MIXED@@6B@	; Define_the_symbol__ATL_MIXED::Thank_you::`vftable'
PUBLIC	??0Thank_you@Define_the_symbol__ATL_MIXED@@QAE@XZ ; Define_the_symbol__ATL_MIXED::Thank_you::Thank_you
PUBLIC	??_R4Thank_you@Define_the_symbol__ATL_MIXED@@6B@ ; Define_the_symbol__ATL_MIXED::Thank_you::`RTTI Complete Object Locator'
PUBLIC	??_R0?AUThank_you@Define_the_symbol__ATL_MIXED@@@8 ; Define_the_symbol__ATL_MIXED::Thank_you `RTTI Type Descriptor'
PUBLIC	??_R3Thank_you@Define_the_symbol__ATL_MIXED@@8	; Define_the_symbol__ATL_MIXED::Thank_you::`RTTI Class Hierarchy Descriptor'
PUBLIC	??_R2Thank_you@Define_the_symbol__ATL_MIXED@@8	; Define_the_symbol__ATL_MIXED::Thank_you::`RTTI Base Class Array'
PUBLIC	??_R1A@?0A@EA@Thank_you@Define_the_symbol__ATL_MIXED@@8 ; Define_the_symbol__ATL_MIXED::Thank_you::`RTTI Base Class Descriptor at (0,-1,0,64)'
PUBLIC	?one@Thank_you@Define_the_symbol__ATL_MIXED@@UAEXXZ ; Define_the_symbol__ATL_MIXED::Thank_you::one
EXTRN	??_7type_info@@6B@:QWORD			; type_info::`vftable'
;	COMDAT ??_R1A@?0A@EA@Thank_you@Define_the_symbol__ATL_MIXED@@8
rdata$r	SEGMENT
??_R1A@?0A@EA@Thank_you@Define_the_symbol__ATL_MIXED@@8 DD FLAT:??_R0?AUThank_you@Define_the_symbol__ATL_MIXED@@@8 ; Define_the_symbol__ATL_MIXED::Thank_you::`RTTI Base Class Descriptor at (0,-1,0,64)'
	DD	00H
	DD	00H
	DD	0ffffffffH
	DD	00H
	DD	040H
	DD	FLAT:??_R3Thank_you@Define_the_symbol__ATL_MIXED@@8
rdata$r	ENDS
;	COMDAT ??_R2Thank_you@Define_the_symbol__ATL_MIXED@@8
rdata$r	SEGMENT
??_R2Thank_you@Define_the_symbol__ATL_MIXED@@8 DD FLAT:??_R1A@?0A@EA@Thank_you@Define_the_symbol__ATL_MIXED@@8 ; Define_the_symbol__ATL_MIXED::Thank_you::`RTTI Base Class Array'
rdata$r	ENDS
;	COMDAT ??_R3Thank_you@Define_the_symbol__ATL_MIXED@@8
rdata$r	SEGMENT
??_R3Thank_you@Define_the_symbol__ATL_MIXED@@8 DD 00H	; Define_the_symbol__ATL_MIXED::Thank_you::`RTTI Class Hierarchy Descriptor'
	DD	00H
	DD	01H
	DD	FLAT:??_R2Thank_you@Define_the_symbol__ATL_MIXED@@8
rdata$r	ENDS
;	COMDAT ??_R0?AUThank_you@Define_the_symbol__ATL_MIXED@@@8
_DATA	SEGMENT
??_R0?AUThank_you@Define_the_symbol__ATL_MIXED@@@8 DD FLAT:??_7type_info@@6B@ ; Define_the_symbol__ATL_MIXED::Thank_you `RTTI Type Descriptor'
	DD	00H
	DB	'.?AUThank_you@Define_the_symbol__ATL_MIXED@@', 00H
_DATA	ENDS
;	COMDAT ??_R4Thank_you@Define_the_symbol__ATL_MIXED@@6B@
rdata$r	SEGMENT
??_R4Thank_you@Define_the_symbol__ATL_MIXED@@6B@ DD 00H	; Define_the_symbol__ATL_MIXED::Thank_you::`RTTI Complete Object Locator'
	DD	00H
	DD	00H
	DD	FLAT:??_R0?AUThank_you@Define_the_symbol__ATL_MIXED@@@8
	DD	FLAT:??_R3Thank_you@Define_the_symbol__ATL_MIXED@@8
rdata$r	ENDS
;	COMDAT ??_7Thank_you@Define_the_symbol__ATL_MIXED@@6B@
CONST	SEGMENT
??_7Thank_you@Define_the_symbol__ATL_MIXED@@6B@ DD FLAT:??_R4Thank_you@Define_the_symbol__ATL_MIXED@@6B@ ; Define_the_symbol__ATL_MIXED::Thank_you::`vftable'
	DD	FLAT:?one@Thank_you@Define_the_symbol__ATL_MIXED@@UAEXXZ
; Function compile flags: /Ogtpy
CONST	ENDS
;	COMDAT ??0Thank_you@Define_the_symbol__ATL_MIXED@@QAE@XZ
_TEXT	SEGMENT
??0Thank_you@Define_the_symbol__ATL_MIXED@@QAE@XZ PROC	; Define_the_symbol__ATL_MIXED::Thank_you::Thank_you, COMDAT
; _this$ = ecx
  00000	8b c1		 mov	 eax, ecx
  00002	c7 00 00 00 00
	00		 mov	 DWORD PTR [eax], OFFSET ??_7Thank_you@Define_the_symbol__ATL_MIXED@@6B@
  00008	c3		 ret	 0
??0Thank_you@Define_the_symbol__ATL_MIXED@@QAE@XZ ENDP	; Define_the_symbol__ATL_MIXED::Thank_you::Thank_you
; Function compile flags: /Ogtpy
; File c:\program files (x86)\microsoft visual studio 9.0\vc\atlmfc\include\atldef.h
_TEXT	ENDS
;	COMDAT ?one@Thank_you@Define_the_symbol__ATL_MIXED@@UAEXXZ
_TEXT	SEGMENT
?one@Thank_you@Define_the_symbol__ATL_MIXED@@UAEXXZ PROC ; Define_the_symbol__ATL_MIXED::Thank_you::one, COMDAT
; _this$ = ecx

; 80   : 	struct Thank_you { virtual void one(){} };

  00000	c3		 ret	 0
?one@Thank_you@Define_the_symbol__ATL_MIXED@@UAEXXZ ENDP ; Define_the_symbol__ATL_MIXED::Thank_you::one
_TEXT	ENDS
PUBLIC	??_7Exception@CipherShed@@6B@			; CipherShed::Exception::`vftable'
PUBLIC	??0Exception@CipherShed@@QAE@XZ			; CipherShed::Exception::Exception
PUBLIC	??_R4Exception@CipherShed@@6B@			; CipherShed::Exception::`RTTI Complete Object Locator'
PUBLIC	??_R0?AUException@CipherShed@@@8		; CipherShed::Exception `RTTI Type Descriptor'
PUBLIC	??_R3Exception@CipherShed@@8			; CipherShed::Exception::`RTTI Class Hierarchy Descriptor'
PUBLIC	??_R2Exception@CipherShed@@8			; CipherShed::Exception::`RTTI Base Class Array'
PUBLIC	??_R1A@?0A@EA@Exception@CipherShed@@8		; CipherShed::Exception::`RTTI Base Class Descriptor at (0,-1,0,64)'
EXTRN	__purecall:PROC
;	COMDAT ??_R1A@?0A@EA@Exception@CipherShed@@8
rdata$r	SEGMENT
??_R1A@?0A@EA@Exception@CipherShed@@8 DD FLAT:??_R0?AUException@CipherShed@@@8 ; CipherShed::Exception::`RTTI Base Class Descriptor at (0,-1,0,64)'
	DD	00H
	DD	00H
	DD	0ffffffffH
	DD	00H
	DD	040H
	DD	FLAT:??_R3Exception@CipherShed@@8
rdata$r	ENDS
;	COMDAT ??_R2Exception@CipherShed@@8
rdata$r	SEGMENT
??_R2Exception@CipherShed@@8 DD FLAT:??_R1A@?0A@EA@Exception@CipherShed@@8 ; CipherShed::Exception::`RTTI Base Class Array'
rdata$r	ENDS
;	COMDAT ??_R3Exception@CipherShed@@8
rdata$r	SEGMENT
??_R3Exception@CipherShed@@8 DD 00H			; CipherShed::Exception::`RTTI Class Hierarchy Descriptor'
	DD	00H
	DD	01H
	DD	FLAT:??_R2Exception@CipherShed@@8
rdata$r	ENDS
;	COMDAT ??_R0?AUException@CipherShed@@@8
_DATA	SEGMENT
??_R0?AUException@CipherShed@@@8 DD FLAT:??_7type_info@@6B@ ; CipherShed::Exception `RTTI Type Descriptor'
	DD	00H
	DB	'.?AUException@CipherShed@@', 00H
_DATA	ENDS
;	COMDAT ??_R4Exception@CipherShed@@6B@
rdata$r	SEGMENT
??_R4Exception@CipherShed@@6B@ DD 00H			; CipherShed::Exception::`RTTI Complete Object Locator'
	DD	00H
	DD	00H
	DD	FLAT:??_R0?AUException@CipherShed@@@8
	DD	FLAT:??_R3Exception@CipherShed@@8
rdata$r	ENDS
;	COMDAT ??_7Exception@CipherShed@@6B@
CONST	SEGMENT
??_7Exception@CipherShed@@6B@ DD FLAT:??_R4Exception@CipherShed@@6B@ ; CipherShed::Exception::`vftable'
	DD	FLAT:__purecall
; Function compile flags: /Ogtpy
CONST	ENDS
;	COMDAT ??0Exception@CipherShed@@QAE@XZ
_TEXT	SEGMENT
??0Exception@CipherShed@@QAE@XZ PROC			; CipherShed::Exception::Exception, COMDAT
; _this$ = ecx
  00000	8b c1		 mov	 eax, ecx
  00002	c7 00 00 00 00
	00		 mov	 DWORD PTR [eax], OFFSET ??_7Exception@CipherShed@@6B@
  00008	c3		 ret	 0
??0Exception@CipherShed@@QAE@XZ ENDP			; CipherShed::Exception::Exception
_TEXT	ENDS
PUBLIC	??_7UserAbort@CipherShed@@6B@			; CipherShed::UserAbort::`vftable'
PUBLIC	??0UserAbort@CipherShed@@QAE@PBD@Z		; CipherShed::UserAbort::UserAbort
PUBLIC	??_R4UserAbort@CipherShed@@6B@			; CipherShed::UserAbort::`RTTI Complete Object Locator'
PUBLIC	??_R0?AUUserAbort@CipherShed@@@8		; CipherShed::UserAbort `RTTI Type Descriptor'
PUBLIC	??_R3UserAbort@CipherShed@@8			; CipherShed::UserAbort::`RTTI Class Hierarchy Descriptor'
PUBLIC	??_R2UserAbort@CipherShed@@8			; CipherShed::UserAbort::`RTTI Base Class Array'
PUBLIC	??_R1A@?0A@EA@UserAbort@CipherShed@@8		; CipherShed::UserAbort::`RTTI Base Class Descriptor at (0,-1,0,64)'
PUBLIC	?Show@UserAbort@CipherShed@@UBEXPAUHWND__@@@Z	; CipherShed::UserAbort::Show
;	COMDAT ??_R1A@?0A@EA@UserAbort@CipherShed@@8
; File c:\home\public\desktop\projects\ciphershed.build\src\common\exception.h
rdata$r	SEGMENT
??_R1A@?0A@EA@UserAbort@CipherShed@@8 DD FLAT:??_R0?AUUserAbort@CipherShed@@@8 ; CipherShed::UserAbort::`RTTI Base Class Descriptor at (0,-1,0,64)'
	DD	01H
	DD	00H
	DD	0ffffffffH
	DD	00H
	DD	040H
	DD	FLAT:??_R3UserAbort@CipherShed@@8
rdata$r	ENDS
;	COMDAT ??_R2UserAbort@CipherShed@@8
rdata$r	SEGMENT
??_R2UserAbort@CipherShed@@8 DD FLAT:??_R1A@?0A@EA@UserAbort@CipherShed@@8 ; CipherShed::UserAbort::`RTTI Base Class Array'
	DD	FLAT:??_R1A@?0A@EA@Exception@CipherShed@@8
rdata$r	ENDS
;	COMDAT ??_R3UserAbort@CipherShed@@8
rdata$r	SEGMENT
??_R3UserAbort@CipherShed@@8 DD 00H			; CipherShed::UserAbort::`RTTI Class Hierarchy Descriptor'
	DD	00H
	DD	02H
	DD	FLAT:??_R2UserAbort@CipherShed@@8
rdata$r	ENDS
;	COMDAT ??_R0?AUUserAbort@CipherShed@@@8
_DATA	SEGMENT
??_R0?AUUserAbort@CipherShed@@@8 DD FLAT:??_7type_info@@6B@ ; CipherShed::UserAbort `RTTI Type Descriptor'
	DD	00H
	DB	'.?AUUserAbort@CipherShed@@', 00H
_DATA	ENDS
;	COMDAT ??_R4UserAbort@CipherShed@@6B@
rdata$r	SEGMENT
??_R4UserAbort@CipherShed@@6B@ DD 00H			; CipherShed::UserAbort::`RTTI Complete Object Locator'
	DD	00H
	DD	00H
	DD	FLAT:??_R0?AUUserAbort@CipherShed@@@8
	DD	FLAT:??_R3UserAbort@CipherShed@@8
rdata$r	ENDS
;	COMDAT ??_7UserAbort@CipherShed@@6B@
CONST	SEGMENT
??_7UserAbort@CipherShed@@6B@ DD FLAT:??_R4UserAbort@CipherShed@@6B@ ; CipherShed::UserAbort::`vftable'
	DD	FLAT:?Show@UserAbort@CipherShed@@UBEXPAUHWND__@@@Z
; Function compile flags: /Ogtpy
CONST	ENDS
;	COMDAT ??0UserAbort@CipherShed@@QAE@PBD@Z
_TEXT	SEGMENT
_srcPos$ = 8						; size = 4
??0UserAbort@CipherShed@@QAE@PBD@Z PROC			; CipherShed::UserAbort::UserAbort, COMDAT
; _this$ = ecx

; 73   : 		UserAbort (const char *srcPos) { }

  00000	8b c1		 mov	 eax, ecx
  00002	c7 00 00 00 00
	00		 mov	 DWORD PTR [eax], OFFSET ??_7UserAbort@CipherShed@@6B@
  00008	c2 04 00	 ret	 4
??0UserAbort@CipherShed@@QAE@PBD@Z ENDP			; CipherShed::UserAbort::UserAbort
; Function compile flags: /Ogtpy
_TEXT	ENDS
;	COMDAT ?Show@UserAbort@CipherShed@@UBEXPAUHWND__@@@Z
_TEXT	SEGMENT
_parent$ = 8						; size = 4
?Show@UserAbort@CipherShed@@UBEXPAUHWND__@@@Z PROC	; CipherShed::UserAbort::Show, COMDAT
; _this$ = ecx

; 74   : 		void Show (HWND parent) const { }

  00000	c2 04 00	 ret	 4
?Show@UserAbort@CipherShed@@UBEXPAUHWND__@@@Z ENDP	; CipherShed::UserAbort::Show
_TEXT	ENDS
PUBLIC	??0IUnknown@@QAE@XZ				; IUnknown::IUnknown
; Function compile flags: /Ogtpy
;	COMDAT ??0IUnknown@@QAE@XZ
_TEXT	SEGMENT
??0IUnknown@@QAE@XZ PROC				; IUnknown::IUnknown, COMDAT
; _this$ = ecx
  00000	8b c1		 mov	 eax, ecx
  00002	c3		 ret	 0
??0IUnknown@@QAE@XZ ENDP				; IUnknown::IUnknown
_TEXT	ENDS
EXTRN	?ComGetInstanceBase@@YAHPAUHWND__@@ABU_GUID@@1PAPAX@Z:PROC ; ComGetInstanceBase
; Function compile flags: /Ogtpy
; File c:\home\public\desktop\projects\ciphershed.build\src\format\formatcom.cpp
;	COMDAT ?ComGetInstance@@YAHPAUHWND__@@PAPAUICipherShedFormatCom@@@Z
_TEXT	SEGMENT
?ComGetInstance@@YAHPAUHWND__@@PAPAUICipherShedFormatCom@@@Z PROC ; ComGetInstance, COMDAT
; _hWnd$ = ecx
; _tcServer$ = eax

; 176  : 	return ComGetInstanceBase (hWnd, CLSID_CipherShedFormatCom, IID_ICipherShedFormatCom, (void **) tcServer);

  00000	50		 push	 eax
  00001	68 00 00 00 00	 push	 OFFSET _IID_ICipherShedFormatCom
  00006	68 00 00 00 00	 push	 OFFSET _CLSID_CipherShedFormatCom
  0000b	51		 push	 ecx
  0000c	e8 00 00 00 00	 call	 ?ComGetInstanceBase@@YAHPAUHWND__@@ABU_GUID@@1PAPAX@Z ; ComGetInstanceBase
  00011	83 c4 10	 add	 esp, 16			; 00000010H

; 177  : }

  00014	c3		 ret	 0
?ComGetInstance@@YAHPAUHWND__@@PAPAUICipherShedFormatCom@@@Z ENDP ; ComGetInstance
_TEXT	ENDS
PUBLIC	__TI2?AUUserAbort@CipherShed@@
PUBLIC	?GetElevatedInstance@@YAPAUICipherShedFormatCom@@PAUHWND__@@@Z ; GetElevatedInstance
PUBLIC	__CTA2?AUUserAbort@CipherShed@@
PUBLIC	__CT??_R0?AUUserAbort@CipherShed@@@8??0UserAbort@CipherShed@@QAE@ABU01@@Z4
PUBLIC	??0UserAbort@CipherShed@@QAE@ABU01@@Z		; CipherShed::UserAbort::UserAbort
PUBLIC	__CT??_R0?AUException@CipherShed@@@8??0Exception@CipherShed@@QAE@ABU01@@Z4
PUBLIC	??0Exception@CipherShed@@QAE@ABU01@@Z		; CipherShed::Exception::Exception
EXTRN	__CxxThrowException@8:PROC
;	COMDAT __CT??_R0?AUException@CipherShed@@@8??0Exception@CipherShed@@QAE@ABU01@@Z4
; File c:\home\public\desktop\projects\ciphershed.build\src\common\exception.h
xdata$x	SEGMENT
__CT??_R0?AUException@CipherShed@@@8??0Exception@CipherShed@@QAE@ABU01@@Z4 DD 00H
	DD	FLAT:??_R0?AUException@CipherShed@@@8
	DD	00H
	DD	0ffffffffH
	ORG $+4
	DD	04H
	DD	FLAT:??0Exception@CipherShed@@QAE@ABU01@@Z
xdata$x	ENDS
;	COMDAT __CT??_R0?AUUserAbort@CipherShed@@@8??0UserAbort@CipherShed@@QAE@ABU01@@Z4
xdata$x	SEGMENT
__CT??_R0?AUUserAbort@CipherShed@@@8??0UserAbort@CipherShed@@QAE@ABU01@@Z4 DD 00H
	DD	FLAT:??_R0?AUUserAbort@CipherShed@@@8
	DD	00H
	DD	0ffffffffH
	ORG $+4
	DD	04H
	DD	FLAT:??0UserAbort@CipherShed@@QAE@ABU01@@Z
xdata$x	ENDS
;	COMDAT __CTA2?AUUserAbort@CipherShed@@
xdata$x	SEGMENT
__CTA2?AUUserAbort@CipherShed@@ DD 02H
	DD	FLAT:__CT??_R0?AUUserAbort@CipherShed@@@8??0UserAbort@CipherShed@@QAE@ABU01@@Z4
	DD	FLAT:__CT??_R0?AUException@CipherShed@@@8??0Exception@CipherShed@@QAE@ABU01@@Z4
xdata$x	ENDS
;	COMDAT __TI2?AUUserAbort@CipherShed@@
xdata$x	SEGMENT
__TI2?AUUserAbort@CipherShed@@ DD 00H
	DD	00H
	DD	00H
	DD	FLAT:__CTA2?AUUserAbort@CipherShed@@
; Function compile flags: /Ogtpy
; File c:\home\public\desktop\projects\ciphershed.build\src\format\formatcom.cpp
xdata$x	ENDS
;	COMDAT ?GetElevatedInstance@@YAPAUICipherShedFormatCom@@PAUHWND__@@@Z
_TEXT	SEGMENT
$T118125 = -8						; size = 4
_instance$ = -4						; size = 4
_parent$ = 8						; size = 4
?GetElevatedInstance@@YAPAUICipherShedFormatCom@@PAUHWND__@@@Z PROC ; GetElevatedInstance, COMDAT

; 182  : 	ICipherShedFormatCom *instance;
; 183  : 
; 184  : 	if (!ComGetInstance (parent, &instance))

  00000	8b 4c 24 04	 mov	 ecx, DWORD PTR _parent$[esp-4]
  00004	83 ec 08	 sub	 esp, 8
  00007	8d 44 24 04	 lea	 eax, DWORD PTR _instance$[esp+8]
  0000b	50		 push	 eax
  0000c	68 00 00 00 00	 push	 OFFSET _IID_ICipherShedFormatCom
  00011	68 00 00 00 00	 push	 OFFSET _CLSID_CipherShedFormatCom
  00016	51		 push	 ecx
  00017	e8 00 00 00 00	 call	 ?ComGetInstanceBase@@YAHPAUHWND__@@ABU_GUID@@1PAPAX@Z ; ComGetInstanceBase
  0001c	83 c4 10	 add	 esp, 16			; 00000010H
  0001f	85 c0		 test	 eax, eax
  00021	75 17		 jne	 SHORT $LN1@GetElevate

; 185  : 		throw UserAbort (SRC_POS);

  00023	68 00 00 00 00	 push	 OFFSET __TI2?AUUserAbort@CipherShed@@
  00028	8d 54 24 04	 lea	 edx, DWORD PTR $T118125[esp+12]
  0002c	52		 push	 edx
  0002d	c7 44 24 08 00
	00 00 00	 mov	 DWORD PTR $T118125[esp+16], OFFSET ??_7UserAbort@CipherShed@@6B@
  00035	e8 00 00 00 00	 call	 __CxxThrowException@8
$LN1@GetElevate:

; 186  : 
; 187  : 	return instance;

  0003a	8b 44 24 04	 mov	 eax, DWORD PTR _instance$[esp+8]

; 188  : }

  0003e	83 c4 08	 add	 esp, 8
  00041	c3		 ret	 0
$LN10@GetElevate:
?GetElevatedInstance@@YAPAUICipherShedFormatCom@@PAUHWND__@@@Z ENDP ; GetElevatedInstance
; Function compile flags: /Ogtpy
_TEXT	ENDS
;	COMDAT ??0Exception@CipherShed@@QAE@ABU01@@Z
_TEXT	SEGMENT
___that$ = 8						; size = 4
??0Exception@CipherShed@@QAE@ABU01@@Z PROC		; CipherShed::Exception::Exception, COMDAT
; _this$ = ecx
  00000	8b c1		 mov	 eax, ecx
  00002	c7 00 00 00 00
	00		 mov	 DWORD PTR [eax], OFFSET ??_7Exception@CipherShed@@6B@
  00008	c2 04 00	 ret	 4
??0Exception@CipherShed@@QAE@ABU01@@Z ENDP		; CipherShed::Exception::Exception
_TEXT	ENDS
PUBLIC	??_7?$CipherShedFactory@VCipherShedFormatCom@@@@6B@ ; CipherShedFactory<CipherShedFormatCom>::`vftable'
PUBLIC	??1?$CipherShedFactory@VCipherShedFormatCom@@@@QAE@XZ ; CipherShedFactory<CipherShedFormatCom>::~CipherShedFactory<CipherShedFormatCom>
PUBLIC	??_R4?$CipherShedFactory@VCipherShedFormatCom@@@@6B@ ; CipherShedFactory<CipherShedFormatCom>::`RTTI Complete Object Locator'
PUBLIC	??_R0?AV?$CipherShedFactory@VCipherShedFormatCom@@@@@8 ; CipherShedFactory<CipherShedFormatCom> `RTTI Type Descriptor'
PUBLIC	??_R3?$CipherShedFactory@VCipherShedFormatCom@@@@8 ; CipherShedFactory<CipherShedFormatCom>::`RTTI Class Hierarchy Descriptor'
PUBLIC	??_R2?$CipherShedFactory@VCipherShedFormatCom@@@@8 ; CipherShedFactory<CipherShedFormatCom>::`RTTI Base Class Array'
PUBLIC	??_R1A@?0A@EA@?$CipherShedFactory@VCipherShedFormatCom@@@@8 ; CipherShedFactory<CipherShedFormatCom>::`RTTI Base Class Descriptor at (0,-1,0,64)'
PUBLIC	??_R1A@?0A@EA@IClassFactory@@8			; IClassFactory::`RTTI Base Class Descriptor at (0,-1,0,64)'
PUBLIC	??_R0?AUIClassFactory@@@8			; IClassFactory `RTTI Type Descriptor'
PUBLIC	??_R3IClassFactory@@8				; IClassFactory::`RTTI Class Hierarchy Descriptor'
PUBLIC	??_R2IClassFactory@@8				; IClassFactory::`RTTI Base Class Array'
PUBLIC	??_R1A@?0A@EA@IUnknown@@8			; IUnknown::`RTTI Base Class Descriptor at (0,-1,0,64)'
PUBLIC	??_R0?AUIUnknown@@@8				; IUnknown `RTTI Type Descriptor'
PUBLIC	??_R3IUnknown@@8				; IUnknown::`RTTI Class Hierarchy Descriptor'
PUBLIC	??_R2IUnknown@@8				; IUnknown::`RTTI Base Class Array'
PUBLIC	?QueryInterface@?$CipherShedFactory@VCipherShedFormatCom@@@@UAGJABU_GUID@@PAPAX@Z ; CipherShedFactory<CipherShedFormatCom>::QueryInterface
PUBLIC	?AddRef@?$CipherShedFactory@VCipherShedFormatCom@@@@UAGKXZ ; CipherShedFactory<CipherShedFormatCom>::AddRef
PUBLIC	?Release@?$CipherShedFactory@VCipherShedFormatCom@@@@UAGKXZ ; CipherShedFactory<CipherShedFormatCom>::Release
PUBLIC	?CreateInstance@?$CipherShedFactory@VCipherShedFormatCom@@@@UAGJPAUIUnknown@@ABU_GUID@@PAPAX@Z ; CipherShedFactory<CipherShedFormatCom>::CreateInstance
PUBLIC	?LockServer@?$CipherShedFactory@VCipherShedFormatCom@@@@UAGJH@Z ; CipherShedFactory<CipherShedFormatCom>::LockServer
PUBLIC	?IsServerLocked@?$CipherShedFactory@VCipherShedFormatCom@@@@UAE_NXZ ; CipherShedFactory<CipherShedFormatCom>::IsServerLocked
;	COMDAT ??_R2IUnknown@@8
; File c:\home\public\desktop\projects\ciphershed.build\src\common\basecom.h
rdata$r	SEGMENT
??_R2IUnknown@@8 DD FLAT:??_R1A@?0A@EA@IUnknown@@8	; IUnknown::`RTTI Base Class Array'
rdata$r	ENDS
;	COMDAT ??_R3IUnknown@@8
rdata$r	SEGMENT
??_R3IUnknown@@8 DD 00H					; IUnknown::`RTTI Class Hierarchy Descriptor'
	DD	00H
	DD	01H
	DD	FLAT:??_R2IUnknown@@8
rdata$r	ENDS
;	COMDAT ??_R0?AUIUnknown@@@8
_DATA	SEGMENT
??_R0?AUIUnknown@@@8 DD FLAT:??_7type_info@@6B@		; IUnknown `RTTI Type Descriptor'
	DD	00H
	DB	'.?AUIUnknown@@', 00H
_DATA	ENDS
;	COMDAT ??_R1A@?0A@EA@IUnknown@@8
rdata$r	SEGMENT
??_R1A@?0A@EA@IUnknown@@8 DD FLAT:??_R0?AUIUnknown@@@8	; IUnknown::`RTTI Base Class Descriptor at (0,-1,0,64)'
	DD	00H
	DD	00H
	DD	0ffffffffH
	DD	00H
	DD	040H
	DD	FLAT:??_R3IUnknown@@8
rdata$r	ENDS
;	COMDAT ??_R2IClassFactory@@8
rdata$r	SEGMENT
??_R2IClassFactory@@8 DD FLAT:??_R1A@?0A@EA@IClassFactory@@8 ; IClassFactory::`RTTI Base Class Array'
	DD	FLAT:??_R1A@?0A@EA@IUnknown@@8
rdata$r	ENDS
;	COMDAT ??_R3IClassFactory@@8
rdata$r	SEGMENT
??_R3IClassFactory@@8 DD 00H				; IClassFactory::`RTTI Class Hierarchy Descriptor'
	DD	00H
	DD	02H
	DD	FLAT:??_R2IClassFactory@@8
rdata$r	ENDS
;	COMDAT ??_R0?AUIClassFactory@@@8
_DATA	SEGMENT
??_R0?AUIClassFactory@@@8 DD FLAT:??_7type_info@@6B@	; IClassFactory `RTTI Type Descriptor'
	DD	00H
	DB	'.?AUIClassFactory@@', 00H
_DATA	ENDS
;	COMDAT ??_R1A@?0A@EA@IClassFactory@@8
rdata$r	SEGMENT
??_R1A@?0A@EA@IClassFactory@@8 DD FLAT:??_R0?AUIClassFactory@@@8 ; IClassFactory::`RTTI Base Class Descriptor at (0,-1,0,64)'
	DD	01H
	DD	00H
	DD	0ffffffffH
	DD	00H
	DD	040H
	DD	FLAT:??_R3IClassFactory@@8
rdata$r	ENDS
;	COMDAT ??_R1A@?0A@EA@?$CipherShedFactory@VCipherShedFormatCom@@@@8
rdata$r	SEGMENT
??_R1A@?0A@EA@?$CipherShedFactory@VCipherShedFormatCom@@@@8 DD FLAT:??_R0?AV?$CipherShedFactory@VCipherShedFormatCom@@@@@8 ; CipherShedFactory<CipherShedFormatCom>::`RTTI Base Class Descriptor at (0,-1,0,64)'
	DD	02H
	DD	00H
	DD	0ffffffffH
	DD	00H
	DD	040H
	DD	FLAT:??_R3?$CipherShedFactory@VCipherShedFormatCom@@@@8
rdata$r	ENDS
;	COMDAT ??_R2?$CipherShedFactory@VCipherShedFormatCom@@@@8
rdata$r	SEGMENT
??_R2?$CipherShedFactory@VCipherShedFormatCom@@@@8 DD FLAT:??_R1A@?0A@EA@?$CipherShedFactory@VCipherShedFormatCom@@@@8 ; CipherShedFactory<CipherShedFormatCom>::`RTTI Base Class Array'
	DD	FLAT:??_R1A@?0A@EA@IClassFactory@@8
	DD	FLAT:??_R1A@?0A@EA@IUnknown@@8
rdata$r	ENDS
;	COMDAT ??_R3?$CipherShedFactory@VCipherShedFormatCom@@@@8
rdata$r	SEGMENT
??_R3?$CipherShedFactory@VCipherShedFormatCom@@@@8 DD 00H ; CipherShedFactory<CipherShedFormatCom>::`RTTI Class Hierarchy Descriptor'
	DD	00H
	DD	03H
	DD	FLAT:??_R2?$CipherShedFactory@VCipherShedFormatCom@@@@8
rdata$r	ENDS
;	COMDAT ??_R0?AV?$CipherShedFactory@VCipherShedFormatCom@@@@@8
_DATA	SEGMENT
??_R0?AV?$CipherShedFactory@VCipherShedFormatCom@@@@@8 DD FLAT:??_7type_info@@6B@ ; CipherShedFactory<CipherShedFormatCom> `RTTI Type Descriptor'
	DD	00H
	DB	'.?AV?$CipherShedFactory@VCipherShedFormatCom@@@@', 00H
_DATA	ENDS
;	COMDAT ??_R4?$CipherShedFactory@VCipherShedFormatCom@@@@6B@
rdata$r	SEGMENT
??_R4?$CipherShedFactory@VCipherShedFormatCom@@@@6B@ DD 00H ; CipherShedFactory<CipherShedFormatCom>::`RTTI Complete Object Locator'
	DD	00H
	DD	00H
	DD	FLAT:??_R0?AV?$CipherShedFactory@VCipherShedFormatCom@@@@@8
	DD	FLAT:??_R3?$CipherShedFactory@VCipherShedFormatCom@@@@8
rdata$r	ENDS
;	COMDAT ??_7?$CipherShedFactory@VCipherShedFormatCom@@@@6B@
CONST	SEGMENT
??_7?$CipherShedFactory@VCipherShedFormatCom@@@@6B@ DD FLAT:??_R4?$CipherShedFactory@VCipherShedFormatCom@@@@6B@ ; CipherShedFactory<CipherShedFormatCom>::`vftable'
	DD	FLAT:?QueryInterface@?$CipherShedFactory@VCipherShedFormatCom@@@@UAGJABU_GUID@@PAPAX@Z
	DD	FLAT:?AddRef@?$CipherShedFactory@VCipherShedFormatCom@@@@UAGKXZ
	DD	FLAT:?Release@?$CipherShedFactory@VCipherShedFormatCom@@@@UAGKXZ
	DD	FLAT:?CreateInstance@?$CipherShedFactory@VCipherShedFormatCom@@@@UAGJPAUIUnknown@@ABU_GUID@@PAPAX@Z
	DD	FLAT:?LockServer@?$CipherShedFactory@VCipherShedFormatCom@@@@UAGJH@Z
	DD	FLAT:?IsServerLocked@?$CipherShedFactory@VCipherShedFormatCom@@@@UAE_NXZ
; Function compile flags: /Ogtpy
CONST	ENDS
;	COMDAT ??1?$CipherShedFactory@VCipherShedFormatCom@@@@QAE@XZ
_TEXT	SEGMENT
??1?$CipherShedFactory@VCipherShedFormatCom@@@@QAE@XZ PROC ; CipherShedFactory<CipherShedFormatCom>::~CipherShedFactory<CipherShedFormatCom>, COMDAT
; _this$ = ecx

; 22   : 	~CipherShedFactory () { }

  00000	c7 01 00 00 00
	00		 mov	 DWORD PTR [ecx], OFFSET ??_7?$CipherShedFactory@VCipherShedFormatCom@@@@6B@
  00006	c3		 ret	 0
??1?$CipherShedFactory@VCipherShedFormatCom@@@@QAE@XZ ENDP ; CipherShedFactory<CipherShedFormatCom>::~CipherShedFactory<CipherShedFormatCom>
_TEXT	ENDS
PUBLIC	_IsEqualGUID
; Function compile flags: /Ogtpy
; File c:\program files\microsoft sdks\windows\v7.1\include\guiddef.h
;	COMDAT _IsEqualGUID
_TEXT	SEGMENT
_rguid1$ = 8						; size = 4
_rguid2$ = 12						; size = 4
_IsEqualGUID PROC					; COMDAT

; 161  :     return !memcmp(&rguid1, &rguid2, sizeof(GUID));

  00000	8b 4c 24 08	 mov	 ecx, DWORD PTR _rguid2$[esp-4]
  00004	8b 54 24 04	 mov	 edx, DWORD PTR _rguid1$[esp-4]
  00008	b8 10 00 00 00	 mov	 eax, 16			; 00000010H
  0000d	56		 push	 esi
  0000e	8b ff		 npad	 2
$LL4@IsEqualGUI:
  00010	8b 32		 mov	 esi, DWORD PTR [edx]
  00012	3b 31		 cmp	 esi, DWORD PTR [ecx]
  00014	75 1b		 jne	 SHORT $LN5@IsEqualGUI
  00016	83 e8 04	 sub	 eax, 4
  00019	83 c1 04	 add	 ecx, 4
  0001c	83 c2 04	 add	 edx, 4
  0001f	83 f8 04	 cmp	 eax, 4
  00022	73 ec		 jae	 SHORT $LL4@IsEqualGUI
  00024	33 c0		 xor	 eax, eax
  00026	33 d2		 xor	 edx, edx
  00028	85 c0		 test	 eax, eax
  0002a	0f 94 c2	 sete	 dl
  0002d	5e		 pop	 esi
  0002e	8b c2		 mov	 eax, edx

; 162  : }

  00030	c3		 ret	 0
$LN5@IsEqualGUI:

; 161  :     return !memcmp(&rguid1, &rguid2, sizeof(GUID));

  00031	0f b6 02	 movzx	 eax, BYTE PTR [edx]
  00034	0f b6 31	 movzx	 esi, BYTE PTR [ecx]
  00037	2b c6		 sub	 eax, esi
  00039	75 22		 jne	 SHORT $LN7@IsEqualGUI
  0003b	0f b6 42 01	 movzx	 eax, BYTE PTR [edx+1]
  0003f	0f b6 71 01	 movzx	 esi, BYTE PTR [ecx+1]
  00043	2b c6		 sub	 eax, esi
  00045	75 16		 jne	 SHORT $LN7@IsEqualGUI
  00047	0f b6 42 02	 movzx	 eax, BYTE PTR [edx+2]
  0004b	0f b6 71 02	 movzx	 esi, BYTE PTR [ecx+2]
  0004f	2b c6		 sub	 eax, esi
  00051	75 0a		 jne	 SHORT $LN7@IsEqualGUI
  00053	0f b6 42 03	 movzx	 eax, BYTE PTR [edx+3]
  00057	0f b6 49 03	 movzx	 ecx, BYTE PTR [ecx+3]
  0005b	2b c1		 sub	 eax, ecx
$LN7@IsEqualGUI:
  0005d	c1 f8 1f	 sar	 eax, 31			; 0000001fH
  00060	83 c8 01	 or	 eax, 1
  00063	33 d2		 xor	 edx, edx
  00065	85 c0		 test	 eax, eax
  00067	0f 94 c2	 sete	 dl
  0006a	5e		 pop	 esi
  0006b	8b c2		 mov	 eax, edx

; 162  : }

  0006d	c3		 ret	 0
_IsEqualGUID ENDP
_TEXT	ENDS
PUBLIC	_==
; Function compile flags: /Ogtpy
;	COMDAT _==
_TEXT	SEGMENT
_guidOne$ = 8						; size = 4
_guidOther$ = 12					; size = 4
_==	PROC						; COMDAT

; 194  :     return IsEqualGUID(guidOne,guidOther);

  00000	e9 00 00 00 00	 jmp	 _IsEqualGUID
_==	ENDP
_TEXT	ENDS
PUBLIC	??_7CipherShedFormatCom@@6B@			; CipherShedFormatCom::`vftable'
PUBLIC	??1CipherShedFormatCom@@QAE@XZ			; CipherShedFormatCom::~CipherShedFormatCom
PUBLIC	??_R4CipherShedFormatCom@@6B@			; CipherShedFormatCom::`RTTI Complete Object Locator'
PUBLIC	??_R0?AVCipherShedFormatCom@@@8			; CipherShedFormatCom `RTTI Type Descriptor'
PUBLIC	??_R3CipherShedFormatCom@@8			; CipherShedFormatCom::`RTTI Class Hierarchy Descriptor'
PUBLIC	??_R2CipherShedFormatCom@@8			; CipherShedFormatCom::`RTTI Base Class Array'
PUBLIC	??_R1A@?0A@EA@CipherShedFormatCom@@8		; CipherShedFormatCom::`RTTI Base Class Descriptor at (0,-1,0,64)'
PUBLIC	??_R1A@?0A@EA@ICipherShedFormatCom@@8		; ICipherShedFormatCom::`RTTI Base Class Descriptor at (0,-1,0,64)'
PUBLIC	??_R0?AUICipherShedFormatCom@@@8		; ICipherShedFormatCom `RTTI Type Descriptor'
PUBLIC	??_R3ICipherShedFormatCom@@8			; ICipherShedFormatCom::`RTTI Class Hierarchy Descriptor'
PUBLIC	??_R2ICipherShedFormatCom@@8			; ICipherShedFormatCom::`RTTI Base Class Array'
PUBLIC	?QueryInterface@CipherShedFormatCom@@UAGJABU_GUID@@PAPAX@Z ; CipherShedFormatCom::QueryInterface
PUBLIC	?AddRef@CipherShedFormatCom@@UAGKXZ		; CipherShedFormatCom::AddRef
PUBLIC	?Release@CipherShedFormatCom@@UAGKXZ		; CipherShedFormatCom::Release
PUBLIC	?AnalyzeHiddenVolumeHost@CipherShedFormatCom@@UAGHJPAH_J0PA_J@Z ; CipherShedFormatCom::AnalyzeHiddenVolumeHost
PUBLIC	?CallDriver@CipherShedFormatCom@@UAGKKPA_WPAPA_W@Z ; CipherShedFormatCom::CallDriver
PUBLIC	?CopyFileA@CipherShedFormatCom@@UAGKPA_W0@Z	; CipherShedFormatCom::CopyFileA
PUBLIC	?DeleteFileA@CipherShedFormatCom@@UAGKPA_W@Z	; CipherShedFormatCom::DeleteFileA
PUBLIC	?FormatNtfs@CipherShedFormatCom@@UAGHHH@Z	; CipherShedFormatCom::FormatNtfs
PUBLIC	?IsPagingFileActive@CipherShedFormatCom@@UAGHH@Z ; CipherShedFormatCom::IsPagingFileActive
PUBLIC	?ReadWriteFile@CipherShedFormatCom@@UAGKHHPA_WPAPA_W_KIPAK@Z ; CipherShedFormatCom::ReadWriteFile
PUBLIC	?RegisterFilterDriver@CipherShedFormatCom@@UAGKHH@Z ; CipherShedFormatCom::RegisterFilterDriver
PUBLIC	?RegisterSystemFavoritesService@CipherShedFormatCom@@UAGKH@Z ; CipherShedFormatCom::RegisterSystemFavoritesService
PUBLIC	?SetDriverServiceStartType@CipherShedFormatCom@@UAGKK@Z ; CipherShedFormatCom::SetDriverServiceStartType
PUBLIC	?WriteLocalMachineRegistryDwordValue@CipherShedFormatCom@@UAGKPA_W0K@Z ; CipherShedFormatCom::WriteLocalMachineRegistryDwordValue
EXTRN	__imp__PostThreadMessageA@16:PROC
EXTRN	__imp__InterlockedDecrement@4:PROC
;	COMDAT ??_R2ICipherShedFormatCom@@8
; File c:\home\public\desktop\projects\ciphershed.build\src\format\formatcom.cpp
rdata$r	SEGMENT
??_R2ICipherShedFormatCom@@8 DD FLAT:??_R1A@?0A@EA@ICipherShedFormatCom@@8 ; ICipherShedFormatCom::`RTTI Base Class Array'
	DD	FLAT:??_R1A@?0A@EA@IUnknown@@8
rdata$r	ENDS
;	COMDAT ??_R3ICipherShedFormatCom@@8
rdata$r	SEGMENT
??_R3ICipherShedFormatCom@@8 DD 00H			; ICipherShedFormatCom::`RTTI Class Hierarchy Descriptor'
	DD	00H
	DD	02H
	DD	FLAT:??_R2ICipherShedFormatCom@@8
rdata$r	ENDS
;	COMDAT ??_R0?AUICipherShedFormatCom@@@8
_DATA	SEGMENT
??_R0?AUICipherShedFormatCom@@@8 DD FLAT:??_7type_info@@6B@ ; ICipherShedFormatCom `RTTI Type Descriptor'
	DD	00H
	DB	'.?AUICipherShedFormatCom@@', 00H
_DATA	ENDS
;	COMDAT ??_R1A@?0A@EA@ICipherShedFormatCom@@8
rdata$r	SEGMENT
??_R1A@?0A@EA@ICipherShedFormatCom@@8 DD FLAT:??_R0?AUICipherShedFormatCom@@@8 ; ICipherShedFormatCom::`RTTI Base Class Descriptor at (0,-1,0,64)'
	DD	01H
	DD	00H
	DD	0ffffffffH
	DD	00H
	DD	040H
	DD	FLAT:??_R3ICipherShedFormatCom@@8
rdata$r	ENDS
;	COMDAT ??_R1A@?0A@EA@CipherShedFormatCom@@8
rdata$r	SEGMENT
??_R1A@?0A@EA@CipherShedFormatCom@@8 DD FLAT:??_R0?AVCipherShedFormatCom@@@8 ; CipherShedFormatCom::`RTTI Base Class Descriptor at (0,-1,0,64)'
	DD	02H
	DD	00H
	DD	0ffffffffH
	DD	00H
	DD	040H
	DD	FLAT:??_R3CipherShedFormatCom@@8
rdata$r	ENDS
;	COMDAT ??_R2CipherShedFormatCom@@8
rdata$r	SEGMENT
??_R2CipherShedFormatCom@@8 DD FLAT:??_R1A@?0A@EA@CipherShedFormatCom@@8 ; CipherShedFormatCom::`RTTI Base Class Array'
	DD	FLAT:??_R1A@?0A@EA@ICipherShedFormatCom@@8
	DD	FLAT:??_R1A@?0A@EA@IUnknown@@8
rdata$r	ENDS
;	COMDAT ??_R3CipherShedFormatCom@@8
rdata$r	SEGMENT
??_R3CipherShedFormatCom@@8 DD 00H			; CipherShedFormatCom::`RTTI Class Hierarchy Descriptor'
	DD	00H
	DD	03H
	DD	FLAT:??_R2CipherShedFormatCom@@8
rdata$r	ENDS
;	COMDAT ??_R0?AVCipherShedFormatCom@@@8
_DATA	SEGMENT
??_R0?AVCipherShedFormatCom@@@8 DD FLAT:??_7type_info@@6B@ ; CipherShedFormatCom `RTTI Type Descriptor'
	DD	00H
	DB	'.?AVCipherShedFormatCom@@', 00H
_DATA	ENDS
;	COMDAT ??_R4CipherShedFormatCom@@6B@
rdata$r	SEGMENT
??_R4CipherShedFormatCom@@6B@ DD 00H			; CipherShedFormatCom::`RTTI Complete Object Locator'
	DD	00H
	DD	00H
	DD	FLAT:??_R0?AVCipherShedFormatCom@@@8
	DD	FLAT:??_R3CipherShedFormatCom@@8
rdata$r	ENDS
;	COMDAT ??_7CipherShedFormatCom@@6B@
CONST	SEGMENT
??_7CipherShedFormatCom@@6B@ DD FLAT:??_R4CipherShedFormatCom@@6B@ ; CipherShedFormatCom::`vftable'
	DD	FLAT:?QueryInterface@CipherShedFormatCom@@UAGJABU_GUID@@PAPAX@Z
	DD	FLAT:?AddRef@CipherShedFormatCom@@UAGKXZ
	DD	FLAT:?Release@CipherShedFormatCom@@UAGKXZ
	DD	FLAT:?AnalyzeHiddenVolumeHost@CipherShedFormatCom@@UAGHJPAH_J0PA_J@Z
	DD	FLAT:?CallDriver@CipherShedFormatCom@@UAGKKPA_WPAPA_W@Z
	DD	FLAT:?CopyFileA@CipherShedFormatCom@@UAGKPA_W0@Z
	DD	FLAT:?DeleteFileA@CipherShedFormatCom@@UAGKPA_W@Z
	DD	FLAT:?FormatNtfs@CipherShedFormatCom@@UAGHHH@Z
	DD	FLAT:?IsPagingFileActive@CipherShedFormatCom@@UAGHH@Z
	DD	FLAT:?ReadWriteFile@CipherShedFormatCom@@UAGKHHPA_WPAPA_W_KIPAK@Z
	DD	FLAT:?RegisterFilterDriver@CipherShedFormatCom@@UAGKHH@Z
	DD	FLAT:?RegisterSystemFavoritesService@CipherShedFormatCom@@UAGKH@Z
	DD	FLAT:?SetDriverServiceStartType@CipherShedFormatCom@@UAGKK@Z
	DD	FLAT:?WriteLocalMachineRegistryDwordValue@CipherShedFormatCom@@UAGKPA_W0K@Z
; Function compile flags: /Ogtpy
CONST	ENDS
;	COMDAT ??1CipherShedFormatCom@@QAE@XZ
_TEXT	SEGMENT
??1CipherShedFormatCom@@QAE@XZ PROC			; CipherShedFormatCom::~CipherShedFormatCom, COMDAT
; _this$ = ecx

; 41   : 	{

  00000	56		 push	 esi
  00001	8b f1		 mov	 esi, ecx

; 42   : 		if (InterlockedDecrement (&ObjectCount) == 0)

  00003	68 00 00 00 00	 push	 OFFSET _ObjectCount
  00008	c7 06 00 00 00
	00		 mov	 DWORD PTR [esi], OFFSET ??_7CipherShedFormatCom@@6B@
  0000e	ff 15 00 00 00
	00		 call	 DWORD PTR __imp__InterlockedDecrement@4
  00014	85 c0		 test	 eax, eax
  00016	75 11		 jne	 SHORT $LN1@CipherShed

; 43   : 			PostThreadMessage (MessageThreadId, WM_APP, 0, 0);

  00018	50		 push	 eax
  00019	50		 push	 eax
  0001a	8b 46 04	 mov	 eax, DWORD PTR [esi+4]
  0001d	68 00 80 00 00	 push	 32768			; 00008000H
  00022	50		 push	 eax
  00023	ff 15 00 00 00
	00		 call	 DWORD PTR __imp__PostThreadMessageA@16
$LN1@CipherShed:
  00029	5e		 pop	 esi

; 44   : 	}

  0002a	c3		 ret	 0
??1CipherShedFormatCom@@QAE@XZ ENDP			; CipherShedFormatCom::~CipherShedFormatCom
_TEXT	ENDS
EXTRN	__imp__InterlockedIncrement@4:PROC
; Function compile flags: /Ogtpy
;	COMDAT ?AddRef@CipherShedFormatCom@@UAGKXZ
_TEXT	SEGMENT
_this$ = 8						; size = 4
?AddRef@CipherShedFormatCom@@UAGKXZ PROC		; CipherShedFormatCom::AddRef, COMDAT

; 48   : 		return InterlockedIncrement (&RefCount);

  00000	8b 44 24 04	 mov	 eax, DWORD PTR _this$[esp-4]
  00004	83 c0 08	 add	 eax, 8
  00007	89 44 24 04	 mov	 DWORD PTR _this$[esp-4], eax
  0000b	ff 25 00 00 00
	00		 jmp	 DWORD PTR __imp__InterlockedIncrement@4
?AddRef@CipherShedFormatCom@@UAGKXZ ENDP		; CipherShedFormatCom::AddRef
_TEXT	ENDS
EXTRN	_IID_IUnknown:BYTE
; Function compile flags: /Ogtpy
;	COMDAT ?QueryInterface@CipherShedFormatCom@@UAGJABU_GUID@@PAPAX@Z
_TEXT	SEGMENT
_this$ = 8						; size = 4
_riid$ = 12						; size = 4
_ppvObject$ = 16					; size = 4
?QueryInterface@CipherShedFormatCom@@UAGJABU_GUID@@PAPAX@Z PROC ; CipherShedFormatCom::QueryInterface, COMDAT

; 63   : 	{

  00000	56		 push	 esi

; 64   : 		if (riid == IID_IUnknown || riid == IID_ICipherShedFormatCom)

  00001	8b 74 24 0c	 mov	 esi, DWORD PTR _riid$[esp]
  00005	68 00 00 00 00	 push	 OFFSET _IID_IUnknown
  0000a	56		 push	 esi
  0000b	e8 00 00 00 00	 call	 _IsEqualGUID
  00010	83 c4 08	 add	 esp, 8
  00013	85 c0		 test	 eax, eax
  00015	75 25		 jne	 SHORT $LN2@QueryInter
  00017	68 00 00 00 00	 push	 OFFSET _IID_ICipherShedFormatCom
  0001c	56		 push	 esi
  0001d	e8 00 00 00 00	 call	 _IsEqualGUID
  00022	83 c4 08	 add	 esp, 8
  00025	85 c0		 test	 eax, eax
  00027	75 13		 jne	 SHORT $LN2@QueryInter

; 66   : 		else
; 67   : 		{
; 68   : 			*ppvObject = NULL;

  00029	8b 44 24 10	 mov	 eax, DWORD PTR _ppvObject$[esp]
  0002d	c7 00 00 00 00
	00		 mov	 DWORD PTR [eax], 0

; 69   : 			return E_NOINTERFACE;

  00033	b8 02 40 00 80	 mov	 eax, -2147467262	; 80004002H
  00038	5e		 pop	 esi

; 74   : 	}

  00039	c2 0c 00	 ret	 12			; 0000000cH
$LN2@QueryInter:

; 65   : 			*ppvObject = this;

  0003c	8b 44 24 08	 mov	 eax, DWORD PTR _this$[esp]
  00040	8b 4c 24 10	 mov	 ecx, DWORD PTR _ppvObject$[esp]
  00044	89 01		 mov	 DWORD PTR [ecx], eax

; 70   : 		}
; 71   : 
; 72   : 		AddRef ();

  00046	8b 10		 mov	 edx, DWORD PTR [eax]
  00048	50		 push	 eax
  00049	8b 42 04	 mov	 eax, DWORD PTR [edx+4]
  0004c	ff d0		 call	 eax

; 73   : 		return S_OK;

  0004e	33 c0		 xor	 eax, eax
  00050	5e		 pop	 esi

; 74   : 	}

  00051	c2 0c 00	 ret	 12			; 0000000cH
?QueryInterface@CipherShedFormatCom@@UAGJABU_GUID@@PAPAX@Z ENDP ; CipherShedFormatCom::QueryInterface
_TEXT	ENDS
EXTRN	?CallDriver@BaseCom@@SAKKPA_WPAPA_W@Z:PROC	; BaseCom::CallDriver
; Function compile flags: /Ogtpy
;	COMDAT ?CallDriver@CipherShedFormatCom@@UAGKKPA_WPAPA_W@Z
_TEXT	SEGMENT
_this$ = 8						; size = 4
_ioctl$ = 12						; size = 4
_input$ = 16						; size = 4
_output$ = 20						; size = 4
?CallDriver@CipherShedFormatCom@@UAGKKPA_WPAPA_W@Z PROC	; CipherShedFormatCom::CallDriver, COMDAT

; 78   : 		return BaseCom::CallDriver (ioctl, input, output);

  00000	8b 44 24 10	 mov	 eax, DWORD PTR _output$[esp-4]
  00004	8b 4c 24 0c	 mov	 ecx, DWORD PTR _input$[esp-4]
  00008	8b 54 24 08	 mov	 edx, DWORD PTR _ioctl$[esp-4]
  0000c	50		 push	 eax
  0000d	51		 push	 ecx
  0000e	52		 push	 edx
  0000f	e8 00 00 00 00	 call	 ?CallDriver@BaseCom@@SAKKPA_WPAPA_W@Z ; BaseCom::CallDriver
  00014	83 c4 0c	 add	 esp, 12			; 0000000cH

; 79   : 	}

  00017	c2 10 00	 ret	 16			; 00000010H
?CallDriver@CipherShedFormatCom@@UAGKKPA_WPAPA_W@Z ENDP	; CipherShedFormatCom::CallDriver
_TEXT	ENDS
EXTRN	?CopyFileA@BaseCom@@SAKPA_W0@Z:PROC		; BaseCom::CopyFileA
; Function compile flags: /Ogtpy
;	COMDAT ?CopyFileA@CipherShedFormatCom@@UAGKPA_W0@Z
_TEXT	SEGMENT
_this$ = 8						; size = 4
_sourceFile$ = 12					; size = 4
_destinationFile$ = 16					; size = 4
?CopyFileA@CipherShedFormatCom@@UAGKPA_W0@Z PROC	; CipherShedFormatCom::CopyFileA, COMDAT

; 83   : 		return BaseCom::CopyFile (sourceFile, destinationFile);

  00000	8b 44 24 0c	 mov	 eax, DWORD PTR _destinationFile$[esp-4]
  00004	8b 4c 24 08	 mov	 ecx, DWORD PTR _sourceFile$[esp-4]
  00008	50		 push	 eax
  00009	51		 push	 ecx
  0000a	e8 00 00 00 00	 call	 ?CopyFileA@BaseCom@@SAKPA_W0@Z ; BaseCom::CopyFileA
  0000f	83 c4 08	 add	 esp, 8

; 84   : 	}

  00012	c2 0c 00	 ret	 12			; 0000000cH
?CopyFileA@CipherShedFormatCom@@UAGKPA_W0@Z ENDP	; CipherShedFormatCom::CopyFileA
_TEXT	ENDS
EXTRN	?DeleteFileA@BaseCom@@SAKPA_W@Z:PROC		; BaseCom::DeleteFileA
; Function compile flags: /Ogtpy
;	COMDAT ?DeleteFileA@CipherShedFormatCom@@UAGKPA_W@Z
_TEXT	SEGMENT
_this$ = 8						; size = 4
_file$ = 12						; size = 4
?DeleteFileA@CipherShedFormatCom@@UAGKPA_W@Z PROC	; CipherShedFormatCom::DeleteFileA, COMDAT

; 88   : 		return BaseCom::DeleteFile (file);

  00000	8b 44 24 08	 mov	 eax, DWORD PTR _file$[esp-4]
  00004	50		 push	 eax
  00005	e8 00 00 00 00	 call	 ?DeleteFileA@BaseCom@@SAKPA_W@Z ; BaseCom::DeleteFileA
  0000a	83 c4 04	 add	 esp, 4

; 89   : 	}

  0000d	c2 08 00	 ret	 8
?DeleteFileA@CipherShedFormatCom@@UAGKPA_W@Z ENDP	; CipherShedFormatCom::DeleteFileA
_TEXT	ENDS
EXTRN	_FormatNtfs:PROC
; Function compile flags: /Ogtpy
;	COMDAT ?FormatNtfs@CipherShedFormatCom@@UAGHHH@Z
_TEXT	SEGMENT
_this$ = 8						; size = 4
_driveNo$ = 12						; size = 4
_clusterSize$ = 16					; size = 4
?FormatNtfs@CipherShedFormatCom@@UAGHHH@Z PROC		; CipherShedFormatCom::FormatNtfs, COMDAT

; 93   : 		return ::FormatNtfs (driveNo, clusterSize);

  00000	8b 44 24 0c	 mov	 eax, DWORD PTR _clusterSize$[esp-4]
  00004	8b 4c 24 08	 mov	 ecx, DWORD PTR _driveNo$[esp-4]
  00008	50		 push	 eax
  00009	51		 push	 ecx
  0000a	e8 00 00 00 00	 call	 _FormatNtfs
  0000f	83 c4 08	 add	 esp, 8

; 94   : 	}

  00012	c2 0c 00	 ret	 12			; 0000000cH
?FormatNtfs@CipherShedFormatCom@@UAGHHH@Z ENDP		; CipherShedFormatCom::FormatNtfs
_TEXT	ENDS
EXTRN	_AnalyzeHiddenVolumeHost:PROC
; Function compile flags: /Ogtpy
;	COMDAT ?AnalyzeHiddenVolumeHost@CipherShedFormatCom@@UAGHJPAH_J0PA_J@Z
_TEXT	SEGMENT
_this$ = 8						; size = 4
_hwndDlg$ = 12						; size = 4
_driveNo$ = 16						; size = 4
_hiddenVolHostSize$ = 20				; size = 8
_realClusterSize$ = 28					; size = 4
_nbrFreeClusters$ = 32					; size = 4
?AnalyzeHiddenVolumeHost@CipherShedFormatCom@@UAGHJPAH_J0PA_J@Z PROC ; CipherShedFormatCom::AnalyzeHiddenVolumeHost, COMDAT

; 99   : 		return ::AnalyzeHiddenVolumeHost (
; 100  : 			(HWND) hwndDlg, driveNo, hiddenVolHostSize, realClusterSize, nbrFreeClusters);

  00000	8b 44 24 1c	 mov	 eax, DWORD PTR _nbrFreeClusters$[esp-4]
  00004	8b 4c 24 18	 mov	 ecx, DWORD PTR _realClusterSize$[esp-4]
  00008	8b 54 24 14	 mov	 edx, DWORD PTR _hiddenVolHostSize$[esp]
  0000c	50		 push	 eax
  0000d	8b 44 24 14	 mov	 eax, DWORD PTR _hiddenVolHostSize$[esp]
  00011	51		 push	 ecx
  00012	8b 4c 24 14	 mov	 ecx, DWORD PTR _driveNo$[esp+4]
  00016	52		 push	 edx
  00017	8b 54 24 14	 mov	 edx, DWORD PTR _hwndDlg$[esp+8]
  0001b	50		 push	 eax
  0001c	51		 push	 ecx
  0001d	52		 push	 edx
  0001e	e8 00 00 00 00	 call	 _AnalyzeHiddenVolumeHost
  00023	83 c4 18	 add	 esp, 24			; 00000018H

; 101  : 	}

  00026	c2 1c 00	 ret	 28			; 0000001cH
?AnalyzeHiddenVolumeHost@CipherShedFormatCom@@UAGHJPAH_J0PA_J@Z ENDP ; CipherShedFormatCom::AnalyzeHiddenVolumeHost
_TEXT	ENDS
EXTRN	?ReadWriteFile@BaseCom@@SAKHHPA_WPAPA_W_KIPAK@Z:PROC ; BaseCom::ReadWriteFile
; Function compile flags: /Ogtpy
;	COMDAT ?ReadWriteFile@CipherShedFormatCom@@UAGKHHPA_WPAPA_W_KIPAK@Z
_TEXT	SEGMENT
_this$ = 8						; size = 4
_write$ = 12						; size = 4
_device$ = 16						; size = 4
_filePath$ = 20						; size = 4
_bufferBstr$ = 24					; size = 4
_offset$ = 28						; size = 8
_size$ = 36						; size = 4
_sizeDone$ = 40						; size = 4
?ReadWriteFile@CipherShedFormatCom@@UAGKHHPA_WPAPA_W_KIPAK@Z PROC ; CipherShedFormatCom::ReadWriteFile, COMDAT

; 105  : 		return BaseCom::ReadWriteFile (write, device, filePath, bufferBstr, offset, size, sizeDone);

  00000	8b 44 24 24	 mov	 eax, DWORD PTR _sizeDone$[esp-4]
  00004	8b 4c 24 20	 mov	 ecx, DWORD PTR _size$[esp-4]
  00008	8b 54 24 1c	 mov	 edx, DWORD PTR _offset$[esp]
  0000c	50		 push	 eax
  0000d	8b 44 24 1c	 mov	 eax, DWORD PTR _offset$[esp]
  00011	51		 push	 ecx
  00012	8b 4c 24 1c	 mov	 ecx, DWORD PTR _bufferBstr$[esp+4]
  00016	52		 push	 edx
  00017	8b 54 24 1c	 mov	 edx, DWORD PTR _filePath$[esp+8]
  0001b	50		 push	 eax
  0001c	8b 44 24 1c	 mov	 eax, DWORD PTR _device$[esp+12]
  00020	51		 push	 ecx
  00021	8b 4c 24 1c	 mov	 ecx, DWORD PTR _write$[esp+16]
  00025	52		 push	 edx
  00026	50		 push	 eax
  00027	51		 push	 ecx
  00028	e8 00 00 00 00	 call	 ?ReadWriteFile@BaseCom@@SAKHHPA_WPAPA_W_KIPAK@Z ; BaseCom::ReadWriteFile
  0002d	83 c4 20	 add	 esp, 32			; 00000020H

; 106  : 	}

  00030	c2 24 00	 ret	 36			; 00000024H
?ReadWriteFile@CipherShedFormatCom@@UAGKHHPA_WPAPA_W_KIPAK@Z ENDP ; CipherShedFormatCom::ReadWriteFile
_TEXT	ENDS
EXTRN	?RegisterFilterDriver@BaseCom@@SAKHH@Z:PROC	; BaseCom::RegisterFilterDriver
; Function compile flags: /Ogtpy
;	COMDAT ?RegisterFilterDriver@CipherShedFormatCom@@UAGKHH@Z
_TEXT	SEGMENT
_this$ = 8						; size = 4
_registerDriver$ = 12					; size = 4
_filterType$ = 16					; size = 4
?RegisterFilterDriver@CipherShedFormatCom@@UAGKHH@Z PROC ; CipherShedFormatCom::RegisterFilterDriver, COMDAT

; 110  : 		return BaseCom::RegisterFilterDriver (registerDriver, filterType);

  00000	8b 44 24 0c	 mov	 eax, DWORD PTR _filterType$[esp-4]
  00004	8b 4c 24 08	 mov	 ecx, DWORD PTR _registerDriver$[esp-4]
  00008	50		 push	 eax
  00009	51		 push	 ecx
  0000a	e8 00 00 00 00	 call	 ?RegisterFilterDriver@BaseCom@@SAKHH@Z ; BaseCom::RegisterFilterDriver
  0000f	83 c4 08	 add	 esp, 8

; 111  : 	}

  00012	c2 0c 00	 ret	 12			; 0000000cH
?RegisterFilterDriver@CipherShedFormatCom@@UAGKHH@Z ENDP ; CipherShedFormatCom::RegisterFilterDriver
_TEXT	ENDS
EXTRN	?RegisterSystemFavoritesService@BaseCom@@SAKH@Z:PROC ; BaseCom::RegisterSystemFavoritesService
; Function compile flags: /Ogtpy
;	COMDAT ?RegisterSystemFavoritesService@CipherShedFormatCom@@UAGKH@Z
_TEXT	SEGMENT
_this$ = 8						; size = 4
_registerService$ = 12					; size = 4
?RegisterSystemFavoritesService@CipherShedFormatCom@@UAGKH@Z PROC ; CipherShedFormatCom::RegisterSystemFavoritesService, COMDAT

; 115  : 		return BaseCom::RegisterSystemFavoritesService (registerService);

  00000	8b 44 24 08	 mov	 eax, DWORD PTR _registerService$[esp-4]
  00004	50		 push	 eax
  00005	e8 00 00 00 00	 call	 ?RegisterSystemFavoritesService@BaseCom@@SAKH@Z ; BaseCom::RegisterSystemFavoritesService
  0000a	83 c4 04	 add	 esp, 4

; 116  : 	}

  0000d	c2 08 00	 ret	 8
?RegisterSystemFavoritesService@CipherShedFormatCom@@UAGKH@Z ENDP ; CipherShedFormatCom::RegisterSystemFavoritesService
_TEXT	ENDS
EXTRN	?SetDriverServiceStartType@BaseCom@@SAKK@Z:PROC	; BaseCom::SetDriverServiceStartType
; Function compile flags: /Ogtpy
;	COMDAT ?SetDriverServiceStartType@CipherShedFormatCom@@UAGKK@Z
_TEXT	SEGMENT
_this$ = 8						; size = 4
_startType$ = 12					; size = 4
?SetDriverServiceStartType@CipherShedFormatCom@@UAGKK@Z PROC ; CipherShedFormatCom::SetDriverServiceStartType, COMDAT

; 120  : 		return BaseCom::SetDriverServiceStartType (startType);

  00000	8b 44 24 08	 mov	 eax, DWORD PTR _startType$[esp-4]
  00004	50		 push	 eax
  00005	e8 00 00 00 00	 call	 ?SetDriverServiceStartType@BaseCom@@SAKK@Z ; BaseCom::SetDriverServiceStartType
  0000a	83 c4 04	 add	 esp, 4

; 121  : 	}

  0000d	c2 08 00	 ret	 8
?SetDriverServiceStartType@CipherShedFormatCom@@UAGKK@Z ENDP ; CipherShedFormatCom::SetDriverServiceStartType
_TEXT	ENDS
EXTRN	?IsPagingFileActive@BaseCom@@SAHH@Z:PROC	; BaseCom::IsPagingFileActive
; Function compile flags: /Ogtpy
;	COMDAT ?IsPagingFileActive@CipherShedFormatCom@@UAGHH@Z
_TEXT	SEGMENT
_this$ = 8						; size = 4
_checkNonWindowsPartitionsOnly$ = 12			; size = 4
?IsPagingFileActive@CipherShedFormatCom@@UAGHH@Z PROC	; CipherShedFormatCom::IsPagingFileActive, COMDAT

; 125  : 		return BaseCom::IsPagingFileActive (checkNonWindowsPartitionsOnly);

  00000	8b 44 24 08	 mov	 eax, DWORD PTR _checkNonWindowsPartitionsOnly$[esp-4]
  00004	50		 push	 eax
  00005	e8 00 00 00 00	 call	 ?IsPagingFileActive@BaseCom@@SAHH@Z ; BaseCom::IsPagingFileActive
  0000a	83 c4 04	 add	 esp, 4

; 126  : 	}

  0000d	c2 08 00	 ret	 8
?IsPagingFileActive@CipherShedFormatCom@@UAGHH@Z ENDP	; CipherShedFormatCom::IsPagingFileActive
_TEXT	ENDS
EXTRN	?WriteLocalMachineRegistryDwordValue@BaseCom@@SAKPA_W0K@Z:PROC ; BaseCom::WriteLocalMachineRegistryDwordValue
; Function compile flags: /Ogtpy
;	COMDAT ?WriteLocalMachineRegistryDwordValue@CipherShedFormatCom@@UAGKPA_W0K@Z
_TEXT	SEGMENT
_this$ = 8						; size = 4
_keyPath$ = 12						; size = 4
_valueName$ = 16					; size = 4
_value$ = 20						; size = 4
?WriteLocalMachineRegistryDwordValue@CipherShedFormatCom@@UAGKPA_W0K@Z PROC ; CipherShedFormatCom::WriteLocalMachineRegistryDwordValue, COMDAT

; 130  : 		return BaseCom::WriteLocalMachineRegistryDwordValue (keyPath, valueName, value);

  00000	8b 44 24 10	 mov	 eax, DWORD PTR _value$[esp-4]
  00004	8b 4c 24 0c	 mov	 ecx, DWORD PTR _valueName$[esp-4]
  00008	8b 54 24 08	 mov	 edx, DWORD PTR _keyPath$[esp-4]
  0000c	50		 push	 eax
  0000d	51		 push	 ecx
  0000e	52		 push	 edx
  0000f	e8 00 00 00 00	 call	 ?WriteLocalMachineRegistryDwordValue@BaseCom@@SAKPA_W0K@Z ; BaseCom::WriteLocalMachineRegistryDwordValue
  00014	83 c4 0c	 add	 esp, 12			; 0000000cH

; 131  : 	}

  00017	c2 10 00	 ret	 16			; 00000010H
?WriteLocalMachineRegistryDwordValue@CipherShedFormatCom@@UAGKPA_W0K@Z ENDP ; CipherShedFormatCom::WriteLocalMachineRegistryDwordValue
_TEXT	ENDS
PUBLIC	??_GCipherShedFormatCom@@QAEPAXI@Z		; CipherShedFormatCom::`scalar deleting destructor'
EXTRN	??3@YAXPAX@Z:PROC				; operator delete
; Function compile flags: /Ogtpy
;	COMDAT ??_GCipherShedFormatCom@@QAEPAXI@Z
_TEXT	SEGMENT
___flags$ = 8						; size = 4
??_GCipherShedFormatCom@@QAEPAXI@Z PROC			; CipherShedFormatCom::`scalar deleting destructor', COMDAT
; _this$ = ecx
  00000	56		 push	 esi
  00001	8b f1		 mov	 esi, ecx
  00003	68 00 00 00 00	 push	 OFFSET _ObjectCount
  00008	c7 06 00 00 00
	00		 mov	 DWORD PTR [esi], OFFSET ??_7CipherShedFormatCom@@6B@
  0000e	ff 15 00 00 00
	00		 call	 DWORD PTR __imp__InterlockedDecrement@4
  00014	85 c0		 test	 eax, eax
  00016	75 11		 jne	 SHORT $LN4@scalar
  00018	50		 push	 eax
  00019	50		 push	 eax
  0001a	8b 46 04	 mov	 eax, DWORD PTR [esi+4]
  0001d	68 00 80 00 00	 push	 32768			; 00008000H
  00022	50		 push	 eax
  00023	ff 15 00 00 00
	00		 call	 DWORD PTR __imp__PostThreadMessageA@16
$LN4@scalar:
  00029	f6 44 24 08 01	 test	 BYTE PTR ___flags$[esp], 1
  0002e	74 09		 je	 SHORT $LN7@scalar
  00030	56		 push	 esi
  00031	e8 00 00 00 00	 call	 ??3@YAXPAX@Z		; operator delete
  00036	83 c4 04	 add	 esp, 4
$LN7@scalar:
  00039	8b c6		 mov	 eax, esi
  0003b	5e		 pop	 esi
  0003c	c2 04 00	 ret	 4
??_GCipherShedFormatCom@@QAEPAXI@Z ENDP			; CipherShedFormatCom::`scalar deleting destructor'
; Function compile flags: /Ogtpy
; File c:\home\public\desktop\projects\ciphershed.build\src\common\basecom.h
_TEXT	ENDS
;	COMDAT ?AddRef@?$CipherShedFactory@VCipherShedFormatCom@@@@UAGKXZ
_TEXT	SEGMENT
_this$ = 8						; size = 4
?AddRef@?$CipherShedFactory@VCipherShedFormatCom@@@@UAGKXZ PROC ; CipherShedFactory<CipherShedFormatCom>::AddRef, COMDAT

; 26   : 		return InterlockedIncrement (&RefCount) - 1;

  00000	8b 44 24 04	 mov	 eax, DWORD PTR _this$[esp-4]
  00004	83 c0 08	 add	 eax, 8
  00007	50		 push	 eax
  00008	ff 15 00 00 00
	00		 call	 DWORD PTR __imp__InterlockedIncrement@4
  0000e	48		 dec	 eax

; 27   : 	}

  0000f	c2 04 00	 ret	 4
?AddRef@?$CipherShedFactory@VCipherShedFormatCom@@@@UAGKXZ ENDP ; CipherShedFactory<CipherShedFormatCom>::AddRef
_TEXT	ENDS
EXTRN	_IID_IClassFactory:BYTE
; Function compile flags: /Ogtpy
;	COMDAT ?QueryInterface@?$CipherShedFactory@VCipherShedFormatCom@@@@UAGJABU_GUID@@PAPAX@Z
_TEXT	SEGMENT
_this$ = 8						; size = 4
_riid$ = 12						; size = 4
_ppvObject$ = 16					; size = 4
?QueryInterface@?$CipherShedFactory@VCipherShedFormatCom@@@@UAGJABU_GUID@@PAPAX@Z PROC ; CipherShedFactory<CipherShedFormatCom>::QueryInterface, COMDAT

; 40   : 	{

  00000	56		 push	 esi

; 41   : 		if (riid == IID_IUnknown || riid == IID_IClassFactory)

  00001	8b 74 24 0c	 mov	 esi, DWORD PTR _riid$[esp]
  00005	68 00 00 00 00	 push	 OFFSET _IID_IUnknown
  0000a	56		 push	 esi
  0000b	e8 00 00 00 00	 call	 _IsEqualGUID
  00010	83 c4 08	 add	 esp, 8
  00013	85 c0		 test	 eax, eax
  00015	75 25		 jne	 SHORT $LN2@QueryInter@2
  00017	68 00 00 00 00	 push	 OFFSET _IID_IClassFactory
  0001c	56		 push	 esi
  0001d	e8 00 00 00 00	 call	 _IsEqualGUID
  00022	83 c4 08	 add	 esp, 8
  00025	85 c0		 test	 eax, eax
  00027	75 13		 jne	 SHORT $LN2@QueryInter@2

; 43   : 		else
; 44   : 		{
; 45   : 			*ppvObject = NULL;

  00029	8b 44 24 10	 mov	 eax, DWORD PTR _ppvObject$[esp]
  0002d	c7 00 00 00 00
	00		 mov	 DWORD PTR [eax], 0

; 46   : 			return E_NOINTERFACE;

  00033	b8 02 40 00 80	 mov	 eax, -2147467262	; 80004002H
  00038	5e		 pop	 esi

; 51   : 	}

  00039	c2 0c 00	 ret	 12			; 0000000cH
$LN2@QueryInter@2:

; 42   : 			*ppvObject = this;

  0003c	8b 44 24 08	 mov	 eax, DWORD PTR _this$[esp]
  00040	8b 4c 24 10	 mov	 ecx, DWORD PTR _ppvObject$[esp]
  00044	89 01		 mov	 DWORD PTR [ecx], eax

; 47   : 		}
; 48   : 
; 49   : 		AddRef ();

  00046	8b 10		 mov	 edx, DWORD PTR [eax]
  00048	50		 push	 eax
  00049	8b 42 04	 mov	 eax, DWORD PTR [edx+4]
  0004c	ff d0		 call	 eax

; 50   : 		return S_OK;

  0004e	33 c0		 xor	 eax, eax
  00050	5e		 pop	 esi

; 51   : 	}

  00051	c2 0c 00	 ret	 12			; 0000000cH
?QueryInterface@?$CipherShedFactory@VCipherShedFormatCom@@@@UAGJABU_GUID@@PAPAX@Z ENDP ; CipherShedFactory<CipherShedFormatCom>::QueryInterface
; Function compile flags: /Ogtpy
_TEXT	ENDS
;	COMDAT ?LockServer@?$CipherShedFactory@VCipherShedFormatCom@@@@UAGJH@Z
_TEXT	SEGMENT
_this$ = 8						; size = 4
_fLock$ = 12						; size = 4
?LockServer@?$CipherShedFactory@VCipherShedFormatCom@@@@UAGJH@Z PROC ; CipherShedFactory<CipherShedFormatCom>::LockServer, COMDAT

; 72   : 		if (fLock)

  00000	83 7c 24 08 00	 cmp	 DWORD PTR _fLock$[esp-4], 0
  00005	74 13		 je	 SHORT $LN3@LockServer

; 73   : 		{
; 74   : 			InterlockedIncrement (&ServerLockCount);

  00007	8b 44 24 04	 mov	 eax, DWORD PTR _this$[esp-4]
  0000b	83 c0 0c	 add	 eax, 12			; 0000000cH
  0000e	50		 push	 eax
  0000f	ff 15 00 00 00
	00		 call	 DWORD PTR __imp__InterlockedIncrement@4

; 80   : 		}
; 81   : 
; 82   : 		return S_OK;

  00015	33 c0		 xor	 eax, eax

; 83   : 	}

  00017	c2 08 00	 ret	 8
$LN3@LockServer:
  0001a	56		 push	 esi

; 75   : 		}
; 76   : 		else
; 77   : 		{
; 78   : 			if (!InterlockedDecrement (&ServerLockCount))

  0001b	8b 74 24 08	 mov	 esi, DWORD PTR _this$[esp]
  0001f	8d 4e 0c	 lea	 ecx, DWORD PTR [esi+12]
  00022	51		 push	 ecx
  00023	ff 15 00 00 00
	00		 call	 DWORD PTR __imp__InterlockedDecrement@4
  00029	85 c0		 test	 eax, eax
  0002b	75 11		 jne	 SHORT $LN6@LockServer

; 79   : 				PostThreadMessage (MessageThreadId, WM_APP, 0, 0);

  0002d	8b 56 04	 mov	 edx, DWORD PTR [esi+4]
  00030	50		 push	 eax
  00031	50		 push	 eax
  00032	68 00 80 00 00	 push	 32768			; 00008000H
  00037	52		 push	 edx
  00038	ff 15 00 00 00
	00		 call	 DWORD PTR __imp__PostThreadMessageA@16
$LN6@LockServer:
  0003e	5e		 pop	 esi

; 80   : 		}
; 81   : 
; 82   : 		return S_OK;

  0003f	33 c0		 xor	 eax, eax

; 83   : 	}

  00041	c2 08 00	 ret	 8
?LockServer@?$CipherShedFactory@VCipherShedFormatCom@@@@UAGJH@Z ENDP ; CipherShedFactory<CipherShedFormatCom>::LockServer
; Function compile flags: /Ogtpy
_TEXT	ENDS
;	COMDAT ?IsServerLocked@?$CipherShedFactory@VCipherShedFormatCom@@@@UAE_NXZ
_TEXT	SEGMENT
?IsServerLocked@?$CipherShedFactory@VCipherShedFormatCom@@@@UAE_NXZ PROC ; CipherShedFactory<CipherShedFormatCom>::IsServerLocked, COMDAT
; _this$ = ecx

; 87   : 		return ServerLockCount > 0;

  00000	33 c0		 xor	 eax, eax
  00002	39 41 0c	 cmp	 DWORD PTR [ecx+12], eax
  00005	0f 9f c0	 setg	 al

; 88   : 	}

  00008	c3		 ret	 0
?IsServerLocked@?$CipherShedFactory@VCipherShedFormatCom@@@@UAE_NXZ ENDP ; CipherShedFactory<CipherShedFormatCom>::IsServerLocked
_TEXT	ENDS
PUBLIC	??1?$CComPtrBase@UICipherShedFormatCom@@@ATL@@QAE@XZ ; ATL::CComPtrBase<ICipherShedFormatCom>::~CComPtrBase<ICipherShedFormatCom>
; Function compile flags: /Ogtpy
; File c:\program files (x86)\microsoft visual studio 9.0\vc\atlmfc\include\atlcomcli.h
;	COMDAT ??1?$CComPtrBase@UICipherShedFormatCom@@@ATL@@QAE@XZ
_TEXT	SEGMENT
??1?$CComPtrBase@UICipherShedFormatCom@@@ATL@@QAE@XZ PROC ; ATL::CComPtrBase<ICipherShedFormatCom>::~CComPtrBase<ICipherShedFormatCom>, COMDAT
; _this$ = ecx

; 151  : 		if (p)

  00000	8b 01		 mov	 eax, DWORD PTR [ecx]
  00002	85 c0		 test	 eax, eax
  00004	74 08		 je	 SHORT $LN1@CComPtrBas

; 152  : 			p->Release();

  00006	8b 08		 mov	 ecx, DWORD PTR [eax]
  00008	8b 51 08	 mov	 edx, DWORD PTR [ecx+8]
  0000b	50		 push	 eax
  0000c	ff d2		 call	 edx
$LN1@CComPtrBas:

; 153  : 	}

  0000e	c3		 ret	 0
??1?$CComPtrBase@UICipherShedFormatCom@@@ATL@@QAE@XZ ENDP ; ATL::CComPtrBase<ICipherShedFormatCom>::~CComPtrBase<ICipherShedFormatCom>
_TEXT	ENDS
PUBLIC	??I?$CComPtrBase@UICipherShedFormatCom@@@ATL@@QAEPAPAUICipherShedFormatCom@@XZ ; ATL::CComPtrBase<ICipherShedFormatCom>::operator&
; Function compile flags: /Ogtpy
;	COMDAT ??I?$CComPtrBase@UICipherShedFormatCom@@@ATL@@QAEPAPAUICipherShedFormatCom@@XZ
_TEXT	SEGMENT
??I?$CComPtrBase@UICipherShedFormatCom@@@ATL@@QAEPAPAUICipherShedFormatCom@@XZ PROC ; ATL::CComPtrBase<ICipherShedFormatCom>::operator&, COMDAT
; _this$ = ecx

; 166  : 	{

  00000	8b c1		 mov	 eax, ecx

; 167  : 		ATLASSERT(p==NULL);
; 168  : 		return &p;
; 169  : 	}

  00002	c3		 ret	 0
??I?$CComPtrBase@UICipherShedFormatCom@@@ATL@@QAEPAPAUICipherShedFormatCom@@XZ ENDP ; ATL::CComPtrBase<ICipherShedFormatCom>::operator&
_TEXT	ENDS
PUBLIC	??C?$CComPtrBase@UICipherShedFormatCom@@@ATL@@QBEPAV?$_NoAddRefReleaseOnCComPtr@UICipherShedFormatCom@@@1@XZ ; ATL::CComPtrBase<ICipherShedFormatCom>::operator->
; Function compile flags: /Ogtpy
;	COMDAT ??C?$CComPtrBase@UICipherShedFormatCom@@@ATL@@QBEPAV?$_NoAddRefReleaseOnCComPtr@UICipherShedFormatCom@@@1@XZ
_TEXT	SEGMENT
??C?$CComPtrBase@UICipherShedFormatCom@@@ATL@@QBEPAV?$_NoAddRefReleaseOnCComPtr@UICipherShedFormatCom@@@1@XZ PROC ; ATL::CComPtrBase<ICipherShedFormatCom>::operator->, COMDAT
; _this$ = ecx

; 172  : 		ATLASSERT(p!=NULL);
; 173  : 		return (_NoAddRefReleaseOnCComPtr<T>*)p;

  00000	8b 01		 mov	 eax, DWORD PTR [ecx]

; 174  : 	}

  00002	c3		 ret	 0
??C?$CComPtrBase@UICipherShedFormatCom@@@ATL@@QBEPAV?$_NoAddRefReleaseOnCComPtr@UICipherShedFormatCom@@@1@XZ ENDP ; ATL::CComPtrBase<ICipherShedFormatCom>::operator->
_TEXT	ENDS
PUBLIC	??0IClassFactory@@QAE@XZ			; IClassFactory::IClassFactory
; Function compile flags: /Ogtpy
;	COMDAT ??0IClassFactory@@QAE@XZ
_TEXT	SEGMENT
??0IClassFactory@@QAE@XZ PROC				; IClassFactory::IClassFactory, COMDAT
; _this$ = ecx
  00000	8b c1		 mov	 eax, ecx
  00002	c3		 ret	 0
??0IClassFactory@@QAE@XZ ENDP				; IClassFactory::IClassFactory
_TEXT	ENDS
PUBLIC	??_G?$CipherShedFactory@VCipherShedFormatCom@@@@QAEPAXI@Z ; CipherShedFactory<CipherShedFormatCom>::`scalar deleting destructor'
; Function compile flags: /Ogtpy
;	COMDAT ??_G?$CipherShedFactory@VCipherShedFormatCom@@@@QAEPAXI@Z
_TEXT	SEGMENT
___flags$ = 8						; size = 4
??_G?$CipherShedFactory@VCipherShedFormatCom@@@@QAEPAXI@Z PROC ; CipherShedFactory<CipherShedFormatCom>::`scalar deleting destructor', COMDAT
; _this$ = ecx
  00000	f6 44 24 04 01	 test	 BYTE PTR ___flags$[esp-4], 1
  00005	56		 push	 esi
  00006	8b f1		 mov	 esi, ecx
  00008	c7 06 00 00 00
	00		 mov	 DWORD PTR [esi], OFFSET ??_7?$CipherShedFactory@VCipherShedFormatCom@@@@6B@
  0000e	74 09		 je	 SHORT $LN6@scalar@2
  00010	56		 push	 esi
  00011	e8 00 00 00 00	 call	 ??3@YAXPAX@Z		; operator delete
  00016	83 c4 04	 add	 esp, 4
$LN6@scalar@2:
  00019	8b c6		 mov	 eax, esi
  0001b	5e		 pop	 esi
  0001c	c2 04 00	 ret	 4
??_G?$CipherShedFactory@VCipherShedFormatCom@@@@QAEPAXI@Z ENDP ; CipherShedFactory<CipherShedFormatCom>::`scalar deleting destructor'
_TEXT	ENDS
PUBLIC	??0?$CComPtrBase@UICipherShedFormatCom@@@ATL@@IAE@XZ ; ATL::CComPtrBase<ICipherShedFormatCom>::CComPtrBase<ICipherShedFormatCom>
; Function compile flags: /Ogtpy
;	COMDAT ??0?$CComPtrBase@UICipherShedFormatCom@@@ATL@@IAE@XZ
_TEXT	SEGMENT
??0?$CComPtrBase@UICipherShedFormatCom@@@ATL@@IAE@XZ PROC ; ATL::CComPtrBase<ICipherShedFormatCom>::CComPtrBase<ICipherShedFormatCom>, COMDAT
; _this$ = ecx

; 131  : 	CComPtrBase() throw()

  00000	8b c1		 mov	 eax, ecx

; 132  : 	{
; 133  : 		p = NULL;

  00002	c7 00 00 00 00
	00		 mov	 DWORD PTR [eax], 0

; 134  : 	}

  00008	c3		 ret	 0
??0?$CComPtrBase@UICipherShedFormatCom@@@ATL@@IAE@XZ ENDP ; ATL::CComPtrBase<ICipherShedFormatCom>::CComPtrBase<ICipherShedFormatCom>
; Function compile flags: /Ogtpy
; File c:\home\public\desktop\projects\ciphershed.build\src\format\formatcom.cpp
_TEXT	ENDS
;	COMDAT ?Release@CipherShedFormatCom@@UAGKXZ
_TEXT	SEGMENT
_this$ = 8						; size = 4
?Release@CipherShedFormatCom@@UAGKXZ PROC		; CipherShedFormatCom::Release, COMDAT

; 52   : 	{

  00000	53		 push	 ebx

; 53   : 		if (!InterlockedDecrement (&RefCount))

  00001	8b 1d 00 00 00
	00		 mov	 ebx, DWORD PTR __imp__InterlockedDecrement@4
  00007	56		 push	 esi
  00008	8b 74 24 0c	 mov	 esi, DWORD PTR _this$[esp+4]
  0000c	57		 push	 edi
  0000d	8d 7e 08	 lea	 edi, DWORD PTR [esi+8]
  00010	57		 push	 edi
  00011	ff d3		 call	 ebx
  00013	85 c0		 test	 eax, eax
  00015	75 37		 jne	 SHORT $LN1@Release

; 54   : 		{
; 55   : 			delete this;

  00017	85 f6		 test	 esi, esi
  00019	74 2b		 je	 SHORT $LN4@Release
  0001b	68 00 00 00 00	 push	 OFFSET _ObjectCount
  00020	c7 06 00 00 00
	00		 mov	 DWORD PTR [esi], OFFSET ??_7CipherShedFormatCom@@6B@
  00026	ff d3		 call	 ebx
  00028	85 c0		 test	 eax, eax
  0002a	75 11		 jne	 SHORT $LN9@Release
  0002c	50		 push	 eax
  0002d	50		 push	 eax
  0002e	8b 46 04	 mov	 eax, DWORD PTR [esi+4]
  00031	68 00 80 00 00	 push	 32768			; 00008000H
  00036	50		 push	 eax
  00037	ff 15 00 00 00
	00		 call	 DWORD PTR __imp__PostThreadMessageA@16
$LN9@Release:
  0003d	56		 push	 esi
  0003e	e8 00 00 00 00	 call	 ??3@YAXPAX@Z		; operator delete
  00043	83 c4 04	 add	 esp, 4
$LN4@Release:
  00046	5f		 pop	 edi
  00047	5e		 pop	 esi

; 56   : 			return 0;

  00048	33 c0		 xor	 eax, eax
  0004a	5b		 pop	 ebx

; 60   : 	}

  0004b	c2 04 00	 ret	 4
$LN1@Release:

; 57   : 		}
; 58   : 
; 59   : 		return RefCount;

  0004e	8b 07		 mov	 eax, DWORD PTR [edi]
  00050	5f		 pop	 edi
  00051	5e		 pop	 esi
  00052	5b		 pop	 ebx

; 60   : 	}

  00053	c2 04 00	 ret	 4
?Release@CipherShedFormatCom@@UAGKXZ ENDP		; CipherShedFormatCom::Release
_TEXT	ENDS
PUBLIC	??0ICipherShedFormatCom@@QAE@XZ			; ICipherShedFormatCom::ICipherShedFormatCom
; Function compile flags: /Ogtpy
;	COMDAT ??0ICipherShedFormatCom@@QAE@XZ
_TEXT	SEGMENT
??0ICipherShedFormatCom@@QAE@XZ PROC			; ICipherShedFormatCom::ICipherShedFormatCom, COMDAT
; _this$ = ecx
  00000	8b c1		 mov	 eax, ecx
  00002	c3		 ret	 0
??0ICipherShedFormatCom@@QAE@XZ ENDP			; ICipherShedFormatCom::ICipherShedFormatCom
; Function compile flags: /Ogtpy
_TEXT	ENDS
;	COMDAT ??0UserAbort@CipherShed@@QAE@ABU01@@Z
_TEXT	SEGMENT
___that$ = 8						; size = 4
??0UserAbort@CipherShed@@QAE@ABU01@@Z PROC		; CipherShed::UserAbort::UserAbort, COMDAT
; _this$ = ecx
  00000	8b c1		 mov	 eax, ecx
  00002	c7 00 00 00 00
	00		 mov	 DWORD PTR [eax], OFFSET ??_7UserAbort@CipherShed@@6B@
  00008	c2 04 00	 ret	 4
??0UserAbort@CipherShed@@QAE@ABU01@@Z ENDP		; CipherShed::UserAbort::UserAbort
_TEXT	ENDS
PUBLIC	??1?$CComPtr@UICipherShedFormatCom@@@ATL@@QAE@XZ ; ATL::CComPtr<ICipherShedFormatCom>::~CComPtr<ICipherShedFormatCom>
; Function compile flags: /Ogtpy
;	COMDAT ??1?$CComPtr@UICipherShedFormatCom@@@ATL@@QAE@XZ
_TEXT	SEGMENT
??1?$CComPtr@UICipherShedFormatCom@@@ATL@@QAE@XZ PROC	; ATL::CComPtr<ICipherShedFormatCom>::~CComPtr<ICipherShedFormatCom>, COMDAT
; _this$ = ecx
  00000	8b 01		 mov	 eax, DWORD PTR [ecx]
  00002	85 c0		 test	 eax, eax
  00004	74 08		 je	 SHORT $LN3@CComPtr
  00006	8b 08		 mov	 ecx, DWORD PTR [eax]
  00008	8b 51 08	 mov	 edx, DWORD PTR [ecx+8]
  0000b	50		 push	 eax
  0000c	ff d2		 call	 edx
$LN3@CComPtr:
  0000e	c3		 ret	 0
??1?$CComPtr@UICipherShedFormatCom@@@ATL@@QAE@XZ ENDP	; ATL::CComPtr<ICipherShedFormatCom>::~CComPtr<ICipherShedFormatCom>
_TEXT	ENDS
PUBLIC	??0?$CipherShedFactory@VCipherShedFormatCom@@@@QAE@K@Z ; CipherShedFactory<CipherShedFormatCom>::CipherShedFactory<CipherShedFormatCom>
; Function compile flags: /Ogtpy
; File c:\home\public\desktop\projects\ciphershed.build\src\common\basecom.h
;	COMDAT ??0?$CipherShedFactory@VCipherShedFormatCom@@@@QAE@K@Z
_TEXT	SEGMENT
_messageThreadId$ = 8					; size = 4
??0?$CipherShedFactory@VCipherShedFormatCom@@@@QAE@K@Z PROC ; CipherShedFactory<CipherShedFormatCom>::CipherShedFactory<CipherShedFormatCom>, COMDAT
; _this$ = ecx

; 20   : 		RefCount (1), ServerLockCount (0), MessageThreadId (messageThreadId) { }

  00000	8b c1		 mov	 eax, ecx
  00002	8b 4c 24 04	 mov	 ecx, DWORD PTR _messageThreadId$[esp-4]
  00006	c7 00 00 00 00
	00		 mov	 DWORD PTR [eax], OFFSET ??_7?$CipherShedFactory@VCipherShedFormatCom@@@@6B@
  0000c	89 48 04	 mov	 DWORD PTR [eax+4], ecx
  0000f	c7 40 08 01 00
	00 00		 mov	 DWORD PTR [eax+8], 1
  00016	c7 40 0c 00 00
	00 00		 mov	 DWORD PTR [eax+12], 0
  0001d	c2 04 00	 ret	 4
??0?$CipherShedFactory@VCipherShedFormatCom@@@@QAE@K@Z ENDP ; CipherShedFactory<CipherShedFormatCom>::CipherShedFactory<CipherShedFormatCom>
; Function compile flags: /Ogtpy
_TEXT	ENDS
;	COMDAT ?Release@?$CipherShedFactory@VCipherShedFormatCom@@@@UAGKXZ
_TEXT	SEGMENT
_this$ = 8						; size = 4
?Release@?$CipherShedFactory@VCipherShedFormatCom@@@@UAGKXZ PROC ; CipherShedFactory<CipherShedFormatCom>::Release, COMDAT

; 30   : 	{

  00000	56		 push	 esi
  00001	57		 push	 edi

; 31   : 		ULONG r = InterlockedDecrement (&RefCount) + 1;

  00002	8b 7c 24 0c	 mov	 edi, DWORD PTR _this$[esp+4]
  00006	8d 47 08	 lea	 eax, DWORD PTR [edi+8]
  00009	50		 push	 eax
  0000a	ff 15 00 00 00
	00		 call	 DWORD PTR __imp__InterlockedDecrement@4
  00010	8b f0		 mov	 esi, eax
  00012	83 c6 01	 add	 esi, 1

; 32   : 
; 33   : 		if (r == 0)

  00015	75 13		 jne	 SHORT $LN12@Release@2

; 34   : 			delete this;

  00017	85 ff		 test	 edi, edi
  00019	74 0f		 je	 SHORT $LN12@Release@2
  0001b	57		 push	 edi
  0001c	c7 07 00 00 00
	00		 mov	 DWORD PTR [edi], OFFSET ??_7?$CipherShedFactory@VCipherShedFormatCom@@@@6B@
  00022	e8 00 00 00 00	 call	 ??3@YAXPAX@Z		; operator delete
  00027	83 c4 04	 add	 esp, 4
$LN12@Release@2:
  0002a	5f		 pop	 edi

; 35   : 
; 36   : 		return r;

  0002b	8b c6		 mov	 eax, esi
  0002d	5e		 pop	 esi

; 37   : 	}

  0002e	c2 04 00	 ret	 4
?Release@?$CipherShedFactory@VCipherShedFormatCom@@@@UAGKXZ ENDP ; CipherShedFactory<CipherShedFormatCom>::Release
_TEXT	ENDS
PUBLIC	??0?$CComPtr@UICipherShedFormatCom@@@ATL@@QAE@XZ ; ATL::CComPtr<ICipherShedFormatCom>::CComPtr<ICipherShedFormatCom>
; Function compile flags: /Ogtpy
; File c:\program files (x86)\microsoft visual studio 9.0\vc\atlmfc\include\atlcomcli.h
;	COMDAT ??0?$CComPtr@UICipherShedFormatCom@@@ATL@@QAE@XZ
_TEXT	SEGMENT
??0?$CComPtr@UICipherShedFormatCom@@@ATL@@QAE@XZ PROC	; ATL::CComPtr<ICipherShedFormatCom>::CComPtr<ICipherShedFormatCom>, COMDAT
; _this$ = ecx

; 276  : 	CComPtr() throw()

  00000	8b c1		 mov	 eax, ecx
  00002	c7 00 00 00 00
	00		 mov	 DWORD PTR [eax], 0

; 277  : 	{
; 278  : 	}

  00008	c3		 ret	 0
??0?$CComPtr@UICipherShedFormatCom@@@ATL@@QAE@XZ ENDP	; ATL::CComPtr<ICipherShedFormatCom>::CComPtr<ICipherShedFormatCom>
_TEXT	ENDS
PUBLIC	??0CipherShedFormatCom@@QAE@K@Z			; CipherShedFormatCom::CipherShedFormatCom
; Function compile flags: /Ogtpy
; File c:\home\public\desktop\projects\ciphershed.build\src\format\formatcom.cpp
;	COMDAT ??0CipherShedFormatCom@@QAE@K@Z
_TEXT	SEGMENT
_messageThreadId$ = 8					; size = 4
??0CipherShedFormatCom@@QAE@K@Z PROC			; CipherShedFormatCom::CipherShedFormatCom, COMDAT
; _this$ = ecx

; 36   : 	{

  00000	8b 44 24 04	 mov	 eax, DWORD PTR _messageThreadId$[esp-4]
  00004	56		 push	 esi
  00005	8b f1		 mov	 esi, ecx
  00007	89 46 04	 mov	 DWORD PTR [esi+4], eax
  0000a	33 c0		 xor	 eax, eax

; 37   : 		InterlockedIncrement (&ObjectCount);

  0000c	68 00 00 00 00	 push	 OFFSET _ObjectCount
  00011	c7 06 00 00 00
	00		 mov	 DWORD PTR [esi], OFFSET ??_7CipherShedFormatCom@@6B@
  00017	89 46 08	 mov	 DWORD PTR [esi+8], eax
  0001a	89 46 0c	 mov	 DWORD PTR [esi+12], eax
  0001d	ff 15 00 00 00
	00		 call	 DWORD PTR __imp__InterlockedIncrement@4

; 38   : 	}

  00023	8b c6		 mov	 eax, esi
  00025	5e		 pop	 esi
  00026	c2 04 00	 ret	 4
??0CipherShedFormatCom@@QAE@K@Z ENDP			; CipherShedFormatCom::CipherShedFormatCom
_TEXT	ENDS
PUBLIC	_ComServerFormat
EXTRN	__imp__CoRevokeClassObject@4:PROC
EXTRN	__imp__DispatchMessageA@4:PROC
EXTRN	__imp__TranslateMessage@4:PROC
EXTRN	__imp__GetMessageA@16:PROC
EXTRN	__imp__CoRegisterClassObject@20:PROC
EXTRN	_UacElevated:DWORD
EXTRN	_IsUacSupported:PROC
EXTRN	__imp__GetCurrentThreadId@0:PROC
EXTRN	__imp__SetProcessShutdownParameters@8:PROC
; Function compile flags: /Ogtpy
;	COMDAT _ComServerFormat
_TEXT	SEGMENT
_cookie$ = -48						; size = 4
_factory$ = -44						; size = 16
_msg$ = -28						; size = 28
_ComServerFormat PROC					; COMDAT

; 141  : {

  00000	83 ec 30	 sub	 esp, 48			; 00000030H
  00003	56		 push	 esi

; 142  : 	SetProcessShutdownParameters (0x100, 0);

  00004	6a 00		 push	 0
  00006	68 00 01 00 00	 push	 256			; 00000100H
  0000b	ff 15 00 00 00
	00		 call	 DWORD PTR __imp__SetProcessShutdownParameters@8

; 143  : 
; 144  : 	CipherShedFactory<CipherShedFormatCom> factory (GetCurrentThreadId ());

  00011	ff 15 00 00 00
	00		 call	 DWORD PTR __imp__GetCurrentThreadId@0
  00017	be 01 00 00 00	 mov	 esi, 1
  0001c	c7 44 24 08 00
	00 00 00	 mov	 DWORD PTR _factory$[esp+52], OFFSET ??_7?$CipherShedFactory@VCipherShedFormatCom@@@@6B@
  00024	89 44 24 0c	 mov	 DWORD PTR _factory$[esp+56], eax
  00028	89 74 24 10	 mov	 DWORD PTR _factory$[esp+60], esi
  0002c	c7 44 24 14 00
	00 00 00	 mov	 DWORD PTR _factory$[esp+64], 0

; 145  : 	DWORD cookie;
; 146  : 
; 147  : 	if (IsUacSupported ())

  00034	e8 00 00 00 00	 call	 _IsUacSupported
  00039	85 c0		 test	 eax, eax
  0003b	74 06		 je	 SHORT $LN6@ComServerF

; 148  : 		UacElevated = TRUE;

  0003d	89 35 00 00 00
	00		 mov	 DWORD PTR _UacElevated, esi
$LN6@ComServerF:

; 149  : 
; 150  : 	if (CoRegisterClassObject (CLSID_CipherShedFormatCom, (LPUNKNOWN) &factory,
; 151  : 		CLSCTX_LOCAL_SERVER, REGCLS_SINGLEUSE, &cookie) != S_OK)

  00043	8d 44 24 04	 lea	 eax, DWORD PTR _cookie$[esp+52]
  00047	50		 push	 eax
  00048	6a 00		 push	 0
  0004a	6a 04		 push	 4
  0004c	8d 4c 24 14	 lea	 ecx, DWORD PTR _factory$[esp+64]
  00050	51		 push	 ecx
  00051	68 00 00 00 00	 push	 OFFSET _CLSID_CipherShedFormatCom
  00056	ff 15 00 00 00
	00		 call	 DWORD PTR __imp__CoRegisterClassObject@20
  0005c	85 c0		 test	 eax, eax
  0005e	74 07		 je	 SHORT $LN19@ComServerF

; 152  : 		return FALSE;

  00060	33 c0		 xor	 eax, eax
  00062	5e		 pop	 esi

; 171  : }

  00063	83 c4 30	 add	 esp, 48			; 00000030H
  00066	c3		 ret	 0
$LN19@ComServerF:

; 153  : 
; 154  : 	MSG msg;
; 155  : 	while (int r = GetMessage (&msg, NULL, 0, 0))

  00067	8b 35 00 00 00
	00		 mov	 esi, DWORD PTR __imp__GetMessageA@16
  0006d	53		 push	 ebx
  0006e	57		 push	 edi
  0006f	6a 00		 push	 0
  00071	6a 00		 push	 0
  00073	6a 00		 push	 0
  00075	8d 54 24 2c	 lea	 edx, DWORD PTR _msg$[esp+72]
  00079	52		 push	 edx
  0007a	ff d6		 call	 esi
  0007c	85 c0		 test	 eax, eax
  0007e	74 50		 je	 SHORT $LN23@ComServerF
  00080	8b 3d 00 00 00
	00		 mov	 edi, DWORD PTR __imp__TranslateMessage@4
  00086	8b 1d 00 00 00
	00		 mov	 ebx, DWORD PTR __imp__DispatchMessageA@4
  0008c	8d 64 24 00	 npad	 4
$LL4@ComServerF:

; 156  : 	{
; 157  : 		if (r == -1)

  00090	83 f8 ff	 cmp	 eax, -1
  00093	74 52		 je	 SHORT $LN20@ComServerF

; 159  : 
; 160  : 		TranslateMessage (&msg);

  00095	8d 44 24 20	 lea	 eax, DWORD PTR _msg$[esp+60]
  00099	50		 push	 eax
  0009a	ff d7		 call	 edi

; 161  : 		DispatchMessage (&msg);

  0009c	8d 4c 24 20	 lea	 ecx, DWORD PTR _msg$[esp+60]
  000a0	51		 push	 ecx
  000a1	ff d3		 call	 ebx

; 162  : 
; 163  : 		if (msg.message == WM_APP
; 164  : 			&& ObjectCount < 1
; 165  : 			&& !factory.IsServerLocked ())

  000a3	81 7c 24 24 00
	80 00 00	 cmp	 DWORD PTR _msg$[esp+64], 32768 ; 00008000H
  000ab	75 12		 jne	 SHORT $LN22@ComServerF
  000ad	8b 15 00 00 00
	00		 mov	 edx, DWORD PTR _ObjectCount
  000b3	83 fa 01	 cmp	 edx, 1
  000b6	7d 07		 jge	 SHORT $LN22@ComServerF
  000b8	83 7c 24 1c 00	 cmp	 DWORD PTR _factory$[esp+72], 0
  000bd	7e 11		 jle	 SHORT $LN23@ComServerF
$LN22@ComServerF:

; 153  : 
; 154  : 	MSG msg;
; 155  : 	while (int r = GetMessage (&msg, NULL, 0, 0))

  000bf	6a 00		 push	 0
  000c1	6a 00		 push	 0
  000c3	6a 00		 push	 0
  000c5	8d 44 24 2c	 lea	 eax, DWORD PTR _msg$[esp+72]
  000c9	50		 push	 eax
  000ca	ff d6		 call	 esi
  000cc	85 c0		 test	 eax, eax
  000ce	75 c0		 jne	 SHORT $LL4@ComServerF
$LN23@ComServerF:

; 166  : 			break;
; 167  : 	}
; 168  : 	CoRevokeClassObject (cookie);

  000d0	8b 4c 24 0c	 mov	 ecx, DWORD PTR _cookie$[esp+60]
  000d4	51		 push	 ecx
  000d5	ff 15 00 00 00
	00		 call	 DWORD PTR __imp__CoRevokeClassObject@4
  000db	5f		 pop	 edi
  000dc	5b		 pop	 ebx

; 169  : 
; 170  : 	return TRUE;

  000dd	b8 01 00 00 00	 mov	 eax, 1
  000e2	5e		 pop	 esi

; 171  : }

  000e3	83 c4 30	 add	 esp, 48			; 00000030H
  000e6	c3		 ret	 0
$LN20@ComServerF:
  000e7	5f		 pop	 edi
  000e8	5b		 pop	 ebx

; 158  : 			return FALSE;

  000e9	33 c0		 xor	 eax, eax
  000eb	5e		 pop	 esi

; 171  : }

  000ec	83 c4 30	 add	 esp, 48			; 00000030H
  000ef	c3		 ret	 0
_ComServerFormat ENDP
_TEXT	ENDS
PUBLIC	_UacFormatNtfs
EXTRN	__imp__CoUninitialize@0:PROC
EXTRN	__imp__CoInitialize@4:PROC
; Function compile flags: /Ogtpy
;	COMDAT _UacFormatNtfs
_TEXT	SEGMENT
_tc$ = -4						; size = 4
_hWnd$ = 8						; size = 4
_driveNo$ = 12						; size = 4
_clusterSize$ = 16					; size = 4
_UacFormatNtfs PROC					; COMDAT

; 192  : {

  00000	51		 push	 ecx
  00001	56		 push	 esi

; 193  : 	CComPtr<ICipherShedFormatCom> tc;
; 194  : 	int r;
; 195  : 
; 196  : 	CoInitialize (NULL);

  00002	6a 00		 push	 0
  00004	c7 44 24 08 00
	00 00 00	 mov	 DWORD PTR _tc$[esp+12], 0
  0000c	ff 15 00 00 00
	00		 call	 DWORD PTR __imp__CoInitialize@4

; 197  : 
; 198  : 	if (ComGetInstance (hWnd, &tc))

  00012	8b 4c 24 0c	 mov	 ecx, DWORD PTR _hWnd$[esp+4]
  00016	8d 44 24 04	 lea	 eax, DWORD PTR _tc$[esp+8]
  0001a	50		 push	 eax
  0001b	68 00 00 00 00	 push	 OFFSET _IID_ICipherShedFormatCom
  00020	68 00 00 00 00	 push	 OFFSET _CLSID_CipherShedFormatCom
  00025	51		 push	 ecx
  00026	e8 00 00 00 00	 call	 ?ComGetInstanceBase@@YAHPAUHWND__@@ABU_GUID@@1PAPAX@Z ; ComGetInstanceBase
  0002b	83 c4 10	 add	 esp, 16			; 00000010H
  0002e	85 c0		 test	 eax, eax
  00030	74 1a		 je	 SHORT $LN2@UacFormatN

; 199  : 		r = tc->FormatNtfs (driveNo, clusterSize);

  00032	8b 4c 24 14	 mov	 ecx, DWORD PTR _clusterSize$[esp+4]
  00036	8b 44 24 04	 mov	 eax, DWORD PTR _tc$[esp+8]
  0003a	8b 10		 mov	 edx, DWORD PTR [eax]
  0003c	8b 52 1c	 mov	 edx, DWORD PTR [edx+28]
  0003f	51		 push	 ecx
  00040	8b 4c 24 14	 mov	 ecx, DWORD PTR _driveNo$[esp+8]
  00044	51		 push	 ecx
  00045	50		 push	 eax
  00046	ff d2		 call	 edx
  00048	8b f0		 mov	 esi, eax

; 200  : 	else

  0004a	eb 02		 jmp	 SHORT $LN1@UacFormatN
$LN2@UacFormatN:

; 201  : 		r = 0;

  0004c	33 f6		 xor	 esi, esi
$LN1@UacFormatN:

; 202  : 
; 203  : 	CoUninitialize ();

  0004e	ff 15 00 00 00
	00		 call	 DWORD PTR __imp__CoUninitialize@0

; 204  : 
; 205  : 	return r;

  00054	8b 44 24 04	 mov	 eax, DWORD PTR _tc$[esp+8]
  00058	85 c0		 test	 eax, eax
  0005a	74 08		 je	 SHORT $LN20@UacFormatN
  0005c	8b 08		 mov	 ecx, DWORD PTR [eax]
  0005e	8b 51 08	 mov	 edx, DWORD PTR [ecx+8]
  00061	50		 push	 eax
  00062	ff d2		 call	 edx
$LN20@UacFormatN:
  00064	8b c6		 mov	 eax, esi
  00066	5e		 pop	 esi

; 206  : }

  00067	59		 pop	 ecx
  00068	c3		 ret	 0
_UacFormatNtfs ENDP
_TEXT	ENDS
PUBLIC	_UacAnalyzeHiddenVolumeHost
; Function compile flags: /Ogtpy
;	COMDAT _UacAnalyzeHiddenVolumeHost
_TEXT	SEGMENT
_tc$ = -4						; size = 4
_hwndDlg$ = 8						; size = 4
_driveNo$ = 12						; size = 4
_hiddenVolHostSize$ = 16				; size = 8
_realClusterSize$ = 24					; size = 4
_nbrFreeClusters$ = 28					; size = 4
_UacAnalyzeHiddenVolumeHost PROC			; COMDAT

; 210  : {

  00000	51		 push	 ecx
  00001	56		 push	 esi

; 211  : 	CComPtr<ICipherShedFormatCom> tc;
; 212  : 	int r;
; 213  : 
; 214  : 	CoInitialize (NULL);

  00002	6a 00		 push	 0
  00004	c7 44 24 08 00
	00 00 00	 mov	 DWORD PTR _tc$[esp+12], 0
  0000c	ff 15 00 00 00
	00		 call	 DWORD PTR __imp__CoInitialize@4

; 215  : 
; 216  : 	if (ComGetInstance (hwndDlg, &tc))

  00012	8b 74 24 0c	 mov	 esi, DWORD PTR _hwndDlg$[esp+4]
  00016	8d 44 24 04	 lea	 eax, DWORD PTR _tc$[esp+8]
  0001a	50		 push	 eax
  0001b	68 00 00 00 00	 push	 OFFSET _IID_ICipherShedFormatCom
  00020	68 00 00 00 00	 push	 OFFSET _CLSID_CipherShedFormatCom
  00025	56		 push	 esi
  00026	e8 00 00 00 00	 call	 ?ComGetInstanceBase@@YAHPAUHWND__@@ABU_GUID@@1PAPAX@Z ; ComGetInstanceBase
  0002b	83 c4 10	 add	 esp, 16			; 00000010H
  0002e	85 c0		 test	 eax, eax
  00030	74 2a		 je	 SHORT $LN2@UacAnalyze

; 217  : 		r = tc->AnalyzeHiddenVolumeHost ((LONG_PTR) hwndDlg, driveNo, hiddenVolHostSize, realClusterSize, nbrFreeClusters);

  00032	8b 54 24 20	 mov	 edx, DWORD PTR _nbrFreeClusters$[esp+4]
  00036	8b 44 24 04	 mov	 eax, DWORD PTR _tc$[esp+8]
  0003a	8b 08		 mov	 ecx, DWORD PTR [eax]
  0003c	52		 push	 edx
  0003d	8b 54 24 20	 mov	 edx, DWORD PTR _realClusterSize$[esp+8]
  00041	52		 push	 edx
  00042	8b 54 24 20	 mov	 edx, DWORD PTR _hiddenVolHostSize$[esp+16]
  00046	52		 push	 edx
  00047	8b 54 24 20	 mov	 edx, DWORD PTR _hiddenVolHostSize$[esp+16]
  0004b	52		 push	 edx
  0004c	8b 54 24 20	 mov	 edx, DWORD PTR _driveNo$[esp+20]
  00050	52		 push	 edx
  00051	56		 push	 esi
  00052	50		 push	 eax
  00053	8b 41 0c	 mov	 eax, DWORD PTR [ecx+12]
  00056	ff d0		 call	 eax
  00058	8b f0		 mov	 esi, eax

; 218  : 	else

  0005a	eb 02		 jmp	 SHORT $LN1@UacAnalyze
$LN2@UacAnalyze:

; 219  : 		r = 0;

  0005c	33 f6		 xor	 esi, esi
$LN1@UacAnalyze:

; 220  : 
; 221  : 	CoUninitialize ();

  0005e	ff 15 00 00 00
	00		 call	 DWORD PTR __imp__CoUninitialize@0

; 222  : 
; 223  : 	return r;

  00064	8b 44 24 04	 mov	 eax, DWORD PTR _tc$[esp+8]
  00068	85 c0		 test	 eax, eax
  0006a	74 08		 je	 SHORT $LN20@UacAnalyze
  0006c	8b 08		 mov	 ecx, DWORD PTR [eax]
  0006e	8b 51 08	 mov	 edx, DWORD PTR [ecx+8]
  00071	50		 push	 eax
  00072	ff d2		 call	 edx
$LN20@UacAnalyze:
  00074	8b c6		 mov	 eax, esi
  00076	5e		 pop	 esi

; 224  : }

  00077	59		 pop	 ecx
  00078	c3		 ret	 0
_UacAnalyzeHiddenVolumeHost ENDP
_TEXT	ENDS
EXTRN	??2@YAPAXI@Z:PROC				; operator new
; Function compile flags: /Ogtpy
; File c:\home\public\desktop\projects\ciphershed.build\src\common\basecom.h
;	COMDAT ?CreateInstance@?$CipherShedFactory@VCipherShedFormatCom@@@@UAGJPAUIUnknown@@ABU_GUID@@PAPAX@Z
_TEXT	SEGMENT
_this$ = 8						; size = 4
_pUnkOuter$ = 12					; size = 4
_riid$ = 16						; size = 4
_ppvObject$ = 20					; size = 4
?CreateInstance@?$CipherShedFactory@VCipherShedFormatCom@@@@UAGJPAUIUnknown@@ABU_GUID@@PAPAX@Z PROC ; CipherShedFactory<CipherShedFormatCom>::CreateInstance, COMDAT

; 55   : 		if (pUnkOuter != NULL)

  00000	83 7c 24 08 00	 cmp	 DWORD PTR _pUnkOuter$[esp-4], 0
  00005	74 08		 je	 SHORT $LN3@CreateInst

; 56   : 			return CLASS_E_NOAGGREGATION;

  00007	b8 10 01 04 80	 mov	 eax, -2147221232	; 80040110H

; 68   : 	}

  0000c	c2 10 00	 ret	 16			; 00000010H
$LN3@CreateInst:
  0000f	56		 push	 esi

; 57   : 
; 58   : 		TClass *tc = new TClass (MessageThreadId);

  00010	6a 10		 push	 16			; 00000010H
  00012	e8 00 00 00 00	 call	 ??2@YAPAXI@Z		; operator new
  00017	8b f0		 mov	 esi, eax
  00019	83 c4 04	 add	 esp, 4
  0001c	85 f6		 test	 esi, esi
  0001e	74 77		 je	 SHORT $LN19@CreateInst
  00020	8b 44 24 08	 mov	 eax, DWORD PTR _this$[esp]
  00024	8b 40 04	 mov	 eax, DWORD PTR [eax+4]
  00027	68 00 00 00 00	 push	 OFFSET _ObjectCount
  0002c	c7 06 00 00 00
	00		 mov	 DWORD PTR [esi], OFFSET ??_7CipherShedFormatCom@@6B@
  00032	89 46 04	 mov	 DWORD PTR [esi+4], eax
  00035	c7 46 08 00 00
	00 00		 mov	 DWORD PTR [esi+8], 0
  0003c	c7 46 0c 00 00
	00 00		 mov	 DWORD PTR [esi+12], 0
  00043	ff 15 00 00 00
	00		 call	 DWORD PTR __imp__InterlockedIncrement@4

; 61   : 
; 62   : 		HRESULT hr = tc->QueryInterface (riid, ppvObject);

  00049	8b 54 24 14	 mov	 edx, DWORD PTR _ppvObject$[esp]
  0004d	8b 44 24 10	 mov	 eax, DWORD PTR _riid$[esp]
  00051	8b 0e		 mov	 ecx, DWORD PTR [esi]
  00053	8b 09		 mov	 ecx, DWORD PTR [ecx]
  00055	57		 push	 edi
  00056	52		 push	 edx
  00057	50		 push	 eax
  00058	56		 push	 esi
  00059	ff d1		 call	 ecx
  0005b	8b f8		 mov	 edi, eax

; 63   : 
; 64   : 		if (hr)

  0005d	85 ff		 test	 edi, edi
  0005f	74 2f		 je	 SHORT $LN8@CreateInst

; 65   : 			delete tc;

  00061	68 00 00 00 00	 push	 OFFSET _ObjectCount
  00066	c7 06 00 00 00
	00		 mov	 DWORD PTR [esi], OFFSET ??_7CipherShedFormatCom@@6B@
  0006c	ff 15 00 00 00
	00		 call	 DWORD PTR __imp__InterlockedDecrement@4
  00072	85 c0		 test	 eax, eax
  00074	75 11		 jne	 SHORT $LN16@CreateInst
  00076	8b 56 04	 mov	 edx, DWORD PTR [esi+4]
  00079	50		 push	 eax
  0007a	50		 push	 eax
  0007b	68 00 80 00 00	 push	 32768			; 00008000H
  00080	52		 push	 edx
  00081	ff 15 00 00 00
	00		 call	 DWORD PTR __imp__PostThreadMessageA@16
$LN16@CreateInst:
  00087	56		 push	 esi
  00088	e8 00 00 00 00	 call	 ??3@YAXPAX@Z		; operator delete
  0008d	83 c4 04	 add	 esp, 4
$LN8@CreateInst:

; 66   : 
; 67   : 		return hr;

  00090	8b c7		 mov	 eax, edi
  00092	5f		 pop	 edi
  00093	5e		 pop	 esi

; 68   : 	}

  00094	c2 10 00	 ret	 16			; 00000010H
$LN19@CreateInst:

; 59   : 		if (tc == NULL)
; 60   : 			return E_OUTOFMEMORY;

  00097	b8 0e 00 07 80	 mov	 eax, -2147024882	; 8007000eH
  0009c	5e		 pop	 esi

; 68   : 	}

  0009d	c2 10 00	 ret	 16			; 00000010H
?CreateInstance@?$CipherShedFactory@VCipherShedFormatCom@@@@UAGJPAUIUnknown@@ABU_GUID@@PAPAX@Z ENDP ; CipherShedFactory<CipherShedFormatCom>::CreateInstance
_TEXT	ENDS
PUBLIC	?clash@Define_the_symbol__ATL_MIXED@@3UThank_you@1@A ; Define_the_symbol__ATL_MIXED::clash
;	COMDAT ?clash@Define_the_symbol__ATL_MIXED@@3UThank_you@1@A
; File c:\program files (x86)\microsoft visual studio 9.0\vc\atlmfc\include\atldef.h
_DATA	SEGMENT
?clash@Define_the_symbol__ATL_MIXED@@3UThank_you@1@A DD FLAT:??_7Thank_you@Define_the_symbol__ATL_MIXED@@6B@ ; Define_the_symbol__ATL_MIXED::clash
_DATA	ENDS
PUBLIC	?clash@Inconsistent_definition_of_symbol__ATL_MIXED@@3U_Please_define_it_the_same_throughout_your_project@1@A ; Inconsistent_definition_of_symbol__ATL_MIXED::clash
;	COMDAT ?clash@Inconsistent_definition_of_symbol__ATL_MIXED@@3U_Please_define_it_the_same_throughout_your_project@1@A
_BSS	SEGMENT
?clash@Inconsistent_definition_of_symbol__ATL_MIXED@@3U_Please_define_it_the_same_throughout_your_project@1@A DB 01H DUP (?) ; Inconsistent_definition_of_symbol__ATL_MIXED::clash
_BSS	ENDS
END
