; Listing generated by Microsoft (R) Optimizing Compiler Version 15.00.30729.207 

include listing.inc

INCLUDELIB OLDNAMES

PUBLIC	sha1_begin
; Function compile flags: /Odtp
; File c:\users\public\desktop\projects\ciphershed\src\crypto\sha1.c
;	COMDAT sha1_begin
_TEXT	SEGMENT
ctx$ = 8
sha1_begin PROC						; COMDAT

; 197  : {

  00000	48 89 4c 24 08	 mov	 QWORD PTR [rsp+8], rcx

; 198  :     ctx->count[0] = ctx->count[1] = 0;

  00005	48 8b 44 24 08	 mov	 rax, QWORD PTR ctx$[rsp]
  0000a	c7 40 04 00 00
	00 00		 mov	 DWORD PTR [rax+4], 0
  00011	48 8b 44 24 08	 mov	 rax, QWORD PTR ctx$[rsp]
  00016	c7 00 00 00 00
	00		 mov	 DWORD PTR [rax], 0

; 199  :     ctx->hash[0] = 0x67452301;

  0001c	48 8b 44 24 08	 mov	 rax, QWORD PTR ctx$[rsp]
  00021	c7 40 08 01 23
	45 67		 mov	 DWORD PTR [rax+8], 1732584193 ; 67452301H

; 200  :     ctx->hash[1] = 0xefcdab89;

  00028	48 8b 44 24 08	 mov	 rax, QWORD PTR ctx$[rsp]
  0002d	c7 40 0c 89 ab
	cd ef		 mov	 DWORD PTR [rax+12], -271733879 ; efcdab89H

; 201  :     ctx->hash[2] = 0x98badcfe;

  00034	48 8b 44 24 08	 mov	 rax, QWORD PTR ctx$[rsp]
  00039	c7 40 10 fe dc
	ba 98		 mov	 DWORD PTR [rax+16], -1732584194 ; 98badcfeH

; 202  :     ctx->hash[3] = 0x10325476;

  00040	48 8b 44 24 08	 mov	 rax, QWORD PTR ctx$[rsp]
  00045	c7 40 14 76 54
	32 10		 mov	 DWORD PTR [rax+20], 271733878 ; 10325476H

; 203  :     ctx->hash[4] = 0xc3d2e1f0;

  0004c	48 8b 44 24 08	 mov	 rax, QWORD PTR ctx$[rsp]
  00051	c7 40 18 f0 e1
	d2 c3		 mov	 DWORD PTR [rax+24], -1009589776 ; c3d2e1f0H

; 204  : }

  00058	c3		 ret	 0
sha1_begin ENDP
_TEXT	ENDS
PUBLIC	sha1_compile
;	COMDAT pdata
pdata	SEGMENT
$pdata$sha1_compile DD imagerel $LN3
	DD	imagerel $LN3+12066
	DD	imagerel $unwind$sha1_compile
pdata	ENDS
;	COMDAT xdata
xdata	SEGMENT
$unwind$sha1_compile DD 010901H
	DD	04209H
; Function compile flags: /Odtp
xdata	ENDS
;	COMDAT sha1_compile
_TEXT	SEGMENT
w$ = 0
v3$ = 8
v1$ = 12
v4$ = 16
v2$ = 20
v0$ = 24
ctx$ = 48
sha1_compile PROC					; COMDAT

; 141  : {   sha1_32t    *w = ctx->wbuf;

$LN3:
  00000	48 89 4c 24 08	 mov	 QWORD PTR [rsp+8], rcx
  00005	48 83 ec 28	 sub	 rsp, 40			; 00000028H
  00009	48 8b 44 24 30	 mov	 rax, QWORD PTR ctx$[rsp]
  0000e	48 83 c0 1c	 add	 rax, 28
  00012	48 89 04 24	 mov	 QWORD PTR w$[rsp], rax

; 142  : 
; 143  : #ifdef ARRAY
; 144  :     sha1_32t    v[5];
; 145  :     memcpy(v, ctx->hash, 5 * sizeof(sha1_32t));
; 146  : #else
; 147  :     sha1_32t    v0, v1, v2, v3, v4;
; 148  :     v0 = ctx->hash[0]; v1 = ctx->hash[1];

  00016	48 8b 44 24 30	 mov	 rax, QWORD PTR ctx$[rsp]
  0001b	8b 40 08	 mov	 eax, DWORD PTR [rax+8]
  0001e	89 44 24 18	 mov	 DWORD PTR v0$[rsp], eax
  00022	48 8b 44 24 30	 mov	 rax, QWORD PTR ctx$[rsp]
  00027	8b 40 0c	 mov	 eax, DWORD PTR [rax+12]
  0002a	89 44 24 0c	 mov	 DWORD PTR v1$[rsp], eax

; 149  :     v2 = ctx->hash[2]; v3 = ctx->hash[3];

  0002e	48 8b 44 24 30	 mov	 rax, QWORD PTR ctx$[rsp]
  00033	8b 40 10	 mov	 eax, DWORD PTR [rax+16]
  00036	89 44 24 14	 mov	 DWORD PTR v2$[rsp], eax
  0003a	48 8b 44 24 30	 mov	 rax, QWORD PTR ctx$[rsp]
  0003f	8b 40 14	 mov	 eax, DWORD PTR [rax+20]
  00042	89 44 24 08	 mov	 DWORD PTR v3$[rsp], eax

; 150  :     v4 = ctx->hash[4];

  00046	48 8b 44 24 30	 mov	 rax, QWORD PTR ctx$[rsp]
  0004b	8b 40 18	 mov	 eax, DWORD PTR [rax+24]
  0004e	89 44 24 10	 mov	 DWORD PTR v4$[rsp], eax

; 151  : #endif
; 152  : 
; 153  : #define hf(i)   w[i]
; 154  : 
; 155  :     five_cycle(v, ch, 0x5a827999,  0);

  00052	8b 54 24 18	 mov	 edx, DWORD PTR v0$[rsp]
  00056	c1 ea 1b	 shr	 edx, 27
  00059	8b 44 24 18	 mov	 eax, DWORD PTR v0$[rsp]
  0005d	c1 e0 05	 shl	 eax, 5
  00060	0b d0		 or	 edx, eax
  00062	8b 4c 24 08	 mov	 ecx, DWORD PTR v3$[rsp]
  00066	8b 44 24 14	 mov	 eax, DWORD PTR v2$[rsp]
  0006a	33 c1		 xor	 eax, ecx
  0006c	8b 4c 24 0c	 mov	 ecx, DWORD PTR v1$[rsp]
  00070	23 c8		 and	 ecx, eax
  00072	8b 44 24 08	 mov	 eax, DWORD PTR v3$[rsp]
  00076	33 c1		 xor	 eax, ecx
  00078	8b ca		 mov	 ecx, edx
  0007a	03 c8		 add	 ecx, eax
  0007c	48 8b 04 24	 mov	 rax, QWORD PTR w$[rsp]
  00080	8b 00		 mov	 eax, DWORD PTR [rax]
  00082	8d 8c 01 99 79
	82 5a		 lea	 ecx, DWORD PTR [rcx+rax+1518500249]
  00089	8b 44 24 10	 mov	 eax, DWORD PTR v4$[rsp]
  0008d	03 c1		 add	 eax, ecx
  0008f	89 44 24 10	 mov	 DWORD PTR v4$[rsp], eax
  00093	8b 44 24 0c	 mov	 eax, DWORD PTR v1$[rsp]
  00097	c1 e8 02	 shr	 eax, 2
  0009a	8b 4c 24 0c	 mov	 ecx, DWORD PTR v1$[rsp]
  0009e	c1 e1 1e	 shl	 ecx, 30
  000a1	0b c1		 or	 eax, ecx
  000a3	89 44 24 0c	 mov	 DWORD PTR v1$[rsp], eax
  000a7	8b 54 24 10	 mov	 edx, DWORD PTR v4$[rsp]
  000ab	c1 ea 1b	 shr	 edx, 27
  000ae	8b 44 24 10	 mov	 eax, DWORD PTR v4$[rsp]
  000b2	c1 e0 05	 shl	 eax, 5
  000b5	0b d0		 or	 edx, eax
  000b7	8b 4c 24 14	 mov	 ecx, DWORD PTR v2$[rsp]
  000bb	8b 44 24 0c	 mov	 eax, DWORD PTR v1$[rsp]
  000bf	33 c1		 xor	 eax, ecx
  000c1	8b 4c 24 18	 mov	 ecx, DWORD PTR v0$[rsp]
  000c5	23 c8		 and	 ecx, eax
  000c7	8b 44 24 14	 mov	 eax, DWORD PTR v2$[rsp]
  000cb	33 c1		 xor	 eax, ecx
  000cd	8b ca		 mov	 ecx, edx
  000cf	03 c8		 add	 ecx, eax
  000d1	48 8b 04 24	 mov	 rax, QWORD PTR w$[rsp]
  000d5	8b 40 04	 mov	 eax, DWORD PTR [rax+4]
  000d8	8d 8c 01 99 79
	82 5a		 lea	 ecx, DWORD PTR [rcx+rax+1518500249]
  000df	8b 44 24 08	 mov	 eax, DWORD PTR v3$[rsp]
  000e3	03 c1		 add	 eax, ecx
  000e5	89 44 24 08	 mov	 DWORD PTR v3$[rsp], eax
  000e9	8b 44 24 18	 mov	 eax, DWORD PTR v0$[rsp]
  000ed	c1 e8 02	 shr	 eax, 2
  000f0	8b 4c 24 18	 mov	 ecx, DWORD PTR v0$[rsp]
  000f4	c1 e1 1e	 shl	 ecx, 30
  000f7	0b c1		 or	 eax, ecx
  000f9	89 44 24 18	 mov	 DWORD PTR v0$[rsp], eax
  000fd	8b 54 24 08	 mov	 edx, DWORD PTR v3$[rsp]
  00101	c1 ea 1b	 shr	 edx, 27
  00104	8b 44 24 08	 mov	 eax, DWORD PTR v3$[rsp]
  00108	c1 e0 05	 shl	 eax, 5
  0010b	0b d0		 or	 edx, eax
  0010d	8b 4c 24 0c	 mov	 ecx, DWORD PTR v1$[rsp]
  00111	8b 44 24 18	 mov	 eax, DWORD PTR v0$[rsp]
  00115	33 c1		 xor	 eax, ecx
  00117	8b 4c 24 10	 mov	 ecx, DWORD PTR v4$[rsp]
  0011b	23 c8		 and	 ecx, eax
  0011d	8b 44 24 0c	 mov	 eax, DWORD PTR v1$[rsp]
  00121	33 c1		 xor	 eax, ecx
  00123	8b ca		 mov	 ecx, edx
  00125	03 c8		 add	 ecx, eax
  00127	48 8b 04 24	 mov	 rax, QWORD PTR w$[rsp]
  0012b	8b 40 08	 mov	 eax, DWORD PTR [rax+8]
  0012e	8d 8c 01 99 79
	82 5a		 lea	 ecx, DWORD PTR [rcx+rax+1518500249]
  00135	8b 44 24 14	 mov	 eax, DWORD PTR v2$[rsp]
  00139	03 c1		 add	 eax, ecx
  0013b	89 44 24 14	 mov	 DWORD PTR v2$[rsp], eax
  0013f	8b 44 24 10	 mov	 eax, DWORD PTR v4$[rsp]
  00143	c1 e8 02	 shr	 eax, 2
  00146	8b 4c 24 10	 mov	 ecx, DWORD PTR v4$[rsp]
  0014a	c1 e1 1e	 shl	 ecx, 30
  0014d	0b c1		 or	 eax, ecx
  0014f	89 44 24 10	 mov	 DWORD PTR v4$[rsp], eax
  00153	8b 54 24 14	 mov	 edx, DWORD PTR v2$[rsp]
  00157	c1 ea 1b	 shr	 edx, 27
  0015a	8b 44 24 14	 mov	 eax, DWORD PTR v2$[rsp]
  0015e	c1 e0 05	 shl	 eax, 5
  00161	0b d0		 or	 edx, eax
  00163	8b 4c 24 18	 mov	 ecx, DWORD PTR v0$[rsp]
  00167	8b 44 24 10	 mov	 eax, DWORD PTR v4$[rsp]
  0016b	33 c1		 xor	 eax, ecx
  0016d	8b 4c 24 08	 mov	 ecx, DWORD PTR v3$[rsp]
  00171	23 c8		 and	 ecx, eax
  00173	8b 44 24 18	 mov	 eax, DWORD PTR v0$[rsp]
  00177	33 c1		 xor	 eax, ecx
  00179	8b ca		 mov	 ecx, edx
  0017b	03 c8		 add	 ecx, eax
  0017d	48 8b 04 24	 mov	 rax, QWORD PTR w$[rsp]
  00181	8b 40 0c	 mov	 eax, DWORD PTR [rax+12]
  00184	8d 8c 01 99 79
	82 5a		 lea	 ecx, DWORD PTR [rcx+rax+1518500249]
  0018b	8b 44 24 0c	 mov	 eax, DWORD PTR v1$[rsp]
  0018f	03 c1		 add	 eax, ecx
  00191	89 44 24 0c	 mov	 DWORD PTR v1$[rsp], eax
  00195	8b 44 24 08	 mov	 eax, DWORD PTR v3$[rsp]
  00199	c1 e8 02	 shr	 eax, 2
  0019c	8b 4c 24 08	 mov	 ecx, DWORD PTR v3$[rsp]
  001a0	c1 e1 1e	 shl	 ecx, 30
  001a3	0b c1		 or	 eax, ecx
  001a5	89 44 24 08	 mov	 DWORD PTR v3$[rsp], eax
  001a9	8b 54 24 0c	 mov	 edx, DWORD PTR v1$[rsp]
  001ad	c1 ea 1b	 shr	 edx, 27
  001b0	8b 44 24 0c	 mov	 eax, DWORD PTR v1$[rsp]
  001b4	c1 e0 05	 shl	 eax, 5
  001b7	0b d0		 or	 edx, eax
  001b9	8b 4c 24 10	 mov	 ecx, DWORD PTR v4$[rsp]
  001bd	8b 44 24 08	 mov	 eax, DWORD PTR v3$[rsp]
  001c1	33 c1		 xor	 eax, ecx
  001c3	8b 4c 24 14	 mov	 ecx, DWORD PTR v2$[rsp]
  001c7	23 c8		 and	 ecx, eax
  001c9	8b 44 24 10	 mov	 eax, DWORD PTR v4$[rsp]
  001cd	33 c1		 xor	 eax, ecx
  001cf	8b ca		 mov	 ecx, edx
  001d1	03 c8		 add	 ecx, eax
  001d3	48 8b 04 24	 mov	 rax, QWORD PTR w$[rsp]
  001d7	8b 40 10	 mov	 eax, DWORD PTR [rax+16]
  001da	8d 8c 01 99 79
	82 5a		 lea	 ecx, DWORD PTR [rcx+rax+1518500249]
  001e1	8b 44 24 18	 mov	 eax, DWORD PTR v0$[rsp]
  001e5	03 c1		 add	 eax, ecx
  001e7	89 44 24 18	 mov	 DWORD PTR v0$[rsp], eax
  001eb	8b 44 24 14	 mov	 eax, DWORD PTR v2$[rsp]
  001ef	c1 e8 02	 shr	 eax, 2
  001f2	8b 4c 24 14	 mov	 ecx, DWORD PTR v2$[rsp]
  001f6	c1 e1 1e	 shl	 ecx, 30
  001f9	0b c1		 or	 eax, ecx
  001fb	89 44 24 14	 mov	 DWORD PTR v2$[rsp], eax

; 156  :     five_cycle(v, ch, 0x5a827999,  5);

  001ff	8b 54 24 18	 mov	 edx, DWORD PTR v0$[rsp]
  00203	c1 ea 1b	 shr	 edx, 27
  00206	8b 44 24 18	 mov	 eax, DWORD PTR v0$[rsp]
  0020a	c1 e0 05	 shl	 eax, 5
  0020d	0b d0		 or	 edx, eax
  0020f	8b 4c 24 08	 mov	 ecx, DWORD PTR v3$[rsp]
  00213	8b 44 24 14	 mov	 eax, DWORD PTR v2$[rsp]
  00217	33 c1		 xor	 eax, ecx
  00219	8b 4c 24 0c	 mov	 ecx, DWORD PTR v1$[rsp]
  0021d	23 c8		 and	 ecx, eax
  0021f	8b 44 24 08	 mov	 eax, DWORD PTR v3$[rsp]
  00223	33 c1		 xor	 eax, ecx
  00225	8b ca		 mov	 ecx, edx
  00227	03 c8		 add	 ecx, eax
  00229	48 8b 04 24	 mov	 rax, QWORD PTR w$[rsp]
  0022d	8b 40 14	 mov	 eax, DWORD PTR [rax+20]
  00230	8d 8c 01 99 79
	82 5a		 lea	 ecx, DWORD PTR [rcx+rax+1518500249]
  00237	8b 44 24 10	 mov	 eax, DWORD PTR v4$[rsp]
  0023b	03 c1		 add	 eax, ecx
  0023d	89 44 24 10	 mov	 DWORD PTR v4$[rsp], eax
  00241	8b 44 24 0c	 mov	 eax, DWORD PTR v1$[rsp]
  00245	c1 e8 02	 shr	 eax, 2
  00248	8b 4c 24 0c	 mov	 ecx, DWORD PTR v1$[rsp]
  0024c	c1 e1 1e	 shl	 ecx, 30
  0024f	0b c1		 or	 eax, ecx
  00251	89 44 24 0c	 mov	 DWORD PTR v1$[rsp], eax
  00255	8b 54 24 10	 mov	 edx, DWORD PTR v4$[rsp]
  00259	c1 ea 1b	 shr	 edx, 27
  0025c	8b 44 24 10	 mov	 eax, DWORD PTR v4$[rsp]
  00260	c1 e0 05	 shl	 eax, 5
  00263	0b d0		 or	 edx, eax
  00265	8b 4c 24 14	 mov	 ecx, DWORD PTR v2$[rsp]
  00269	8b 44 24 0c	 mov	 eax, DWORD PTR v1$[rsp]
  0026d	33 c1		 xor	 eax, ecx
  0026f	8b 4c 24 18	 mov	 ecx, DWORD PTR v0$[rsp]
  00273	23 c8		 and	 ecx, eax
  00275	8b 44 24 14	 mov	 eax, DWORD PTR v2$[rsp]
  00279	33 c1		 xor	 eax, ecx
  0027b	8b ca		 mov	 ecx, edx
  0027d	03 c8		 add	 ecx, eax
  0027f	48 8b 04 24	 mov	 rax, QWORD PTR w$[rsp]
  00283	8b 40 18	 mov	 eax, DWORD PTR [rax+24]
  00286	8d 8c 01 99 79
	82 5a		 lea	 ecx, DWORD PTR [rcx+rax+1518500249]
  0028d	8b 44 24 08	 mov	 eax, DWORD PTR v3$[rsp]
  00291	03 c1		 add	 eax, ecx
  00293	89 44 24 08	 mov	 DWORD PTR v3$[rsp], eax
  00297	8b 44 24 18	 mov	 eax, DWORD PTR v0$[rsp]
  0029b	c1 e8 02	 shr	 eax, 2
  0029e	8b 4c 24 18	 mov	 ecx, DWORD PTR v0$[rsp]
  002a2	c1 e1 1e	 shl	 ecx, 30
  002a5	0b c1		 or	 eax, ecx
  002a7	89 44 24 18	 mov	 DWORD PTR v0$[rsp], eax
  002ab	8b 54 24 08	 mov	 edx, DWORD PTR v3$[rsp]
  002af	c1 ea 1b	 shr	 edx, 27
  002b2	8b 44 24 08	 mov	 eax, DWORD PTR v3$[rsp]
  002b6	c1 e0 05	 shl	 eax, 5
  002b9	0b d0		 or	 edx, eax
  002bb	8b 4c 24 0c	 mov	 ecx, DWORD PTR v1$[rsp]
  002bf	8b 44 24 18	 mov	 eax, DWORD PTR v0$[rsp]
  002c3	33 c1		 xor	 eax, ecx
  002c5	8b 4c 24 10	 mov	 ecx, DWORD PTR v4$[rsp]
  002c9	23 c8		 and	 ecx, eax
  002cb	8b 44 24 0c	 mov	 eax, DWORD PTR v1$[rsp]
  002cf	33 c1		 xor	 eax, ecx
  002d1	8b ca		 mov	 ecx, edx
  002d3	03 c8		 add	 ecx, eax
  002d5	48 8b 04 24	 mov	 rax, QWORD PTR w$[rsp]
  002d9	8b 40 1c	 mov	 eax, DWORD PTR [rax+28]
  002dc	8d 8c 01 99 79
	82 5a		 lea	 ecx, DWORD PTR [rcx+rax+1518500249]
  002e3	8b 44 24 14	 mov	 eax, DWORD PTR v2$[rsp]
  002e7	03 c1		 add	 eax, ecx
  002e9	89 44 24 14	 mov	 DWORD PTR v2$[rsp], eax
  002ed	8b 44 24 10	 mov	 eax, DWORD PTR v4$[rsp]
  002f1	c1 e8 02	 shr	 eax, 2
  002f4	8b 4c 24 10	 mov	 ecx, DWORD PTR v4$[rsp]
  002f8	c1 e1 1e	 shl	 ecx, 30
  002fb	0b c1		 or	 eax, ecx
  002fd	89 44 24 10	 mov	 DWORD PTR v4$[rsp], eax
  00301	8b 54 24 14	 mov	 edx, DWORD PTR v2$[rsp]
  00305	c1 ea 1b	 shr	 edx, 27
  00308	8b 44 24 14	 mov	 eax, DWORD PTR v2$[rsp]
  0030c	c1 e0 05	 shl	 eax, 5
  0030f	0b d0		 or	 edx, eax
  00311	8b 4c 24 18	 mov	 ecx, DWORD PTR v0$[rsp]
  00315	8b 44 24 10	 mov	 eax, DWORD PTR v4$[rsp]
  00319	33 c1		 xor	 eax, ecx
  0031b	8b 4c 24 08	 mov	 ecx, DWORD PTR v3$[rsp]
  0031f	23 c8		 and	 ecx, eax
  00321	8b 44 24 18	 mov	 eax, DWORD PTR v0$[rsp]
  00325	33 c1		 xor	 eax, ecx
  00327	8b ca		 mov	 ecx, edx
  00329	03 c8		 add	 ecx, eax
  0032b	48 8b 04 24	 mov	 rax, QWORD PTR w$[rsp]
  0032f	8b 40 20	 mov	 eax, DWORD PTR [rax+32]
  00332	8d 8c 01 99 79
	82 5a		 lea	 ecx, DWORD PTR [rcx+rax+1518500249]
  00339	8b 44 24 0c	 mov	 eax, DWORD PTR v1$[rsp]
  0033d	03 c1		 add	 eax, ecx
  0033f	89 44 24 0c	 mov	 DWORD PTR v1$[rsp], eax
  00343	8b 44 24 08	 mov	 eax, DWORD PTR v3$[rsp]
  00347	c1 e8 02	 shr	 eax, 2
  0034a	8b 4c 24 08	 mov	 ecx, DWORD PTR v3$[rsp]
  0034e	c1 e1 1e	 shl	 ecx, 30
  00351	0b c1		 or	 eax, ecx
  00353	89 44 24 08	 mov	 DWORD PTR v3$[rsp], eax
  00357	8b 54 24 0c	 mov	 edx, DWORD PTR v1$[rsp]
  0035b	c1 ea 1b	 shr	 edx, 27
  0035e	8b 44 24 0c	 mov	 eax, DWORD PTR v1$[rsp]
  00362	c1 e0 05	 shl	 eax, 5
  00365	0b d0		 or	 edx, eax
  00367	8b 4c 24 10	 mov	 ecx, DWORD PTR v4$[rsp]
  0036b	8b 44 24 08	 mov	 eax, DWORD PTR v3$[rsp]
  0036f	33 c1		 xor	 eax, ecx
  00371	8b 4c 24 14	 mov	 ecx, DWORD PTR v2$[rsp]
  00375	23 c8		 and	 ecx, eax
  00377	8b 44 24 10	 mov	 eax, DWORD PTR v4$[rsp]
  0037b	33 c1		 xor	 eax, ecx
  0037d	8b ca		 mov	 ecx, edx
  0037f	03 c8		 add	 ecx, eax
  00381	48 8b 04 24	 mov	 rax, QWORD PTR w$[rsp]
  00385	8b 40 24	 mov	 eax, DWORD PTR [rax+36]
  00388	8d 8c 01 99 79
	82 5a		 lea	 ecx, DWORD PTR [rcx+rax+1518500249]
  0038f	8b 44 24 18	 mov	 eax, DWORD PTR v0$[rsp]
  00393	03 c1		 add	 eax, ecx
  00395	89 44 24 18	 mov	 DWORD PTR v0$[rsp], eax
  00399	8b 44 24 14	 mov	 eax, DWORD PTR v2$[rsp]
  0039d	c1 e8 02	 shr	 eax, 2
  003a0	8b 4c 24 14	 mov	 ecx, DWORD PTR v2$[rsp]
  003a4	c1 e1 1e	 shl	 ecx, 30
  003a7	0b c1		 or	 eax, ecx
  003a9	89 44 24 14	 mov	 DWORD PTR v2$[rsp], eax

; 157  :     five_cycle(v, ch, 0x5a827999, 10);

  003ad	8b 54 24 18	 mov	 edx, DWORD PTR v0$[rsp]
  003b1	c1 ea 1b	 shr	 edx, 27
  003b4	8b 44 24 18	 mov	 eax, DWORD PTR v0$[rsp]
  003b8	c1 e0 05	 shl	 eax, 5
  003bb	0b d0		 or	 edx, eax
  003bd	8b 4c 24 08	 mov	 ecx, DWORD PTR v3$[rsp]
  003c1	8b 44 24 14	 mov	 eax, DWORD PTR v2$[rsp]
  003c5	33 c1		 xor	 eax, ecx
  003c7	8b 4c 24 0c	 mov	 ecx, DWORD PTR v1$[rsp]
  003cb	23 c8		 and	 ecx, eax
  003cd	8b 44 24 08	 mov	 eax, DWORD PTR v3$[rsp]
  003d1	33 c1		 xor	 eax, ecx
  003d3	8b ca		 mov	 ecx, edx
  003d5	03 c8		 add	 ecx, eax
  003d7	48 8b 04 24	 mov	 rax, QWORD PTR w$[rsp]
  003db	8b 40 28	 mov	 eax, DWORD PTR [rax+40]
  003de	8d 8c 01 99 79
	82 5a		 lea	 ecx, DWORD PTR [rcx+rax+1518500249]
  003e5	8b 44 24 10	 mov	 eax, DWORD PTR v4$[rsp]
  003e9	03 c1		 add	 eax, ecx
  003eb	89 44 24 10	 mov	 DWORD PTR v4$[rsp], eax
  003ef	8b 44 24 0c	 mov	 eax, DWORD PTR v1$[rsp]
  003f3	c1 e8 02	 shr	 eax, 2
  003f6	8b 4c 24 0c	 mov	 ecx, DWORD PTR v1$[rsp]
  003fa	c1 e1 1e	 shl	 ecx, 30
  003fd	0b c1		 or	 eax, ecx
  003ff	89 44 24 0c	 mov	 DWORD PTR v1$[rsp], eax
  00403	8b 54 24 10	 mov	 edx, DWORD PTR v4$[rsp]
  00407	c1 ea 1b	 shr	 edx, 27
  0040a	8b 44 24 10	 mov	 eax, DWORD PTR v4$[rsp]
  0040e	c1 e0 05	 shl	 eax, 5
  00411	0b d0		 or	 edx, eax
  00413	8b 4c 24 14	 mov	 ecx, DWORD PTR v2$[rsp]
  00417	8b 44 24 0c	 mov	 eax, DWORD PTR v1$[rsp]
  0041b	33 c1		 xor	 eax, ecx
  0041d	8b 4c 24 18	 mov	 ecx, DWORD PTR v0$[rsp]
  00421	23 c8		 and	 ecx, eax
  00423	8b 44 24 14	 mov	 eax, DWORD PTR v2$[rsp]
  00427	33 c1		 xor	 eax, ecx
  00429	8b ca		 mov	 ecx, edx
  0042b	03 c8		 add	 ecx, eax
  0042d	48 8b 04 24	 mov	 rax, QWORD PTR w$[rsp]
  00431	8b 40 2c	 mov	 eax, DWORD PTR [rax+44]
  00434	8d 8c 01 99 79
	82 5a		 lea	 ecx, DWORD PTR [rcx+rax+1518500249]
  0043b	8b 44 24 08	 mov	 eax, DWORD PTR v3$[rsp]
  0043f	03 c1		 add	 eax, ecx
  00441	89 44 24 08	 mov	 DWORD PTR v3$[rsp], eax
  00445	8b 44 24 18	 mov	 eax, DWORD PTR v0$[rsp]
  00449	c1 e8 02	 shr	 eax, 2
  0044c	8b 4c 24 18	 mov	 ecx, DWORD PTR v0$[rsp]
  00450	c1 e1 1e	 shl	 ecx, 30
  00453	0b c1		 or	 eax, ecx
  00455	89 44 24 18	 mov	 DWORD PTR v0$[rsp], eax
  00459	8b 54 24 08	 mov	 edx, DWORD PTR v3$[rsp]
  0045d	c1 ea 1b	 shr	 edx, 27
  00460	8b 44 24 08	 mov	 eax, DWORD PTR v3$[rsp]
  00464	c1 e0 05	 shl	 eax, 5
  00467	0b d0		 or	 edx, eax
  00469	8b 4c 24 0c	 mov	 ecx, DWORD PTR v1$[rsp]
  0046d	8b 44 24 18	 mov	 eax, DWORD PTR v0$[rsp]
  00471	33 c1		 xor	 eax, ecx
  00473	8b 4c 24 10	 mov	 ecx, DWORD PTR v4$[rsp]
  00477	23 c8		 and	 ecx, eax
  00479	8b 44 24 0c	 mov	 eax, DWORD PTR v1$[rsp]
  0047d	33 c1		 xor	 eax, ecx
  0047f	8b ca		 mov	 ecx, edx
  00481	03 c8		 add	 ecx, eax
  00483	48 8b 04 24	 mov	 rax, QWORD PTR w$[rsp]
  00487	8b 40 30	 mov	 eax, DWORD PTR [rax+48]
  0048a	8d 8c 01 99 79
	82 5a		 lea	 ecx, DWORD PTR [rcx+rax+1518500249]
  00491	8b 44 24 14	 mov	 eax, DWORD PTR v2$[rsp]
  00495	03 c1		 add	 eax, ecx
  00497	89 44 24 14	 mov	 DWORD PTR v2$[rsp], eax
  0049b	8b 44 24 10	 mov	 eax, DWORD PTR v4$[rsp]
  0049f	c1 e8 02	 shr	 eax, 2
  004a2	8b 4c 24 10	 mov	 ecx, DWORD PTR v4$[rsp]
  004a6	c1 e1 1e	 shl	 ecx, 30
  004a9	0b c1		 or	 eax, ecx
  004ab	89 44 24 10	 mov	 DWORD PTR v4$[rsp], eax
  004af	8b 54 24 14	 mov	 edx, DWORD PTR v2$[rsp]
  004b3	c1 ea 1b	 shr	 edx, 27
  004b6	8b 44 24 14	 mov	 eax, DWORD PTR v2$[rsp]
  004ba	c1 e0 05	 shl	 eax, 5
  004bd	0b d0		 or	 edx, eax
  004bf	8b 4c 24 18	 mov	 ecx, DWORD PTR v0$[rsp]
  004c3	8b 44 24 10	 mov	 eax, DWORD PTR v4$[rsp]
  004c7	33 c1		 xor	 eax, ecx
  004c9	8b 4c 24 08	 mov	 ecx, DWORD PTR v3$[rsp]
  004cd	23 c8		 and	 ecx, eax
  004cf	8b 44 24 18	 mov	 eax, DWORD PTR v0$[rsp]
  004d3	33 c1		 xor	 eax, ecx
  004d5	8b ca		 mov	 ecx, edx
  004d7	03 c8		 add	 ecx, eax
  004d9	48 8b 04 24	 mov	 rax, QWORD PTR w$[rsp]
  004dd	8b 40 34	 mov	 eax, DWORD PTR [rax+52]
  004e0	8d 8c 01 99 79
	82 5a		 lea	 ecx, DWORD PTR [rcx+rax+1518500249]
  004e7	8b 44 24 0c	 mov	 eax, DWORD PTR v1$[rsp]
  004eb	03 c1		 add	 eax, ecx
  004ed	89 44 24 0c	 mov	 DWORD PTR v1$[rsp], eax
  004f1	8b 44 24 08	 mov	 eax, DWORD PTR v3$[rsp]
  004f5	c1 e8 02	 shr	 eax, 2
  004f8	8b 4c 24 08	 mov	 ecx, DWORD PTR v3$[rsp]
  004fc	c1 e1 1e	 shl	 ecx, 30
  004ff	0b c1		 or	 eax, ecx
  00501	89 44 24 08	 mov	 DWORD PTR v3$[rsp], eax
  00505	8b 54 24 0c	 mov	 edx, DWORD PTR v1$[rsp]
  00509	c1 ea 1b	 shr	 edx, 27
  0050c	8b 44 24 0c	 mov	 eax, DWORD PTR v1$[rsp]
  00510	c1 e0 05	 shl	 eax, 5
  00513	0b d0		 or	 edx, eax
  00515	8b 4c 24 10	 mov	 ecx, DWORD PTR v4$[rsp]
  00519	8b 44 24 08	 mov	 eax, DWORD PTR v3$[rsp]
  0051d	33 c1		 xor	 eax, ecx
  0051f	8b 4c 24 14	 mov	 ecx, DWORD PTR v2$[rsp]
  00523	23 c8		 and	 ecx, eax
  00525	8b 44 24 10	 mov	 eax, DWORD PTR v4$[rsp]
  00529	33 c1		 xor	 eax, ecx
  0052b	8b ca		 mov	 ecx, edx
  0052d	03 c8		 add	 ecx, eax
  0052f	48 8b 04 24	 mov	 rax, QWORD PTR w$[rsp]
  00533	8b 40 38	 mov	 eax, DWORD PTR [rax+56]
  00536	8d 8c 01 99 79
	82 5a		 lea	 ecx, DWORD PTR [rcx+rax+1518500249]
  0053d	8b 44 24 18	 mov	 eax, DWORD PTR v0$[rsp]
  00541	03 c1		 add	 eax, ecx
  00543	89 44 24 18	 mov	 DWORD PTR v0$[rsp], eax
  00547	8b 44 24 14	 mov	 eax, DWORD PTR v2$[rsp]
  0054b	c1 e8 02	 shr	 eax, 2
  0054e	8b 4c 24 14	 mov	 ecx, DWORD PTR v2$[rsp]
  00552	c1 e1 1e	 shl	 ecx, 30
  00555	0b c1		 or	 eax, ecx
  00557	89 44 24 14	 mov	 DWORD PTR v2$[rsp], eax

; 158  :     one_cycle(v,0,1,2,3,4, ch, 0x5a827999, hf(15)); \

  0055b	8b 54 24 18	 mov	 edx, DWORD PTR v0$[rsp]
  0055f	c1 ea 1b	 shr	 edx, 27
  00562	8b 44 24 18	 mov	 eax, DWORD PTR v0$[rsp]
  00566	c1 e0 05	 shl	 eax, 5
  00569	0b d0		 or	 edx, eax
  0056b	8b 4c 24 08	 mov	 ecx, DWORD PTR v3$[rsp]
  0056f	8b 44 24 14	 mov	 eax, DWORD PTR v2$[rsp]
  00573	33 c1		 xor	 eax, ecx
  00575	8b 4c 24 0c	 mov	 ecx, DWORD PTR v1$[rsp]
  00579	23 c8		 and	 ecx, eax
  0057b	8b 44 24 08	 mov	 eax, DWORD PTR v3$[rsp]
  0057f	33 c1		 xor	 eax, ecx
  00581	8b ca		 mov	 ecx, edx
  00583	03 c8		 add	 ecx, eax
  00585	48 8b 04 24	 mov	 rax, QWORD PTR w$[rsp]
  00589	8b 40 3c	 mov	 eax, DWORD PTR [rax+60]
  0058c	8d 8c 01 99 79
	82 5a		 lea	 ecx, DWORD PTR [rcx+rax+1518500249]
  00593	8b 44 24 10	 mov	 eax, DWORD PTR v4$[rsp]
  00597	03 c1		 add	 eax, ecx
  00599	89 44 24 10	 mov	 DWORD PTR v4$[rsp], eax
  0059d	8b 44 24 0c	 mov	 eax, DWORD PTR v1$[rsp]
  005a1	c1 e8 02	 shr	 eax, 2
  005a4	8b 4c 24 0c	 mov	 ecx, DWORD PTR v1$[rsp]
  005a8	c1 e1 1e	 shl	 ecx, 30
  005ab	0b c1		 or	 eax, ecx
  005ad	89 44 24 0c	 mov	 DWORD PTR v1$[rsp], eax

; 159  : 
; 160  : #undef  hf
; 161  : #define hf(i) (w[(i) & 15] = rotl32(                    \
; 162  :                  w[((i) + 13) & 15] ^ w[((i) + 8) & 15] \
; 163  :                ^ w[((i) +  2) & 15] ^ w[(i) & 15], 1))
; 164  : 
; 165  :     one_cycle(v,4,0,1,2,3, ch, 0x5a827999, hf(16));

  005b1	48 8b 0c 24	 mov	 rcx, QWORD PTR w$[rsp]
  005b5	48 8b 04 24	 mov	 rax, QWORD PTR w$[rsp]
  005b9	8b 40 20	 mov	 eax, DWORD PTR [rax+32]
  005bc	44 8b 41 34	 mov	 r8d, DWORD PTR [rcx+52]
  005c0	44 33 c0	 xor	 r8d, eax
  005c3	48 8b 04 24	 mov	 rax, QWORD PTR w$[rsp]
  005c7	44 33 40 08	 xor	 r8d, DWORD PTR [rax+8]
  005cb	48 8b 04 24	 mov	 rax, QWORD PTR w$[rsp]
  005cf	44 33 00	 xor	 r8d, DWORD PTR [rax]
  005d2	41 d1 e0	 shl	 r8d, 1
  005d5	48 8b 14 24	 mov	 rdx, QWORD PTR w$[rsp]
  005d9	48 8b 04 24	 mov	 rax, QWORD PTR w$[rsp]
  005dd	8b 48 20	 mov	 ecx, DWORD PTR [rax+32]
  005e0	8b 42 34	 mov	 eax, DWORD PTR [rdx+52]
  005e3	33 c1		 xor	 eax, ecx
  005e5	48 8b 0c 24	 mov	 rcx, QWORD PTR w$[rsp]
  005e9	33 41 08	 xor	 eax, DWORD PTR [rcx+8]
  005ec	48 8b 0c 24	 mov	 rcx, QWORD PTR w$[rsp]
  005f0	33 01		 xor	 eax, DWORD PTR [rcx]
  005f2	c1 e8 1f	 shr	 eax, 31
  005f5	41 8b c8	 mov	 ecx, r8d
  005f8	0b c8		 or	 ecx, eax
  005fa	48 8b 04 24	 mov	 rax, QWORD PTR w$[rsp]
  005fe	89 08		 mov	 DWORD PTR [rax], ecx
  00600	8b 44 24 14	 mov	 eax, DWORD PTR v2$[rsp]
  00604	8b 4c 24 0c	 mov	 ecx, DWORD PTR v1$[rsp]
  00608	33 c8		 xor	 ecx, eax
  0060a	8b 44 24 18	 mov	 eax, DWORD PTR v0$[rsp]
  0060e	23 c1		 and	 eax, ecx
  00610	8b 54 24 14	 mov	 edx, DWORD PTR v2$[rsp]
  00614	33 d0		 xor	 edx, eax
  00616	8b 44 24 10	 mov	 eax, DWORD PTR v4$[rsp]
  0061a	c1 e0 05	 shl	 eax, 5
  0061d	8b 4c 24 10	 mov	 ecx, DWORD PTR v4$[rsp]
  00621	c1 e9 1b	 shr	 ecx, 27
  00624	0b c8		 or	 ecx, eax
  00626	03 ca		 add	 ecx, edx
  00628	48 8b 04 24	 mov	 rax, QWORD PTR w$[rsp]
  0062c	8b 00		 mov	 eax, DWORD PTR [rax]
  0062e	8d 8c 01 99 79
	82 5a		 lea	 ecx, DWORD PTR [rcx+rax+1518500249]
  00635	8b 44 24 08	 mov	 eax, DWORD PTR v3$[rsp]
  00639	03 c1		 add	 eax, ecx
  0063b	89 44 24 08	 mov	 DWORD PTR v3$[rsp], eax
  0063f	8b 44 24 18	 mov	 eax, DWORD PTR v0$[rsp]
  00643	c1 e8 02	 shr	 eax, 2
  00646	8b 4c 24 18	 mov	 ecx, DWORD PTR v0$[rsp]
  0064a	c1 e1 1e	 shl	 ecx, 30
  0064d	0b c1		 or	 eax, ecx
  0064f	89 44 24 18	 mov	 DWORD PTR v0$[rsp], eax

; 166  :     one_cycle(v,3,4,0,1,2, ch, 0x5a827999, hf(17));

  00653	48 8b 0c 24	 mov	 rcx, QWORD PTR w$[rsp]
  00657	48 8b 04 24	 mov	 rax, QWORD PTR w$[rsp]
  0065b	8b 40 24	 mov	 eax, DWORD PTR [rax+36]
  0065e	44 8b 41 38	 mov	 r8d, DWORD PTR [rcx+56]
  00662	44 33 c0	 xor	 r8d, eax
  00665	48 8b 04 24	 mov	 rax, QWORD PTR w$[rsp]
  00669	44 33 40 0c	 xor	 r8d, DWORD PTR [rax+12]
  0066d	48 8b 04 24	 mov	 rax, QWORD PTR w$[rsp]
  00671	44 33 40 04	 xor	 r8d, DWORD PTR [rax+4]
  00675	41 d1 e0	 shl	 r8d, 1
  00678	48 8b 14 24	 mov	 rdx, QWORD PTR w$[rsp]
  0067c	48 8b 04 24	 mov	 rax, QWORD PTR w$[rsp]
  00680	8b 48 24	 mov	 ecx, DWORD PTR [rax+36]
  00683	8b 42 38	 mov	 eax, DWORD PTR [rdx+56]
  00686	33 c1		 xor	 eax, ecx
  00688	48 8b 0c 24	 mov	 rcx, QWORD PTR w$[rsp]
  0068c	33 41 0c	 xor	 eax, DWORD PTR [rcx+12]
  0068f	48 8b 0c 24	 mov	 rcx, QWORD PTR w$[rsp]
  00693	33 41 04	 xor	 eax, DWORD PTR [rcx+4]
  00696	c1 e8 1f	 shr	 eax, 31
  00699	41 8b c8	 mov	 ecx, r8d
  0069c	0b c8		 or	 ecx, eax
  0069e	48 8b 04 24	 mov	 rax, QWORD PTR w$[rsp]
  006a2	89 48 04	 mov	 DWORD PTR [rax+4], ecx
  006a5	8b 44 24 0c	 mov	 eax, DWORD PTR v1$[rsp]
  006a9	8b 4c 24 18	 mov	 ecx, DWORD PTR v0$[rsp]
  006ad	33 c8		 xor	 ecx, eax
  006af	8b 44 24 10	 mov	 eax, DWORD PTR v4$[rsp]
  006b3	23 c1		 and	 eax, ecx
  006b5	8b 54 24 0c	 mov	 edx, DWORD PTR v1$[rsp]
  006b9	33 d0		 xor	 edx, eax
  006bb	8b 44 24 08	 mov	 eax, DWORD PTR v3$[rsp]
  006bf	c1 e0 05	 shl	 eax, 5
  006c2	8b 4c 24 08	 mov	 ecx, DWORD PTR v3$[rsp]
  006c6	c1 e9 1b	 shr	 ecx, 27
  006c9	0b c8		 or	 ecx, eax
  006cb	03 ca		 add	 ecx, edx
  006cd	48 8b 04 24	 mov	 rax, QWORD PTR w$[rsp]
  006d1	8b 40 04	 mov	 eax, DWORD PTR [rax+4]
  006d4	8d 8c 01 99 79
	82 5a		 lea	 ecx, DWORD PTR [rcx+rax+1518500249]
  006db	8b 44 24 14	 mov	 eax, DWORD PTR v2$[rsp]
  006df	03 c1		 add	 eax, ecx
  006e1	89 44 24 14	 mov	 DWORD PTR v2$[rsp], eax
  006e5	8b 44 24 10	 mov	 eax, DWORD PTR v4$[rsp]
  006e9	c1 e8 02	 shr	 eax, 2
  006ec	8b 4c 24 10	 mov	 ecx, DWORD PTR v4$[rsp]
  006f0	c1 e1 1e	 shl	 ecx, 30
  006f3	0b c1		 or	 eax, ecx
  006f5	89 44 24 10	 mov	 DWORD PTR v4$[rsp], eax

; 167  :     one_cycle(v,2,3,4,0,1, ch, 0x5a827999, hf(18));

  006f9	48 8b 0c 24	 mov	 rcx, QWORD PTR w$[rsp]
  006fd	48 8b 04 24	 mov	 rax, QWORD PTR w$[rsp]
  00701	8b 40 28	 mov	 eax, DWORD PTR [rax+40]
  00704	44 8b 41 3c	 mov	 r8d, DWORD PTR [rcx+60]
  00708	44 33 c0	 xor	 r8d, eax
  0070b	48 8b 04 24	 mov	 rax, QWORD PTR w$[rsp]
  0070f	44 33 40 10	 xor	 r8d, DWORD PTR [rax+16]
  00713	48 8b 04 24	 mov	 rax, QWORD PTR w$[rsp]
  00717	44 33 40 08	 xor	 r8d, DWORD PTR [rax+8]
  0071b	41 d1 e0	 shl	 r8d, 1
  0071e	48 8b 14 24	 mov	 rdx, QWORD PTR w$[rsp]
  00722	48 8b 04 24	 mov	 rax, QWORD PTR w$[rsp]
  00726	8b 48 28	 mov	 ecx, DWORD PTR [rax+40]
  00729	8b 42 3c	 mov	 eax, DWORD PTR [rdx+60]
  0072c	33 c1		 xor	 eax, ecx
  0072e	48 8b 0c 24	 mov	 rcx, QWORD PTR w$[rsp]
  00732	33 41 10	 xor	 eax, DWORD PTR [rcx+16]
  00735	48 8b 0c 24	 mov	 rcx, QWORD PTR w$[rsp]
  00739	33 41 08	 xor	 eax, DWORD PTR [rcx+8]
  0073c	c1 e8 1f	 shr	 eax, 31
  0073f	41 8b c8	 mov	 ecx, r8d
  00742	0b c8		 or	 ecx, eax
  00744	48 8b 04 24	 mov	 rax, QWORD PTR w$[rsp]
  00748	89 48 08	 mov	 DWORD PTR [rax+8], ecx
  0074b	8b 44 24 18	 mov	 eax, DWORD PTR v0$[rsp]
  0074f	8b 4c 24 10	 mov	 ecx, DWORD PTR v4$[rsp]
  00753	33 c8		 xor	 ecx, eax
  00755	8b 44 24 08	 mov	 eax, DWORD PTR v3$[rsp]
  00759	23 c1		 and	 eax, ecx
  0075b	8b 54 24 18	 mov	 edx, DWORD PTR v0$[rsp]
  0075f	33 d0		 xor	 edx, eax
  00761	8b 44 24 14	 mov	 eax, DWORD PTR v2$[rsp]
  00765	c1 e0 05	 shl	 eax, 5
  00768	8b 4c 24 14	 mov	 ecx, DWORD PTR v2$[rsp]
  0076c	c1 e9 1b	 shr	 ecx, 27
  0076f	0b c8		 or	 ecx, eax
  00771	03 ca		 add	 ecx, edx
  00773	48 8b 04 24	 mov	 rax, QWORD PTR w$[rsp]
  00777	8b 40 08	 mov	 eax, DWORD PTR [rax+8]
  0077a	8d 8c 01 99 79
	82 5a		 lea	 ecx, DWORD PTR [rcx+rax+1518500249]
  00781	8b 44 24 0c	 mov	 eax, DWORD PTR v1$[rsp]
  00785	03 c1		 add	 eax, ecx
  00787	89 44 24 0c	 mov	 DWORD PTR v1$[rsp], eax
  0078b	8b 44 24 08	 mov	 eax, DWORD PTR v3$[rsp]
  0078f	c1 e8 02	 shr	 eax, 2
  00792	8b 4c 24 08	 mov	 ecx, DWORD PTR v3$[rsp]
  00796	c1 e1 1e	 shl	 ecx, 30
  00799	0b c1		 or	 eax, ecx
  0079b	89 44 24 08	 mov	 DWORD PTR v3$[rsp], eax

; 168  :     one_cycle(v,1,2,3,4,0, ch, 0x5a827999, hf(19));

  0079f	48 8b 0c 24	 mov	 rcx, QWORD PTR w$[rsp]
  007a3	48 8b 04 24	 mov	 rax, QWORD PTR w$[rsp]
  007a7	8b 40 2c	 mov	 eax, DWORD PTR [rax+44]
  007aa	44 8b 01	 mov	 r8d, DWORD PTR [rcx]
  007ad	44 33 c0	 xor	 r8d, eax
  007b0	48 8b 04 24	 mov	 rax, QWORD PTR w$[rsp]
  007b4	44 33 40 14	 xor	 r8d, DWORD PTR [rax+20]
  007b8	48 8b 04 24	 mov	 rax, QWORD PTR w$[rsp]
  007bc	44 33 40 0c	 xor	 r8d, DWORD PTR [rax+12]
  007c0	41 d1 e0	 shl	 r8d, 1
  007c3	48 8b 14 24	 mov	 rdx, QWORD PTR w$[rsp]
  007c7	48 8b 04 24	 mov	 rax, QWORD PTR w$[rsp]
  007cb	8b 48 2c	 mov	 ecx, DWORD PTR [rax+44]
  007ce	8b 02		 mov	 eax, DWORD PTR [rdx]
  007d0	33 c1		 xor	 eax, ecx
  007d2	48 8b 0c 24	 mov	 rcx, QWORD PTR w$[rsp]
  007d6	33 41 14	 xor	 eax, DWORD PTR [rcx+20]
  007d9	48 8b 0c 24	 mov	 rcx, QWORD PTR w$[rsp]
  007dd	33 41 0c	 xor	 eax, DWORD PTR [rcx+12]
  007e0	c1 e8 1f	 shr	 eax, 31
  007e3	41 8b c8	 mov	 ecx, r8d
  007e6	0b c8		 or	 ecx, eax
  007e8	48 8b 04 24	 mov	 rax, QWORD PTR w$[rsp]
  007ec	89 48 0c	 mov	 DWORD PTR [rax+12], ecx
  007ef	8b 44 24 10	 mov	 eax, DWORD PTR v4$[rsp]
  007f3	8b 4c 24 08	 mov	 ecx, DWORD PTR v3$[rsp]
  007f7	33 c8		 xor	 ecx, eax
  007f9	8b 44 24 14	 mov	 eax, DWORD PTR v2$[rsp]
  007fd	23 c1		 and	 eax, ecx
  007ff	8b 54 24 10	 mov	 edx, DWORD PTR v4$[rsp]
  00803	33 d0		 xor	 edx, eax
  00805	8b 44 24 0c	 mov	 eax, DWORD PTR v1$[rsp]
  00809	c1 e0 05	 shl	 eax, 5
  0080c	8b 4c 24 0c	 mov	 ecx, DWORD PTR v1$[rsp]
  00810	c1 e9 1b	 shr	 ecx, 27
  00813	0b c8		 or	 ecx, eax
  00815	03 ca		 add	 ecx, edx
  00817	48 8b 04 24	 mov	 rax, QWORD PTR w$[rsp]
  0081b	8b 40 0c	 mov	 eax, DWORD PTR [rax+12]
  0081e	8d 8c 01 99 79
	82 5a		 lea	 ecx, DWORD PTR [rcx+rax+1518500249]
  00825	8b 44 24 18	 mov	 eax, DWORD PTR v0$[rsp]
  00829	03 c1		 add	 eax, ecx
  0082b	89 44 24 18	 mov	 DWORD PTR v0$[rsp], eax
  0082f	8b 44 24 14	 mov	 eax, DWORD PTR v2$[rsp]
  00833	c1 e8 02	 shr	 eax, 2
  00836	8b 4c 24 14	 mov	 ecx, DWORD PTR v2$[rsp]
  0083a	c1 e1 1e	 shl	 ecx, 30
  0083d	0b c1		 or	 eax, ecx
  0083f	89 44 24 14	 mov	 DWORD PTR v2$[rsp], eax

; 169  : 
; 170  :     five_cycle(v, parity, 0x6ed9eba1,  20);

  00843	48 8b 0c 24	 mov	 rcx, QWORD PTR w$[rsp]
  00847	48 8b 04 24	 mov	 rax, QWORD PTR w$[rsp]
  0084b	8b 40 30	 mov	 eax, DWORD PTR [rax+48]
  0084e	44 8b 41 04	 mov	 r8d, DWORD PTR [rcx+4]
  00852	44 33 c0	 xor	 r8d, eax
  00855	48 8b 04 24	 mov	 rax, QWORD PTR w$[rsp]
  00859	44 33 40 18	 xor	 r8d, DWORD PTR [rax+24]
  0085d	48 8b 04 24	 mov	 rax, QWORD PTR w$[rsp]
  00861	44 33 40 10	 xor	 r8d, DWORD PTR [rax+16]
  00865	41 d1 e0	 shl	 r8d, 1
  00868	48 8b 14 24	 mov	 rdx, QWORD PTR w$[rsp]
  0086c	48 8b 04 24	 mov	 rax, QWORD PTR w$[rsp]
  00870	8b 48 30	 mov	 ecx, DWORD PTR [rax+48]
  00873	8b 42 04	 mov	 eax, DWORD PTR [rdx+4]
  00876	33 c1		 xor	 eax, ecx
  00878	48 8b 0c 24	 mov	 rcx, QWORD PTR w$[rsp]
  0087c	33 41 18	 xor	 eax, DWORD PTR [rcx+24]
  0087f	48 8b 0c 24	 mov	 rcx, QWORD PTR w$[rsp]
  00883	33 41 10	 xor	 eax, DWORD PTR [rcx+16]
  00886	c1 e8 1f	 shr	 eax, 31
  00889	41 8b c8	 mov	 ecx, r8d
  0088c	0b c8		 or	 ecx, eax
  0088e	48 8b 04 24	 mov	 rax, QWORD PTR w$[rsp]
  00892	89 48 10	 mov	 DWORD PTR [rax+16], ecx
  00895	8b 44 24 14	 mov	 eax, DWORD PTR v2$[rsp]
  00899	8b 54 24 0c	 mov	 edx, DWORD PTR v1$[rsp]
  0089d	33 d0		 xor	 edx, eax
  0089f	33 54 24 08	 xor	 edx, DWORD PTR v3$[rsp]
  008a3	8b 44 24 18	 mov	 eax, DWORD PTR v0$[rsp]
  008a7	c1 e0 05	 shl	 eax, 5
  008aa	8b 4c 24 18	 mov	 ecx, DWORD PTR v0$[rsp]
  008ae	c1 e9 1b	 shr	 ecx, 27
  008b1	0b c8		 or	 ecx, eax
  008b3	03 ca		 add	 ecx, edx
  008b5	48 8b 04 24	 mov	 rax, QWORD PTR w$[rsp]
  008b9	8b 40 10	 mov	 eax, DWORD PTR [rax+16]
  008bc	8d 8c 01 a1 eb
	d9 6e		 lea	 ecx, DWORD PTR [rcx+rax+1859775393]
  008c3	8b 44 24 10	 mov	 eax, DWORD PTR v4$[rsp]
  008c7	03 c1		 add	 eax, ecx
  008c9	89 44 24 10	 mov	 DWORD PTR v4$[rsp], eax
  008cd	8b 44 24 0c	 mov	 eax, DWORD PTR v1$[rsp]
  008d1	c1 e8 02	 shr	 eax, 2
  008d4	8b 4c 24 0c	 mov	 ecx, DWORD PTR v1$[rsp]
  008d8	c1 e1 1e	 shl	 ecx, 30
  008db	0b c1		 or	 eax, ecx
  008dd	89 44 24 0c	 mov	 DWORD PTR v1$[rsp], eax
  008e1	48 8b 0c 24	 mov	 rcx, QWORD PTR w$[rsp]
  008e5	48 8b 04 24	 mov	 rax, QWORD PTR w$[rsp]
  008e9	8b 40 34	 mov	 eax, DWORD PTR [rax+52]
  008ec	44 8b 41 08	 mov	 r8d, DWORD PTR [rcx+8]
  008f0	44 33 c0	 xor	 r8d, eax
  008f3	48 8b 04 24	 mov	 rax, QWORD PTR w$[rsp]
  008f7	44 33 40 1c	 xor	 r8d, DWORD PTR [rax+28]
  008fb	48 8b 04 24	 mov	 rax, QWORD PTR w$[rsp]
  008ff	44 33 40 14	 xor	 r8d, DWORD PTR [rax+20]
  00903	41 d1 e0	 shl	 r8d, 1
  00906	48 8b 14 24	 mov	 rdx, QWORD PTR w$[rsp]
  0090a	48 8b 04 24	 mov	 rax, QWORD PTR w$[rsp]
  0090e	8b 48 34	 mov	 ecx, DWORD PTR [rax+52]
  00911	8b 42 08	 mov	 eax, DWORD PTR [rdx+8]
  00914	33 c1		 xor	 eax, ecx
  00916	48 8b 0c 24	 mov	 rcx, QWORD PTR w$[rsp]
  0091a	33 41 1c	 xor	 eax, DWORD PTR [rcx+28]
  0091d	48 8b 0c 24	 mov	 rcx, QWORD PTR w$[rsp]
  00921	33 41 14	 xor	 eax, DWORD PTR [rcx+20]
  00924	c1 e8 1f	 shr	 eax, 31
  00927	41 8b c8	 mov	 ecx, r8d
  0092a	0b c8		 or	 ecx, eax
  0092c	48 8b 04 24	 mov	 rax, QWORD PTR w$[rsp]
  00930	89 48 14	 mov	 DWORD PTR [rax+20], ecx
  00933	8b 44 24 0c	 mov	 eax, DWORD PTR v1$[rsp]
  00937	8b 54 24 18	 mov	 edx, DWORD PTR v0$[rsp]
  0093b	33 d0		 xor	 edx, eax
  0093d	33 54 24 14	 xor	 edx, DWORD PTR v2$[rsp]
  00941	8b 44 24 10	 mov	 eax, DWORD PTR v4$[rsp]
  00945	c1 e0 05	 shl	 eax, 5
  00948	8b 4c 24 10	 mov	 ecx, DWORD PTR v4$[rsp]
  0094c	c1 e9 1b	 shr	 ecx, 27
  0094f	0b c8		 or	 ecx, eax
  00951	03 ca		 add	 ecx, edx
  00953	48 8b 04 24	 mov	 rax, QWORD PTR w$[rsp]
  00957	8b 40 14	 mov	 eax, DWORD PTR [rax+20]
  0095a	8d 8c 01 a1 eb
	d9 6e		 lea	 ecx, DWORD PTR [rcx+rax+1859775393]
  00961	8b 44 24 08	 mov	 eax, DWORD PTR v3$[rsp]
  00965	03 c1		 add	 eax, ecx
  00967	89 44 24 08	 mov	 DWORD PTR v3$[rsp], eax
  0096b	8b 44 24 18	 mov	 eax, DWORD PTR v0$[rsp]
  0096f	c1 e8 02	 shr	 eax, 2
  00972	8b 4c 24 18	 mov	 ecx, DWORD PTR v0$[rsp]
  00976	c1 e1 1e	 shl	 ecx, 30
  00979	0b c1		 or	 eax, ecx
  0097b	89 44 24 18	 mov	 DWORD PTR v0$[rsp], eax
  0097f	48 8b 0c 24	 mov	 rcx, QWORD PTR w$[rsp]
  00983	48 8b 04 24	 mov	 rax, QWORD PTR w$[rsp]
  00987	8b 40 38	 mov	 eax, DWORD PTR [rax+56]
  0098a	44 8b 41 0c	 mov	 r8d, DWORD PTR [rcx+12]
  0098e	44 33 c0	 xor	 r8d, eax
  00991	48 8b 04 24	 mov	 rax, QWORD PTR w$[rsp]
  00995	44 33 40 20	 xor	 r8d, DWORD PTR [rax+32]
  00999	48 8b 04 24	 mov	 rax, QWORD PTR w$[rsp]
  0099d	44 33 40 18	 xor	 r8d, DWORD PTR [rax+24]
  009a1	41 d1 e0	 shl	 r8d, 1
  009a4	48 8b 14 24	 mov	 rdx, QWORD PTR w$[rsp]
  009a8	48 8b 04 24	 mov	 rax, QWORD PTR w$[rsp]
  009ac	8b 48 38	 mov	 ecx, DWORD PTR [rax+56]
  009af	8b 42 0c	 mov	 eax, DWORD PTR [rdx+12]
  009b2	33 c1		 xor	 eax, ecx
  009b4	48 8b 0c 24	 mov	 rcx, QWORD PTR w$[rsp]
  009b8	33 41 20	 xor	 eax, DWORD PTR [rcx+32]
  009bb	48 8b 0c 24	 mov	 rcx, QWORD PTR w$[rsp]
  009bf	33 41 18	 xor	 eax, DWORD PTR [rcx+24]
  009c2	c1 e8 1f	 shr	 eax, 31
  009c5	41 8b c8	 mov	 ecx, r8d
  009c8	0b c8		 or	 ecx, eax
  009ca	48 8b 04 24	 mov	 rax, QWORD PTR w$[rsp]
  009ce	89 48 18	 mov	 DWORD PTR [rax+24], ecx
  009d1	8b 44 24 18	 mov	 eax, DWORD PTR v0$[rsp]
  009d5	8b 54 24 10	 mov	 edx, DWORD PTR v4$[rsp]
  009d9	33 d0		 xor	 edx, eax
  009db	33 54 24 0c	 xor	 edx, DWORD PTR v1$[rsp]
  009df	8b 44 24 08	 mov	 eax, DWORD PTR v3$[rsp]
  009e3	c1 e0 05	 shl	 eax, 5
  009e6	8b 4c 24 08	 mov	 ecx, DWORD PTR v3$[rsp]
  009ea	c1 e9 1b	 shr	 ecx, 27
  009ed	0b c8		 or	 ecx, eax
  009ef	03 ca		 add	 ecx, edx
  009f1	48 8b 04 24	 mov	 rax, QWORD PTR w$[rsp]
  009f5	8b 40 18	 mov	 eax, DWORD PTR [rax+24]
  009f8	8d 8c 01 a1 eb
	d9 6e		 lea	 ecx, DWORD PTR [rcx+rax+1859775393]
  009ff	8b 44 24 14	 mov	 eax, DWORD PTR v2$[rsp]
  00a03	03 c1		 add	 eax, ecx
  00a05	89 44 24 14	 mov	 DWORD PTR v2$[rsp], eax
  00a09	8b 44 24 10	 mov	 eax, DWORD PTR v4$[rsp]
  00a0d	c1 e8 02	 shr	 eax, 2
  00a10	8b 4c 24 10	 mov	 ecx, DWORD PTR v4$[rsp]
  00a14	c1 e1 1e	 shl	 ecx, 30
  00a17	0b c1		 or	 eax, ecx
  00a19	89 44 24 10	 mov	 DWORD PTR v4$[rsp], eax
  00a1d	48 8b 0c 24	 mov	 rcx, QWORD PTR w$[rsp]
  00a21	48 8b 04 24	 mov	 rax, QWORD PTR w$[rsp]
  00a25	8b 40 3c	 mov	 eax, DWORD PTR [rax+60]
  00a28	44 8b 41 10	 mov	 r8d, DWORD PTR [rcx+16]
  00a2c	44 33 c0	 xor	 r8d, eax
  00a2f	48 8b 04 24	 mov	 rax, QWORD PTR w$[rsp]
  00a33	44 33 40 24	 xor	 r8d, DWORD PTR [rax+36]
  00a37	48 8b 04 24	 mov	 rax, QWORD PTR w$[rsp]
  00a3b	44 33 40 1c	 xor	 r8d, DWORD PTR [rax+28]
  00a3f	41 d1 e0	 shl	 r8d, 1
  00a42	48 8b 14 24	 mov	 rdx, QWORD PTR w$[rsp]
  00a46	48 8b 04 24	 mov	 rax, QWORD PTR w$[rsp]
  00a4a	8b 48 3c	 mov	 ecx, DWORD PTR [rax+60]
  00a4d	8b 42 10	 mov	 eax, DWORD PTR [rdx+16]
  00a50	33 c1		 xor	 eax, ecx
  00a52	48 8b 0c 24	 mov	 rcx, QWORD PTR w$[rsp]
  00a56	33 41 24	 xor	 eax, DWORD PTR [rcx+36]
  00a59	48 8b 0c 24	 mov	 rcx, QWORD PTR w$[rsp]
  00a5d	33 41 1c	 xor	 eax, DWORD PTR [rcx+28]
  00a60	c1 e8 1f	 shr	 eax, 31
  00a63	41 8b c8	 mov	 ecx, r8d
  00a66	0b c8		 or	 ecx, eax
  00a68	48 8b 04 24	 mov	 rax, QWORD PTR w$[rsp]
  00a6c	89 48 1c	 mov	 DWORD PTR [rax+28], ecx
  00a6f	8b 44 24 10	 mov	 eax, DWORD PTR v4$[rsp]
  00a73	8b 54 24 08	 mov	 edx, DWORD PTR v3$[rsp]
  00a77	33 d0		 xor	 edx, eax
  00a79	33 54 24 18	 xor	 edx, DWORD PTR v0$[rsp]
  00a7d	8b 44 24 14	 mov	 eax, DWORD PTR v2$[rsp]
  00a81	c1 e0 05	 shl	 eax, 5
  00a84	8b 4c 24 14	 mov	 ecx, DWORD PTR v2$[rsp]
  00a88	c1 e9 1b	 shr	 ecx, 27
  00a8b	0b c8		 or	 ecx, eax
  00a8d	03 ca		 add	 ecx, edx
  00a8f	48 8b 04 24	 mov	 rax, QWORD PTR w$[rsp]
  00a93	8b 40 1c	 mov	 eax, DWORD PTR [rax+28]
  00a96	8d 8c 01 a1 eb
	d9 6e		 lea	 ecx, DWORD PTR [rcx+rax+1859775393]
  00a9d	8b 44 24 0c	 mov	 eax, DWORD PTR v1$[rsp]
  00aa1	03 c1		 add	 eax, ecx
  00aa3	89 44 24 0c	 mov	 DWORD PTR v1$[rsp], eax
  00aa7	8b 44 24 08	 mov	 eax, DWORD PTR v3$[rsp]
  00aab	c1 e8 02	 shr	 eax, 2
  00aae	8b 4c 24 08	 mov	 ecx, DWORD PTR v3$[rsp]
  00ab2	c1 e1 1e	 shl	 ecx, 30
  00ab5	0b c1		 or	 eax, ecx
  00ab7	89 44 24 08	 mov	 DWORD PTR v3$[rsp], eax
  00abb	48 8b 0c 24	 mov	 rcx, QWORD PTR w$[rsp]
  00abf	48 8b 04 24	 mov	 rax, QWORD PTR w$[rsp]
  00ac3	8b 00		 mov	 eax, DWORD PTR [rax]
  00ac5	44 8b 41 14	 mov	 r8d, DWORD PTR [rcx+20]
  00ac9	44 33 c0	 xor	 r8d, eax
  00acc	48 8b 04 24	 mov	 rax, QWORD PTR w$[rsp]
  00ad0	44 33 40 28	 xor	 r8d, DWORD PTR [rax+40]
  00ad4	48 8b 04 24	 mov	 rax, QWORD PTR w$[rsp]
  00ad8	44 33 40 20	 xor	 r8d, DWORD PTR [rax+32]
  00adc	41 d1 e0	 shl	 r8d, 1
  00adf	48 8b 14 24	 mov	 rdx, QWORD PTR w$[rsp]
  00ae3	48 8b 04 24	 mov	 rax, QWORD PTR w$[rsp]
  00ae7	8b 08		 mov	 ecx, DWORD PTR [rax]
  00ae9	8b 42 14	 mov	 eax, DWORD PTR [rdx+20]
  00aec	33 c1		 xor	 eax, ecx
  00aee	48 8b 0c 24	 mov	 rcx, QWORD PTR w$[rsp]
  00af2	33 41 28	 xor	 eax, DWORD PTR [rcx+40]
  00af5	48 8b 0c 24	 mov	 rcx, QWORD PTR w$[rsp]
  00af9	33 41 20	 xor	 eax, DWORD PTR [rcx+32]
  00afc	c1 e8 1f	 shr	 eax, 31
  00aff	41 8b c8	 mov	 ecx, r8d
  00b02	0b c8		 or	 ecx, eax
  00b04	48 8b 04 24	 mov	 rax, QWORD PTR w$[rsp]
  00b08	89 48 20	 mov	 DWORD PTR [rax+32], ecx
  00b0b	8b 44 24 08	 mov	 eax, DWORD PTR v3$[rsp]
  00b0f	8b 54 24 14	 mov	 edx, DWORD PTR v2$[rsp]
  00b13	33 d0		 xor	 edx, eax
  00b15	33 54 24 10	 xor	 edx, DWORD PTR v4$[rsp]
  00b19	8b 44 24 0c	 mov	 eax, DWORD PTR v1$[rsp]
  00b1d	c1 e0 05	 shl	 eax, 5
  00b20	8b 4c 24 0c	 mov	 ecx, DWORD PTR v1$[rsp]
  00b24	c1 e9 1b	 shr	 ecx, 27
  00b27	0b c8		 or	 ecx, eax
  00b29	03 ca		 add	 ecx, edx
  00b2b	48 8b 04 24	 mov	 rax, QWORD PTR w$[rsp]
  00b2f	8b 40 20	 mov	 eax, DWORD PTR [rax+32]
  00b32	8d 8c 01 a1 eb
	d9 6e		 lea	 ecx, DWORD PTR [rcx+rax+1859775393]
  00b39	8b 44 24 18	 mov	 eax, DWORD PTR v0$[rsp]
  00b3d	03 c1		 add	 eax, ecx
  00b3f	89 44 24 18	 mov	 DWORD PTR v0$[rsp], eax
  00b43	8b 44 24 14	 mov	 eax, DWORD PTR v2$[rsp]
  00b47	c1 e8 02	 shr	 eax, 2
  00b4a	8b 4c 24 14	 mov	 ecx, DWORD PTR v2$[rsp]
  00b4e	c1 e1 1e	 shl	 ecx, 30
  00b51	0b c1		 or	 eax, ecx
  00b53	89 44 24 14	 mov	 DWORD PTR v2$[rsp], eax

; 171  :     five_cycle(v, parity, 0x6ed9eba1,  25);

  00b57	48 8b 0c 24	 mov	 rcx, QWORD PTR w$[rsp]
  00b5b	48 8b 04 24	 mov	 rax, QWORD PTR w$[rsp]
  00b5f	8b 40 04	 mov	 eax, DWORD PTR [rax+4]
  00b62	44 8b 41 18	 mov	 r8d, DWORD PTR [rcx+24]
  00b66	44 33 c0	 xor	 r8d, eax
  00b69	48 8b 04 24	 mov	 rax, QWORD PTR w$[rsp]
  00b6d	44 33 40 2c	 xor	 r8d, DWORD PTR [rax+44]
  00b71	48 8b 04 24	 mov	 rax, QWORD PTR w$[rsp]
  00b75	44 33 40 24	 xor	 r8d, DWORD PTR [rax+36]
  00b79	41 d1 e0	 shl	 r8d, 1
  00b7c	48 8b 14 24	 mov	 rdx, QWORD PTR w$[rsp]
  00b80	48 8b 04 24	 mov	 rax, QWORD PTR w$[rsp]
  00b84	8b 48 04	 mov	 ecx, DWORD PTR [rax+4]
  00b87	8b 42 18	 mov	 eax, DWORD PTR [rdx+24]
  00b8a	33 c1		 xor	 eax, ecx
  00b8c	48 8b 0c 24	 mov	 rcx, QWORD PTR w$[rsp]
  00b90	33 41 2c	 xor	 eax, DWORD PTR [rcx+44]
  00b93	48 8b 0c 24	 mov	 rcx, QWORD PTR w$[rsp]
  00b97	33 41 24	 xor	 eax, DWORD PTR [rcx+36]
  00b9a	c1 e8 1f	 shr	 eax, 31
  00b9d	41 8b c8	 mov	 ecx, r8d
  00ba0	0b c8		 or	 ecx, eax
  00ba2	48 8b 04 24	 mov	 rax, QWORD PTR w$[rsp]
  00ba6	89 48 24	 mov	 DWORD PTR [rax+36], ecx
  00ba9	8b 44 24 14	 mov	 eax, DWORD PTR v2$[rsp]
  00bad	8b 54 24 0c	 mov	 edx, DWORD PTR v1$[rsp]
  00bb1	33 d0		 xor	 edx, eax
  00bb3	33 54 24 08	 xor	 edx, DWORD PTR v3$[rsp]
  00bb7	8b 44 24 18	 mov	 eax, DWORD PTR v0$[rsp]
  00bbb	c1 e0 05	 shl	 eax, 5
  00bbe	8b 4c 24 18	 mov	 ecx, DWORD PTR v0$[rsp]
  00bc2	c1 e9 1b	 shr	 ecx, 27
  00bc5	0b c8		 or	 ecx, eax
  00bc7	03 ca		 add	 ecx, edx
  00bc9	48 8b 04 24	 mov	 rax, QWORD PTR w$[rsp]
  00bcd	8b 40 24	 mov	 eax, DWORD PTR [rax+36]
  00bd0	8d 8c 01 a1 eb
	d9 6e		 lea	 ecx, DWORD PTR [rcx+rax+1859775393]
  00bd7	8b 44 24 10	 mov	 eax, DWORD PTR v4$[rsp]
  00bdb	03 c1		 add	 eax, ecx
  00bdd	89 44 24 10	 mov	 DWORD PTR v4$[rsp], eax
  00be1	8b 44 24 0c	 mov	 eax, DWORD PTR v1$[rsp]
  00be5	c1 e8 02	 shr	 eax, 2
  00be8	8b 4c 24 0c	 mov	 ecx, DWORD PTR v1$[rsp]
  00bec	c1 e1 1e	 shl	 ecx, 30
  00bef	0b c1		 or	 eax, ecx
  00bf1	89 44 24 0c	 mov	 DWORD PTR v1$[rsp], eax
  00bf5	48 8b 0c 24	 mov	 rcx, QWORD PTR w$[rsp]
  00bf9	48 8b 04 24	 mov	 rax, QWORD PTR w$[rsp]
  00bfd	8b 40 08	 mov	 eax, DWORD PTR [rax+8]
  00c00	44 8b 41 1c	 mov	 r8d, DWORD PTR [rcx+28]
  00c04	44 33 c0	 xor	 r8d, eax
  00c07	48 8b 04 24	 mov	 rax, QWORD PTR w$[rsp]
  00c0b	44 33 40 30	 xor	 r8d, DWORD PTR [rax+48]
  00c0f	48 8b 04 24	 mov	 rax, QWORD PTR w$[rsp]
  00c13	44 33 40 28	 xor	 r8d, DWORD PTR [rax+40]
  00c17	41 d1 e0	 shl	 r8d, 1
  00c1a	48 8b 14 24	 mov	 rdx, QWORD PTR w$[rsp]
  00c1e	48 8b 04 24	 mov	 rax, QWORD PTR w$[rsp]
  00c22	8b 48 08	 mov	 ecx, DWORD PTR [rax+8]
  00c25	8b 42 1c	 mov	 eax, DWORD PTR [rdx+28]
  00c28	33 c1		 xor	 eax, ecx
  00c2a	48 8b 0c 24	 mov	 rcx, QWORD PTR w$[rsp]
  00c2e	33 41 30	 xor	 eax, DWORD PTR [rcx+48]
  00c31	48 8b 0c 24	 mov	 rcx, QWORD PTR w$[rsp]
  00c35	33 41 28	 xor	 eax, DWORD PTR [rcx+40]
  00c38	c1 e8 1f	 shr	 eax, 31
  00c3b	41 8b c8	 mov	 ecx, r8d
  00c3e	0b c8		 or	 ecx, eax
  00c40	48 8b 04 24	 mov	 rax, QWORD PTR w$[rsp]
  00c44	89 48 28	 mov	 DWORD PTR [rax+40], ecx
  00c47	8b 44 24 0c	 mov	 eax, DWORD PTR v1$[rsp]
  00c4b	8b 54 24 18	 mov	 edx, DWORD PTR v0$[rsp]
  00c4f	33 d0		 xor	 edx, eax
  00c51	33 54 24 14	 xor	 edx, DWORD PTR v2$[rsp]
  00c55	8b 44 24 10	 mov	 eax, DWORD PTR v4$[rsp]
  00c59	c1 e0 05	 shl	 eax, 5
  00c5c	8b 4c 24 10	 mov	 ecx, DWORD PTR v4$[rsp]
  00c60	c1 e9 1b	 shr	 ecx, 27
  00c63	0b c8		 or	 ecx, eax
  00c65	03 ca		 add	 ecx, edx
  00c67	48 8b 04 24	 mov	 rax, QWORD PTR w$[rsp]
  00c6b	8b 40 28	 mov	 eax, DWORD PTR [rax+40]
  00c6e	8d 8c 01 a1 eb
	d9 6e		 lea	 ecx, DWORD PTR [rcx+rax+1859775393]
  00c75	8b 44 24 08	 mov	 eax, DWORD PTR v3$[rsp]
  00c79	03 c1		 add	 eax, ecx
  00c7b	89 44 24 08	 mov	 DWORD PTR v3$[rsp], eax
  00c7f	8b 44 24 18	 mov	 eax, DWORD PTR v0$[rsp]
  00c83	c1 e8 02	 shr	 eax, 2
  00c86	8b 4c 24 18	 mov	 ecx, DWORD PTR v0$[rsp]
  00c8a	c1 e1 1e	 shl	 ecx, 30
  00c8d	0b c1		 or	 eax, ecx
  00c8f	89 44 24 18	 mov	 DWORD PTR v0$[rsp], eax
  00c93	48 8b 0c 24	 mov	 rcx, QWORD PTR w$[rsp]
  00c97	48 8b 04 24	 mov	 rax, QWORD PTR w$[rsp]
  00c9b	8b 40 0c	 mov	 eax, DWORD PTR [rax+12]
  00c9e	44 8b 41 20	 mov	 r8d, DWORD PTR [rcx+32]
  00ca2	44 33 c0	 xor	 r8d, eax
  00ca5	48 8b 04 24	 mov	 rax, QWORD PTR w$[rsp]
  00ca9	44 33 40 34	 xor	 r8d, DWORD PTR [rax+52]
  00cad	48 8b 04 24	 mov	 rax, QWORD PTR w$[rsp]
  00cb1	44 33 40 2c	 xor	 r8d, DWORD PTR [rax+44]
  00cb5	41 d1 e0	 shl	 r8d, 1
  00cb8	48 8b 14 24	 mov	 rdx, QWORD PTR w$[rsp]
  00cbc	48 8b 04 24	 mov	 rax, QWORD PTR w$[rsp]
  00cc0	8b 48 0c	 mov	 ecx, DWORD PTR [rax+12]
  00cc3	8b 42 20	 mov	 eax, DWORD PTR [rdx+32]
  00cc6	33 c1		 xor	 eax, ecx
  00cc8	48 8b 0c 24	 mov	 rcx, QWORD PTR w$[rsp]
  00ccc	33 41 34	 xor	 eax, DWORD PTR [rcx+52]
  00ccf	48 8b 0c 24	 mov	 rcx, QWORD PTR w$[rsp]
  00cd3	33 41 2c	 xor	 eax, DWORD PTR [rcx+44]
  00cd6	c1 e8 1f	 shr	 eax, 31
  00cd9	41 8b c8	 mov	 ecx, r8d
  00cdc	0b c8		 or	 ecx, eax
  00cde	48 8b 04 24	 mov	 rax, QWORD PTR w$[rsp]
  00ce2	89 48 2c	 mov	 DWORD PTR [rax+44], ecx
  00ce5	8b 44 24 18	 mov	 eax, DWORD PTR v0$[rsp]
  00ce9	8b 54 24 10	 mov	 edx, DWORD PTR v4$[rsp]
  00ced	33 d0		 xor	 edx, eax
  00cef	33 54 24 0c	 xor	 edx, DWORD PTR v1$[rsp]
  00cf3	8b 44 24 08	 mov	 eax, DWORD PTR v3$[rsp]
  00cf7	c1 e0 05	 shl	 eax, 5
  00cfa	8b 4c 24 08	 mov	 ecx, DWORD PTR v3$[rsp]
  00cfe	c1 e9 1b	 shr	 ecx, 27
  00d01	0b c8		 or	 ecx, eax
  00d03	03 ca		 add	 ecx, edx
  00d05	48 8b 04 24	 mov	 rax, QWORD PTR w$[rsp]
  00d09	8b 40 2c	 mov	 eax, DWORD PTR [rax+44]
  00d0c	8d 8c 01 a1 eb
	d9 6e		 lea	 ecx, DWORD PTR [rcx+rax+1859775393]
  00d13	8b 44 24 14	 mov	 eax, DWORD PTR v2$[rsp]
  00d17	03 c1		 add	 eax, ecx
  00d19	89 44 24 14	 mov	 DWORD PTR v2$[rsp], eax
  00d1d	8b 44 24 10	 mov	 eax, DWORD PTR v4$[rsp]
  00d21	c1 e8 02	 shr	 eax, 2
  00d24	8b 4c 24 10	 mov	 ecx, DWORD PTR v4$[rsp]
  00d28	c1 e1 1e	 shl	 ecx, 30
  00d2b	0b c1		 or	 eax, ecx
  00d2d	89 44 24 10	 mov	 DWORD PTR v4$[rsp], eax
  00d31	48 8b 0c 24	 mov	 rcx, QWORD PTR w$[rsp]
  00d35	48 8b 04 24	 mov	 rax, QWORD PTR w$[rsp]
  00d39	8b 40 10	 mov	 eax, DWORD PTR [rax+16]
  00d3c	44 8b 41 24	 mov	 r8d, DWORD PTR [rcx+36]
  00d40	44 33 c0	 xor	 r8d, eax
  00d43	48 8b 04 24	 mov	 rax, QWORD PTR w$[rsp]
  00d47	44 33 40 38	 xor	 r8d, DWORD PTR [rax+56]
  00d4b	48 8b 04 24	 mov	 rax, QWORD PTR w$[rsp]
  00d4f	44 33 40 30	 xor	 r8d, DWORD PTR [rax+48]
  00d53	41 d1 e0	 shl	 r8d, 1
  00d56	48 8b 14 24	 mov	 rdx, QWORD PTR w$[rsp]
  00d5a	48 8b 04 24	 mov	 rax, QWORD PTR w$[rsp]
  00d5e	8b 48 10	 mov	 ecx, DWORD PTR [rax+16]
  00d61	8b 42 24	 mov	 eax, DWORD PTR [rdx+36]
  00d64	33 c1		 xor	 eax, ecx
  00d66	48 8b 0c 24	 mov	 rcx, QWORD PTR w$[rsp]
  00d6a	33 41 38	 xor	 eax, DWORD PTR [rcx+56]
  00d6d	48 8b 0c 24	 mov	 rcx, QWORD PTR w$[rsp]
  00d71	33 41 30	 xor	 eax, DWORD PTR [rcx+48]
  00d74	c1 e8 1f	 shr	 eax, 31
  00d77	41 8b c8	 mov	 ecx, r8d
  00d7a	0b c8		 or	 ecx, eax
  00d7c	48 8b 04 24	 mov	 rax, QWORD PTR w$[rsp]
  00d80	89 48 30	 mov	 DWORD PTR [rax+48], ecx
  00d83	8b 44 24 10	 mov	 eax, DWORD PTR v4$[rsp]
  00d87	8b 54 24 08	 mov	 edx, DWORD PTR v3$[rsp]
  00d8b	33 d0		 xor	 edx, eax
  00d8d	33 54 24 18	 xor	 edx, DWORD PTR v0$[rsp]
  00d91	8b 44 24 14	 mov	 eax, DWORD PTR v2$[rsp]
  00d95	c1 e0 05	 shl	 eax, 5
  00d98	8b 4c 24 14	 mov	 ecx, DWORD PTR v2$[rsp]
  00d9c	c1 e9 1b	 shr	 ecx, 27
  00d9f	0b c8		 or	 ecx, eax
  00da1	03 ca		 add	 ecx, edx
  00da3	48 8b 04 24	 mov	 rax, QWORD PTR w$[rsp]
  00da7	8b 40 30	 mov	 eax, DWORD PTR [rax+48]
  00daa	8d 8c 01 a1 eb
	d9 6e		 lea	 ecx, DWORD PTR [rcx+rax+1859775393]
  00db1	8b 44 24 0c	 mov	 eax, DWORD PTR v1$[rsp]
  00db5	03 c1		 add	 eax, ecx
  00db7	89 44 24 0c	 mov	 DWORD PTR v1$[rsp], eax
  00dbb	8b 44 24 08	 mov	 eax, DWORD PTR v3$[rsp]
  00dbf	c1 e8 02	 shr	 eax, 2
  00dc2	8b 4c 24 08	 mov	 ecx, DWORD PTR v3$[rsp]
  00dc6	c1 e1 1e	 shl	 ecx, 30
  00dc9	0b c1		 or	 eax, ecx
  00dcb	89 44 24 08	 mov	 DWORD PTR v3$[rsp], eax
  00dcf	48 8b 0c 24	 mov	 rcx, QWORD PTR w$[rsp]
  00dd3	48 8b 04 24	 mov	 rax, QWORD PTR w$[rsp]
  00dd7	8b 40 14	 mov	 eax, DWORD PTR [rax+20]
  00dda	44 8b 41 28	 mov	 r8d, DWORD PTR [rcx+40]
  00dde	44 33 c0	 xor	 r8d, eax
  00de1	48 8b 04 24	 mov	 rax, QWORD PTR w$[rsp]
  00de5	44 33 40 3c	 xor	 r8d, DWORD PTR [rax+60]
  00de9	48 8b 04 24	 mov	 rax, QWORD PTR w$[rsp]
  00ded	44 33 40 34	 xor	 r8d, DWORD PTR [rax+52]
  00df1	41 d1 e0	 shl	 r8d, 1
  00df4	48 8b 14 24	 mov	 rdx, QWORD PTR w$[rsp]
  00df8	48 8b 04 24	 mov	 rax, QWORD PTR w$[rsp]
  00dfc	8b 48 14	 mov	 ecx, DWORD PTR [rax+20]
  00dff	8b 42 28	 mov	 eax, DWORD PTR [rdx+40]
  00e02	33 c1		 xor	 eax, ecx
  00e04	48 8b 0c 24	 mov	 rcx, QWORD PTR w$[rsp]
  00e08	33 41 3c	 xor	 eax, DWORD PTR [rcx+60]
  00e0b	48 8b 0c 24	 mov	 rcx, QWORD PTR w$[rsp]
  00e0f	33 41 34	 xor	 eax, DWORD PTR [rcx+52]
  00e12	c1 e8 1f	 shr	 eax, 31
  00e15	41 8b c8	 mov	 ecx, r8d
  00e18	0b c8		 or	 ecx, eax
  00e1a	48 8b 04 24	 mov	 rax, QWORD PTR w$[rsp]
  00e1e	89 48 34	 mov	 DWORD PTR [rax+52], ecx
  00e21	8b 44 24 08	 mov	 eax, DWORD PTR v3$[rsp]
  00e25	8b 54 24 14	 mov	 edx, DWORD PTR v2$[rsp]
  00e29	33 d0		 xor	 edx, eax
  00e2b	33 54 24 10	 xor	 edx, DWORD PTR v4$[rsp]
  00e2f	8b 44 24 0c	 mov	 eax, DWORD PTR v1$[rsp]
  00e33	c1 e0 05	 shl	 eax, 5
  00e36	8b 4c 24 0c	 mov	 ecx, DWORD PTR v1$[rsp]
  00e3a	c1 e9 1b	 shr	 ecx, 27
  00e3d	0b c8		 or	 ecx, eax
  00e3f	03 ca		 add	 ecx, edx
  00e41	48 8b 04 24	 mov	 rax, QWORD PTR w$[rsp]
  00e45	8b 40 34	 mov	 eax, DWORD PTR [rax+52]
  00e48	8d 8c 01 a1 eb
	d9 6e		 lea	 ecx, DWORD PTR [rcx+rax+1859775393]
  00e4f	8b 44 24 18	 mov	 eax, DWORD PTR v0$[rsp]
  00e53	03 c1		 add	 eax, ecx
  00e55	89 44 24 18	 mov	 DWORD PTR v0$[rsp], eax
  00e59	8b 44 24 14	 mov	 eax, DWORD PTR v2$[rsp]
  00e5d	c1 e8 02	 shr	 eax, 2
  00e60	8b 4c 24 14	 mov	 ecx, DWORD PTR v2$[rsp]
  00e64	c1 e1 1e	 shl	 ecx, 30
  00e67	0b c1		 or	 eax, ecx
  00e69	89 44 24 14	 mov	 DWORD PTR v2$[rsp], eax

; 172  :     five_cycle(v, parity, 0x6ed9eba1,  30);

  00e6d	48 8b 0c 24	 mov	 rcx, QWORD PTR w$[rsp]
  00e71	48 8b 04 24	 mov	 rax, QWORD PTR w$[rsp]
  00e75	8b 40 18	 mov	 eax, DWORD PTR [rax+24]
  00e78	44 8b 41 2c	 mov	 r8d, DWORD PTR [rcx+44]
  00e7c	44 33 c0	 xor	 r8d, eax
  00e7f	48 8b 04 24	 mov	 rax, QWORD PTR w$[rsp]
  00e83	44 33 00	 xor	 r8d, DWORD PTR [rax]
  00e86	48 8b 04 24	 mov	 rax, QWORD PTR w$[rsp]
  00e8a	44 33 40 38	 xor	 r8d, DWORD PTR [rax+56]
  00e8e	41 d1 e0	 shl	 r8d, 1
  00e91	48 8b 14 24	 mov	 rdx, QWORD PTR w$[rsp]
  00e95	48 8b 04 24	 mov	 rax, QWORD PTR w$[rsp]
  00e99	8b 48 18	 mov	 ecx, DWORD PTR [rax+24]
  00e9c	8b 42 2c	 mov	 eax, DWORD PTR [rdx+44]
  00e9f	33 c1		 xor	 eax, ecx
  00ea1	48 8b 0c 24	 mov	 rcx, QWORD PTR w$[rsp]
  00ea5	33 01		 xor	 eax, DWORD PTR [rcx]
  00ea7	48 8b 0c 24	 mov	 rcx, QWORD PTR w$[rsp]
  00eab	33 41 38	 xor	 eax, DWORD PTR [rcx+56]
  00eae	c1 e8 1f	 shr	 eax, 31
  00eb1	41 8b c8	 mov	 ecx, r8d
  00eb4	0b c8		 or	 ecx, eax
  00eb6	48 8b 04 24	 mov	 rax, QWORD PTR w$[rsp]
  00eba	89 48 38	 mov	 DWORD PTR [rax+56], ecx
  00ebd	8b 44 24 14	 mov	 eax, DWORD PTR v2$[rsp]
  00ec1	8b 54 24 0c	 mov	 edx, DWORD PTR v1$[rsp]
  00ec5	33 d0		 xor	 edx, eax
  00ec7	33 54 24 08	 xor	 edx, DWORD PTR v3$[rsp]
  00ecb	8b 44 24 18	 mov	 eax, DWORD PTR v0$[rsp]
  00ecf	c1 e0 05	 shl	 eax, 5
  00ed2	8b 4c 24 18	 mov	 ecx, DWORD PTR v0$[rsp]
  00ed6	c1 e9 1b	 shr	 ecx, 27
  00ed9	0b c8		 or	 ecx, eax
  00edb	03 ca		 add	 ecx, edx
  00edd	48 8b 04 24	 mov	 rax, QWORD PTR w$[rsp]
  00ee1	8b 40 38	 mov	 eax, DWORD PTR [rax+56]
  00ee4	8d 8c 01 a1 eb
	d9 6e		 lea	 ecx, DWORD PTR [rcx+rax+1859775393]
  00eeb	8b 44 24 10	 mov	 eax, DWORD PTR v4$[rsp]
  00eef	03 c1		 add	 eax, ecx
  00ef1	89 44 24 10	 mov	 DWORD PTR v4$[rsp], eax
  00ef5	8b 44 24 0c	 mov	 eax, DWORD PTR v1$[rsp]
  00ef9	c1 e8 02	 shr	 eax, 2
  00efc	8b 4c 24 0c	 mov	 ecx, DWORD PTR v1$[rsp]
  00f00	c1 e1 1e	 shl	 ecx, 30
  00f03	0b c1		 or	 eax, ecx
  00f05	89 44 24 0c	 mov	 DWORD PTR v1$[rsp], eax
  00f09	48 8b 0c 24	 mov	 rcx, QWORD PTR w$[rsp]
  00f0d	48 8b 04 24	 mov	 rax, QWORD PTR w$[rsp]
  00f11	8b 40 1c	 mov	 eax, DWORD PTR [rax+28]
  00f14	44 8b 41 30	 mov	 r8d, DWORD PTR [rcx+48]
  00f18	44 33 c0	 xor	 r8d, eax
  00f1b	48 8b 04 24	 mov	 rax, QWORD PTR w$[rsp]
  00f1f	44 33 40 04	 xor	 r8d, DWORD PTR [rax+4]
  00f23	48 8b 04 24	 mov	 rax, QWORD PTR w$[rsp]
  00f27	44 33 40 3c	 xor	 r8d, DWORD PTR [rax+60]
  00f2b	41 d1 e0	 shl	 r8d, 1
  00f2e	48 8b 14 24	 mov	 rdx, QWORD PTR w$[rsp]
  00f32	48 8b 04 24	 mov	 rax, QWORD PTR w$[rsp]
  00f36	8b 48 1c	 mov	 ecx, DWORD PTR [rax+28]
  00f39	8b 42 30	 mov	 eax, DWORD PTR [rdx+48]
  00f3c	33 c1		 xor	 eax, ecx
  00f3e	48 8b 0c 24	 mov	 rcx, QWORD PTR w$[rsp]
  00f42	33 41 04	 xor	 eax, DWORD PTR [rcx+4]
  00f45	48 8b 0c 24	 mov	 rcx, QWORD PTR w$[rsp]
  00f49	33 41 3c	 xor	 eax, DWORD PTR [rcx+60]
  00f4c	c1 e8 1f	 shr	 eax, 31
  00f4f	41 8b c8	 mov	 ecx, r8d
  00f52	0b c8		 or	 ecx, eax
  00f54	48 8b 04 24	 mov	 rax, QWORD PTR w$[rsp]
  00f58	89 48 3c	 mov	 DWORD PTR [rax+60], ecx
  00f5b	8b 44 24 0c	 mov	 eax, DWORD PTR v1$[rsp]
  00f5f	8b 54 24 18	 mov	 edx, DWORD PTR v0$[rsp]
  00f63	33 d0		 xor	 edx, eax
  00f65	33 54 24 14	 xor	 edx, DWORD PTR v2$[rsp]
  00f69	8b 44 24 10	 mov	 eax, DWORD PTR v4$[rsp]
  00f6d	c1 e0 05	 shl	 eax, 5
  00f70	8b 4c 24 10	 mov	 ecx, DWORD PTR v4$[rsp]
  00f74	c1 e9 1b	 shr	 ecx, 27
  00f77	0b c8		 or	 ecx, eax
  00f79	03 ca		 add	 ecx, edx
  00f7b	48 8b 04 24	 mov	 rax, QWORD PTR w$[rsp]
  00f7f	8b 40 3c	 mov	 eax, DWORD PTR [rax+60]
  00f82	8d 8c 01 a1 eb
	d9 6e		 lea	 ecx, DWORD PTR [rcx+rax+1859775393]
  00f89	8b 44 24 08	 mov	 eax, DWORD PTR v3$[rsp]
  00f8d	03 c1		 add	 eax, ecx
  00f8f	89 44 24 08	 mov	 DWORD PTR v3$[rsp], eax
  00f93	8b 44 24 18	 mov	 eax, DWORD PTR v0$[rsp]
  00f97	c1 e8 02	 shr	 eax, 2
  00f9a	8b 4c 24 18	 mov	 ecx, DWORD PTR v0$[rsp]
  00f9e	c1 e1 1e	 shl	 ecx, 30
  00fa1	0b c1		 or	 eax, ecx
  00fa3	89 44 24 18	 mov	 DWORD PTR v0$[rsp], eax
  00fa7	48 8b 0c 24	 mov	 rcx, QWORD PTR w$[rsp]
  00fab	48 8b 04 24	 mov	 rax, QWORD PTR w$[rsp]
  00faf	8b 40 20	 mov	 eax, DWORD PTR [rax+32]
  00fb2	44 8b 41 34	 mov	 r8d, DWORD PTR [rcx+52]
  00fb6	44 33 c0	 xor	 r8d, eax
  00fb9	48 8b 04 24	 mov	 rax, QWORD PTR w$[rsp]
  00fbd	44 33 40 08	 xor	 r8d, DWORD PTR [rax+8]
  00fc1	48 8b 04 24	 mov	 rax, QWORD PTR w$[rsp]
  00fc5	44 33 00	 xor	 r8d, DWORD PTR [rax]
  00fc8	41 d1 e0	 shl	 r8d, 1
  00fcb	48 8b 14 24	 mov	 rdx, QWORD PTR w$[rsp]
  00fcf	48 8b 04 24	 mov	 rax, QWORD PTR w$[rsp]
  00fd3	8b 48 20	 mov	 ecx, DWORD PTR [rax+32]
  00fd6	8b 42 34	 mov	 eax, DWORD PTR [rdx+52]
  00fd9	33 c1		 xor	 eax, ecx
  00fdb	48 8b 0c 24	 mov	 rcx, QWORD PTR w$[rsp]
  00fdf	33 41 08	 xor	 eax, DWORD PTR [rcx+8]
  00fe2	48 8b 0c 24	 mov	 rcx, QWORD PTR w$[rsp]
  00fe6	33 01		 xor	 eax, DWORD PTR [rcx]
  00fe8	c1 e8 1f	 shr	 eax, 31
  00feb	41 8b c8	 mov	 ecx, r8d
  00fee	0b c8		 or	 ecx, eax
  00ff0	48 8b 04 24	 mov	 rax, QWORD PTR w$[rsp]
  00ff4	89 08		 mov	 DWORD PTR [rax], ecx
  00ff6	8b 44 24 18	 mov	 eax, DWORD PTR v0$[rsp]
  00ffa	8b 54 24 10	 mov	 edx, DWORD PTR v4$[rsp]
  00ffe	33 d0		 xor	 edx, eax
  01000	33 54 24 0c	 xor	 edx, DWORD PTR v1$[rsp]
  01004	8b 44 24 08	 mov	 eax, DWORD PTR v3$[rsp]
  01008	c1 e0 05	 shl	 eax, 5
  0100b	8b 4c 24 08	 mov	 ecx, DWORD PTR v3$[rsp]
  0100f	c1 e9 1b	 shr	 ecx, 27
  01012	0b c8		 or	 ecx, eax
  01014	03 ca		 add	 ecx, edx
  01016	48 8b 04 24	 mov	 rax, QWORD PTR w$[rsp]
  0101a	8b 00		 mov	 eax, DWORD PTR [rax]
  0101c	8d 8c 01 a1 eb
	d9 6e		 lea	 ecx, DWORD PTR [rcx+rax+1859775393]
  01023	8b 44 24 14	 mov	 eax, DWORD PTR v2$[rsp]
  01027	03 c1		 add	 eax, ecx
  01029	89 44 24 14	 mov	 DWORD PTR v2$[rsp], eax
  0102d	8b 44 24 10	 mov	 eax, DWORD PTR v4$[rsp]
  01031	c1 e8 02	 shr	 eax, 2
  01034	8b 4c 24 10	 mov	 ecx, DWORD PTR v4$[rsp]
  01038	c1 e1 1e	 shl	 ecx, 30
  0103b	0b c1		 or	 eax, ecx
  0103d	89 44 24 10	 mov	 DWORD PTR v4$[rsp], eax
  01041	48 8b 0c 24	 mov	 rcx, QWORD PTR w$[rsp]
  01045	48 8b 04 24	 mov	 rax, QWORD PTR w$[rsp]
  01049	8b 40 24	 mov	 eax, DWORD PTR [rax+36]
  0104c	44 8b 41 38	 mov	 r8d, DWORD PTR [rcx+56]
  01050	44 33 c0	 xor	 r8d, eax
  01053	48 8b 04 24	 mov	 rax, QWORD PTR w$[rsp]
  01057	44 33 40 0c	 xor	 r8d, DWORD PTR [rax+12]
  0105b	48 8b 04 24	 mov	 rax, QWORD PTR w$[rsp]
  0105f	44 33 40 04	 xor	 r8d, DWORD PTR [rax+4]
  01063	41 d1 e0	 shl	 r8d, 1
  01066	48 8b 14 24	 mov	 rdx, QWORD PTR w$[rsp]
  0106a	48 8b 04 24	 mov	 rax, QWORD PTR w$[rsp]
  0106e	8b 48 24	 mov	 ecx, DWORD PTR [rax+36]
  01071	8b 42 38	 mov	 eax, DWORD PTR [rdx+56]
  01074	33 c1		 xor	 eax, ecx
  01076	48 8b 0c 24	 mov	 rcx, QWORD PTR w$[rsp]
  0107a	33 41 0c	 xor	 eax, DWORD PTR [rcx+12]
  0107d	48 8b 0c 24	 mov	 rcx, QWORD PTR w$[rsp]
  01081	33 41 04	 xor	 eax, DWORD PTR [rcx+4]
  01084	c1 e8 1f	 shr	 eax, 31
  01087	41 8b c8	 mov	 ecx, r8d
  0108a	0b c8		 or	 ecx, eax
  0108c	48 8b 04 24	 mov	 rax, QWORD PTR w$[rsp]
  01090	89 48 04	 mov	 DWORD PTR [rax+4], ecx
  01093	8b 44 24 10	 mov	 eax, DWORD PTR v4$[rsp]
  01097	8b 54 24 08	 mov	 edx, DWORD PTR v3$[rsp]
  0109b	33 d0		 xor	 edx, eax
  0109d	33 54 24 18	 xor	 edx, DWORD PTR v0$[rsp]
  010a1	8b 44 24 14	 mov	 eax, DWORD PTR v2$[rsp]
  010a5	c1 e0 05	 shl	 eax, 5
  010a8	8b 4c 24 14	 mov	 ecx, DWORD PTR v2$[rsp]
  010ac	c1 e9 1b	 shr	 ecx, 27
  010af	0b c8		 or	 ecx, eax
  010b1	03 ca		 add	 ecx, edx
  010b3	48 8b 04 24	 mov	 rax, QWORD PTR w$[rsp]
  010b7	8b 40 04	 mov	 eax, DWORD PTR [rax+4]
  010ba	8d 8c 01 a1 eb
	d9 6e		 lea	 ecx, DWORD PTR [rcx+rax+1859775393]
  010c1	8b 44 24 0c	 mov	 eax, DWORD PTR v1$[rsp]
  010c5	03 c1		 add	 eax, ecx
  010c7	89 44 24 0c	 mov	 DWORD PTR v1$[rsp], eax
  010cb	8b 44 24 08	 mov	 eax, DWORD PTR v3$[rsp]
  010cf	c1 e8 02	 shr	 eax, 2
  010d2	8b 4c 24 08	 mov	 ecx, DWORD PTR v3$[rsp]
  010d6	c1 e1 1e	 shl	 ecx, 30
  010d9	0b c1		 or	 eax, ecx
  010db	89 44 24 08	 mov	 DWORD PTR v3$[rsp], eax
  010df	48 8b 0c 24	 mov	 rcx, QWORD PTR w$[rsp]
  010e3	48 8b 04 24	 mov	 rax, QWORD PTR w$[rsp]
  010e7	8b 40 28	 mov	 eax, DWORD PTR [rax+40]
  010ea	44 8b 41 3c	 mov	 r8d, DWORD PTR [rcx+60]
  010ee	44 33 c0	 xor	 r8d, eax
  010f1	48 8b 04 24	 mov	 rax, QWORD PTR w$[rsp]
  010f5	44 33 40 10	 xor	 r8d, DWORD PTR [rax+16]
  010f9	48 8b 04 24	 mov	 rax, QWORD PTR w$[rsp]
  010fd	44 33 40 08	 xor	 r8d, DWORD PTR [rax+8]
  01101	41 d1 e0	 shl	 r8d, 1
  01104	48 8b 14 24	 mov	 rdx, QWORD PTR w$[rsp]
  01108	48 8b 04 24	 mov	 rax, QWORD PTR w$[rsp]
  0110c	8b 48 28	 mov	 ecx, DWORD PTR [rax+40]
  0110f	8b 42 3c	 mov	 eax, DWORD PTR [rdx+60]
  01112	33 c1		 xor	 eax, ecx
  01114	48 8b 0c 24	 mov	 rcx, QWORD PTR w$[rsp]
  01118	33 41 10	 xor	 eax, DWORD PTR [rcx+16]
  0111b	48 8b 0c 24	 mov	 rcx, QWORD PTR w$[rsp]
  0111f	33 41 08	 xor	 eax, DWORD PTR [rcx+8]
  01122	c1 e8 1f	 shr	 eax, 31
  01125	41 8b c8	 mov	 ecx, r8d
  01128	0b c8		 or	 ecx, eax
  0112a	48 8b 04 24	 mov	 rax, QWORD PTR w$[rsp]
  0112e	89 48 08	 mov	 DWORD PTR [rax+8], ecx
  01131	8b 44 24 08	 mov	 eax, DWORD PTR v3$[rsp]
  01135	8b 54 24 14	 mov	 edx, DWORD PTR v2$[rsp]
  01139	33 d0		 xor	 edx, eax
  0113b	33 54 24 10	 xor	 edx, DWORD PTR v4$[rsp]
  0113f	8b 44 24 0c	 mov	 eax, DWORD PTR v1$[rsp]
  01143	c1 e0 05	 shl	 eax, 5
  01146	8b 4c 24 0c	 mov	 ecx, DWORD PTR v1$[rsp]
  0114a	c1 e9 1b	 shr	 ecx, 27
  0114d	0b c8		 or	 ecx, eax
  0114f	03 ca		 add	 ecx, edx
  01151	48 8b 04 24	 mov	 rax, QWORD PTR w$[rsp]
  01155	8b 40 08	 mov	 eax, DWORD PTR [rax+8]
  01158	8d 8c 01 a1 eb
	d9 6e		 lea	 ecx, DWORD PTR [rcx+rax+1859775393]
  0115f	8b 44 24 18	 mov	 eax, DWORD PTR v0$[rsp]
  01163	03 c1		 add	 eax, ecx
  01165	89 44 24 18	 mov	 DWORD PTR v0$[rsp], eax
  01169	8b 44 24 14	 mov	 eax, DWORD PTR v2$[rsp]
  0116d	c1 e8 02	 shr	 eax, 2
  01170	8b 4c 24 14	 mov	 ecx, DWORD PTR v2$[rsp]
  01174	c1 e1 1e	 shl	 ecx, 30
  01177	0b c1		 or	 eax, ecx
  01179	89 44 24 14	 mov	 DWORD PTR v2$[rsp], eax

; 173  :     five_cycle(v, parity, 0x6ed9eba1,  35);

  0117d	48 8b 0c 24	 mov	 rcx, QWORD PTR w$[rsp]
  01181	48 8b 04 24	 mov	 rax, QWORD PTR w$[rsp]
  01185	8b 40 2c	 mov	 eax, DWORD PTR [rax+44]
  01188	44 8b 01	 mov	 r8d, DWORD PTR [rcx]
  0118b	44 33 c0	 xor	 r8d, eax
  0118e	48 8b 04 24	 mov	 rax, QWORD PTR w$[rsp]
  01192	44 33 40 14	 xor	 r8d, DWORD PTR [rax+20]
  01196	48 8b 04 24	 mov	 rax, QWORD PTR w$[rsp]
  0119a	44 33 40 0c	 xor	 r8d, DWORD PTR [rax+12]
  0119e	41 d1 e0	 shl	 r8d, 1
  011a1	48 8b 14 24	 mov	 rdx, QWORD PTR w$[rsp]
  011a5	48 8b 04 24	 mov	 rax, QWORD PTR w$[rsp]
  011a9	8b 48 2c	 mov	 ecx, DWORD PTR [rax+44]
  011ac	8b 02		 mov	 eax, DWORD PTR [rdx]
  011ae	33 c1		 xor	 eax, ecx
  011b0	48 8b 0c 24	 mov	 rcx, QWORD PTR w$[rsp]
  011b4	33 41 14	 xor	 eax, DWORD PTR [rcx+20]
  011b7	48 8b 0c 24	 mov	 rcx, QWORD PTR w$[rsp]
  011bb	33 41 0c	 xor	 eax, DWORD PTR [rcx+12]
  011be	c1 e8 1f	 shr	 eax, 31
  011c1	41 8b c8	 mov	 ecx, r8d
  011c4	0b c8		 or	 ecx, eax
  011c6	48 8b 04 24	 mov	 rax, QWORD PTR w$[rsp]
  011ca	89 48 0c	 mov	 DWORD PTR [rax+12], ecx
  011cd	8b 44 24 14	 mov	 eax, DWORD PTR v2$[rsp]
  011d1	8b 54 24 0c	 mov	 edx, DWORD PTR v1$[rsp]
  011d5	33 d0		 xor	 edx, eax
  011d7	33 54 24 08	 xor	 edx, DWORD PTR v3$[rsp]
  011db	8b 44 24 18	 mov	 eax, DWORD PTR v0$[rsp]
  011df	c1 e0 05	 shl	 eax, 5
  011e2	8b 4c 24 18	 mov	 ecx, DWORD PTR v0$[rsp]
  011e6	c1 e9 1b	 shr	 ecx, 27
  011e9	0b c8		 or	 ecx, eax
  011eb	03 ca		 add	 ecx, edx
  011ed	48 8b 04 24	 mov	 rax, QWORD PTR w$[rsp]
  011f1	8b 40 0c	 mov	 eax, DWORD PTR [rax+12]
  011f4	8d 8c 01 a1 eb
	d9 6e		 lea	 ecx, DWORD PTR [rcx+rax+1859775393]
  011fb	8b 44 24 10	 mov	 eax, DWORD PTR v4$[rsp]
  011ff	03 c1		 add	 eax, ecx
  01201	89 44 24 10	 mov	 DWORD PTR v4$[rsp], eax
  01205	8b 44 24 0c	 mov	 eax, DWORD PTR v1$[rsp]
  01209	c1 e8 02	 shr	 eax, 2
  0120c	8b 4c 24 0c	 mov	 ecx, DWORD PTR v1$[rsp]
  01210	c1 e1 1e	 shl	 ecx, 30
  01213	0b c1		 or	 eax, ecx
  01215	89 44 24 0c	 mov	 DWORD PTR v1$[rsp], eax
  01219	48 8b 0c 24	 mov	 rcx, QWORD PTR w$[rsp]
  0121d	48 8b 04 24	 mov	 rax, QWORD PTR w$[rsp]
  01221	8b 40 30	 mov	 eax, DWORD PTR [rax+48]
  01224	44 8b 41 04	 mov	 r8d, DWORD PTR [rcx+4]
  01228	44 33 c0	 xor	 r8d, eax
  0122b	48 8b 04 24	 mov	 rax, QWORD PTR w$[rsp]
  0122f	44 33 40 18	 xor	 r8d, DWORD PTR [rax+24]
  01233	48 8b 04 24	 mov	 rax, QWORD PTR w$[rsp]
  01237	44 33 40 10	 xor	 r8d, DWORD PTR [rax+16]
  0123b	41 d1 e0	 shl	 r8d, 1
  0123e	48 8b 14 24	 mov	 rdx, QWORD PTR w$[rsp]
  01242	48 8b 04 24	 mov	 rax, QWORD PTR w$[rsp]
  01246	8b 48 30	 mov	 ecx, DWORD PTR [rax+48]
  01249	8b 42 04	 mov	 eax, DWORD PTR [rdx+4]
  0124c	33 c1		 xor	 eax, ecx
  0124e	48 8b 0c 24	 mov	 rcx, QWORD PTR w$[rsp]
  01252	33 41 18	 xor	 eax, DWORD PTR [rcx+24]
  01255	48 8b 0c 24	 mov	 rcx, QWORD PTR w$[rsp]
  01259	33 41 10	 xor	 eax, DWORD PTR [rcx+16]
  0125c	c1 e8 1f	 shr	 eax, 31
  0125f	41 8b c8	 mov	 ecx, r8d
  01262	0b c8		 or	 ecx, eax
  01264	48 8b 04 24	 mov	 rax, QWORD PTR w$[rsp]
  01268	89 48 10	 mov	 DWORD PTR [rax+16], ecx
  0126b	8b 44 24 0c	 mov	 eax, DWORD PTR v1$[rsp]
  0126f	8b 54 24 18	 mov	 edx, DWORD PTR v0$[rsp]
  01273	33 d0		 xor	 edx, eax
  01275	33 54 24 14	 xor	 edx, DWORD PTR v2$[rsp]
  01279	8b 44 24 10	 mov	 eax, DWORD PTR v4$[rsp]
  0127d	c1 e0 05	 shl	 eax, 5
  01280	8b 4c 24 10	 mov	 ecx, DWORD PTR v4$[rsp]
  01284	c1 e9 1b	 shr	 ecx, 27
  01287	0b c8		 or	 ecx, eax
  01289	03 ca		 add	 ecx, edx
  0128b	48 8b 04 24	 mov	 rax, QWORD PTR w$[rsp]
  0128f	8b 40 10	 mov	 eax, DWORD PTR [rax+16]
  01292	8d 8c 01 a1 eb
	d9 6e		 lea	 ecx, DWORD PTR [rcx+rax+1859775393]
  01299	8b 44 24 08	 mov	 eax, DWORD PTR v3$[rsp]
  0129d	03 c1		 add	 eax, ecx
  0129f	89 44 24 08	 mov	 DWORD PTR v3$[rsp], eax
  012a3	8b 44 24 18	 mov	 eax, DWORD PTR v0$[rsp]
  012a7	c1 e8 02	 shr	 eax, 2
  012aa	8b 4c 24 18	 mov	 ecx, DWORD PTR v0$[rsp]
  012ae	c1 e1 1e	 shl	 ecx, 30
  012b1	0b c1		 or	 eax, ecx
  012b3	89 44 24 18	 mov	 DWORD PTR v0$[rsp], eax
  012b7	48 8b 0c 24	 mov	 rcx, QWORD PTR w$[rsp]
  012bb	48 8b 04 24	 mov	 rax, QWORD PTR w$[rsp]
  012bf	8b 40 34	 mov	 eax, DWORD PTR [rax+52]
  012c2	44 8b 41 08	 mov	 r8d, DWORD PTR [rcx+8]
  012c6	44 33 c0	 xor	 r8d, eax
  012c9	48 8b 04 24	 mov	 rax, QWORD PTR w$[rsp]
  012cd	44 33 40 1c	 xor	 r8d, DWORD PTR [rax+28]
  012d1	48 8b 04 24	 mov	 rax, QWORD PTR w$[rsp]
  012d5	44 33 40 14	 xor	 r8d, DWORD PTR [rax+20]
  012d9	41 d1 e0	 shl	 r8d, 1
  012dc	48 8b 14 24	 mov	 rdx, QWORD PTR w$[rsp]
  012e0	48 8b 04 24	 mov	 rax, QWORD PTR w$[rsp]
  012e4	8b 48 34	 mov	 ecx, DWORD PTR [rax+52]
  012e7	8b 42 08	 mov	 eax, DWORD PTR [rdx+8]
  012ea	33 c1		 xor	 eax, ecx
  012ec	48 8b 0c 24	 mov	 rcx, QWORD PTR w$[rsp]
  012f0	33 41 1c	 xor	 eax, DWORD PTR [rcx+28]
  012f3	48 8b 0c 24	 mov	 rcx, QWORD PTR w$[rsp]
  012f7	33 41 14	 xor	 eax, DWORD PTR [rcx+20]
  012fa	c1 e8 1f	 shr	 eax, 31
  012fd	41 8b c8	 mov	 ecx, r8d
  01300	0b c8		 or	 ecx, eax
  01302	48 8b 04 24	 mov	 rax, QWORD PTR w$[rsp]
  01306	89 48 14	 mov	 DWORD PTR [rax+20], ecx
  01309	8b 44 24 18	 mov	 eax, DWORD PTR v0$[rsp]
  0130d	8b 54 24 10	 mov	 edx, DWORD PTR v4$[rsp]
  01311	33 d0		 xor	 edx, eax
  01313	33 54 24 0c	 xor	 edx, DWORD PTR v1$[rsp]
  01317	8b 44 24 08	 mov	 eax, DWORD PTR v3$[rsp]
  0131b	c1 e0 05	 shl	 eax, 5
  0131e	8b 4c 24 08	 mov	 ecx, DWORD PTR v3$[rsp]
  01322	c1 e9 1b	 shr	 ecx, 27
  01325	0b c8		 or	 ecx, eax
  01327	03 ca		 add	 ecx, edx
  01329	48 8b 04 24	 mov	 rax, QWORD PTR w$[rsp]
  0132d	8b 40 14	 mov	 eax, DWORD PTR [rax+20]
  01330	8d 8c 01 a1 eb
	d9 6e		 lea	 ecx, DWORD PTR [rcx+rax+1859775393]
  01337	8b 44 24 14	 mov	 eax, DWORD PTR v2$[rsp]
  0133b	03 c1		 add	 eax, ecx
  0133d	89 44 24 14	 mov	 DWORD PTR v2$[rsp], eax
  01341	8b 44 24 10	 mov	 eax, DWORD PTR v4$[rsp]
  01345	c1 e8 02	 shr	 eax, 2
  01348	8b 4c 24 10	 mov	 ecx, DWORD PTR v4$[rsp]
  0134c	c1 e1 1e	 shl	 ecx, 30
  0134f	0b c1		 or	 eax, ecx
  01351	89 44 24 10	 mov	 DWORD PTR v4$[rsp], eax
  01355	48 8b 0c 24	 mov	 rcx, QWORD PTR w$[rsp]
  01359	48 8b 04 24	 mov	 rax, QWORD PTR w$[rsp]
  0135d	8b 40 38	 mov	 eax, DWORD PTR [rax+56]
  01360	44 8b 41 0c	 mov	 r8d, DWORD PTR [rcx+12]
  01364	44 33 c0	 xor	 r8d, eax
  01367	48 8b 04 24	 mov	 rax, QWORD PTR w$[rsp]
  0136b	44 33 40 20	 xor	 r8d, DWORD PTR [rax+32]
  0136f	48 8b 04 24	 mov	 rax, QWORD PTR w$[rsp]
  01373	44 33 40 18	 xor	 r8d, DWORD PTR [rax+24]
  01377	41 d1 e0	 shl	 r8d, 1
  0137a	48 8b 14 24	 mov	 rdx, QWORD PTR w$[rsp]
  0137e	48 8b 04 24	 mov	 rax, QWORD PTR w$[rsp]
  01382	8b 48 38	 mov	 ecx, DWORD PTR [rax+56]
  01385	8b 42 0c	 mov	 eax, DWORD PTR [rdx+12]
  01388	33 c1		 xor	 eax, ecx
  0138a	48 8b 0c 24	 mov	 rcx, QWORD PTR w$[rsp]
  0138e	33 41 20	 xor	 eax, DWORD PTR [rcx+32]
  01391	48 8b 0c 24	 mov	 rcx, QWORD PTR w$[rsp]
  01395	33 41 18	 xor	 eax, DWORD PTR [rcx+24]
  01398	c1 e8 1f	 shr	 eax, 31
  0139b	41 8b c8	 mov	 ecx, r8d
  0139e	0b c8		 or	 ecx, eax
  013a0	48 8b 04 24	 mov	 rax, QWORD PTR w$[rsp]
  013a4	89 48 18	 mov	 DWORD PTR [rax+24], ecx
  013a7	8b 44 24 10	 mov	 eax, DWORD PTR v4$[rsp]
  013ab	8b 54 24 08	 mov	 edx, DWORD PTR v3$[rsp]
  013af	33 d0		 xor	 edx, eax
  013b1	33 54 24 18	 xor	 edx, DWORD PTR v0$[rsp]
  013b5	8b 44 24 14	 mov	 eax, DWORD PTR v2$[rsp]
  013b9	c1 e0 05	 shl	 eax, 5
  013bc	8b 4c 24 14	 mov	 ecx, DWORD PTR v2$[rsp]
  013c0	c1 e9 1b	 shr	 ecx, 27
  013c3	0b c8		 or	 ecx, eax
  013c5	03 ca		 add	 ecx, edx
  013c7	48 8b 04 24	 mov	 rax, QWORD PTR w$[rsp]
  013cb	8b 40 18	 mov	 eax, DWORD PTR [rax+24]
  013ce	8d 8c 01 a1 eb
	d9 6e		 lea	 ecx, DWORD PTR [rcx+rax+1859775393]
  013d5	8b 44 24 0c	 mov	 eax, DWORD PTR v1$[rsp]
  013d9	03 c1		 add	 eax, ecx
  013db	89 44 24 0c	 mov	 DWORD PTR v1$[rsp], eax
  013df	8b 44 24 08	 mov	 eax, DWORD PTR v3$[rsp]
  013e3	c1 e8 02	 shr	 eax, 2
  013e6	8b 4c 24 08	 mov	 ecx, DWORD PTR v3$[rsp]
  013ea	c1 e1 1e	 shl	 ecx, 30
  013ed	0b c1		 or	 eax, ecx
  013ef	89 44 24 08	 mov	 DWORD PTR v3$[rsp], eax
  013f3	48 8b 0c 24	 mov	 rcx, QWORD PTR w$[rsp]
  013f7	48 8b 04 24	 mov	 rax, QWORD PTR w$[rsp]
  013fb	8b 40 3c	 mov	 eax, DWORD PTR [rax+60]
  013fe	44 8b 41 10	 mov	 r8d, DWORD PTR [rcx+16]
  01402	44 33 c0	 xor	 r8d, eax
  01405	48 8b 04 24	 mov	 rax, QWORD PTR w$[rsp]
  01409	44 33 40 24	 xor	 r8d, DWORD PTR [rax+36]
  0140d	48 8b 04 24	 mov	 rax, QWORD PTR w$[rsp]
  01411	44 33 40 1c	 xor	 r8d, DWORD PTR [rax+28]
  01415	41 d1 e0	 shl	 r8d, 1
  01418	48 8b 14 24	 mov	 rdx, QWORD PTR w$[rsp]
  0141c	48 8b 04 24	 mov	 rax, QWORD PTR w$[rsp]
  01420	8b 48 3c	 mov	 ecx, DWORD PTR [rax+60]
  01423	8b 42 10	 mov	 eax, DWORD PTR [rdx+16]
  01426	33 c1		 xor	 eax, ecx
  01428	48 8b 0c 24	 mov	 rcx, QWORD PTR w$[rsp]
  0142c	33 41 24	 xor	 eax, DWORD PTR [rcx+36]
  0142f	48 8b 0c 24	 mov	 rcx, QWORD PTR w$[rsp]
  01433	33 41 1c	 xor	 eax, DWORD PTR [rcx+28]
  01436	c1 e8 1f	 shr	 eax, 31
  01439	41 8b c8	 mov	 ecx, r8d
  0143c	0b c8		 or	 ecx, eax
  0143e	48 8b 04 24	 mov	 rax, QWORD PTR w$[rsp]
  01442	89 48 1c	 mov	 DWORD PTR [rax+28], ecx
  01445	8b 44 24 08	 mov	 eax, DWORD PTR v3$[rsp]
  01449	8b 54 24 14	 mov	 edx, DWORD PTR v2$[rsp]
  0144d	33 d0		 xor	 edx, eax
  0144f	33 54 24 10	 xor	 edx, DWORD PTR v4$[rsp]
  01453	8b 44 24 0c	 mov	 eax, DWORD PTR v1$[rsp]
  01457	c1 e0 05	 shl	 eax, 5
  0145a	8b 4c 24 0c	 mov	 ecx, DWORD PTR v1$[rsp]
  0145e	c1 e9 1b	 shr	 ecx, 27
  01461	0b c8		 or	 ecx, eax
  01463	03 ca		 add	 ecx, edx
  01465	48 8b 04 24	 mov	 rax, QWORD PTR w$[rsp]
  01469	8b 40 1c	 mov	 eax, DWORD PTR [rax+28]
  0146c	8d 8c 01 a1 eb
	d9 6e		 lea	 ecx, DWORD PTR [rcx+rax+1859775393]
  01473	8b 44 24 18	 mov	 eax, DWORD PTR v0$[rsp]
  01477	03 c1		 add	 eax, ecx
  01479	89 44 24 18	 mov	 DWORD PTR v0$[rsp], eax
  0147d	8b 44 24 14	 mov	 eax, DWORD PTR v2$[rsp]
  01481	c1 e8 02	 shr	 eax, 2
  01484	8b 4c 24 14	 mov	 ecx, DWORD PTR v2$[rsp]
  01488	c1 e1 1e	 shl	 ecx, 30
  0148b	0b c1		 or	 eax, ecx
  0148d	89 44 24 14	 mov	 DWORD PTR v2$[rsp], eax

; 174  : 
; 175  :     five_cycle(v, maj, 0x8f1bbcdc,  40);

  01491	48 8b 0c 24	 mov	 rcx, QWORD PTR w$[rsp]
  01495	48 8b 04 24	 mov	 rax, QWORD PTR w$[rsp]
  01499	8b 00		 mov	 eax, DWORD PTR [rax]
  0149b	44 8b 41 14	 mov	 r8d, DWORD PTR [rcx+20]
  0149f	44 33 c0	 xor	 r8d, eax
  014a2	48 8b 04 24	 mov	 rax, QWORD PTR w$[rsp]
  014a6	44 33 40 28	 xor	 r8d, DWORD PTR [rax+40]
  014aa	48 8b 04 24	 mov	 rax, QWORD PTR w$[rsp]
  014ae	44 33 40 20	 xor	 r8d, DWORD PTR [rax+32]
  014b2	41 d1 e0	 shl	 r8d, 1
  014b5	48 8b 14 24	 mov	 rdx, QWORD PTR w$[rsp]
  014b9	48 8b 04 24	 mov	 rax, QWORD PTR w$[rsp]
  014bd	8b 08		 mov	 ecx, DWORD PTR [rax]
  014bf	8b 42 14	 mov	 eax, DWORD PTR [rdx+20]
  014c2	33 c1		 xor	 eax, ecx
  014c4	48 8b 0c 24	 mov	 rcx, QWORD PTR w$[rsp]
  014c8	33 41 28	 xor	 eax, DWORD PTR [rcx+40]
  014cb	48 8b 0c 24	 mov	 rcx, QWORD PTR w$[rsp]
  014cf	33 41 20	 xor	 eax, DWORD PTR [rcx+32]
  014d2	c1 e8 1f	 shr	 eax, 31
  014d5	41 8b c8	 mov	 ecx, r8d
  014d8	0b c8		 or	 ecx, eax
  014da	48 8b 04 24	 mov	 rax, QWORD PTR w$[rsp]
  014de	89 48 20	 mov	 DWORD PTR [rax+32], ecx
  014e1	8b 4c 24 14	 mov	 ecx, DWORD PTR v2$[rsp]
  014e5	8b 44 24 0c	 mov	 eax, DWORD PTR v1$[rsp]
  014e9	33 c1		 xor	 eax, ecx
  014eb	8b 54 24 08	 mov	 edx, DWORD PTR v3$[rsp]
  014ef	23 d0		 and	 edx, eax
  014f1	8b 44 24 14	 mov	 eax, DWORD PTR v2$[rsp]
  014f5	8b 4c 24 0c	 mov	 ecx, DWORD PTR v1$[rsp]
  014f9	23 c8		 and	 ecx, eax
  014fb	0b ca		 or	 ecx, edx
  014fd	8b 44 24 18	 mov	 eax, DWORD PTR v0$[rsp]
  01501	c1 e0 05	 shl	 eax, 5
  01504	8b 54 24 18	 mov	 edx, DWORD PTR v0$[rsp]
  01508	c1 ea 1b	 shr	 edx, 27
  0150b	0b d0		 or	 edx, eax
  0150d	03 d1		 add	 edx, ecx
  0150f	48 8b 04 24	 mov	 rax, QWORD PTR w$[rsp]
  01513	8b 48 20	 mov	 ecx, DWORD PTR [rax+32]
  01516	b8 dc bc 1b 8f	 mov	 eax, -1894007588	; ffffffff8f1bbcdcH
  0151b	48 03 c2	 add	 rax, rdx
  0151e	03 c8		 add	 ecx, eax
  01520	8b 44 24 10	 mov	 eax, DWORD PTR v4$[rsp]
  01524	03 c1		 add	 eax, ecx
  01526	89 44 24 10	 mov	 DWORD PTR v4$[rsp], eax
  0152a	8b 44 24 0c	 mov	 eax, DWORD PTR v1$[rsp]
  0152e	c1 e8 02	 shr	 eax, 2
  01531	8b 4c 24 0c	 mov	 ecx, DWORD PTR v1$[rsp]
  01535	c1 e1 1e	 shl	 ecx, 30
  01538	0b c1		 or	 eax, ecx
  0153a	89 44 24 0c	 mov	 DWORD PTR v1$[rsp], eax
  0153e	48 8b 0c 24	 mov	 rcx, QWORD PTR w$[rsp]
  01542	48 8b 04 24	 mov	 rax, QWORD PTR w$[rsp]
  01546	8b 40 04	 mov	 eax, DWORD PTR [rax+4]
  01549	44 8b 41 18	 mov	 r8d, DWORD PTR [rcx+24]
  0154d	44 33 c0	 xor	 r8d, eax
  01550	48 8b 04 24	 mov	 rax, QWORD PTR w$[rsp]
  01554	44 33 40 2c	 xor	 r8d, DWORD PTR [rax+44]
  01558	48 8b 04 24	 mov	 rax, QWORD PTR w$[rsp]
  0155c	44 33 40 24	 xor	 r8d, DWORD PTR [rax+36]
  01560	41 d1 e0	 shl	 r8d, 1
  01563	48 8b 14 24	 mov	 rdx, QWORD PTR w$[rsp]
  01567	48 8b 04 24	 mov	 rax, QWORD PTR w$[rsp]
  0156b	8b 48 04	 mov	 ecx, DWORD PTR [rax+4]
  0156e	8b 42 18	 mov	 eax, DWORD PTR [rdx+24]
  01571	33 c1		 xor	 eax, ecx
  01573	48 8b 0c 24	 mov	 rcx, QWORD PTR w$[rsp]
  01577	33 41 2c	 xor	 eax, DWORD PTR [rcx+44]
  0157a	48 8b 0c 24	 mov	 rcx, QWORD PTR w$[rsp]
  0157e	33 41 24	 xor	 eax, DWORD PTR [rcx+36]
  01581	c1 e8 1f	 shr	 eax, 31
  01584	41 8b c8	 mov	 ecx, r8d
  01587	0b c8		 or	 ecx, eax
  01589	48 8b 04 24	 mov	 rax, QWORD PTR w$[rsp]
  0158d	89 48 24	 mov	 DWORD PTR [rax+36], ecx
  01590	8b 4c 24 0c	 mov	 ecx, DWORD PTR v1$[rsp]
  01594	8b 44 24 18	 mov	 eax, DWORD PTR v0$[rsp]
  01598	33 c1		 xor	 eax, ecx
  0159a	8b 54 24 14	 mov	 edx, DWORD PTR v2$[rsp]
  0159e	23 d0		 and	 edx, eax
  015a0	8b 44 24 0c	 mov	 eax, DWORD PTR v1$[rsp]
  015a4	8b 4c 24 18	 mov	 ecx, DWORD PTR v0$[rsp]
  015a8	23 c8		 and	 ecx, eax
  015aa	0b ca		 or	 ecx, edx
  015ac	8b 44 24 10	 mov	 eax, DWORD PTR v4$[rsp]
  015b0	c1 e0 05	 shl	 eax, 5
  015b3	8b 54 24 10	 mov	 edx, DWORD PTR v4$[rsp]
  015b7	c1 ea 1b	 shr	 edx, 27
  015ba	0b d0		 or	 edx, eax
  015bc	03 d1		 add	 edx, ecx
  015be	48 8b 04 24	 mov	 rax, QWORD PTR w$[rsp]
  015c2	8b 48 24	 mov	 ecx, DWORD PTR [rax+36]
  015c5	b8 dc bc 1b 8f	 mov	 eax, -1894007588	; ffffffff8f1bbcdcH
  015ca	48 03 c2	 add	 rax, rdx
  015cd	03 c8		 add	 ecx, eax
  015cf	8b 44 24 08	 mov	 eax, DWORD PTR v3$[rsp]
  015d3	03 c1		 add	 eax, ecx
  015d5	89 44 24 08	 mov	 DWORD PTR v3$[rsp], eax
  015d9	8b 44 24 18	 mov	 eax, DWORD PTR v0$[rsp]
  015dd	c1 e8 02	 shr	 eax, 2
  015e0	8b 4c 24 18	 mov	 ecx, DWORD PTR v0$[rsp]
  015e4	c1 e1 1e	 shl	 ecx, 30
  015e7	0b c1		 or	 eax, ecx
  015e9	89 44 24 18	 mov	 DWORD PTR v0$[rsp], eax
  015ed	48 8b 0c 24	 mov	 rcx, QWORD PTR w$[rsp]
  015f1	48 8b 04 24	 mov	 rax, QWORD PTR w$[rsp]
  015f5	8b 40 08	 mov	 eax, DWORD PTR [rax+8]
  015f8	44 8b 41 1c	 mov	 r8d, DWORD PTR [rcx+28]
  015fc	44 33 c0	 xor	 r8d, eax
  015ff	48 8b 04 24	 mov	 rax, QWORD PTR w$[rsp]
  01603	44 33 40 30	 xor	 r8d, DWORD PTR [rax+48]
  01607	48 8b 04 24	 mov	 rax, QWORD PTR w$[rsp]
  0160b	44 33 40 28	 xor	 r8d, DWORD PTR [rax+40]
  0160f	41 d1 e0	 shl	 r8d, 1
  01612	48 8b 14 24	 mov	 rdx, QWORD PTR w$[rsp]
  01616	48 8b 04 24	 mov	 rax, QWORD PTR w$[rsp]
  0161a	8b 48 08	 mov	 ecx, DWORD PTR [rax+8]
  0161d	8b 42 1c	 mov	 eax, DWORD PTR [rdx+28]
  01620	33 c1		 xor	 eax, ecx
  01622	48 8b 0c 24	 mov	 rcx, QWORD PTR w$[rsp]
  01626	33 41 30	 xor	 eax, DWORD PTR [rcx+48]
  01629	48 8b 0c 24	 mov	 rcx, QWORD PTR w$[rsp]
  0162d	33 41 28	 xor	 eax, DWORD PTR [rcx+40]
  01630	c1 e8 1f	 shr	 eax, 31
  01633	41 8b c8	 mov	 ecx, r8d
  01636	0b c8		 or	 ecx, eax
  01638	48 8b 04 24	 mov	 rax, QWORD PTR w$[rsp]
  0163c	89 48 28	 mov	 DWORD PTR [rax+40], ecx
  0163f	8b 4c 24 18	 mov	 ecx, DWORD PTR v0$[rsp]
  01643	8b 44 24 10	 mov	 eax, DWORD PTR v4$[rsp]
  01647	33 c1		 xor	 eax, ecx
  01649	8b 54 24 0c	 mov	 edx, DWORD PTR v1$[rsp]
  0164d	23 d0		 and	 edx, eax
  0164f	8b 44 24 18	 mov	 eax, DWORD PTR v0$[rsp]
  01653	8b 4c 24 10	 mov	 ecx, DWORD PTR v4$[rsp]
  01657	23 c8		 and	 ecx, eax
  01659	0b ca		 or	 ecx, edx
  0165b	8b 44 24 08	 mov	 eax, DWORD PTR v3$[rsp]
  0165f	c1 e0 05	 shl	 eax, 5
  01662	8b 54 24 08	 mov	 edx, DWORD PTR v3$[rsp]
  01666	c1 ea 1b	 shr	 edx, 27
  01669	0b d0		 or	 edx, eax
  0166b	03 d1		 add	 edx, ecx
  0166d	48 8b 04 24	 mov	 rax, QWORD PTR w$[rsp]
  01671	8b 48 28	 mov	 ecx, DWORD PTR [rax+40]
  01674	b8 dc bc 1b 8f	 mov	 eax, -1894007588	; ffffffff8f1bbcdcH
  01679	48 03 c2	 add	 rax, rdx
  0167c	03 c8		 add	 ecx, eax
  0167e	8b 44 24 14	 mov	 eax, DWORD PTR v2$[rsp]
  01682	03 c1		 add	 eax, ecx
  01684	89 44 24 14	 mov	 DWORD PTR v2$[rsp], eax
  01688	8b 44 24 10	 mov	 eax, DWORD PTR v4$[rsp]
  0168c	c1 e8 02	 shr	 eax, 2
  0168f	8b 4c 24 10	 mov	 ecx, DWORD PTR v4$[rsp]
  01693	c1 e1 1e	 shl	 ecx, 30
  01696	0b c1		 or	 eax, ecx
  01698	89 44 24 10	 mov	 DWORD PTR v4$[rsp], eax
  0169c	48 8b 0c 24	 mov	 rcx, QWORD PTR w$[rsp]
  016a0	48 8b 04 24	 mov	 rax, QWORD PTR w$[rsp]
  016a4	8b 40 0c	 mov	 eax, DWORD PTR [rax+12]
  016a7	44 8b 41 20	 mov	 r8d, DWORD PTR [rcx+32]
  016ab	44 33 c0	 xor	 r8d, eax
  016ae	48 8b 04 24	 mov	 rax, QWORD PTR w$[rsp]
  016b2	44 33 40 34	 xor	 r8d, DWORD PTR [rax+52]
  016b6	48 8b 04 24	 mov	 rax, QWORD PTR w$[rsp]
  016ba	44 33 40 2c	 xor	 r8d, DWORD PTR [rax+44]
  016be	41 d1 e0	 shl	 r8d, 1
  016c1	48 8b 14 24	 mov	 rdx, QWORD PTR w$[rsp]
  016c5	48 8b 04 24	 mov	 rax, QWORD PTR w$[rsp]
  016c9	8b 48 0c	 mov	 ecx, DWORD PTR [rax+12]
  016cc	8b 42 20	 mov	 eax, DWORD PTR [rdx+32]
  016cf	33 c1		 xor	 eax, ecx
  016d1	48 8b 0c 24	 mov	 rcx, QWORD PTR w$[rsp]
  016d5	33 41 34	 xor	 eax, DWORD PTR [rcx+52]
  016d8	48 8b 0c 24	 mov	 rcx, QWORD PTR w$[rsp]
  016dc	33 41 2c	 xor	 eax, DWORD PTR [rcx+44]
  016df	c1 e8 1f	 shr	 eax, 31
  016e2	41 8b c8	 mov	 ecx, r8d
  016e5	0b c8		 or	 ecx, eax
  016e7	48 8b 04 24	 mov	 rax, QWORD PTR w$[rsp]
  016eb	89 48 2c	 mov	 DWORD PTR [rax+44], ecx
  016ee	8b 4c 24 10	 mov	 ecx, DWORD PTR v4$[rsp]
  016f2	8b 44 24 08	 mov	 eax, DWORD PTR v3$[rsp]
  016f6	33 c1		 xor	 eax, ecx
  016f8	8b 54 24 18	 mov	 edx, DWORD PTR v0$[rsp]
  016fc	23 d0		 and	 edx, eax
  016fe	8b 44 24 10	 mov	 eax, DWORD PTR v4$[rsp]
  01702	8b 4c 24 08	 mov	 ecx, DWORD PTR v3$[rsp]
  01706	23 c8		 and	 ecx, eax
  01708	0b ca		 or	 ecx, edx
  0170a	8b 44 24 14	 mov	 eax, DWORD PTR v2$[rsp]
  0170e	c1 e0 05	 shl	 eax, 5
  01711	8b 54 24 14	 mov	 edx, DWORD PTR v2$[rsp]
  01715	c1 ea 1b	 shr	 edx, 27
  01718	0b d0		 or	 edx, eax
  0171a	03 d1		 add	 edx, ecx
  0171c	48 8b 04 24	 mov	 rax, QWORD PTR w$[rsp]
  01720	8b 48 2c	 mov	 ecx, DWORD PTR [rax+44]
  01723	b8 dc bc 1b 8f	 mov	 eax, -1894007588	; ffffffff8f1bbcdcH
  01728	48 03 c2	 add	 rax, rdx
  0172b	03 c8		 add	 ecx, eax
  0172d	8b 44 24 0c	 mov	 eax, DWORD PTR v1$[rsp]
  01731	03 c1		 add	 eax, ecx
  01733	89 44 24 0c	 mov	 DWORD PTR v1$[rsp], eax
  01737	8b 44 24 08	 mov	 eax, DWORD PTR v3$[rsp]
  0173b	c1 e8 02	 shr	 eax, 2
  0173e	8b 4c 24 08	 mov	 ecx, DWORD PTR v3$[rsp]
  01742	c1 e1 1e	 shl	 ecx, 30
  01745	0b c1		 or	 eax, ecx
  01747	89 44 24 08	 mov	 DWORD PTR v3$[rsp], eax
  0174b	48 8b 0c 24	 mov	 rcx, QWORD PTR w$[rsp]
  0174f	48 8b 04 24	 mov	 rax, QWORD PTR w$[rsp]
  01753	8b 40 10	 mov	 eax, DWORD PTR [rax+16]
  01756	44 8b 41 24	 mov	 r8d, DWORD PTR [rcx+36]
  0175a	44 33 c0	 xor	 r8d, eax
  0175d	48 8b 04 24	 mov	 rax, QWORD PTR w$[rsp]
  01761	44 33 40 38	 xor	 r8d, DWORD PTR [rax+56]
  01765	48 8b 04 24	 mov	 rax, QWORD PTR w$[rsp]
  01769	44 33 40 30	 xor	 r8d, DWORD PTR [rax+48]
  0176d	41 d1 e0	 shl	 r8d, 1
  01770	48 8b 14 24	 mov	 rdx, QWORD PTR w$[rsp]
  01774	48 8b 04 24	 mov	 rax, QWORD PTR w$[rsp]
  01778	8b 48 10	 mov	 ecx, DWORD PTR [rax+16]
  0177b	8b 42 24	 mov	 eax, DWORD PTR [rdx+36]
  0177e	33 c1		 xor	 eax, ecx
  01780	48 8b 0c 24	 mov	 rcx, QWORD PTR w$[rsp]
  01784	33 41 38	 xor	 eax, DWORD PTR [rcx+56]
  01787	48 8b 0c 24	 mov	 rcx, QWORD PTR w$[rsp]
  0178b	33 41 30	 xor	 eax, DWORD PTR [rcx+48]
  0178e	c1 e8 1f	 shr	 eax, 31
  01791	41 8b c8	 mov	 ecx, r8d
  01794	0b c8		 or	 ecx, eax
  01796	48 8b 04 24	 mov	 rax, QWORD PTR w$[rsp]
  0179a	89 48 30	 mov	 DWORD PTR [rax+48], ecx
  0179d	8b 4c 24 08	 mov	 ecx, DWORD PTR v3$[rsp]
  017a1	8b 44 24 14	 mov	 eax, DWORD PTR v2$[rsp]
  017a5	33 c1		 xor	 eax, ecx
  017a7	8b 54 24 10	 mov	 edx, DWORD PTR v4$[rsp]
  017ab	23 d0		 and	 edx, eax
  017ad	8b 44 24 08	 mov	 eax, DWORD PTR v3$[rsp]
  017b1	8b 4c 24 14	 mov	 ecx, DWORD PTR v2$[rsp]
  017b5	23 c8		 and	 ecx, eax
  017b7	0b ca		 or	 ecx, edx
  017b9	8b 44 24 0c	 mov	 eax, DWORD PTR v1$[rsp]
  017bd	c1 e0 05	 shl	 eax, 5
  017c0	8b 54 24 0c	 mov	 edx, DWORD PTR v1$[rsp]
  017c4	c1 ea 1b	 shr	 edx, 27
  017c7	0b d0		 or	 edx, eax
  017c9	03 d1		 add	 edx, ecx
  017cb	48 8b 04 24	 mov	 rax, QWORD PTR w$[rsp]
  017cf	8b 48 30	 mov	 ecx, DWORD PTR [rax+48]
  017d2	b8 dc bc 1b 8f	 mov	 eax, -1894007588	; ffffffff8f1bbcdcH
  017d7	48 03 c2	 add	 rax, rdx
  017da	03 c8		 add	 ecx, eax
  017dc	8b 44 24 18	 mov	 eax, DWORD PTR v0$[rsp]
  017e0	03 c1		 add	 eax, ecx
  017e2	89 44 24 18	 mov	 DWORD PTR v0$[rsp], eax
  017e6	8b 44 24 14	 mov	 eax, DWORD PTR v2$[rsp]
  017ea	c1 e8 02	 shr	 eax, 2
  017ed	8b 4c 24 14	 mov	 ecx, DWORD PTR v2$[rsp]
  017f1	c1 e1 1e	 shl	 ecx, 30
  017f4	0b c1		 or	 eax, ecx
  017f6	89 44 24 14	 mov	 DWORD PTR v2$[rsp], eax

; 176  :     five_cycle(v, maj, 0x8f1bbcdc,  45);

  017fa	48 8b 0c 24	 mov	 rcx, QWORD PTR w$[rsp]
  017fe	48 8b 04 24	 mov	 rax, QWORD PTR w$[rsp]
  01802	8b 40 14	 mov	 eax, DWORD PTR [rax+20]
  01805	44 8b 41 28	 mov	 r8d, DWORD PTR [rcx+40]
  01809	44 33 c0	 xor	 r8d, eax
  0180c	48 8b 04 24	 mov	 rax, QWORD PTR w$[rsp]
  01810	44 33 40 3c	 xor	 r8d, DWORD PTR [rax+60]
  01814	48 8b 04 24	 mov	 rax, QWORD PTR w$[rsp]
  01818	44 33 40 34	 xor	 r8d, DWORD PTR [rax+52]
  0181c	41 d1 e0	 shl	 r8d, 1
  0181f	48 8b 14 24	 mov	 rdx, QWORD PTR w$[rsp]
  01823	48 8b 04 24	 mov	 rax, QWORD PTR w$[rsp]
  01827	8b 48 14	 mov	 ecx, DWORD PTR [rax+20]
  0182a	8b 42 28	 mov	 eax, DWORD PTR [rdx+40]
  0182d	33 c1		 xor	 eax, ecx
  0182f	48 8b 0c 24	 mov	 rcx, QWORD PTR w$[rsp]
  01833	33 41 3c	 xor	 eax, DWORD PTR [rcx+60]
  01836	48 8b 0c 24	 mov	 rcx, QWORD PTR w$[rsp]
  0183a	33 41 34	 xor	 eax, DWORD PTR [rcx+52]
  0183d	c1 e8 1f	 shr	 eax, 31
  01840	41 8b c8	 mov	 ecx, r8d
  01843	0b c8		 or	 ecx, eax
  01845	48 8b 04 24	 mov	 rax, QWORD PTR w$[rsp]
  01849	89 48 34	 mov	 DWORD PTR [rax+52], ecx
  0184c	8b 4c 24 14	 mov	 ecx, DWORD PTR v2$[rsp]
  01850	8b 44 24 0c	 mov	 eax, DWORD PTR v1$[rsp]
  01854	33 c1		 xor	 eax, ecx
  01856	8b 54 24 08	 mov	 edx, DWORD PTR v3$[rsp]
  0185a	23 d0		 and	 edx, eax
  0185c	8b 44 24 14	 mov	 eax, DWORD PTR v2$[rsp]
  01860	8b 4c 24 0c	 mov	 ecx, DWORD PTR v1$[rsp]
  01864	23 c8		 and	 ecx, eax
  01866	0b ca		 or	 ecx, edx
  01868	8b 44 24 18	 mov	 eax, DWORD PTR v0$[rsp]
  0186c	c1 e0 05	 shl	 eax, 5
  0186f	8b 54 24 18	 mov	 edx, DWORD PTR v0$[rsp]
  01873	c1 ea 1b	 shr	 edx, 27
  01876	0b d0		 or	 edx, eax
  01878	03 d1		 add	 edx, ecx
  0187a	48 8b 04 24	 mov	 rax, QWORD PTR w$[rsp]
  0187e	8b 48 34	 mov	 ecx, DWORD PTR [rax+52]
  01881	b8 dc bc 1b 8f	 mov	 eax, -1894007588	; ffffffff8f1bbcdcH
  01886	48 03 c2	 add	 rax, rdx
  01889	03 c8		 add	 ecx, eax
  0188b	8b 44 24 10	 mov	 eax, DWORD PTR v4$[rsp]
  0188f	03 c1		 add	 eax, ecx
  01891	89 44 24 10	 mov	 DWORD PTR v4$[rsp], eax
  01895	8b 44 24 0c	 mov	 eax, DWORD PTR v1$[rsp]
  01899	c1 e8 02	 shr	 eax, 2
  0189c	8b 4c 24 0c	 mov	 ecx, DWORD PTR v1$[rsp]
  018a0	c1 e1 1e	 shl	 ecx, 30
  018a3	0b c1		 or	 eax, ecx
  018a5	89 44 24 0c	 mov	 DWORD PTR v1$[rsp], eax
  018a9	48 8b 0c 24	 mov	 rcx, QWORD PTR w$[rsp]
  018ad	48 8b 04 24	 mov	 rax, QWORD PTR w$[rsp]
  018b1	8b 40 18	 mov	 eax, DWORD PTR [rax+24]
  018b4	44 8b 41 2c	 mov	 r8d, DWORD PTR [rcx+44]
  018b8	44 33 c0	 xor	 r8d, eax
  018bb	48 8b 04 24	 mov	 rax, QWORD PTR w$[rsp]
  018bf	44 33 00	 xor	 r8d, DWORD PTR [rax]
  018c2	48 8b 04 24	 mov	 rax, QWORD PTR w$[rsp]
  018c6	44 33 40 38	 xor	 r8d, DWORD PTR [rax+56]
  018ca	41 d1 e0	 shl	 r8d, 1
  018cd	48 8b 14 24	 mov	 rdx, QWORD PTR w$[rsp]
  018d1	48 8b 04 24	 mov	 rax, QWORD PTR w$[rsp]
  018d5	8b 48 18	 mov	 ecx, DWORD PTR [rax+24]
  018d8	8b 42 2c	 mov	 eax, DWORD PTR [rdx+44]
  018db	33 c1		 xor	 eax, ecx
  018dd	48 8b 0c 24	 mov	 rcx, QWORD PTR w$[rsp]
  018e1	33 01		 xor	 eax, DWORD PTR [rcx]
  018e3	48 8b 0c 24	 mov	 rcx, QWORD PTR w$[rsp]
  018e7	33 41 38	 xor	 eax, DWORD PTR [rcx+56]
  018ea	c1 e8 1f	 shr	 eax, 31
  018ed	41 8b c8	 mov	 ecx, r8d
  018f0	0b c8		 or	 ecx, eax
  018f2	48 8b 04 24	 mov	 rax, QWORD PTR w$[rsp]
  018f6	89 48 38	 mov	 DWORD PTR [rax+56], ecx
  018f9	8b 4c 24 0c	 mov	 ecx, DWORD PTR v1$[rsp]
  018fd	8b 44 24 18	 mov	 eax, DWORD PTR v0$[rsp]
  01901	33 c1		 xor	 eax, ecx
  01903	8b 54 24 14	 mov	 edx, DWORD PTR v2$[rsp]
  01907	23 d0		 and	 edx, eax
  01909	8b 44 24 0c	 mov	 eax, DWORD PTR v1$[rsp]
  0190d	8b 4c 24 18	 mov	 ecx, DWORD PTR v0$[rsp]
  01911	23 c8		 and	 ecx, eax
  01913	0b ca		 or	 ecx, edx
  01915	8b 44 24 10	 mov	 eax, DWORD PTR v4$[rsp]
  01919	c1 e0 05	 shl	 eax, 5
  0191c	8b 54 24 10	 mov	 edx, DWORD PTR v4$[rsp]
  01920	c1 ea 1b	 shr	 edx, 27
  01923	0b d0		 or	 edx, eax
  01925	03 d1		 add	 edx, ecx
  01927	48 8b 04 24	 mov	 rax, QWORD PTR w$[rsp]
  0192b	8b 48 38	 mov	 ecx, DWORD PTR [rax+56]
  0192e	b8 dc bc 1b 8f	 mov	 eax, -1894007588	; ffffffff8f1bbcdcH
  01933	48 03 c2	 add	 rax, rdx
  01936	03 c8		 add	 ecx, eax
  01938	8b 44 24 08	 mov	 eax, DWORD PTR v3$[rsp]
  0193c	03 c1		 add	 eax, ecx
  0193e	89 44 24 08	 mov	 DWORD PTR v3$[rsp], eax
  01942	8b 44 24 18	 mov	 eax, DWORD PTR v0$[rsp]
  01946	c1 e8 02	 shr	 eax, 2
  01949	8b 4c 24 18	 mov	 ecx, DWORD PTR v0$[rsp]
  0194d	c1 e1 1e	 shl	 ecx, 30
  01950	0b c1		 or	 eax, ecx
  01952	89 44 24 18	 mov	 DWORD PTR v0$[rsp], eax
  01956	48 8b 0c 24	 mov	 rcx, QWORD PTR w$[rsp]
  0195a	48 8b 04 24	 mov	 rax, QWORD PTR w$[rsp]
  0195e	8b 40 1c	 mov	 eax, DWORD PTR [rax+28]
  01961	44 8b 41 30	 mov	 r8d, DWORD PTR [rcx+48]
  01965	44 33 c0	 xor	 r8d, eax
  01968	48 8b 04 24	 mov	 rax, QWORD PTR w$[rsp]
  0196c	44 33 40 04	 xor	 r8d, DWORD PTR [rax+4]
  01970	48 8b 04 24	 mov	 rax, QWORD PTR w$[rsp]
  01974	44 33 40 3c	 xor	 r8d, DWORD PTR [rax+60]
  01978	41 d1 e0	 shl	 r8d, 1
  0197b	48 8b 14 24	 mov	 rdx, QWORD PTR w$[rsp]
  0197f	48 8b 04 24	 mov	 rax, QWORD PTR w$[rsp]
  01983	8b 48 1c	 mov	 ecx, DWORD PTR [rax+28]
  01986	8b 42 30	 mov	 eax, DWORD PTR [rdx+48]
  01989	33 c1		 xor	 eax, ecx
  0198b	48 8b 0c 24	 mov	 rcx, QWORD PTR w$[rsp]
  0198f	33 41 04	 xor	 eax, DWORD PTR [rcx+4]
  01992	48 8b 0c 24	 mov	 rcx, QWORD PTR w$[rsp]
  01996	33 41 3c	 xor	 eax, DWORD PTR [rcx+60]
  01999	c1 e8 1f	 shr	 eax, 31
  0199c	41 8b c8	 mov	 ecx, r8d
  0199f	0b c8		 or	 ecx, eax
  019a1	48 8b 04 24	 mov	 rax, QWORD PTR w$[rsp]
  019a5	89 48 3c	 mov	 DWORD PTR [rax+60], ecx
  019a8	8b 4c 24 18	 mov	 ecx, DWORD PTR v0$[rsp]
  019ac	8b 44 24 10	 mov	 eax, DWORD PTR v4$[rsp]
  019b0	33 c1		 xor	 eax, ecx
  019b2	8b 54 24 0c	 mov	 edx, DWORD PTR v1$[rsp]
  019b6	23 d0		 and	 edx, eax
  019b8	8b 44 24 18	 mov	 eax, DWORD PTR v0$[rsp]
  019bc	8b 4c 24 10	 mov	 ecx, DWORD PTR v4$[rsp]
  019c0	23 c8		 and	 ecx, eax
  019c2	0b ca		 or	 ecx, edx
  019c4	8b 44 24 08	 mov	 eax, DWORD PTR v3$[rsp]
  019c8	c1 e0 05	 shl	 eax, 5
  019cb	8b 54 24 08	 mov	 edx, DWORD PTR v3$[rsp]
  019cf	c1 ea 1b	 shr	 edx, 27
  019d2	0b d0		 or	 edx, eax
  019d4	03 d1		 add	 edx, ecx
  019d6	48 8b 04 24	 mov	 rax, QWORD PTR w$[rsp]
  019da	8b 48 3c	 mov	 ecx, DWORD PTR [rax+60]
  019dd	b8 dc bc 1b 8f	 mov	 eax, -1894007588	; ffffffff8f1bbcdcH
  019e2	48 03 c2	 add	 rax, rdx
  019e5	03 c8		 add	 ecx, eax
  019e7	8b 44 24 14	 mov	 eax, DWORD PTR v2$[rsp]
  019eb	03 c1		 add	 eax, ecx
  019ed	89 44 24 14	 mov	 DWORD PTR v2$[rsp], eax
  019f1	8b 44 24 10	 mov	 eax, DWORD PTR v4$[rsp]
  019f5	c1 e8 02	 shr	 eax, 2
  019f8	8b 4c 24 10	 mov	 ecx, DWORD PTR v4$[rsp]
  019fc	c1 e1 1e	 shl	 ecx, 30
  019ff	0b c1		 or	 eax, ecx
  01a01	89 44 24 10	 mov	 DWORD PTR v4$[rsp], eax
  01a05	48 8b 0c 24	 mov	 rcx, QWORD PTR w$[rsp]
  01a09	48 8b 04 24	 mov	 rax, QWORD PTR w$[rsp]
  01a0d	8b 40 20	 mov	 eax, DWORD PTR [rax+32]
  01a10	44 8b 41 34	 mov	 r8d, DWORD PTR [rcx+52]
  01a14	44 33 c0	 xor	 r8d, eax
  01a17	48 8b 04 24	 mov	 rax, QWORD PTR w$[rsp]
  01a1b	44 33 40 08	 xor	 r8d, DWORD PTR [rax+8]
  01a1f	48 8b 04 24	 mov	 rax, QWORD PTR w$[rsp]
  01a23	44 33 00	 xor	 r8d, DWORD PTR [rax]
  01a26	41 d1 e0	 shl	 r8d, 1
  01a29	48 8b 14 24	 mov	 rdx, QWORD PTR w$[rsp]
  01a2d	48 8b 04 24	 mov	 rax, QWORD PTR w$[rsp]
  01a31	8b 48 20	 mov	 ecx, DWORD PTR [rax+32]
  01a34	8b 42 34	 mov	 eax, DWORD PTR [rdx+52]
  01a37	33 c1		 xor	 eax, ecx
  01a39	48 8b 0c 24	 mov	 rcx, QWORD PTR w$[rsp]
  01a3d	33 41 08	 xor	 eax, DWORD PTR [rcx+8]
  01a40	48 8b 0c 24	 mov	 rcx, QWORD PTR w$[rsp]
  01a44	33 01		 xor	 eax, DWORD PTR [rcx]
  01a46	c1 e8 1f	 shr	 eax, 31
  01a49	41 8b c8	 mov	 ecx, r8d
  01a4c	0b c8		 or	 ecx, eax
  01a4e	48 8b 04 24	 mov	 rax, QWORD PTR w$[rsp]
  01a52	89 08		 mov	 DWORD PTR [rax], ecx
  01a54	8b 4c 24 10	 mov	 ecx, DWORD PTR v4$[rsp]
  01a58	8b 44 24 08	 mov	 eax, DWORD PTR v3$[rsp]
  01a5c	33 c1		 xor	 eax, ecx
  01a5e	8b 54 24 18	 mov	 edx, DWORD PTR v0$[rsp]
  01a62	23 d0		 and	 edx, eax
  01a64	8b 44 24 10	 mov	 eax, DWORD PTR v4$[rsp]
  01a68	8b 4c 24 08	 mov	 ecx, DWORD PTR v3$[rsp]
  01a6c	23 c8		 and	 ecx, eax
  01a6e	0b ca		 or	 ecx, edx
  01a70	8b 44 24 14	 mov	 eax, DWORD PTR v2$[rsp]
  01a74	c1 e0 05	 shl	 eax, 5
  01a77	8b 54 24 14	 mov	 edx, DWORD PTR v2$[rsp]
  01a7b	c1 ea 1b	 shr	 edx, 27
  01a7e	0b d0		 or	 edx, eax
  01a80	03 d1		 add	 edx, ecx
  01a82	48 8b 04 24	 mov	 rax, QWORD PTR w$[rsp]
  01a86	8b 08		 mov	 ecx, DWORD PTR [rax]
  01a88	b8 dc bc 1b 8f	 mov	 eax, -1894007588	; ffffffff8f1bbcdcH
  01a8d	48 03 c2	 add	 rax, rdx
  01a90	03 c8		 add	 ecx, eax
  01a92	8b 44 24 0c	 mov	 eax, DWORD PTR v1$[rsp]
  01a96	03 c1		 add	 eax, ecx
  01a98	89 44 24 0c	 mov	 DWORD PTR v1$[rsp], eax
  01a9c	8b 44 24 08	 mov	 eax, DWORD PTR v3$[rsp]
  01aa0	c1 e8 02	 shr	 eax, 2
  01aa3	8b 4c 24 08	 mov	 ecx, DWORD PTR v3$[rsp]
  01aa7	c1 e1 1e	 shl	 ecx, 30
  01aaa	0b c1		 or	 eax, ecx
  01aac	89 44 24 08	 mov	 DWORD PTR v3$[rsp], eax
  01ab0	48 8b 0c 24	 mov	 rcx, QWORD PTR w$[rsp]
  01ab4	48 8b 04 24	 mov	 rax, QWORD PTR w$[rsp]
  01ab8	8b 40 24	 mov	 eax, DWORD PTR [rax+36]
  01abb	44 8b 41 38	 mov	 r8d, DWORD PTR [rcx+56]
  01abf	44 33 c0	 xor	 r8d, eax
  01ac2	48 8b 04 24	 mov	 rax, QWORD PTR w$[rsp]
  01ac6	44 33 40 0c	 xor	 r8d, DWORD PTR [rax+12]
  01aca	48 8b 04 24	 mov	 rax, QWORD PTR w$[rsp]
  01ace	44 33 40 04	 xor	 r8d, DWORD PTR [rax+4]
  01ad2	41 d1 e0	 shl	 r8d, 1
  01ad5	48 8b 14 24	 mov	 rdx, QWORD PTR w$[rsp]
  01ad9	48 8b 04 24	 mov	 rax, QWORD PTR w$[rsp]
  01add	8b 48 24	 mov	 ecx, DWORD PTR [rax+36]
  01ae0	8b 42 38	 mov	 eax, DWORD PTR [rdx+56]
  01ae3	33 c1		 xor	 eax, ecx
  01ae5	48 8b 0c 24	 mov	 rcx, QWORD PTR w$[rsp]
  01ae9	33 41 0c	 xor	 eax, DWORD PTR [rcx+12]
  01aec	48 8b 0c 24	 mov	 rcx, QWORD PTR w$[rsp]
  01af0	33 41 04	 xor	 eax, DWORD PTR [rcx+4]
  01af3	c1 e8 1f	 shr	 eax, 31
  01af6	41 8b c8	 mov	 ecx, r8d
  01af9	0b c8		 or	 ecx, eax
  01afb	48 8b 04 24	 mov	 rax, QWORD PTR w$[rsp]
  01aff	89 48 04	 mov	 DWORD PTR [rax+4], ecx
  01b02	8b 4c 24 08	 mov	 ecx, DWORD PTR v3$[rsp]
  01b06	8b 44 24 14	 mov	 eax, DWORD PTR v2$[rsp]
  01b0a	33 c1		 xor	 eax, ecx
  01b0c	8b 54 24 10	 mov	 edx, DWORD PTR v4$[rsp]
  01b10	23 d0		 and	 edx, eax
  01b12	8b 44 24 08	 mov	 eax, DWORD PTR v3$[rsp]
  01b16	8b 4c 24 14	 mov	 ecx, DWORD PTR v2$[rsp]
  01b1a	23 c8		 and	 ecx, eax
  01b1c	0b ca		 or	 ecx, edx
  01b1e	8b 44 24 0c	 mov	 eax, DWORD PTR v1$[rsp]
  01b22	c1 e0 05	 shl	 eax, 5
  01b25	8b 54 24 0c	 mov	 edx, DWORD PTR v1$[rsp]
  01b29	c1 ea 1b	 shr	 edx, 27
  01b2c	0b d0		 or	 edx, eax
  01b2e	03 d1		 add	 edx, ecx
  01b30	48 8b 04 24	 mov	 rax, QWORD PTR w$[rsp]
  01b34	8b 48 04	 mov	 ecx, DWORD PTR [rax+4]
  01b37	b8 dc bc 1b 8f	 mov	 eax, -1894007588	; ffffffff8f1bbcdcH
  01b3c	48 03 c2	 add	 rax, rdx
  01b3f	03 c8		 add	 ecx, eax
  01b41	8b 44 24 18	 mov	 eax, DWORD PTR v0$[rsp]
  01b45	03 c1		 add	 eax, ecx
  01b47	89 44 24 18	 mov	 DWORD PTR v0$[rsp], eax
  01b4b	8b 44 24 14	 mov	 eax, DWORD PTR v2$[rsp]
  01b4f	c1 e8 02	 shr	 eax, 2
  01b52	8b 4c 24 14	 mov	 ecx, DWORD PTR v2$[rsp]
  01b56	c1 e1 1e	 shl	 ecx, 30
  01b59	0b c1		 or	 eax, ecx
  01b5b	89 44 24 14	 mov	 DWORD PTR v2$[rsp], eax

; 177  :     five_cycle(v, maj, 0x8f1bbcdc,  50);

  01b5f	48 8b 0c 24	 mov	 rcx, QWORD PTR w$[rsp]
  01b63	48 8b 04 24	 mov	 rax, QWORD PTR w$[rsp]
  01b67	8b 40 28	 mov	 eax, DWORD PTR [rax+40]
  01b6a	44 8b 41 3c	 mov	 r8d, DWORD PTR [rcx+60]
  01b6e	44 33 c0	 xor	 r8d, eax
  01b71	48 8b 04 24	 mov	 rax, QWORD PTR w$[rsp]
  01b75	44 33 40 10	 xor	 r8d, DWORD PTR [rax+16]
  01b79	48 8b 04 24	 mov	 rax, QWORD PTR w$[rsp]
  01b7d	44 33 40 08	 xor	 r8d, DWORD PTR [rax+8]
  01b81	41 d1 e0	 shl	 r8d, 1
  01b84	48 8b 14 24	 mov	 rdx, QWORD PTR w$[rsp]
  01b88	48 8b 04 24	 mov	 rax, QWORD PTR w$[rsp]
  01b8c	8b 48 28	 mov	 ecx, DWORD PTR [rax+40]
  01b8f	8b 42 3c	 mov	 eax, DWORD PTR [rdx+60]
  01b92	33 c1		 xor	 eax, ecx
  01b94	48 8b 0c 24	 mov	 rcx, QWORD PTR w$[rsp]
  01b98	33 41 10	 xor	 eax, DWORD PTR [rcx+16]
  01b9b	48 8b 0c 24	 mov	 rcx, QWORD PTR w$[rsp]
  01b9f	33 41 08	 xor	 eax, DWORD PTR [rcx+8]
  01ba2	c1 e8 1f	 shr	 eax, 31
  01ba5	41 8b c8	 mov	 ecx, r8d
  01ba8	0b c8		 or	 ecx, eax
  01baa	48 8b 04 24	 mov	 rax, QWORD PTR w$[rsp]
  01bae	89 48 08	 mov	 DWORD PTR [rax+8], ecx
  01bb1	8b 4c 24 14	 mov	 ecx, DWORD PTR v2$[rsp]
  01bb5	8b 44 24 0c	 mov	 eax, DWORD PTR v1$[rsp]
  01bb9	33 c1		 xor	 eax, ecx
  01bbb	8b 54 24 08	 mov	 edx, DWORD PTR v3$[rsp]
  01bbf	23 d0		 and	 edx, eax
  01bc1	8b 44 24 14	 mov	 eax, DWORD PTR v2$[rsp]
  01bc5	8b 4c 24 0c	 mov	 ecx, DWORD PTR v1$[rsp]
  01bc9	23 c8		 and	 ecx, eax
  01bcb	0b ca		 or	 ecx, edx
  01bcd	8b 44 24 18	 mov	 eax, DWORD PTR v0$[rsp]
  01bd1	c1 e0 05	 shl	 eax, 5
  01bd4	8b 54 24 18	 mov	 edx, DWORD PTR v0$[rsp]
  01bd8	c1 ea 1b	 shr	 edx, 27
  01bdb	0b d0		 or	 edx, eax
  01bdd	03 d1		 add	 edx, ecx
  01bdf	48 8b 04 24	 mov	 rax, QWORD PTR w$[rsp]
  01be3	8b 48 08	 mov	 ecx, DWORD PTR [rax+8]
  01be6	b8 dc bc 1b 8f	 mov	 eax, -1894007588	; ffffffff8f1bbcdcH
  01beb	48 03 c2	 add	 rax, rdx
  01bee	03 c8		 add	 ecx, eax
  01bf0	8b 44 24 10	 mov	 eax, DWORD PTR v4$[rsp]
  01bf4	03 c1		 add	 eax, ecx
  01bf6	89 44 24 10	 mov	 DWORD PTR v4$[rsp], eax
  01bfa	8b 44 24 0c	 mov	 eax, DWORD PTR v1$[rsp]
  01bfe	c1 e8 02	 shr	 eax, 2
  01c01	8b 4c 24 0c	 mov	 ecx, DWORD PTR v1$[rsp]
  01c05	c1 e1 1e	 shl	 ecx, 30
  01c08	0b c1		 or	 eax, ecx
  01c0a	89 44 24 0c	 mov	 DWORD PTR v1$[rsp], eax
  01c0e	48 8b 0c 24	 mov	 rcx, QWORD PTR w$[rsp]
  01c12	48 8b 04 24	 mov	 rax, QWORD PTR w$[rsp]
  01c16	8b 40 2c	 mov	 eax, DWORD PTR [rax+44]
  01c19	44 8b 01	 mov	 r8d, DWORD PTR [rcx]
  01c1c	44 33 c0	 xor	 r8d, eax
  01c1f	48 8b 04 24	 mov	 rax, QWORD PTR w$[rsp]
  01c23	44 33 40 14	 xor	 r8d, DWORD PTR [rax+20]
  01c27	48 8b 04 24	 mov	 rax, QWORD PTR w$[rsp]
  01c2b	44 33 40 0c	 xor	 r8d, DWORD PTR [rax+12]
  01c2f	41 d1 e0	 shl	 r8d, 1
  01c32	48 8b 14 24	 mov	 rdx, QWORD PTR w$[rsp]
  01c36	48 8b 04 24	 mov	 rax, QWORD PTR w$[rsp]
  01c3a	8b 48 2c	 mov	 ecx, DWORD PTR [rax+44]
  01c3d	8b 02		 mov	 eax, DWORD PTR [rdx]
  01c3f	33 c1		 xor	 eax, ecx
  01c41	48 8b 0c 24	 mov	 rcx, QWORD PTR w$[rsp]
  01c45	33 41 14	 xor	 eax, DWORD PTR [rcx+20]
  01c48	48 8b 0c 24	 mov	 rcx, QWORD PTR w$[rsp]
  01c4c	33 41 0c	 xor	 eax, DWORD PTR [rcx+12]
  01c4f	c1 e8 1f	 shr	 eax, 31
  01c52	41 8b c8	 mov	 ecx, r8d
  01c55	0b c8		 or	 ecx, eax
  01c57	48 8b 04 24	 mov	 rax, QWORD PTR w$[rsp]
  01c5b	89 48 0c	 mov	 DWORD PTR [rax+12], ecx
  01c5e	8b 4c 24 0c	 mov	 ecx, DWORD PTR v1$[rsp]
  01c62	8b 44 24 18	 mov	 eax, DWORD PTR v0$[rsp]
  01c66	33 c1		 xor	 eax, ecx
  01c68	8b 54 24 14	 mov	 edx, DWORD PTR v2$[rsp]
  01c6c	23 d0		 and	 edx, eax
  01c6e	8b 44 24 0c	 mov	 eax, DWORD PTR v1$[rsp]
  01c72	8b 4c 24 18	 mov	 ecx, DWORD PTR v0$[rsp]
  01c76	23 c8		 and	 ecx, eax
  01c78	0b ca		 or	 ecx, edx
  01c7a	8b 44 24 10	 mov	 eax, DWORD PTR v4$[rsp]
  01c7e	c1 e0 05	 shl	 eax, 5
  01c81	8b 54 24 10	 mov	 edx, DWORD PTR v4$[rsp]
  01c85	c1 ea 1b	 shr	 edx, 27
  01c88	0b d0		 or	 edx, eax
  01c8a	03 d1		 add	 edx, ecx
  01c8c	48 8b 04 24	 mov	 rax, QWORD PTR w$[rsp]
  01c90	8b 48 0c	 mov	 ecx, DWORD PTR [rax+12]
  01c93	b8 dc bc 1b 8f	 mov	 eax, -1894007588	; ffffffff8f1bbcdcH
  01c98	48 03 c2	 add	 rax, rdx
  01c9b	03 c8		 add	 ecx, eax
  01c9d	8b 44 24 08	 mov	 eax, DWORD PTR v3$[rsp]
  01ca1	03 c1		 add	 eax, ecx
  01ca3	89 44 24 08	 mov	 DWORD PTR v3$[rsp], eax
  01ca7	8b 44 24 18	 mov	 eax, DWORD PTR v0$[rsp]
  01cab	c1 e8 02	 shr	 eax, 2
  01cae	8b 4c 24 18	 mov	 ecx, DWORD PTR v0$[rsp]
  01cb2	c1 e1 1e	 shl	 ecx, 30
  01cb5	0b c1		 or	 eax, ecx
  01cb7	89 44 24 18	 mov	 DWORD PTR v0$[rsp], eax
  01cbb	48 8b 0c 24	 mov	 rcx, QWORD PTR w$[rsp]
  01cbf	48 8b 04 24	 mov	 rax, QWORD PTR w$[rsp]
  01cc3	8b 40 30	 mov	 eax, DWORD PTR [rax+48]
  01cc6	44 8b 41 04	 mov	 r8d, DWORD PTR [rcx+4]
  01cca	44 33 c0	 xor	 r8d, eax
  01ccd	48 8b 04 24	 mov	 rax, QWORD PTR w$[rsp]
  01cd1	44 33 40 18	 xor	 r8d, DWORD PTR [rax+24]
  01cd5	48 8b 04 24	 mov	 rax, QWORD PTR w$[rsp]
  01cd9	44 33 40 10	 xor	 r8d, DWORD PTR [rax+16]
  01cdd	41 d1 e0	 shl	 r8d, 1
  01ce0	48 8b 14 24	 mov	 rdx, QWORD PTR w$[rsp]
  01ce4	48 8b 04 24	 mov	 rax, QWORD PTR w$[rsp]
  01ce8	8b 48 30	 mov	 ecx, DWORD PTR [rax+48]
  01ceb	8b 42 04	 mov	 eax, DWORD PTR [rdx+4]
  01cee	33 c1		 xor	 eax, ecx
  01cf0	48 8b 0c 24	 mov	 rcx, QWORD PTR w$[rsp]
  01cf4	33 41 18	 xor	 eax, DWORD PTR [rcx+24]
  01cf7	48 8b 0c 24	 mov	 rcx, QWORD PTR w$[rsp]
  01cfb	33 41 10	 xor	 eax, DWORD PTR [rcx+16]
  01cfe	c1 e8 1f	 shr	 eax, 31
  01d01	41 8b c8	 mov	 ecx, r8d
  01d04	0b c8		 or	 ecx, eax
  01d06	48 8b 04 24	 mov	 rax, QWORD PTR w$[rsp]
  01d0a	89 48 10	 mov	 DWORD PTR [rax+16], ecx
  01d0d	8b 4c 24 18	 mov	 ecx, DWORD PTR v0$[rsp]
  01d11	8b 44 24 10	 mov	 eax, DWORD PTR v4$[rsp]
  01d15	33 c1		 xor	 eax, ecx
  01d17	8b 54 24 0c	 mov	 edx, DWORD PTR v1$[rsp]
  01d1b	23 d0		 and	 edx, eax
  01d1d	8b 44 24 18	 mov	 eax, DWORD PTR v0$[rsp]
  01d21	8b 4c 24 10	 mov	 ecx, DWORD PTR v4$[rsp]
  01d25	23 c8		 and	 ecx, eax
  01d27	0b ca		 or	 ecx, edx
  01d29	8b 44 24 08	 mov	 eax, DWORD PTR v3$[rsp]
  01d2d	c1 e0 05	 shl	 eax, 5
  01d30	8b 54 24 08	 mov	 edx, DWORD PTR v3$[rsp]
  01d34	c1 ea 1b	 shr	 edx, 27
  01d37	0b d0		 or	 edx, eax
  01d39	03 d1		 add	 edx, ecx
  01d3b	48 8b 04 24	 mov	 rax, QWORD PTR w$[rsp]
  01d3f	8b 48 10	 mov	 ecx, DWORD PTR [rax+16]
  01d42	b8 dc bc 1b 8f	 mov	 eax, -1894007588	; ffffffff8f1bbcdcH
  01d47	48 03 c2	 add	 rax, rdx
  01d4a	03 c8		 add	 ecx, eax
  01d4c	8b 44 24 14	 mov	 eax, DWORD PTR v2$[rsp]
  01d50	03 c1		 add	 eax, ecx
  01d52	89 44 24 14	 mov	 DWORD PTR v2$[rsp], eax
  01d56	8b 44 24 10	 mov	 eax, DWORD PTR v4$[rsp]
  01d5a	c1 e8 02	 shr	 eax, 2
  01d5d	8b 4c 24 10	 mov	 ecx, DWORD PTR v4$[rsp]
  01d61	c1 e1 1e	 shl	 ecx, 30
  01d64	0b c1		 or	 eax, ecx
  01d66	89 44 24 10	 mov	 DWORD PTR v4$[rsp], eax
  01d6a	48 8b 0c 24	 mov	 rcx, QWORD PTR w$[rsp]
  01d6e	48 8b 04 24	 mov	 rax, QWORD PTR w$[rsp]
  01d72	8b 40 34	 mov	 eax, DWORD PTR [rax+52]
  01d75	44 8b 41 08	 mov	 r8d, DWORD PTR [rcx+8]
  01d79	44 33 c0	 xor	 r8d, eax
  01d7c	48 8b 04 24	 mov	 rax, QWORD PTR w$[rsp]
  01d80	44 33 40 1c	 xor	 r8d, DWORD PTR [rax+28]
  01d84	48 8b 04 24	 mov	 rax, QWORD PTR w$[rsp]
  01d88	44 33 40 14	 xor	 r8d, DWORD PTR [rax+20]
  01d8c	41 d1 e0	 shl	 r8d, 1
  01d8f	48 8b 14 24	 mov	 rdx, QWORD PTR w$[rsp]
  01d93	48 8b 04 24	 mov	 rax, QWORD PTR w$[rsp]
  01d97	8b 48 34	 mov	 ecx, DWORD PTR [rax+52]
  01d9a	8b 42 08	 mov	 eax, DWORD PTR [rdx+8]
  01d9d	33 c1		 xor	 eax, ecx
  01d9f	48 8b 0c 24	 mov	 rcx, QWORD PTR w$[rsp]
  01da3	33 41 1c	 xor	 eax, DWORD PTR [rcx+28]
  01da6	48 8b 0c 24	 mov	 rcx, QWORD PTR w$[rsp]
  01daa	33 41 14	 xor	 eax, DWORD PTR [rcx+20]
  01dad	c1 e8 1f	 shr	 eax, 31
  01db0	41 8b c8	 mov	 ecx, r8d
  01db3	0b c8		 or	 ecx, eax
  01db5	48 8b 04 24	 mov	 rax, QWORD PTR w$[rsp]
  01db9	89 48 14	 mov	 DWORD PTR [rax+20], ecx
  01dbc	8b 4c 24 10	 mov	 ecx, DWORD PTR v4$[rsp]
  01dc0	8b 44 24 08	 mov	 eax, DWORD PTR v3$[rsp]
  01dc4	33 c1		 xor	 eax, ecx
  01dc6	8b 54 24 18	 mov	 edx, DWORD PTR v0$[rsp]
  01dca	23 d0		 and	 edx, eax
  01dcc	8b 44 24 10	 mov	 eax, DWORD PTR v4$[rsp]
  01dd0	8b 4c 24 08	 mov	 ecx, DWORD PTR v3$[rsp]
  01dd4	23 c8		 and	 ecx, eax
  01dd6	0b ca		 or	 ecx, edx
  01dd8	8b 44 24 14	 mov	 eax, DWORD PTR v2$[rsp]
  01ddc	c1 e0 05	 shl	 eax, 5
  01ddf	8b 54 24 14	 mov	 edx, DWORD PTR v2$[rsp]
  01de3	c1 ea 1b	 shr	 edx, 27
  01de6	0b d0		 or	 edx, eax
  01de8	03 d1		 add	 edx, ecx
  01dea	48 8b 04 24	 mov	 rax, QWORD PTR w$[rsp]
  01dee	8b 48 14	 mov	 ecx, DWORD PTR [rax+20]
  01df1	b8 dc bc 1b 8f	 mov	 eax, -1894007588	; ffffffff8f1bbcdcH
  01df6	48 03 c2	 add	 rax, rdx
  01df9	03 c8		 add	 ecx, eax
  01dfb	8b 44 24 0c	 mov	 eax, DWORD PTR v1$[rsp]
  01dff	03 c1		 add	 eax, ecx
  01e01	89 44 24 0c	 mov	 DWORD PTR v1$[rsp], eax
  01e05	8b 44 24 08	 mov	 eax, DWORD PTR v3$[rsp]
  01e09	c1 e8 02	 shr	 eax, 2
  01e0c	8b 4c 24 08	 mov	 ecx, DWORD PTR v3$[rsp]
  01e10	c1 e1 1e	 shl	 ecx, 30
  01e13	0b c1		 or	 eax, ecx
  01e15	89 44 24 08	 mov	 DWORD PTR v3$[rsp], eax
  01e19	48 8b 0c 24	 mov	 rcx, QWORD PTR w$[rsp]
  01e1d	48 8b 04 24	 mov	 rax, QWORD PTR w$[rsp]
  01e21	8b 40 38	 mov	 eax, DWORD PTR [rax+56]
  01e24	44 8b 41 0c	 mov	 r8d, DWORD PTR [rcx+12]
  01e28	44 33 c0	 xor	 r8d, eax
  01e2b	48 8b 04 24	 mov	 rax, QWORD PTR w$[rsp]
  01e2f	44 33 40 20	 xor	 r8d, DWORD PTR [rax+32]
  01e33	48 8b 04 24	 mov	 rax, QWORD PTR w$[rsp]
  01e37	44 33 40 18	 xor	 r8d, DWORD PTR [rax+24]
  01e3b	41 d1 e0	 shl	 r8d, 1
  01e3e	48 8b 14 24	 mov	 rdx, QWORD PTR w$[rsp]
  01e42	48 8b 04 24	 mov	 rax, QWORD PTR w$[rsp]
  01e46	8b 48 38	 mov	 ecx, DWORD PTR [rax+56]
  01e49	8b 42 0c	 mov	 eax, DWORD PTR [rdx+12]
  01e4c	33 c1		 xor	 eax, ecx
  01e4e	48 8b 0c 24	 mov	 rcx, QWORD PTR w$[rsp]
  01e52	33 41 20	 xor	 eax, DWORD PTR [rcx+32]
  01e55	48 8b 0c 24	 mov	 rcx, QWORD PTR w$[rsp]
  01e59	33 41 18	 xor	 eax, DWORD PTR [rcx+24]
  01e5c	c1 e8 1f	 shr	 eax, 31
  01e5f	41 8b c8	 mov	 ecx, r8d
  01e62	0b c8		 or	 ecx, eax
  01e64	48 8b 04 24	 mov	 rax, QWORD PTR w$[rsp]
  01e68	89 48 18	 mov	 DWORD PTR [rax+24], ecx
  01e6b	8b 4c 24 08	 mov	 ecx, DWORD PTR v3$[rsp]
  01e6f	8b 44 24 14	 mov	 eax, DWORD PTR v2$[rsp]
  01e73	33 c1		 xor	 eax, ecx
  01e75	8b 54 24 10	 mov	 edx, DWORD PTR v4$[rsp]
  01e79	23 d0		 and	 edx, eax
  01e7b	8b 44 24 08	 mov	 eax, DWORD PTR v3$[rsp]
  01e7f	8b 4c 24 14	 mov	 ecx, DWORD PTR v2$[rsp]
  01e83	23 c8		 and	 ecx, eax
  01e85	0b ca		 or	 ecx, edx
  01e87	8b 44 24 0c	 mov	 eax, DWORD PTR v1$[rsp]
  01e8b	c1 e0 05	 shl	 eax, 5
  01e8e	8b 54 24 0c	 mov	 edx, DWORD PTR v1$[rsp]
  01e92	c1 ea 1b	 shr	 edx, 27
  01e95	0b d0		 or	 edx, eax
  01e97	03 d1		 add	 edx, ecx
  01e99	48 8b 04 24	 mov	 rax, QWORD PTR w$[rsp]
  01e9d	8b 48 18	 mov	 ecx, DWORD PTR [rax+24]
  01ea0	b8 dc bc 1b 8f	 mov	 eax, -1894007588	; ffffffff8f1bbcdcH
  01ea5	48 03 c2	 add	 rax, rdx
  01ea8	03 c8		 add	 ecx, eax
  01eaa	8b 44 24 18	 mov	 eax, DWORD PTR v0$[rsp]
  01eae	03 c1		 add	 eax, ecx
  01eb0	89 44 24 18	 mov	 DWORD PTR v0$[rsp], eax
  01eb4	8b 44 24 14	 mov	 eax, DWORD PTR v2$[rsp]
  01eb8	c1 e8 02	 shr	 eax, 2
  01ebb	8b 4c 24 14	 mov	 ecx, DWORD PTR v2$[rsp]
  01ebf	c1 e1 1e	 shl	 ecx, 30
  01ec2	0b c1		 or	 eax, ecx
  01ec4	89 44 24 14	 mov	 DWORD PTR v2$[rsp], eax

; 178  :     five_cycle(v, maj, 0x8f1bbcdc,  55);

  01ec8	48 8b 0c 24	 mov	 rcx, QWORD PTR w$[rsp]
  01ecc	48 8b 04 24	 mov	 rax, QWORD PTR w$[rsp]
  01ed0	8b 40 3c	 mov	 eax, DWORD PTR [rax+60]
  01ed3	44 8b 41 10	 mov	 r8d, DWORD PTR [rcx+16]
  01ed7	44 33 c0	 xor	 r8d, eax
  01eda	48 8b 04 24	 mov	 rax, QWORD PTR w$[rsp]
  01ede	44 33 40 24	 xor	 r8d, DWORD PTR [rax+36]
  01ee2	48 8b 04 24	 mov	 rax, QWORD PTR w$[rsp]
  01ee6	44 33 40 1c	 xor	 r8d, DWORD PTR [rax+28]
  01eea	41 d1 e0	 shl	 r8d, 1
  01eed	48 8b 14 24	 mov	 rdx, QWORD PTR w$[rsp]
  01ef1	48 8b 04 24	 mov	 rax, QWORD PTR w$[rsp]
  01ef5	8b 48 3c	 mov	 ecx, DWORD PTR [rax+60]
  01ef8	8b 42 10	 mov	 eax, DWORD PTR [rdx+16]
  01efb	33 c1		 xor	 eax, ecx
  01efd	48 8b 0c 24	 mov	 rcx, QWORD PTR w$[rsp]
  01f01	33 41 24	 xor	 eax, DWORD PTR [rcx+36]
  01f04	48 8b 0c 24	 mov	 rcx, QWORD PTR w$[rsp]
  01f08	33 41 1c	 xor	 eax, DWORD PTR [rcx+28]
  01f0b	c1 e8 1f	 shr	 eax, 31
  01f0e	41 8b c8	 mov	 ecx, r8d
  01f11	0b c8		 or	 ecx, eax
  01f13	48 8b 04 24	 mov	 rax, QWORD PTR w$[rsp]
  01f17	89 48 1c	 mov	 DWORD PTR [rax+28], ecx
  01f1a	8b 4c 24 14	 mov	 ecx, DWORD PTR v2$[rsp]
  01f1e	8b 44 24 0c	 mov	 eax, DWORD PTR v1$[rsp]
  01f22	33 c1		 xor	 eax, ecx
  01f24	8b 54 24 08	 mov	 edx, DWORD PTR v3$[rsp]
  01f28	23 d0		 and	 edx, eax
  01f2a	8b 44 24 14	 mov	 eax, DWORD PTR v2$[rsp]
  01f2e	8b 4c 24 0c	 mov	 ecx, DWORD PTR v1$[rsp]
  01f32	23 c8		 and	 ecx, eax
  01f34	0b ca		 or	 ecx, edx
  01f36	8b 44 24 18	 mov	 eax, DWORD PTR v0$[rsp]
  01f3a	c1 e0 05	 shl	 eax, 5
  01f3d	8b 54 24 18	 mov	 edx, DWORD PTR v0$[rsp]
  01f41	c1 ea 1b	 shr	 edx, 27
  01f44	0b d0		 or	 edx, eax
  01f46	03 d1		 add	 edx, ecx
  01f48	48 8b 04 24	 mov	 rax, QWORD PTR w$[rsp]
  01f4c	8b 48 1c	 mov	 ecx, DWORD PTR [rax+28]
  01f4f	b8 dc bc 1b 8f	 mov	 eax, -1894007588	; ffffffff8f1bbcdcH
  01f54	48 03 c2	 add	 rax, rdx
  01f57	03 c8		 add	 ecx, eax
  01f59	8b 44 24 10	 mov	 eax, DWORD PTR v4$[rsp]
  01f5d	03 c1		 add	 eax, ecx
  01f5f	89 44 24 10	 mov	 DWORD PTR v4$[rsp], eax
  01f63	8b 44 24 0c	 mov	 eax, DWORD PTR v1$[rsp]
  01f67	c1 e8 02	 shr	 eax, 2
  01f6a	8b 4c 24 0c	 mov	 ecx, DWORD PTR v1$[rsp]
  01f6e	c1 e1 1e	 shl	 ecx, 30
  01f71	0b c1		 or	 eax, ecx
  01f73	89 44 24 0c	 mov	 DWORD PTR v1$[rsp], eax
  01f77	48 8b 0c 24	 mov	 rcx, QWORD PTR w$[rsp]
  01f7b	48 8b 04 24	 mov	 rax, QWORD PTR w$[rsp]
  01f7f	8b 00		 mov	 eax, DWORD PTR [rax]
  01f81	44 8b 41 14	 mov	 r8d, DWORD PTR [rcx+20]
  01f85	44 33 c0	 xor	 r8d, eax
  01f88	48 8b 04 24	 mov	 rax, QWORD PTR w$[rsp]
  01f8c	44 33 40 28	 xor	 r8d, DWORD PTR [rax+40]
  01f90	48 8b 04 24	 mov	 rax, QWORD PTR w$[rsp]
  01f94	44 33 40 20	 xor	 r8d, DWORD PTR [rax+32]
  01f98	41 d1 e0	 shl	 r8d, 1
  01f9b	48 8b 14 24	 mov	 rdx, QWORD PTR w$[rsp]
  01f9f	48 8b 04 24	 mov	 rax, QWORD PTR w$[rsp]
  01fa3	8b 08		 mov	 ecx, DWORD PTR [rax]
  01fa5	8b 42 14	 mov	 eax, DWORD PTR [rdx+20]
  01fa8	33 c1		 xor	 eax, ecx
  01faa	48 8b 0c 24	 mov	 rcx, QWORD PTR w$[rsp]
  01fae	33 41 28	 xor	 eax, DWORD PTR [rcx+40]
  01fb1	48 8b 0c 24	 mov	 rcx, QWORD PTR w$[rsp]
  01fb5	33 41 20	 xor	 eax, DWORD PTR [rcx+32]
  01fb8	c1 e8 1f	 shr	 eax, 31
  01fbb	41 8b c8	 mov	 ecx, r8d
  01fbe	0b c8		 or	 ecx, eax
  01fc0	48 8b 04 24	 mov	 rax, QWORD PTR w$[rsp]
  01fc4	89 48 20	 mov	 DWORD PTR [rax+32], ecx
  01fc7	8b 4c 24 0c	 mov	 ecx, DWORD PTR v1$[rsp]
  01fcb	8b 44 24 18	 mov	 eax, DWORD PTR v0$[rsp]
  01fcf	33 c1		 xor	 eax, ecx
  01fd1	8b 54 24 14	 mov	 edx, DWORD PTR v2$[rsp]
  01fd5	23 d0		 and	 edx, eax
  01fd7	8b 44 24 0c	 mov	 eax, DWORD PTR v1$[rsp]
  01fdb	8b 4c 24 18	 mov	 ecx, DWORD PTR v0$[rsp]
  01fdf	23 c8		 and	 ecx, eax
  01fe1	0b ca		 or	 ecx, edx
  01fe3	8b 44 24 10	 mov	 eax, DWORD PTR v4$[rsp]
  01fe7	c1 e0 05	 shl	 eax, 5
  01fea	8b 54 24 10	 mov	 edx, DWORD PTR v4$[rsp]
  01fee	c1 ea 1b	 shr	 edx, 27
  01ff1	0b d0		 or	 edx, eax
  01ff3	03 d1		 add	 edx, ecx
  01ff5	48 8b 04 24	 mov	 rax, QWORD PTR w$[rsp]
  01ff9	8b 48 20	 mov	 ecx, DWORD PTR [rax+32]
  01ffc	b8 dc bc 1b 8f	 mov	 eax, -1894007588	; ffffffff8f1bbcdcH
  02001	48 03 c2	 add	 rax, rdx
  02004	03 c8		 add	 ecx, eax
  02006	8b 44 24 08	 mov	 eax, DWORD PTR v3$[rsp]
  0200a	03 c1		 add	 eax, ecx
  0200c	89 44 24 08	 mov	 DWORD PTR v3$[rsp], eax
  02010	8b 44 24 18	 mov	 eax, DWORD PTR v0$[rsp]
  02014	c1 e8 02	 shr	 eax, 2
  02017	8b 4c 24 18	 mov	 ecx, DWORD PTR v0$[rsp]
  0201b	c1 e1 1e	 shl	 ecx, 30
  0201e	0b c1		 or	 eax, ecx
  02020	89 44 24 18	 mov	 DWORD PTR v0$[rsp], eax
  02024	48 8b 0c 24	 mov	 rcx, QWORD PTR w$[rsp]
  02028	48 8b 04 24	 mov	 rax, QWORD PTR w$[rsp]
  0202c	8b 40 04	 mov	 eax, DWORD PTR [rax+4]
  0202f	44 8b 41 18	 mov	 r8d, DWORD PTR [rcx+24]
  02033	44 33 c0	 xor	 r8d, eax
  02036	48 8b 04 24	 mov	 rax, QWORD PTR w$[rsp]
  0203a	44 33 40 2c	 xor	 r8d, DWORD PTR [rax+44]
  0203e	48 8b 04 24	 mov	 rax, QWORD PTR w$[rsp]
  02042	44 33 40 24	 xor	 r8d, DWORD PTR [rax+36]
  02046	41 d1 e0	 shl	 r8d, 1
  02049	48 8b 14 24	 mov	 rdx, QWORD PTR w$[rsp]
  0204d	48 8b 04 24	 mov	 rax, QWORD PTR w$[rsp]
  02051	8b 48 04	 mov	 ecx, DWORD PTR [rax+4]
  02054	8b 42 18	 mov	 eax, DWORD PTR [rdx+24]
  02057	33 c1		 xor	 eax, ecx
  02059	48 8b 0c 24	 mov	 rcx, QWORD PTR w$[rsp]
  0205d	33 41 2c	 xor	 eax, DWORD PTR [rcx+44]
  02060	48 8b 0c 24	 mov	 rcx, QWORD PTR w$[rsp]
  02064	33 41 24	 xor	 eax, DWORD PTR [rcx+36]
  02067	c1 e8 1f	 shr	 eax, 31
  0206a	41 8b c8	 mov	 ecx, r8d
  0206d	0b c8		 or	 ecx, eax
  0206f	48 8b 04 24	 mov	 rax, QWORD PTR w$[rsp]
  02073	89 48 24	 mov	 DWORD PTR [rax+36], ecx
  02076	8b 4c 24 18	 mov	 ecx, DWORD PTR v0$[rsp]
  0207a	8b 44 24 10	 mov	 eax, DWORD PTR v4$[rsp]
  0207e	33 c1		 xor	 eax, ecx
  02080	8b 54 24 0c	 mov	 edx, DWORD PTR v1$[rsp]
  02084	23 d0		 and	 edx, eax
  02086	8b 44 24 18	 mov	 eax, DWORD PTR v0$[rsp]
  0208a	8b 4c 24 10	 mov	 ecx, DWORD PTR v4$[rsp]
  0208e	23 c8		 and	 ecx, eax
  02090	0b ca		 or	 ecx, edx
  02092	8b 44 24 08	 mov	 eax, DWORD PTR v3$[rsp]
  02096	c1 e0 05	 shl	 eax, 5
  02099	8b 54 24 08	 mov	 edx, DWORD PTR v3$[rsp]
  0209d	c1 ea 1b	 shr	 edx, 27
  020a0	0b d0		 or	 edx, eax
  020a2	03 d1		 add	 edx, ecx
  020a4	48 8b 04 24	 mov	 rax, QWORD PTR w$[rsp]
  020a8	8b 48 24	 mov	 ecx, DWORD PTR [rax+36]
  020ab	b8 dc bc 1b 8f	 mov	 eax, -1894007588	; ffffffff8f1bbcdcH
  020b0	48 03 c2	 add	 rax, rdx
  020b3	03 c8		 add	 ecx, eax
  020b5	8b 44 24 14	 mov	 eax, DWORD PTR v2$[rsp]
  020b9	03 c1		 add	 eax, ecx
  020bb	89 44 24 14	 mov	 DWORD PTR v2$[rsp], eax
  020bf	8b 44 24 10	 mov	 eax, DWORD PTR v4$[rsp]
  020c3	c1 e8 02	 shr	 eax, 2
  020c6	8b 4c 24 10	 mov	 ecx, DWORD PTR v4$[rsp]
  020ca	c1 e1 1e	 shl	 ecx, 30
  020cd	0b c1		 or	 eax, ecx
  020cf	89 44 24 10	 mov	 DWORD PTR v4$[rsp], eax
  020d3	48 8b 0c 24	 mov	 rcx, QWORD PTR w$[rsp]
  020d7	48 8b 04 24	 mov	 rax, QWORD PTR w$[rsp]
  020db	8b 40 08	 mov	 eax, DWORD PTR [rax+8]
  020de	44 8b 41 1c	 mov	 r8d, DWORD PTR [rcx+28]
  020e2	44 33 c0	 xor	 r8d, eax
  020e5	48 8b 04 24	 mov	 rax, QWORD PTR w$[rsp]
  020e9	44 33 40 30	 xor	 r8d, DWORD PTR [rax+48]
  020ed	48 8b 04 24	 mov	 rax, QWORD PTR w$[rsp]
  020f1	44 33 40 28	 xor	 r8d, DWORD PTR [rax+40]
  020f5	41 d1 e0	 shl	 r8d, 1
  020f8	48 8b 14 24	 mov	 rdx, QWORD PTR w$[rsp]
  020fc	48 8b 04 24	 mov	 rax, QWORD PTR w$[rsp]
  02100	8b 48 08	 mov	 ecx, DWORD PTR [rax+8]
  02103	8b 42 1c	 mov	 eax, DWORD PTR [rdx+28]
  02106	33 c1		 xor	 eax, ecx
  02108	48 8b 0c 24	 mov	 rcx, QWORD PTR w$[rsp]
  0210c	33 41 30	 xor	 eax, DWORD PTR [rcx+48]
  0210f	48 8b 0c 24	 mov	 rcx, QWORD PTR w$[rsp]
  02113	33 41 28	 xor	 eax, DWORD PTR [rcx+40]
  02116	c1 e8 1f	 shr	 eax, 31
  02119	41 8b c8	 mov	 ecx, r8d
  0211c	0b c8		 or	 ecx, eax
  0211e	48 8b 04 24	 mov	 rax, QWORD PTR w$[rsp]
  02122	89 48 28	 mov	 DWORD PTR [rax+40], ecx
  02125	8b 4c 24 10	 mov	 ecx, DWORD PTR v4$[rsp]
  02129	8b 44 24 08	 mov	 eax, DWORD PTR v3$[rsp]
  0212d	33 c1		 xor	 eax, ecx
  0212f	8b 54 24 18	 mov	 edx, DWORD PTR v0$[rsp]
  02133	23 d0		 and	 edx, eax
  02135	8b 44 24 10	 mov	 eax, DWORD PTR v4$[rsp]
  02139	8b 4c 24 08	 mov	 ecx, DWORD PTR v3$[rsp]
  0213d	23 c8		 and	 ecx, eax
  0213f	0b ca		 or	 ecx, edx
  02141	8b 44 24 14	 mov	 eax, DWORD PTR v2$[rsp]
  02145	c1 e0 05	 shl	 eax, 5
  02148	8b 54 24 14	 mov	 edx, DWORD PTR v2$[rsp]
  0214c	c1 ea 1b	 shr	 edx, 27
  0214f	0b d0		 or	 edx, eax
  02151	03 d1		 add	 edx, ecx
  02153	48 8b 04 24	 mov	 rax, QWORD PTR w$[rsp]
  02157	8b 48 28	 mov	 ecx, DWORD PTR [rax+40]
  0215a	b8 dc bc 1b 8f	 mov	 eax, -1894007588	; ffffffff8f1bbcdcH
  0215f	48 03 c2	 add	 rax, rdx
  02162	03 c8		 add	 ecx, eax
  02164	8b 44 24 0c	 mov	 eax, DWORD PTR v1$[rsp]
  02168	03 c1		 add	 eax, ecx
  0216a	89 44 24 0c	 mov	 DWORD PTR v1$[rsp], eax
  0216e	8b 44 24 08	 mov	 eax, DWORD PTR v3$[rsp]
  02172	c1 e8 02	 shr	 eax, 2
  02175	8b 4c 24 08	 mov	 ecx, DWORD PTR v3$[rsp]
  02179	c1 e1 1e	 shl	 ecx, 30
  0217c	0b c1		 or	 eax, ecx
  0217e	89 44 24 08	 mov	 DWORD PTR v3$[rsp], eax
  02182	48 8b 0c 24	 mov	 rcx, QWORD PTR w$[rsp]
  02186	48 8b 04 24	 mov	 rax, QWORD PTR w$[rsp]
  0218a	8b 40 0c	 mov	 eax, DWORD PTR [rax+12]
  0218d	44 8b 41 20	 mov	 r8d, DWORD PTR [rcx+32]
  02191	44 33 c0	 xor	 r8d, eax
  02194	48 8b 04 24	 mov	 rax, QWORD PTR w$[rsp]
  02198	44 33 40 34	 xor	 r8d, DWORD PTR [rax+52]
  0219c	48 8b 04 24	 mov	 rax, QWORD PTR w$[rsp]
  021a0	44 33 40 2c	 xor	 r8d, DWORD PTR [rax+44]
  021a4	41 d1 e0	 shl	 r8d, 1
  021a7	48 8b 14 24	 mov	 rdx, QWORD PTR w$[rsp]
  021ab	48 8b 04 24	 mov	 rax, QWORD PTR w$[rsp]
  021af	8b 48 0c	 mov	 ecx, DWORD PTR [rax+12]
  021b2	8b 42 20	 mov	 eax, DWORD PTR [rdx+32]
  021b5	33 c1		 xor	 eax, ecx
  021b7	48 8b 0c 24	 mov	 rcx, QWORD PTR w$[rsp]
  021bb	33 41 34	 xor	 eax, DWORD PTR [rcx+52]
  021be	48 8b 0c 24	 mov	 rcx, QWORD PTR w$[rsp]
  021c2	33 41 2c	 xor	 eax, DWORD PTR [rcx+44]
  021c5	c1 e8 1f	 shr	 eax, 31
  021c8	41 8b c8	 mov	 ecx, r8d
  021cb	0b c8		 or	 ecx, eax
  021cd	48 8b 04 24	 mov	 rax, QWORD PTR w$[rsp]
  021d1	89 48 2c	 mov	 DWORD PTR [rax+44], ecx
  021d4	8b 4c 24 08	 mov	 ecx, DWORD PTR v3$[rsp]
  021d8	8b 44 24 14	 mov	 eax, DWORD PTR v2$[rsp]
  021dc	33 c1		 xor	 eax, ecx
  021de	8b 54 24 10	 mov	 edx, DWORD PTR v4$[rsp]
  021e2	23 d0		 and	 edx, eax
  021e4	8b 44 24 08	 mov	 eax, DWORD PTR v3$[rsp]
  021e8	8b 4c 24 14	 mov	 ecx, DWORD PTR v2$[rsp]
  021ec	23 c8		 and	 ecx, eax
  021ee	0b ca		 or	 ecx, edx
  021f0	8b 44 24 0c	 mov	 eax, DWORD PTR v1$[rsp]
  021f4	c1 e0 05	 shl	 eax, 5
  021f7	8b 54 24 0c	 mov	 edx, DWORD PTR v1$[rsp]
  021fb	c1 ea 1b	 shr	 edx, 27
  021fe	0b d0		 or	 edx, eax
  02200	03 d1		 add	 edx, ecx
  02202	48 8b 04 24	 mov	 rax, QWORD PTR w$[rsp]
  02206	8b 48 2c	 mov	 ecx, DWORD PTR [rax+44]
  02209	b8 dc bc 1b 8f	 mov	 eax, -1894007588	; ffffffff8f1bbcdcH
  0220e	48 03 c2	 add	 rax, rdx
  02211	03 c8		 add	 ecx, eax
  02213	8b 44 24 18	 mov	 eax, DWORD PTR v0$[rsp]
  02217	03 c1		 add	 eax, ecx
  02219	89 44 24 18	 mov	 DWORD PTR v0$[rsp], eax
  0221d	8b 44 24 14	 mov	 eax, DWORD PTR v2$[rsp]
  02221	c1 e8 02	 shr	 eax, 2
  02224	8b 4c 24 14	 mov	 ecx, DWORD PTR v2$[rsp]
  02228	c1 e1 1e	 shl	 ecx, 30
  0222b	0b c1		 or	 eax, ecx
  0222d	89 44 24 14	 mov	 DWORD PTR v2$[rsp], eax

; 179  : 
; 180  :     five_cycle(v, parity, 0xca62c1d6,  60);

  02231	48 8b 0c 24	 mov	 rcx, QWORD PTR w$[rsp]
  02235	48 8b 04 24	 mov	 rax, QWORD PTR w$[rsp]
  02239	8b 40 10	 mov	 eax, DWORD PTR [rax+16]
  0223c	44 8b 41 24	 mov	 r8d, DWORD PTR [rcx+36]
  02240	44 33 c0	 xor	 r8d, eax
  02243	48 8b 04 24	 mov	 rax, QWORD PTR w$[rsp]
  02247	44 33 40 38	 xor	 r8d, DWORD PTR [rax+56]
  0224b	48 8b 04 24	 mov	 rax, QWORD PTR w$[rsp]
  0224f	44 33 40 30	 xor	 r8d, DWORD PTR [rax+48]
  02253	41 d1 e0	 shl	 r8d, 1
  02256	48 8b 14 24	 mov	 rdx, QWORD PTR w$[rsp]
  0225a	48 8b 04 24	 mov	 rax, QWORD PTR w$[rsp]
  0225e	8b 48 10	 mov	 ecx, DWORD PTR [rax+16]
  02261	8b 42 24	 mov	 eax, DWORD PTR [rdx+36]
  02264	33 c1		 xor	 eax, ecx
  02266	48 8b 0c 24	 mov	 rcx, QWORD PTR w$[rsp]
  0226a	33 41 38	 xor	 eax, DWORD PTR [rcx+56]
  0226d	48 8b 0c 24	 mov	 rcx, QWORD PTR w$[rsp]
  02271	33 41 30	 xor	 eax, DWORD PTR [rcx+48]
  02274	c1 e8 1f	 shr	 eax, 31
  02277	41 8b c8	 mov	 ecx, r8d
  0227a	0b c8		 or	 ecx, eax
  0227c	48 8b 04 24	 mov	 rax, QWORD PTR w$[rsp]
  02280	89 48 30	 mov	 DWORD PTR [rax+48], ecx
  02283	8b 44 24 14	 mov	 eax, DWORD PTR v2$[rsp]
  02287	8b 4c 24 0c	 mov	 ecx, DWORD PTR v1$[rsp]
  0228b	33 c8		 xor	 ecx, eax
  0228d	33 4c 24 08	 xor	 ecx, DWORD PTR v3$[rsp]
  02291	8b 44 24 18	 mov	 eax, DWORD PTR v0$[rsp]
  02295	c1 e0 05	 shl	 eax, 5
  02298	8b 54 24 18	 mov	 edx, DWORD PTR v0$[rsp]
  0229c	c1 ea 1b	 shr	 edx, 27
  0229f	0b d0		 or	 edx, eax
  022a1	03 d1		 add	 edx, ecx
  022a3	48 8b 04 24	 mov	 rax, QWORD PTR w$[rsp]
  022a7	8b 48 30	 mov	 ecx, DWORD PTR [rax+48]
  022aa	b8 d6 c1 62 ca	 mov	 eax, -899497514		; ffffffffca62c1d6H
  022af	48 03 c2	 add	 rax, rdx
  022b2	03 c8		 add	 ecx, eax
  022b4	8b 44 24 10	 mov	 eax, DWORD PTR v4$[rsp]
  022b8	03 c1		 add	 eax, ecx
  022ba	89 44 24 10	 mov	 DWORD PTR v4$[rsp], eax
  022be	8b 44 24 0c	 mov	 eax, DWORD PTR v1$[rsp]
  022c2	c1 e8 02	 shr	 eax, 2
  022c5	8b 4c 24 0c	 mov	 ecx, DWORD PTR v1$[rsp]
  022c9	c1 e1 1e	 shl	 ecx, 30
  022cc	0b c1		 or	 eax, ecx
  022ce	89 44 24 0c	 mov	 DWORD PTR v1$[rsp], eax
  022d2	48 8b 0c 24	 mov	 rcx, QWORD PTR w$[rsp]
  022d6	48 8b 04 24	 mov	 rax, QWORD PTR w$[rsp]
  022da	8b 40 14	 mov	 eax, DWORD PTR [rax+20]
  022dd	44 8b 41 28	 mov	 r8d, DWORD PTR [rcx+40]
  022e1	44 33 c0	 xor	 r8d, eax
  022e4	48 8b 04 24	 mov	 rax, QWORD PTR w$[rsp]
  022e8	44 33 40 3c	 xor	 r8d, DWORD PTR [rax+60]
  022ec	48 8b 04 24	 mov	 rax, QWORD PTR w$[rsp]
  022f0	44 33 40 34	 xor	 r8d, DWORD PTR [rax+52]
  022f4	41 d1 e0	 shl	 r8d, 1
  022f7	48 8b 14 24	 mov	 rdx, QWORD PTR w$[rsp]
  022fb	48 8b 04 24	 mov	 rax, QWORD PTR w$[rsp]
  022ff	8b 48 14	 mov	 ecx, DWORD PTR [rax+20]
  02302	8b 42 28	 mov	 eax, DWORD PTR [rdx+40]
  02305	33 c1		 xor	 eax, ecx
  02307	48 8b 0c 24	 mov	 rcx, QWORD PTR w$[rsp]
  0230b	33 41 3c	 xor	 eax, DWORD PTR [rcx+60]
  0230e	48 8b 0c 24	 mov	 rcx, QWORD PTR w$[rsp]
  02312	33 41 34	 xor	 eax, DWORD PTR [rcx+52]
  02315	c1 e8 1f	 shr	 eax, 31
  02318	41 8b c8	 mov	 ecx, r8d
  0231b	0b c8		 or	 ecx, eax
  0231d	48 8b 04 24	 mov	 rax, QWORD PTR w$[rsp]
  02321	89 48 34	 mov	 DWORD PTR [rax+52], ecx
  02324	8b 44 24 0c	 mov	 eax, DWORD PTR v1$[rsp]
  02328	8b 4c 24 18	 mov	 ecx, DWORD PTR v0$[rsp]
  0232c	33 c8		 xor	 ecx, eax
  0232e	33 4c 24 14	 xor	 ecx, DWORD PTR v2$[rsp]
  02332	8b 44 24 10	 mov	 eax, DWORD PTR v4$[rsp]
  02336	c1 e0 05	 shl	 eax, 5
  02339	8b 54 24 10	 mov	 edx, DWORD PTR v4$[rsp]
  0233d	c1 ea 1b	 shr	 edx, 27
  02340	0b d0		 or	 edx, eax
  02342	03 d1		 add	 edx, ecx
  02344	48 8b 04 24	 mov	 rax, QWORD PTR w$[rsp]
  02348	8b 48 34	 mov	 ecx, DWORD PTR [rax+52]
  0234b	b8 d6 c1 62 ca	 mov	 eax, -899497514		; ffffffffca62c1d6H
  02350	48 03 c2	 add	 rax, rdx
  02353	03 c8		 add	 ecx, eax
  02355	8b 44 24 08	 mov	 eax, DWORD PTR v3$[rsp]
  02359	03 c1		 add	 eax, ecx
  0235b	89 44 24 08	 mov	 DWORD PTR v3$[rsp], eax
  0235f	8b 44 24 18	 mov	 eax, DWORD PTR v0$[rsp]
  02363	c1 e8 02	 shr	 eax, 2
  02366	8b 4c 24 18	 mov	 ecx, DWORD PTR v0$[rsp]
  0236a	c1 e1 1e	 shl	 ecx, 30
  0236d	0b c1		 or	 eax, ecx
  0236f	89 44 24 18	 mov	 DWORD PTR v0$[rsp], eax
  02373	48 8b 0c 24	 mov	 rcx, QWORD PTR w$[rsp]
  02377	48 8b 04 24	 mov	 rax, QWORD PTR w$[rsp]
  0237b	8b 40 18	 mov	 eax, DWORD PTR [rax+24]
  0237e	44 8b 41 2c	 mov	 r8d, DWORD PTR [rcx+44]
  02382	44 33 c0	 xor	 r8d, eax
  02385	48 8b 04 24	 mov	 rax, QWORD PTR w$[rsp]
  02389	44 33 00	 xor	 r8d, DWORD PTR [rax]
  0238c	48 8b 04 24	 mov	 rax, QWORD PTR w$[rsp]
  02390	44 33 40 38	 xor	 r8d, DWORD PTR [rax+56]
  02394	41 d1 e0	 shl	 r8d, 1
  02397	48 8b 14 24	 mov	 rdx, QWORD PTR w$[rsp]
  0239b	48 8b 04 24	 mov	 rax, QWORD PTR w$[rsp]
  0239f	8b 48 18	 mov	 ecx, DWORD PTR [rax+24]
  023a2	8b 42 2c	 mov	 eax, DWORD PTR [rdx+44]
  023a5	33 c1		 xor	 eax, ecx
  023a7	48 8b 0c 24	 mov	 rcx, QWORD PTR w$[rsp]
  023ab	33 01		 xor	 eax, DWORD PTR [rcx]
  023ad	48 8b 0c 24	 mov	 rcx, QWORD PTR w$[rsp]
  023b1	33 41 38	 xor	 eax, DWORD PTR [rcx+56]
  023b4	c1 e8 1f	 shr	 eax, 31
  023b7	41 8b c8	 mov	 ecx, r8d
  023ba	0b c8		 or	 ecx, eax
  023bc	48 8b 04 24	 mov	 rax, QWORD PTR w$[rsp]
  023c0	89 48 38	 mov	 DWORD PTR [rax+56], ecx
  023c3	8b 44 24 18	 mov	 eax, DWORD PTR v0$[rsp]
  023c7	8b 4c 24 10	 mov	 ecx, DWORD PTR v4$[rsp]
  023cb	33 c8		 xor	 ecx, eax
  023cd	33 4c 24 0c	 xor	 ecx, DWORD PTR v1$[rsp]
  023d1	8b 44 24 08	 mov	 eax, DWORD PTR v3$[rsp]
  023d5	c1 e0 05	 shl	 eax, 5
  023d8	8b 54 24 08	 mov	 edx, DWORD PTR v3$[rsp]
  023dc	c1 ea 1b	 shr	 edx, 27
  023df	0b d0		 or	 edx, eax
  023e1	03 d1		 add	 edx, ecx
  023e3	48 8b 04 24	 mov	 rax, QWORD PTR w$[rsp]
  023e7	8b 48 38	 mov	 ecx, DWORD PTR [rax+56]
  023ea	b8 d6 c1 62 ca	 mov	 eax, -899497514		; ffffffffca62c1d6H
  023ef	48 03 c2	 add	 rax, rdx
  023f2	03 c8		 add	 ecx, eax
  023f4	8b 44 24 14	 mov	 eax, DWORD PTR v2$[rsp]
  023f8	03 c1		 add	 eax, ecx
  023fa	89 44 24 14	 mov	 DWORD PTR v2$[rsp], eax
  023fe	8b 44 24 10	 mov	 eax, DWORD PTR v4$[rsp]
  02402	c1 e8 02	 shr	 eax, 2
  02405	8b 4c 24 10	 mov	 ecx, DWORD PTR v4$[rsp]
  02409	c1 e1 1e	 shl	 ecx, 30
  0240c	0b c1		 or	 eax, ecx
  0240e	89 44 24 10	 mov	 DWORD PTR v4$[rsp], eax
  02412	48 8b 0c 24	 mov	 rcx, QWORD PTR w$[rsp]
  02416	48 8b 04 24	 mov	 rax, QWORD PTR w$[rsp]
  0241a	8b 40 1c	 mov	 eax, DWORD PTR [rax+28]
  0241d	44 8b 41 30	 mov	 r8d, DWORD PTR [rcx+48]
  02421	44 33 c0	 xor	 r8d, eax
  02424	48 8b 04 24	 mov	 rax, QWORD PTR w$[rsp]
  02428	44 33 40 04	 xor	 r8d, DWORD PTR [rax+4]
  0242c	48 8b 04 24	 mov	 rax, QWORD PTR w$[rsp]
  02430	44 33 40 3c	 xor	 r8d, DWORD PTR [rax+60]
  02434	41 d1 e0	 shl	 r8d, 1
  02437	48 8b 14 24	 mov	 rdx, QWORD PTR w$[rsp]
  0243b	48 8b 04 24	 mov	 rax, QWORD PTR w$[rsp]
  0243f	8b 48 1c	 mov	 ecx, DWORD PTR [rax+28]
  02442	8b 42 30	 mov	 eax, DWORD PTR [rdx+48]
  02445	33 c1		 xor	 eax, ecx
  02447	48 8b 0c 24	 mov	 rcx, QWORD PTR w$[rsp]
  0244b	33 41 04	 xor	 eax, DWORD PTR [rcx+4]
  0244e	48 8b 0c 24	 mov	 rcx, QWORD PTR w$[rsp]
  02452	33 41 3c	 xor	 eax, DWORD PTR [rcx+60]
  02455	c1 e8 1f	 shr	 eax, 31
  02458	41 8b c8	 mov	 ecx, r8d
  0245b	0b c8		 or	 ecx, eax
  0245d	48 8b 04 24	 mov	 rax, QWORD PTR w$[rsp]
  02461	89 48 3c	 mov	 DWORD PTR [rax+60], ecx
  02464	8b 44 24 10	 mov	 eax, DWORD PTR v4$[rsp]
  02468	8b 4c 24 08	 mov	 ecx, DWORD PTR v3$[rsp]
  0246c	33 c8		 xor	 ecx, eax
  0246e	33 4c 24 18	 xor	 ecx, DWORD PTR v0$[rsp]
  02472	8b 44 24 14	 mov	 eax, DWORD PTR v2$[rsp]
  02476	c1 e0 05	 shl	 eax, 5
  02479	8b 54 24 14	 mov	 edx, DWORD PTR v2$[rsp]
  0247d	c1 ea 1b	 shr	 edx, 27
  02480	0b d0		 or	 edx, eax
  02482	03 d1		 add	 edx, ecx
  02484	48 8b 04 24	 mov	 rax, QWORD PTR w$[rsp]
  02488	8b 48 3c	 mov	 ecx, DWORD PTR [rax+60]
  0248b	b8 d6 c1 62 ca	 mov	 eax, -899497514		; ffffffffca62c1d6H
  02490	48 03 c2	 add	 rax, rdx
  02493	03 c8		 add	 ecx, eax
  02495	8b 44 24 0c	 mov	 eax, DWORD PTR v1$[rsp]
  02499	03 c1		 add	 eax, ecx
  0249b	89 44 24 0c	 mov	 DWORD PTR v1$[rsp], eax
  0249f	8b 44 24 08	 mov	 eax, DWORD PTR v3$[rsp]
  024a3	c1 e8 02	 shr	 eax, 2
  024a6	8b 4c 24 08	 mov	 ecx, DWORD PTR v3$[rsp]
  024aa	c1 e1 1e	 shl	 ecx, 30
  024ad	0b c1		 or	 eax, ecx
  024af	89 44 24 08	 mov	 DWORD PTR v3$[rsp], eax
  024b3	48 8b 0c 24	 mov	 rcx, QWORD PTR w$[rsp]
  024b7	48 8b 04 24	 mov	 rax, QWORD PTR w$[rsp]
  024bb	8b 40 20	 mov	 eax, DWORD PTR [rax+32]
  024be	44 8b 41 34	 mov	 r8d, DWORD PTR [rcx+52]
  024c2	44 33 c0	 xor	 r8d, eax
  024c5	48 8b 04 24	 mov	 rax, QWORD PTR w$[rsp]
  024c9	44 33 40 08	 xor	 r8d, DWORD PTR [rax+8]
  024cd	48 8b 04 24	 mov	 rax, QWORD PTR w$[rsp]
  024d1	44 33 00	 xor	 r8d, DWORD PTR [rax]
  024d4	41 d1 e0	 shl	 r8d, 1
  024d7	48 8b 14 24	 mov	 rdx, QWORD PTR w$[rsp]
  024db	48 8b 04 24	 mov	 rax, QWORD PTR w$[rsp]
  024df	8b 48 20	 mov	 ecx, DWORD PTR [rax+32]
  024e2	8b 42 34	 mov	 eax, DWORD PTR [rdx+52]
  024e5	33 c1		 xor	 eax, ecx
  024e7	48 8b 0c 24	 mov	 rcx, QWORD PTR w$[rsp]
  024eb	33 41 08	 xor	 eax, DWORD PTR [rcx+8]
  024ee	48 8b 0c 24	 mov	 rcx, QWORD PTR w$[rsp]
  024f2	33 01		 xor	 eax, DWORD PTR [rcx]
  024f4	c1 e8 1f	 shr	 eax, 31
  024f7	41 8b c8	 mov	 ecx, r8d
  024fa	0b c8		 or	 ecx, eax
  024fc	48 8b 04 24	 mov	 rax, QWORD PTR w$[rsp]
  02500	89 08		 mov	 DWORD PTR [rax], ecx
  02502	8b 44 24 08	 mov	 eax, DWORD PTR v3$[rsp]
  02506	8b 4c 24 14	 mov	 ecx, DWORD PTR v2$[rsp]
  0250a	33 c8		 xor	 ecx, eax
  0250c	33 4c 24 10	 xor	 ecx, DWORD PTR v4$[rsp]
  02510	8b 44 24 0c	 mov	 eax, DWORD PTR v1$[rsp]
  02514	c1 e0 05	 shl	 eax, 5
  02517	8b 54 24 0c	 mov	 edx, DWORD PTR v1$[rsp]
  0251b	c1 ea 1b	 shr	 edx, 27
  0251e	0b d0		 or	 edx, eax
  02520	03 d1		 add	 edx, ecx
  02522	48 8b 04 24	 mov	 rax, QWORD PTR w$[rsp]
  02526	8b 08		 mov	 ecx, DWORD PTR [rax]
  02528	b8 d6 c1 62 ca	 mov	 eax, -899497514		; ffffffffca62c1d6H
  0252d	48 03 c2	 add	 rax, rdx
  02530	03 c8		 add	 ecx, eax
  02532	8b 44 24 18	 mov	 eax, DWORD PTR v0$[rsp]
  02536	03 c1		 add	 eax, ecx
  02538	89 44 24 18	 mov	 DWORD PTR v0$[rsp], eax
  0253c	8b 44 24 14	 mov	 eax, DWORD PTR v2$[rsp]
  02540	c1 e8 02	 shr	 eax, 2
  02543	8b 4c 24 14	 mov	 ecx, DWORD PTR v2$[rsp]
  02547	c1 e1 1e	 shl	 ecx, 30
  0254a	0b c1		 or	 eax, ecx
  0254c	89 44 24 14	 mov	 DWORD PTR v2$[rsp], eax

; 181  :     five_cycle(v, parity, 0xca62c1d6,  65);

  02550	48 8b 0c 24	 mov	 rcx, QWORD PTR w$[rsp]
  02554	48 8b 04 24	 mov	 rax, QWORD PTR w$[rsp]
  02558	8b 40 24	 mov	 eax, DWORD PTR [rax+36]
  0255b	44 8b 41 38	 mov	 r8d, DWORD PTR [rcx+56]
  0255f	44 33 c0	 xor	 r8d, eax
  02562	48 8b 04 24	 mov	 rax, QWORD PTR w$[rsp]
  02566	44 33 40 0c	 xor	 r8d, DWORD PTR [rax+12]
  0256a	48 8b 04 24	 mov	 rax, QWORD PTR w$[rsp]
  0256e	44 33 40 04	 xor	 r8d, DWORD PTR [rax+4]
  02572	41 d1 e0	 shl	 r8d, 1
  02575	48 8b 14 24	 mov	 rdx, QWORD PTR w$[rsp]
  02579	48 8b 04 24	 mov	 rax, QWORD PTR w$[rsp]
  0257d	8b 48 24	 mov	 ecx, DWORD PTR [rax+36]
  02580	8b 42 38	 mov	 eax, DWORD PTR [rdx+56]
  02583	33 c1		 xor	 eax, ecx
  02585	48 8b 0c 24	 mov	 rcx, QWORD PTR w$[rsp]
  02589	33 41 0c	 xor	 eax, DWORD PTR [rcx+12]
  0258c	48 8b 0c 24	 mov	 rcx, QWORD PTR w$[rsp]
  02590	33 41 04	 xor	 eax, DWORD PTR [rcx+4]
  02593	c1 e8 1f	 shr	 eax, 31
  02596	41 8b c8	 mov	 ecx, r8d
  02599	0b c8		 or	 ecx, eax
  0259b	48 8b 04 24	 mov	 rax, QWORD PTR w$[rsp]
  0259f	89 48 04	 mov	 DWORD PTR [rax+4], ecx
  025a2	8b 44 24 14	 mov	 eax, DWORD PTR v2$[rsp]
  025a6	8b 4c 24 0c	 mov	 ecx, DWORD PTR v1$[rsp]
  025aa	33 c8		 xor	 ecx, eax
  025ac	33 4c 24 08	 xor	 ecx, DWORD PTR v3$[rsp]
  025b0	8b 44 24 18	 mov	 eax, DWORD PTR v0$[rsp]
  025b4	c1 e0 05	 shl	 eax, 5
  025b7	8b 54 24 18	 mov	 edx, DWORD PTR v0$[rsp]
  025bb	c1 ea 1b	 shr	 edx, 27
  025be	0b d0		 or	 edx, eax
  025c0	03 d1		 add	 edx, ecx
  025c2	48 8b 04 24	 mov	 rax, QWORD PTR w$[rsp]
  025c6	8b 48 04	 mov	 ecx, DWORD PTR [rax+4]
  025c9	b8 d6 c1 62 ca	 mov	 eax, -899497514		; ffffffffca62c1d6H
  025ce	48 03 c2	 add	 rax, rdx
  025d1	03 c8		 add	 ecx, eax
  025d3	8b 44 24 10	 mov	 eax, DWORD PTR v4$[rsp]
  025d7	03 c1		 add	 eax, ecx
  025d9	89 44 24 10	 mov	 DWORD PTR v4$[rsp], eax
  025dd	8b 44 24 0c	 mov	 eax, DWORD PTR v1$[rsp]
  025e1	c1 e8 02	 shr	 eax, 2
  025e4	8b 4c 24 0c	 mov	 ecx, DWORD PTR v1$[rsp]
  025e8	c1 e1 1e	 shl	 ecx, 30
  025eb	0b c1		 or	 eax, ecx
  025ed	89 44 24 0c	 mov	 DWORD PTR v1$[rsp], eax
  025f1	48 8b 0c 24	 mov	 rcx, QWORD PTR w$[rsp]
  025f5	48 8b 04 24	 mov	 rax, QWORD PTR w$[rsp]
  025f9	8b 40 28	 mov	 eax, DWORD PTR [rax+40]
  025fc	44 8b 41 3c	 mov	 r8d, DWORD PTR [rcx+60]
  02600	44 33 c0	 xor	 r8d, eax
  02603	48 8b 04 24	 mov	 rax, QWORD PTR w$[rsp]
  02607	44 33 40 10	 xor	 r8d, DWORD PTR [rax+16]
  0260b	48 8b 04 24	 mov	 rax, QWORD PTR w$[rsp]
  0260f	44 33 40 08	 xor	 r8d, DWORD PTR [rax+8]
  02613	41 d1 e0	 shl	 r8d, 1
  02616	48 8b 14 24	 mov	 rdx, QWORD PTR w$[rsp]
  0261a	48 8b 04 24	 mov	 rax, QWORD PTR w$[rsp]
  0261e	8b 48 28	 mov	 ecx, DWORD PTR [rax+40]
  02621	8b 42 3c	 mov	 eax, DWORD PTR [rdx+60]
  02624	33 c1		 xor	 eax, ecx
  02626	48 8b 0c 24	 mov	 rcx, QWORD PTR w$[rsp]
  0262a	33 41 10	 xor	 eax, DWORD PTR [rcx+16]
  0262d	48 8b 0c 24	 mov	 rcx, QWORD PTR w$[rsp]
  02631	33 41 08	 xor	 eax, DWORD PTR [rcx+8]
  02634	c1 e8 1f	 shr	 eax, 31
  02637	41 8b c8	 mov	 ecx, r8d
  0263a	0b c8		 or	 ecx, eax
  0263c	48 8b 04 24	 mov	 rax, QWORD PTR w$[rsp]
  02640	89 48 08	 mov	 DWORD PTR [rax+8], ecx
  02643	8b 44 24 0c	 mov	 eax, DWORD PTR v1$[rsp]
  02647	8b 4c 24 18	 mov	 ecx, DWORD PTR v0$[rsp]
  0264b	33 c8		 xor	 ecx, eax
  0264d	33 4c 24 14	 xor	 ecx, DWORD PTR v2$[rsp]
  02651	8b 44 24 10	 mov	 eax, DWORD PTR v4$[rsp]
  02655	c1 e0 05	 shl	 eax, 5
  02658	8b 54 24 10	 mov	 edx, DWORD PTR v4$[rsp]
  0265c	c1 ea 1b	 shr	 edx, 27
  0265f	0b d0		 or	 edx, eax
  02661	03 d1		 add	 edx, ecx
  02663	48 8b 04 24	 mov	 rax, QWORD PTR w$[rsp]
  02667	8b 48 08	 mov	 ecx, DWORD PTR [rax+8]
  0266a	b8 d6 c1 62 ca	 mov	 eax, -899497514		; ffffffffca62c1d6H
  0266f	48 03 c2	 add	 rax, rdx
  02672	03 c8		 add	 ecx, eax
  02674	8b 44 24 08	 mov	 eax, DWORD PTR v3$[rsp]
  02678	03 c1		 add	 eax, ecx
  0267a	89 44 24 08	 mov	 DWORD PTR v3$[rsp], eax
  0267e	8b 44 24 18	 mov	 eax, DWORD PTR v0$[rsp]
  02682	c1 e8 02	 shr	 eax, 2
  02685	8b 4c 24 18	 mov	 ecx, DWORD PTR v0$[rsp]
  02689	c1 e1 1e	 shl	 ecx, 30
  0268c	0b c1		 or	 eax, ecx
  0268e	89 44 24 18	 mov	 DWORD PTR v0$[rsp], eax
  02692	48 8b 0c 24	 mov	 rcx, QWORD PTR w$[rsp]
  02696	48 8b 04 24	 mov	 rax, QWORD PTR w$[rsp]
  0269a	8b 40 2c	 mov	 eax, DWORD PTR [rax+44]
  0269d	44 8b 01	 mov	 r8d, DWORD PTR [rcx]
  026a0	44 33 c0	 xor	 r8d, eax
  026a3	48 8b 04 24	 mov	 rax, QWORD PTR w$[rsp]
  026a7	44 33 40 14	 xor	 r8d, DWORD PTR [rax+20]
  026ab	48 8b 04 24	 mov	 rax, QWORD PTR w$[rsp]
  026af	44 33 40 0c	 xor	 r8d, DWORD PTR [rax+12]
  026b3	41 d1 e0	 shl	 r8d, 1
  026b6	48 8b 14 24	 mov	 rdx, QWORD PTR w$[rsp]
  026ba	48 8b 04 24	 mov	 rax, QWORD PTR w$[rsp]
  026be	8b 48 2c	 mov	 ecx, DWORD PTR [rax+44]
  026c1	8b 02		 mov	 eax, DWORD PTR [rdx]
  026c3	33 c1		 xor	 eax, ecx
  026c5	48 8b 0c 24	 mov	 rcx, QWORD PTR w$[rsp]
  026c9	33 41 14	 xor	 eax, DWORD PTR [rcx+20]
  026cc	48 8b 0c 24	 mov	 rcx, QWORD PTR w$[rsp]
  026d0	33 41 0c	 xor	 eax, DWORD PTR [rcx+12]
  026d3	c1 e8 1f	 shr	 eax, 31
  026d6	41 8b c8	 mov	 ecx, r8d
  026d9	0b c8		 or	 ecx, eax
  026db	48 8b 04 24	 mov	 rax, QWORD PTR w$[rsp]
  026df	89 48 0c	 mov	 DWORD PTR [rax+12], ecx
  026e2	8b 44 24 18	 mov	 eax, DWORD PTR v0$[rsp]
  026e6	8b 4c 24 10	 mov	 ecx, DWORD PTR v4$[rsp]
  026ea	33 c8		 xor	 ecx, eax
  026ec	33 4c 24 0c	 xor	 ecx, DWORD PTR v1$[rsp]
  026f0	8b 44 24 08	 mov	 eax, DWORD PTR v3$[rsp]
  026f4	c1 e0 05	 shl	 eax, 5
  026f7	8b 54 24 08	 mov	 edx, DWORD PTR v3$[rsp]
  026fb	c1 ea 1b	 shr	 edx, 27
  026fe	0b d0		 or	 edx, eax
  02700	03 d1		 add	 edx, ecx
  02702	48 8b 04 24	 mov	 rax, QWORD PTR w$[rsp]
  02706	8b 48 0c	 mov	 ecx, DWORD PTR [rax+12]
  02709	b8 d6 c1 62 ca	 mov	 eax, -899497514		; ffffffffca62c1d6H
  0270e	48 03 c2	 add	 rax, rdx
  02711	03 c8		 add	 ecx, eax
  02713	8b 44 24 14	 mov	 eax, DWORD PTR v2$[rsp]
  02717	03 c1		 add	 eax, ecx
  02719	89 44 24 14	 mov	 DWORD PTR v2$[rsp], eax
  0271d	8b 44 24 10	 mov	 eax, DWORD PTR v4$[rsp]
  02721	c1 e8 02	 shr	 eax, 2
  02724	8b 4c 24 10	 mov	 ecx, DWORD PTR v4$[rsp]
  02728	c1 e1 1e	 shl	 ecx, 30
  0272b	0b c1		 or	 eax, ecx
  0272d	89 44 24 10	 mov	 DWORD PTR v4$[rsp], eax
  02731	48 8b 0c 24	 mov	 rcx, QWORD PTR w$[rsp]
  02735	48 8b 04 24	 mov	 rax, QWORD PTR w$[rsp]
  02739	8b 40 30	 mov	 eax, DWORD PTR [rax+48]
  0273c	44 8b 41 04	 mov	 r8d, DWORD PTR [rcx+4]
  02740	44 33 c0	 xor	 r8d, eax
  02743	48 8b 04 24	 mov	 rax, QWORD PTR w$[rsp]
  02747	44 33 40 18	 xor	 r8d, DWORD PTR [rax+24]
  0274b	48 8b 04 24	 mov	 rax, QWORD PTR w$[rsp]
  0274f	44 33 40 10	 xor	 r8d, DWORD PTR [rax+16]
  02753	41 d1 e0	 shl	 r8d, 1
  02756	48 8b 14 24	 mov	 rdx, QWORD PTR w$[rsp]
  0275a	48 8b 04 24	 mov	 rax, QWORD PTR w$[rsp]
  0275e	8b 48 30	 mov	 ecx, DWORD PTR [rax+48]
  02761	8b 42 04	 mov	 eax, DWORD PTR [rdx+4]
  02764	33 c1		 xor	 eax, ecx
  02766	48 8b 0c 24	 mov	 rcx, QWORD PTR w$[rsp]
  0276a	33 41 18	 xor	 eax, DWORD PTR [rcx+24]
  0276d	48 8b 0c 24	 mov	 rcx, QWORD PTR w$[rsp]
  02771	33 41 10	 xor	 eax, DWORD PTR [rcx+16]
  02774	c1 e8 1f	 shr	 eax, 31
  02777	41 8b c8	 mov	 ecx, r8d
  0277a	0b c8		 or	 ecx, eax
  0277c	48 8b 04 24	 mov	 rax, QWORD PTR w$[rsp]
  02780	89 48 10	 mov	 DWORD PTR [rax+16], ecx
  02783	8b 44 24 10	 mov	 eax, DWORD PTR v4$[rsp]
  02787	8b 4c 24 08	 mov	 ecx, DWORD PTR v3$[rsp]
  0278b	33 c8		 xor	 ecx, eax
  0278d	33 4c 24 18	 xor	 ecx, DWORD PTR v0$[rsp]
  02791	8b 44 24 14	 mov	 eax, DWORD PTR v2$[rsp]
  02795	c1 e0 05	 shl	 eax, 5
  02798	8b 54 24 14	 mov	 edx, DWORD PTR v2$[rsp]
  0279c	c1 ea 1b	 shr	 edx, 27
  0279f	0b d0		 or	 edx, eax
  027a1	03 d1		 add	 edx, ecx
  027a3	48 8b 04 24	 mov	 rax, QWORD PTR w$[rsp]
  027a7	8b 48 10	 mov	 ecx, DWORD PTR [rax+16]
  027aa	b8 d6 c1 62 ca	 mov	 eax, -899497514		; ffffffffca62c1d6H
  027af	48 03 c2	 add	 rax, rdx
  027b2	03 c8		 add	 ecx, eax
  027b4	8b 44 24 0c	 mov	 eax, DWORD PTR v1$[rsp]
  027b8	03 c1		 add	 eax, ecx
  027ba	89 44 24 0c	 mov	 DWORD PTR v1$[rsp], eax
  027be	8b 44 24 08	 mov	 eax, DWORD PTR v3$[rsp]
  027c2	c1 e8 02	 shr	 eax, 2
  027c5	8b 4c 24 08	 mov	 ecx, DWORD PTR v3$[rsp]
  027c9	c1 e1 1e	 shl	 ecx, 30
  027cc	0b c1		 or	 eax, ecx
  027ce	89 44 24 08	 mov	 DWORD PTR v3$[rsp], eax
  027d2	48 8b 0c 24	 mov	 rcx, QWORD PTR w$[rsp]
  027d6	48 8b 04 24	 mov	 rax, QWORD PTR w$[rsp]
  027da	8b 40 34	 mov	 eax, DWORD PTR [rax+52]
  027dd	44 8b 41 08	 mov	 r8d, DWORD PTR [rcx+8]
  027e1	44 33 c0	 xor	 r8d, eax
  027e4	48 8b 04 24	 mov	 rax, QWORD PTR w$[rsp]
  027e8	44 33 40 1c	 xor	 r8d, DWORD PTR [rax+28]
  027ec	48 8b 04 24	 mov	 rax, QWORD PTR w$[rsp]
  027f0	44 33 40 14	 xor	 r8d, DWORD PTR [rax+20]
  027f4	41 d1 e0	 shl	 r8d, 1
  027f7	48 8b 14 24	 mov	 rdx, QWORD PTR w$[rsp]
  027fb	48 8b 04 24	 mov	 rax, QWORD PTR w$[rsp]
  027ff	8b 48 34	 mov	 ecx, DWORD PTR [rax+52]
  02802	8b 42 08	 mov	 eax, DWORD PTR [rdx+8]
  02805	33 c1		 xor	 eax, ecx
  02807	48 8b 0c 24	 mov	 rcx, QWORD PTR w$[rsp]
  0280b	33 41 1c	 xor	 eax, DWORD PTR [rcx+28]
  0280e	48 8b 0c 24	 mov	 rcx, QWORD PTR w$[rsp]
  02812	33 41 14	 xor	 eax, DWORD PTR [rcx+20]
  02815	c1 e8 1f	 shr	 eax, 31
  02818	41 8b c8	 mov	 ecx, r8d
  0281b	0b c8		 or	 ecx, eax
  0281d	48 8b 04 24	 mov	 rax, QWORD PTR w$[rsp]
  02821	89 48 14	 mov	 DWORD PTR [rax+20], ecx
  02824	8b 44 24 08	 mov	 eax, DWORD PTR v3$[rsp]
  02828	8b 4c 24 14	 mov	 ecx, DWORD PTR v2$[rsp]
  0282c	33 c8		 xor	 ecx, eax
  0282e	33 4c 24 10	 xor	 ecx, DWORD PTR v4$[rsp]
  02832	8b 44 24 0c	 mov	 eax, DWORD PTR v1$[rsp]
  02836	c1 e0 05	 shl	 eax, 5
  02839	8b 54 24 0c	 mov	 edx, DWORD PTR v1$[rsp]
  0283d	c1 ea 1b	 shr	 edx, 27
  02840	0b d0		 or	 edx, eax
  02842	03 d1		 add	 edx, ecx
  02844	48 8b 04 24	 mov	 rax, QWORD PTR w$[rsp]
  02848	8b 48 14	 mov	 ecx, DWORD PTR [rax+20]
  0284b	b8 d6 c1 62 ca	 mov	 eax, -899497514		; ffffffffca62c1d6H
  02850	48 03 c2	 add	 rax, rdx
  02853	03 c8		 add	 ecx, eax
  02855	8b 44 24 18	 mov	 eax, DWORD PTR v0$[rsp]
  02859	03 c1		 add	 eax, ecx
  0285b	89 44 24 18	 mov	 DWORD PTR v0$[rsp], eax
  0285f	8b 44 24 14	 mov	 eax, DWORD PTR v2$[rsp]
  02863	c1 e8 02	 shr	 eax, 2
  02866	8b 4c 24 14	 mov	 ecx, DWORD PTR v2$[rsp]
  0286a	c1 e1 1e	 shl	 ecx, 30
  0286d	0b c1		 or	 eax, ecx
  0286f	89 44 24 14	 mov	 DWORD PTR v2$[rsp], eax

; 182  :     five_cycle(v, parity, 0xca62c1d6,  70);

  02873	48 8b 0c 24	 mov	 rcx, QWORD PTR w$[rsp]
  02877	48 8b 04 24	 mov	 rax, QWORD PTR w$[rsp]
  0287b	8b 40 38	 mov	 eax, DWORD PTR [rax+56]
  0287e	44 8b 41 0c	 mov	 r8d, DWORD PTR [rcx+12]
  02882	44 33 c0	 xor	 r8d, eax
  02885	48 8b 04 24	 mov	 rax, QWORD PTR w$[rsp]
  02889	44 33 40 20	 xor	 r8d, DWORD PTR [rax+32]
  0288d	48 8b 04 24	 mov	 rax, QWORD PTR w$[rsp]
  02891	44 33 40 18	 xor	 r8d, DWORD PTR [rax+24]
  02895	41 d1 e0	 shl	 r8d, 1
  02898	48 8b 14 24	 mov	 rdx, QWORD PTR w$[rsp]
  0289c	48 8b 04 24	 mov	 rax, QWORD PTR w$[rsp]
  028a0	8b 48 38	 mov	 ecx, DWORD PTR [rax+56]
  028a3	8b 42 0c	 mov	 eax, DWORD PTR [rdx+12]
  028a6	33 c1		 xor	 eax, ecx
  028a8	48 8b 0c 24	 mov	 rcx, QWORD PTR w$[rsp]
  028ac	33 41 20	 xor	 eax, DWORD PTR [rcx+32]
  028af	48 8b 0c 24	 mov	 rcx, QWORD PTR w$[rsp]
  028b3	33 41 18	 xor	 eax, DWORD PTR [rcx+24]
  028b6	c1 e8 1f	 shr	 eax, 31
  028b9	41 8b c8	 mov	 ecx, r8d
  028bc	0b c8		 or	 ecx, eax
  028be	48 8b 04 24	 mov	 rax, QWORD PTR w$[rsp]
  028c2	89 48 18	 mov	 DWORD PTR [rax+24], ecx
  028c5	8b 44 24 14	 mov	 eax, DWORD PTR v2$[rsp]
  028c9	8b 4c 24 0c	 mov	 ecx, DWORD PTR v1$[rsp]
  028cd	33 c8		 xor	 ecx, eax
  028cf	33 4c 24 08	 xor	 ecx, DWORD PTR v3$[rsp]
  028d3	8b 44 24 18	 mov	 eax, DWORD PTR v0$[rsp]
  028d7	c1 e0 05	 shl	 eax, 5
  028da	8b 54 24 18	 mov	 edx, DWORD PTR v0$[rsp]
  028de	c1 ea 1b	 shr	 edx, 27
  028e1	0b d0		 or	 edx, eax
  028e3	03 d1		 add	 edx, ecx
  028e5	48 8b 04 24	 mov	 rax, QWORD PTR w$[rsp]
  028e9	8b 48 18	 mov	 ecx, DWORD PTR [rax+24]
  028ec	b8 d6 c1 62 ca	 mov	 eax, -899497514		; ffffffffca62c1d6H
  028f1	48 03 c2	 add	 rax, rdx
  028f4	03 c8		 add	 ecx, eax
  028f6	8b 44 24 10	 mov	 eax, DWORD PTR v4$[rsp]
  028fa	03 c1		 add	 eax, ecx
  028fc	89 44 24 10	 mov	 DWORD PTR v4$[rsp], eax
  02900	8b 44 24 0c	 mov	 eax, DWORD PTR v1$[rsp]
  02904	c1 e8 02	 shr	 eax, 2
  02907	8b 4c 24 0c	 mov	 ecx, DWORD PTR v1$[rsp]
  0290b	c1 e1 1e	 shl	 ecx, 30
  0290e	0b c1		 or	 eax, ecx
  02910	89 44 24 0c	 mov	 DWORD PTR v1$[rsp], eax
  02914	48 8b 0c 24	 mov	 rcx, QWORD PTR w$[rsp]
  02918	48 8b 04 24	 mov	 rax, QWORD PTR w$[rsp]
  0291c	8b 40 3c	 mov	 eax, DWORD PTR [rax+60]
  0291f	44 8b 41 10	 mov	 r8d, DWORD PTR [rcx+16]
  02923	44 33 c0	 xor	 r8d, eax
  02926	48 8b 04 24	 mov	 rax, QWORD PTR w$[rsp]
  0292a	44 33 40 24	 xor	 r8d, DWORD PTR [rax+36]
  0292e	48 8b 04 24	 mov	 rax, QWORD PTR w$[rsp]
  02932	44 33 40 1c	 xor	 r8d, DWORD PTR [rax+28]
  02936	41 d1 e0	 shl	 r8d, 1
  02939	48 8b 14 24	 mov	 rdx, QWORD PTR w$[rsp]
  0293d	48 8b 04 24	 mov	 rax, QWORD PTR w$[rsp]
  02941	8b 48 3c	 mov	 ecx, DWORD PTR [rax+60]
  02944	8b 42 10	 mov	 eax, DWORD PTR [rdx+16]
  02947	33 c1		 xor	 eax, ecx
  02949	48 8b 0c 24	 mov	 rcx, QWORD PTR w$[rsp]
  0294d	33 41 24	 xor	 eax, DWORD PTR [rcx+36]
  02950	48 8b 0c 24	 mov	 rcx, QWORD PTR w$[rsp]
  02954	33 41 1c	 xor	 eax, DWORD PTR [rcx+28]
  02957	c1 e8 1f	 shr	 eax, 31
  0295a	41 8b c8	 mov	 ecx, r8d
  0295d	0b c8		 or	 ecx, eax
  0295f	48 8b 04 24	 mov	 rax, QWORD PTR w$[rsp]
  02963	89 48 1c	 mov	 DWORD PTR [rax+28], ecx
  02966	8b 44 24 0c	 mov	 eax, DWORD PTR v1$[rsp]
  0296a	8b 4c 24 18	 mov	 ecx, DWORD PTR v0$[rsp]
  0296e	33 c8		 xor	 ecx, eax
  02970	33 4c 24 14	 xor	 ecx, DWORD PTR v2$[rsp]
  02974	8b 44 24 10	 mov	 eax, DWORD PTR v4$[rsp]
  02978	c1 e0 05	 shl	 eax, 5
  0297b	8b 54 24 10	 mov	 edx, DWORD PTR v4$[rsp]
  0297f	c1 ea 1b	 shr	 edx, 27
  02982	0b d0		 or	 edx, eax
  02984	03 d1		 add	 edx, ecx
  02986	48 8b 04 24	 mov	 rax, QWORD PTR w$[rsp]
  0298a	8b 48 1c	 mov	 ecx, DWORD PTR [rax+28]
  0298d	b8 d6 c1 62 ca	 mov	 eax, -899497514		; ffffffffca62c1d6H
  02992	48 03 c2	 add	 rax, rdx
  02995	03 c8		 add	 ecx, eax
  02997	8b 44 24 08	 mov	 eax, DWORD PTR v3$[rsp]
  0299b	03 c1		 add	 eax, ecx
  0299d	89 44 24 08	 mov	 DWORD PTR v3$[rsp], eax
  029a1	8b 44 24 18	 mov	 eax, DWORD PTR v0$[rsp]
  029a5	c1 e8 02	 shr	 eax, 2
  029a8	8b 4c 24 18	 mov	 ecx, DWORD PTR v0$[rsp]
  029ac	c1 e1 1e	 shl	 ecx, 30
  029af	0b c1		 or	 eax, ecx
  029b1	89 44 24 18	 mov	 DWORD PTR v0$[rsp], eax
  029b5	48 8b 0c 24	 mov	 rcx, QWORD PTR w$[rsp]
  029b9	48 8b 04 24	 mov	 rax, QWORD PTR w$[rsp]
  029bd	8b 00		 mov	 eax, DWORD PTR [rax]
  029bf	44 8b 41 14	 mov	 r8d, DWORD PTR [rcx+20]
  029c3	44 33 c0	 xor	 r8d, eax
  029c6	48 8b 04 24	 mov	 rax, QWORD PTR w$[rsp]
  029ca	44 33 40 28	 xor	 r8d, DWORD PTR [rax+40]
  029ce	48 8b 04 24	 mov	 rax, QWORD PTR w$[rsp]
  029d2	44 33 40 20	 xor	 r8d, DWORD PTR [rax+32]
  029d6	41 d1 e0	 shl	 r8d, 1
  029d9	48 8b 14 24	 mov	 rdx, QWORD PTR w$[rsp]
  029dd	48 8b 04 24	 mov	 rax, QWORD PTR w$[rsp]
  029e1	8b 08		 mov	 ecx, DWORD PTR [rax]
  029e3	8b 42 14	 mov	 eax, DWORD PTR [rdx+20]
  029e6	33 c1		 xor	 eax, ecx
  029e8	48 8b 0c 24	 mov	 rcx, QWORD PTR w$[rsp]
  029ec	33 41 28	 xor	 eax, DWORD PTR [rcx+40]
  029ef	48 8b 0c 24	 mov	 rcx, QWORD PTR w$[rsp]
  029f3	33 41 20	 xor	 eax, DWORD PTR [rcx+32]
  029f6	c1 e8 1f	 shr	 eax, 31
  029f9	41 8b c8	 mov	 ecx, r8d
  029fc	0b c8		 or	 ecx, eax
  029fe	48 8b 04 24	 mov	 rax, QWORD PTR w$[rsp]
  02a02	89 48 20	 mov	 DWORD PTR [rax+32], ecx
  02a05	8b 44 24 18	 mov	 eax, DWORD PTR v0$[rsp]
  02a09	8b 4c 24 10	 mov	 ecx, DWORD PTR v4$[rsp]
  02a0d	33 c8		 xor	 ecx, eax
  02a0f	33 4c 24 0c	 xor	 ecx, DWORD PTR v1$[rsp]
  02a13	8b 44 24 08	 mov	 eax, DWORD PTR v3$[rsp]
  02a17	c1 e0 05	 shl	 eax, 5
  02a1a	8b 54 24 08	 mov	 edx, DWORD PTR v3$[rsp]
  02a1e	c1 ea 1b	 shr	 edx, 27
  02a21	0b d0		 or	 edx, eax
  02a23	03 d1		 add	 edx, ecx
  02a25	48 8b 04 24	 mov	 rax, QWORD PTR w$[rsp]
  02a29	8b 48 20	 mov	 ecx, DWORD PTR [rax+32]
  02a2c	b8 d6 c1 62 ca	 mov	 eax, -899497514		; ffffffffca62c1d6H
  02a31	48 03 c2	 add	 rax, rdx
  02a34	03 c8		 add	 ecx, eax
  02a36	8b 44 24 14	 mov	 eax, DWORD PTR v2$[rsp]
  02a3a	03 c1		 add	 eax, ecx
  02a3c	89 44 24 14	 mov	 DWORD PTR v2$[rsp], eax
  02a40	8b 44 24 10	 mov	 eax, DWORD PTR v4$[rsp]
  02a44	c1 e8 02	 shr	 eax, 2
  02a47	8b 4c 24 10	 mov	 ecx, DWORD PTR v4$[rsp]
  02a4b	c1 e1 1e	 shl	 ecx, 30
  02a4e	0b c1		 or	 eax, ecx
  02a50	89 44 24 10	 mov	 DWORD PTR v4$[rsp], eax
  02a54	48 8b 0c 24	 mov	 rcx, QWORD PTR w$[rsp]
  02a58	48 8b 04 24	 mov	 rax, QWORD PTR w$[rsp]
  02a5c	8b 40 04	 mov	 eax, DWORD PTR [rax+4]
  02a5f	44 8b 41 18	 mov	 r8d, DWORD PTR [rcx+24]
  02a63	44 33 c0	 xor	 r8d, eax
  02a66	48 8b 04 24	 mov	 rax, QWORD PTR w$[rsp]
  02a6a	44 33 40 2c	 xor	 r8d, DWORD PTR [rax+44]
  02a6e	48 8b 04 24	 mov	 rax, QWORD PTR w$[rsp]
  02a72	44 33 40 24	 xor	 r8d, DWORD PTR [rax+36]
  02a76	41 d1 e0	 shl	 r8d, 1
  02a79	48 8b 14 24	 mov	 rdx, QWORD PTR w$[rsp]
  02a7d	48 8b 04 24	 mov	 rax, QWORD PTR w$[rsp]
  02a81	8b 48 04	 mov	 ecx, DWORD PTR [rax+4]
  02a84	8b 42 18	 mov	 eax, DWORD PTR [rdx+24]
  02a87	33 c1		 xor	 eax, ecx
  02a89	48 8b 0c 24	 mov	 rcx, QWORD PTR w$[rsp]
  02a8d	33 41 2c	 xor	 eax, DWORD PTR [rcx+44]
  02a90	48 8b 0c 24	 mov	 rcx, QWORD PTR w$[rsp]
  02a94	33 41 24	 xor	 eax, DWORD PTR [rcx+36]
  02a97	c1 e8 1f	 shr	 eax, 31
  02a9a	41 8b c8	 mov	 ecx, r8d
  02a9d	0b c8		 or	 ecx, eax
  02a9f	48 8b 04 24	 mov	 rax, QWORD PTR w$[rsp]
  02aa3	89 48 24	 mov	 DWORD PTR [rax+36], ecx
  02aa6	8b 44 24 10	 mov	 eax, DWORD PTR v4$[rsp]
  02aaa	8b 4c 24 08	 mov	 ecx, DWORD PTR v3$[rsp]
  02aae	33 c8		 xor	 ecx, eax
  02ab0	33 4c 24 18	 xor	 ecx, DWORD PTR v0$[rsp]
  02ab4	8b 44 24 14	 mov	 eax, DWORD PTR v2$[rsp]
  02ab8	c1 e0 05	 shl	 eax, 5
  02abb	8b 54 24 14	 mov	 edx, DWORD PTR v2$[rsp]
  02abf	c1 ea 1b	 shr	 edx, 27
  02ac2	0b d0		 or	 edx, eax
  02ac4	03 d1		 add	 edx, ecx
  02ac6	48 8b 04 24	 mov	 rax, QWORD PTR w$[rsp]
  02aca	8b 48 24	 mov	 ecx, DWORD PTR [rax+36]
  02acd	b8 d6 c1 62 ca	 mov	 eax, -899497514		; ffffffffca62c1d6H
  02ad2	48 03 c2	 add	 rax, rdx
  02ad5	03 c8		 add	 ecx, eax
  02ad7	8b 44 24 0c	 mov	 eax, DWORD PTR v1$[rsp]
  02adb	03 c1		 add	 eax, ecx
  02add	89 44 24 0c	 mov	 DWORD PTR v1$[rsp], eax
  02ae1	8b 44 24 08	 mov	 eax, DWORD PTR v3$[rsp]
  02ae5	c1 e8 02	 shr	 eax, 2
  02ae8	8b 4c 24 08	 mov	 ecx, DWORD PTR v3$[rsp]
  02aec	c1 e1 1e	 shl	 ecx, 30
  02aef	0b c1		 or	 eax, ecx
  02af1	89 44 24 08	 mov	 DWORD PTR v3$[rsp], eax
  02af5	48 8b 0c 24	 mov	 rcx, QWORD PTR w$[rsp]
  02af9	48 8b 04 24	 mov	 rax, QWORD PTR w$[rsp]
  02afd	8b 40 08	 mov	 eax, DWORD PTR [rax+8]
  02b00	44 8b 41 1c	 mov	 r8d, DWORD PTR [rcx+28]
  02b04	44 33 c0	 xor	 r8d, eax
  02b07	48 8b 04 24	 mov	 rax, QWORD PTR w$[rsp]
  02b0b	44 33 40 30	 xor	 r8d, DWORD PTR [rax+48]
  02b0f	48 8b 04 24	 mov	 rax, QWORD PTR w$[rsp]
  02b13	44 33 40 28	 xor	 r8d, DWORD PTR [rax+40]
  02b17	41 d1 e0	 shl	 r8d, 1
  02b1a	48 8b 14 24	 mov	 rdx, QWORD PTR w$[rsp]
  02b1e	48 8b 04 24	 mov	 rax, QWORD PTR w$[rsp]
  02b22	8b 48 08	 mov	 ecx, DWORD PTR [rax+8]
  02b25	8b 42 1c	 mov	 eax, DWORD PTR [rdx+28]
  02b28	33 c1		 xor	 eax, ecx
  02b2a	48 8b 0c 24	 mov	 rcx, QWORD PTR w$[rsp]
  02b2e	33 41 30	 xor	 eax, DWORD PTR [rcx+48]
  02b31	48 8b 0c 24	 mov	 rcx, QWORD PTR w$[rsp]
  02b35	33 41 28	 xor	 eax, DWORD PTR [rcx+40]
  02b38	c1 e8 1f	 shr	 eax, 31
  02b3b	41 8b c8	 mov	 ecx, r8d
  02b3e	0b c8		 or	 ecx, eax
  02b40	48 8b 04 24	 mov	 rax, QWORD PTR w$[rsp]
  02b44	89 48 28	 mov	 DWORD PTR [rax+40], ecx
  02b47	8b 44 24 08	 mov	 eax, DWORD PTR v3$[rsp]
  02b4b	8b 4c 24 14	 mov	 ecx, DWORD PTR v2$[rsp]
  02b4f	33 c8		 xor	 ecx, eax
  02b51	33 4c 24 10	 xor	 ecx, DWORD PTR v4$[rsp]
  02b55	8b 44 24 0c	 mov	 eax, DWORD PTR v1$[rsp]
  02b59	c1 e0 05	 shl	 eax, 5
  02b5c	8b 54 24 0c	 mov	 edx, DWORD PTR v1$[rsp]
  02b60	c1 ea 1b	 shr	 edx, 27
  02b63	0b d0		 or	 edx, eax
  02b65	03 d1		 add	 edx, ecx
  02b67	48 8b 04 24	 mov	 rax, QWORD PTR w$[rsp]
  02b6b	8b 48 28	 mov	 ecx, DWORD PTR [rax+40]
  02b6e	b8 d6 c1 62 ca	 mov	 eax, -899497514		; ffffffffca62c1d6H
  02b73	48 03 c2	 add	 rax, rdx
  02b76	03 c8		 add	 ecx, eax
  02b78	8b 44 24 18	 mov	 eax, DWORD PTR v0$[rsp]
  02b7c	03 c1		 add	 eax, ecx
  02b7e	89 44 24 18	 mov	 DWORD PTR v0$[rsp], eax
  02b82	8b 44 24 14	 mov	 eax, DWORD PTR v2$[rsp]
  02b86	c1 e8 02	 shr	 eax, 2
  02b89	8b 4c 24 14	 mov	 ecx, DWORD PTR v2$[rsp]
  02b8d	c1 e1 1e	 shl	 ecx, 30
  02b90	0b c1		 or	 eax, ecx
  02b92	89 44 24 14	 mov	 DWORD PTR v2$[rsp], eax

; 183  :     five_cycle(v, parity, 0xca62c1d6,  75);

  02b96	48 8b 0c 24	 mov	 rcx, QWORD PTR w$[rsp]
  02b9a	48 8b 04 24	 mov	 rax, QWORD PTR w$[rsp]
  02b9e	8b 40 0c	 mov	 eax, DWORD PTR [rax+12]
  02ba1	44 8b 41 20	 mov	 r8d, DWORD PTR [rcx+32]
  02ba5	44 33 c0	 xor	 r8d, eax
  02ba8	48 8b 04 24	 mov	 rax, QWORD PTR w$[rsp]
  02bac	44 33 40 34	 xor	 r8d, DWORD PTR [rax+52]
  02bb0	48 8b 04 24	 mov	 rax, QWORD PTR w$[rsp]
  02bb4	44 33 40 2c	 xor	 r8d, DWORD PTR [rax+44]
  02bb8	41 d1 e0	 shl	 r8d, 1
  02bbb	48 8b 14 24	 mov	 rdx, QWORD PTR w$[rsp]
  02bbf	48 8b 04 24	 mov	 rax, QWORD PTR w$[rsp]
  02bc3	8b 48 0c	 mov	 ecx, DWORD PTR [rax+12]
  02bc6	8b 42 20	 mov	 eax, DWORD PTR [rdx+32]
  02bc9	33 c1		 xor	 eax, ecx
  02bcb	48 8b 0c 24	 mov	 rcx, QWORD PTR w$[rsp]
  02bcf	33 41 34	 xor	 eax, DWORD PTR [rcx+52]
  02bd2	48 8b 0c 24	 mov	 rcx, QWORD PTR w$[rsp]
  02bd6	33 41 2c	 xor	 eax, DWORD PTR [rcx+44]
  02bd9	c1 e8 1f	 shr	 eax, 31
  02bdc	41 8b c8	 mov	 ecx, r8d
  02bdf	0b c8		 or	 ecx, eax
  02be1	48 8b 04 24	 mov	 rax, QWORD PTR w$[rsp]
  02be5	89 48 2c	 mov	 DWORD PTR [rax+44], ecx
  02be8	8b 44 24 14	 mov	 eax, DWORD PTR v2$[rsp]
  02bec	8b 4c 24 0c	 mov	 ecx, DWORD PTR v1$[rsp]
  02bf0	33 c8		 xor	 ecx, eax
  02bf2	33 4c 24 08	 xor	 ecx, DWORD PTR v3$[rsp]
  02bf6	8b 44 24 18	 mov	 eax, DWORD PTR v0$[rsp]
  02bfa	c1 e0 05	 shl	 eax, 5
  02bfd	8b 54 24 18	 mov	 edx, DWORD PTR v0$[rsp]
  02c01	c1 ea 1b	 shr	 edx, 27
  02c04	0b d0		 or	 edx, eax
  02c06	03 d1		 add	 edx, ecx
  02c08	48 8b 04 24	 mov	 rax, QWORD PTR w$[rsp]
  02c0c	8b 48 2c	 mov	 ecx, DWORD PTR [rax+44]
  02c0f	b8 d6 c1 62 ca	 mov	 eax, -899497514		; ffffffffca62c1d6H
  02c14	48 03 c2	 add	 rax, rdx
  02c17	03 c8		 add	 ecx, eax
  02c19	8b 44 24 10	 mov	 eax, DWORD PTR v4$[rsp]
  02c1d	03 c1		 add	 eax, ecx
  02c1f	89 44 24 10	 mov	 DWORD PTR v4$[rsp], eax
  02c23	8b 44 24 0c	 mov	 eax, DWORD PTR v1$[rsp]
  02c27	c1 e8 02	 shr	 eax, 2
  02c2a	8b 4c 24 0c	 mov	 ecx, DWORD PTR v1$[rsp]
  02c2e	c1 e1 1e	 shl	 ecx, 30
  02c31	0b c1		 or	 eax, ecx
  02c33	89 44 24 0c	 mov	 DWORD PTR v1$[rsp], eax
  02c37	48 8b 0c 24	 mov	 rcx, QWORD PTR w$[rsp]
  02c3b	48 8b 04 24	 mov	 rax, QWORD PTR w$[rsp]
  02c3f	8b 40 10	 mov	 eax, DWORD PTR [rax+16]
  02c42	44 8b 41 24	 mov	 r8d, DWORD PTR [rcx+36]
  02c46	44 33 c0	 xor	 r8d, eax
  02c49	48 8b 04 24	 mov	 rax, QWORD PTR w$[rsp]
  02c4d	44 33 40 38	 xor	 r8d, DWORD PTR [rax+56]
  02c51	48 8b 04 24	 mov	 rax, QWORD PTR w$[rsp]
  02c55	44 33 40 30	 xor	 r8d, DWORD PTR [rax+48]
  02c59	41 d1 e0	 shl	 r8d, 1
  02c5c	48 8b 14 24	 mov	 rdx, QWORD PTR w$[rsp]
  02c60	48 8b 04 24	 mov	 rax, QWORD PTR w$[rsp]
  02c64	8b 48 10	 mov	 ecx, DWORD PTR [rax+16]
  02c67	8b 42 24	 mov	 eax, DWORD PTR [rdx+36]
  02c6a	33 c1		 xor	 eax, ecx
  02c6c	48 8b 0c 24	 mov	 rcx, QWORD PTR w$[rsp]
  02c70	33 41 38	 xor	 eax, DWORD PTR [rcx+56]
  02c73	48 8b 0c 24	 mov	 rcx, QWORD PTR w$[rsp]
  02c77	33 41 30	 xor	 eax, DWORD PTR [rcx+48]
  02c7a	c1 e8 1f	 shr	 eax, 31
  02c7d	41 8b c8	 mov	 ecx, r8d
  02c80	0b c8		 or	 ecx, eax
  02c82	48 8b 04 24	 mov	 rax, QWORD PTR w$[rsp]
  02c86	89 48 30	 mov	 DWORD PTR [rax+48], ecx
  02c89	8b 44 24 0c	 mov	 eax, DWORD PTR v1$[rsp]
  02c8d	8b 4c 24 18	 mov	 ecx, DWORD PTR v0$[rsp]
  02c91	33 c8		 xor	 ecx, eax
  02c93	33 4c 24 14	 xor	 ecx, DWORD PTR v2$[rsp]
  02c97	8b 44 24 10	 mov	 eax, DWORD PTR v4$[rsp]
  02c9b	c1 e0 05	 shl	 eax, 5
  02c9e	8b 54 24 10	 mov	 edx, DWORD PTR v4$[rsp]
  02ca2	c1 ea 1b	 shr	 edx, 27
  02ca5	0b d0		 or	 edx, eax
  02ca7	03 d1		 add	 edx, ecx
  02ca9	48 8b 04 24	 mov	 rax, QWORD PTR w$[rsp]
  02cad	8b 48 30	 mov	 ecx, DWORD PTR [rax+48]
  02cb0	b8 d6 c1 62 ca	 mov	 eax, -899497514		; ffffffffca62c1d6H
  02cb5	48 03 c2	 add	 rax, rdx
  02cb8	03 c8		 add	 ecx, eax
  02cba	8b 44 24 08	 mov	 eax, DWORD PTR v3$[rsp]
  02cbe	03 c1		 add	 eax, ecx
  02cc0	89 44 24 08	 mov	 DWORD PTR v3$[rsp], eax
  02cc4	8b 44 24 18	 mov	 eax, DWORD PTR v0$[rsp]
  02cc8	c1 e8 02	 shr	 eax, 2
  02ccb	8b 4c 24 18	 mov	 ecx, DWORD PTR v0$[rsp]
  02ccf	c1 e1 1e	 shl	 ecx, 30
  02cd2	0b c1		 or	 eax, ecx
  02cd4	89 44 24 18	 mov	 DWORD PTR v0$[rsp], eax
  02cd8	48 8b 0c 24	 mov	 rcx, QWORD PTR w$[rsp]
  02cdc	48 8b 04 24	 mov	 rax, QWORD PTR w$[rsp]
  02ce0	8b 40 14	 mov	 eax, DWORD PTR [rax+20]
  02ce3	44 8b 41 28	 mov	 r8d, DWORD PTR [rcx+40]
  02ce7	44 33 c0	 xor	 r8d, eax
  02cea	48 8b 04 24	 mov	 rax, QWORD PTR w$[rsp]
  02cee	44 33 40 3c	 xor	 r8d, DWORD PTR [rax+60]
  02cf2	48 8b 04 24	 mov	 rax, QWORD PTR w$[rsp]
  02cf6	44 33 40 34	 xor	 r8d, DWORD PTR [rax+52]
  02cfa	41 d1 e0	 shl	 r8d, 1
  02cfd	48 8b 14 24	 mov	 rdx, QWORD PTR w$[rsp]
  02d01	48 8b 04 24	 mov	 rax, QWORD PTR w$[rsp]
  02d05	8b 48 14	 mov	 ecx, DWORD PTR [rax+20]
  02d08	8b 42 28	 mov	 eax, DWORD PTR [rdx+40]
  02d0b	33 c1		 xor	 eax, ecx
  02d0d	48 8b 0c 24	 mov	 rcx, QWORD PTR w$[rsp]
  02d11	33 41 3c	 xor	 eax, DWORD PTR [rcx+60]
  02d14	48 8b 0c 24	 mov	 rcx, QWORD PTR w$[rsp]
  02d18	33 41 34	 xor	 eax, DWORD PTR [rcx+52]
  02d1b	c1 e8 1f	 shr	 eax, 31
  02d1e	41 8b c8	 mov	 ecx, r8d
  02d21	0b c8		 or	 ecx, eax
  02d23	48 8b 04 24	 mov	 rax, QWORD PTR w$[rsp]
  02d27	89 48 34	 mov	 DWORD PTR [rax+52], ecx
  02d2a	8b 44 24 18	 mov	 eax, DWORD PTR v0$[rsp]
  02d2e	8b 4c 24 10	 mov	 ecx, DWORD PTR v4$[rsp]
  02d32	33 c8		 xor	 ecx, eax
  02d34	33 4c 24 0c	 xor	 ecx, DWORD PTR v1$[rsp]
  02d38	8b 44 24 08	 mov	 eax, DWORD PTR v3$[rsp]
  02d3c	c1 e0 05	 shl	 eax, 5
  02d3f	8b 54 24 08	 mov	 edx, DWORD PTR v3$[rsp]
  02d43	c1 ea 1b	 shr	 edx, 27
  02d46	0b d0		 or	 edx, eax
  02d48	03 d1		 add	 edx, ecx
  02d4a	48 8b 04 24	 mov	 rax, QWORD PTR w$[rsp]
  02d4e	8b 48 34	 mov	 ecx, DWORD PTR [rax+52]
  02d51	b8 d6 c1 62 ca	 mov	 eax, -899497514		; ffffffffca62c1d6H
  02d56	48 03 c2	 add	 rax, rdx
  02d59	03 c8		 add	 ecx, eax
  02d5b	8b 44 24 14	 mov	 eax, DWORD PTR v2$[rsp]
  02d5f	03 c1		 add	 eax, ecx
  02d61	89 44 24 14	 mov	 DWORD PTR v2$[rsp], eax
  02d65	8b 44 24 10	 mov	 eax, DWORD PTR v4$[rsp]
  02d69	c1 e8 02	 shr	 eax, 2
  02d6c	8b 4c 24 10	 mov	 ecx, DWORD PTR v4$[rsp]
  02d70	c1 e1 1e	 shl	 ecx, 30
  02d73	0b c1		 or	 eax, ecx
  02d75	89 44 24 10	 mov	 DWORD PTR v4$[rsp], eax
  02d79	48 8b 0c 24	 mov	 rcx, QWORD PTR w$[rsp]
  02d7d	48 8b 04 24	 mov	 rax, QWORD PTR w$[rsp]
  02d81	8b 40 18	 mov	 eax, DWORD PTR [rax+24]
  02d84	44 8b 41 2c	 mov	 r8d, DWORD PTR [rcx+44]
  02d88	44 33 c0	 xor	 r8d, eax
  02d8b	48 8b 04 24	 mov	 rax, QWORD PTR w$[rsp]
  02d8f	44 33 00	 xor	 r8d, DWORD PTR [rax]
  02d92	48 8b 04 24	 mov	 rax, QWORD PTR w$[rsp]
  02d96	44 33 40 38	 xor	 r8d, DWORD PTR [rax+56]
  02d9a	41 d1 e0	 shl	 r8d, 1
  02d9d	48 8b 14 24	 mov	 rdx, QWORD PTR w$[rsp]
  02da1	48 8b 04 24	 mov	 rax, QWORD PTR w$[rsp]
  02da5	8b 48 18	 mov	 ecx, DWORD PTR [rax+24]
  02da8	8b 42 2c	 mov	 eax, DWORD PTR [rdx+44]
  02dab	33 c1		 xor	 eax, ecx
  02dad	48 8b 0c 24	 mov	 rcx, QWORD PTR w$[rsp]
  02db1	33 01		 xor	 eax, DWORD PTR [rcx]
  02db3	48 8b 0c 24	 mov	 rcx, QWORD PTR w$[rsp]
  02db7	33 41 38	 xor	 eax, DWORD PTR [rcx+56]
  02dba	c1 e8 1f	 shr	 eax, 31
  02dbd	41 8b c8	 mov	 ecx, r8d
  02dc0	0b c8		 or	 ecx, eax
  02dc2	48 8b 04 24	 mov	 rax, QWORD PTR w$[rsp]
  02dc6	89 48 38	 mov	 DWORD PTR [rax+56], ecx
  02dc9	8b 44 24 10	 mov	 eax, DWORD PTR v4$[rsp]
  02dcd	8b 4c 24 08	 mov	 ecx, DWORD PTR v3$[rsp]
  02dd1	33 c8		 xor	 ecx, eax
  02dd3	33 4c 24 18	 xor	 ecx, DWORD PTR v0$[rsp]
  02dd7	8b 44 24 14	 mov	 eax, DWORD PTR v2$[rsp]
  02ddb	c1 e0 05	 shl	 eax, 5
  02dde	8b 54 24 14	 mov	 edx, DWORD PTR v2$[rsp]
  02de2	c1 ea 1b	 shr	 edx, 27
  02de5	0b d0		 or	 edx, eax
  02de7	03 d1		 add	 edx, ecx
  02de9	48 8b 04 24	 mov	 rax, QWORD PTR w$[rsp]
  02ded	8b 48 38	 mov	 ecx, DWORD PTR [rax+56]
  02df0	b8 d6 c1 62 ca	 mov	 eax, -899497514		; ffffffffca62c1d6H
  02df5	48 03 c2	 add	 rax, rdx
  02df8	03 c8		 add	 ecx, eax
  02dfa	8b 44 24 0c	 mov	 eax, DWORD PTR v1$[rsp]
  02dfe	03 c1		 add	 eax, ecx
  02e00	89 44 24 0c	 mov	 DWORD PTR v1$[rsp], eax
  02e04	8b 44 24 08	 mov	 eax, DWORD PTR v3$[rsp]
  02e08	c1 e8 02	 shr	 eax, 2
  02e0b	8b 4c 24 08	 mov	 ecx, DWORD PTR v3$[rsp]
  02e0f	c1 e1 1e	 shl	 ecx, 30
  02e12	0b c1		 or	 eax, ecx
  02e14	89 44 24 08	 mov	 DWORD PTR v3$[rsp], eax
  02e18	48 8b 0c 24	 mov	 rcx, QWORD PTR w$[rsp]
  02e1c	48 8b 04 24	 mov	 rax, QWORD PTR w$[rsp]
  02e20	8b 40 1c	 mov	 eax, DWORD PTR [rax+28]
  02e23	44 8b 41 30	 mov	 r8d, DWORD PTR [rcx+48]
  02e27	44 33 c0	 xor	 r8d, eax
  02e2a	48 8b 04 24	 mov	 rax, QWORD PTR w$[rsp]
  02e2e	44 33 40 04	 xor	 r8d, DWORD PTR [rax+4]
  02e32	48 8b 04 24	 mov	 rax, QWORD PTR w$[rsp]
  02e36	44 33 40 3c	 xor	 r8d, DWORD PTR [rax+60]
  02e3a	41 d1 e0	 shl	 r8d, 1
  02e3d	48 8b 14 24	 mov	 rdx, QWORD PTR w$[rsp]
  02e41	48 8b 04 24	 mov	 rax, QWORD PTR w$[rsp]
  02e45	8b 48 1c	 mov	 ecx, DWORD PTR [rax+28]
  02e48	8b 42 30	 mov	 eax, DWORD PTR [rdx+48]
  02e4b	33 c1		 xor	 eax, ecx
  02e4d	48 8b 0c 24	 mov	 rcx, QWORD PTR w$[rsp]
  02e51	33 41 04	 xor	 eax, DWORD PTR [rcx+4]
  02e54	48 8b 0c 24	 mov	 rcx, QWORD PTR w$[rsp]
  02e58	33 41 3c	 xor	 eax, DWORD PTR [rcx+60]
  02e5b	c1 e8 1f	 shr	 eax, 31
  02e5e	41 8b c8	 mov	 ecx, r8d
  02e61	0b c8		 or	 ecx, eax
  02e63	48 8b 04 24	 mov	 rax, QWORD PTR w$[rsp]
  02e67	89 48 3c	 mov	 DWORD PTR [rax+60], ecx
  02e6a	8b 44 24 08	 mov	 eax, DWORD PTR v3$[rsp]
  02e6e	8b 4c 24 14	 mov	 ecx, DWORD PTR v2$[rsp]
  02e72	33 c8		 xor	 ecx, eax
  02e74	33 4c 24 10	 xor	 ecx, DWORD PTR v4$[rsp]
  02e78	8b 44 24 0c	 mov	 eax, DWORD PTR v1$[rsp]
  02e7c	c1 e0 05	 shl	 eax, 5
  02e7f	8b 54 24 0c	 mov	 edx, DWORD PTR v1$[rsp]
  02e83	c1 ea 1b	 shr	 edx, 27
  02e86	0b d0		 or	 edx, eax
  02e88	03 d1		 add	 edx, ecx
  02e8a	48 8b 04 24	 mov	 rax, QWORD PTR w$[rsp]
  02e8e	8b 48 3c	 mov	 ecx, DWORD PTR [rax+60]
  02e91	b8 d6 c1 62 ca	 mov	 eax, -899497514		; ffffffffca62c1d6H
  02e96	48 03 c2	 add	 rax, rdx
  02e99	03 c8		 add	 ecx, eax
  02e9b	8b 44 24 18	 mov	 eax, DWORD PTR v0$[rsp]
  02e9f	03 c1		 add	 eax, ecx
  02ea1	89 44 24 18	 mov	 DWORD PTR v0$[rsp], eax
  02ea5	8b 44 24 14	 mov	 eax, DWORD PTR v2$[rsp]
  02ea9	c1 e8 02	 shr	 eax, 2
  02eac	8b 4c 24 14	 mov	 ecx, DWORD PTR v2$[rsp]
  02eb0	c1 e1 1e	 shl	 ecx, 30
  02eb3	0b c1		 or	 eax, ecx
  02eb5	89 44 24 14	 mov	 DWORD PTR v2$[rsp], eax

; 184  : 
; 185  : #ifdef ARRAY
; 186  :     ctx->hash[0] += v[0]; ctx->hash[1] += v[1];
; 187  :     ctx->hash[2] += v[2]; ctx->hash[3] += v[3];
; 188  :     ctx->hash[4] += v[4];
; 189  : #else
; 190  :     ctx->hash[0] += v0; ctx->hash[1] += v1;

  02eb9	48 8b 44 24 30	 mov	 rax, QWORD PTR ctx$[rsp]
  02ebe	8b 48 08	 mov	 ecx, DWORD PTR [rax+8]
  02ec1	03 4c 24 18	 add	 ecx, DWORD PTR v0$[rsp]
  02ec5	48 8b 44 24 30	 mov	 rax, QWORD PTR ctx$[rsp]
  02eca	89 48 08	 mov	 DWORD PTR [rax+8], ecx
  02ecd	48 8b 44 24 30	 mov	 rax, QWORD PTR ctx$[rsp]
  02ed2	8b 48 0c	 mov	 ecx, DWORD PTR [rax+12]
  02ed5	03 4c 24 0c	 add	 ecx, DWORD PTR v1$[rsp]
  02ed9	48 8b 44 24 30	 mov	 rax, QWORD PTR ctx$[rsp]
  02ede	89 48 0c	 mov	 DWORD PTR [rax+12], ecx

; 191  :     ctx->hash[2] += v2; ctx->hash[3] += v3;

  02ee1	48 8b 44 24 30	 mov	 rax, QWORD PTR ctx$[rsp]
  02ee6	8b 48 10	 mov	 ecx, DWORD PTR [rax+16]
  02ee9	03 4c 24 14	 add	 ecx, DWORD PTR v2$[rsp]
  02eed	48 8b 44 24 30	 mov	 rax, QWORD PTR ctx$[rsp]
  02ef2	89 48 10	 mov	 DWORD PTR [rax+16], ecx
  02ef5	48 8b 44 24 30	 mov	 rax, QWORD PTR ctx$[rsp]
  02efa	8b 48 14	 mov	 ecx, DWORD PTR [rax+20]
  02efd	03 4c 24 08	 add	 ecx, DWORD PTR v3$[rsp]
  02f01	48 8b 44 24 30	 mov	 rax, QWORD PTR ctx$[rsp]
  02f06	89 48 14	 mov	 DWORD PTR [rax+20], ecx

; 192  :     ctx->hash[4] += v4;

  02f09	48 8b 44 24 30	 mov	 rax, QWORD PTR ctx$[rsp]
  02f0e	8b 48 18	 mov	 ecx, DWORD PTR [rax+24]
  02f11	03 4c 24 10	 add	 ecx, DWORD PTR v4$[rsp]
  02f15	48 8b 44 24 30	 mov	 rax, QWORD PTR ctx$[rsp]
  02f1a	89 48 18	 mov	 DWORD PTR [rax+24], ecx

; 193  : #endif
; 194  : }

  02f1d	48 83 c4 28	 add	 rsp, 40			; 00000028H
  02f21	c3		 ret	 0
sha1_compile ENDP
PUBLIC	sha1_end
;	COMDAT pdata
pdata	SEGMENT
$pdata$sha1_end DD imagerel $LN13
	DD	imagerel $LN13+527
	DD	imagerel $unwind$sha1_end
pdata	ENDS
;	COMDAT xdata
xdata	SEGMENT
$unwind$sha1_end DD 010e01H
	DD	0620eH
; Function compile flags: /Odtp
xdata	ENDS
;	COMDAT sha1_end
_TEXT	SEGMENT
i$ = 32
_i$27717 = 36
hval$ = 64
ctx$ = 72
sha1_end PROC						; COMDAT

; 231  : {   sha1_32t    i = (sha1_32t)(ctx->count[0] & SHA1_MASK);

$LN13:
  00000	48 89 54 24 10	 mov	 QWORD PTR [rsp+16], rdx
  00005	48 89 4c 24 08	 mov	 QWORD PTR [rsp+8], rcx
  0000a	48 83 ec 38	 sub	 rsp, 56			; 00000038H
  0000e	48 8b 44 24 48	 mov	 rax, QWORD PTR ctx$[rsp]
  00013	8b 00		 mov	 eax, DWORD PTR [rax]
  00015	83 e0 3f	 and	 eax, 63			; 0000003fH
  00018	89 44 24 20	 mov	 DWORD PTR i$[rsp], eax

; 232  : 
; 233  :     /* put bytes in the buffer in an order in which references to   */
; 234  :     /* 32-bit words will put bytes with lower addresses into the    */
; 235  :     /* top of 32 bit words on BOTH big and little endian machines   */
; 236  :     bsw_32(ctx->wbuf, (i + 3) >> 2);

  0001c	8b 44 24 20	 mov	 eax, DWORD PTR i$[rsp]
  00020	83 c0 03	 add	 eax, 3
  00023	c1 e8 02	 shr	 eax, 2
  00026	89 44 24 24	 mov	 DWORD PTR _i$27717[rsp], eax
$LN10@sha1_end:
  0002a	8b 4c 24 24	 mov	 ecx, DWORD PTR _i$27717[rsp]
  0002e	8b 44 24 24	 mov	 eax, DWORD PTR _i$27717[rsp]
  00032	83 e8 01	 sub	 eax, 1
  00035	89 44 24 24	 mov	 DWORD PTR _i$27717[rsp], eax
  00039	85 c9		 test	 ecx, ecx
  0003b	74 71		 je	 SHORT $LN9@sha1_end
  0003d	48 63 4c 24 24	 movsxd	 rcx, DWORD PTR _i$27717[rsp]
  00042	48 8b 44 24 48	 mov	 rax, QWORD PTR ctx$[rsp]
  00047	44 8b 44 88 1c	 mov	 r8d, DWORD PTR [rax+rcx*4+28]
  0004c	41 c1 e8 18	 shr	 r8d, 24
  00050	48 63 4c 24 24	 movsxd	 rcx, DWORD PTR _i$27717[rsp]
  00055	48 8b 44 24 48	 mov	 rax, QWORD PTR ctx$[rsp]
  0005a	8b 44 88 1c	 mov	 eax, DWORD PTR [rax+rcx*4+28]
  0005e	c1 e0 08	 shl	 eax, 8
  00061	44 0b c0	 or	 r8d, eax
  00064	41 81 e0 ff 00
	ff 00		 and	 r8d, 16711935		; 00ff00ffH
  0006b	48 63 4c 24 24	 movsxd	 rcx, DWORD PTR _i$27717[rsp]
  00070	48 8b 44 24 48	 mov	 rax, QWORD PTR ctx$[rsp]
  00075	8b 54 88 1c	 mov	 edx, DWORD PTR [rax+rcx*4+28]
  00079	c1 ea 08	 shr	 edx, 8
  0007c	48 63 4c 24 24	 movsxd	 rcx, DWORD PTR _i$27717[rsp]
  00081	48 8b 44 24 48	 mov	 rax, QWORD PTR ctx$[rsp]
  00086	8b 4c 88 1c	 mov	 ecx, DWORD PTR [rax+rcx*4+28]
  0008a	c1 e1 18	 shl	 ecx, 24
  0008d	8b c2		 mov	 eax, edx
  0008f	0b c1		 or	 eax, ecx
  00091	25 00 ff 00 ff	 and	 eax, -16711936		; ff00ff00H
  00096	41 8b d0	 mov	 edx, r8d
  00099	0b d0		 or	 edx, eax
  0009b	48 63 4c 24 24	 movsxd	 rcx, DWORD PTR _i$27717[rsp]
  000a0	48 8b 44 24 48	 mov	 rax, QWORD PTR ctx$[rsp]
  000a5	89 54 88 1c	 mov	 DWORD PTR [rax+rcx*4+28], edx
  000a9	e9 7c ff ff ff	 jmp	 $LN10@sha1_end
$LN9@sha1_end:

; 237  : 
; 238  :     /* we now need to mask valid bytes and add the padding which is */
; 239  :     /* a single 1 bit and as many zero bits as necessary. Note that */
; 240  :     /* we can always add the first padding byte here because the    */
; 241  :     /* buffer always has at least one empty slot                    */
; 242  :     ctx->wbuf[i >> 2] &= 0xffffff80 << 8 * (~i & 3);

  000ae	8b 44 24 20	 mov	 eax, DWORD PTR i$[rsp]
  000b2	c1 e8 02	 shr	 eax, 2
  000b5	8b d0		 mov	 edx, eax
  000b7	8b 4c 24 20	 mov	 ecx, DWORD PTR i$[rsp]
  000bb	f7 d1		 not	 ecx
  000bd	83 e1 03	 and	 ecx, 3
  000c0	c1 e1 03	 shl	 ecx, 3
  000c3	b8 80 ff ff ff	 mov	 eax, -128		; ffffff80H
  000c8	d3 e0		 shl	 eax, cl
  000ca	8b c8		 mov	 ecx, eax
  000cc	48 8b 44 24 48	 mov	 rax, QWORD PTR ctx$[rsp]
  000d1	8b 54 90 1c	 mov	 edx, DWORD PTR [rax+rdx*4+28]
  000d5	23 d1		 and	 edx, ecx
  000d7	8b 44 24 20	 mov	 eax, DWORD PTR i$[rsp]
  000db	c1 e8 02	 shr	 eax, 2
  000de	8b c8		 mov	 ecx, eax
  000e0	48 8b 44 24 48	 mov	 rax, QWORD PTR ctx$[rsp]
  000e5	89 54 88 1c	 mov	 DWORD PTR [rax+rcx*4+28], edx

; 243  :     ctx->wbuf[i >> 2] |= 0x00000080 << 8 * (~i & 3);

  000e9	8b 44 24 20	 mov	 eax, DWORD PTR i$[rsp]
  000ed	c1 e8 02	 shr	 eax, 2
  000f0	8b d0		 mov	 edx, eax
  000f2	8b 4c 24 20	 mov	 ecx, DWORD PTR i$[rsp]
  000f6	f7 d1		 not	 ecx
  000f8	83 e1 03	 and	 ecx, 3
  000fb	c1 e1 03	 shl	 ecx, 3
  000fe	b8 80 00 00 00	 mov	 eax, 128		; 00000080H
  00103	d3 e0		 shl	 eax, cl
  00105	8b c8		 mov	 ecx, eax
  00107	48 8b 44 24 48	 mov	 rax, QWORD PTR ctx$[rsp]
  0010c	8b 54 90 1c	 mov	 edx, DWORD PTR [rax+rdx*4+28]
  00110	0b d1		 or	 edx, ecx
  00112	8b 44 24 20	 mov	 eax, DWORD PTR i$[rsp]
  00116	c1 e8 02	 shr	 eax, 2
  00119	8b c8		 mov	 ecx, eax
  0011b	48 8b 44 24 48	 mov	 rax, QWORD PTR ctx$[rsp]
  00120	89 54 88 1c	 mov	 DWORD PTR [rax+rcx*4+28], edx

; 244  : 
; 245  :     /* we need 9 or more empty positions, one for the padding byte  */
; 246  :     /* (above) and eight for the length count. If there is not      */
; 247  :     /* enough space, pad and empty the buffer                       */
; 248  :     if(i > SHA1_BLOCK_SIZE - 9)

  00124	83 7c 24 20 37	 cmp	 DWORD PTR i$[rsp], 55	; 00000037H
  00129	76 27		 jbe	 SHORT $LN8@sha1_end

; 249  :     {
; 250  :         if(i < 60) ctx->wbuf[15] = 0;

  0012b	83 7c 24 20 3c	 cmp	 DWORD PTR i$[rsp], 60	; 0000003cH
  00130	73 0c		 jae	 SHORT $LN7@sha1_end
  00132	48 8b 44 24 48	 mov	 rax, QWORD PTR ctx$[rsp]
  00137	c7 40 58 00 00
	00 00		 mov	 DWORD PTR [rax+88], 0
$LN7@sha1_end:

; 251  :         sha1_compile(ctx);

  0013e	48 8b 4c 24 48	 mov	 rcx, QWORD PTR ctx$[rsp]
  00143	e8 00 00 00 00	 call	 sha1_compile

; 252  :         i = 0;

  00148	c7 44 24 20 00
	00 00 00	 mov	 DWORD PTR i$[rsp], 0

; 253  :     }
; 254  :     else    /* compute a word index for the empty buffer positions  */

  00150	eb 0e		 jmp	 SHORT $LN6@sha1_end
$LN8@sha1_end:

; 255  :         i = (i >> 2) + 1;

  00152	8b 44 24 20	 mov	 eax, DWORD PTR i$[rsp]
  00156	c1 e8 02	 shr	 eax, 2
  00159	83 c0 01	 add	 eax, 1
  0015c	89 44 24 20	 mov	 DWORD PTR i$[rsp], eax
$LN6@sha1_end:
$LN5@sha1_end:

; 256  : 
; 257  :     while(i < 14) /* and zero pad all but last two positions        */

  00160	83 7c 24 20 0e	 cmp	 DWORD PTR i$[rsp], 14
  00165	73 1e		 jae	 SHORT $LN4@sha1_end

; 258  :         ctx->wbuf[i++] = 0;

  00167	8b 4c 24 20	 mov	 ecx, DWORD PTR i$[rsp]
  0016b	48 8b 44 24 48	 mov	 rax, QWORD PTR ctx$[rsp]
  00170	c7 44 88 1c 00
	00 00 00	 mov	 DWORD PTR [rax+rcx*4+28], 0
  00178	8b 44 24 20	 mov	 eax, DWORD PTR i$[rsp]
  0017c	83 c0 01	 add	 eax, 1
  0017f	89 44 24 20	 mov	 DWORD PTR i$[rsp], eax
  00183	eb db		 jmp	 SHORT $LN5@sha1_end
$LN4@sha1_end:

; 259  : 
; 260  :     /* the following 32-bit length fields are assembled in the      */
; 261  :     /* wrong byte order on little endian machines but this is       */
; 262  :     /* corrected later since they are only ever used as 32-bit      */
; 263  :     /* word values.                                                 */
; 264  :     ctx->wbuf[14] = (ctx->count[1] << 3) | (ctx->count[0] >> 29);

  00185	48 8b 44 24 48	 mov	 rax, QWORD PTR ctx$[rsp]
  0018a	8b 48 04	 mov	 ecx, DWORD PTR [rax+4]
  0018d	c1 e1 03	 shl	 ecx, 3
  00190	48 8b 44 24 48	 mov	 rax, QWORD PTR ctx$[rsp]
  00195	8b 00		 mov	 eax, DWORD PTR [rax]
  00197	c1 e8 1d	 shr	 eax, 29
  0019a	0b c8		 or	 ecx, eax
  0019c	48 8b 44 24 48	 mov	 rax, QWORD PTR ctx$[rsp]
  001a1	89 48 54	 mov	 DWORD PTR [rax+84], ecx

; 265  :     ctx->wbuf[15] = ctx->count[0] << 3;

  001a4	48 8b 44 24 48	 mov	 rax, QWORD PTR ctx$[rsp]
  001a9	8b 08		 mov	 ecx, DWORD PTR [rax]
  001ab	c1 e1 03	 shl	 ecx, 3
  001ae	48 8b 44 24 48	 mov	 rax, QWORD PTR ctx$[rsp]
  001b3	89 48 58	 mov	 DWORD PTR [rax+88], ecx

; 266  :     sha1_compile(ctx);

  001b6	48 8b 4c 24 48	 mov	 rcx, QWORD PTR ctx$[rsp]
  001bb	e8 00 00 00 00	 call	 sha1_compile

; 267  : 
; 268  :     /* extract the hash value as bytes in case the hash buffer is   */
; 269  :     /* misaligned for 32-bit words                                  */
; 270  :     for(i = 0; i < SHA1_DIGEST_SIZE; ++i)

  001c0	c7 44 24 20 00
	00 00 00	 mov	 DWORD PTR i$[rsp], 0
  001c8	eb 0b		 jmp	 SHORT $LN3@sha1_end
$LN2@sha1_end:
  001ca	8b 44 24 20	 mov	 eax, DWORD PTR i$[rsp]
  001ce	83 c0 01	 add	 eax, 1
  001d1	89 44 24 20	 mov	 DWORD PTR i$[rsp], eax
$LN3@sha1_end:
  001d5	83 7c 24 20 14	 cmp	 DWORD PTR i$[rsp], 20
  001da	73 2e		 jae	 SHORT $LN1@sha1_end

; 271  :         hval[i] = (unsigned char)(ctx->hash[i >> 2] >> (8 * (~i & 3)));

  001dc	8b 44 24 20	 mov	 eax, DWORD PTR i$[rsp]
  001e0	c1 e8 02	 shr	 eax, 2
  001e3	8b d0		 mov	 edx, eax
  001e5	8b 4c 24 20	 mov	 ecx, DWORD PTR i$[rsp]
  001e9	f7 d1		 not	 ecx
  001eb	83 e1 03	 and	 ecx, 3
  001ee	c1 e1 03	 shl	 ecx, 3
  001f1	48 8b 44 24 48	 mov	 rax, QWORD PTR ctx$[rsp]
  001f6	8b 54 90 08	 mov	 edx, DWORD PTR [rax+rdx*4+8]
  001fa	d3 ea		 shr	 edx, cl
  001fc	8b 4c 24 20	 mov	 ecx, DWORD PTR i$[rsp]
  00200	48 8b 44 24 40	 mov	 rax, QWORD PTR hval$[rsp]
  00205	88 14 08	 mov	 BYTE PTR [rax+rcx], dl
  00208	eb c0		 jmp	 SHORT $LN2@sha1_end
$LN1@sha1_end:

; 272  : }

  0020a	48 83 c4 38	 add	 rsp, 56			; 00000038H
  0020e	c3		 ret	 0
sha1_end ENDP
_TEXT	ENDS
PUBLIC	sha1_hash
;	COMDAT pdata
pdata	SEGMENT
$pdata$sha1_hash DD imagerel $LN8
	DD	imagerel $LN8+378
	DD	imagerel $unwind$sha1_hash
pdata	ENDS
;	COMDAT xdata
xdata	SEGMENT
$unwind$sha1_hash DD 031401H
	DD	070108214H
	DD	0600fH
; Function compile flags: /Odtp
xdata	ENDS
;	COMDAT sha1_hash
_TEXT	SEGMENT
sp$ = 32
space$ = 40
pos$ = 44
_i$27700 = 48
data$ = 96
len$ = 104
ctx$ = 112
sha1_hash PROC						; COMDAT

; 210  : {   sha1_32t pos = (sha1_32t)(ctx->count[0] & SHA1_MASK),

$LN8:
  00000	4c 89 44 24 18	 mov	 QWORD PTR [rsp+24], r8
  00005	89 54 24 10	 mov	 DWORD PTR [rsp+16], edx
  00009	48 89 4c 24 08	 mov	 QWORD PTR [rsp+8], rcx
  0000e	56		 push	 rsi
  0000f	57		 push	 rdi
  00010	48 83 ec 48	 sub	 rsp, 72			; 00000048H
  00014	48 8b 44 24 70	 mov	 rax, QWORD PTR ctx$[rsp]
  00019	8b 00		 mov	 eax, DWORD PTR [rax]
  0001b	83 e0 3f	 and	 eax, 63			; 0000003fH
  0001e	89 44 24 2c	 mov	 DWORD PTR pos$[rsp], eax

; 211  :             space = SHA1_BLOCK_SIZE - pos;

  00022	b8 40 00 00 00	 mov	 eax, 64			; 00000040H
  00027	2b 44 24 2c	 sub	 eax, DWORD PTR pos$[rsp]
  0002b	89 44 24 28	 mov	 DWORD PTR space$[rsp], eax

; 212  :     const unsigned char *sp = data;

  0002f	48 8b 44 24 60	 mov	 rax, QWORD PTR data$[rsp]
  00034	48 89 44 24 20	 mov	 QWORD PTR sp$[rsp], rax

; 213  : 
; 214  :     if((ctx->count[0] += len) < len)

  00039	48 8b 44 24 70	 mov	 rax, QWORD PTR ctx$[rsp]
  0003e	8b 08		 mov	 ecx, DWORD PTR [rax]
  00040	03 4c 24 68	 add	 ecx, DWORD PTR len$[rsp]
  00044	48 8b 44 24 70	 mov	 rax, QWORD PTR ctx$[rsp]
  00049	89 08		 mov	 DWORD PTR [rax], ecx
  0004b	48 8b 4c 24 70	 mov	 rcx, QWORD PTR ctx$[rsp]
  00050	8b 44 24 68	 mov	 eax, DWORD PTR len$[rsp]
  00054	39 01		 cmp	 DWORD PTR [rcx], eax
  00056	73 13		 jae	 SHORT $LN5@sha1_hash

; 215  :         ++(ctx->count[1]);

  00058	48 8b 44 24 70	 mov	 rax, QWORD PTR ctx$[rsp]
  0005d	8b 48 04	 mov	 ecx, DWORD PTR [rax+4]
  00060	83 c1 01	 add	 ecx, 1
  00063	48 8b 44 24 70	 mov	 rax, QWORD PTR ctx$[rsp]
  00068	89 48 04	 mov	 DWORD PTR [rax+4], ecx
$LN5@sha1_hash:
$LN4@sha1_hash:

; 216  : 
; 217  :     while(len >= space)     /* tranfer whole blocks if possible  */

  0006b	8b 44 24 28	 mov	 eax, DWORD PTR space$[rsp]
  0006f	39 44 24 68	 cmp	 DWORD PTR len$[rsp], eax
  00073	0f 82 de 00 00
	00		 jb	 $LN3@sha1_hash

; 218  :     {
; 219  :         memcpy(((unsigned char*)ctx->wbuf) + pos, sp, space);

  00079	8b 54 24 28	 mov	 edx, DWORD PTR space$[rsp]
  0007d	8b 4c 24 2c	 mov	 ecx, DWORD PTR pos$[rsp]
  00081	48 8b 44 24 70	 mov	 rax, QWORD PTR ctx$[rsp]
  00086	48 8d 7c 08 1c	 lea	 rdi, QWORD PTR [rax+rcx+28]
  0008b	48 8b 74 24 20	 mov	 rsi, QWORD PTR sp$[rsp]
  00090	48 8b ca	 mov	 rcx, rdx
  00093	f3 a4		 rep movsb

; 220  :         sp += space; len -= space; space = SHA1_BLOCK_SIZE; pos = 0;

  00095	8b 54 24 28	 mov	 edx, DWORD PTR space$[rsp]
  00099	48 8b 44 24 20	 mov	 rax, QWORD PTR sp$[rsp]
  0009e	48 03 c2	 add	 rax, rdx
  000a1	48 89 44 24 20	 mov	 QWORD PTR sp$[rsp], rax
  000a6	8b 4c 24 28	 mov	 ecx, DWORD PTR space$[rsp]
  000aa	8b 44 24 68	 mov	 eax, DWORD PTR len$[rsp]
  000ae	2b c1		 sub	 eax, ecx
  000b0	89 44 24 68	 mov	 DWORD PTR len$[rsp], eax
  000b4	c7 44 24 28 40
	00 00 00	 mov	 DWORD PTR space$[rsp], 64 ; 00000040H
  000bc	c7 44 24 2c 00
	00 00 00	 mov	 DWORD PTR pos$[rsp], 0

; 221  :         bsw_32(ctx->wbuf, SHA1_BLOCK_SIZE >> 2);

  000c4	c7 44 24 30 10
	00 00 00	 mov	 DWORD PTR _i$27700[rsp], 16
$LN2@sha1_hash:
  000cc	8b 4c 24 30	 mov	 ecx, DWORD PTR _i$27700[rsp]
  000d0	8b 44 24 30	 mov	 eax, DWORD PTR _i$27700[rsp]
  000d4	83 e8 01	 sub	 eax, 1
  000d7	89 44 24 30	 mov	 DWORD PTR _i$27700[rsp], eax
  000db	85 c9		 test	 ecx, ecx
  000dd	74 69		 je	 SHORT $LN1@sha1_hash
  000df	48 63 4c 24 30	 movsxd	 rcx, DWORD PTR _i$27700[rsp]
  000e4	48 8b 44 24 70	 mov	 rax, QWORD PTR ctx$[rsp]
  000e9	8b 7c 88 1c	 mov	 edi, DWORD PTR [rax+rcx*4+28]
  000ed	c1 ef 18	 shr	 edi, 24
  000f0	48 63 4c 24 30	 movsxd	 rcx, DWORD PTR _i$27700[rsp]
  000f5	48 8b 44 24 70	 mov	 rax, QWORD PTR ctx$[rsp]
  000fa	8b 44 88 1c	 mov	 eax, DWORD PTR [rax+rcx*4+28]
  000fe	c1 e0 08	 shl	 eax, 8
  00101	0b f8		 or	 edi, eax
  00103	81 e7 ff 00 ff
	00		 and	 edi, 16711935		; 00ff00ffH
  00109	48 63 4c 24 30	 movsxd	 rcx, DWORD PTR _i$27700[rsp]
  0010e	48 8b 44 24 70	 mov	 rax, QWORD PTR ctx$[rsp]
  00113	8b 54 88 1c	 mov	 edx, DWORD PTR [rax+rcx*4+28]
  00117	c1 ea 08	 shr	 edx, 8
  0011a	48 63 4c 24 30	 movsxd	 rcx, DWORD PTR _i$27700[rsp]
  0011f	48 8b 44 24 70	 mov	 rax, QWORD PTR ctx$[rsp]
  00124	8b 4c 88 1c	 mov	 ecx, DWORD PTR [rax+rcx*4+28]
  00128	c1 e1 18	 shl	 ecx, 24
  0012b	8b c2		 mov	 eax, edx
  0012d	0b c1		 or	 eax, ecx
  0012f	25 00 ff 00 ff	 and	 eax, -16711936		; ff00ff00H
  00134	8b d7		 mov	 edx, edi
  00136	0b d0		 or	 edx, eax
  00138	48 63 4c 24 30	 movsxd	 rcx, DWORD PTR _i$27700[rsp]
  0013d	48 8b 44 24 70	 mov	 rax, QWORD PTR ctx$[rsp]
  00142	89 54 88 1c	 mov	 DWORD PTR [rax+rcx*4+28], edx
  00146	eb 84		 jmp	 SHORT $LN2@sha1_hash
$LN1@sha1_hash:

; 222  :         sha1_compile(ctx);

  00148	48 8b 4c 24 70	 mov	 rcx, QWORD PTR ctx$[rsp]
  0014d	e8 00 00 00 00	 call	 sha1_compile

; 223  :     }

  00152	e9 14 ff ff ff	 jmp	 $LN4@sha1_hash
$LN3@sha1_hash:

; 224  : 
; 225  :     memcpy(((unsigned char*)ctx->wbuf) + pos, sp, len);

  00157	8b 54 24 68	 mov	 edx, DWORD PTR len$[rsp]
  0015b	8b 4c 24 2c	 mov	 ecx, DWORD PTR pos$[rsp]
  0015f	48 8b 44 24 70	 mov	 rax, QWORD PTR ctx$[rsp]
  00164	48 8d 7c 08 1c	 lea	 rdi, QWORD PTR [rax+rcx+28]
  00169	48 8b 74 24 20	 mov	 rsi, QWORD PTR sp$[rsp]
  0016e	48 8b ca	 mov	 rcx, rdx
  00171	f3 a4		 rep movsb

; 226  : }

  00173	48 83 c4 48	 add	 rsp, 72			; 00000048H
  00177	5f		 pop	 rdi
  00178	5e		 pop	 rsi
  00179	c3		 ret	 0
sha1_hash ENDP
END
