; Listing generated by Microsoft (R) Optimizing Compiler Version 15.00.30729.207 

include listing.inc

INCLUDELIB OLDNAMES

PUBLIC	k256
PUBLIC	i224
PUBLIC	i256
PUBLIC	k512
PUBLIC	i384
PUBLIC	i512
	ORG $+8
k256	DD	0428a2f98H
	DD	071374491H
	DD	0b5c0fbcfH
	DD	0e9b5dba5H
	DD	03956c25bH
	DD	059f111f1H
	DD	0923f82a4H
	DD	0ab1c5ed5H
	DD	0d807aa98H
	DD	012835b01H
	DD	0243185beH
	DD	0550c7dc3H
	DD	072be5d74H
	DD	080deb1feH
	DD	09bdc06a7H
	DD	0c19bf174H
	DD	0e49b69c1H
	DD	0efbe4786H
	DD	0fc19dc6H
	DD	0240ca1ccH
	DD	02de92c6fH
	DD	04a7484aaH
	DD	05cb0a9dcH
	DD	076f988daH
	DD	0983e5152H
	DD	0a831c66dH
	DD	0b00327c8H
	DD	0bf597fc7H
	DD	0c6e00bf3H
	DD	0d5a79147H
	DD	06ca6351H
	DD	014292967H
	DD	027b70a85H
	DD	02e1b2138H
	DD	04d2c6dfcH
	DD	053380d13H
	DD	0650a7354H
	DD	0766a0abbH
	DD	081c2c92eH
	DD	092722c85H
	DD	0a2bfe8a1H
	DD	0a81a664bH
	DD	0c24b8b70H
	DD	0c76c51a3H
	DD	0d192e819H
	DD	0d6990624H
	DD	0f40e3585H
	DD	0106aa070H
	DD	019a4c116H
	DD	01e376c08H
	DD	02748774cH
	DD	034b0bcb5H
	DD	0391c0cb3H
	DD	04ed8aa4aH
	DD	05b9cca4fH
	DD	0682e6ff3H
	DD	0748f82eeH
	DD	078a5636fH
	DD	084c87814H
	DD	08cc70208H
	DD	090befffaH
	DD	0a4506cebH
	DD	0bef9a3f7H
	DD	0c67178f2H
i224	DD	0c1059ed8H
	DD	0367cd507H
	DD	03070dd17H
	DD	0f70e5939H
	DD	0ffc00b31H
	DD	068581511H
	DD	064f98fa7H
	DD	0befa4fa4H
i256	DD	06a09e667H
	DD	0bb67ae85H
	DD	03c6ef372H
	DD	0a54ff53aH
	DD	0510e527fH
	DD	09b05688cH
	DD	01f83d9abH
	DD	05be0cd19H
k512	DQ	428a2f98d728ae22H
	DQ	7137449123ef65cdH
	DQ	b5c0fbcfec4d3b2fH
	DQ	e9b5dba58189dbbcH
	DQ	3956c25bf348b538H
	DQ	59f111f1b605d019H
	DQ	923f82a4af194f9bH
	DQ	ab1c5ed5da6d8118H
	DQ	d807aa98a3030242H
	DQ	12835b0145706fbeH
	DQ	243185be4ee4b28cH
	DQ	550c7dc3d5ffb4e2H
	DQ	72be5d74f27b896fH
	DQ	80deb1fe3b1696b1H
	DQ	9bdc06a725c71235H
	DQ	c19bf174cf692694H
	DQ	e49b69c19ef14ad2H
	DQ	efbe4786384f25e3H
	DQ	0fc19dc68b8cd5b5H
	DQ	240ca1cc77ac9c65H
	DQ	2de92c6f592b0275H
	DQ	4a7484aa6ea6e483H
	DQ	5cb0a9dcbd41fbd4H
	DQ	76f988da831153b5H
	DQ	983e5152ee66dfabH
	DQ	a831c66d2db43210H
	DQ	b00327c898fb213fH
	DQ	bf597fc7beef0ee4H
	DQ	c6e00bf33da88fc2H
	DQ	d5a79147930aa725H
	DQ	06ca6351e003826fH
	DQ	142929670a0e6e70H
	DQ	27b70a8546d22ffcH
	DQ	2e1b21385c26c926H
	DQ	4d2c6dfc5ac42aedH
	DQ	53380d139d95b3dfH
	DQ	650a73548baf63deH
	DQ	766a0abb3c77b2a8H
	DQ	81c2c92e47edaee6H
	DQ	92722c851482353bH
	DQ	a2bfe8a14cf10364H
	DQ	a81a664bbc423001H
	DQ	c24b8b70d0f89791H
	DQ	c76c51a30654be30H
	DQ	d192e819d6ef5218H
	DQ	d69906245565a910H
	DQ	f40e35855771202aH
	DQ	106aa07032bbd1b8H
	DQ	19a4c116b8d2d0c8H
	DQ	1e376c085141ab53H
	DQ	2748774cdf8eeb99H
	DQ	34b0bcb5e19b48a8H
	DQ	391c0cb3c5c95a63H
	DQ	4ed8aa4ae3418acbH
	DQ	5b9cca4f7763e373H
	DQ	682e6ff3d6b2b8a3H
	DQ	748f82ee5defb2fcH
	DQ	78a5636f43172f60H
	DQ	84c87814a1f0ab72H
	DQ	8cc702081a6439ecH
	DQ	90befffa23631e28H
	DQ	a4506cebde82bde9H
	DQ	bef9a3f7b2c67915H
	DQ	c67178f2e372532bH
	DQ	ca273eceea26619cH
	DQ	d186b8c721c0c207H
	DQ	eada7dd6cde0eb1eH
	DQ	f57d4f7fee6ed178H
	DQ	06f067aa72176fbaH
	DQ	0a637dc5a2c898a6H
	DQ	113f9804bef90daeH
	DQ	1b710b35131c471bH
	DQ	28db77f523047d84H
	DQ	32caab7b40c72493H
	DQ	3c9ebe0a15c9bebcH
	DQ	431d67c49c100d4cH
	DQ	4cc5d4becb3e42b6H
	DQ	597f299cfc657e2aH
	DQ	5fcb6fab3ad6faecH
	DQ	6c44198c4a475817H
i384	DQ	cbbb9d5dc1059ed8H
	DQ	629a292a367cd507H
	DQ	9159015a3070dd17H
	DQ	152fecd8f70e5939H
	DQ	67332667ffc00b31H
	DQ	8eb44a8768581511H
	DQ	db0c2e0d64f98fa7H
	DQ	47b5481dbefa4fa4H
	ORG $+576
i512	DQ	6a09e667f3bcc908H
	DQ	bb67ae8584caa73bH
	DQ	3c6ef372fe94f82bH
	DQ	a54ff53a5f1d36f1H
	DQ	510e527fade682d1H
	DQ	9b05688c2b3e6c1fH
	DQ	1f83d9abfb41bd6bH
	DQ	5be0cd19137e2179H
	ORG $+576
PUBLIC	sha512_begin
;	COMDAT pdata
; File c:\users\public\desktop\projects\ciphershed\src\crypto\sha2.c
pdata	SEGMENT
$pdata$sha512_begin DD imagerel $LN3
	DD	imagerel $LN3+58
	DD	imagerel $unwind$sha512_begin
pdata	ENDS
;	COMDAT xdata
xdata	SEGMENT
$unwind$sha512_begin DD 020701H
	DD	060067007H
; Function compile flags: /Odtp
xdata	ENDS
;	COMDAT sha512_begin
_TEXT	SEGMENT
ctx$ = 24
sha512_begin PROC					; COMDAT

; 655  : {

$LN3:
  00000	48 89 4c 24 08	 mov	 QWORD PTR [rsp+8], rcx
  00005	56		 push	 rsi
  00006	57		 push	 rdi

; 656  :     ctx->count[0] = ctx->count[1] = 0;

  00007	48 8b 44 24 18	 mov	 rax, QWORD PTR ctx$[rsp]
  0000c	48 c7 40 08 00
	00 00 00	 mov	 QWORD PTR [rax+8], 0
  00014	48 8b 44 24 18	 mov	 rax, QWORD PTR ctx$[rsp]
  00019	48 c7 00 00 00
	00 00		 mov	 QWORD PTR [rax], 0

; 657  :     memcpy(ctx->hash, i512, 8 * sizeof(uint_64t));

  00020	48 8b 7c 24 18	 mov	 rdi, QWORD PTR ctx$[rsp]
  00025	48 8d 35 00 00
	00 00		 lea	 rsi, OFFSET FLAT:i512
  0002c	48 83 c7 10	 add	 rdi, 16
  00030	b9 40 00 00 00	 mov	 ecx, 64			; 00000040H
  00035	f3 a4		 rep movsb

; 658  : }

  00037	5f		 pop	 rdi
  00038	5e		 pop	 rsi
  00039	c3		 ret	 0
sha512_begin ENDP
_TEXT	ENDS
PUBLIC	sha512_compile
;	COMDAT pdata
pdata	SEGMENT
$pdata$sha512_compile DD imagerel $LN38
	DD	imagerel $LN38+8460
	DD	imagerel $unwind$sha512_compile
pdata	ENDS
;	COMDAT xdata
xdata	SEGMENT
$unwind$sha512_compile DD 040e01H
	DD	01d010eH
	DD	060067007H
; Function compile flags: /Odtp
xdata	ENDS
;	COMDAT sha512_compile
_TEXT	SEGMENT
p$ = 0
v$ = 16
j$ = 80
tv141 = 88
tv238 = 96
tv337 = 104
tv442 = 112
tv546 = 120
tv645 = 128
tv750 = 136
tv852 = 144
tv954 = 152
tv1052 = 160
tv1156 = 168
tv1261 = 176
tv1365 = 184
tv1464 = 192
tv1569 = 200
tv1667 = 208
ctx$ = 256
sha512_compile PROC					; COMDAT

; 512  : {   uint_64t    v[8], *p = ctx->wbuf;

$LN38:
  00000	48 89 4c 24 08	 mov	 QWORD PTR [rsp+8], rcx
  00005	56		 push	 rsi
  00006	57		 push	 rdi
  00007	48 81 ec e8 00
	00 00		 sub	 rsp, 232		; 000000e8H
  0000e	48 8b 84 24 00
	01 00 00	 mov	 rax, QWORD PTR ctx$[rsp]
  00016	48 83 c0 50	 add	 rax, 80			; 00000050H
  0001a	48 89 04 24	 mov	 QWORD PTR p$[rsp], rax

; 513  :     uint_32t    j;
; 514  : 
; 515  :     memcpy(v, ctx->hash, 8 * sizeof(uint_64t));

  0001e	48 8d 7c 24 10	 lea	 rdi, QWORD PTR v$[rsp]
  00023	48 8b b4 24 00
	01 00 00	 mov	 rsi, QWORD PTR ctx$[rsp]
  0002b	48 83 c6 10	 add	 rsi, 16
  0002f	b9 40 00 00 00	 mov	 ecx, 64			; 00000040H
  00034	f3 a4		 rep movsb

; 516  : 
; 517  :     for(j = 0; j < 80; j += 16)

  00036	c7 44 24 50 00
	00 00 00	 mov	 DWORD PTR j$[rsp], 0
  0003e	eb 0b		 jmp	 SHORT $LN3@sha512_com
$LN2@sha512_com:
  00040	8b 44 24 50	 mov	 eax, DWORD PTR j$[rsp]
  00044	83 c0 10	 add	 eax, 16
  00047	89 44 24 50	 mov	 DWORD PTR j$[rsp], eax
$LN3@sha512_com:
  0004b	83 7c 24 50 50	 cmp	 DWORD PTR j$[rsp], 80	; 00000050H
  00050	0f 83 c4 1f 00
	00		 jae	 $LN1@sha512_com

; 518  :     {
; 519  :         v_cycle( 0, j); v_cycle( 1, j);

  00056	83 7c 24 50 00	 cmp	 DWORD PTR j$[rsp], 0
  0005b	0f 84 bc 00 00
	00		 je	 $LN6@sha512_com
  00061	48 8b 3c 24	 mov	 rdi, QWORD PTR p$[rsp]
  00065	48 8b 7f 70	 mov	 rdi, QWORD PTR [rdi+112]
  00069	48 c1 ef 13	 shr	 rdi, 19
  0006d	48 8b 04 24	 mov	 rax, QWORD PTR p$[rsp]
  00071	48 8b 40 70	 mov	 rax, QWORD PTR [rax+112]
  00075	48 c1 e0 2d	 shl	 rax, 45			; 0000002dH
  00079	48 0b f8	 or	 rdi, rax
  0007c	48 8b 04 24	 mov	 rax, QWORD PTR p$[rsp]
  00080	48 8b 40 70	 mov	 rax, QWORD PTR [rax+112]
  00084	48 c1 e8 3d	 shr	 rax, 61			; 0000003dH
  00088	48 8b 0c 24	 mov	 rcx, QWORD PTR p$[rsp]
  0008c	48 8b 49 70	 mov	 rcx, QWORD PTR [rcx+112]
  00090	48 c1 e1 03	 shl	 rcx, 3
  00094	48 0b c1	 or	 rax, rcx
  00097	48 33 f8	 xor	 rdi, rax
  0009a	48 8b 04 24	 mov	 rax, QWORD PTR p$[rsp]
  0009e	48 8b 40 70	 mov	 rax, QWORD PTR [rax+112]
  000a2	48 c1 e8 06	 shr	 rax, 6
  000a6	48 33 f8	 xor	 rdi, rax
  000a9	48 8b 04 24	 mov	 rax, QWORD PTR p$[rsp]
  000ad	48 03 78 48	 add	 rdi, QWORD PTR [rax+72]
  000b1	48 8b 14 24	 mov	 rdx, QWORD PTR p$[rsp]
  000b5	48 8b 52 08	 mov	 rdx, QWORD PTR [rdx+8]
  000b9	48 d1 ea	 shr	 rdx, 1
  000bc	48 8b 04 24	 mov	 rax, QWORD PTR p$[rsp]
  000c0	48 8b 40 08	 mov	 rax, QWORD PTR [rax+8]
  000c4	48 c1 e0 3f	 shl	 rax, 63			; 0000003fH
  000c8	48 0b d0	 or	 rdx, rax
  000cb	48 8b 0c 24	 mov	 rcx, QWORD PTR p$[rsp]
  000cf	48 8b 49 08	 mov	 rcx, QWORD PTR [rcx+8]
  000d3	48 c1 e9 08	 shr	 rcx, 8
  000d7	48 8b 04 24	 mov	 rax, QWORD PTR p$[rsp]
  000db	48 8b 40 08	 mov	 rax, QWORD PTR [rax+8]
  000df	48 c1 e0 38	 shl	 rax, 56			; 00000038H
  000e3	48 0b c8	 or	 rcx, rax
  000e6	48 8b c2	 mov	 rax, rdx
  000e9	48 33 c1	 xor	 rax, rcx
  000ec	48 8b 0c 24	 mov	 rcx, QWORD PTR p$[rsp]
  000f0	48 8b 49 08	 mov	 rcx, QWORD PTR [rcx+8]
  000f4	48 c1 e9 07	 shr	 rcx, 7
  000f8	48 33 c1	 xor	 rax, rcx
  000fb	48 8b cf	 mov	 rcx, rdi
  000fe	48 03 c8	 add	 rcx, rax
  00101	48 8b 04 24	 mov	 rax, QWORD PTR p$[rsp]
  00105	48 03 08	 add	 rcx, QWORD PTR [rax]
  00108	48 8b 04 24	 mov	 rax, QWORD PTR p$[rsp]
  0010c	48 89 08	 mov	 QWORD PTR [rax], rcx
  0010f	48 8b 04 24	 mov	 rax, QWORD PTR p$[rsp]
  00113	48 8b 00	 mov	 rax, QWORD PTR [rax]
  00116	48 89 44 24 58	 mov	 QWORD PTR tv141[rsp], rax
  0011b	eb 0c		 jmp	 SHORT $LN7@sha512_com
$LN6@sha512_com:
  0011d	48 8b 04 24	 mov	 rax, QWORD PTR p$[rsp]
  00121	48 8b 00	 mov	 rax, QWORD PTR [rax]
  00124	48 89 44 24 58	 mov	 QWORD PTR tv141[rsp], rax
$LN7@sha512_com:
  00129	8b 4c 24 50	 mov	 ecx, DWORD PTR j$[rsp]
  0012d	48 8d 05 00 00
	00 00		 lea	 rax, OFFSET FLAT:k512
  00134	48 8b 04 c8	 mov	 rax, QWORD PTR [rax+rcx*8]
  00138	48 8b 7c 24 58	 mov	 rdi, QWORD PTR tv141[rsp]
  0013d	48 03 f8	 add	 rdi, rax
  00140	48 8b 54 24 30	 mov	 rdx, QWORD PTR v$[rsp+32]
  00145	48 c1 ea 0e	 shr	 rdx, 14
  00149	48 8b 44 24 30	 mov	 rax, QWORD PTR v$[rsp+32]
  0014e	48 c1 e0 32	 shl	 rax, 50			; 00000032H
  00152	48 0b d0	 or	 rdx, rax
  00155	48 8b 44 24 30	 mov	 rax, QWORD PTR v$[rsp+32]
  0015a	48 c1 e8 12	 shr	 rax, 18
  0015e	48 8b 4c 24 30	 mov	 rcx, QWORD PTR v$[rsp+32]
  00163	48 c1 e1 2e	 shl	 rcx, 46			; 0000002eH
  00167	48 0b c1	 or	 rax, rcx
  0016a	48 33 d0	 xor	 rdx, rax
  0016d	48 8b 4c 24 30	 mov	 rcx, QWORD PTR v$[rsp+32]
  00172	48 c1 e9 29	 shr	 rcx, 41			; 00000029H
  00176	48 8b 44 24 30	 mov	 rax, QWORD PTR v$[rsp+32]
  0017b	48 c1 e0 17	 shl	 rax, 23
  0017f	48 0b c8	 or	 rcx, rax
  00182	48 8b c2	 mov	 rax, rdx
  00185	48 33 c1	 xor	 rax, rcx
  00188	48 8b d7	 mov	 rdx, rdi
  0018b	48 03 d0	 add	 rdx, rax
  0018e	48 8b 4c 24 40	 mov	 rcx, QWORD PTR v$[rsp+48]
  00193	48 8b 44 24 38	 mov	 rax, QWORD PTR v$[rsp+40]
  00198	48 33 c1	 xor	 rax, rcx
  0019b	48 8b 4c 24 30	 mov	 rcx, QWORD PTR v$[rsp+32]
  001a0	48 23 c8	 and	 rcx, rax
  001a3	48 8b 44 24 40	 mov	 rax, QWORD PTR v$[rsp+48]
  001a8	48 33 c1	 xor	 rax, rcx
  001ab	48 03 44 24 48	 add	 rax, QWORD PTR v$[rsp+56]
  001b0	48 03 c2	 add	 rax, rdx
  001b3	48 89 44 24 48	 mov	 QWORD PTR v$[rsp+56], rax
  001b8	48 8b 4c 24 48	 mov	 rcx, QWORD PTR v$[rsp+56]
  001bd	48 8b 44 24 28	 mov	 rax, QWORD PTR v$[rsp+24]
  001c2	48 03 c1	 add	 rax, rcx
  001c5	48 89 44 24 28	 mov	 QWORD PTR v$[rsp+24], rax
  001ca	48 8b 7c 24 10	 mov	 rdi, QWORD PTR v$[rsp]
  001cf	48 c1 ef 1c	 shr	 rdi, 28
  001d3	48 8b 44 24 10	 mov	 rax, QWORD PTR v$[rsp]
  001d8	48 c1 e0 24	 shl	 rax, 36			; 00000024H
  001dc	48 0b f8	 or	 rdi, rax
  001df	48 8b 44 24 10	 mov	 rax, QWORD PTR v$[rsp]
  001e4	48 c1 e8 22	 shr	 rax, 34			; 00000022H
  001e8	48 8b 4c 24 10	 mov	 rcx, QWORD PTR v$[rsp]
  001ed	48 c1 e1 1e	 shl	 rcx, 30
  001f1	48 0b c1	 or	 rax, rcx
  001f4	48 33 f8	 xor	 rdi, rax
  001f7	48 8b 44 24 10	 mov	 rax, QWORD PTR v$[rsp]
  001fc	48 c1 e8 27	 shr	 rax, 39			; 00000027H
  00200	48 8b 4c 24 10	 mov	 rcx, QWORD PTR v$[rsp]
  00205	48 c1 e1 19	 shl	 rcx, 25
  00209	48 0b c1	 or	 rax, rcx
  0020c	48 33 f8	 xor	 rdi, rax
  0020f	48 8b 44 24 18	 mov	 rax, QWORD PTR v$[rsp+8]
  00214	48 8b 54 24 10	 mov	 rdx, QWORD PTR v$[rsp]
  00219	48 23 d0	 and	 rdx, rax
  0021c	48 8b 4c 24 18	 mov	 rcx, QWORD PTR v$[rsp+8]
  00221	48 8b 44 24 10	 mov	 rax, QWORD PTR v$[rsp]
  00226	48 33 c1	 xor	 rax, rcx
  00229	48 8b 4c 24 20	 mov	 rcx, QWORD PTR v$[rsp+16]
  0022e	48 23 c8	 and	 rcx, rax
  00231	48 8b c2	 mov	 rax, rdx
  00234	48 0b c1	 or	 rax, rcx
  00237	48 03 44 24 48	 add	 rax, QWORD PTR v$[rsp+56]
  0023c	48 03 c7	 add	 rax, rdi
  0023f	48 89 44 24 48	 mov	 QWORD PTR v$[rsp+56], rax
  00244	83 7c 24 50 00	 cmp	 DWORD PTR j$[rsp], 0
  00249	0f 84 bf 00 00
	00		 je	 $LN8@sha512_com
  0024f	48 8b 3c 24	 mov	 rdi, QWORD PTR p$[rsp]
  00253	48 8b 7f 78	 mov	 rdi, QWORD PTR [rdi+120]
  00257	48 c1 ef 13	 shr	 rdi, 19
  0025b	48 8b 04 24	 mov	 rax, QWORD PTR p$[rsp]
  0025f	48 8b 40 78	 mov	 rax, QWORD PTR [rax+120]
  00263	48 c1 e0 2d	 shl	 rax, 45			; 0000002dH
  00267	48 0b f8	 or	 rdi, rax
  0026a	48 8b 04 24	 mov	 rax, QWORD PTR p$[rsp]
  0026e	48 8b 40 78	 mov	 rax, QWORD PTR [rax+120]
  00272	48 c1 e8 3d	 shr	 rax, 61			; 0000003dH
  00276	48 8b 0c 24	 mov	 rcx, QWORD PTR p$[rsp]
  0027a	48 8b 49 78	 mov	 rcx, QWORD PTR [rcx+120]
  0027e	48 c1 e1 03	 shl	 rcx, 3
  00282	48 0b c1	 or	 rax, rcx
  00285	48 33 f8	 xor	 rdi, rax
  00288	48 8b 04 24	 mov	 rax, QWORD PTR p$[rsp]
  0028c	48 8b 40 78	 mov	 rax, QWORD PTR [rax+120]
  00290	48 c1 e8 06	 shr	 rax, 6
  00294	48 33 f8	 xor	 rdi, rax
  00297	48 8b 04 24	 mov	 rax, QWORD PTR p$[rsp]
  0029b	48 03 78 50	 add	 rdi, QWORD PTR [rax+80]
  0029f	48 8b 14 24	 mov	 rdx, QWORD PTR p$[rsp]
  002a3	48 8b 52 10	 mov	 rdx, QWORD PTR [rdx+16]
  002a7	48 d1 ea	 shr	 rdx, 1
  002aa	48 8b 04 24	 mov	 rax, QWORD PTR p$[rsp]
  002ae	48 8b 40 10	 mov	 rax, QWORD PTR [rax+16]
  002b2	48 c1 e0 3f	 shl	 rax, 63			; 0000003fH
  002b6	48 0b d0	 or	 rdx, rax
  002b9	48 8b 0c 24	 mov	 rcx, QWORD PTR p$[rsp]
  002bd	48 8b 49 10	 mov	 rcx, QWORD PTR [rcx+16]
  002c1	48 c1 e9 08	 shr	 rcx, 8
  002c5	48 8b 04 24	 mov	 rax, QWORD PTR p$[rsp]
  002c9	48 8b 40 10	 mov	 rax, QWORD PTR [rax+16]
  002cd	48 c1 e0 38	 shl	 rax, 56			; 00000038H
  002d1	48 0b c8	 or	 rcx, rax
  002d4	48 8b c2	 mov	 rax, rdx
  002d7	48 33 c1	 xor	 rax, rcx
  002da	48 8b 0c 24	 mov	 rcx, QWORD PTR p$[rsp]
  002de	48 8b 49 10	 mov	 rcx, QWORD PTR [rcx+16]
  002e2	48 c1 e9 07	 shr	 rcx, 7
  002e6	48 33 c1	 xor	 rax, rcx
  002e9	48 8b cf	 mov	 rcx, rdi
  002ec	48 03 c8	 add	 rcx, rax
  002ef	48 8b 04 24	 mov	 rax, QWORD PTR p$[rsp]
  002f3	48 03 48 08	 add	 rcx, QWORD PTR [rax+8]
  002f7	48 8b 04 24	 mov	 rax, QWORD PTR p$[rsp]
  002fb	48 89 48 08	 mov	 QWORD PTR [rax+8], rcx
  002ff	48 8b 04 24	 mov	 rax, QWORD PTR p$[rsp]
  00303	48 8b 40 08	 mov	 rax, QWORD PTR [rax+8]
  00307	48 89 44 24 60	 mov	 QWORD PTR tv238[rsp], rax
  0030c	eb 0d		 jmp	 SHORT $LN9@sha512_com
$LN8@sha512_com:
  0030e	48 8b 04 24	 mov	 rax, QWORD PTR p$[rsp]
  00312	48 8b 40 08	 mov	 rax, QWORD PTR [rax+8]
  00316	48 89 44 24 60	 mov	 QWORD PTR tv238[rsp], rax
$LN9@sha512_com:
  0031b	8b 44 24 50	 mov	 eax, DWORD PTR j$[rsp]
  0031f	83 c0 01	 add	 eax, 1
  00322	8b c8		 mov	 ecx, eax
  00324	48 8d 05 00 00
	00 00		 lea	 rax, OFFSET FLAT:k512
  0032b	48 8b 04 c8	 mov	 rax, QWORD PTR [rax+rcx*8]
  0032f	48 8b 7c 24 60	 mov	 rdi, QWORD PTR tv238[rsp]
  00334	48 03 f8	 add	 rdi, rax
  00337	48 8b 54 24 28	 mov	 rdx, QWORD PTR v$[rsp+24]
  0033c	48 c1 ea 0e	 shr	 rdx, 14
  00340	48 8b 44 24 28	 mov	 rax, QWORD PTR v$[rsp+24]
  00345	48 c1 e0 32	 shl	 rax, 50			; 00000032H
  00349	48 0b d0	 or	 rdx, rax
  0034c	48 8b 44 24 28	 mov	 rax, QWORD PTR v$[rsp+24]
  00351	48 c1 e8 12	 shr	 rax, 18
  00355	48 8b 4c 24 28	 mov	 rcx, QWORD PTR v$[rsp+24]
  0035a	48 c1 e1 2e	 shl	 rcx, 46			; 0000002eH
  0035e	48 0b c1	 or	 rax, rcx
  00361	48 33 d0	 xor	 rdx, rax
  00364	48 8b 4c 24 28	 mov	 rcx, QWORD PTR v$[rsp+24]
  00369	48 c1 e9 29	 shr	 rcx, 41			; 00000029H
  0036d	48 8b 44 24 28	 mov	 rax, QWORD PTR v$[rsp+24]
  00372	48 c1 e0 17	 shl	 rax, 23
  00376	48 0b c8	 or	 rcx, rax
  00379	48 8b c2	 mov	 rax, rdx
  0037c	48 33 c1	 xor	 rax, rcx
  0037f	48 8b d7	 mov	 rdx, rdi
  00382	48 03 d0	 add	 rdx, rax
  00385	48 8b 4c 24 38	 mov	 rcx, QWORD PTR v$[rsp+40]
  0038a	48 8b 44 24 30	 mov	 rax, QWORD PTR v$[rsp+32]
  0038f	48 33 c1	 xor	 rax, rcx
  00392	48 8b 4c 24 28	 mov	 rcx, QWORD PTR v$[rsp+24]
  00397	48 23 c8	 and	 rcx, rax
  0039a	48 8b 44 24 38	 mov	 rax, QWORD PTR v$[rsp+40]
  0039f	48 33 c1	 xor	 rax, rcx
  003a2	48 03 44 24 40	 add	 rax, QWORD PTR v$[rsp+48]
  003a7	48 03 c2	 add	 rax, rdx
  003aa	48 89 44 24 40	 mov	 QWORD PTR v$[rsp+48], rax
  003af	48 8b 4c 24 40	 mov	 rcx, QWORD PTR v$[rsp+48]
  003b4	48 8b 44 24 20	 mov	 rax, QWORD PTR v$[rsp+16]
  003b9	48 03 c1	 add	 rax, rcx
  003bc	48 89 44 24 20	 mov	 QWORD PTR v$[rsp+16], rax
  003c1	48 8b 7c 24 48	 mov	 rdi, QWORD PTR v$[rsp+56]
  003c6	48 c1 ef 1c	 shr	 rdi, 28
  003ca	48 8b 44 24 48	 mov	 rax, QWORD PTR v$[rsp+56]
  003cf	48 c1 e0 24	 shl	 rax, 36			; 00000024H
  003d3	48 0b f8	 or	 rdi, rax
  003d6	48 8b 44 24 48	 mov	 rax, QWORD PTR v$[rsp+56]
  003db	48 c1 e8 22	 shr	 rax, 34			; 00000022H
  003df	48 8b 4c 24 48	 mov	 rcx, QWORD PTR v$[rsp+56]
  003e4	48 c1 e1 1e	 shl	 rcx, 30
  003e8	48 0b c1	 or	 rax, rcx
  003eb	48 33 f8	 xor	 rdi, rax
  003ee	48 8b 44 24 48	 mov	 rax, QWORD PTR v$[rsp+56]
  003f3	48 c1 e8 27	 shr	 rax, 39			; 00000027H
  003f7	48 8b 4c 24 48	 mov	 rcx, QWORD PTR v$[rsp+56]
  003fc	48 c1 e1 19	 shl	 rcx, 25
  00400	48 0b c1	 or	 rax, rcx
  00403	48 33 f8	 xor	 rdi, rax
  00406	48 8b 44 24 10	 mov	 rax, QWORD PTR v$[rsp]
  0040b	48 8b 54 24 48	 mov	 rdx, QWORD PTR v$[rsp+56]
  00410	48 23 d0	 and	 rdx, rax
  00413	48 8b 4c 24 10	 mov	 rcx, QWORD PTR v$[rsp]
  00418	48 8b 44 24 48	 mov	 rax, QWORD PTR v$[rsp+56]
  0041d	48 33 c1	 xor	 rax, rcx
  00420	48 8b 4c 24 18	 mov	 rcx, QWORD PTR v$[rsp+8]
  00425	48 23 c8	 and	 rcx, rax
  00428	48 8b c2	 mov	 rax, rdx
  0042b	48 0b c1	 or	 rax, rcx
  0042e	48 03 44 24 40	 add	 rax, QWORD PTR v$[rsp+48]
  00433	48 03 c7	 add	 rax, rdi
  00436	48 89 44 24 40	 mov	 QWORD PTR v$[rsp+48], rax

; 520  :         v_cycle( 2, j); v_cycle( 3, j);

  0043b	83 7c 24 50 00	 cmp	 DWORD PTR j$[rsp], 0
  00440	0f 84 ba 00 00
	00		 je	 $LN10@sha512_com
  00446	48 8b 3c 24	 mov	 rdi, QWORD PTR p$[rsp]
  0044a	48 8b 3f	 mov	 rdi, QWORD PTR [rdi]
  0044d	48 c1 ef 13	 shr	 rdi, 19
  00451	48 8b 04 24	 mov	 rax, QWORD PTR p$[rsp]
  00455	48 8b 00	 mov	 rax, QWORD PTR [rax]
  00458	48 c1 e0 2d	 shl	 rax, 45			; 0000002dH
  0045c	48 0b f8	 or	 rdi, rax
  0045f	48 8b 04 24	 mov	 rax, QWORD PTR p$[rsp]
  00463	48 8b 00	 mov	 rax, QWORD PTR [rax]
  00466	48 c1 e8 3d	 shr	 rax, 61			; 0000003dH
  0046a	48 8b 0c 24	 mov	 rcx, QWORD PTR p$[rsp]
  0046e	48 8b 09	 mov	 rcx, QWORD PTR [rcx]
  00471	48 c1 e1 03	 shl	 rcx, 3
  00475	48 0b c1	 or	 rax, rcx
  00478	48 33 f8	 xor	 rdi, rax
  0047b	48 8b 04 24	 mov	 rax, QWORD PTR p$[rsp]
  0047f	48 8b 00	 mov	 rax, QWORD PTR [rax]
  00482	48 c1 e8 06	 shr	 rax, 6
  00486	48 33 f8	 xor	 rdi, rax
  00489	48 8b 04 24	 mov	 rax, QWORD PTR p$[rsp]
  0048d	48 03 78 58	 add	 rdi, QWORD PTR [rax+88]
  00491	48 8b 14 24	 mov	 rdx, QWORD PTR p$[rsp]
  00495	48 8b 52 18	 mov	 rdx, QWORD PTR [rdx+24]
  00499	48 d1 ea	 shr	 rdx, 1
  0049c	48 8b 04 24	 mov	 rax, QWORD PTR p$[rsp]
  004a0	48 8b 40 18	 mov	 rax, QWORD PTR [rax+24]
  004a4	48 c1 e0 3f	 shl	 rax, 63			; 0000003fH
  004a8	48 0b d0	 or	 rdx, rax
  004ab	48 8b 0c 24	 mov	 rcx, QWORD PTR p$[rsp]
  004af	48 8b 49 18	 mov	 rcx, QWORD PTR [rcx+24]
  004b3	48 c1 e9 08	 shr	 rcx, 8
  004b7	48 8b 04 24	 mov	 rax, QWORD PTR p$[rsp]
  004bb	48 8b 40 18	 mov	 rax, QWORD PTR [rax+24]
  004bf	48 c1 e0 38	 shl	 rax, 56			; 00000038H
  004c3	48 0b c8	 or	 rcx, rax
  004c6	48 8b c2	 mov	 rax, rdx
  004c9	48 33 c1	 xor	 rax, rcx
  004cc	48 8b 0c 24	 mov	 rcx, QWORD PTR p$[rsp]
  004d0	48 8b 49 18	 mov	 rcx, QWORD PTR [rcx+24]
  004d4	48 c1 e9 07	 shr	 rcx, 7
  004d8	48 33 c1	 xor	 rax, rcx
  004db	48 8b cf	 mov	 rcx, rdi
  004de	48 03 c8	 add	 rcx, rax
  004e1	48 8b 04 24	 mov	 rax, QWORD PTR p$[rsp]
  004e5	48 03 48 10	 add	 rcx, QWORD PTR [rax+16]
  004e9	48 8b 04 24	 mov	 rax, QWORD PTR p$[rsp]
  004ed	48 89 48 10	 mov	 QWORD PTR [rax+16], rcx
  004f1	48 8b 04 24	 mov	 rax, QWORD PTR p$[rsp]
  004f5	48 8b 40 10	 mov	 rax, QWORD PTR [rax+16]
  004f9	48 89 44 24 68	 mov	 QWORD PTR tv337[rsp], rax
  004fe	eb 0d		 jmp	 SHORT $LN11@sha512_com
$LN10@sha512_com:
  00500	48 8b 04 24	 mov	 rax, QWORD PTR p$[rsp]
  00504	48 8b 40 10	 mov	 rax, QWORD PTR [rax+16]
  00508	48 89 44 24 68	 mov	 QWORD PTR tv337[rsp], rax
$LN11@sha512_com:
  0050d	8b 44 24 50	 mov	 eax, DWORD PTR j$[rsp]
  00511	83 c0 02	 add	 eax, 2
  00514	8b c8		 mov	 ecx, eax
  00516	48 8d 05 00 00
	00 00		 lea	 rax, OFFSET FLAT:k512
  0051d	48 8b 04 c8	 mov	 rax, QWORD PTR [rax+rcx*8]
  00521	48 8b 7c 24 68	 mov	 rdi, QWORD PTR tv337[rsp]
  00526	48 03 f8	 add	 rdi, rax
  00529	48 8b 54 24 20	 mov	 rdx, QWORD PTR v$[rsp+16]
  0052e	48 c1 ea 0e	 shr	 rdx, 14
  00532	48 8b 44 24 20	 mov	 rax, QWORD PTR v$[rsp+16]
  00537	48 c1 e0 32	 shl	 rax, 50			; 00000032H
  0053b	48 0b d0	 or	 rdx, rax
  0053e	48 8b 44 24 20	 mov	 rax, QWORD PTR v$[rsp+16]
  00543	48 c1 e8 12	 shr	 rax, 18
  00547	48 8b 4c 24 20	 mov	 rcx, QWORD PTR v$[rsp+16]
  0054c	48 c1 e1 2e	 shl	 rcx, 46			; 0000002eH
  00550	48 0b c1	 or	 rax, rcx
  00553	48 33 d0	 xor	 rdx, rax
  00556	48 8b 4c 24 20	 mov	 rcx, QWORD PTR v$[rsp+16]
  0055b	48 c1 e9 29	 shr	 rcx, 41			; 00000029H
  0055f	48 8b 44 24 20	 mov	 rax, QWORD PTR v$[rsp+16]
  00564	48 c1 e0 17	 shl	 rax, 23
  00568	48 0b c8	 or	 rcx, rax
  0056b	48 8b c2	 mov	 rax, rdx
  0056e	48 33 c1	 xor	 rax, rcx
  00571	48 8b d7	 mov	 rdx, rdi
  00574	48 03 d0	 add	 rdx, rax
  00577	48 8b 4c 24 30	 mov	 rcx, QWORD PTR v$[rsp+32]
  0057c	48 8b 44 24 28	 mov	 rax, QWORD PTR v$[rsp+24]
  00581	48 33 c1	 xor	 rax, rcx
  00584	48 8b 4c 24 20	 mov	 rcx, QWORD PTR v$[rsp+16]
  00589	48 23 c8	 and	 rcx, rax
  0058c	48 8b 44 24 30	 mov	 rax, QWORD PTR v$[rsp+32]
  00591	48 33 c1	 xor	 rax, rcx
  00594	48 03 44 24 38	 add	 rax, QWORD PTR v$[rsp+40]
  00599	48 03 c2	 add	 rax, rdx
  0059c	48 89 44 24 38	 mov	 QWORD PTR v$[rsp+40], rax
  005a1	48 8b 4c 24 38	 mov	 rcx, QWORD PTR v$[rsp+40]
  005a6	48 8b 44 24 18	 mov	 rax, QWORD PTR v$[rsp+8]
  005ab	48 03 c1	 add	 rax, rcx
  005ae	48 89 44 24 18	 mov	 QWORD PTR v$[rsp+8], rax
  005b3	48 8b 7c 24 40	 mov	 rdi, QWORD PTR v$[rsp+48]
  005b8	48 c1 ef 1c	 shr	 rdi, 28
  005bc	48 8b 44 24 40	 mov	 rax, QWORD PTR v$[rsp+48]
  005c1	48 c1 e0 24	 shl	 rax, 36			; 00000024H
  005c5	48 0b f8	 or	 rdi, rax
  005c8	48 8b 44 24 40	 mov	 rax, QWORD PTR v$[rsp+48]
  005cd	48 c1 e8 22	 shr	 rax, 34			; 00000022H
  005d1	48 8b 4c 24 40	 mov	 rcx, QWORD PTR v$[rsp+48]
  005d6	48 c1 e1 1e	 shl	 rcx, 30
  005da	48 0b c1	 or	 rax, rcx
  005dd	48 33 f8	 xor	 rdi, rax
  005e0	48 8b 44 24 40	 mov	 rax, QWORD PTR v$[rsp+48]
  005e5	48 c1 e8 27	 shr	 rax, 39			; 00000027H
  005e9	48 8b 4c 24 40	 mov	 rcx, QWORD PTR v$[rsp+48]
  005ee	48 c1 e1 19	 shl	 rcx, 25
  005f2	48 0b c1	 or	 rax, rcx
  005f5	48 33 f8	 xor	 rdi, rax
  005f8	48 8b 44 24 48	 mov	 rax, QWORD PTR v$[rsp+56]
  005fd	48 8b 54 24 40	 mov	 rdx, QWORD PTR v$[rsp+48]
  00602	48 23 d0	 and	 rdx, rax
  00605	48 8b 4c 24 48	 mov	 rcx, QWORD PTR v$[rsp+56]
  0060a	48 8b 44 24 40	 mov	 rax, QWORD PTR v$[rsp+48]
  0060f	48 33 c1	 xor	 rax, rcx
  00612	48 8b 4c 24 10	 mov	 rcx, QWORD PTR v$[rsp]
  00617	48 23 c8	 and	 rcx, rax
  0061a	48 8b c2	 mov	 rax, rdx
  0061d	48 0b c1	 or	 rax, rcx
  00620	48 03 44 24 38	 add	 rax, QWORD PTR v$[rsp+40]
  00625	48 03 c7	 add	 rax, rdi
  00628	48 89 44 24 38	 mov	 QWORD PTR v$[rsp+40], rax
  0062d	83 7c 24 50 00	 cmp	 DWORD PTR j$[rsp], 0
  00632	0f 84 bf 00 00
	00		 je	 $LN12@sha512_com
  00638	48 8b 3c 24	 mov	 rdi, QWORD PTR p$[rsp]
  0063c	48 8b 7f 08	 mov	 rdi, QWORD PTR [rdi+8]
  00640	48 c1 ef 13	 shr	 rdi, 19
  00644	48 8b 04 24	 mov	 rax, QWORD PTR p$[rsp]
  00648	48 8b 40 08	 mov	 rax, QWORD PTR [rax+8]
  0064c	48 c1 e0 2d	 shl	 rax, 45			; 0000002dH
  00650	48 0b f8	 or	 rdi, rax
  00653	48 8b 04 24	 mov	 rax, QWORD PTR p$[rsp]
  00657	48 8b 40 08	 mov	 rax, QWORD PTR [rax+8]
  0065b	48 c1 e8 3d	 shr	 rax, 61			; 0000003dH
  0065f	48 8b 0c 24	 mov	 rcx, QWORD PTR p$[rsp]
  00663	48 8b 49 08	 mov	 rcx, QWORD PTR [rcx+8]
  00667	48 c1 e1 03	 shl	 rcx, 3
  0066b	48 0b c1	 or	 rax, rcx
  0066e	48 33 f8	 xor	 rdi, rax
  00671	48 8b 04 24	 mov	 rax, QWORD PTR p$[rsp]
  00675	48 8b 40 08	 mov	 rax, QWORD PTR [rax+8]
  00679	48 c1 e8 06	 shr	 rax, 6
  0067d	48 33 f8	 xor	 rdi, rax
  00680	48 8b 04 24	 mov	 rax, QWORD PTR p$[rsp]
  00684	48 03 78 60	 add	 rdi, QWORD PTR [rax+96]
  00688	48 8b 14 24	 mov	 rdx, QWORD PTR p$[rsp]
  0068c	48 8b 52 20	 mov	 rdx, QWORD PTR [rdx+32]
  00690	48 d1 ea	 shr	 rdx, 1
  00693	48 8b 04 24	 mov	 rax, QWORD PTR p$[rsp]
  00697	48 8b 40 20	 mov	 rax, QWORD PTR [rax+32]
  0069b	48 c1 e0 3f	 shl	 rax, 63			; 0000003fH
  0069f	48 0b d0	 or	 rdx, rax
  006a2	48 8b 0c 24	 mov	 rcx, QWORD PTR p$[rsp]
  006a6	48 8b 49 20	 mov	 rcx, QWORD PTR [rcx+32]
  006aa	48 c1 e9 08	 shr	 rcx, 8
  006ae	48 8b 04 24	 mov	 rax, QWORD PTR p$[rsp]
  006b2	48 8b 40 20	 mov	 rax, QWORD PTR [rax+32]
  006b6	48 c1 e0 38	 shl	 rax, 56			; 00000038H
  006ba	48 0b c8	 or	 rcx, rax
  006bd	48 8b c2	 mov	 rax, rdx
  006c0	48 33 c1	 xor	 rax, rcx
  006c3	48 8b 0c 24	 mov	 rcx, QWORD PTR p$[rsp]
  006c7	48 8b 49 20	 mov	 rcx, QWORD PTR [rcx+32]
  006cb	48 c1 e9 07	 shr	 rcx, 7
  006cf	48 33 c1	 xor	 rax, rcx
  006d2	48 8b cf	 mov	 rcx, rdi
  006d5	48 03 c8	 add	 rcx, rax
  006d8	48 8b 04 24	 mov	 rax, QWORD PTR p$[rsp]
  006dc	48 03 48 18	 add	 rcx, QWORD PTR [rax+24]
  006e0	48 8b 04 24	 mov	 rax, QWORD PTR p$[rsp]
  006e4	48 89 48 18	 mov	 QWORD PTR [rax+24], rcx
  006e8	48 8b 04 24	 mov	 rax, QWORD PTR p$[rsp]
  006ec	48 8b 40 18	 mov	 rax, QWORD PTR [rax+24]
  006f0	48 89 44 24 70	 mov	 QWORD PTR tv442[rsp], rax
  006f5	eb 0d		 jmp	 SHORT $LN13@sha512_com
$LN12@sha512_com:
  006f7	48 8b 04 24	 mov	 rax, QWORD PTR p$[rsp]
  006fb	48 8b 40 18	 mov	 rax, QWORD PTR [rax+24]
  006ff	48 89 44 24 70	 mov	 QWORD PTR tv442[rsp], rax
$LN13@sha512_com:
  00704	8b 44 24 50	 mov	 eax, DWORD PTR j$[rsp]
  00708	83 c0 03	 add	 eax, 3
  0070b	8b c8		 mov	 ecx, eax
  0070d	48 8d 05 00 00
	00 00		 lea	 rax, OFFSET FLAT:k512
  00714	48 8b 04 c8	 mov	 rax, QWORD PTR [rax+rcx*8]
  00718	48 8b 7c 24 70	 mov	 rdi, QWORD PTR tv442[rsp]
  0071d	48 03 f8	 add	 rdi, rax
  00720	48 8b 54 24 18	 mov	 rdx, QWORD PTR v$[rsp+8]
  00725	48 c1 ea 0e	 shr	 rdx, 14
  00729	48 8b 44 24 18	 mov	 rax, QWORD PTR v$[rsp+8]
  0072e	48 c1 e0 32	 shl	 rax, 50			; 00000032H
  00732	48 0b d0	 or	 rdx, rax
  00735	48 8b 44 24 18	 mov	 rax, QWORD PTR v$[rsp+8]
  0073a	48 c1 e8 12	 shr	 rax, 18
  0073e	48 8b 4c 24 18	 mov	 rcx, QWORD PTR v$[rsp+8]
  00743	48 c1 e1 2e	 shl	 rcx, 46			; 0000002eH
  00747	48 0b c1	 or	 rax, rcx
  0074a	48 33 d0	 xor	 rdx, rax
  0074d	48 8b 4c 24 18	 mov	 rcx, QWORD PTR v$[rsp+8]
  00752	48 c1 e9 29	 shr	 rcx, 41			; 00000029H
  00756	48 8b 44 24 18	 mov	 rax, QWORD PTR v$[rsp+8]
  0075b	48 c1 e0 17	 shl	 rax, 23
  0075f	48 0b c8	 or	 rcx, rax
  00762	48 8b c2	 mov	 rax, rdx
  00765	48 33 c1	 xor	 rax, rcx
  00768	48 8b d7	 mov	 rdx, rdi
  0076b	48 03 d0	 add	 rdx, rax
  0076e	48 8b 4c 24 28	 mov	 rcx, QWORD PTR v$[rsp+24]
  00773	48 8b 44 24 20	 mov	 rax, QWORD PTR v$[rsp+16]
  00778	48 33 c1	 xor	 rax, rcx
  0077b	48 8b 4c 24 18	 mov	 rcx, QWORD PTR v$[rsp+8]
  00780	48 23 c8	 and	 rcx, rax
  00783	48 8b 44 24 28	 mov	 rax, QWORD PTR v$[rsp+24]
  00788	48 33 c1	 xor	 rax, rcx
  0078b	48 03 44 24 30	 add	 rax, QWORD PTR v$[rsp+32]
  00790	48 03 c2	 add	 rax, rdx
  00793	48 89 44 24 30	 mov	 QWORD PTR v$[rsp+32], rax
  00798	48 8b 4c 24 30	 mov	 rcx, QWORD PTR v$[rsp+32]
  0079d	48 8b 44 24 10	 mov	 rax, QWORD PTR v$[rsp]
  007a2	48 03 c1	 add	 rax, rcx
  007a5	48 89 44 24 10	 mov	 QWORD PTR v$[rsp], rax
  007aa	48 8b 7c 24 38	 mov	 rdi, QWORD PTR v$[rsp+40]
  007af	48 c1 ef 1c	 shr	 rdi, 28
  007b3	48 8b 44 24 38	 mov	 rax, QWORD PTR v$[rsp+40]
  007b8	48 c1 e0 24	 shl	 rax, 36			; 00000024H
  007bc	48 0b f8	 or	 rdi, rax
  007bf	48 8b 44 24 38	 mov	 rax, QWORD PTR v$[rsp+40]
  007c4	48 c1 e8 22	 shr	 rax, 34			; 00000022H
  007c8	48 8b 4c 24 38	 mov	 rcx, QWORD PTR v$[rsp+40]
  007cd	48 c1 e1 1e	 shl	 rcx, 30
  007d1	48 0b c1	 or	 rax, rcx
  007d4	48 33 f8	 xor	 rdi, rax
  007d7	48 8b 44 24 38	 mov	 rax, QWORD PTR v$[rsp+40]
  007dc	48 c1 e8 27	 shr	 rax, 39			; 00000027H
  007e0	48 8b 4c 24 38	 mov	 rcx, QWORD PTR v$[rsp+40]
  007e5	48 c1 e1 19	 shl	 rcx, 25
  007e9	48 0b c1	 or	 rax, rcx
  007ec	48 33 f8	 xor	 rdi, rax
  007ef	48 8b 44 24 40	 mov	 rax, QWORD PTR v$[rsp+48]
  007f4	48 8b 54 24 38	 mov	 rdx, QWORD PTR v$[rsp+40]
  007f9	48 23 d0	 and	 rdx, rax
  007fc	48 8b 4c 24 40	 mov	 rcx, QWORD PTR v$[rsp+48]
  00801	48 8b 44 24 38	 mov	 rax, QWORD PTR v$[rsp+40]
  00806	48 33 c1	 xor	 rax, rcx
  00809	48 8b 4c 24 48	 mov	 rcx, QWORD PTR v$[rsp+56]
  0080e	48 23 c8	 and	 rcx, rax
  00811	48 8b c2	 mov	 rax, rdx
  00814	48 0b c1	 or	 rax, rcx
  00817	48 03 44 24 30	 add	 rax, QWORD PTR v$[rsp+32]
  0081c	48 03 c7	 add	 rax, rdi
  0081f	48 89 44 24 30	 mov	 QWORD PTR v$[rsp+32], rax

; 521  :         v_cycle( 4, j); v_cycle( 5, j);

  00824	83 7c 24 50 00	 cmp	 DWORD PTR j$[rsp], 0
  00829	0f 84 bf 00 00
	00		 je	 $LN14@sha512_com
  0082f	48 8b 3c 24	 mov	 rdi, QWORD PTR p$[rsp]
  00833	48 8b 7f 10	 mov	 rdi, QWORD PTR [rdi+16]
  00837	48 c1 ef 13	 shr	 rdi, 19
  0083b	48 8b 04 24	 mov	 rax, QWORD PTR p$[rsp]
  0083f	48 8b 40 10	 mov	 rax, QWORD PTR [rax+16]
  00843	48 c1 e0 2d	 shl	 rax, 45			; 0000002dH
  00847	48 0b f8	 or	 rdi, rax
  0084a	48 8b 04 24	 mov	 rax, QWORD PTR p$[rsp]
  0084e	48 8b 40 10	 mov	 rax, QWORD PTR [rax+16]
  00852	48 c1 e8 3d	 shr	 rax, 61			; 0000003dH
  00856	48 8b 0c 24	 mov	 rcx, QWORD PTR p$[rsp]
  0085a	48 8b 49 10	 mov	 rcx, QWORD PTR [rcx+16]
  0085e	48 c1 e1 03	 shl	 rcx, 3
  00862	48 0b c1	 or	 rax, rcx
  00865	48 33 f8	 xor	 rdi, rax
  00868	48 8b 04 24	 mov	 rax, QWORD PTR p$[rsp]
  0086c	48 8b 40 10	 mov	 rax, QWORD PTR [rax+16]
  00870	48 c1 e8 06	 shr	 rax, 6
  00874	48 33 f8	 xor	 rdi, rax
  00877	48 8b 04 24	 mov	 rax, QWORD PTR p$[rsp]
  0087b	48 03 78 68	 add	 rdi, QWORD PTR [rax+104]
  0087f	48 8b 14 24	 mov	 rdx, QWORD PTR p$[rsp]
  00883	48 8b 52 28	 mov	 rdx, QWORD PTR [rdx+40]
  00887	48 d1 ea	 shr	 rdx, 1
  0088a	48 8b 04 24	 mov	 rax, QWORD PTR p$[rsp]
  0088e	48 8b 40 28	 mov	 rax, QWORD PTR [rax+40]
  00892	48 c1 e0 3f	 shl	 rax, 63			; 0000003fH
  00896	48 0b d0	 or	 rdx, rax
  00899	48 8b 0c 24	 mov	 rcx, QWORD PTR p$[rsp]
  0089d	48 8b 49 28	 mov	 rcx, QWORD PTR [rcx+40]
  008a1	48 c1 e9 08	 shr	 rcx, 8
  008a5	48 8b 04 24	 mov	 rax, QWORD PTR p$[rsp]
  008a9	48 8b 40 28	 mov	 rax, QWORD PTR [rax+40]
  008ad	48 c1 e0 38	 shl	 rax, 56			; 00000038H
  008b1	48 0b c8	 or	 rcx, rax
  008b4	48 8b c2	 mov	 rax, rdx
  008b7	48 33 c1	 xor	 rax, rcx
  008ba	48 8b 0c 24	 mov	 rcx, QWORD PTR p$[rsp]
  008be	48 8b 49 28	 mov	 rcx, QWORD PTR [rcx+40]
  008c2	48 c1 e9 07	 shr	 rcx, 7
  008c6	48 33 c1	 xor	 rax, rcx
  008c9	48 8b cf	 mov	 rcx, rdi
  008cc	48 03 c8	 add	 rcx, rax
  008cf	48 8b 04 24	 mov	 rax, QWORD PTR p$[rsp]
  008d3	48 03 48 20	 add	 rcx, QWORD PTR [rax+32]
  008d7	48 8b 04 24	 mov	 rax, QWORD PTR p$[rsp]
  008db	48 89 48 20	 mov	 QWORD PTR [rax+32], rcx
  008df	48 8b 04 24	 mov	 rax, QWORD PTR p$[rsp]
  008e3	48 8b 40 20	 mov	 rax, QWORD PTR [rax+32]
  008e7	48 89 44 24 78	 mov	 QWORD PTR tv546[rsp], rax
  008ec	eb 0d		 jmp	 SHORT $LN15@sha512_com
$LN14@sha512_com:
  008ee	48 8b 04 24	 mov	 rax, QWORD PTR p$[rsp]
  008f2	48 8b 40 20	 mov	 rax, QWORD PTR [rax+32]
  008f6	48 89 44 24 78	 mov	 QWORD PTR tv546[rsp], rax
$LN15@sha512_com:
  008fb	8b 44 24 50	 mov	 eax, DWORD PTR j$[rsp]
  008ff	83 c0 04	 add	 eax, 4
  00902	8b c8		 mov	 ecx, eax
  00904	48 8d 05 00 00
	00 00		 lea	 rax, OFFSET FLAT:k512
  0090b	48 8b 04 c8	 mov	 rax, QWORD PTR [rax+rcx*8]
  0090f	48 8b 7c 24 78	 mov	 rdi, QWORD PTR tv546[rsp]
  00914	48 03 f8	 add	 rdi, rax
  00917	48 8b 54 24 10	 mov	 rdx, QWORD PTR v$[rsp]
  0091c	48 c1 ea 0e	 shr	 rdx, 14
  00920	48 8b 44 24 10	 mov	 rax, QWORD PTR v$[rsp]
  00925	48 c1 e0 32	 shl	 rax, 50			; 00000032H
  00929	48 0b d0	 or	 rdx, rax
  0092c	48 8b 44 24 10	 mov	 rax, QWORD PTR v$[rsp]
  00931	48 c1 e8 12	 shr	 rax, 18
  00935	48 8b 4c 24 10	 mov	 rcx, QWORD PTR v$[rsp]
  0093a	48 c1 e1 2e	 shl	 rcx, 46			; 0000002eH
  0093e	48 0b c1	 or	 rax, rcx
  00941	48 33 d0	 xor	 rdx, rax
  00944	48 8b 4c 24 10	 mov	 rcx, QWORD PTR v$[rsp]
  00949	48 c1 e9 29	 shr	 rcx, 41			; 00000029H
  0094d	48 8b 44 24 10	 mov	 rax, QWORD PTR v$[rsp]
  00952	48 c1 e0 17	 shl	 rax, 23
  00956	48 0b c8	 or	 rcx, rax
  00959	48 8b c2	 mov	 rax, rdx
  0095c	48 33 c1	 xor	 rax, rcx
  0095f	48 8b d7	 mov	 rdx, rdi
  00962	48 03 d0	 add	 rdx, rax
  00965	48 8b 4c 24 20	 mov	 rcx, QWORD PTR v$[rsp+16]
  0096a	48 8b 44 24 18	 mov	 rax, QWORD PTR v$[rsp+8]
  0096f	48 33 c1	 xor	 rax, rcx
  00972	48 8b 4c 24 10	 mov	 rcx, QWORD PTR v$[rsp]
  00977	48 23 c8	 and	 rcx, rax
  0097a	48 8b 44 24 20	 mov	 rax, QWORD PTR v$[rsp+16]
  0097f	48 33 c1	 xor	 rax, rcx
  00982	48 03 44 24 28	 add	 rax, QWORD PTR v$[rsp+24]
  00987	48 03 c2	 add	 rax, rdx
  0098a	48 89 44 24 28	 mov	 QWORD PTR v$[rsp+24], rax
  0098f	48 8b 4c 24 28	 mov	 rcx, QWORD PTR v$[rsp+24]
  00994	48 8b 44 24 48	 mov	 rax, QWORD PTR v$[rsp+56]
  00999	48 03 c1	 add	 rax, rcx
  0099c	48 89 44 24 48	 mov	 QWORD PTR v$[rsp+56], rax
  009a1	48 8b 7c 24 30	 mov	 rdi, QWORD PTR v$[rsp+32]
  009a6	48 c1 ef 1c	 shr	 rdi, 28
  009aa	48 8b 44 24 30	 mov	 rax, QWORD PTR v$[rsp+32]
  009af	48 c1 e0 24	 shl	 rax, 36			; 00000024H
  009b3	48 0b f8	 or	 rdi, rax
  009b6	48 8b 44 24 30	 mov	 rax, QWORD PTR v$[rsp+32]
  009bb	48 c1 e8 22	 shr	 rax, 34			; 00000022H
  009bf	48 8b 4c 24 30	 mov	 rcx, QWORD PTR v$[rsp+32]
  009c4	48 c1 e1 1e	 shl	 rcx, 30
  009c8	48 0b c1	 or	 rax, rcx
  009cb	48 33 f8	 xor	 rdi, rax
  009ce	48 8b 44 24 30	 mov	 rax, QWORD PTR v$[rsp+32]
  009d3	48 c1 e8 27	 shr	 rax, 39			; 00000027H
  009d7	48 8b 4c 24 30	 mov	 rcx, QWORD PTR v$[rsp+32]
  009dc	48 c1 e1 19	 shl	 rcx, 25
  009e0	48 0b c1	 or	 rax, rcx
  009e3	48 33 f8	 xor	 rdi, rax
  009e6	48 8b 44 24 38	 mov	 rax, QWORD PTR v$[rsp+40]
  009eb	48 8b 54 24 30	 mov	 rdx, QWORD PTR v$[rsp+32]
  009f0	48 23 d0	 and	 rdx, rax
  009f3	48 8b 4c 24 38	 mov	 rcx, QWORD PTR v$[rsp+40]
  009f8	48 8b 44 24 30	 mov	 rax, QWORD PTR v$[rsp+32]
  009fd	48 33 c1	 xor	 rax, rcx
  00a00	48 8b 4c 24 40	 mov	 rcx, QWORD PTR v$[rsp+48]
  00a05	48 23 c8	 and	 rcx, rax
  00a08	48 8b c2	 mov	 rax, rdx
  00a0b	48 0b c1	 or	 rax, rcx
  00a0e	48 03 44 24 28	 add	 rax, QWORD PTR v$[rsp+24]
  00a13	48 03 c7	 add	 rax, rdi
  00a16	48 89 44 24 28	 mov	 QWORD PTR v$[rsp+24], rax
  00a1b	83 7c 24 50 00	 cmp	 DWORD PTR j$[rsp], 0
  00a20	0f 84 c2 00 00
	00		 je	 $LN16@sha512_com
  00a26	48 8b 3c 24	 mov	 rdi, QWORD PTR p$[rsp]
  00a2a	48 8b 7f 18	 mov	 rdi, QWORD PTR [rdi+24]
  00a2e	48 c1 ef 13	 shr	 rdi, 19
  00a32	48 8b 04 24	 mov	 rax, QWORD PTR p$[rsp]
  00a36	48 8b 40 18	 mov	 rax, QWORD PTR [rax+24]
  00a3a	48 c1 e0 2d	 shl	 rax, 45			; 0000002dH
  00a3e	48 0b f8	 or	 rdi, rax
  00a41	48 8b 04 24	 mov	 rax, QWORD PTR p$[rsp]
  00a45	48 8b 40 18	 mov	 rax, QWORD PTR [rax+24]
  00a49	48 c1 e8 3d	 shr	 rax, 61			; 0000003dH
  00a4d	48 8b 0c 24	 mov	 rcx, QWORD PTR p$[rsp]
  00a51	48 8b 49 18	 mov	 rcx, QWORD PTR [rcx+24]
  00a55	48 c1 e1 03	 shl	 rcx, 3
  00a59	48 0b c1	 or	 rax, rcx
  00a5c	48 33 f8	 xor	 rdi, rax
  00a5f	48 8b 04 24	 mov	 rax, QWORD PTR p$[rsp]
  00a63	48 8b 40 18	 mov	 rax, QWORD PTR [rax+24]
  00a67	48 c1 e8 06	 shr	 rax, 6
  00a6b	48 33 f8	 xor	 rdi, rax
  00a6e	48 8b 04 24	 mov	 rax, QWORD PTR p$[rsp]
  00a72	48 03 78 70	 add	 rdi, QWORD PTR [rax+112]
  00a76	48 8b 14 24	 mov	 rdx, QWORD PTR p$[rsp]
  00a7a	48 8b 52 30	 mov	 rdx, QWORD PTR [rdx+48]
  00a7e	48 d1 ea	 shr	 rdx, 1
  00a81	48 8b 04 24	 mov	 rax, QWORD PTR p$[rsp]
  00a85	48 8b 40 30	 mov	 rax, QWORD PTR [rax+48]
  00a89	48 c1 e0 3f	 shl	 rax, 63			; 0000003fH
  00a8d	48 0b d0	 or	 rdx, rax
  00a90	48 8b 0c 24	 mov	 rcx, QWORD PTR p$[rsp]
  00a94	48 8b 49 30	 mov	 rcx, QWORD PTR [rcx+48]
  00a98	48 c1 e9 08	 shr	 rcx, 8
  00a9c	48 8b 04 24	 mov	 rax, QWORD PTR p$[rsp]
  00aa0	48 8b 40 30	 mov	 rax, QWORD PTR [rax+48]
  00aa4	48 c1 e0 38	 shl	 rax, 56			; 00000038H
  00aa8	48 0b c8	 or	 rcx, rax
  00aab	48 8b c2	 mov	 rax, rdx
  00aae	48 33 c1	 xor	 rax, rcx
  00ab1	48 8b 0c 24	 mov	 rcx, QWORD PTR p$[rsp]
  00ab5	48 8b 49 30	 mov	 rcx, QWORD PTR [rcx+48]
  00ab9	48 c1 e9 07	 shr	 rcx, 7
  00abd	48 33 c1	 xor	 rax, rcx
  00ac0	48 8b cf	 mov	 rcx, rdi
  00ac3	48 03 c8	 add	 rcx, rax
  00ac6	48 8b 04 24	 mov	 rax, QWORD PTR p$[rsp]
  00aca	48 03 48 28	 add	 rcx, QWORD PTR [rax+40]
  00ace	48 8b 04 24	 mov	 rax, QWORD PTR p$[rsp]
  00ad2	48 89 48 28	 mov	 QWORD PTR [rax+40], rcx
  00ad6	48 8b 04 24	 mov	 rax, QWORD PTR p$[rsp]
  00ada	48 8b 40 28	 mov	 rax, QWORD PTR [rax+40]
  00ade	48 89 84 24 80
	00 00 00	 mov	 QWORD PTR tv645[rsp], rax
  00ae6	eb 10		 jmp	 SHORT $LN17@sha512_com
$LN16@sha512_com:
  00ae8	48 8b 04 24	 mov	 rax, QWORD PTR p$[rsp]
  00aec	48 8b 40 28	 mov	 rax, QWORD PTR [rax+40]
  00af0	48 89 84 24 80
	00 00 00	 mov	 QWORD PTR tv645[rsp], rax
$LN17@sha512_com:
  00af8	8b 44 24 50	 mov	 eax, DWORD PTR j$[rsp]
  00afc	83 c0 05	 add	 eax, 5
  00aff	8b c8		 mov	 ecx, eax
  00b01	48 8d 05 00 00
	00 00		 lea	 rax, OFFSET FLAT:k512
  00b08	48 8b 04 c8	 mov	 rax, QWORD PTR [rax+rcx*8]
  00b0c	48 8b bc 24 80
	00 00 00	 mov	 rdi, QWORD PTR tv645[rsp]
  00b14	48 03 f8	 add	 rdi, rax
  00b17	48 8b 54 24 48	 mov	 rdx, QWORD PTR v$[rsp+56]
  00b1c	48 c1 ea 0e	 shr	 rdx, 14
  00b20	48 8b 44 24 48	 mov	 rax, QWORD PTR v$[rsp+56]
  00b25	48 c1 e0 32	 shl	 rax, 50			; 00000032H
  00b29	48 0b d0	 or	 rdx, rax
  00b2c	48 8b 44 24 48	 mov	 rax, QWORD PTR v$[rsp+56]
  00b31	48 c1 e8 12	 shr	 rax, 18
  00b35	48 8b 4c 24 48	 mov	 rcx, QWORD PTR v$[rsp+56]
  00b3a	48 c1 e1 2e	 shl	 rcx, 46			; 0000002eH
  00b3e	48 0b c1	 or	 rax, rcx
  00b41	48 33 d0	 xor	 rdx, rax
  00b44	48 8b 4c 24 48	 mov	 rcx, QWORD PTR v$[rsp+56]
  00b49	48 c1 e9 29	 shr	 rcx, 41			; 00000029H
  00b4d	48 8b 44 24 48	 mov	 rax, QWORD PTR v$[rsp+56]
  00b52	48 c1 e0 17	 shl	 rax, 23
  00b56	48 0b c8	 or	 rcx, rax
  00b59	48 8b c2	 mov	 rax, rdx
  00b5c	48 33 c1	 xor	 rax, rcx
  00b5f	48 8b d7	 mov	 rdx, rdi
  00b62	48 03 d0	 add	 rdx, rax
  00b65	48 8b 4c 24 18	 mov	 rcx, QWORD PTR v$[rsp+8]
  00b6a	48 8b 44 24 10	 mov	 rax, QWORD PTR v$[rsp]
  00b6f	48 33 c1	 xor	 rax, rcx
  00b72	48 8b 4c 24 48	 mov	 rcx, QWORD PTR v$[rsp+56]
  00b77	48 23 c8	 and	 rcx, rax
  00b7a	48 8b 44 24 18	 mov	 rax, QWORD PTR v$[rsp+8]
  00b7f	48 33 c1	 xor	 rax, rcx
  00b82	48 03 44 24 20	 add	 rax, QWORD PTR v$[rsp+16]
  00b87	48 03 c2	 add	 rax, rdx
  00b8a	48 89 44 24 20	 mov	 QWORD PTR v$[rsp+16], rax
  00b8f	48 8b 4c 24 20	 mov	 rcx, QWORD PTR v$[rsp+16]
  00b94	48 8b 44 24 40	 mov	 rax, QWORD PTR v$[rsp+48]
  00b99	48 03 c1	 add	 rax, rcx
  00b9c	48 89 44 24 40	 mov	 QWORD PTR v$[rsp+48], rax
  00ba1	48 8b 7c 24 28	 mov	 rdi, QWORD PTR v$[rsp+24]
  00ba6	48 c1 ef 1c	 shr	 rdi, 28
  00baa	48 8b 44 24 28	 mov	 rax, QWORD PTR v$[rsp+24]
  00baf	48 c1 e0 24	 shl	 rax, 36			; 00000024H
  00bb3	48 0b f8	 or	 rdi, rax
  00bb6	48 8b 44 24 28	 mov	 rax, QWORD PTR v$[rsp+24]
  00bbb	48 c1 e8 22	 shr	 rax, 34			; 00000022H
  00bbf	48 8b 4c 24 28	 mov	 rcx, QWORD PTR v$[rsp+24]
  00bc4	48 c1 e1 1e	 shl	 rcx, 30
  00bc8	48 0b c1	 or	 rax, rcx
  00bcb	48 33 f8	 xor	 rdi, rax
  00bce	48 8b 44 24 28	 mov	 rax, QWORD PTR v$[rsp+24]
  00bd3	48 c1 e8 27	 shr	 rax, 39			; 00000027H
  00bd7	48 8b 4c 24 28	 mov	 rcx, QWORD PTR v$[rsp+24]
  00bdc	48 c1 e1 19	 shl	 rcx, 25
  00be0	48 0b c1	 or	 rax, rcx
  00be3	48 33 f8	 xor	 rdi, rax
  00be6	48 8b 44 24 30	 mov	 rax, QWORD PTR v$[rsp+32]
  00beb	48 8b 54 24 28	 mov	 rdx, QWORD PTR v$[rsp+24]
  00bf0	48 23 d0	 and	 rdx, rax
  00bf3	48 8b 4c 24 30	 mov	 rcx, QWORD PTR v$[rsp+32]
  00bf8	48 8b 44 24 28	 mov	 rax, QWORD PTR v$[rsp+24]
  00bfd	48 33 c1	 xor	 rax, rcx
  00c00	48 8b 4c 24 38	 mov	 rcx, QWORD PTR v$[rsp+40]
  00c05	48 23 c8	 and	 rcx, rax
  00c08	48 8b c2	 mov	 rax, rdx
  00c0b	48 0b c1	 or	 rax, rcx
  00c0e	48 03 44 24 20	 add	 rax, QWORD PTR v$[rsp+16]
  00c13	48 03 c7	 add	 rax, rdi
  00c16	48 89 44 24 20	 mov	 QWORD PTR v$[rsp+16], rax

; 522  :         v_cycle( 6, j); v_cycle( 7, j);

  00c1b	83 7c 24 50 00	 cmp	 DWORD PTR j$[rsp], 0
  00c20	0f 84 c2 00 00
	00		 je	 $LN18@sha512_com
  00c26	48 8b 3c 24	 mov	 rdi, QWORD PTR p$[rsp]
  00c2a	48 8b 7f 20	 mov	 rdi, QWORD PTR [rdi+32]
  00c2e	48 c1 ef 13	 shr	 rdi, 19
  00c32	48 8b 04 24	 mov	 rax, QWORD PTR p$[rsp]
  00c36	48 8b 40 20	 mov	 rax, QWORD PTR [rax+32]
  00c3a	48 c1 e0 2d	 shl	 rax, 45			; 0000002dH
  00c3e	48 0b f8	 or	 rdi, rax
  00c41	48 8b 04 24	 mov	 rax, QWORD PTR p$[rsp]
  00c45	48 8b 40 20	 mov	 rax, QWORD PTR [rax+32]
  00c49	48 c1 e8 3d	 shr	 rax, 61			; 0000003dH
  00c4d	48 8b 0c 24	 mov	 rcx, QWORD PTR p$[rsp]
  00c51	48 8b 49 20	 mov	 rcx, QWORD PTR [rcx+32]
  00c55	48 c1 e1 03	 shl	 rcx, 3
  00c59	48 0b c1	 or	 rax, rcx
  00c5c	48 33 f8	 xor	 rdi, rax
  00c5f	48 8b 04 24	 mov	 rax, QWORD PTR p$[rsp]
  00c63	48 8b 40 20	 mov	 rax, QWORD PTR [rax+32]
  00c67	48 c1 e8 06	 shr	 rax, 6
  00c6b	48 33 f8	 xor	 rdi, rax
  00c6e	48 8b 04 24	 mov	 rax, QWORD PTR p$[rsp]
  00c72	48 03 78 78	 add	 rdi, QWORD PTR [rax+120]
  00c76	48 8b 14 24	 mov	 rdx, QWORD PTR p$[rsp]
  00c7a	48 8b 52 38	 mov	 rdx, QWORD PTR [rdx+56]
  00c7e	48 d1 ea	 shr	 rdx, 1
  00c81	48 8b 04 24	 mov	 rax, QWORD PTR p$[rsp]
  00c85	48 8b 40 38	 mov	 rax, QWORD PTR [rax+56]
  00c89	48 c1 e0 3f	 shl	 rax, 63			; 0000003fH
  00c8d	48 0b d0	 or	 rdx, rax
  00c90	48 8b 0c 24	 mov	 rcx, QWORD PTR p$[rsp]
  00c94	48 8b 49 38	 mov	 rcx, QWORD PTR [rcx+56]
  00c98	48 c1 e9 08	 shr	 rcx, 8
  00c9c	48 8b 04 24	 mov	 rax, QWORD PTR p$[rsp]
  00ca0	48 8b 40 38	 mov	 rax, QWORD PTR [rax+56]
  00ca4	48 c1 e0 38	 shl	 rax, 56			; 00000038H
  00ca8	48 0b c8	 or	 rcx, rax
  00cab	48 8b c2	 mov	 rax, rdx
  00cae	48 33 c1	 xor	 rax, rcx
  00cb1	48 8b 0c 24	 mov	 rcx, QWORD PTR p$[rsp]
  00cb5	48 8b 49 38	 mov	 rcx, QWORD PTR [rcx+56]
  00cb9	48 c1 e9 07	 shr	 rcx, 7
  00cbd	48 33 c1	 xor	 rax, rcx
  00cc0	48 8b cf	 mov	 rcx, rdi
  00cc3	48 03 c8	 add	 rcx, rax
  00cc6	48 8b 04 24	 mov	 rax, QWORD PTR p$[rsp]
  00cca	48 03 48 30	 add	 rcx, QWORD PTR [rax+48]
  00cce	48 8b 04 24	 mov	 rax, QWORD PTR p$[rsp]
  00cd2	48 89 48 30	 mov	 QWORD PTR [rax+48], rcx
  00cd6	48 8b 04 24	 mov	 rax, QWORD PTR p$[rsp]
  00cda	48 8b 40 30	 mov	 rax, QWORD PTR [rax+48]
  00cde	48 89 84 24 88
	00 00 00	 mov	 QWORD PTR tv750[rsp], rax
  00ce6	eb 10		 jmp	 SHORT $LN19@sha512_com
$LN18@sha512_com:
  00ce8	48 8b 04 24	 mov	 rax, QWORD PTR p$[rsp]
  00cec	48 8b 40 30	 mov	 rax, QWORD PTR [rax+48]
  00cf0	48 89 84 24 88
	00 00 00	 mov	 QWORD PTR tv750[rsp], rax
$LN19@sha512_com:
  00cf8	8b 44 24 50	 mov	 eax, DWORD PTR j$[rsp]
  00cfc	83 c0 06	 add	 eax, 6
  00cff	8b c8		 mov	 ecx, eax
  00d01	48 8d 05 00 00
	00 00		 lea	 rax, OFFSET FLAT:k512
  00d08	48 8b 04 c8	 mov	 rax, QWORD PTR [rax+rcx*8]
  00d0c	48 8b bc 24 88
	00 00 00	 mov	 rdi, QWORD PTR tv750[rsp]
  00d14	48 03 f8	 add	 rdi, rax
  00d17	48 8b 54 24 40	 mov	 rdx, QWORD PTR v$[rsp+48]
  00d1c	48 c1 ea 0e	 shr	 rdx, 14
  00d20	48 8b 44 24 40	 mov	 rax, QWORD PTR v$[rsp+48]
  00d25	48 c1 e0 32	 shl	 rax, 50			; 00000032H
  00d29	48 0b d0	 or	 rdx, rax
  00d2c	48 8b 44 24 40	 mov	 rax, QWORD PTR v$[rsp+48]
  00d31	48 c1 e8 12	 shr	 rax, 18
  00d35	48 8b 4c 24 40	 mov	 rcx, QWORD PTR v$[rsp+48]
  00d3a	48 c1 e1 2e	 shl	 rcx, 46			; 0000002eH
  00d3e	48 0b c1	 or	 rax, rcx
  00d41	48 33 d0	 xor	 rdx, rax
  00d44	48 8b 4c 24 40	 mov	 rcx, QWORD PTR v$[rsp+48]
  00d49	48 c1 e9 29	 shr	 rcx, 41			; 00000029H
  00d4d	48 8b 44 24 40	 mov	 rax, QWORD PTR v$[rsp+48]
  00d52	48 c1 e0 17	 shl	 rax, 23
  00d56	48 0b c8	 or	 rcx, rax
  00d59	48 8b c2	 mov	 rax, rdx
  00d5c	48 33 c1	 xor	 rax, rcx
  00d5f	48 8b d7	 mov	 rdx, rdi
  00d62	48 03 d0	 add	 rdx, rax
  00d65	48 8b 4c 24 10	 mov	 rcx, QWORD PTR v$[rsp]
  00d6a	48 8b 44 24 48	 mov	 rax, QWORD PTR v$[rsp+56]
  00d6f	48 33 c1	 xor	 rax, rcx
  00d72	48 8b 4c 24 40	 mov	 rcx, QWORD PTR v$[rsp+48]
  00d77	48 23 c8	 and	 rcx, rax
  00d7a	48 8b 44 24 10	 mov	 rax, QWORD PTR v$[rsp]
  00d7f	48 33 c1	 xor	 rax, rcx
  00d82	48 03 44 24 18	 add	 rax, QWORD PTR v$[rsp+8]
  00d87	48 03 c2	 add	 rax, rdx
  00d8a	48 89 44 24 18	 mov	 QWORD PTR v$[rsp+8], rax
  00d8f	48 8b 4c 24 18	 mov	 rcx, QWORD PTR v$[rsp+8]
  00d94	48 8b 44 24 38	 mov	 rax, QWORD PTR v$[rsp+40]
  00d99	48 03 c1	 add	 rax, rcx
  00d9c	48 89 44 24 38	 mov	 QWORD PTR v$[rsp+40], rax
  00da1	48 8b 7c 24 20	 mov	 rdi, QWORD PTR v$[rsp+16]
  00da6	48 c1 ef 1c	 shr	 rdi, 28
  00daa	48 8b 44 24 20	 mov	 rax, QWORD PTR v$[rsp+16]
  00daf	48 c1 e0 24	 shl	 rax, 36			; 00000024H
  00db3	48 0b f8	 or	 rdi, rax
  00db6	48 8b 44 24 20	 mov	 rax, QWORD PTR v$[rsp+16]
  00dbb	48 c1 e8 22	 shr	 rax, 34			; 00000022H
  00dbf	48 8b 4c 24 20	 mov	 rcx, QWORD PTR v$[rsp+16]
  00dc4	48 c1 e1 1e	 shl	 rcx, 30
  00dc8	48 0b c1	 or	 rax, rcx
  00dcb	48 33 f8	 xor	 rdi, rax
  00dce	48 8b 44 24 20	 mov	 rax, QWORD PTR v$[rsp+16]
  00dd3	48 c1 e8 27	 shr	 rax, 39			; 00000027H
  00dd7	48 8b 4c 24 20	 mov	 rcx, QWORD PTR v$[rsp+16]
  00ddc	48 c1 e1 19	 shl	 rcx, 25
  00de0	48 0b c1	 or	 rax, rcx
  00de3	48 33 f8	 xor	 rdi, rax
  00de6	48 8b 44 24 28	 mov	 rax, QWORD PTR v$[rsp+24]
  00deb	48 8b 54 24 20	 mov	 rdx, QWORD PTR v$[rsp+16]
  00df0	48 23 d0	 and	 rdx, rax
  00df3	48 8b 4c 24 28	 mov	 rcx, QWORD PTR v$[rsp+24]
  00df8	48 8b 44 24 20	 mov	 rax, QWORD PTR v$[rsp+16]
  00dfd	48 33 c1	 xor	 rax, rcx
  00e00	48 8b 4c 24 30	 mov	 rcx, QWORD PTR v$[rsp+32]
  00e05	48 23 c8	 and	 rcx, rax
  00e08	48 8b c2	 mov	 rax, rdx
  00e0b	48 0b c1	 or	 rax, rcx
  00e0e	48 03 44 24 18	 add	 rax, QWORD PTR v$[rsp+8]
  00e13	48 03 c7	 add	 rax, rdi
  00e16	48 89 44 24 18	 mov	 QWORD PTR v$[rsp+8], rax
  00e1b	83 7c 24 50 00	 cmp	 DWORD PTR j$[rsp], 0
  00e20	0f 84 c1 00 00
	00		 je	 $LN20@sha512_com
  00e26	48 8b 3c 24	 mov	 rdi, QWORD PTR p$[rsp]
  00e2a	48 8b 7f 28	 mov	 rdi, QWORD PTR [rdi+40]
  00e2e	48 c1 ef 13	 shr	 rdi, 19
  00e32	48 8b 04 24	 mov	 rax, QWORD PTR p$[rsp]
  00e36	48 8b 40 28	 mov	 rax, QWORD PTR [rax+40]
  00e3a	48 c1 e0 2d	 shl	 rax, 45			; 0000002dH
  00e3e	48 0b f8	 or	 rdi, rax
  00e41	48 8b 04 24	 mov	 rax, QWORD PTR p$[rsp]
  00e45	48 8b 40 28	 mov	 rax, QWORD PTR [rax+40]
  00e49	48 c1 e8 3d	 shr	 rax, 61			; 0000003dH
  00e4d	48 8b 0c 24	 mov	 rcx, QWORD PTR p$[rsp]
  00e51	48 8b 49 28	 mov	 rcx, QWORD PTR [rcx+40]
  00e55	48 c1 e1 03	 shl	 rcx, 3
  00e59	48 0b c1	 or	 rax, rcx
  00e5c	48 33 f8	 xor	 rdi, rax
  00e5f	48 8b 04 24	 mov	 rax, QWORD PTR p$[rsp]
  00e63	48 8b 40 28	 mov	 rax, QWORD PTR [rax+40]
  00e67	48 c1 e8 06	 shr	 rax, 6
  00e6b	48 33 f8	 xor	 rdi, rax
  00e6e	48 8b 04 24	 mov	 rax, QWORD PTR p$[rsp]
  00e72	48 03 38	 add	 rdi, QWORD PTR [rax]
  00e75	48 8b 14 24	 mov	 rdx, QWORD PTR p$[rsp]
  00e79	48 8b 52 40	 mov	 rdx, QWORD PTR [rdx+64]
  00e7d	48 d1 ea	 shr	 rdx, 1
  00e80	48 8b 04 24	 mov	 rax, QWORD PTR p$[rsp]
  00e84	48 8b 40 40	 mov	 rax, QWORD PTR [rax+64]
  00e88	48 c1 e0 3f	 shl	 rax, 63			; 0000003fH
  00e8c	48 0b d0	 or	 rdx, rax
  00e8f	48 8b 0c 24	 mov	 rcx, QWORD PTR p$[rsp]
  00e93	48 8b 49 40	 mov	 rcx, QWORD PTR [rcx+64]
  00e97	48 c1 e9 08	 shr	 rcx, 8
  00e9b	48 8b 04 24	 mov	 rax, QWORD PTR p$[rsp]
  00e9f	48 8b 40 40	 mov	 rax, QWORD PTR [rax+64]
  00ea3	48 c1 e0 38	 shl	 rax, 56			; 00000038H
  00ea7	48 0b c8	 or	 rcx, rax
  00eaa	48 8b c2	 mov	 rax, rdx
  00ead	48 33 c1	 xor	 rax, rcx
  00eb0	48 8b 0c 24	 mov	 rcx, QWORD PTR p$[rsp]
  00eb4	48 8b 49 40	 mov	 rcx, QWORD PTR [rcx+64]
  00eb8	48 c1 e9 07	 shr	 rcx, 7
  00ebc	48 33 c1	 xor	 rax, rcx
  00ebf	48 8b cf	 mov	 rcx, rdi
  00ec2	48 03 c8	 add	 rcx, rax
  00ec5	48 8b 04 24	 mov	 rax, QWORD PTR p$[rsp]
  00ec9	48 03 48 38	 add	 rcx, QWORD PTR [rax+56]
  00ecd	48 8b 04 24	 mov	 rax, QWORD PTR p$[rsp]
  00ed1	48 89 48 38	 mov	 QWORD PTR [rax+56], rcx
  00ed5	48 8b 04 24	 mov	 rax, QWORD PTR p$[rsp]
  00ed9	48 8b 40 38	 mov	 rax, QWORD PTR [rax+56]
  00edd	48 89 84 24 90
	00 00 00	 mov	 QWORD PTR tv852[rsp], rax
  00ee5	eb 10		 jmp	 SHORT $LN21@sha512_com
$LN20@sha512_com:
  00ee7	48 8b 04 24	 mov	 rax, QWORD PTR p$[rsp]
  00eeb	48 8b 40 38	 mov	 rax, QWORD PTR [rax+56]
  00eef	48 89 84 24 90
	00 00 00	 mov	 QWORD PTR tv852[rsp], rax
$LN21@sha512_com:
  00ef7	8b 44 24 50	 mov	 eax, DWORD PTR j$[rsp]
  00efb	83 c0 07	 add	 eax, 7
  00efe	8b c8		 mov	 ecx, eax
  00f00	48 8d 05 00 00
	00 00		 lea	 rax, OFFSET FLAT:k512
  00f07	48 8b 04 c8	 mov	 rax, QWORD PTR [rax+rcx*8]
  00f0b	48 8b bc 24 90
	00 00 00	 mov	 rdi, QWORD PTR tv852[rsp]
  00f13	48 03 f8	 add	 rdi, rax
  00f16	48 8b 54 24 38	 mov	 rdx, QWORD PTR v$[rsp+40]
  00f1b	48 c1 ea 0e	 shr	 rdx, 14
  00f1f	48 8b 44 24 38	 mov	 rax, QWORD PTR v$[rsp+40]
  00f24	48 c1 e0 32	 shl	 rax, 50			; 00000032H
  00f28	48 0b d0	 or	 rdx, rax
  00f2b	48 8b 44 24 38	 mov	 rax, QWORD PTR v$[rsp+40]
  00f30	48 c1 e8 12	 shr	 rax, 18
  00f34	48 8b 4c 24 38	 mov	 rcx, QWORD PTR v$[rsp+40]
  00f39	48 c1 e1 2e	 shl	 rcx, 46			; 0000002eH
  00f3d	48 0b c1	 or	 rax, rcx
  00f40	48 33 d0	 xor	 rdx, rax
  00f43	48 8b 4c 24 38	 mov	 rcx, QWORD PTR v$[rsp+40]
  00f48	48 c1 e9 29	 shr	 rcx, 41			; 00000029H
  00f4c	48 8b 44 24 38	 mov	 rax, QWORD PTR v$[rsp+40]
  00f51	48 c1 e0 17	 shl	 rax, 23
  00f55	48 0b c8	 or	 rcx, rax
  00f58	48 8b c2	 mov	 rax, rdx
  00f5b	48 33 c1	 xor	 rax, rcx
  00f5e	48 8b d7	 mov	 rdx, rdi
  00f61	48 03 d0	 add	 rdx, rax
  00f64	48 8b 4c 24 48	 mov	 rcx, QWORD PTR v$[rsp+56]
  00f69	48 8b 44 24 40	 mov	 rax, QWORD PTR v$[rsp+48]
  00f6e	48 33 c1	 xor	 rax, rcx
  00f71	48 8b 4c 24 38	 mov	 rcx, QWORD PTR v$[rsp+40]
  00f76	48 23 c8	 and	 rcx, rax
  00f79	48 8b 44 24 48	 mov	 rax, QWORD PTR v$[rsp+56]
  00f7e	48 33 c1	 xor	 rax, rcx
  00f81	48 03 44 24 10	 add	 rax, QWORD PTR v$[rsp]
  00f86	48 03 c2	 add	 rax, rdx
  00f89	48 89 44 24 10	 mov	 QWORD PTR v$[rsp], rax
  00f8e	48 8b 4c 24 10	 mov	 rcx, QWORD PTR v$[rsp]
  00f93	48 8b 44 24 30	 mov	 rax, QWORD PTR v$[rsp+32]
  00f98	48 03 c1	 add	 rax, rcx
  00f9b	48 89 44 24 30	 mov	 QWORD PTR v$[rsp+32], rax
  00fa0	48 8b 7c 24 18	 mov	 rdi, QWORD PTR v$[rsp+8]
  00fa5	48 c1 ef 1c	 shr	 rdi, 28
  00fa9	48 8b 44 24 18	 mov	 rax, QWORD PTR v$[rsp+8]
  00fae	48 c1 e0 24	 shl	 rax, 36			; 00000024H
  00fb2	48 0b f8	 or	 rdi, rax
  00fb5	48 8b 44 24 18	 mov	 rax, QWORD PTR v$[rsp+8]
  00fba	48 c1 e8 22	 shr	 rax, 34			; 00000022H
  00fbe	48 8b 4c 24 18	 mov	 rcx, QWORD PTR v$[rsp+8]
  00fc3	48 c1 e1 1e	 shl	 rcx, 30
  00fc7	48 0b c1	 or	 rax, rcx
  00fca	48 33 f8	 xor	 rdi, rax
  00fcd	48 8b 44 24 18	 mov	 rax, QWORD PTR v$[rsp+8]
  00fd2	48 c1 e8 27	 shr	 rax, 39			; 00000027H
  00fd6	48 8b 4c 24 18	 mov	 rcx, QWORD PTR v$[rsp+8]
  00fdb	48 c1 e1 19	 shl	 rcx, 25
  00fdf	48 0b c1	 or	 rax, rcx
  00fe2	48 33 f8	 xor	 rdi, rax
  00fe5	48 8b 44 24 20	 mov	 rax, QWORD PTR v$[rsp+16]
  00fea	48 8b 54 24 18	 mov	 rdx, QWORD PTR v$[rsp+8]
  00fef	48 23 d0	 and	 rdx, rax
  00ff2	48 8b 4c 24 20	 mov	 rcx, QWORD PTR v$[rsp+16]
  00ff7	48 8b 44 24 18	 mov	 rax, QWORD PTR v$[rsp+8]
  00ffc	48 33 c1	 xor	 rax, rcx
  00fff	48 8b 4c 24 28	 mov	 rcx, QWORD PTR v$[rsp+24]
  01004	48 23 c8	 and	 rcx, rax
  01007	48 8b c2	 mov	 rax, rdx
  0100a	48 0b c1	 or	 rax, rcx
  0100d	48 03 44 24 10	 add	 rax, QWORD PTR v$[rsp]
  01012	48 03 c7	 add	 rax, rdi
  01015	48 89 44 24 10	 mov	 QWORD PTR v$[rsp], rax

; 523  :         v_cycle( 8, j); v_cycle( 9, j);

  0101a	83 7c 24 50 00	 cmp	 DWORD PTR j$[rsp], 0
  0101f	0f 84 c2 00 00
	00		 je	 $LN22@sha512_com
  01025	48 8b 3c 24	 mov	 rdi, QWORD PTR p$[rsp]
  01029	48 8b 7f 30	 mov	 rdi, QWORD PTR [rdi+48]
  0102d	48 c1 ef 13	 shr	 rdi, 19
  01031	48 8b 04 24	 mov	 rax, QWORD PTR p$[rsp]
  01035	48 8b 40 30	 mov	 rax, QWORD PTR [rax+48]
  01039	48 c1 e0 2d	 shl	 rax, 45			; 0000002dH
  0103d	48 0b f8	 or	 rdi, rax
  01040	48 8b 04 24	 mov	 rax, QWORD PTR p$[rsp]
  01044	48 8b 40 30	 mov	 rax, QWORD PTR [rax+48]
  01048	48 c1 e8 3d	 shr	 rax, 61			; 0000003dH
  0104c	48 8b 0c 24	 mov	 rcx, QWORD PTR p$[rsp]
  01050	48 8b 49 30	 mov	 rcx, QWORD PTR [rcx+48]
  01054	48 c1 e1 03	 shl	 rcx, 3
  01058	48 0b c1	 or	 rax, rcx
  0105b	48 33 f8	 xor	 rdi, rax
  0105e	48 8b 04 24	 mov	 rax, QWORD PTR p$[rsp]
  01062	48 8b 40 30	 mov	 rax, QWORD PTR [rax+48]
  01066	48 c1 e8 06	 shr	 rax, 6
  0106a	48 33 f8	 xor	 rdi, rax
  0106d	48 8b 04 24	 mov	 rax, QWORD PTR p$[rsp]
  01071	48 03 78 08	 add	 rdi, QWORD PTR [rax+8]
  01075	48 8b 14 24	 mov	 rdx, QWORD PTR p$[rsp]
  01079	48 8b 52 48	 mov	 rdx, QWORD PTR [rdx+72]
  0107d	48 d1 ea	 shr	 rdx, 1
  01080	48 8b 04 24	 mov	 rax, QWORD PTR p$[rsp]
  01084	48 8b 40 48	 mov	 rax, QWORD PTR [rax+72]
  01088	48 c1 e0 3f	 shl	 rax, 63			; 0000003fH
  0108c	48 0b d0	 or	 rdx, rax
  0108f	48 8b 0c 24	 mov	 rcx, QWORD PTR p$[rsp]
  01093	48 8b 49 48	 mov	 rcx, QWORD PTR [rcx+72]
  01097	48 c1 e9 08	 shr	 rcx, 8
  0109b	48 8b 04 24	 mov	 rax, QWORD PTR p$[rsp]
  0109f	48 8b 40 48	 mov	 rax, QWORD PTR [rax+72]
  010a3	48 c1 e0 38	 shl	 rax, 56			; 00000038H
  010a7	48 0b c8	 or	 rcx, rax
  010aa	48 8b c2	 mov	 rax, rdx
  010ad	48 33 c1	 xor	 rax, rcx
  010b0	48 8b 0c 24	 mov	 rcx, QWORD PTR p$[rsp]
  010b4	48 8b 49 48	 mov	 rcx, QWORD PTR [rcx+72]
  010b8	48 c1 e9 07	 shr	 rcx, 7
  010bc	48 33 c1	 xor	 rax, rcx
  010bf	48 8b cf	 mov	 rcx, rdi
  010c2	48 03 c8	 add	 rcx, rax
  010c5	48 8b 04 24	 mov	 rax, QWORD PTR p$[rsp]
  010c9	48 03 48 40	 add	 rcx, QWORD PTR [rax+64]
  010cd	48 8b 04 24	 mov	 rax, QWORD PTR p$[rsp]
  010d1	48 89 48 40	 mov	 QWORD PTR [rax+64], rcx
  010d5	48 8b 04 24	 mov	 rax, QWORD PTR p$[rsp]
  010d9	48 8b 40 40	 mov	 rax, QWORD PTR [rax+64]
  010dd	48 89 84 24 98
	00 00 00	 mov	 QWORD PTR tv954[rsp], rax
  010e5	eb 10		 jmp	 SHORT $LN23@sha512_com
$LN22@sha512_com:
  010e7	48 8b 04 24	 mov	 rax, QWORD PTR p$[rsp]
  010eb	48 8b 40 40	 mov	 rax, QWORD PTR [rax+64]
  010ef	48 89 84 24 98
	00 00 00	 mov	 QWORD PTR tv954[rsp], rax
$LN23@sha512_com:
  010f7	8b 44 24 50	 mov	 eax, DWORD PTR j$[rsp]
  010fb	83 c0 08	 add	 eax, 8
  010fe	8b c8		 mov	 ecx, eax
  01100	48 8d 05 00 00
	00 00		 lea	 rax, OFFSET FLAT:k512
  01107	48 8b 04 c8	 mov	 rax, QWORD PTR [rax+rcx*8]
  0110b	48 8b bc 24 98
	00 00 00	 mov	 rdi, QWORD PTR tv954[rsp]
  01113	48 03 f8	 add	 rdi, rax
  01116	48 8b 54 24 30	 mov	 rdx, QWORD PTR v$[rsp+32]
  0111b	48 c1 ea 0e	 shr	 rdx, 14
  0111f	48 8b 44 24 30	 mov	 rax, QWORD PTR v$[rsp+32]
  01124	48 c1 e0 32	 shl	 rax, 50			; 00000032H
  01128	48 0b d0	 or	 rdx, rax
  0112b	48 8b 44 24 30	 mov	 rax, QWORD PTR v$[rsp+32]
  01130	48 c1 e8 12	 shr	 rax, 18
  01134	48 8b 4c 24 30	 mov	 rcx, QWORD PTR v$[rsp+32]
  01139	48 c1 e1 2e	 shl	 rcx, 46			; 0000002eH
  0113d	48 0b c1	 or	 rax, rcx
  01140	48 33 d0	 xor	 rdx, rax
  01143	48 8b 4c 24 30	 mov	 rcx, QWORD PTR v$[rsp+32]
  01148	48 c1 e9 29	 shr	 rcx, 41			; 00000029H
  0114c	48 8b 44 24 30	 mov	 rax, QWORD PTR v$[rsp+32]
  01151	48 c1 e0 17	 shl	 rax, 23
  01155	48 0b c8	 or	 rcx, rax
  01158	48 8b c2	 mov	 rax, rdx
  0115b	48 33 c1	 xor	 rax, rcx
  0115e	48 8b d7	 mov	 rdx, rdi
  01161	48 03 d0	 add	 rdx, rax
  01164	48 8b 4c 24 40	 mov	 rcx, QWORD PTR v$[rsp+48]
  01169	48 8b 44 24 38	 mov	 rax, QWORD PTR v$[rsp+40]
  0116e	48 33 c1	 xor	 rax, rcx
  01171	48 8b 4c 24 30	 mov	 rcx, QWORD PTR v$[rsp+32]
  01176	48 23 c8	 and	 rcx, rax
  01179	48 8b 44 24 40	 mov	 rax, QWORD PTR v$[rsp+48]
  0117e	48 33 c1	 xor	 rax, rcx
  01181	48 03 44 24 48	 add	 rax, QWORD PTR v$[rsp+56]
  01186	48 03 c2	 add	 rax, rdx
  01189	48 89 44 24 48	 mov	 QWORD PTR v$[rsp+56], rax
  0118e	48 8b 4c 24 48	 mov	 rcx, QWORD PTR v$[rsp+56]
  01193	48 8b 44 24 28	 mov	 rax, QWORD PTR v$[rsp+24]
  01198	48 03 c1	 add	 rax, rcx
  0119b	48 89 44 24 28	 mov	 QWORD PTR v$[rsp+24], rax
  011a0	48 8b 7c 24 10	 mov	 rdi, QWORD PTR v$[rsp]
  011a5	48 c1 ef 1c	 shr	 rdi, 28
  011a9	48 8b 44 24 10	 mov	 rax, QWORD PTR v$[rsp]
  011ae	48 c1 e0 24	 shl	 rax, 36			; 00000024H
  011b2	48 0b f8	 or	 rdi, rax
  011b5	48 8b 44 24 10	 mov	 rax, QWORD PTR v$[rsp]
  011ba	48 c1 e8 22	 shr	 rax, 34			; 00000022H
  011be	48 8b 4c 24 10	 mov	 rcx, QWORD PTR v$[rsp]
  011c3	48 c1 e1 1e	 shl	 rcx, 30
  011c7	48 0b c1	 or	 rax, rcx
  011ca	48 33 f8	 xor	 rdi, rax
  011cd	48 8b 44 24 10	 mov	 rax, QWORD PTR v$[rsp]
  011d2	48 c1 e8 27	 shr	 rax, 39			; 00000027H
  011d6	48 8b 4c 24 10	 mov	 rcx, QWORD PTR v$[rsp]
  011db	48 c1 e1 19	 shl	 rcx, 25
  011df	48 0b c1	 or	 rax, rcx
  011e2	48 33 f8	 xor	 rdi, rax
  011e5	48 8b 44 24 18	 mov	 rax, QWORD PTR v$[rsp+8]
  011ea	48 8b 54 24 10	 mov	 rdx, QWORD PTR v$[rsp]
  011ef	48 23 d0	 and	 rdx, rax
  011f2	48 8b 4c 24 18	 mov	 rcx, QWORD PTR v$[rsp+8]
  011f7	48 8b 44 24 10	 mov	 rax, QWORD PTR v$[rsp]
  011fc	48 33 c1	 xor	 rax, rcx
  011ff	48 8b 4c 24 20	 mov	 rcx, QWORD PTR v$[rsp+16]
  01204	48 23 c8	 and	 rcx, rax
  01207	48 8b c2	 mov	 rax, rdx
  0120a	48 0b c1	 or	 rax, rcx
  0120d	48 03 44 24 48	 add	 rax, QWORD PTR v$[rsp+56]
  01212	48 03 c7	 add	 rax, rdi
  01215	48 89 44 24 48	 mov	 QWORD PTR v$[rsp+56], rax
  0121a	83 7c 24 50 00	 cmp	 DWORD PTR j$[rsp], 0
  0121f	0f 84 c2 00 00
	00		 je	 $LN24@sha512_com
  01225	48 8b 3c 24	 mov	 rdi, QWORD PTR p$[rsp]
  01229	48 8b 7f 38	 mov	 rdi, QWORD PTR [rdi+56]
  0122d	48 c1 ef 13	 shr	 rdi, 19
  01231	48 8b 04 24	 mov	 rax, QWORD PTR p$[rsp]
  01235	48 8b 40 38	 mov	 rax, QWORD PTR [rax+56]
  01239	48 c1 e0 2d	 shl	 rax, 45			; 0000002dH
  0123d	48 0b f8	 or	 rdi, rax
  01240	48 8b 04 24	 mov	 rax, QWORD PTR p$[rsp]
  01244	48 8b 40 38	 mov	 rax, QWORD PTR [rax+56]
  01248	48 c1 e8 3d	 shr	 rax, 61			; 0000003dH
  0124c	48 8b 0c 24	 mov	 rcx, QWORD PTR p$[rsp]
  01250	48 8b 49 38	 mov	 rcx, QWORD PTR [rcx+56]
  01254	48 c1 e1 03	 shl	 rcx, 3
  01258	48 0b c1	 or	 rax, rcx
  0125b	48 33 f8	 xor	 rdi, rax
  0125e	48 8b 04 24	 mov	 rax, QWORD PTR p$[rsp]
  01262	48 8b 40 38	 mov	 rax, QWORD PTR [rax+56]
  01266	48 c1 e8 06	 shr	 rax, 6
  0126a	48 33 f8	 xor	 rdi, rax
  0126d	48 8b 04 24	 mov	 rax, QWORD PTR p$[rsp]
  01271	48 03 78 10	 add	 rdi, QWORD PTR [rax+16]
  01275	48 8b 14 24	 mov	 rdx, QWORD PTR p$[rsp]
  01279	48 8b 52 50	 mov	 rdx, QWORD PTR [rdx+80]
  0127d	48 d1 ea	 shr	 rdx, 1
  01280	48 8b 04 24	 mov	 rax, QWORD PTR p$[rsp]
  01284	48 8b 40 50	 mov	 rax, QWORD PTR [rax+80]
  01288	48 c1 e0 3f	 shl	 rax, 63			; 0000003fH
  0128c	48 0b d0	 or	 rdx, rax
  0128f	48 8b 0c 24	 mov	 rcx, QWORD PTR p$[rsp]
  01293	48 8b 49 50	 mov	 rcx, QWORD PTR [rcx+80]
  01297	48 c1 e9 08	 shr	 rcx, 8
  0129b	48 8b 04 24	 mov	 rax, QWORD PTR p$[rsp]
  0129f	48 8b 40 50	 mov	 rax, QWORD PTR [rax+80]
  012a3	48 c1 e0 38	 shl	 rax, 56			; 00000038H
  012a7	48 0b c8	 or	 rcx, rax
  012aa	48 8b c2	 mov	 rax, rdx
  012ad	48 33 c1	 xor	 rax, rcx
  012b0	48 8b 0c 24	 mov	 rcx, QWORD PTR p$[rsp]
  012b4	48 8b 49 50	 mov	 rcx, QWORD PTR [rcx+80]
  012b8	48 c1 e9 07	 shr	 rcx, 7
  012bc	48 33 c1	 xor	 rax, rcx
  012bf	48 8b cf	 mov	 rcx, rdi
  012c2	48 03 c8	 add	 rcx, rax
  012c5	48 8b 04 24	 mov	 rax, QWORD PTR p$[rsp]
  012c9	48 03 48 48	 add	 rcx, QWORD PTR [rax+72]
  012cd	48 8b 04 24	 mov	 rax, QWORD PTR p$[rsp]
  012d1	48 89 48 48	 mov	 QWORD PTR [rax+72], rcx
  012d5	48 8b 04 24	 mov	 rax, QWORD PTR p$[rsp]
  012d9	48 8b 40 48	 mov	 rax, QWORD PTR [rax+72]
  012dd	48 89 84 24 a0
	00 00 00	 mov	 QWORD PTR tv1052[rsp], rax
  012e5	eb 10		 jmp	 SHORT $LN25@sha512_com
$LN24@sha512_com:
  012e7	48 8b 04 24	 mov	 rax, QWORD PTR p$[rsp]
  012eb	48 8b 40 48	 mov	 rax, QWORD PTR [rax+72]
  012ef	48 89 84 24 a0
	00 00 00	 mov	 QWORD PTR tv1052[rsp], rax
$LN25@sha512_com:
  012f7	8b 44 24 50	 mov	 eax, DWORD PTR j$[rsp]
  012fb	83 c0 09	 add	 eax, 9
  012fe	8b c8		 mov	 ecx, eax
  01300	48 8d 05 00 00
	00 00		 lea	 rax, OFFSET FLAT:k512
  01307	48 8b 04 c8	 mov	 rax, QWORD PTR [rax+rcx*8]
  0130b	48 8b bc 24 a0
	00 00 00	 mov	 rdi, QWORD PTR tv1052[rsp]
  01313	48 03 f8	 add	 rdi, rax
  01316	48 8b 54 24 28	 mov	 rdx, QWORD PTR v$[rsp+24]
  0131b	48 c1 ea 0e	 shr	 rdx, 14
  0131f	48 8b 44 24 28	 mov	 rax, QWORD PTR v$[rsp+24]
  01324	48 c1 e0 32	 shl	 rax, 50			; 00000032H
  01328	48 0b d0	 or	 rdx, rax
  0132b	48 8b 44 24 28	 mov	 rax, QWORD PTR v$[rsp+24]
  01330	48 c1 e8 12	 shr	 rax, 18
  01334	48 8b 4c 24 28	 mov	 rcx, QWORD PTR v$[rsp+24]
  01339	48 c1 e1 2e	 shl	 rcx, 46			; 0000002eH
  0133d	48 0b c1	 or	 rax, rcx
  01340	48 33 d0	 xor	 rdx, rax
  01343	48 8b 4c 24 28	 mov	 rcx, QWORD PTR v$[rsp+24]
  01348	48 c1 e9 29	 shr	 rcx, 41			; 00000029H
  0134c	48 8b 44 24 28	 mov	 rax, QWORD PTR v$[rsp+24]
  01351	48 c1 e0 17	 shl	 rax, 23
  01355	48 0b c8	 or	 rcx, rax
  01358	48 8b c2	 mov	 rax, rdx
  0135b	48 33 c1	 xor	 rax, rcx
  0135e	48 8b d7	 mov	 rdx, rdi
  01361	48 03 d0	 add	 rdx, rax
  01364	48 8b 4c 24 38	 mov	 rcx, QWORD PTR v$[rsp+40]
  01369	48 8b 44 24 30	 mov	 rax, QWORD PTR v$[rsp+32]
  0136e	48 33 c1	 xor	 rax, rcx
  01371	48 8b 4c 24 28	 mov	 rcx, QWORD PTR v$[rsp+24]
  01376	48 23 c8	 and	 rcx, rax
  01379	48 8b 44 24 38	 mov	 rax, QWORD PTR v$[rsp+40]
  0137e	48 33 c1	 xor	 rax, rcx
  01381	48 03 44 24 40	 add	 rax, QWORD PTR v$[rsp+48]
  01386	48 03 c2	 add	 rax, rdx
  01389	48 89 44 24 40	 mov	 QWORD PTR v$[rsp+48], rax
  0138e	48 8b 4c 24 40	 mov	 rcx, QWORD PTR v$[rsp+48]
  01393	48 8b 44 24 20	 mov	 rax, QWORD PTR v$[rsp+16]
  01398	48 03 c1	 add	 rax, rcx
  0139b	48 89 44 24 20	 mov	 QWORD PTR v$[rsp+16], rax
  013a0	48 8b 7c 24 48	 mov	 rdi, QWORD PTR v$[rsp+56]
  013a5	48 c1 ef 1c	 shr	 rdi, 28
  013a9	48 8b 44 24 48	 mov	 rax, QWORD PTR v$[rsp+56]
  013ae	48 c1 e0 24	 shl	 rax, 36			; 00000024H
  013b2	48 0b f8	 or	 rdi, rax
  013b5	48 8b 44 24 48	 mov	 rax, QWORD PTR v$[rsp+56]
  013ba	48 c1 e8 22	 shr	 rax, 34			; 00000022H
  013be	48 8b 4c 24 48	 mov	 rcx, QWORD PTR v$[rsp+56]
  013c3	48 c1 e1 1e	 shl	 rcx, 30
  013c7	48 0b c1	 or	 rax, rcx
  013ca	48 33 f8	 xor	 rdi, rax
  013cd	48 8b 44 24 48	 mov	 rax, QWORD PTR v$[rsp+56]
  013d2	48 c1 e8 27	 shr	 rax, 39			; 00000027H
  013d6	48 8b 4c 24 48	 mov	 rcx, QWORD PTR v$[rsp+56]
  013db	48 c1 e1 19	 shl	 rcx, 25
  013df	48 0b c1	 or	 rax, rcx
  013e2	48 33 f8	 xor	 rdi, rax
  013e5	48 8b 44 24 10	 mov	 rax, QWORD PTR v$[rsp]
  013ea	48 8b 54 24 48	 mov	 rdx, QWORD PTR v$[rsp+56]
  013ef	48 23 d0	 and	 rdx, rax
  013f2	48 8b 4c 24 10	 mov	 rcx, QWORD PTR v$[rsp]
  013f7	48 8b 44 24 48	 mov	 rax, QWORD PTR v$[rsp+56]
  013fc	48 33 c1	 xor	 rax, rcx
  013ff	48 8b 4c 24 18	 mov	 rcx, QWORD PTR v$[rsp+8]
  01404	48 23 c8	 and	 rcx, rax
  01407	48 8b c2	 mov	 rax, rdx
  0140a	48 0b c1	 or	 rax, rcx
  0140d	48 03 44 24 40	 add	 rax, QWORD PTR v$[rsp+48]
  01412	48 03 c7	 add	 rax, rdi
  01415	48 89 44 24 40	 mov	 QWORD PTR v$[rsp+48], rax

; 524  :         v_cycle(10, j); v_cycle(11, j);

  0141a	83 7c 24 50 00	 cmp	 DWORD PTR j$[rsp], 0
  0141f	0f 84 c2 00 00
	00		 je	 $LN26@sha512_com
  01425	48 8b 3c 24	 mov	 rdi, QWORD PTR p$[rsp]
  01429	48 8b 7f 40	 mov	 rdi, QWORD PTR [rdi+64]
  0142d	48 c1 ef 13	 shr	 rdi, 19
  01431	48 8b 04 24	 mov	 rax, QWORD PTR p$[rsp]
  01435	48 8b 40 40	 mov	 rax, QWORD PTR [rax+64]
  01439	48 c1 e0 2d	 shl	 rax, 45			; 0000002dH
  0143d	48 0b f8	 or	 rdi, rax
  01440	48 8b 04 24	 mov	 rax, QWORD PTR p$[rsp]
  01444	48 8b 40 40	 mov	 rax, QWORD PTR [rax+64]
  01448	48 c1 e8 3d	 shr	 rax, 61			; 0000003dH
  0144c	48 8b 0c 24	 mov	 rcx, QWORD PTR p$[rsp]
  01450	48 8b 49 40	 mov	 rcx, QWORD PTR [rcx+64]
  01454	48 c1 e1 03	 shl	 rcx, 3
  01458	48 0b c1	 or	 rax, rcx
  0145b	48 33 f8	 xor	 rdi, rax
  0145e	48 8b 04 24	 mov	 rax, QWORD PTR p$[rsp]
  01462	48 8b 40 40	 mov	 rax, QWORD PTR [rax+64]
  01466	48 c1 e8 06	 shr	 rax, 6
  0146a	48 33 f8	 xor	 rdi, rax
  0146d	48 8b 04 24	 mov	 rax, QWORD PTR p$[rsp]
  01471	48 03 78 18	 add	 rdi, QWORD PTR [rax+24]
  01475	48 8b 14 24	 mov	 rdx, QWORD PTR p$[rsp]
  01479	48 8b 52 58	 mov	 rdx, QWORD PTR [rdx+88]
  0147d	48 d1 ea	 shr	 rdx, 1
  01480	48 8b 04 24	 mov	 rax, QWORD PTR p$[rsp]
  01484	48 8b 40 58	 mov	 rax, QWORD PTR [rax+88]
  01488	48 c1 e0 3f	 shl	 rax, 63			; 0000003fH
  0148c	48 0b d0	 or	 rdx, rax
  0148f	48 8b 0c 24	 mov	 rcx, QWORD PTR p$[rsp]
  01493	48 8b 49 58	 mov	 rcx, QWORD PTR [rcx+88]
  01497	48 c1 e9 08	 shr	 rcx, 8
  0149b	48 8b 04 24	 mov	 rax, QWORD PTR p$[rsp]
  0149f	48 8b 40 58	 mov	 rax, QWORD PTR [rax+88]
  014a3	48 c1 e0 38	 shl	 rax, 56			; 00000038H
  014a7	48 0b c8	 or	 rcx, rax
  014aa	48 8b c2	 mov	 rax, rdx
  014ad	48 33 c1	 xor	 rax, rcx
  014b0	48 8b 0c 24	 mov	 rcx, QWORD PTR p$[rsp]
  014b4	48 8b 49 58	 mov	 rcx, QWORD PTR [rcx+88]
  014b8	48 c1 e9 07	 shr	 rcx, 7
  014bc	48 33 c1	 xor	 rax, rcx
  014bf	48 8b cf	 mov	 rcx, rdi
  014c2	48 03 c8	 add	 rcx, rax
  014c5	48 8b 04 24	 mov	 rax, QWORD PTR p$[rsp]
  014c9	48 03 48 50	 add	 rcx, QWORD PTR [rax+80]
  014cd	48 8b 04 24	 mov	 rax, QWORD PTR p$[rsp]
  014d1	48 89 48 50	 mov	 QWORD PTR [rax+80], rcx
  014d5	48 8b 04 24	 mov	 rax, QWORD PTR p$[rsp]
  014d9	48 8b 40 50	 mov	 rax, QWORD PTR [rax+80]
  014dd	48 89 84 24 a8
	00 00 00	 mov	 QWORD PTR tv1156[rsp], rax
  014e5	eb 10		 jmp	 SHORT $LN27@sha512_com
$LN26@sha512_com:
  014e7	48 8b 04 24	 mov	 rax, QWORD PTR p$[rsp]
  014eb	48 8b 40 50	 mov	 rax, QWORD PTR [rax+80]
  014ef	48 89 84 24 a8
	00 00 00	 mov	 QWORD PTR tv1156[rsp], rax
$LN27@sha512_com:
  014f7	8b 44 24 50	 mov	 eax, DWORD PTR j$[rsp]
  014fb	83 c0 0a	 add	 eax, 10
  014fe	8b c8		 mov	 ecx, eax
  01500	48 8d 05 00 00
	00 00		 lea	 rax, OFFSET FLAT:k512
  01507	48 8b 04 c8	 mov	 rax, QWORD PTR [rax+rcx*8]
  0150b	48 8b bc 24 a8
	00 00 00	 mov	 rdi, QWORD PTR tv1156[rsp]
  01513	48 03 f8	 add	 rdi, rax
  01516	48 8b 54 24 20	 mov	 rdx, QWORD PTR v$[rsp+16]
  0151b	48 c1 ea 0e	 shr	 rdx, 14
  0151f	48 8b 44 24 20	 mov	 rax, QWORD PTR v$[rsp+16]
  01524	48 c1 e0 32	 shl	 rax, 50			; 00000032H
  01528	48 0b d0	 or	 rdx, rax
  0152b	48 8b 44 24 20	 mov	 rax, QWORD PTR v$[rsp+16]
  01530	48 c1 e8 12	 shr	 rax, 18
  01534	48 8b 4c 24 20	 mov	 rcx, QWORD PTR v$[rsp+16]
  01539	48 c1 e1 2e	 shl	 rcx, 46			; 0000002eH
  0153d	48 0b c1	 or	 rax, rcx
  01540	48 33 d0	 xor	 rdx, rax
  01543	48 8b 4c 24 20	 mov	 rcx, QWORD PTR v$[rsp+16]
  01548	48 c1 e9 29	 shr	 rcx, 41			; 00000029H
  0154c	48 8b 44 24 20	 mov	 rax, QWORD PTR v$[rsp+16]
  01551	48 c1 e0 17	 shl	 rax, 23
  01555	48 0b c8	 or	 rcx, rax
  01558	48 8b c2	 mov	 rax, rdx
  0155b	48 33 c1	 xor	 rax, rcx
  0155e	48 8b d7	 mov	 rdx, rdi
  01561	48 03 d0	 add	 rdx, rax
  01564	48 8b 4c 24 30	 mov	 rcx, QWORD PTR v$[rsp+32]
  01569	48 8b 44 24 28	 mov	 rax, QWORD PTR v$[rsp+24]
  0156e	48 33 c1	 xor	 rax, rcx
  01571	48 8b 4c 24 20	 mov	 rcx, QWORD PTR v$[rsp+16]
  01576	48 23 c8	 and	 rcx, rax
  01579	48 8b 44 24 30	 mov	 rax, QWORD PTR v$[rsp+32]
  0157e	48 33 c1	 xor	 rax, rcx
  01581	48 03 44 24 38	 add	 rax, QWORD PTR v$[rsp+40]
  01586	48 03 c2	 add	 rax, rdx
  01589	48 89 44 24 38	 mov	 QWORD PTR v$[rsp+40], rax
  0158e	48 8b 4c 24 38	 mov	 rcx, QWORD PTR v$[rsp+40]
  01593	48 8b 44 24 18	 mov	 rax, QWORD PTR v$[rsp+8]
  01598	48 03 c1	 add	 rax, rcx
  0159b	48 89 44 24 18	 mov	 QWORD PTR v$[rsp+8], rax
  015a0	48 8b 7c 24 40	 mov	 rdi, QWORD PTR v$[rsp+48]
  015a5	48 c1 ef 1c	 shr	 rdi, 28
  015a9	48 8b 44 24 40	 mov	 rax, QWORD PTR v$[rsp+48]
  015ae	48 c1 e0 24	 shl	 rax, 36			; 00000024H
  015b2	48 0b f8	 or	 rdi, rax
  015b5	48 8b 44 24 40	 mov	 rax, QWORD PTR v$[rsp+48]
  015ba	48 c1 e8 22	 shr	 rax, 34			; 00000022H
  015be	48 8b 4c 24 40	 mov	 rcx, QWORD PTR v$[rsp+48]
  015c3	48 c1 e1 1e	 shl	 rcx, 30
  015c7	48 0b c1	 or	 rax, rcx
  015ca	48 33 f8	 xor	 rdi, rax
  015cd	48 8b 44 24 40	 mov	 rax, QWORD PTR v$[rsp+48]
  015d2	48 c1 e8 27	 shr	 rax, 39			; 00000027H
  015d6	48 8b 4c 24 40	 mov	 rcx, QWORD PTR v$[rsp+48]
  015db	48 c1 e1 19	 shl	 rcx, 25
  015df	48 0b c1	 or	 rax, rcx
  015e2	48 33 f8	 xor	 rdi, rax
  015e5	48 8b 44 24 48	 mov	 rax, QWORD PTR v$[rsp+56]
  015ea	48 8b 54 24 40	 mov	 rdx, QWORD PTR v$[rsp+48]
  015ef	48 23 d0	 and	 rdx, rax
  015f2	48 8b 4c 24 48	 mov	 rcx, QWORD PTR v$[rsp+56]
  015f7	48 8b 44 24 40	 mov	 rax, QWORD PTR v$[rsp+48]
  015fc	48 33 c1	 xor	 rax, rcx
  015ff	48 8b 4c 24 10	 mov	 rcx, QWORD PTR v$[rsp]
  01604	48 23 c8	 and	 rcx, rax
  01607	48 8b c2	 mov	 rax, rdx
  0160a	48 0b c1	 or	 rax, rcx
  0160d	48 03 44 24 38	 add	 rax, QWORD PTR v$[rsp+40]
  01612	48 03 c7	 add	 rax, rdi
  01615	48 89 44 24 38	 mov	 QWORD PTR v$[rsp+40], rax
  0161a	83 7c 24 50 00	 cmp	 DWORD PTR j$[rsp], 0
  0161f	0f 84 c2 00 00
	00		 je	 $LN28@sha512_com
  01625	48 8b 3c 24	 mov	 rdi, QWORD PTR p$[rsp]
  01629	48 8b 7f 48	 mov	 rdi, QWORD PTR [rdi+72]
  0162d	48 c1 ef 13	 shr	 rdi, 19
  01631	48 8b 04 24	 mov	 rax, QWORD PTR p$[rsp]
  01635	48 8b 40 48	 mov	 rax, QWORD PTR [rax+72]
  01639	48 c1 e0 2d	 shl	 rax, 45			; 0000002dH
  0163d	48 0b f8	 or	 rdi, rax
  01640	48 8b 04 24	 mov	 rax, QWORD PTR p$[rsp]
  01644	48 8b 40 48	 mov	 rax, QWORD PTR [rax+72]
  01648	48 c1 e8 3d	 shr	 rax, 61			; 0000003dH
  0164c	48 8b 0c 24	 mov	 rcx, QWORD PTR p$[rsp]
  01650	48 8b 49 48	 mov	 rcx, QWORD PTR [rcx+72]
  01654	48 c1 e1 03	 shl	 rcx, 3
  01658	48 0b c1	 or	 rax, rcx
  0165b	48 33 f8	 xor	 rdi, rax
  0165e	48 8b 04 24	 mov	 rax, QWORD PTR p$[rsp]
  01662	48 8b 40 48	 mov	 rax, QWORD PTR [rax+72]
  01666	48 c1 e8 06	 shr	 rax, 6
  0166a	48 33 f8	 xor	 rdi, rax
  0166d	48 8b 04 24	 mov	 rax, QWORD PTR p$[rsp]
  01671	48 03 78 20	 add	 rdi, QWORD PTR [rax+32]
  01675	48 8b 14 24	 mov	 rdx, QWORD PTR p$[rsp]
  01679	48 8b 52 60	 mov	 rdx, QWORD PTR [rdx+96]
  0167d	48 d1 ea	 shr	 rdx, 1
  01680	48 8b 04 24	 mov	 rax, QWORD PTR p$[rsp]
  01684	48 8b 40 60	 mov	 rax, QWORD PTR [rax+96]
  01688	48 c1 e0 3f	 shl	 rax, 63			; 0000003fH
  0168c	48 0b d0	 or	 rdx, rax
  0168f	48 8b 0c 24	 mov	 rcx, QWORD PTR p$[rsp]
  01693	48 8b 49 60	 mov	 rcx, QWORD PTR [rcx+96]
  01697	48 c1 e9 08	 shr	 rcx, 8
  0169b	48 8b 04 24	 mov	 rax, QWORD PTR p$[rsp]
  0169f	48 8b 40 60	 mov	 rax, QWORD PTR [rax+96]
  016a3	48 c1 e0 38	 shl	 rax, 56			; 00000038H
  016a7	48 0b c8	 or	 rcx, rax
  016aa	48 8b c2	 mov	 rax, rdx
  016ad	48 33 c1	 xor	 rax, rcx
  016b0	48 8b 0c 24	 mov	 rcx, QWORD PTR p$[rsp]
  016b4	48 8b 49 60	 mov	 rcx, QWORD PTR [rcx+96]
  016b8	48 c1 e9 07	 shr	 rcx, 7
  016bc	48 33 c1	 xor	 rax, rcx
  016bf	48 8b cf	 mov	 rcx, rdi
  016c2	48 03 c8	 add	 rcx, rax
  016c5	48 8b 04 24	 mov	 rax, QWORD PTR p$[rsp]
  016c9	48 03 48 58	 add	 rcx, QWORD PTR [rax+88]
  016cd	48 8b 04 24	 mov	 rax, QWORD PTR p$[rsp]
  016d1	48 89 48 58	 mov	 QWORD PTR [rax+88], rcx
  016d5	48 8b 04 24	 mov	 rax, QWORD PTR p$[rsp]
  016d9	48 8b 40 58	 mov	 rax, QWORD PTR [rax+88]
  016dd	48 89 84 24 b0
	00 00 00	 mov	 QWORD PTR tv1261[rsp], rax
  016e5	eb 10		 jmp	 SHORT $LN29@sha512_com
$LN28@sha512_com:
  016e7	48 8b 04 24	 mov	 rax, QWORD PTR p$[rsp]
  016eb	48 8b 40 58	 mov	 rax, QWORD PTR [rax+88]
  016ef	48 89 84 24 b0
	00 00 00	 mov	 QWORD PTR tv1261[rsp], rax
$LN29@sha512_com:
  016f7	8b 44 24 50	 mov	 eax, DWORD PTR j$[rsp]
  016fb	83 c0 0b	 add	 eax, 11
  016fe	8b c8		 mov	 ecx, eax
  01700	48 8d 05 00 00
	00 00		 lea	 rax, OFFSET FLAT:k512
  01707	48 8b 04 c8	 mov	 rax, QWORD PTR [rax+rcx*8]
  0170b	48 8b bc 24 b0
	00 00 00	 mov	 rdi, QWORD PTR tv1261[rsp]
  01713	48 03 f8	 add	 rdi, rax
  01716	48 8b 54 24 18	 mov	 rdx, QWORD PTR v$[rsp+8]
  0171b	48 c1 ea 0e	 shr	 rdx, 14
  0171f	48 8b 44 24 18	 mov	 rax, QWORD PTR v$[rsp+8]
  01724	48 c1 e0 32	 shl	 rax, 50			; 00000032H
  01728	48 0b d0	 or	 rdx, rax
  0172b	48 8b 44 24 18	 mov	 rax, QWORD PTR v$[rsp+8]
  01730	48 c1 e8 12	 shr	 rax, 18
  01734	48 8b 4c 24 18	 mov	 rcx, QWORD PTR v$[rsp+8]
  01739	48 c1 e1 2e	 shl	 rcx, 46			; 0000002eH
  0173d	48 0b c1	 or	 rax, rcx
  01740	48 33 d0	 xor	 rdx, rax
  01743	48 8b 4c 24 18	 mov	 rcx, QWORD PTR v$[rsp+8]
  01748	48 c1 e9 29	 shr	 rcx, 41			; 00000029H
  0174c	48 8b 44 24 18	 mov	 rax, QWORD PTR v$[rsp+8]
  01751	48 c1 e0 17	 shl	 rax, 23
  01755	48 0b c8	 or	 rcx, rax
  01758	48 8b c2	 mov	 rax, rdx
  0175b	48 33 c1	 xor	 rax, rcx
  0175e	48 8b d7	 mov	 rdx, rdi
  01761	48 03 d0	 add	 rdx, rax
  01764	48 8b 4c 24 28	 mov	 rcx, QWORD PTR v$[rsp+24]
  01769	48 8b 44 24 20	 mov	 rax, QWORD PTR v$[rsp+16]
  0176e	48 33 c1	 xor	 rax, rcx
  01771	48 8b 4c 24 18	 mov	 rcx, QWORD PTR v$[rsp+8]
  01776	48 23 c8	 and	 rcx, rax
  01779	48 8b 44 24 28	 mov	 rax, QWORD PTR v$[rsp+24]
  0177e	48 33 c1	 xor	 rax, rcx
  01781	48 03 44 24 30	 add	 rax, QWORD PTR v$[rsp+32]
  01786	48 03 c2	 add	 rax, rdx
  01789	48 89 44 24 30	 mov	 QWORD PTR v$[rsp+32], rax
  0178e	48 8b 4c 24 30	 mov	 rcx, QWORD PTR v$[rsp+32]
  01793	48 8b 44 24 10	 mov	 rax, QWORD PTR v$[rsp]
  01798	48 03 c1	 add	 rax, rcx
  0179b	48 89 44 24 10	 mov	 QWORD PTR v$[rsp], rax
  017a0	48 8b 7c 24 38	 mov	 rdi, QWORD PTR v$[rsp+40]
  017a5	48 c1 ef 1c	 shr	 rdi, 28
  017a9	48 8b 44 24 38	 mov	 rax, QWORD PTR v$[rsp+40]
  017ae	48 c1 e0 24	 shl	 rax, 36			; 00000024H
  017b2	48 0b f8	 or	 rdi, rax
  017b5	48 8b 44 24 38	 mov	 rax, QWORD PTR v$[rsp+40]
  017ba	48 c1 e8 22	 shr	 rax, 34			; 00000022H
  017be	48 8b 4c 24 38	 mov	 rcx, QWORD PTR v$[rsp+40]
  017c3	48 c1 e1 1e	 shl	 rcx, 30
  017c7	48 0b c1	 or	 rax, rcx
  017ca	48 33 f8	 xor	 rdi, rax
  017cd	48 8b 44 24 38	 mov	 rax, QWORD PTR v$[rsp+40]
  017d2	48 c1 e8 27	 shr	 rax, 39			; 00000027H
  017d6	48 8b 4c 24 38	 mov	 rcx, QWORD PTR v$[rsp+40]
  017db	48 c1 e1 19	 shl	 rcx, 25
  017df	48 0b c1	 or	 rax, rcx
  017e2	48 33 f8	 xor	 rdi, rax
  017e5	48 8b 44 24 40	 mov	 rax, QWORD PTR v$[rsp+48]
  017ea	48 8b 54 24 38	 mov	 rdx, QWORD PTR v$[rsp+40]
  017ef	48 23 d0	 and	 rdx, rax
  017f2	48 8b 4c 24 40	 mov	 rcx, QWORD PTR v$[rsp+48]
  017f7	48 8b 44 24 38	 mov	 rax, QWORD PTR v$[rsp+40]
  017fc	48 33 c1	 xor	 rax, rcx
  017ff	48 8b 4c 24 48	 mov	 rcx, QWORD PTR v$[rsp+56]
  01804	48 23 c8	 and	 rcx, rax
  01807	48 8b c2	 mov	 rax, rdx
  0180a	48 0b c1	 or	 rax, rcx
  0180d	48 03 44 24 30	 add	 rax, QWORD PTR v$[rsp+32]
  01812	48 03 c7	 add	 rax, rdi
  01815	48 89 44 24 30	 mov	 QWORD PTR v$[rsp+32], rax

; 525  :         v_cycle(12, j); v_cycle(13, j);

  0181a	83 7c 24 50 00	 cmp	 DWORD PTR j$[rsp], 0
  0181f	0f 84 c2 00 00
	00		 je	 $LN30@sha512_com
  01825	48 8b 3c 24	 mov	 rdi, QWORD PTR p$[rsp]
  01829	48 8b 7f 50	 mov	 rdi, QWORD PTR [rdi+80]
  0182d	48 c1 ef 13	 shr	 rdi, 19
  01831	48 8b 04 24	 mov	 rax, QWORD PTR p$[rsp]
  01835	48 8b 40 50	 mov	 rax, QWORD PTR [rax+80]
  01839	48 c1 e0 2d	 shl	 rax, 45			; 0000002dH
  0183d	48 0b f8	 or	 rdi, rax
  01840	48 8b 04 24	 mov	 rax, QWORD PTR p$[rsp]
  01844	48 8b 40 50	 mov	 rax, QWORD PTR [rax+80]
  01848	48 c1 e8 3d	 shr	 rax, 61			; 0000003dH
  0184c	48 8b 0c 24	 mov	 rcx, QWORD PTR p$[rsp]
  01850	48 8b 49 50	 mov	 rcx, QWORD PTR [rcx+80]
  01854	48 c1 e1 03	 shl	 rcx, 3
  01858	48 0b c1	 or	 rax, rcx
  0185b	48 33 f8	 xor	 rdi, rax
  0185e	48 8b 04 24	 mov	 rax, QWORD PTR p$[rsp]
  01862	48 8b 40 50	 mov	 rax, QWORD PTR [rax+80]
  01866	48 c1 e8 06	 shr	 rax, 6
  0186a	48 33 f8	 xor	 rdi, rax
  0186d	48 8b 04 24	 mov	 rax, QWORD PTR p$[rsp]
  01871	48 03 78 28	 add	 rdi, QWORD PTR [rax+40]
  01875	48 8b 14 24	 mov	 rdx, QWORD PTR p$[rsp]
  01879	48 8b 52 68	 mov	 rdx, QWORD PTR [rdx+104]
  0187d	48 d1 ea	 shr	 rdx, 1
  01880	48 8b 04 24	 mov	 rax, QWORD PTR p$[rsp]
  01884	48 8b 40 68	 mov	 rax, QWORD PTR [rax+104]
  01888	48 c1 e0 3f	 shl	 rax, 63			; 0000003fH
  0188c	48 0b d0	 or	 rdx, rax
  0188f	48 8b 0c 24	 mov	 rcx, QWORD PTR p$[rsp]
  01893	48 8b 49 68	 mov	 rcx, QWORD PTR [rcx+104]
  01897	48 c1 e9 08	 shr	 rcx, 8
  0189b	48 8b 04 24	 mov	 rax, QWORD PTR p$[rsp]
  0189f	48 8b 40 68	 mov	 rax, QWORD PTR [rax+104]
  018a3	48 c1 e0 38	 shl	 rax, 56			; 00000038H
  018a7	48 0b c8	 or	 rcx, rax
  018aa	48 8b c2	 mov	 rax, rdx
  018ad	48 33 c1	 xor	 rax, rcx
  018b0	48 8b 0c 24	 mov	 rcx, QWORD PTR p$[rsp]
  018b4	48 8b 49 68	 mov	 rcx, QWORD PTR [rcx+104]
  018b8	48 c1 e9 07	 shr	 rcx, 7
  018bc	48 33 c1	 xor	 rax, rcx
  018bf	48 8b cf	 mov	 rcx, rdi
  018c2	48 03 c8	 add	 rcx, rax
  018c5	48 8b 04 24	 mov	 rax, QWORD PTR p$[rsp]
  018c9	48 03 48 60	 add	 rcx, QWORD PTR [rax+96]
  018cd	48 8b 04 24	 mov	 rax, QWORD PTR p$[rsp]
  018d1	48 89 48 60	 mov	 QWORD PTR [rax+96], rcx
  018d5	48 8b 04 24	 mov	 rax, QWORD PTR p$[rsp]
  018d9	48 8b 40 60	 mov	 rax, QWORD PTR [rax+96]
  018dd	48 89 84 24 b8
	00 00 00	 mov	 QWORD PTR tv1365[rsp], rax
  018e5	eb 10		 jmp	 SHORT $LN31@sha512_com
$LN30@sha512_com:
  018e7	48 8b 04 24	 mov	 rax, QWORD PTR p$[rsp]
  018eb	48 8b 40 60	 mov	 rax, QWORD PTR [rax+96]
  018ef	48 89 84 24 b8
	00 00 00	 mov	 QWORD PTR tv1365[rsp], rax
$LN31@sha512_com:
  018f7	8b 44 24 50	 mov	 eax, DWORD PTR j$[rsp]
  018fb	83 c0 0c	 add	 eax, 12
  018fe	8b c8		 mov	 ecx, eax
  01900	48 8d 05 00 00
	00 00		 lea	 rax, OFFSET FLAT:k512
  01907	48 8b 04 c8	 mov	 rax, QWORD PTR [rax+rcx*8]
  0190b	48 8b bc 24 b8
	00 00 00	 mov	 rdi, QWORD PTR tv1365[rsp]
  01913	48 03 f8	 add	 rdi, rax
  01916	48 8b 54 24 10	 mov	 rdx, QWORD PTR v$[rsp]
  0191b	48 c1 ea 0e	 shr	 rdx, 14
  0191f	48 8b 44 24 10	 mov	 rax, QWORD PTR v$[rsp]
  01924	48 c1 e0 32	 shl	 rax, 50			; 00000032H
  01928	48 0b d0	 or	 rdx, rax
  0192b	48 8b 44 24 10	 mov	 rax, QWORD PTR v$[rsp]
  01930	48 c1 e8 12	 shr	 rax, 18
  01934	48 8b 4c 24 10	 mov	 rcx, QWORD PTR v$[rsp]
  01939	48 c1 e1 2e	 shl	 rcx, 46			; 0000002eH
  0193d	48 0b c1	 or	 rax, rcx
  01940	48 33 d0	 xor	 rdx, rax
  01943	48 8b 4c 24 10	 mov	 rcx, QWORD PTR v$[rsp]
  01948	48 c1 e9 29	 shr	 rcx, 41			; 00000029H
  0194c	48 8b 44 24 10	 mov	 rax, QWORD PTR v$[rsp]
  01951	48 c1 e0 17	 shl	 rax, 23
  01955	48 0b c8	 or	 rcx, rax
  01958	48 8b c2	 mov	 rax, rdx
  0195b	48 33 c1	 xor	 rax, rcx
  0195e	48 8b d7	 mov	 rdx, rdi
  01961	48 03 d0	 add	 rdx, rax
  01964	48 8b 4c 24 20	 mov	 rcx, QWORD PTR v$[rsp+16]
  01969	48 8b 44 24 18	 mov	 rax, QWORD PTR v$[rsp+8]
  0196e	48 33 c1	 xor	 rax, rcx
  01971	48 8b 4c 24 10	 mov	 rcx, QWORD PTR v$[rsp]
  01976	48 23 c8	 and	 rcx, rax
  01979	48 8b 44 24 20	 mov	 rax, QWORD PTR v$[rsp+16]
  0197e	48 33 c1	 xor	 rax, rcx
  01981	48 03 44 24 28	 add	 rax, QWORD PTR v$[rsp+24]
  01986	48 03 c2	 add	 rax, rdx
  01989	48 89 44 24 28	 mov	 QWORD PTR v$[rsp+24], rax
  0198e	48 8b 4c 24 28	 mov	 rcx, QWORD PTR v$[rsp+24]
  01993	48 8b 44 24 48	 mov	 rax, QWORD PTR v$[rsp+56]
  01998	48 03 c1	 add	 rax, rcx
  0199b	48 89 44 24 48	 mov	 QWORD PTR v$[rsp+56], rax
  019a0	48 8b 7c 24 30	 mov	 rdi, QWORD PTR v$[rsp+32]
  019a5	48 c1 ef 1c	 shr	 rdi, 28
  019a9	48 8b 44 24 30	 mov	 rax, QWORD PTR v$[rsp+32]
  019ae	48 c1 e0 24	 shl	 rax, 36			; 00000024H
  019b2	48 0b f8	 or	 rdi, rax
  019b5	48 8b 44 24 30	 mov	 rax, QWORD PTR v$[rsp+32]
  019ba	48 c1 e8 22	 shr	 rax, 34			; 00000022H
  019be	48 8b 4c 24 30	 mov	 rcx, QWORD PTR v$[rsp+32]
  019c3	48 c1 e1 1e	 shl	 rcx, 30
  019c7	48 0b c1	 or	 rax, rcx
  019ca	48 33 f8	 xor	 rdi, rax
  019cd	48 8b 44 24 30	 mov	 rax, QWORD PTR v$[rsp+32]
  019d2	48 c1 e8 27	 shr	 rax, 39			; 00000027H
  019d6	48 8b 4c 24 30	 mov	 rcx, QWORD PTR v$[rsp+32]
  019db	48 c1 e1 19	 shl	 rcx, 25
  019df	48 0b c1	 or	 rax, rcx
  019e2	48 33 f8	 xor	 rdi, rax
  019e5	48 8b 44 24 38	 mov	 rax, QWORD PTR v$[rsp+40]
  019ea	48 8b 54 24 30	 mov	 rdx, QWORD PTR v$[rsp+32]
  019ef	48 23 d0	 and	 rdx, rax
  019f2	48 8b 4c 24 38	 mov	 rcx, QWORD PTR v$[rsp+40]
  019f7	48 8b 44 24 30	 mov	 rax, QWORD PTR v$[rsp+32]
  019fc	48 33 c1	 xor	 rax, rcx
  019ff	48 8b 4c 24 40	 mov	 rcx, QWORD PTR v$[rsp+48]
  01a04	48 23 c8	 and	 rcx, rax
  01a07	48 8b c2	 mov	 rax, rdx
  01a0a	48 0b c1	 or	 rax, rcx
  01a0d	48 03 44 24 28	 add	 rax, QWORD PTR v$[rsp+24]
  01a12	48 03 c7	 add	 rax, rdi
  01a15	48 89 44 24 28	 mov	 QWORD PTR v$[rsp+24], rax
  01a1a	83 7c 24 50 00	 cmp	 DWORD PTR j$[rsp], 0
  01a1f	0f 84 c2 00 00
	00		 je	 $LN32@sha512_com
  01a25	48 8b 3c 24	 mov	 rdi, QWORD PTR p$[rsp]
  01a29	48 8b 7f 58	 mov	 rdi, QWORD PTR [rdi+88]
  01a2d	48 c1 ef 13	 shr	 rdi, 19
  01a31	48 8b 04 24	 mov	 rax, QWORD PTR p$[rsp]
  01a35	48 8b 40 58	 mov	 rax, QWORD PTR [rax+88]
  01a39	48 c1 e0 2d	 shl	 rax, 45			; 0000002dH
  01a3d	48 0b f8	 or	 rdi, rax
  01a40	48 8b 04 24	 mov	 rax, QWORD PTR p$[rsp]
  01a44	48 8b 40 58	 mov	 rax, QWORD PTR [rax+88]
  01a48	48 c1 e8 3d	 shr	 rax, 61			; 0000003dH
  01a4c	48 8b 0c 24	 mov	 rcx, QWORD PTR p$[rsp]
  01a50	48 8b 49 58	 mov	 rcx, QWORD PTR [rcx+88]
  01a54	48 c1 e1 03	 shl	 rcx, 3
  01a58	48 0b c1	 or	 rax, rcx
  01a5b	48 33 f8	 xor	 rdi, rax
  01a5e	48 8b 04 24	 mov	 rax, QWORD PTR p$[rsp]
  01a62	48 8b 40 58	 mov	 rax, QWORD PTR [rax+88]
  01a66	48 c1 e8 06	 shr	 rax, 6
  01a6a	48 33 f8	 xor	 rdi, rax
  01a6d	48 8b 04 24	 mov	 rax, QWORD PTR p$[rsp]
  01a71	48 03 78 30	 add	 rdi, QWORD PTR [rax+48]
  01a75	48 8b 14 24	 mov	 rdx, QWORD PTR p$[rsp]
  01a79	48 8b 52 70	 mov	 rdx, QWORD PTR [rdx+112]
  01a7d	48 d1 ea	 shr	 rdx, 1
  01a80	48 8b 04 24	 mov	 rax, QWORD PTR p$[rsp]
  01a84	48 8b 40 70	 mov	 rax, QWORD PTR [rax+112]
  01a88	48 c1 e0 3f	 shl	 rax, 63			; 0000003fH
  01a8c	48 0b d0	 or	 rdx, rax
  01a8f	48 8b 0c 24	 mov	 rcx, QWORD PTR p$[rsp]
  01a93	48 8b 49 70	 mov	 rcx, QWORD PTR [rcx+112]
  01a97	48 c1 e9 08	 shr	 rcx, 8
  01a9b	48 8b 04 24	 mov	 rax, QWORD PTR p$[rsp]
  01a9f	48 8b 40 70	 mov	 rax, QWORD PTR [rax+112]
  01aa3	48 c1 e0 38	 shl	 rax, 56			; 00000038H
  01aa7	48 0b c8	 or	 rcx, rax
  01aaa	48 8b c2	 mov	 rax, rdx
  01aad	48 33 c1	 xor	 rax, rcx
  01ab0	48 8b 0c 24	 mov	 rcx, QWORD PTR p$[rsp]
  01ab4	48 8b 49 70	 mov	 rcx, QWORD PTR [rcx+112]
  01ab8	48 c1 e9 07	 shr	 rcx, 7
  01abc	48 33 c1	 xor	 rax, rcx
  01abf	48 8b cf	 mov	 rcx, rdi
  01ac2	48 03 c8	 add	 rcx, rax
  01ac5	48 8b 04 24	 mov	 rax, QWORD PTR p$[rsp]
  01ac9	48 03 48 68	 add	 rcx, QWORD PTR [rax+104]
  01acd	48 8b 04 24	 mov	 rax, QWORD PTR p$[rsp]
  01ad1	48 89 48 68	 mov	 QWORD PTR [rax+104], rcx
  01ad5	48 8b 04 24	 mov	 rax, QWORD PTR p$[rsp]
  01ad9	48 8b 40 68	 mov	 rax, QWORD PTR [rax+104]
  01add	48 89 84 24 c0
	00 00 00	 mov	 QWORD PTR tv1464[rsp], rax
  01ae5	eb 10		 jmp	 SHORT $LN33@sha512_com
$LN32@sha512_com:
  01ae7	48 8b 04 24	 mov	 rax, QWORD PTR p$[rsp]
  01aeb	48 8b 40 68	 mov	 rax, QWORD PTR [rax+104]
  01aef	48 89 84 24 c0
	00 00 00	 mov	 QWORD PTR tv1464[rsp], rax
$LN33@sha512_com:
  01af7	8b 44 24 50	 mov	 eax, DWORD PTR j$[rsp]
  01afb	83 c0 0d	 add	 eax, 13
  01afe	8b c8		 mov	 ecx, eax
  01b00	48 8d 05 00 00
	00 00		 lea	 rax, OFFSET FLAT:k512
  01b07	48 8b 04 c8	 mov	 rax, QWORD PTR [rax+rcx*8]
  01b0b	48 8b bc 24 c0
	00 00 00	 mov	 rdi, QWORD PTR tv1464[rsp]
  01b13	48 03 f8	 add	 rdi, rax
  01b16	48 8b 54 24 48	 mov	 rdx, QWORD PTR v$[rsp+56]
  01b1b	48 c1 ea 0e	 shr	 rdx, 14
  01b1f	48 8b 44 24 48	 mov	 rax, QWORD PTR v$[rsp+56]
  01b24	48 c1 e0 32	 shl	 rax, 50			; 00000032H
  01b28	48 0b d0	 or	 rdx, rax
  01b2b	48 8b 44 24 48	 mov	 rax, QWORD PTR v$[rsp+56]
  01b30	48 c1 e8 12	 shr	 rax, 18
  01b34	48 8b 4c 24 48	 mov	 rcx, QWORD PTR v$[rsp+56]
  01b39	48 c1 e1 2e	 shl	 rcx, 46			; 0000002eH
  01b3d	48 0b c1	 or	 rax, rcx
  01b40	48 33 d0	 xor	 rdx, rax
  01b43	48 8b 4c 24 48	 mov	 rcx, QWORD PTR v$[rsp+56]
  01b48	48 c1 e9 29	 shr	 rcx, 41			; 00000029H
  01b4c	48 8b 44 24 48	 mov	 rax, QWORD PTR v$[rsp+56]
  01b51	48 c1 e0 17	 shl	 rax, 23
  01b55	48 0b c8	 or	 rcx, rax
  01b58	48 8b c2	 mov	 rax, rdx
  01b5b	48 33 c1	 xor	 rax, rcx
  01b5e	48 8b d7	 mov	 rdx, rdi
  01b61	48 03 d0	 add	 rdx, rax
  01b64	48 8b 4c 24 18	 mov	 rcx, QWORD PTR v$[rsp+8]
  01b69	48 8b 44 24 10	 mov	 rax, QWORD PTR v$[rsp]
  01b6e	48 33 c1	 xor	 rax, rcx
  01b71	48 8b 4c 24 48	 mov	 rcx, QWORD PTR v$[rsp+56]
  01b76	48 23 c8	 and	 rcx, rax
  01b79	48 8b 44 24 18	 mov	 rax, QWORD PTR v$[rsp+8]
  01b7e	48 33 c1	 xor	 rax, rcx
  01b81	48 03 44 24 20	 add	 rax, QWORD PTR v$[rsp+16]
  01b86	48 03 c2	 add	 rax, rdx
  01b89	48 89 44 24 20	 mov	 QWORD PTR v$[rsp+16], rax
  01b8e	48 8b 4c 24 20	 mov	 rcx, QWORD PTR v$[rsp+16]
  01b93	48 8b 44 24 40	 mov	 rax, QWORD PTR v$[rsp+48]
  01b98	48 03 c1	 add	 rax, rcx
  01b9b	48 89 44 24 40	 mov	 QWORD PTR v$[rsp+48], rax
  01ba0	48 8b 7c 24 28	 mov	 rdi, QWORD PTR v$[rsp+24]
  01ba5	48 c1 ef 1c	 shr	 rdi, 28
  01ba9	48 8b 44 24 28	 mov	 rax, QWORD PTR v$[rsp+24]
  01bae	48 c1 e0 24	 shl	 rax, 36			; 00000024H
  01bb2	48 0b f8	 or	 rdi, rax
  01bb5	48 8b 44 24 28	 mov	 rax, QWORD PTR v$[rsp+24]
  01bba	48 c1 e8 22	 shr	 rax, 34			; 00000022H
  01bbe	48 8b 4c 24 28	 mov	 rcx, QWORD PTR v$[rsp+24]
  01bc3	48 c1 e1 1e	 shl	 rcx, 30
  01bc7	48 0b c1	 or	 rax, rcx
  01bca	48 33 f8	 xor	 rdi, rax
  01bcd	48 8b 44 24 28	 mov	 rax, QWORD PTR v$[rsp+24]
  01bd2	48 c1 e8 27	 shr	 rax, 39			; 00000027H
  01bd6	48 8b 4c 24 28	 mov	 rcx, QWORD PTR v$[rsp+24]
  01bdb	48 c1 e1 19	 shl	 rcx, 25
  01bdf	48 0b c1	 or	 rax, rcx
  01be2	48 33 f8	 xor	 rdi, rax
  01be5	48 8b 44 24 30	 mov	 rax, QWORD PTR v$[rsp+32]
  01bea	48 8b 54 24 28	 mov	 rdx, QWORD PTR v$[rsp+24]
  01bef	48 23 d0	 and	 rdx, rax
  01bf2	48 8b 4c 24 30	 mov	 rcx, QWORD PTR v$[rsp+32]
  01bf7	48 8b 44 24 28	 mov	 rax, QWORD PTR v$[rsp+24]
  01bfc	48 33 c1	 xor	 rax, rcx
  01bff	48 8b 4c 24 38	 mov	 rcx, QWORD PTR v$[rsp+40]
  01c04	48 23 c8	 and	 rcx, rax
  01c07	48 8b c2	 mov	 rax, rdx
  01c0a	48 0b c1	 or	 rax, rcx
  01c0d	48 03 44 24 20	 add	 rax, QWORD PTR v$[rsp+16]
  01c12	48 03 c7	 add	 rax, rdi
  01c15	48 89 44 24 20	 mov	 QWORD PTR v$[rsp+16], rax

; 526  :         v_cycle(14, j); v_cycle(15, j);

  01c1a	83 7c 24 50 00	 cmp	 DWORD PTR j$[rsp], 0
  01c1f	0f 84 c2 00 00
	00		 je	 $LN34@sha512_com
  01c25	48 8b 3c 24	 mov	 rdi, QWORD PTR p$[rsp]
  01c29	48 8b 7f 60	 mov	 rdi, QWORD PTR [rdi+96]
  01c2d	48 c1 ef 13	 shr	 rdi, 19
  01c31	48 8b 04 24	 mov	 rax, QWORD PTR p$[rsp]
  01c35	48 8b 40 60	 mov	 rax, QWORD PTR [rax+96]
  01c39	48 c1 e0 2d	 shl	 rax, 45			; 0000002dH
  01c3d	48 0b f8	 or	 rdi, rax
  01c40	48 8b 04 24	 mov	 rax, QWORD PTR p$[rsp]
  01c44	48 8b 40 60	 mov	 rax, QWORD PTR [rax+96]
  01c48	48 c1 e8 3d	 shr	 rax, 61			; 0000003dH
  01c4c	48 8b 0c 24	 mov	 rcx, QWORD PTR p$[rsp]
  01c50	48 8b 49 60	 mov	 rcx, QWORD PTR [rcx+96]
  01c54	48 c1 e1 03	 shl	 rcx, 3
  01c58	48 0b c1	 or	 rax, rcx
  01c5b	48 33 f8	 xor	 rdi, rax
  01c5e	48 8b 04 24	 mov	 rax, QWORD PTR p$[rsp]
  01c62	48 8b 40 60	 mov	 rax, QWORD PTR [rax+96]
  01c66	48 c1 e8 06	 shr	 rax, 6
  01c6a	48 33 f8	 xor	 rdi, rax
  01c6d	48 8b 04 24	 mov	 rax, QWORD PTR p$[rsp]
  01c71	48 03 78 38	 add	 rdi, QWORD PTR [rax+56]
  01c75	48 8b 14 24	 mov	 rdx, QWORD PTR p$[rsp]
  01c79	48 8b 52 78	 mov	 rdx, QWORD PTR [rdx+120]
  01c7d	48 d1 ea	 shr	 rdx, 1
  01c80	48 8b 04 24	 mov	 rax, QWORD PTR p$[rsp]
  01c84	48 8b 40 78	 mov	 rax, QWORD PTR [rax+120]
  01c88	48 c1 e0 3f	 shl	 rax, 63			; 0000003fH
  01c8c	48 0b d0	 or	 rdx, rax
  01c8f	48 8b 0c 24	 mov	 rcx, QWORD PTR p$[rsp]
  01c93	48 8b 49 78	 mov	 rcx, QWORD PTR [rcx+120]
  01c97	48 c1 e9 08	 shr	 rcx, 8
  01c9b	48 8b 04 24	 mov	 rax, QWORD PTR p$[rsp]
  01c9f	48 8b 40 78	 mov	 rax, QWORD PTR [rax+120]
  01ca3	48 c1 e0 38	 shl	 rax, 56			; 00000038H
  01ca7	48 0b c8	 or	 rcx, rax
  01caa	48 8b c2	 mov	 rax, rdx
  01cad	48 33 c1	 xor	 rax, rcx
  01cb0	48 8b 0c 24	 mov	 rcx, QWORD PTR p$[rsp]
  01cb4	48 8b 49 78	 mov	 rcx, QWORD PTR [rcx+120]
  01cb8	48 c1 e9 07	 shr	 rcx, 7
  01cbc	48 33 c1	 xor	 rax, rcx
  01cbf	48 8b cf	 mov	 rcx, rdi
  01cc2	48 03 c8	 add	 rcx, rax
  01cc5	48 8b 04 24	 mov	 rax, QWORD PTR p$[rsp]
  01cc9	48 03 48 70	 add	 rcx, QWORD PTR [rax+112]
  01ccd	48 8b 04 24	 mov	 rax, QWORD PTR p$[rsp]
  01cd1	48 89 48 70	 mov	 QWORD PTR [rax+112], rcx
  01cd5	48 8b 04 24	 mov	 rax, QWORD PTR p$[rsp]
  01cd9	48 8b 40 70	 mov	 rax, QWORD PTR [rax+112]
  01cdd	48 89 84 24 c8
	00 00 00	 mov	 QWORD PTR tv1569[rsp], rax
  01ce5	eb 10		 jmp	 SHORT $LN35@sha512_com
$LN34@sha512_com:
  01ce7	48 8b 04 24	 mov	 rax, QWORD PTR p$[rsp]
  01ceb	48 8b 40 70	 mov	 rax, QWORD PTR [rax+112]
  01cef	48 89 84 24 c8
	00 00 00	 mov	 QWORD PTR tv1569[rsp], rax
$LN35@sha512_com:
  01cf7	8b 44 24 50	 mov	 eax, DWORD PTR j$[rsp]
  01cfb	83 c0 0e	 add	 eax, 14
  01cfe	8b c8		 mov	 ecx, eax
  01d00	48 8d 05 00 00
	00 00		 lea	 rax, OFFSET FLAT:k512
  01d07	48 8b 04 c8	 mov	 rax, QWORD PTR [rax+rcx*8]
  01d0b	48 8b bc 24 c8
	00 00 00	 mov	 rdi, QWORD PTR tv1569[rsp]
  01d13	48 03 f8	 add	 rdi, rax
  01d16	48 8b 54 24 40	 mov	 rdx, QWORD PTR v$[rsp+48]
  01d1b	48 c1 ea 0e	 shr	 rdx, 14
  01d1f	48 8b 44 24 40	 mov	 rax, QWORD PTR v$[rsp+48]
  01d24	48 c1 e0 32	 shl	 rax, 50			; 00000032H
  01d28	48 0b d0	 or	 rdx, rax
  01d2b	48 8b 44 24 40	 mov	 rax, QWORD PTR v$[rsp+48]
  01d30	48 c1 e8 12	 shr	 rax, 18
  01d34	48 8b 4c 24 40	 mov	 rcx, QWORD PTR v$[rsp+48]
  01d39	48 c1 e1 2e	 shl	 rcx, 46			; 0000002eH
  01d3d	48 0b c1	 or	 rax, rcx
  01d40	48 33 d0	 xor	 rdx, rax
  01d43	48 8b 4c 24 40	 mov	 rcx, QWORD PTR v$[rsp+48]
  01d48	48 c1 e9 29	 shr	 rcx, 41			; 00000029H
  01d4c	48 8b 44 24 40	 mov	 rax, QWORD PTR v$[rsp+48]
  01d51	48 c1 e0 17	 shl	 rax, 23
  01d55	48 0b c8	 or	 rcx, rax
  01d58	48 8b c2	 mov	 rax, rdx
  01d5b	48 33 c1	 xor	 rax, rcx
  01d5e	48 8b d7	 mov	 rdx, rdi
  01d61	48 03 d0	 add	 rdx, rax
  01d64	48 8b 4c 24 10	 mov	 rcx, QWORD PTR v$[rsp]
  01d69	48 8b 44 24 48	 mov	 rax, QWORD PTR v$[rsp+56]
  01d6e	48 33 c1	 xor	 rax, rcx
  01d71	48 8b 4c 24 40	 mov	 rcx, QWORD PTR v$[rsp+48]
  01d76	48 23 c8	 and	 rcx, rax
  01d79	48 8b 44 24 10	 mov	 rax, QWORD PTR v$[rsp]
  01d7e	48 33 c1	 xor	 rax, rcx
  01d81	48 03 44 24 18	 add	 rax, QWORD PTR v$[rsp+8]
  01d86	48 03 c2	 add	 rax, rdx
  01d89	48 89 44 24 18	 mov	 QWORD PTR v$[rsp+8], rax
  01d8e	48 8b 4c 24 18	 mov	 rcx, QWORD PTR v$[rsp+8]
  01d93	48 8b 44 24 38	 mov	 rax, QWORD PTR v$[rsp+40]
  01d98	48 03 c1	 add	 rax, rcx
  01d9b	48 89 44 24 38	 mov	 QWORD PTR v$[rsp+40], rax
  01da0	48 8b 7c 24 20	 mov	 rdi, QWORD PTR v$[rsp+16]
  01da5	48 c1 ef 1c	 shr	 rdi, 28
  01da9	48 8b 44 24 20	 mov	 rax, QWORD PTR v$[rsp+16]
  01dae	48 c1 e0 24	 shl	 rax, 36			; 00000024H
  01db2	48 0b f8	 or	 rdi, rax
  01db5	48 8b 44 24 20	 mov	 rax, QWORD PTR v$[rsp+16]
  01dba	48 c1 e8 22	 shr	 rax, 34			; 00000022H
  01dbe	48 8b 4c 24 20	 mov	 rcx, QWORD PTR v$[rsp+16]
  01dc3	48 c1 e1 1e	 shl	 rcx, 30
  01dc7	48 0b c1	 or	 rax, rcx
  01dca	48 33 f8	 xor	 rdi, rax
  01dcd	48 8b 44 24 20	 mov	 rax, QWORD PTR v$[rsp+16]
  01dd2	48 c1 e8 27	 shr	 rax, 39			; 00000027H
  01dd6	48 8b 4c 24 20	 mov	 rcx, QWORD PTR v$[rsp+16]
  01ddb	48 c1 e1 19	 shl	 rcx, 25
  01ddf	48 0b c1	 or	 rax, rcx
  01de2	48 33 f8	 xor	 rdi, rax
  01de5	48 8b 44 24 28	 mov	 rax, QWORD PTR v$[rsp+24]
  01dea	48 8b 54 24 20	 mov	 rdx, QWORD PTR v$[rsp+16]
  01def	48 23 d0	 and	 rdx, rax
  01df2	48 8b 4c 24 28	 mov	 rcx, QWORD PTR v$[rsp+24]
  01df7	48 8b 44 24 20	 mov	 rax, QWORD PTR v$[rsp+16]
  01dfc	48 33 c1	 xor	 rax, rcx
  01dff	48 8b 4c 24 30	 mov	 rcx, QWORD PTR v$[rsp+32]
  01e04	48 23 c8	 and	 rcx, rax
  01e07	48 8b c2	 mov	 rax, rdx
  01e0a	48 0b c1	 or	 rax, rcx
  01e0d	48 03 44 24 18	 add	 rax, QWORD PTR v$[rsp+8]
  01e12	48 03 c7	 add	 rax, rdi
  01e15	48 89 44 24 18	 mov	 QWORD PTR v$[rsp+8], rax
  01e1a	83 7c 24 50 00	 cmp	 DWORD PTR j$[rsp], 0
  01e1f	0f 84 bd 00 00
	00		 je	 $LN36@sha512_com
  01e25	48 8b 3c 24	 mov	 rdi, QWORD PTR p$[rsp]
  01e29	48 8b 7f 68	 mov	 rdi, QWORD PTR [rdi+104]
  01e2d	48 c1 ef 13	 shr	 rdi, 19
  01e31	48 8b 04 24	 mov	 rax, QWORD PTR p$[rsp]
  01e35	48 8b 40 68	 mov	 rax, QWORD PTR [rax+104]
  01e39	48 c1 e0 2d	 shl	 rax, 45			; 0000002dH
  01e3d	48 0b f8	 or	 rdi, rax
  01e40	48 8b 04 24	 mov	 rax, QWORD PTR p$[rsp]
  01e44	48 8b 40 68	 mov	 rax, QWORD PTR [rax+104]
  01e48	48 c1 e8 3d	 shr	 rax, 61			; 0000003dH
  01e4c	48 8b 0c 24	 mov	 rcx, QWORD PTR p$[rsp]
  01e50	48 8b 49 68	 mov	 rcx, QWORD PTR [rcx+104]
  01e54	48 c1 e1 03	 shl	 rcx, 3
  01e58	48 0b c1	 or	 rax, rcx
  01e5b	48 33 f8	 xor	 rdi, rax
  01e5e	48 8b 04 24	 mov	 rax, QWORD PTR p$[rsp]
  01e62	48 8b 40 68	 mov	 rax, QWORD PTR [rax+104]
  01e66	48 c1 e8 06	 shr	 rax, 6
  01e6a	48 33 f8	 xor	 rdi, rax
  01e6d	48 8b 04 24	 mov	 rax, QWORD PTR p$[rsp]
  01e71	48 03 78 40	 add	 rdi, QWORD PTR [rax+64]
  01e75	48 8b 14 24	 mov	 rdx, QWORD PTR p$[rsp]
  01e79	48 8b 12	 mov	 rdx, QWORD PTR [rdx]
  01e7c	48 d1 ea	 shr	 rdx, 1
  01e7f	48 8b 04 24	 mov	 rax, QWORD PTR p$[rsp]
  01e83	48 8b 00	 mov	 rax, QWORD PTR [rax]
  01e86	48 c1 e0 3f	 shl	 rax, 63			; 0000003fH
  01e8a	48 0b d0	 or	 rdx, rax
  01e8d	48 8b 0c 24	 mov	 rcx, QWORD PTR p$[rsp]
  01e91	48 8b 09	 mov	 rcx, QWORD PTR [rcx]
  01e94	48 c1 e9 08	 shr	 rcx, 8
  01e98	48 8b 04 24	 mov	 rax, QWORD PTR p$[rsp]
  01e9c	48 8b 00	 mov	 rax, QWORD PTR [rax]
  01e9f	48 c1 e0 38	 shl	 rax, 56			; 00000038H
  01ea3	48 0b c8	 or	 rcx, rax
  01ea6	48 8b c2	 mov	 rax, rdx
  01ea9	48 33 c1	 xor	 rax, rcx
  01eac	48 8b 0c 24	 mov	 rcx, QWORD PTR p$[rsp]
  01eb0	48 8b 09	 mov	 rcx, QWORD PTR [rcx]
  01eb3	48 c1 e9 07	 shr	 rcx, 7
  01eb7	48 33 c1	 xor	 rax, rcx
  01eba	48 8b cf	 mov	 rcx, rdi
  01ebd	48 03 c8	 add	 rcx, rax
  01ec0	48 8b 04 24	 mov	 rax, QWORD PTR p$[rsp]
  01ec4	48 03 48 78	 add	 rcx, QWORD PTR [rax+120]
  01ec8	48 8b 04 24	 mov	 rax, QWORD PTR p$[rsp]
  01ecc	48 89 48 78	 mov	 QWORD PTR [rax+120], rcx
  01ed0	48 8b 04 24	 mov	 rax, QWORD PTR p$[rsp]
  01ed4	48 8b 40 78	 mov	 rax, QWORD PTR [rax+120]
  01ed8	48 89 84 24 d0
	00 00 00	 mov	 QWORD PTR tv1667[rsp], rax
  01ee0	eb 10		 jmp	 SHORT $LN37@sha512_com
$LN36@sha512_com:
  01ee2	48 8b 04 24	 mov	 rax, QWORD PTR p$[rsp]
  01ee6	48 8b 40 78	 mov	 rax, QWORD PTR [rax+120]
  01eea	48 89 84 24 d0
	00 00 00	 mov	 QWORD PTR tv1667[rsp], rax
$LN37@sha512_com:
  01ef2	8b 44 24 50	 mov	 eax, DWORD PTR j$[rsp]
  01ef6	83 c0 0f	 add	 eax, 15
  01ef9	8b c8		 mov	 ecx, eax
  01efb	48 8d 05 00 00
	00 00		 lea	 rax, OFFSET FLAT:k512
  01f02	48 8b 04 c8	 mov	 rax, QWORD PTR [rax+rcx*8]
  01f06	48 8b bc 24 d0
	00 00 00	 mov	 rdi, QWORD PTR tv1667[rsp]
  01f0e	48 03 f8	 add	 rdi, rax
  01f11	48 8b 54 24 38	 mov	 rdx, QWORD PTR v$[rsp+40]
  01f16	48 c1 ea 0e	 shr	 rdx, 14
  01f1a	48 8b 44 24 38	 mov	 rax, QWORD PTR v$[rsp+40]
  01f1f	48 c1 e0 32	 shl	 rax, 50			; 00000032H
  01f23	48 0b d0	 or	 rdx, rax
  01f26	48 8b 44 24 38	 mov	 rax, QWORD PTR v$[rsp+40]
  01f2b	48 c1 e8 12	 shr	 rax, 18
  01f2f	48 8b 4c 24 38	 mov	 rcx, QWORD PTR v$[rsp+40]
  01f34	48 c1 e1 2e	 shl	 rcx, 46			; 0000002eH
  01f38	48 0b c1	 or	 rax, rcx
  01f3b	48 33 d0	 xor	 rdx, rax
  01f3e	48 8b 4c 24 38	 mov	 rcx, QWORD PTR v$[rsp+40]
  01f43	48 c1 e9 29	 shr	 rcx, 41			; 00000029H
  01f47	48 8b 44 24 38	 mov	 rax, QWORD PTR v$[rsp+40]
  01f4c	48 c1 e0 17	 shl	 rax, 23
  01f50	48 0b c8	 or	 rcx, rax
  01f53	48 8b c2	 mov	 rax, rdx
  01f56	48 33 c1	 xor	 rax, rcx
  01f59	48 8b d7	 mov	 rdx, rdi
  01f5c	48 03 d0	 add	 rdx, rax
  01f5f	48 8b 4c 24 48	 mov	 rcx, QWORD PTR v$[rsp+56]
  01f64	48 8b 44 24 40	 mov	 rax, QWORD PTR v$[rsp+48]
  01f69	48 33 c1	 xor	 rax, rcx
  01f6c	48 8b 4c 24 38	 mov	 rcx, QWORD PTR v$[rsp+40]
  01f71	48 23 c8	 and	 rcx, rax
  01f74	48 8b 44 24 48	 mov	 rax, QWORD PTR v$[rsp+56]
  01f79	48 33 c1	 xor	 rax, rcx
  01f7c	48 03 44 24 10	 add	 rax, QWORD PTR v$[rsp]
  01f81	48 03 c2	 add	 rax, rdx
  01f84	48 89 44 24 10	 mov	 QWORD PTR v$[rsp], rax
  01f89	48 8b 4c 24 10	 mov	 rcx, QWORD PTR v$[rsp]
  01f8e	48 8b 44 24 30	 mov	 rax, QWORD PTR v$[rsp+32]
  01f93	48 03 c1	 add	 rax, rcx
  01f96	48 89 44 24 30	 mov	 QWORD PTR v$[rsp+32], rax
  01f9b	48 8b 7c 24 18	 mov	 rdi, QWORD PTR v$[rsp+8]
  01fa0	48 c1 ef 1c	 shr	 rdi, 28
  01fa4	48 8b 44 24 18	 mov	 rax, QWORD PTR v$[rsp+8]
  01fa9	48 c1 e0 24	 shl	 rax, 36			; 00000024H
  01fad	48 0b f8	 or	 rdi, rax
  01fb0	48 8b 44 24 18	 mov	 rax, QWORD PTR v$[rsp+8]
  01fb5	48 c1 e8 22	 shr	 rax, 34			; 00000022H
  01fb9	48 8b 4c 24 18	 mov	 rcx, QWORD PTR v$[rsp+8]
  01fbe	48 c1 e1 1e	 shl	 rcx, 30
  01fc2	48 0b c1	 or	 rax, rcx
  01fc5	48 33 f8	 xor	 rdi, rax
  01fc8	48 8b 44 24 18	 mov	 rax, QWORD PTR v$[rsp+8]
  01fcd	48 c1 e8 27	 shr	 rax, 39			; 00000027H
  01fd1	48 8b 4c 24 18	 mov	 rcx, QWORD PTR v$[rsp+8]
  01fd6	48 c1 e1 19	 shl	 rcx, 25
  01fda	48 0b c1	 or	 rax, rcx
  01fdd	48 33 f8	 xor	 rdi, rax
  01fe0	48 8b 44 24 20	 mov	 rax, QWORD PTR v$[rsp+16]
  01fe5	48 8b 54 24 18	 mov	 rdx, QWORD PTR v$[rsp+8]
  01fea	48 23 d0	 and	 rdx, rax
  01fed	48 8b 4c 24 20	 mov	 rcx, QWORD PTR v$[rsp+16]
  01ff2	48 8b 44 24 18	 mov	 rax, QWORD PTR v$[rsp+8]
  01ff7	48 33 c1	 xor	 rax, rcx
  01ffa	48 8b 4c 24 28	 mov	 rcx, QWORD PTR v$[rsp+24]
  01fff	48 23 c8	 and	 rcx, rax
  02002	48 8b c2	 mov	 rax, rdx
  02005	48 0b c1	 or	 rax, rcx
  02008	48 03 44 24 10	 add	 rax, QWORD PTR v$[rsp]
  0200d	48 03 c7	 add	 rax, rdi
  02010	48 89 44 24 10	 mov	 QWORD PTR v$[rsp], rax

; 527  :     }

  02015	e9 26 e0 ff ff	 jmp	 $LN2@sha512_com
$LN1@sha512_com:

; 528  : 
; 529  :     ctx->hash[0] += v[0]; ctx->hash[1] += v[1];

  0201a	48 8b 8c 24 00
	01 00 00	 mov	 rcx, QWORD PTR ctx$[rsp]
  02022	48 8b 49 10	 mov	 rcx, QWORD PTR [rcx+16]
  02026	48 03 4c 24 10	 add	 rcx, QWORD PTR v$[rsp]
  0202b	48 8b 84 24 00
	01 00 00	 mov	 rax, QWORD PTR ctx$[rsp]
  02033	48 89 48 10	 mov	 QWORD PTR [rax+16], rcx
  02037	48 8b 8c 24 00
	01 00 00	 mov	 rcx, QWORD PTR ctx$[rsp]
  0203f	48 8b 49 18	 mov	 rcx, QWORD PTR [rcx+24]
  02043	48 03 4c 24 18	 add	 rcx, QWORD PTR v$[rsp+8]
  02048	48 8b 84 24 00
	01 00 00	 mov	 rax, QWORD PTR ctx$[rsp]
  02050	48 89 48 18	 mov	 QWORD PTR [rax+24], rcx

; 530  :     ctx->hash[2] += v[2]; ctx->hash[3] += v[3];

  02054	48 8b 8c 24 00
	01 00 00	 mov	 rcx, QWORD PTR ctx$[rsp]
  0205c	48 8b 49 20	 mov	 rcx, QWORD PTR [rcx+32]
  02060	48 03 4c 24 20	 add	 rcx, QWORD PTR v$[rsp+16]
  02065	48 8b 84 24 00
	01 00 00	 mov	 rax, QWORD PTR ctx$[rsp]
  0206d	48 89 48 20	 mov	 QWORD PTR [rax+32], rcx
  02071	48 8b 8c 24 00
	01 00 00	 mov	 rcx, QWORD PTR ctx$[rsp]
  02079	48 8b 49 28	 mov	 rcx, QWORD PTR [rcx+40]
  0207d	48 03 4c 24 28	 add	 rcx, QWORD PTR v$[rsp+24]
  02082	48 8b 84 24 00
	01 00 00	 mov	 rax, QWORD PTR ctx$[rsp]
  0208a	48 89 48 28	 mov	 QWORD PTR [rax+40], rcx

; 531  :     ctx->hash[4] += v[4]; ctx->hash[5] += v[5];

  0208e	48 8b 8c 24 00
	01 00 00	 mov	 rcx, QWORD PTR ctx$[rsp]
  02096	48 8b 49 30	 mov	 rcx, QWORD PTR [rcx+48]
  0209a	48 03 4c 24 30	 add	 rcx, QWORD PTR v$[rsp+32]
  0209f	48 8b 84 24 00
	01 00 00	 mov	 rax, QWORD PTR ctx$[rsp]
  020a7	48 89 48 30	 mov	 QWORD PTR [rax+48], rcx
  020ab	48 8b 8c 24 00
	01 00 00	 mov	 rcx, QWORD PTR ctx$[rsp]
  020b3	48 8b 49 38	 mov	 rcx, QWORD PTR [rcx+56]
  020b7	48 03 4c 24 38	 add	 rcx, QWORD PTR v$[rsp+40]
  020bc	48 8b 84 24 00
	01 00 00	 mov	 rax, QWORD PTR ctx$[rsp]
  020c4	48 89 48 38	 mov	 QWORD PTR [rax+56], rcx

; 532  :     ctx->hash[6] += v[6]; ctx->hash[7] += v[7];

  020c8	48 8b 8c 24 00
	01 00 00	 mov	 rcx, QWORD PTR ctx$[rsp]
  020d0	48 8b 49 40	 mov	 rcx, QWORD PTR [rcx+64]
  020d4	48 03 4c 24 40	 add	 rcx, QWORD PTR v$[rsp+48]
  020d9	48 8b 84 24 00
	01 00 00	 mov	 rax, QWORD PTR ctx$[rsp]
  020e1	48 89 48 40	 mov	 QWORD PTR [rax+64], rcx
  020e5	48 8b 8c 24 00
	01 00 00	 mov	 rcx, QWORD PTR ctx$[rsp]
  020ed	48 8b 49 48	 mov	 rcx, QWORD PTR [rcx+72]
  020f1	48 03 4c 24 48	 add	 rcx, QWORD PTR v$[rsp+56]
  020f6	48 8b 84 24 00
	01 00 00	 mov	 rax, QWORD PTR ctx$[rsp]
  020fe	48 89 48 48	 mov	 QWORD PTR [rax+72], rcx

; 533  : }

  02102	48 81 c4 e8 00
	00 00		 add	 rsp, 232		; 000000e8H
  02109	5f		 pop	 rdi
  0210a	5e		 pop	 rsi
  0210b	c3		 ret	 0
sha512_compile ENDP
;	COMDAT pdata
pdata	SEGMENT
$pdata$sha_end2 DD imagerel sha_end2
	DD	imagerel sha_end2+711
	DD	imagerel $unwind$sha_end2
pdata	ENDS
;	COMDAT xdata
xdata	SEGMENT
$unwind$sha_end2 DD 011301H
	DD	06213H
; Function compile flags: /Odtp
xdata	ENDS
;	COMDAT sha_end2
_TEXT	SEGMENT
i$ = 32
_i$26698 = 36
hval$ = 64
ctx$ = 72
hlen$ = 80
sha_end2 PROC						; COMDAT

; 564  : {   uint_32t    i = (uint_32t)(ctx->count[0] & SHA512_MASK);

  00000	44 89 44 24 18	 mov	 DWORD PTR [rsp+24], r8d
  00005	48 89 54 24 10	 mov	 QWORD PTR [rsp+16], rdx
  0000a	48 89 4c 24 08	 mov	 QWORD PTR [rsp+8], rcx
  0000f	48 83 ec 38	 sub	 rsp, 56			; 00000038H
  00013	48 8b 44 24 48	 mov	 rax, QWORD PTR ctx$[rsp]
  00018	48 8b 00	 mov	 rax, QWORD PTR [rax]
  0001b	48 83 e0 7f	 and	 rax, 127		; 0000007fH
  0001f	89 44 24 20	 mov	 DWORD PTR i$[rsp], eax

; 565  : 
; 566  :     /* put bytes in the buffer in an order in which references to   */
; 567  :     /* 32-bit words will put bytes with lower addresses into the    */
; 568  :     /* top of 32 bit words on BOTH big and little endian machines   */
; 569  :     bsw_64(ctx->wbuf, (i + 7) >> 3);

  00023	8b 44 24 20	 mov	 eax, DWORD PTR i$[rsp]
  00027	83 c0 07	 add	 eax, 7
  0002a	c1 e8 03	 shr	 eax, 3
  0002d	89 44 24 24	 mov	 DWORD PTR _i$26698[rsp], eax
$LN10@sha_end2:
  00031	8b 4c 24 24	 mov	 ecx, DWORD PTR _i$26698[rsp]
  00035	8b 44 24 24	 mov	 eax, DWORD PTR _i$26698[rsp]
  00039	83 e8 01	 sub	 eax, 1
  0003c	89 44 24 24	 mov	 DWORD PTR _i$26698[rsp], eax
  00040	85 c9		 test	 ecx, ecx
  00042	0f 84 f9 00 00
	00		 je	 $LN9@sha_end2
  00048	48 63 4c 24 24	 movsxd	 rcx, DWORD PTR _i$26698[rsp]
  0004d	48 8b 44 24 48	 mov	 rax, QWORD PTR ctx$[rsp]
  00052	44 8b 44 c8 50	 mov	 r8d, DWORD PTR [rax+rcx*8+80]
  00057	41 c1 e8 18	 shr	 r8d, 24
  0005b	48 63 4c 24 24	 movsxd	 rcx, DWORD PTR _i$26698[rsp]
  00060	48 8b 44 24 48	 mov	 rax, QWORD PTR ctx$[rsp]
  00065	8b 44 c8 50	 mov	 eax, DWORD PTR [rax+rcx*8+80]
  00069	c1 e0 08	 shl	 eax, 8
  0006c	44 0b c0	 or	 r8d, eax
  0006f	41 81 e0 ff 00
	ff 00		 and	 r8d, 16711935		; 00ff00ffH
  00076	48 63 4c 24 24	 movsxd	 rcx, DWORD PTR _i$26698[rsp]
  0007b	48 8b 44 24 48	 mov	 rax, QWORD PTR ctx$[rsp]
  00080	8b 54 c8 50	 mov	 edx, DWORD PTR [rax+rcx*8+80]
  00084	c1 ea 08	 shr	 edx, 8
  00087	48 63 4c 24 24	 movsxd	 rcx, DWORD PTR _i$26698[rsp]
  0008c	48 8b 44 24 48	 mov	 rax, QWORD PTR ctx$[rsp]
  00091	8b 44 c8 50	 mov	 eax, DWORD PTR [rax+rcx*8+80]
  00095	c1 e0 18	 shl	 eax, 24
  00098	8b ca		 mov	 ecx, edx
  0009a	0b c8		 or	 ecx, eax
  0009c	81 e1 00 ff 00
	ff		 and	 ecx, -16711936		; ff00ff00H
  000a2	41 8b c0	 mov	 eax, r8d
  000a5	0b c1		 or	 eax, ecx
  000a7	44 8b c8	 mov	 r9d, eax
  000aa	49 c1 e1 20	 shl	 r9, 32			; 00000020H
  000ae	48 63 4c 24 24	 movsxd	 rcx, DWORD PTR _i$26698[rsp]
  000b3	48 8b 44 24 48	 mov	 rax, QWORD PTR ctx$[rsp]
  000b8	48 8b 44 c8 50	 mov	 rax, QWORD PTR [rax+rcx*8+80]
  000bd	48 c1 e8 20	 shr	 rax, 32			; 00000020H
  000c1	44 8b c0	 mov	 r8d, eax
  000c4	41 c1 e8 18	 shr	 r8d, 24
  000c8	48 63 4c 24 24	 movsxd	 rcx, DWORD PTR _i$26698[rsp]
  000cd	48 8b 44 24 48	 mov	 rax, QWORD PTR ctx$[rsp]
  000d2	48 8b 44 c8 50	 mov	 rax, QWORD PTR [rax+rcx*8+80]
  000d7	48 c1 e8 20	 shr	 rax, 32			; 00000020H
  000db	c1 e0 08	 shl	 eax, 8
  000de	44 0b c0	 or	 r8d, eax
  000e1	41 81 e0 ff 00
	ff 00		 and	 r8d, 16711935		; 00ff00ffH
  000e8	48 63 4c 24 24	 movsxd	 rcx, DWORD PTR _i$26698[rsp]
  000ed	48 8b 44 24 48	 mov	 rax, QWORD PTR ctx$[rsp]
  000f2	48 8b 44 c8 50	 mov	 rax, QWORD PTR [rax+rcx*8+80]
  000f7	48 c1 e8 20	 shr	 rax, 32			; 00000020H
  000fb	8b d0		 mov	 edx, eax
  000fd	c1 ea 08	 shr	 edx, 8
  00100	48 63 4c 24 24	 movsxd	 rcx, DWORD PTR _i$26698[rsp]
  00105	48 8b 44 24 48	 mov	 rax, QWORD PTR ctx$[rsp]
  0010a	48 8b 44 c8 50	 mov	 rax, QWORD PTR [rax+rcx*8+80]
  0010f	48 c1 e8 20	 shr	 rax, 32			; 00000020H
  00113	c1 e0 18	 shl	 eax, 24
  00116	8b ca		 mov	 ecx, edx
  00118	0b c8		 or	 ecx, eax
  0011a	81 e1 00 ff 00
	ff		 and	 ecx, -16711936		; ff00ff00H
  00120	41 8b c0	 mov	 eax, r8d
  00123	0b c1		 or	 eax, ecx
  00125	8b c0		 mov	 eax, eax
  00127	49 8b d1	 mov	 rdx, r9
  0012a	48 0b d0	 or	 rdx, rax
  0012d	48 63 4c 24 24	 movsxd	 rcx, DWORD PTR _i$26698[rsp]
  00132	48 8b 44 24 48	 mov	 rax, QWORD PTR ctx$[rsp]
  00137	48 89 54 c8 50	 mov	 QWORD PTR [rax+rcx*8+80], rdx
  0013c	e9 f0 fe ff ff	 jmp	 $LN10@sha_end2
$LN9@sha_end2:

; 570  : 
; 571  :     /* we now need to mask valid bytes and add the padding which is */
; 572  :     /* a single 1 bit and as many zero bits as necessary. Note that */
; 573  :     /* we can always add the first padding byte here because the    */
; 574  :     /* buffer always has at least one empty slot                    */
; 575  :     ctx->wbuf[i >> 3] &= li_64(ffffffffffffff00) << 8 * (~i & 7);

  00141	8b 44 24 20	 mov	 eax, DWORD PTR i$[rsp]
  00145	c1 e8 03	 shr	 eax, 3
  00148	44 8b c0	 mov	 r8d, eax
  0014b	8b 4c 24 20	 mov	 ecx, DWORD PTR i$[rsp]
  0014f	f7 d1		 not	 ecx
  00151	83 e1 07	 and	 ecx, 7
  00154	c1 e1 03	 shl	 ecx, 3
  00157	48 c7 c0 00 ff
	ff ff		 mov	 rax, -256		; ffffffffffffff00H
  0015e	48 d3 e0	 shl	 rax, cl
  00161	48 8b 54 24 48	 mov	 rdx, QWORD PTR ctx$[rsp]
  00166	4a 8b 54 c2 50	 mov	 rdx, QWORD PTR [rdx+r8*8+80]
  0016b	48 23 d0	 and	 rdx, rax
  0016e	8b 44 24 20	 mov	 eax, DWORD PTR i$[rsp]
  00172	c1 e8 03	 shr	 eax, 3
  00175	8b c8		 mov	 ecx, eax
  00177	48 8b 44 24 48	 mov	 rax, QWORD PTR ctx$[rsp]
  0017c	48 89 54 c8 50	 mov	 QWORD PTR [rax+rcx*8+80], rdx

; 576  :     ctx->wbuf[i >> 3] |= li_64(0000000000000080) << 8 * (~i & 7);

  00181	8b 44 24 20	 mov	 eax, DWORD PTR i$[rsp]
  00185	c1 e8 03	 shr	 eax, 3
  00188	44 8b c0	 mov	 r8d, eax
  0018b	8b 4c 24 20	 mov	 ecx, DWORD PTR i$[rsp]
  0018f	f7 d1		 not	 ecx
  00191	83 e1 07	 and	 ecx, 7
  00194	c1 e1 03	 shl	 ecx, 3
  00197	b8 80 00 00 00	 mov	 eax, 128		; 00000080H
  0019c	48 d3 e0	 shl	 rax, cl
  0019f	48 8b 54 24 48	 mov	 rdx, QWORD PTR ctx$[rsp]
  001a4	4a 8b 54 c2 50	 mov	 rdx, QWORD PTR [rdx+r8*8+80]
  001a9	48 0b d0	 or	 rdx, rax
  001ac	8b 44 24 20	 mov	 eax, DWORD PTR i$[rsp]
  001b0	c1 e8 03	 shr	 eax, 3
  001b3	8b c8		 mov	 ecx, eax
  001b5	48 8b 44 24 48	 mov	 rax, QWORD PTR ctx$[rsp]
  001ba	48 89 54 c8 50	 mov	 QWORD PTR [rax+rcx*8+80], rdx

; 577  : 
; 578  :     /* we need 17 or more empty byte positions, one for the padding */
; 579  :     /* byte (above) and sixteen for the length count.  If there is  */
; 580  :     /* not enough space pad and empty the buffer                    */
; 581  :     if(i > SHA512_BLOCK_SIZE - 17)

  001bf	83 7c 24 20 6f	 cmp	 DWORD PTR i$[rsp], 111	; 0000006fH
  001c4	76 2b		 jbe	 SHORT $LN8@sha_end2

; 582  :     {
; 583  :         if(i < 120) ctx->wbuf[15] = 0;

  001c6	83 7c 24 20 78	 cmp	 DWORD PTR i$[rsp], 120	; 00000078H
  001cb	73 10		 jae	 SHORT $LN7@sha_end2
  001cd	48 8b 44 24 48	 mov	 rax, QWORD PTR ctx$[rsp]
  001d2	48 c7 80 c8 00
	00 00 00 00 00
	00		 mov	 QWORD PTR [rax+200], 0
$LN7@sha_end2:

; 584  :         sha512_compile(ctx);

  001dd	48 8b 4c 24 48	 mov	 rcx, QWORD PTR ctx$[rsp]
  001e2	e8 00 00 00 00	 call	 sha512_compile

; 585  :         i = 0;

  001e7	c7 44 24 20 00
	00 00 00	 mov	 DWORD PTR i$[rsp], 0

; 586  :     }
; 587  :     else

  001ef	eb 0e		 jmp	 SHORT $LN6@sha_end2
$LN8@sha_end2:

; 588  :         i = (i >> 3) + 1;

  001f1	8b 44 24 20	 mov	 eax, DWORD PTR i$[rsp]
  001f5	c1 e8 03	 shr	 eax, 3
  001f8	83 c0 01	 add	 eax, 1
  001fb	89 44 24 20	 mov	 DWORD PTR i$[rsp], eax
$LN6@sha_end2:
$LN5@sha_end2:

; 589  : 
; 590  :     while(i < 14)

  001ff	83 7c 24 20 0e	 cmp	 DWORD PTR i$[rsp], 14
  00204	73 1f		 jae	 SHORT $LN4@sha_end2

; 591  :         ctx->wbuf[i++] = 0;

  00206	8b 4c 24 20	 mov	 ecx, DWORD PTR i$[rsp]
  0020a	48 8b 44 24 48	 mov	 rax, QWORD PTR ctx$[rsp]
  0020f	48 c7 44 c8 50
	00 00 00 00	 mov	 QWORD PTR [rax+rcx*8+80], 0
  00218	8b 44 24 20	 mov	 eax, DWORD PTR i$[rsp]
  0021c	83 c0 01	 add	 eax, 1
  0021f	89 44 24 20	 mov	 DWORD PTR i$[rsp], eax
  00223	eb da		 jmp	 SHORT $LN5@sha_end2
$LN4@sha_end2:

; 592  : 
; 593  :     /* the following 64-bit length fields are assembled in the      */
; 594  :     /* wrong byte order on little endian machines but this is       */
; 595  :     /* corrected later since they are only ever used as 64-bit      */
; 596  :     /* word values.                                                 */
; 597  :     ctx->wbuf[14] = (ctx->count[1] << 3) | (ctx->count[0] >> 61);

  00225	48 8b 4c 24 48	 mov	 rcx, QWORD PTR ctx$[rsp]
  0022a	48 8b 49 08	 mov	 rcx, QWORD PTR [rcx+8]
  0022e	48 c1 e1 03	 shl	 rcx, 3
  00232	48 8b 44 24 48	 mov	 rax, QWORD PTR ctx$[rsp]
  00237	48 8b 00	 mov	 rax, QWORD PTR [rax]
  0023a	48 c1 e8 3d	 shr	 rax, 61			; 0000003dH
  0023e	48 0b c8	 or	 rcx, rax
  00241	48 8b 44 24 48	 mov	 rax, QWORD PTR ctx$[rsp]
  00246	48 89 88 c0 00
	00 00		 mov	 QWORD PTR [rax+192], rcx

; 598  :     ctx->wbuf[15] = ctx->count[0] << 3;

  0024d	48 8b 4c 24 48	 mov	 rcx, QWORD PTR ctx$[rsp]
  00252	48 8b 09	 mov	 rcx, QWORD PTR [rcx]
  00255	48 c1 e1 03	 shl	 rcx, 3
  00259	48 8b 44 24 48	 mov	 rax, QWORD PTR ctx$[rsp]
  0025e	48 89 88 c8 00
	00 00		 mov	 QWORD PTR [rax+200], rcx

; 599  :     sha512_compile(ctx);

  00265	48 8b 4c 24 48	 mov	 rcx, QWORD PTR ctx$[rsp]
  0026a	e8 00 00 00 00	 call	 sha512_compile

; 600  : 
; 601  :     /* extract the hash value as bytes in case the hash buffer is   */
; 602  :     /* misaligned for 32-bit words                                  */
; 603  :     for(i = 0; i < hlen; ++i)

  0026f	c7 44 24 20 00
	00 00 00	 mov	 DWORD PTR i$[rsp], 0
  00277	eb 0b		 jmp	 SHORT $LN3@sha_end2
$LN2@sha_end2:
  00279	8b 44 24 20	 mov	 eax, DWORD PTR i$[rsp]
  0027d	83 c0 01	 add	 eax, 1
  00280	89 44 24 20	 mov	 DWORD PTR i$[rsp], eax
$LN3@sha_end2:
  00284	8b 44 24 50	 mov	 eax, DWORD PTR hlen$[rsp]
  00288	39 44 24 20	 cmp	 DWORD PTR i$[rsp], eax
  0028c	73 34		 jae	 SHORT $LN1@sha_end2

; 604  :         hval[i] = (unsigned char)(ctx->hash[i >> 3] >> (8 * (~i & 7)));

  0028e	8b 44 24 20	 mov	 eax, DWORD PTR i$[rsp]
  00292	c1 e8 03	 shr	 eax, 3
  00295	44 8b c0	 mov	 r8d, eax
  00298	8b 44 24 20	 mov	 eax, DWORD PTR i$[rsp]
  0029c	f7 d0		 not	 eax
  0029e	83 e0 07	 and	 eax, 7
  002a1	c1 e0 03	 shl	 eax, 3
  002a4	48 8b 54 24 48	 mov	 rdx, QWORD PTR ctx$[rsp]
  002a9	0f b6 c8	 movzx	 ecx, al
  002ac	4a 8b 54 c2 10	 mov	 rdx, QWORD PTR [rdx+r8*8+16]
  002b1	48 d3 ea	 shr	 rdx, cl
  002b4	8b 4c 24 20	 mov	 ecx, DWORD PTR i$[rsp]
  002b8	48 8b 44 24 40	 mov	 rax, QWORD PTR hval$[rsp]
  002bd	88 14 08	 mov	 BYTE PTR [rax+rcx], dl
  002c0	eb b7		 jmp	 SHORT $LN2@sha_end2
$LN1@sha_end2:

; 605  : }

  002c2	48 83 c4 38	 add	 rsp, 56			; 00000038H
  002c6	c3		 ret	 0
sha_end2 ENDP
_TEXT	ENDS
PUBLIC	sha512_hash
;	COMDAT pdata
pdata	SEGMENT
$pdata$sha512_hash DD imagerel $LN8
	DD	imagerel $LN8+523
	DD	imagerel $unwind$sha512_hash
pdata	ENDS
;	COMDAT xdata
xdata	SEGMENT
$unwind$sha512_hash DD 031401H
	DD	070108214H
	DD	0600fH
; Function compile flags: /Odtp
xdata	ENDS
;	COMDAT sha512_hash
_TEXT	SEGMENT
sp$ = 32
space$ = 40
pos$ = 44
_i$26665 = 48
data$ = 96
len$ = 104
ctx$ = 112
sha512_hash PROC					; COMDAT

; 543  : {   uint_32t pos = (uint_32t)(ctx->count[0] & SHA512_MASK),

$LN8:
  00000	4c 89 44 24 18	 mov	 QWORD PTR [rsp+24], r8
  00005	89 54 24 10	 mov	 DWORD PTR [rsp+16], edx
  00009	48 89 4c 24 08	 mov	 QWORD PTR [rsp+8], rcx
  0000e	56		 push	 rsi
  0000f	57		 push	 rdi
  00010	48 83 ec 48	 sub	 rsp, 72			; 00000048H
  00014	48 8b 44 24 70	 mov	 rax, QWORD PTR ctx$[rsp]
  00019	48 8b 00	 mov	 rax, QWORD PTR [rax]
  0001c	48 83 e0 7f	 and	 rax, 127		; 0000007fH
  00020	89 44 24 2c	 mov	 DWORD PTR pos$[rsp], eax

; 544  :              space = SHA512_BLOCK_SIZE - pos;

  00024	b8 80 00 00 00	 mov	 eax, 128		; 00000080H
  00029	2b 44 24 2c	 sub	 eax, DWORD PTR pos$[rsp]
  0002d	89 44 24 28	 mov	 DWORD PTR space$[rsp], eax

; 545  :     const unsigned char *sp = data;

  00031	48 8b 44 24 60	 mov	 rax, QWORD PTR data$[rsp]
  00036	48 89 44 24 20	 mov	 QWORD PTR sp$[rsp], rax

; 546  : 
; 547  :     if((ctx->count[0] += len) < len)

  0003b	8b 4c 24 68	 mov	 ecx, DWORD PTR len$[rsp]
  0003f	48 8b 44 24 70	 mov	 rax, QWORD PTR ctx$[rsp]
  00044	48 03 08	 add	 rcx, QWORD PTR [rax]
  00047	48 8b 44 24 70	 mov	 rax, QWORD PTR ctx$[rsp]
  0004c	48 89 08	 mov	 QWORD PTR [rax], rcx
  0004f	8b 4c 24 68	 mov	 ecx, DWORD PTR len$[rsp]
  00053	48 8b 44 24 70	 mov	 rax, QWORD PTR ctx$[rsp]
  00058	48 39 08	 cmp	 QWORD PTR [rax], rcx
  0005b	73 16		 jae	 SHORT $LN5@sha512_has

; 548  :         ++(ctx->count[1]);

  0005d	48 8b 4c 24 70	 mov	 rcx, QWORD PTR ctx$[rsp]
  00062	48 8b 49 08	 mov	 rcx, QWORD PTR [rcx+8]
  00066	48 83 c1 01	 add	 rcx, 1
  0006a	48 8b 44 24 70	 mov	 rax, QWORD PTR ctx$[rsp]
  0006f	48 89 48 08	 mov	 QWORD PTR [rax+8], rcx
$LN5@sha512_has:
$LN4@sha512_has:

; 549  : 
; 550  :     while(len >= space)     /* tranfer whole blocks while possible  */

  00073	8b 44 24 28	 mov	 eax, DWORD PTR space$[rsp]
  00077	39 44 24 68	 cmp	 DWORD PTR len$[rsp], eax
  0007b	0f 82 67 01 00
	00		 jb	 $LN3@sha512_has

; 551  :     {
; 552  :         memcpy(((unsigned char*)ctx->wbuf) + pos, sp, space);

  00081	8b 54 24 28	 mov	 edx, DWORD PTR space$[rsp]
  00085	8b 4c 24 2c	 mov	 ecx, DWORD PTR pos$[rsp]
  00089	48 8b 44 24 70	 mov	 rax, QWORD PTR ctx$[rsp]
  0008e	48 8d 7c 08 50	 lea	 rdi, QWORD PTR [rax+rcx+80]
  00093	48 8b 74 24 20	 mov	 rsi, QWORD PTR sp$[rsp]
  00098	48 8b ca	 mov	 rcx, rdx
  0009b	f3 a4		 rep movsb

; 553  :         sp += space; len -= space; space = SHA512_BLOCK_SIZE; pos = 0;

  0009d	8b 54 24 28	 mov	 edx, DWORD PTR space$[rsp]
  000a1	48 8b 44 24 20	 mov	 rax, QWORD PTR sp$[rsp]
  000a6	48 03 c2	 add	 rax, rdx
  000a9	48 89 44 24 20	 mov	 QWORD PTR sp$[rsp], rax
  000ae	8b 4c 24 28	 mov	 ecx, DWORD PTR space$[rsp]
  000b2	8b 44 24 68	 mov	 eax, DWORD PTR len$[rsp]
  000b6	2b c1		 sub	 eax, ecx
  000b8	89 44 24 68	 mov	 DWORD PTR len$[rsp], eax
  000bc	c7 44 24 28 80
	00 00 00	 mov	 DWORD PTR space$[rsp], 128 ; 00000080H
  000c4	c7 44 24 2c 00
	00 00 00	 mov	 DWORD PTR pos$[rsp], 0

; 554  :         bsw_64(ctx->wbuf, SHA512_BLOCK_SIZE >> 3);

  000cc	c7 44 24 30 10
	00 00 00	 mov	 DWORD PTR _i$26665[rsp], 16
$LN2@sha512_has:
  000d4	8b 4c 24 30	 mov	 ecx, DWORD PTR _i$26665[rsp]
  000d8	8b 44 24 30	 mov	 eax, DWORD PTR _i$26665[rsp]
  000dc	83 e8 01	 sub	 eax, 1
  000df	89 44 24 30	 mov	 DWORD PTR _i$26665[rsp], eax
  000e3	85 c9		 test	 ecx, ecx
  000e5	0f 84 ee 00 00
	00		 je	 $LN1@sha512_has
  000eb	48 63 4c 24 30	 movsxd	 rcx, DWORD PTR _i$26665[rsp]
  000f0	48 8b 44 24 70	 mov	 rax, QWORD PTR ctx$[rsp]
  000f5	8b 7c c8 50	 mov	 edi, DWORD PTR [rax+rcx*8+80]
  000f9	c1 ef 18	 shr	 edi, 24
  000fc	48 63 4c 24 30	 movsxd	 rcx, DWORD PTR _i$26665[rsp]
  00101	48 8b 44 24 70	 mov	 rax, QWORD PTR ctx$[rsp]
  00106	8b 44 c8 50	 mov	 eax, DWORD PTR [rax+rcx*8+80]
  0010a	c1 e0 08	 shl	 eax, 8
  0010d	0b f8		 or	 edi, eax
  0010f	81 e7 ff 00 ff
	00		 and	 edi, 16711935		; 00ff00ffH
  00115	48 63 4c 24 30	 movsxd	 rcx, DWORD PTR _i$26665[rsp]
  0011a	48 8b 44 24 70	 mov	 rax, QWORD PTR ctx$[rsp]
  0011f	8b 54 c8 50	 mov	 edx, DWORD PTR [rax+rcx*8+80]
  00123	c1 ea 08	 shr	 edx, 8
  00126	48 63 4c 24 30	 movsxd	 rcx, DWORD PTR _i$26665[rsp]
  0012b	48 8b 44 24 70	 mov	 rax, QWORD PTR ctx$[rsp]
  00130	8b 44 c8 50	 mov	 eax, DWORD PTR [rax+rcx*8+80]
  00134	c1 e0 18	 shl	 eax, 24
  00137	8b ca		 mov	 ecx, edx
  00139	0b c8		 or	 ecx, eax
  0013b	81 e1 00 ff 00
	ff		 and	 ecx, -16711936		; ff00ff00H
  00141	8b c7		 mov	 eax, edi
  00143	0b c1		 or	 eax, ecx
  00145	8b f0		 mov	 esi, eax
  00147	48 c1 e6 20	 shl	 rsi, 32			; 00000020H
  0014b	48 63 4c 24 30	 movsxd	 rcx, DWORD PTR _i$26665[rsp]
  00150	48 8b 44 24 70	 mov	 rax, QWORD PTR ctx$[rsp]
  00155	48 8b 44 c8 50	 mov	 rax, QWORD PTR [rax+rcx*8+80]
  0015a	48 c1 e8 20	 shr	 rax, 32			; 00000020H
  0015e	8b f8		 mov	 edi, eax
  00160	c1 ef 18	 shr	 edi, 24
  00163	48 63 4c 24 30	 movsxd	 rcx, DWORD PTR _i$26665[rsp]
  00168	48 8b 44 24 70	 mov	 rax, QWORD PTR ctx$[rsp]
  0016d	48 8b 44 c8 50	 mov	 rax, QWORD PTR [rax+rcx*8+80]
  00172	48 c1 e8 20	 shr	 rax, 32			; 00000020H
  00176	c1 e0 08	 shl	 eax, 8
  00179	0b f8		 or	 edi, eax
  0017b	81 e7 ff 00 ff
	00		 and	 edi, 16711935		; 00ff00ffH
  00181	48 63 4c 24 30	 movsxd	 rcx, DWORD PTR _i$26665[rsp]
  00186	48 8b 44 24 70	 mov	 rax, QWORD PTR ctx$[rsp]
  0018b	48 8b 44 c8 50	 mov	 rax, QWORD PTR [rax+rcx*8+80]
  00190	48 c1 e8 20	 shr	 rax, 32			; 00000020H
  00194	8b d0		 mov	 edx, eax
  00196	c1 ea 08	 shr	 edx, 8
  00199	48 63 4c 24 30	 movsxd	 rcx, DWORD PTR _i$26665[rsp]
  0019e	48 8b 44 24 70	 mov	 rax, QWORD PTR ctx$[rsp]
  001a3	48 8b 44 c8 50	 mov	 rax, QWORD PTR [rax+rcx*8+80]
  001a8	48 c1 e8 20	 shr	 rax, 32			; 00000020H
  001ac	c1 e0 18	 shl	 eax, 24
  001af	8b ca		 mov	 ecx, edx
  001b1	0b c8		 or	 ecx, eax
  001b3	81 e1 00 ff 00
	ff		 and	 ecx, -16711936		; ff00ff00H
  001b9	8b c7		 mov	 eax, edi
  001bb	0b c1		 or	 eax, ecx
  001bd	8b c0		 mov	 eax, eax
  001bf	48 8b d6	 mov	 rdx, rsi
  001c2	48 0b d0	 or	 rdx, rax
  001c5	48 63 4c 24 30	 movsxd	 rcx, DWORD PTR _i$26665[rsp]
  001ca	48 8b 44 24 70	 mov	 rax, QWORD PTR ctx$[rsp]
  001cf	48 89 54 c8 50	 mov	 QWORD PTR [rax+rcx*8+80], rdx
  001d4	e9 fb fe ff ff	 jmp	 $LN2@sha512_has
$LN1@sha512_has:

; 555  :         sha512_compile(ctx);

  001d9	48 8b 4c 24 70	 mov	 rcx, QWORD PTR ctx$[rsp]
  001de	e8 00 00 00 00	 call	 sha512_compile

; 556  :     }

  001e3	e9 8b fe ff ff	 jmp	 $LN4@sha512_has
$LN3@sha512_has:

; 557  : 
; 558  :     memcpy(((unsigned char*)ctx->wbuf) + pos, sp, len);

  001e8	8b 54 24 68	 mov	 edx, DWORD PTR len$[rsp]
  001ec	8b 4c 24 2c	 mov	 ecx, DWORD PTR pos$[rsp]
  001f0	48 8b 44 24 70	 mov	 rax, QWORD PTR ctx$[rsp]
  001f5	48 8d 7c 08 50	 lea	 rdi, QWORD PTR [rax+rcx+80]
  001fa	48 8b 74 24 20	 mov	 rsi, QWORD PTR sp$[rsp]
  001ff	48 8b ca	 mov	 rcx, rdx
  00202	f3 a4		 rep movsb

; 559  : }

  00204	48 83 c4 48	 add	 rsp, 72			; 00000048H
  00208	5f		 pop	 rdi
  00209	5e		 pop	 rsi
  0020a	c3		 ret	 0
sha512_hash ENDP
PUBLIC	sha512_end
;	COMDAT pdata
pdata	SEGMENT
$pdata$sha512_end DD imagerel $LN3
	DD	imagerel $LN3+40
	DD	imagerel $unwind$sha512_end
pdata	ENDS
;	COMDAT xdata
xdata	SEGMENT
$unwind$sha512_end DD 010e01H
	DD	0420eH
; Function compile flags: /Odtp
xdata	ENDS
;	COMDAT sha512_end
_TEXT	SEGMENT
hval$ = 48
ctx$ = 56
sha512_end PROC						; COMDAT

; 661  : {

$LN3:
  00000	48 89 54 24 10	 mov	 QWORD PTR [rsp+16], rdx
  00005	48 89 4c 24 08	 mov	 QWORD PTR [rsp+8], rcx
  0000a	48 83 ec 28	 sub	 rsp, 40			; 00000028H

; 662  :     sha_end2(hval, ctx, SHA512_DIGEST_SIZE);

  0000e	41 b8 40 00 00
	00		 mov	 r8d, 64			; 00000040H
  00014	48 8b 54 24 38	 mov	 rdx, QWORD PTR ctx$[rsp]
  00019	48 8b 4c 24 30	 mov	 rcx, QWORD PTR hval$[rsp]
  0001e	e8 00 00 00 00	 call	 sha_end2

; 663  : }

  00023	48 83 c4 28	 add	 rsp, 40			; 00000028H
  00027	c3		 ret	 0
sha512_end ENDP
END
