
 Start  Stop   Length Name                   Class
 00000H 04567H 04568H _TEXT                  CODE
 04568H 04FEAH 00A83H _DATA                  DATA
 04FECH 04FF7H 0000CH CONST                  CONST
 04FF8H 06B3FH 01B48H _BSS                   BSS
 06B40H 08CD1H 02192H c_common               BSS

 Origin   Group
 0000:0   DGROUP

  Address         Publics by Name

 0000:24FE       ??5@YA?ATUINT64_STRUCT@@ABT0@H@Z
 0000:2552       ??6@YA?ATUINT64_STRUCT@@ABT0@H@Z
 0000:25B2       ??8@YADABTUINT64_STRUCT@@0@Z
 0000:2592       ??E@YAAATUINT64_STRUCT@@AAT0@@Z
 0000:244C       ??G@YA?ATUINT64_STRUCT@@ABT0@0@Z
 0000:24AC       ??G@YA?ATUINT64_STRUCT@@ABT0@K@Z
 0000:239A       ??H@YA?ATUINT64_STRUCT@@ABT0@0@Z
 0000:23FA       ??H@YA?ATUINT64_STRUCT@@ABT0@K@Z
 0000:260C       ??M@YADABTUINT64_STRUCT@@0@Z
 0000:266A       ??N@YADABTUINT64_STRUCT@@0@Z
 0000:25D8       ??O@YADABTUINT64_STRUCT@@0@Z
 0000:2640       ??P@YADABTUINT64_STRUCT@@0@Z
 0000:2426       ??Y@YAAATUINT64_STRUCT@@AAT0@ABT0@@Z
 0000:24D8       ??Z@YAAATUINT64_STRUCT@@AAT0@ABT0@@Z
 0000:4BE4       ??_C@_00A@?$AA@
 0000:4CA4       ??_C@_01KHLB@?$FL?$AA@
 0000:4CE4       ??_C@_02HFBK@?3?5?$AA@
 0000:4B90       ??_C@_02PIMC@?$AN?6?$AA@
 0000:4CA0       ??_C@_03EDHP@n?$AN?6?$AA@
 0000:4C9C       ??_C@_03NMHE@y?$AN?6?$AA@
 0000:4BC8       ??_C@_04HAAB@?5MB?5?$AA@
 0000:4BA2       ??_C@_04KCBC@Read?$AA@
 0000:4FD4       ??_C@_04PLFG@MMP?3?$AA@
 0000:4BC2       ??_C@_05CLDD@?5CHS?3?$AA@
 0000:4B9C       ??_C@_05DHHK@Write?$AA@
 0000:4F5A       ??_C@_05DILO@Abort?$AA@
 0000:4CA6       ??_C@_05EFLO@?$FN?5?5?5?5?$AA@
 0000:4BCE       ??_C@_06OLBI@Drive?5?$AA@
 0000:4BA8       ??_C@_07EIJM@?5error?3?$AA@
 0000:4BB0       ??_C@_07JBEK@?5Drive?3?$AA@
 0000:4E3C       ??_C@_07MCKD@Drive?3?5?$AA@
 0000:4B94       ??_C@_07MKMO@Error?3?5?$AA@
 0000:4BB8       ??_C@_08NNOK@?5Sector?3?$AA@
 0000:4E52       ??_C@_08PFEJ@?0?5Size?3?5?$AA@
 0000:4C92       ??_C@_09LGPG@?$DP?5?$CIy?1n?$CJ?3?5?$AA@
 0000:4FDA       ??_C@_0BB@EEAO@Memory?5corrupted?$AA@
 0000:4CAC       ??_C@_0BC@DHAO@?$FLEsc?$FN?5?5Cancel?$AN?6?$AN?6?$AA@
 0000:4FC0       ??_C@_0BE@KCNB@?$ANCopying?5completed?4?$AA@
 0000:4CCE       ??_C@_0BG@GEFN@?5for?5hidden?5system?3?$AN?6?$AA@
 0000:4E24       ??_C@_0BH@CKJE@Bootable?5Partitions?3?$AN?6?$AA@
 0000:4EB2       ??_C@_0BH@EGEK@?$AN?6?9?5Enable?5LBA?5in?5BIOS?$AA@
 0000:4D6E       ??_C@_0BI@KFOG@Incorrect?5password?4?$AN?6?$AN?6?$AA@
 0000:4C22       ??_C@_0BJ@CIJ@?5?5?5?5Keyboard?5Controls?3?$AN?6?$AA@
 0000:4BE6       ??_C@_0BM@IDKA@No?5bootable?5partition?5found?$AA@
 0000:4D52       ??_C@_0BM@NMNK@Warning?3?5Caps?5Lock?5is?5on?4?$AN?6?$AA@
 0000:4C02       ??_C@_0CA@BGAH@?5CipherShed?5Boot?5Loader?50?47?43?$AN?6?$AA@
 0000:4CF6       ??_C@_0CA@FBFB@BIOS?5reserved?5too?5much?5memory?3?5?$AA@
 0000:4E5C       ??_C@_0CA@HAB@Press?51?99?5to?5select?5partition?3?5?$AA@
 0000:4C6E       ??_C@_0CD@GJAD@Skip?5Authentication?5?$CIBoot?5Manage@
 0000:4C48       ??_C@_0CG@HLF@Boot?5Non?9Hidden?5System?5?$CIBoot?5Man@
 0000:4E7C       ??_C@_0CI@CHP@Your?5BIOS?5does?5not?5support?5large@
 0000:4D16       ??_C@_0DM@HBD@?9?5Upgrade?5BIOS?$AN?6?9?5Use?5a?5differen@
 0000:4ECA       ??_C@_0DM@NDEP@?$AN?6Copying?5system?5to?5hidden?5volum@
 0000:4F60       ??_C@_0FB@DHKC@To?5fix?5bad?5sectors?3?51?$CJ?5Terminate@
 0000:4F06       ??_C@_0FD@OPN@?$ANIf?5aborted?0?5copying?5will?5have?5t@
 0000:4D86       ??_C@_0JO@GLOI@If?5you?5are?5sure?5the?5password?5is?5@
 0000:4C3C       ??_C@_0M@NCBA@?5?5?5?5?$FLEsc?$FN?5?5?$AA@
 0000:4FB2       ??_C@_0N@BNAP@?$ANRemaining?3?5?$AA@
 0000:4CE8       ??_C@_0N@DGHN@Booting?4?4?4?$AN?6?$AA@
 0000:4BD6       ??_C@_0N@JJKN@?5not?5found?3?5?$AA@
 0000:4E44       ??_C@_0O@LEMN@?0?5Partition?3?5?$AA@
 0000:4EA4       ??_C@_0O@PLFN@?5due?5to?5a?5bug?$AA@
 0000:4CBE       ??_C@_0P@EOMF@Enter?5password?$AA@
 0000:5040       ?ActivePartition@@3UPartition@@A
 0000:049A       ?Beep@@YAXXZ
 0000:52BA       ?BiosMemoryMap@@3QAUBiosMemoryMapEntry@@A
 0000:501E       ?BootCryptoInfo@@3PAUCRYPTO_INFO_t@@A
 0000:4FFA       ?BootDrive@@3EA
 0000:4FFC       ?BootDriveGeometry@@3UDriveGeometry@@A
 0000:4568       ?BootDriveGeometryValid@@3DA
 0000:4FF9       ?BootLoaderDrive@@3EA
 0000:4FF8       ?BootSectorFlags@@3EA
 0000:456B       ?BootStarted@@3DA
 0000:0A24       ?ChsToLba@@YAXABUDriveGeometry@@ABUChsAddress@@AATUINT64_STRUCT@@@Z
 0000:0590       ?ClearBiosKeystrokeBuffer@@YAXXZ
 0000:04B8       ?ClearScreen@@YAXXZ
 0000:26B2       ?CopyMemory@@YAXIIPAXI@Z
 0000:2694       ?CopyMemory@@YAXPAXIII@Z
 0000:5000       ?CustomUserMessage@@3QADA
 0000:02FC       ?DisableScreenOutput@@YAXXZ
 0000:0000  Unr  ?EnableScreenOutput@@YAXXZ
 0000:5020       ?EncryptedVirtualPartition@@3UPartition@@A
 0000:056E       ?EscKeyPressed@@YADXZ
 0000:456C       ?ExtraBootPartitionPresent@@3DA
 0000:0D9C       ?GetActivePartition@@YADE@Z
 0000:099C       ?GetDriveGeometry@@YAEEAAUDriveGeometry@@D@Z
 0000:0B76       ?GetDrivePartitions@@YAEEPAUPartition@@IAAID0D@Z
 0000:1CEA       ?GetFirstBiosMemoryMapEntry@@YADAAUBiosMemoryMapEntry@@@Z
 0000:052E       ?GetKeyboardChar@@YAEPAE@Z
 0000:0526       ?GetKeyboardChar@@YAEXZ
 0000:26E6       ?GetLinearAddress@@YAKII@Z
 0000:1D00       ?GetNextBiosMemoryMapEntry@@YADAAUBiosMemoryMapEntry@@@Z
 0000:0516       ?GetShiftFlags@@YAEXZ
 0000:05C0       ?GetString@@YAHPADI@Z
 0000:5088       ?HiddenVolumeStartSector@@3TUINT64_STRUCT@@A
 0000:5080       ?HiddenVolumeStartUnitNo@@3TUINT64_STRUCT@@A
 0000:04A2       ?InitVideoMode@@YAXXZ
 0000:22FE       ?InstallInterruptFilters@@YADXZ
 0000:1D1A       ?Int13Filter@@YADXZ
 0000:22DA       ?Int13FilterEntry@@YAXXZ
 0000:2110       ?Int15Filter@@YADXZ
 0000:21CA       ?IntFilterEntry@@YAXXZ
 0000:0556       ?IsKeyboardCharAvailable@@YADXZ
 0000:0614       ?IsLbaSupported@@YADE@Z
 0000:05A8       ?IsPrintable@@YADD@Z
 0000:0A6C       ?LbaToChs@@YAXABUDriveGeometry@@ABTUINT64_STRUCT@@AAUChsAddress@@@Z
 0000:501A       ?OuterVolumeBackupHeaderCrc@@3KA
 0000:0AD0       ?PartitionEntryMBRToPartition@@YAXABUPartitionEntryMBR@@AAUPartition@@@Z
 0000:5060       ?PartitionFollowingActive@@3UPartition@@A
 0000:456A       ?PreventBootMenu@@3DA
 0000:4569       ?PreventNormalSystemBoot@@3DA
 0000:03B4       ?Print@@YAXABTUINT64_STRUCT@@@Z
 0000:06C6       ?Print@@YAXABUChsAddress@@@Z
 0000:0350       ?Print@@YAXK@Z
 0000:0332       ?Print@@YAXPBD@Z
 0000:04D8       ?PrintBackspace@@YAXXZ
 0000:0302       ?PrintChar@@YAXD@Z
 0000:0318       ?PrintCharAtCursor@@YAXD@Z
 0000:0650       ?PrintDiskError@@YAXEDEPBTUINT64_STRUCT@@PBUChsAddress@@@Z
 0000:0484       ?PrintEndl@@YAXH@Z
 0000:047C       ?PrintEndl@@YAXXZ
 0000:04E6       ?PrintError@@YAXPBD@Z
 0000:0500       ?PrintErrorNoEndl@@YAXPBD@Z
 0000:0442       ?PrintHex@@YAXABTUINT64_STRUCT@@@Z
 0000:03D6       ?PrintHex@@YAXE@Z
 0000:0416       ?PrintHex@@YAXI@Z
 0000:042E       ?PrintHex@@YAXK@Z
 0000:0460       ?PrintRepeatedChar@@YAXDH@Z
 0000:0702       ?PrintSectorCountInMB@@YAXABTUINT64_STRUCT@@@Z
 0000:0272       ?ReadBootSectorUserConfiguration@@YAXXZ
 0000:0DD8       ?ReadEncryptedSectors@@YAEIIETUINT64_STRUCT@@I@Z
 0000:091A       ?ReadSectors@@YAEIIEABTUINT64_STRUCT@@ID@Z
 0000:0934       ?ReadSectors@@YAEPAEEABTUINT64_STRUCT@@ID@Z
 0000:0000  Unr  ?ReadSectors@@YAEPAEEABUChsAddress@@ED@Z
 0000:0B36       ?ReadWriteMBR@@YAEDED@Z
 0000:08F0       ?ReadWriteSectors@@YAEDIIEABTUINT64_STRUCT@@ID@Z
 0000:0724       ?ReadWriteSectors@@YAEDIIEABUChsAddress@@ED@Z
 0000:07B8       ?ReadWriteSectors@@YAEDPAEEABUChsAddress@@ED@Z
 0000:26FC       ?RegionsIntersect@@YADABTUINT64_STRUCT@@K00@Z
 0000:5090       ?SectorBuffer@@3QAEA
 0000:0000  Unr  ?TestInt64@@YADXZ
 0000:02CA       ?UpdateBootSectorConfiguration@@YAEE@Z
 0000:0F1C       ?WriteEncryptedSectors@@YAEIIETUINT64_STRUCT@@I@Z
 0000:0982       ?WriteSectors@@YAEPAEEABTUINT64_STRUCT@@ID@Z
 0000:0000  Unr  ?WriteSectors@@YAEPAEEABUChsAddress@@ED@Z
 0000:0000  Unr  _crc32_selftests
 0000:6B40       _CryptoInfoBuffer
 0000:28A4       _crypto_close
 0000:0000  Unr  _crypto_loadkey
 0000:289A       _crypto_open
 0000:28CC       _DecipherBlock
 0000:2966       _DecryptBuffer
 0000:31EA       _DecryptBufferXTS
 0000:299A       _DecryptDataUnits
 0000:2C38       _derive_key_ripemd160
 0000:2B70       _derive_u_ripemd160
 0000:28E2       _EAGetFirst
 0000:0000  Unr  _EAGetFirstCipher
 0000:2900       _EAGetKeySize
 0000:28E6       _EAGetNext
 0000:28EA       _EAInit
 0000:4FF8       _edata
 0000:28B6       _EncipherBlock
 0000:2904       _EncryptBuffer
 0000:31D0       _EncryptBufferXTS
 0000:2938       _EncryptDataUnits
 0000:8CD2       _end
 0000:26D6       _EraseMemory
 0000:288E       _GetCrc32
 0000:2CD4       _GetHeaderField16
 0000:2CE8       _GetHeaderField32
 0000:2CFE       _GetHeaderField64
 0000:0000  Unr  _get_pkcs5_iteration_count
 0000:2A30       _hmac_ripemd160
 0000:0000  Unr  _hmac_truncate
 0000:1BAC       _main
 0000:0104       _memcpy
 0000:0130       _memset
 0000:29C8       _MirrorBytes16
 0000:29D8       _MirrorBytes32
 0000:2D3E       _ReadVolumeHeader
 0000:3350       _RMD160Final
 0000:3204       _RMD160Init
 0000:33C2       _RMD160Transform
 0000:3240       _RMD160Update
 0000:27C0       _ThrowFatalException
 0000:4280       _twofish_decrypt
 0000:3F84       _twofish_encrypt
 0000:3DE8       _twofish_set_key
 0000:1BAA       __acrtused
 0000:015E       __aNlmul
 0000:0190       __aNlshl
 0000:019C       __aNuldiv
 0000:015E       __aNulmul
 0000:01FC       __aNulrem
 0000:0266       __aNulshr
 0000:4FF8       __edata
 0000:8CD2       __end
 0000:8CCA       __mbac

  Address         Publics by Value

 0000:0000  Unr  ?EnableScreenOutput@@YAXXZ
 0000:0000  Unr  _hmac_truncate
 0000:0000  Unr  _crc32_selftests
 0000:0000  Unr  ?WriteSectors@@YAEPAEEABUChsAddress@@ED@Z
 0000:0000  Unr  _get_pkcs5_iteration_count
 0000:0000  Unr  ?ReadSectors@@YAEPAEEABUChsAddress@@ED@Z
 0000:0000  Unr  _EAGetFirstCipher
 0000:0000  Unr  _crypto_loadkey
 0000:0000  Unr  ?TestInt64@@YADXZ
 0000:0104       _memcpy
 0000:0130       _memset
 0000:015E       __aNulmul
 0000:015E       __aNlmul
 0000:0190       __aNlshl
 0000:019C       __aNuldiv
 0000:01FC       __aNulrem
 0000:0266       __aNulshr
 0000:0272       ?ReadBootSectorUserConfiguration@@YAXXZ
 0000:02CA       ?UpdateBootSectorConfiguration@@YAEE@Z
 0000:02FC       ?DisableScreenOutput@@YAXXZ
 0000:0302       ?PrintChar@@YAXD@Z
 0000:0318       ?PrintCharAtCursor@@YAXD@Z
 0000:0332       ?Print@@YAXPBD@Z
 0000:0350       ?Print@@YAXK@Z
 0000:03B4       ?Print@@YAXABTUINT64_STRUCT@@@Z
 0000:03D6       ?PrintHex@@YAXE@Z
 0000:0416       ?PrintHex@@YAXI@Z
 0000:042E       ?PrintHex@@YAXK@Z
 0000:0442       ?PrintHex@@YAXABTUINT64_STRUCT@@@Z
 0000:0460       ?PrintRepeatedChar@@YAXDH@Z
 0000:047C       ?PrintEndl@@YAXXZ
 0000:0484       ?PrintEndl@@YAXH@Z
 0000:049A       ?Beep@@YAXXZ
 0000:04A2       ?InitVideoMode@@YAXXZ
 0000:04B8       ?ClearScreen@@YAXXZ
 0000:04D8       ?PrintBackspace@@YAXXZ
 0000:04E6       ?PrintError@@YAXPBD@Z
 0000:0500       ?PrintErrorNoEndl@@YAXPBD@Z
 0000:0516       ?GetShiftFlags@@YAEXZ
 0000:0526       ?GetKeyboardChar@@YAEXZ
 0000:052E       ?GetKeyboardChar@@YAEPAE@Z
 0000:0556       ?IsKeyboardCharAvailable@@YADXZ
 0000:056E       ?EscKeyPressed@@YADXZ
 0000:0590       ?ClearBiosKeystrokeBuffer@@YAXXZ
 0000:05A8       ?IsPrintable@@YADD@Z
 0000:05C0       ?GetString@@YAHPADI@Z
 0000:0614       ?IsLbaSupported@@YADE@Z
 0000:0650       ?PrintDiskError@@YAXEDEPBTUINT64_STRUCT@@PBUChsAddress@@@Z
 0000:06C6       ?Print@@YAXABUChsAddress@@@Z
 0000:0702       ?PrintSectorCountInMB@@YAXABTUINT64_STRUCT@@@Z
 0000:0724       ?ReadWriteSectors@@YAEDIIEABUChsAddress@@ED@Z
 0000:07B8       ?ReadWriteSectors@@YAEDPAEEABUChsAddress@@ED@Z
 0000:08F0       ?ReadWriteSectors@@YAEDIIEABTUINT64_STRUCT@@ID@Z
 0000:091A       ?ReadSectors@@YAEIIEABTUINT64_STRUCT@@ID@Z
 0000:0934       ?ReadSectors@@YAEPAEEABTUINT64_STRUCT@@ID@Z
 0000:0982       ?WriteSectors@@YAEPAEEABTUINT64_STRUCT@@ID@Z
 0000:099C       ?GetDriveGeometry@@YAEEAAUDriveGeometry@@D@Z
 0000:0A24       ?ChsToLba@@YAXABUDriveGeometry@@ABUChsAddress@@AATUINT64_STRUCT@@@Z
 0000:0A6C       ?LbaToChs@@YAXABUDriveGeometry@@ABTUINT64_STRUCT@@AAUChsAddress@@@Z
 0000:0AD0       ?PartitionEntryMBRToPartition@@YAXABUPartitionEntryMBR@@AAUPartition@@@Z
 0000:0B36       ?ReadWriteMBR@@YAEDED@Z
 0000:0B76       ?GetDrivePartitions@@YAEEPAUPartition@@IAAID0D@Z
 0000:0D9C       ?GetActivePartition@@YADE@Z
 0000:0DD8       ?ReadEncryptedSectors@@YAEIIETUINT64_STRUCT@@I@Z
 0000:0F1C       ?WriteEncryptedSectors@@YAEIIETUINT64_STRUCT@@I@Z
 0000:1BAA       __acrtused
 0000:1BAC       _main
 0000:1CEA       ?GetFirstBiosMemoryMapEntry@@YADAAUBiosMemoryMapEntry@@@Z
 0000:1D00       ?GetNextBiosMemoryMapEntry@@YADAAUBiosMemoryMapEntry@@@Z
 0000:1D1A       ?Int13Filter@@YADXZ
 0000:2110       ?Int15Filter@@YADXZ
 0000:21CA       ?IntFilterEntry@@YAXXZ
 0000:22DA       ?Int13FilterEntry@@YAXXZ
 0000:22FE       ?InstallInterruptFilters@@YADXZ
 0000:239A       ??H@YA?ATUINT64_STRUCT@@ABT0@0@Z
 0000:23FA       ??H@YA?ATUINT64_STRUCT@@ABT0@K@Z
 0000:2426       ??Y@YAAATUINT64_STRUCT@@AAT0@ABT0@@Z
 0000:244C       ??G@YA?ATUINT64_STRUCT@@ABT0@0@Z
 0000:24AC       ??G@YA?ATUINT64_STRUCT@@ABT0@K@Z
 0000:24D8       ??Z@YAAATUINT64_STRUCT@@AAT0@ABT0@@Z
 0000:24FE       ??5@YA?ATUINT64_STRUCT@@ABT0@H@Z
 0000:2552       ??6@YA?ATUINT64_STRUCT@@ABT0@H@Z
 0000:2592       ??E@YAAATUINT64_STRUCT@@AAT0@@Z
 0000:25B2       ??8@YADABTUINT64_STRUCT@@0@Z
 0000:25D8       ??O@YADABTUINT64_STRUCT@@0@Z
 0000:260C       ??M@YADABTUINT64_STRUCT@@0@Z
 0000:2640       ??P@YADABTUINT64_STRUCT@@0@Z
 0000:266A       ??N@YADABTUINT64_STRUCT@@0@Z
 0000:2694       ?CopyMemory@@YAXPAXIII@Z
 0000:26B2       ?CopyMemory@@YAXIIPAXI@Z
 0000:26D6       _EraseMemory
 0000:26E6       ?GetLinearAddress@@YAKII@Z
 0000:26FC       ?RegionsIntersect@@YADABTUINT64_STRUCT@@K00@Z
 0000:27C0       _ThrowFatalException
 0000:288E       _GetCrc32
 0000:289A       _crypto_open
 0000:28A4       _crypto_close
 0000:28B6       _EncipherBlock
 0000:28CC       _DecipherBlock
 0000:28E2       _EAGetFirst
 0000:28E6       _EAGetNext
 0000:28EA       _EAInit
 0000:2900       _EAGetKeySize
 0000:2904       _EncryptBuffer
 0000:2938       _EncryptDataUnits
 0000:2966       _DecryptBuffer
 0000:299A       _DecryptDataUnits
 0000:29C8       _MirrorBytes16
 0000:29D8       _MirrorBytes32
 0000:2A30       _hmac_ripemd160
 0000:2B70       _derive_u_ripemd160
 0000:2C38       _derive_key_ripemd160
 0000:2CD4       _GetHeaderField16
 0000:2CE8       _GetHeaderField32
 0000:2CFE       _GetHeaderField64
 0000:2D3E       _ReadVolumeHeader
 0000:31D0       _EncryptBufferXTS
 0000:31EA       _DecryptBufferXTS
 0000:3204       _RMD160Init
 0000:3240       _RMD160Update
 0000:3350       _RMD160Final
 0000:33C2       _RMD160Transform
 0000:3DE8       _twofish_set_key
 0000:3F84       _twofish_encrypt
 0000:4280       _twofish_decrypt
 0000:4568       ?BootDriveGeometryValid@@3DA
 0000:4569       ?PreventNormalSystemBoot@@3DA
 0000:456A       ?PreventBootMenu@@3DA
 0000:456B       ?BootStarted@@3DA
 0000:456C       ?ExtraBootPartitionPresent@@3DA
 0000:4B90       ??_C@_02PIMC@?$AN?6?$AA@
 0000:4B94       ??_C@_07MKMO@Error?3?5?$AA@
 0000:4B9C       ??_C@_05DHHK@Write?$AA@
 0000:4BA2       ??_C@_04KCBC@Read?$AA@
 0000:4BA8       ??_C@_07EIJM@?5error?3?$AA@
 0000:4BB0       ??_C@_07JBEK@?5Drive?3?$AA@
 0000:4BB8       ??_C@_08NNOK@?5Sector?3?$AA@
 0000:4BC2       ??_C@_05CLDD@?5CHS?3?$AA@
 0000:4BC8       ??_C@_04HAAB@?5MB?5?$AA@
 0000:4BCE       ??_C@_06OLBI@Drive?5?$AA@
 0000:4BD6       ??_C@_0N@JJKN@?5not?5found?3?5?$AA@
 0000:4BE4       ??_C@_00A@?$AA@
 0000:4BE6       ??_C@_0BM@IDKA@No?5bootable?5partition?5found?$AA@
 0000:4C02       ??_C@_0CA@BGAH@?5CipherShed?5Boot?5Loader?50?47?43?$AN?6?$AA@
 0000:4C22       ??_C@_0BJ@CIJ@?5?5?5?5Keyboard?5Controls?3?$AN?6?$AA@
 0000:4C3C       ??_C@_0M@NCBA@?5?5?5?5?$FLEsc?$FN?5?5?$AA@
 0000:4C48       ??_C@_0CG@HLF@Boot?5Non?9Hidden?5System?5?$CIBoot?5Man@
 0000:4C6E       ??_C@_0CD@GJAD@Skip?5Authentication?5?$CIBoot?5Manage@
 0000:4C92       ??_C@_09LGPG@?$DP?5?$CIy?1n?$CJ?3?5?$AA@
 0000:4C9C       ??_C@_03NMHE@y?$AN?6?$AA@
 0000:4CA0       ??_C@_03EDHP@n?$AN?6?$AA@
 0000:4CA4       ??_C@_01KHLB@?$FL?$AA@
 0000:4CA6       ??_C@_05EFLO@?$FN?5?5?5?5?$AA@
 0000:4CAC       ??_C@_0BC@DHAO@?$FLEsc?$FN?5?5Cancel?$AN?6?$AN?6?$AA@
 0000:4CBE       ??_C@_0P@EOMF@Enter?5password?$AA@
 0000:4CCE       ??_C@_0BG@GEFN@?5for?5hidden?5system?3?$AN?6?$AA@
 0000:4CE4       ??_C@_02HFBK@?3?5?$AA@
 0000:4CE8       ??_C@_0N@DGHN@Booting?4?4?4?$AN?6?$AA@
 0000:4CF6       ??_C@_0CA@FBFB@BIOS?5reserved?5too?5much?5memory?3?5?$AA@
 0000:4D16       ??_C@_0DM@HBD@?9?5Upgrade?5BIOS?$AN?6?9?5Use?5a?5differen@
 0000:4D52       ??_C@_0BM@NMNK@Warning?3?5Caps?5Lock?5is?5on?4?$AN?6?$AA@
 0000:4D6E       ??_C@_0BI@KFOG@Incorrect?5password?4?$AN?6?$AN?6?$AA@
 0000:4D86       ??_C@_0JO@GLOI@If?5you?5are?5sure?5the?5password?5is?5@
 0000:4E24       ??_C@_0BH@CKJE@Bootable?5Partitions?3?$AN?6?$AA@
 0000:4E3C       ??_C@_07MCKD@Drive?3?5?$AA@
 0000:4E44       ??_C@_0O@LEMN@?0?5Partition?3?5?$AA@
 0000:4E52       ??_C@_08PFEJ@?0?5Size?3?5?$AA@
 0000:4E5C       ??_C@_0CA@HAB@Press?51?99?5to?5select?5partition?3?5?$AA@
 0000:4E7C       ??_C@_0CI@CHP@Your?5BIOS?5does?5not?5support?5large@
 0000:4EA4       ??_C@_0O@PLFN@?5due?5to?5a?5bug?$AA@
 0000:4EB2       ??_C@_0BH@EGEK@?$AN?6?9?5Enable?5LBA?5in?5BIOS?$AA@
 0000:4ECA       ??_C@_0DM@NDEP@?$AN?6Copying?5system?5to?5hidden?5volum@
 0000:4F06       ??_C@_0FD@OPN@?$ANIf?5aborted?0?5copying?5will?5have?5t@
 0000:4F5A       ??_C@_05DILO@Abort?$AA@
 0000:4F60       ??_C@_0FB@DHKC@To?5fix?5bad?5sectors?3?51?$CJ?5Terminate@
 0000:4FB2       ??_C@_0N@BNAP@?$ANRemaining?3?5?$AA@
 0000:4FC0       ??_C@_0BE@KCNB@?$ANCopying?5completed?4?$AA@
 0000:4FD4       ??_C@_04PLFG@MMP?3?$AA@
 0000:4FDA       ??_C@_0BB@EEAO@Memory?5corrupted?$AA@
 0000:4FF8       __edata
 0000:4FF8       ?BootSectorFlags@@3EA
 0000:4FF8       _edata
 0000:4FF9       ?BootLoaderDrive@@3EA
 0000:4FFA       ?BootDrive@@3EA
 0000:4FFC       ?BootDriveGeometry@@3UDriveGeometry@@A
 0000:5000       ?CustomUserMessage@@3QADA
 0000:501A       ?OuterVolumeBackupHeaderCrc@@3KA
 0000:501E       ?BootCryptoInfo@@3PAUCRYPTO_INFO_t@@A
 0000:5020       ?EncryptedVirtualPartition@@3UPartition@@A
 0000:5040       ?ActivePartition@@3UPartition@@A
 0000:5060       ?PartitionFollowingActive@@3UPartition@@A
 0000:5080       ?HiddenVolumeStartUnitNo@@3TUINT64_STRUCT@@A
 0000:5088       ?HiddenVolumeStartSector@@3TUINT64_STRUCT@@A
 0000:5090       ?SectorBuffer@@3QAEA
 0000:52BA       ?BiosMemoryMap@@3QAUBiosMemoryMapEntry@@A
 0000:6B40       _CryptoInfoBuffer
 0000:8CCA       __mbac
 0000:8CD2       _end
 0000:8CD2       __end

Program entry point at 0000:0100
