; Listing generated by Microsoft (R) Optimizing Compiler Version 15.00.30729.207 

include listing.inc

INCLUDELIB OLDNAMES

PUBLIC	MirrorBytes64
; Function compile flags: /Ogspy
; File c:\users\public\desktop\projects\ciphershed\src\common\endian.c
;	COMDAT MirrorBytes64
_TEXT	SEGMENT
x$ = 8
MirrorBytes64 PROC					; COMDAT

; 31   : {

  00000	4c 8b c9	 mov	 r9, rcx

; 32   : 	uint64 n = (unsigned __int8) x;
; 33   : 	n <<= 8; n |= (unsigned __int8) (x >> 8);

  00003	48 8b c1	 mov	 rax, rcx
  00006	48 c1 e8 08	 shr	 rax, 8

; 34   : 	n <<= 8; n |= (unsigned __int8) (x >> 16);
; 35   : 	n <<= 8; n |= (unsigned __int8) (x >> 24);
; 36   : 	n <<= 8; n |= (unsigned __int8) (x >> 32);
; 37   : 	n <<= 8; n |= (unsigned __int8) (x >> 40);
; 38   : 	n <<= 8; n |= (unsigned __int8) (x >> 48);
; 39   : 	return (n << 8) | (unsigned __int8) (x >> 56);

  0000a	44 0f b6 c0	 movzx	 r8d, al
  0000e	0f b6 c1	 movzx	 eax, cl
  00011	48 c1 e0 08	 shl	 rax, 8
  00015	4c 0b c0	 or	 r8, rax
  00018	48 8b c1	 mov	 rax, rcx
  0001b	48 c1 e8 10	 shr	 rax, 16
  0001f	49 c1 e0 08	 shl	 r8, 8
  00023	0f b6 d0	 movzx	 edx, al
  00026	48 8b c1	 mov	 rax, rcx
  00029	48 c1 e8 18	 shr	 rax, 24
  0002d	4c 0b c2	 or	 r8, rdx
  00030	0f b6 c8	 movzx	 ecx, al
  00033	49 c1 e0 08	 shl	 r8, 8
  00037	49 8b c1	 mov	 rax, r9
  0003a	48 c1 e8 20	 shr	 rax, 32			; 00000020H
  0003e	4c 0b c1	 or	 r8, rcx
  00041	0f b6 c8	 movzx	 ecx, al
  00044	49 8b c1	 mov	 rax, r9
  00047	49 c1 e0 08	 shl	 r8, 8
  0004b	48 c1 e8 28	 shr	 rax, 40			; 00000028H
  0004f	4c 0b c1	 or	 r8, rcx
  00052	49 8b c9	 mov	 rcx, r9
  00055	0f b6 c0	 movzx	 eax, al
  00058	49 c1 e0 08	 shl	 r8, 8
  0005c	48 c1 e9 30	 shr	 rcx, 48			; 00000030H
  00060	49 0b c0	 or	 rax, r8
  00063	0f b6 d1	 movzx	 edx, cl
  00066	49 c1 e9 38	 shr	 r9, 56			; 00000038H
  0006a	48 c1 e0 08	 shl	 rax, 8
  0006e	48 0b c2	 or	 rax, rdx
  00071	48 c1 e0 08	 shl	 rax, 8
  00075	49 0b c1	 or	 rax, r9

; 40   : }

  00078	c3		 ret	 0
MirrorBytes64 ENDP
_TEXT	ENDS
PUBLIC	MirrorBytes32
; Function compile flags: /Ogspy
;	COMDAT MirrorBytes32
_TEXT	SEGMENT
x$ = 8
MirrorBytes32 PROC					; COMDAT

; 23   : 	unsigned __int32 n = (unsigned __int8) x;
; 24   : 	n <<= 8; n |= (unsigned __int8) (x >> 8);

  00000	8b c1		 mov	 eax, ecx

; 25   : 	n <<= 8; n |= (unsigned __int8) (x >> 16);
; 26   : 	return (n << 8) | (unsigned __int8) (x >> 24);

  00002	0f b6 d1	 movzx	 edx, cl
  00005	c1 e8 08	 shr	 eax, 8
  00008	c1 e2 08	 shl	 edx, 8
  0000b	0f b6 c0	 movzx	 eax, al
  0000e	0b c2		 or	 eax, edx
  00010	8b d1		 mov	 edx, ecx
  00012	c1 e9 18	 shr	 ecx, 24
  00015	c1 e0 08	 shl	 eax, 8
  00018	c1 ea 10	 shr	 edx, 16
  0001b	44 0f b6 c2	 movzx	 r8d, dl
  0001f	41 0b c0	 or	 eax, r8d
  00022	c1 e0 08	 shl	 eax, 8
  00025	0b c1		 or	 eax, ecx

; 27   : }

  00027	c3		 ret	 0
MirrorBytes32 ENDP
_TEXT	ENDS
PUBLIC	MirrorBytes16
; Function compile flags: /Ogspy
;	COMDAT MirrorBytes16
_TEXT	SEGMENT
x$ = 8
MirrorBytes16 PROC					; COMDAT

; 17   : 	return (x << 8) | (x >> 8);

  00000	0f b7 d1	 movzx	 edx, cx
  00003	8b c2		 mov	 eax, edx
  00005	c1 e2 08	 shl	 edx, 8
  00008	c1 e8 08	 shr	 eax, 8
  0000b	0b c2		 or	 eax, edx

; 18   : }

  0000d	c3		 ret	 0
MirrorBytes16 ENDP
END
