; Listing generated by Microsoft (R) Optimizing Compiler Version 15.00.30729.01 

	TITLE	c:\home\public\Desktop\projects\cipherShed\src\Format\Tcformat.c
	.686P
	.XMM
	include listing.inc
	.model	flat

INCLUDELIB LIBCMT
INCLUDELIB OLDNAMES

PUBLIC	??_C@_0P@GHFPNOJB@bad?5allocation?$AA@		; `string'
PUBLIC	?szVerify@@3PADA				; szVerify
PUBLIC	?lastRandPool@@3PAEA				; lastRandPool
PUBLIC	_MasterKeyGUIView
PUBLIC	?szRescueDiskISO@@3PADA				; szRescueDiskISO
PUBLIC	?randPool@@3PAEA				; randPool
PUBLIC	?BootEncStatus@@3UBootEncryptionStatus@@A	; BootEncStatus
PUBLIC	?realClusterSize@@3HA				; realClusterSize
PUBLIC	?szDiskFile@@3PADA				; szDiskFile
PUBLIC	?volumePassword@@3UPassword@@A			; volumePassword
PUBLIC	?SysEncDriveAnalysisStart@@3HA			; SysEncDriveAnalysisStart
PUBLIC	?szRawPassword@@3PADA				; szRawPassword
PUBLIC	_HeaderKeyGUIView
PUBLIC	?outRandPoolDispBuffer@@3PAEA			; outRandPoolDispBuffer
PUBLIC	?szFileName@@3PADA				; szFileName
PUBLIC	?SysEncMultiBootCfg@@3USYSENC_MULTIBOOT_CFG@@A	; SysEncMultiBootCfg
PUBLIC	?_Value@?$_Is_swap_move@U_Swap_move_tag@std@@@std@@2_NB ; std::_Is_swap_move<std::_Swap_move_tag>::_Value
PUBLIC	?collate@?$_Locbase@H@std@@2HB			; std::_Locbase<int>::collate
PUBLIC	?ctype@?$_Locbase@H@std@@2HB			; std::_Locbase<int>::ctype
PUBLIC	?monetary@?$_Locbase@H@std@@2HB			; std::_Locbase<int>::monetary
PUBLIC	?numeric@?$_Locbase@H@std@@2HB			; std::_Locbase<int>::numeric
PUBLIC	?time@?$_Locbase@H@std@@2HB			; std::_Locbase<int>::time
PUBLIC	?messages@?$_Locbase@H@std@@2HB			; std::_Locbase<int>::messages
PUBLIC	?all@?$_Locbase@H@std@@2HB			; std::_Locbase<int>::all
PUBLIC	?none@?$_Locbase@H@std@@2HB			; std::_Locbase<int>::none
PUBLIC	?table_size@?$ctype@D@std@@2IB			; std::ctype<char>::table_size
PUBLIC	?skipws@?$_Iosb@H@std@@2W4_Fmtflags@12@B	; std::_Iosb<int>::skipws
PUBLIC	?unitbuf@?$_Iosb@H@std@@2W4_Fmtflags@12@B	; std::_Iosb<int>::unitbuf
PUBLIC	?uppercase@?$_Iosb@H@std@@2W4_Fmtflags@12@B	; std::_Iosb<int>::uppercase
PUBLIC	?showbase@?$_Iosb@H@std@@2W4_Fmtflags@12@B	; std::_Iosb<int>::showbase
PUBLIC	?showpoint@?$_Iosb@H@std@@2W4_Fmtflags@12@B	; std::_Iosb<int>::showpoint
PUBLIC	?showpos@?$_Iosb@H@std@@2W4_Fmtflags@12@B	; std::_Iosb<int>::showpos
PUBLIC	?left@?$_Iosb@H@std@@2W4_Fmtflags@12@B		; std::_Iosb<int>::left
PUBLIC	?right@?$_Iosb@H@std@@2W4_Fmtflags@12@B		; std::_Iosb<int>::right
PUBLIC	?internal@?$_Iosb@H@std@@2W4_Fmtflags@12@B	; std::_Iosb<int>::internal
PUBLIC	?dec@?$_Iosb@H@std@@2W4_Fmtflags@12@B		; std::_Iosb<int>::dec
PUBLIC	?oct@?$_Iosb@H@std@@2W4_Fmtflags@12@B		; std::_Iosb<int>::oct
PUBLIC	?hex@?$_Iosb@H@std@@2W4_Fmtflags@12@B		; std::_Iosb<int>::hex
PUBLIC	?scientific@?$_Iosb@H@std@@2W4_Fmtflags@12@B	; std::_Iosb<int>::scientific
PUBLIC	?fixed@?$_Iosb@H@std@@2W4_Fmtflags@12@B		; std::_Iosb<int>::fixed
PUBLIC	?hexfloat@?$_Iosb@H@std@@2W4_Fmtflags@12@B	; std::_Iosb<int>::hexfloat
PUBLIC	?boolalpha@?$_Iosb@H@std@@2W4_Fmtflags@12@B	; std::_Iosb<int>::boolalpha
PUBLIC	?_Stdio@?$_Iosb@H@std@@2W4_Fmtflags@12@B	; std::_Iosb<int>::_Stdio
PUBLIC	?adjustfield@?$_Iosb@H@std@@2W4_Fmtflags@12@B	; std::_Iosb<int>::adjustfield
PUBLIC	?basefield@?$_Iosb@H@std@@2W4_Fmtflags@12@B	; std::_Iosb<int>::basefield
PUBLIC	?floatfield@?$_Iosb@H@std@@2W4_Fmtflags@12@B	; std::_Iosb<int>::floatfield
PUBLIC	?goodbit@?$_Iosb@H@std@@2W4_Iostate@12@B	; std::_Iosb<int>::goodbit
PUBLIC	?eofbit@?$_Iosb@H@std@@2W4_Iostate@12@B		; std::_Iosb<int>::eofbit
PUBLIC	?failbit@?$_Iosb@H@std@@2W4_Iostate@12@B	; std::_Iosb<int>::failbit
PUBLIC	?badbit@?$_Iosb@H@std@@2W4_Iostate@12@B		; std::_Iosb<int>::badbit
PUBLIC	?_Hardfail@?$_Iosb@H@std@@2W4_Iostate@12@B	; std::_Iosb<int>::_Hardfail
PUBLIC	?in@?$_Iosb@H@std@@2W4_Openmode@12@B		; std::_Iosb<int>::in
PUBLIC	?out@?$_Iosb@H@std@@2W4_Openmode@12@B		; std::_Iosb<int>::out
PUBLIC	?ate@?$_Iosb@H@std@@2W4_Openmode@12@B		; std::_Iosb<int>::ate
PUBLIC	?app@?$_Iosb@H@std@@2W4_Openmode@12@B		; std::_Iosb<int>::app
PUBLIC	?trunc@?$_Iosb@H@std@@2W4_Openmode@12@B		; std::_Iosb<int>::trunc
PUBLIC	?_Nocreate@?$_Iosb@H@std@@2W4_Openmode@12@B	; std::_Iosb<int>::_Nocreate
PUBLIC	?_Noreplace@?$_Iosb@H@std@@2W4_Openmode@12@B	; std::_Iosb<int>::_Noreplace
PUBLIC	?binary@?$_Iosb@H@std@@2W4_Openmode@12@B	; std::_Iosb<int>::binary
PUBLIC	?beg@?$_Iosb@H@std@@2W4_Seekdir@12@B		; std::_Iosb<int>::beg
PUBLIC	?cur@?$_Iosb@H@std@@2W4_Seekdir@12@B		; std::_Iosb<int>::cur
PUBLIC	?end@?$_Iosb@H@std@@2W4_Seekdir@12@B		; std::_Iosb<int>::end
PUBLIC	?value@?$integral_constant@_N$0A@@tr1@std@@2_NB	; std::tr1::integral_constant<bool,0>::value
PUBLIC	?value@?$integral_constant@_N$00@tr1@std@@2_NB	; std::tr1::integral_constant<bool,1>::value
PUBLIC	?RescueIsoImageSize@BootEncryption@CipherShed@@1IB ; CipherShed::BootEncryption::RescueIsoImageSize
PUBLIC	?BootEncObj@@3PAVBootEncryption@CipherShed@@A	; BootEncObj
PUBLIC	_hCurPage
PUBLIC	?nCurPageNo@@3HA				; nCurPageNo
PUBLIC	?nLastPageNo@@3HA				; nLastPageNo
PUBLIC	_WizardMode
PUBLIC	?bHiddenOS@@3HC					; bHiddenOS
PUBLIC	?bDirectSysEncMode@@3HA				; bDirectSysEncMode
PUBLIC	?bDirectSysEncModeCommand@@3HA			; bDirectSysEncModeCommand
PUBLIC	?DirectDeviceEncMode@@3HA			; DirectDeviceEncMode
PUBLIC	?DirectNonSysInplaceEncResumeMode@@3HA		; DirectNonSysInplaceEncResumeMode
PUBLIC	?DirectPromptNonSysInplaceEncResumeMode@@3HA	; DirectPromptNonSysInplaceEncResumeMode
PUBLIC	_bInPlaceEncNonSys
PUBLIC	_bInPlaceEncNonSysResumed
PUBLIC	_bFirstNonSysInPlaceEncResumeDone
PUBLIC	_NonSysInplaceEncBytesDone
PUBLIC	_NonSysInplaceEncTotalSize
PUBLIC	?bDeviceTransformModeChoiceMade@@3HA		; bDeviceTransformModeChoiceMade
PUBLIC	?nNeedToStoreFilesOver4GB@@3HA			; nNeedToStoreFilesOver4GB
PUBLIC	?nVolumeEA@@3HA					; nVolumeEA
PUBLIC	?bSystemEncryptionInProgress@@3HA		; bSystemEncryptionInProgress
PUBLIC	?bWholeSysDrive@@3HA				; bWholeSysDrive
PUBLIC	?bSysEncDriveAnalysisInProgress@@3HC		; bSysEncDriveAnalysisInProgress
PUBLIC	?bSysEncDriveAnalysisTimeOutOccurred@@3HC	; bSysEncDriveAnalysisTimeOutOccurred
PUBLIC	?SysEncDetectHiddenSectors@@3HA			; SysEncDetectHiddenSectors
PUBLIC	?bDontVerifyRescueDisk@@3HA			; bDontVerifyRescueDisk
PUBLIC	?bFirstSysEncResumeDone@@3HA			; bFirstSysEncResumeDone
PUBLIC	?nMultiBoot@@3HA				; nMultiBoot
PUBLIC	?bHiddenVol@@3HC				; bHiddenVol
PUBLIC	_bHiddenVolHost
PUBLIC	_bHiddenVolDirect
PUBLIC	?bHiddenVolFinished@@3HC			; bHiddenVolFinished
PUBLIC	?hiddenVolHostDriveNo@@3HA			; hiddenVolHostDriveNo
PUBLIC	_bRemovableHostDevice
PUBLIC	?hash_algo@@3HA					; hash_algo
PUBLIC	?nUIVolumeSize@@3_KA				; nUIVolumeSize
PUBLIC	?nVolumeSize@@3_KA				; nVolumeSize
PUBLIC	?nHiddenVolHostSize@@3_KA			; nHiddenVolHostSize
PUBLIC	?nMaximumHiddenVolSize@@3_JA			; nMaximumHiddenVolSize
PUBLIC	?nbrFreeClusters@@3_JA				; nbrFreeClusters
PUBLIC	?nMultiplier@@3HA				; nMultiplier
PUBLIC	?bDeviceWipeInProgress@@3HA			; bDeviceWipeInProgress
PUBLIC	?bTryToCorrectReadErrors@@3HC			; bTryToCorrectReadErrors
PUBLIC	?DiscardUnreadableEncryptedSectors@@3HC		; DiscardUnreadableEncryptedSectors
PUBLIC	_bVolTransformThreadCancel
PUBLIC	?bVolTransformThreadRunning@@3HC		; bVolTransformThreadRunning
PUBLIC	?bVolTransformThreadToRun@@3HC			; bVolTransformThreadToRun
PUBLIC	?bConfirmQuit@@3HC				; bConfirmQuit
PUBLIC	?bConfirmQuitSysEncPretest@@3HC			; bConfirmQuitSysEncPretest
PUBLIC	?bDevice@@3HA					; bDevice
PUBLIC	_showKeys
PUBLIC	_hMasterKey
PUBLIC	_hHeaderKey
PUBLIC	?hRandPool@@3RAUHWND__@@A			; hRandPool
PUBLIC	?hRandPoolSys@@3RAUHWND__@@A			; hRandPoolSys
PUBLIC	?hPasswordInputField@@3RAUHWND__@@A		; hPasswordInputField
PUBLIC	?hVerifyPasswordInputField@@3RAUHWND__@@A	; hVerifyPasswordInputField
PUBLIC	?hbmWizardBitmapRescaled@@3PAUHBITMAP__@@A	; hbmWizardBitmapRescaled
PUBLIC	?OrigKeyboardLayout@@3PADA			; OrigKeyboardLayout
PUBLIC	?bKeyboardLayoutChanged@@3HA			; bKeyboardLayoutChanged
PUBLIC	?bKeybLayoutAltKeyWarningShown@@3HA		; bKeybLayoutAltKeyWarningShown
PUBLIC	_bWarnDeviceFormatAdvanced
PUBLIC	?bWarnOuterVolSuitableFileSys@@3HA		; bWarnOuterVolSuitableFileSys
PUBLIC	?bHistoryCmdLine@@3HA				; bHistoryCmdLine
PUBLIC	?ComServerMode@@3HA				; ComServerMode
PUBLIC	_nPbar
PUBLIC	?bDisplayPoolContents@@3HA			; bDisplayPoolContents
PUBLIC	?bSparseFileSwitch@@3HC				; bSparseFileSwitch
PUBLIC	?quickFormat@@3HC				; quickFormat
PUBLIC	?fileSystem@@3HC				; fileSystem
PUBLIC	?clusterSize@@3HC				; clusterSize
PUBLIC	?SysEncMultiBootCfgOutcome@@3PA_WA		; SysEncMultiBootCfgOutcome
PUBLIC	_NonSysInplaceEncStatus
_BSS	SEGMENT
?szVerify@@3PADA DB 041H DUP (?)			; szVerify
	ALIGN	4

?lastRandPool@@3PAEA DB 078H DUP (?)			; lastRandPool
_MasterKeyGUIView DB 040H DUP (?)
?szRescueDiskISO@@3PADA DB 0105H DUP (?)		; szRescueDiskISO
	ALIGN	4

?randPool@@3PAEA DB 078H DUP (?)			; randPool
?BootEncStatus@@3UBootEncryptionStatus@@A DB 05eH DUP (?) ; BootEncStatus
	ALIGN	4

?realClusterSize@@3HA DD 01H DUP (?)			; realClusterSize
?szDiskFile@@3PADA DB 0105H DUP (?)			; szDiskFile
	ALIGN	4

?volumePassword@@3UPassword@@A DB 048H DUP (?)		; volumePassword
?SysEncDriveAnalysisStart@@3HA DD 01H DUP (?)		; SysEncDriveAnalysisStart
?szRawPassword@@3PADA DB 041H DUP (?)			; szRawPassword
	ALIGN	4

_HeaderKeyGUIView DB 040H DUP (?)
?outRandPoolDispBuffer@@3PAEA DB 0172H DUP (?)		; outRandPoolDispBuffer
	ALIGN	4

?szFileName@@3PADA DB 0105H DUP (?)			; szFileName
	ALIGN	4

?SysEncMultiBootCfg@@3USYSENC_MULTIBOOT_CFG@@A DB 014H DUP (?) ; SysEncMultiBootCfg
?BootEncObj@@3PAVBootEncryption@CipherShed@@A DD 01H DUP (?) ; BootEncObj
_hCurPage DD	01H DUP (?)
_WizardMode DD	01H DUP (?)
?bHiddenOS@@3HC DD 01H DUP (?)				; bHiddenOS
?bDirectSysEncMode@@3HA DD 01H DUP (?)			; bDirectSysEncMode
?bDirectSysEncModeCommand@@3HA DD 01H DUP (?)		; bDirectSysEncModeCommand
?DirectDeviceEncMode@@3HA DD 01H DUP (?)		; DirectDeviceEncMode
?DirectNonSysInplaceEncResumeMode@@3HA DD 01H DUP (?)	; DirectNonSysInplaceEncResumeMode
?DirectPromptNonSysInplaceEncResumeMode@@3HA DD 01H DUP (?) ; DirectPromptNonSysInplaceEncResumeMode
_bInPlaceEncNonSys DD 01H DUP (?)
_bInPlaceEncNonSysResumed DD 01H DUP (?)
_bFirstNonSysInPlaceEncResumeDone DD 01H DUP (?)
_NonSysInplaceEncBytesDone DQ 01H DUP (?)
_NonSysInplaceEncTotalSize DQ 01H DUP (?)
?bDeviceTransformModeChoiceMade@@3HA DD 01H DUP (?)	; bDeviceTransformModeChoiceMade
?nNeedToStoreFilesOver4GB@@3HA DD 01H DUP (?)		; nNeedToStoreFilesOver4GB
?bSystemEncryptionInProgress@@3HA DD 01H DUP (?)	; bSystemEncryptionInProgress
?bWholeSysDrive@@3HA DD 01H DUP (?)			; bWholeSysDrive
_bSystemEncryptionStatusChanged DD 01H DUP (?)
?bSysEncDriveAnalysisInProgress@@3HC DD 01H DUP (?)	; bSysEncDriveAnalysisInProgress
?bSysEncDriveAnalysisTimeOutOccurred@@3HC DD 01H DUP (?) ; bSysEncDriveAnalysisTimeOutOccurred
?bDontVerifyRescueDisk@@3HA DD 01H DUP (?)		; bDontVerifyRescueDisk
?bFirstSysEncResumeDone@@3HA DD 01H DUP (?)		; bFirstSysEncResumeDone
?nMultiBoot@@3HA DD 01H DUP (?)				; nMultiBoot
?bHiddenVol@@3HC DD 01H DUP (?)				; bHiddenVol
_bHiddenVolHost DD 01H DUP (?)
_bHiddenVolDirect DD 01H DUP (?)
?bHiddenVolFinished@@3HC DD 01H DUP (?)			; bHiddenVolFinished
_bRemovableHostDevice DD 01H DUP (?)
	ALIGN	8

?nUIVolumeSize@@3_KA DQ 01H DUP (?)			; nUIVolumeSize
?nVolumeSize@@3_KA DQ 01H DUP (?)			; nVolumeSize
?nHiddenVolHostSize@@3_KA DQ 01H DUP (?)		; nHiddenVolHostSize
?nMaximumHiddenVolSize@@3_JA DQ 01H DUP (?)		; nMaximumHiddenVolSize
?nbrFreeClusters@@3_JA DQ 01H DUP (?)			; nbrFreeClusters
?bDeviceWipeInProgress@@3HA DD 01H DUP (?)		; bDeviceWipeInProgress
?bTryToCorrectReadErrors@@3HC DD 01H DUP (?)		; bTryToCorrectReadErrors
?DiscardUnreadableEncryptedSectors@@3HC DD 01H DUP (?)	; DiscardUnreadableEncryptedSectors
_bVolTransformThreadCancel DD 01H DUP (?)
?bVolTransformThreadRunning@@3HC DD 01H DUP (?)		; bVolTransformThreadRunning
?bVolTransformThreadToRun@@3HC DD 01H DUP (?)		; bVolTransformThreadToRun
?bConfirmQuit@@3HC DD 01H DUP (?)			; bConfirmQuit
?bConfirmQuitSysEncPretest@@3HC DD 01H DUP (?)		; bConfirmQuitSysEncPretest
?bDevice@@3HA DD 01H DUP (?)				; bDevice
_hMasterKey DD	01H DUP (?)
_hHeaderKey DD	01H DUP (?)
?hRandPool@@3RAUHWND__@@A DD 01H DUP (?)		; hRandPool
?hRandPoolSys@@3RAUHWND__@@A DD 01H DUP (?)		; hRandPoolSys
?hPasswordInputField@@3RAUHWND__@@A DD 01H DUP (?)	; hPasswordInputField
?hVerifyPasswordInputField@@3RAUHWND__@@A DD 01H DUP (?) ; hVerifyPasswordInputField
?hbmWizardBitmapRescaled@@3PAUHBITMAP__@@A DD 01H DUP (?) ; hbmWizardBitmapRescaled
?bKeyboardLayoutChanged@@3HA DD 01H DUP (?)		; bKeyboardLayoutChanged
?bKeybLayoutAltKeyWarningShown@@3HA DD 01H DUP (?)	; bKeybLayoutAltKeyWarningShown
?bHistoryCmdLine@@3HA DD 01H DUP (?)			; bHistoryCmdLine
?ComServerMode@@3HA DD 01H DUP (?)			; ComServerMode
_nPbar	DD	01H DUP (?)
?bSparseFileSwitch@@3HC DD 01H DUP (?)			; bSparseFileSwitch
?quickFormat@@3HC DD 01H DUP (?)			; quickFormat
?fileSystem@@3HC DD 01H DUP (?)				; fileSystem
?clusterSize@@3HC DD 01H DUP (?)			; clusterSize
_NonSysInplaceEncStatus DD 01H DUP (?)
_BSS	ENDS
;	COMDAT ?RescueIsoImageSize@BootEncryption@CipherShed@@1IB
CONST	SEGMENT
?RescueIsoImageSize@BootEncryption@CipherShed@@1IB DD 01c0000H ; CipherShed::BootEncryption::RescueIsoImageSize
CONST	ENDS
;	COMDAT ?value@?$integral_constant@_N$00@tr1@std@@2_NB
CONST	SEGMENT
?value@?$integral_constant@_N$00@tr1@std@@2_NB DB 01H	; std::tr1::integral_constant<bool,1>::value
CONST	ENDS
;	COMDAT ?value@?$integral_constant@_N$0A@@tr1@std@@2_NB
CONST	SEGMENT
?value@?$integral_constant@_N$0A@@tr1@std@@2_NB DB 00H	; std::tr1::integral_constant<bool,0>::value
CONST	ENDS
;	COMDAT ?end@?$_Iosb@H@std@@2W4_Seekdir@12@B
CONST	SEGMENT
?end@?$_Iosb@H@std@@2W4_Seekdir@12@B DD 02H		; std::_Iosb<int>::end
CONST	ENDS
;	COMDAT ?cur@?$_Iosb@H@std@@2W4_Seekdir@12@B
CONST	SEGMENT
?cur@?$_Iosb@H@std@@2W4_Seekdir@12@B DD 01H		; std::_Iosb<int>::cur
CONST	ENDS
;	COMDAT ?beg@?$_Iosb@H@std@@2W4_Seekdir@12@B
CONST	SEGMENT
?beg@?$_Iosb@H@std@@2W4_Seekdir@12@B DD 00H		; std::_Iosb<int>::beg
CONST	ENDS
;	COMDAT ?binary@?$_Iosb@H@std@@2W4_Openmode@12@B
CONST	SEGMENT
?binary@?$_Iosb@H@std@@2W4_Openmode@12@B DD 020H	; std::_Iosb<int>::binary
CONST	ENDS
;	COMDAT ?_Noreplace@?$_Iosb@H@std@@2W4_Openmode@12@B
CONST	SEGMENT
?_Noreplace@?$_Iosb@H@std@@2W4_Openmode@12@B DD 080H	; std::_Iosb<int>::_Noreplace
CONST	ENDS
;	COMDAT ?_Nocreate@?$_Iosb@H@std@@2W4_Openmode@12@B
CONST	SEGMENT
?_Nocreate@?$_Iosb@H@std@@2W4_Openmode@12@B DD 040H	; std::_Iosb<int>::_Nocreate
CONST	ENDS
;	COMDAT ?trunc@?$_Iosb@H@std@@2W4_Openmode@12@B
CONST	SEGMENT
?trunc@?$_Iosb@H@std@@2W4_Openmode@12@B DD 010H		; std::_Iosb<int>::trunc
CONST	ENDS
;	COMDAT ?app@?$_Iosb@H@std@@2W4_Openmode@12@B
CONST	SEGMENT
?app@?$_Iosb@H@std@@2W4_Openmode@12@B DD 08H		; std::_Iosb<int>::app
CONST	ENDS
;	COMDAT ?ate@?$_Iosb@H@std@@2W4_Openmode@12@B
CONST	SEGMENT
?ate@?$_Iosb@H@std@@2W4_Openmode@12@B DD 04H		; std::_Iosb<int>::ate
CONST	ENDS
;	COMDAT ?out@?$_Iosb@H@std@@2W4_Openmode@12@B
CONST	SEGMENT
?out@?$_Iosb@H@std@@2W4_Openmode@12@B DD 02H		; std::_Iosb<int>::out
CONST	ENDS
;	COMDAT ?in@?$_Iosb@H@std@@2W4_Openmode@12@B
CONST	SEGMENT
?in@?$_Iosb@H@std@@2W4_Openmode@12@B DD 01H		; std::_Iosb<int>::in
CONST	ENDS
;	COMDAT ?_Hardfail@?$_Iosb@H@std@@2W4_Iostate@12@B
CONST	SEGMENT
?_Hardfail@?$_Iosb@H@std@@2W4_Iostate@12@B DD 010H	; std::_Iosb<int>::_Hardfail
CONST	ENDS
;	COMDAT ?badbit@?$_Iosb@H@std@@2W4_Iostate@12@B
CONST	SEGMENT
?badbit@?$_Iosb@H@std@@2W4_Iostate@12@B DD 04H		; std::_Iosb<int>::badbit
CONST	ENDS
;	COMDAT ?failbit@?$_Iosb@H@std@@2W4_Iostate@12@B
CONST	SEGMENT
?failbit@?$_Iosb@H@std@@2W4_Iostate@12@B DD 02H		; std::_Iosb<int>::failbit
CONST	ENDS
;	COMDAT ?eofbit@?$_Iosb@H@std@@2W4_Iostate@12@B
CONST	SEGMENT
?eofbit@?$_Iosb@H@std@@2W4_Iostate@12@B DD 01H		; std::_Iosb<int>::eofbit
CONST	ENDS
;	COMDAT ?goodbit@?$_Iosb@H@std@@2W4_Iostate@12@B
CONST	SEGMENT
?goodbit@?$_Iosb@H@std@@2W4_Iostate@12@B DD 00H		; std::_Iosb<int>::goodbit
CONST	ENDS
;	COMDAT ?floatfield@?$_Iosb@H@std@@2W4_Fmtflags@12@B
CONST	SEGMENT
?floatfield@?$_Iosb@H@std@@2W4_Fmtflags@12@B DD 03000H	; std::_Iosb<int>::floatfield
CONST	ENDS
;	COMDAT ?basefield@?$_Iosb@H@std@@2W4_Fmtflags@12@B
CONST	SEGMENT
?basefield@?$_Iosb@H@std@@2W4_Fmtflags@12@B DD 0e00H	; std::_Iosb<int>::basefield
CONST	ENDS
;	COMDAT ?adjustfield@?$_Iosb@H@std@@2W4_Fmtflags@12@B
CONST	SEGMENT
?adjustfield@?$_Iosb@H@std@@2W4_Fmtflags@12@B DD 01c0H	; std::_Iosb<int>::adjustfield
CONST	ENDS
;	COMDAT ?_Stdio@?$_Iosb@H@std@@2W4_Fmtflags@12@B
CONST	SEGMENT
?_Stdio@?$_Iosb@H@std@@2W4_Fmtflags@12@B DD 08000H	; std::_Iosb<int>::_Stdio
CONST	ENDS
;	COMDAT ?boolalpha@?$_Iosb@H@std@@2W4_Fmtflags@12@B
CONST	SEGMENT
?boolalpha@?$_Iosb@H@std@@2W4_Fmtflags@12@B DD 04000H	; std::_Iosb<int>::boolalpha
CONST	ENDS
;	COMDAT ?hexfloat@?$_Iosb@H@std@@2W4_Fmtflags@12@B
CONST	SEGMENT
?hexfloat@?$_Iosb@H@std@@2W4_Fmtflags@12@B DD 03000H	; std::_Iosb<int>::hexfloat
CONST	ENDS
;	COMDAT ?fixed@?$_Iosb@H@std@@2W4_Fmtflags@12@B
CONST	SEGMENT
?fixed@?$_Iosb@H@std@@2W4_Fmtflags@12@B DD 02000H	; std::_Iosb<int>::fixed
CONST	ENDS
;	COMDAT ?scientific@?$_Iosb@H@std@@2W4_Fmtflags@12@B
CONST	SEGMENT
?scientific@?$_Iosb@H@std@@2W4_Fmtflags@12@B DD 01000H	; std::_Iosb<int>::scientific
CONST	ENDS
;	COMDAT ?hex@?$_Iosb@H@std@@2W4_Fmtflags@12@B
CONST	SEGMENT
?hex@?$_Iosb@H@std@@2W4_Fmtflags@12@B DD 0800H		; std::_Iosb<int>::hex
CONST	ENDS
;	COMDAT ?oct@?$_Iosb@H@std@@2W4_Fmtflags@12@B
CONST	SEGMENT
?oct@?$_Iosb@H@std@@2W4_Fmtflags@12@B DD 0400H		; std::_Iosb<int>::oct
CONST	ENDS
;	COMDAT ?dec@?$_Iosb@H@std@@2W4_Fmtflags@12@B
CONST	SEGMENT
?dec@?$_Iosb@H@std@@2W4_Fmtflags@12@B DD 0200H		; std::_Iosb<int>::dec
CONST	ENDS
;	COMDAT ?internal@?$_Iosb@H@std@@2W4_Fmtflags@12@B
CONST	SEGMENT
?internal@?$_Iosb@H@std@@2W4_Fmtflags@12@B DD 0100H	; std::_Iosb<int>::internal
CONST	ENDS
;	COMDAT ?right@?$_Iosb@H@std@@2W4_Fmtflags@12@B
CONST	SEGMENT
?right@?$_Iosb@H@std@@2W4_Fmtflags@12@B DD 080H		; std::_Iosb<int>::right
CONST	ENDS
;	COMDAT ?left@?$_Iosb@H@std@@2W4_Fmtflags@12@B
CONST	SEGMENT
?left@?$_Iosb@H@std@@2W4_Fmtflags@12@B DD 040H		; std::_Iosb<int>::left
CONST	ENDS
;	COMDAT ?showpos@?$_Iosb@H@std@@2W4_Fmtflags@12@B
CONST	SEGMENT
?showpos@?$_Iosb@H@std@@2W4_Fmtflags@12@B DD 020H	; std::_Iosb<int>::showpos
CONST	ENDS
;	COMDAT ?showpoint@?$_Iosb@H@std@@2W4_Fmtflags@12@B
CONST	SEGMENT
?showpoint@?$_Iosb@H@std@@2W4_Fmtflags@12@B DD 010H	; std::_Iosb<int>::showpoint
CONST	ENDS
;	COMDAT ?showbase@?$_Iosb@H@std@@2W4_Fmtflags@12@B
CONST	SEGMENT
?showbase@?$_Iosb@H@std@@2W4_Fmtflags@12@B DD 08H	; std::_Iosb<int>::showbase
CONST	ENDS
;	COMDAT ?uppercase@?$_Iosb@H@std@@2W4_Fmtflags@12@B
CONST	SEGMENT
?uppercase@?$_Iosb@H@std@@2W4_Fmtflags@12@B DD 04H	; std::_Iosb<int>::uppercase
CONST	ENDS
;	COMDAT ?unitbuf@?$_Iosb@H@std@@2W4_Fmtflags@12@B
CONST	SEGMENT
?unitbuf@?$_Iosb@H@std@@2W4_Fmtflags@12@B DD 02H	; std::_Iosb<int>::unitbuf
CONST	ENDS
;	COMDAT ?skipws@?$_Iosb@H@std@@2W4_Fmtflags@12@B
CONST	SEGMENT
?skipws@?$_Iosb@H@std@@2W4_Fmtflags@12@B DD 01H		; std::_Iosb<int>::skipws
CONST	ENDS
;	COMDAT ?table_size@?$ctype@D@std@@2IB
CONST	SEGMENT
?table_size@?$ctype@D@std@@2IB DD 0100H			; std::ctype<char>::table_size
CONST	ENDS
;	COMDAT ?none@?$_Locbase@H@std@@2HB
CONST	SEGMENT
?none@?$_Locbase@H@std@@2HB DD 00H			; std::_Locbase<int>::none
CONST	ENDS
;	COMDAT ?all@?$_Locbase@H@std@@2HB
CONST	SEGMENT
?all@?$_Locbase@H@std@@2HB DD 03fH			; std::_Locbase<int>::all
CONST	ENDS
;	COMDAT ?messages@?$_Locbase@H@std@@2HB
CONST	SEGMENT
?messages@?$_Locbase@H@std@@2HB DD 020H			; std::_Locbase<int>::messages
CONST	ENDS
;	COMDAT ?time@?$_Locbase@H@std@@2HB
CONST	SEGMENT
?time@?$_Locbase@H@std@@2HB DD 010H			; std::_Locbase<int>::time
CONST	ENDS
;	COMDAT ?numeric@?$_Locbase@H@std@@2HB
CONST	SEGMENT
?numeric@?$_Locbase@H@std@@2HB DD 08H			; std::_Locbase<int>::numeric
CONST	ENDS
;	COMDAT ?monetary@?$_Locbase@H@std@@2HB
CONST	SEGMENT
?monetary@?$_Locbase@H@std@@2HB DD 04H			; std::_Locbase<int>::monetary
CONST	ENDS
;	COMDAT ?ctype@?$_Locbase@H@std@@2HB
CONST	SEGMENT
?ctype@?$_Locbase@H@std@@2HB DD 02H			; std::_Locbase<int>::ctype
CONST	ENDS
;	COMDAT ?collate@?$_Locbase@H@std@@2HB
CONST	SEGMENT
?collate@?$_Locbase@H@std@@2HB DD 01H			; std::_Locbase<int>::collate
CONST	ENDS
_DATA	SEGMENT
__bad_alloc_Message DD FLAT:??_C@_0P@GHFPNOJB@bad?5allocation?$AA@
?nCurPageNo@@3HA DD 0ffffffffH				; nCurPageNo
?nLastPageNo@@3HA DD 0ffffffffH				; nLastPageNo
?nVolumeEA@@3HA DD 01H					; nVolumeEA
?SysEncDetectHiddenSectors@@3HA DD 0ffffffffH		; SysEncDetectHiddenSectors
?hiddenVolHostDriveNo@@3HA DD 0ffffffffH		; hiddenVolHostDriveNo
?hash_algo@@3HA DD 01H					; hash_algo
?nMultiplier@@3HA DD 0100000H				; nMultiplier
_showKeys DD	01H
?OrigKeyboardLayout@@3PADA DB '00000409', 00H		; OrigKeyboardLayout
	ORG $+3
_bWarnDeviceFormatAdvanced DD 01H
?bWarnOuterVolSuitableFileSys@@3HA DD 01H		; bWarnOuterVolSuitableFileSys
?bDisplayPoolContents@@3HA DD 01H			; bDisplayPoolContents
	ORG $+4
?SysEncMultiBootCfgOutcome@@3PA_WA DW 04eH		; SysEncMultiBootCfgOutcome
	DW	02fH
	DW	041H
	DW	00H
	ORG $+8184
_DATA	ENDS
;	COMDAT ??_C@_0P@GHFPNOJB@bad?5allocation?$AA@
CONST	SEGMENT
??_C@_0P@GHFPNOJB@bad?5allocation?$AA@ DB 'bad allocation', 00H ; `string'
CONST	ENDS
;	COMDAT ?_Value@?$_Is_swap_move@U_Swap_move_tag@std@@@std@@2_NB
CONST	SEGMENT
?_Value@?$_Is_swap_move@U_Swap_move_tag@std@@@std@@2_NB DB 01H ; std::_Is_swap_move<std::_Swap_move_tag>::_Value
CONST	ENDS
PUBLIC	?strstr@@YAPADPADPBD@Z				; strstr
EXTRN	_strstr:PROC
; Function compile flags: /Ogtpy
; File c:\program files (x86)\microsoft visual studio 9.0\vc\include\string.h
;	COMDAT ?strstr@@YAPADPADPBD@Z
_TEXT	SEGMENT
__Str$ = 8						; size = 4
__SubStr$ = 12						; size = 4
?strstr@@YAPADPADPBD@Z PROC				; strstr, COMDAT

; 190  : 	{ return (char*)strstr((const char*)_Str, _SubStr); }

  00000	e9 00 00 00 00	 jmp	 _strstr
?strstr@@YAPADPADPBD@Z ENDP				; strstr
_TEXT	ENDS
PUBLIC	_RtlSecureZeroMemory
; Function compile flags: /Ogtpy
; File c:\program files\microsoft sdks\windows\v7.1\include\winnt.h
;	COMDAT _RtlSecureZeroMemory
_TEXT	SEGMENT
_ptr$ = 8						; size = 4
_cnt$ = 12						; size = 4
_RtlSecureZeroMemory PROC				; COMDAT

; 13070:     volatile char *vptr = (volatile char *)ptr;
; 13071: 
; 13072: #if defined(_M_AMD64)
; 13073: 
; 13074:         __stosb((PBYTE )((DWORD64)vptr), 0, cnt);
; 13075: 
; 13076: #else
; 13077: 
; 13078:     while (cnt) {

  00000	8b 54 24 08	 mov	 edx, DWORD PTR _cnt$[esp-4]
  00004	8b 44 24 04	 mov	 eax, DWORD PTR _ptr$[esp-4]
  00008	8b c8		 mov	 ecx, eax
  0000a	85 d2		 test	 edx, edx
  0000c	74 0b		 je	 SHORT $LN1@RtlSecureZ
  0000e	8b ff		 npad	 2
$LL2@RtlSecureZ:

; 13079:         *vptr = 0;

  00010	c6 01 00	 mov	 BYTE PTR [ecx], 0

; 13080:         vptr++;

  00013	41		 inc	 ecx

; 13081:         cnt--;

  00014	83 ea 01	 sub	 edx, 1
  00017	75 f7		 jne	 SHORT $LL2@RtlSecureZ
$LN1@RtlSecureZ:

; 13082:     }
; 13083: 
; 13084: #endif
; 13085: 
; 13086:     return ptr;
; 13087: }

  00019	c3		 ret	 0
_RtlSecureZeroMemory ENDP
_TEXT	ENDS
PUBLIC	?swprintf@@YAHPA_WPB_WZZ			; swprintf
EXTRN	__vswprintf:PROC
; Function compile flags: /Ogtpy
; File c:\program files (x86)\microsoft visual studio 9.0\vc\include\swprintf.inl
;	COMDAT ?swprintf@@YAHPA_WPB_WZZ
_TEXT	SEGMENT
__String$ = 8						; size = 4
__Format$ = 12						; size = 4
?swprintf@@YAHPA_WPB_WZZ PROC				; swprintf, COMDAT

; 87   :     va_list _Arglist;
; 88   :     _crt_va_start(_Arglist, _Format);
; 89   :     int _Ret = _vswprintf(_String, _Format, _Arglist);

  00000	8b 4c 24 08	 mov	 ecx, DWORD PTR __Format$[esp-4]
  00004	8b 54 24 04	 mov	 edx, DWORD PTR __String$[esp-4]
  00008	8d 44 24 0c	 lea	 eax, DWORD PTR __Format$[esp]
  0000c	50		 push	 eax
  0000d	51		 push	 ecx
  0000e	52		 push	 edx
  0000f	e8 00 00 00 00	 call	 __vswprintf
  00014	83 c4 0c	 add	 esp, 12			; 0000000cH

; 90   :     _crt_va_end(_Arglist);
; 91   :     return _Ret;
; 92   : }

  00017	c3		 ret	 0
?swprintf@@YAHPA_WPB_WZZ ENDP				; swprintf
_TEXT	ENDS
PUBLIC	_wmemcpy_s
EXTRN	_memcpy_s:PROC
; Function compile flags: /Ogtpy
; File c:\program files (x86)\microsoft visual studio 9.0\vc\include\wchar.h
;	COMDAT _wmemcpy_s
_TEXT	SEGMENT
__S1$ = 8						; size = 4
__N1$ = 12						; size = 4
__S2$ = 16						; size = 4
__N$ = 20						; size = 4
_wmemcpy_s PROC						; COMDAT

; 1232 : #pragma warning( push )
; 1233 : #pragma warning( disable : 6386 )
; 1234 :             return memcpy_s(_S1, _N1*sizeof(wchar_t), _S2, _N*sizeof(wchar_t));

  00000	8b 44 24 10	 mov	 eax, DWORD PTR __N$[esp-4]
  00004	8d 0c 00	 lea	 ecx, DWORD PTR [eax+eax]
  00007	89 4c 24 10	 mov	 DWORD PTR __N$[esp-4], ecx
  0000b	8b 44 24 08	 mov	 eax, DWORD PTR __N1$[esp-4]
  0000f	8d 0c 00	 lea	 ecx, DWORD PTR [eax+eax]
  00012	89 4c 24 08	 mov	 DWORD PTR __N1$[esp-4], ecx
  00016	e9 00 00 00 00	 jmp	 _memcpy_s
_wmemcpy_s ENDP
_TEXT	ENDS
PUBLIC	_wmemmove_s
EXTRN	_memmove_s:PROC
; Function compile flags: /Ogtpy
;	COMDAT _wmemmove_s
_TEXT	SEGMENT
__S1$ = 8						; size = 4
__N1$ = 12						; size = 4
__S2$ = 16						; size = 4
__N$ = 20						; size = 4
_wmemmove_s PROC					; COMDAT

; 1252 : #pragma warning( push )
; 1253 : #pragma warning( disable : 6386 )
; 1254 :             return memmove_s(_S1, _N1*sizeof(wchar_t), _S2, _N*sizeof(wchar_t));

  00000	8b 44 24 10	 mov	 eax, DWORD PTR __N$[esp-4]
  00004	8d 0c 00	 lea	 ecx, DWORD PTR [eax+eax]
  00007	89 4c 24 10	 mov	 DWORD PTR __N$[esp-4], ecx
  0000b	8b 44 24 08	 mov	 eax, DWORD PTR __N1$[esp-4]
  0000f	8d 0c 00	 lea	 ecx, DWORD PTR [eax+eax]
  00012	89 4c 24 08	 mov	 DWORD PTR __N1$[esp-4], ecx
  00016	e9 00 00 00 00	 jmp	 _memmove_s
_wmemmove_s ENDP
_TEXT	ENDS
PUBLIC	?assign@?$char_traits@_W@std@@SAXAA_WAB_W@Z	; std::char_traits<wchar_t>::assign
; Function compile flags: /Ogtpy
; File c:\program files (x86)\microsoft visual studio 9.0\vc\include\iosfwd
;	COMDAT ?assign@?$char_traits@_W@std@@SAXAA_WAB_W@Z
_TEXT	SEGMENT
__Left$ = 8						; size = 4
__Right$ = 12						; size = 4
?assign@?$char_traits@_W@std@@SAXAA_WAB_W@Z PROC	; std::char_traits<wchar_t>::assign, COMDAT

; 310  : 		_Left = _Right;

  00000	8b 44 24 08	 mov	 eax, DWORD PTR __Right$[esp-4]
  00004	66 8b 08	 mov	 cx, WORD PTR [eax]
  00007	8b 54 24 04	 mov	 edx, DWORD PTR __Left$[esp-4]
  0000b	66 89 0a	 mov	 WORD PTR [edx], cx

; 311  : 		}

  0000e	c3		 ret	 0
?assign@?$char_traits@_W@std@@SAXAA_WAB_W@Z ENDP	; std::char_traits<wchar_t>::assign
_TEXT	ENDS
PUBLIC	?length@?$char_traits@_W@std@@SAIPB_W@Z		; std::char_traits<wchar_t>::length
; Function compile flags: /Ogtpy
;	COMDAT ?length@?$char_traits@_W@std@@SAIPB_W@Z
_TEXT	SEGMENT
__First$ = 8						; size = 4
?length@?$char_traits@_W@std@@SAIPB_W@Z PROC		; std::char_traits<wchar_t>::length, COMDAT

; 333  : //		_DEBUG_POINTER(_First);
; 334  : 		return (::wcslen(_First));

  00000	8b 44 24 04	 mov	 eax, DWORD PTR __First$[esp-4]
  00004	8d 50 02	 lea	 edx, DWORD PTR [eax+2]
$LL3@length:
  00007	66 8b 08	 mov	 cx, WORD PTR [eax]
  0000a	83 c0 02	 add	 eax, 2
  0000d	66 85 c9	 test	 cx, cx
  00010	75 f5		 jne	 SHORT $LL3@length
  00012	2b c2		 sub	 eax, edx
  00014	d1 f8		 sar	 eax, 1

; 335  : 		}

  00016	c3		 ret	 0
?length@?$char_traits@_W@std@@SAIPB_W@Z ENDP		; std::char_traits<wchar_t>::length
_TEXT	ENDS
PUBLIC	?_Copy_s@?$char_traits@_W@std@@SAPA_WPA_WIPB_WI@Z ; std::char_traits<wchar_t>::_Copy_s
; Function compile flags: /Ogtpy
;	COMDAT ?_Copy_s@?$char_traits@_W@std@@SAPA_WPA_WIPB_WI@Z
_TEXT	SEGMENT
__First1$ = 8						; size = 4
__Size_in_words$ = 12					; size = 4
__First2$ = 16						; size = 4
__Count$ = 20						; size = 4
?_Copy_s@?$char_traits@_W@std@@SAPA_WPA_WIPB_WI@Z PROC	; std::char_traits<wchar_t>::_Copy_s, COMDAT

; 348  : //		_DEBUG_POINTER(_First1);
; 349  : //		_DEBUG_POINTER(_First2);
; 350  : 		_CRT_SECURE_WMEMCPY(_First1, _Size_in_words, _First2, _Count);

  00000	8b 44 24 10	 mov	 eax, DWORD PTR __Count$[esp-4]
  00004	8b 54 24 0c	 mov	 edx, DWORD PTR __First2$[esp-4]
  00008	56		 push	 esi
  00009	8b 74 24 08	 mov	 esi, DWORD PTR __First1$[esp]
  0000d	8d 0c 00	 lea	 ecx, DWORD PTR [eax+eax]
  00010	8b 44 24 0c	 mov	 eax, DWORD PTR __Size_in_words$[esp]
  00014	51		 push	 ecx
  00015	52		 push	 edx
  00016	8d 0c 00	 lea	 ecx, DWORD PTR [eax+eax]
  00019	51		 push	 ecx
  0001a	56		 push	 esi
  0001b	e8 00 00 00 00	 call	 _memcpy_s
  00020	83 c4 10	 add	 esp, 16			; 00000010H

; 351  : 		return _First1;

  00023	8b c6		 mov	 eax, esi
  00025	5e		 pop	 esi

; 352  : 		}

  00026	c3		 ret	 0
?_Copy_s@?$char_traits@_W@std@@SAPA_WPA_WIPB_WI@Z ENDP	; std::char_traits<wchar_t>::_Copy_s
_TEXT	ENDS
PUBLIC	?_Move_s@?$char_traits@_W@std@@SAPA_WPA_WIPB_WI@Z ; std::char_traits<wchar_t>::_Move_s
; Function compile flags: /Ogtpy
;	COMDAT ?_Move_s@?$char_traits@_W@std@@SAPA_WPA_WIPB_WI@Z
_TEXT	SEGMENT
__First1$ = 8						; size = 4
__Size_in_words$ = 12					; size = 4
__First2$ = 16						; size = 4
__Count$ = 20						; size = 4
?_Move_s@?$char_traits@_W@std@@SAPA_WPA_WIPB_WI@Z PROC	; std::char_traits<wchar_t>::_Move_s, COMDAT

; 372  : //		_DEBUG_POINTER(_First1);
; 373  : //		_DEBUG_POINTER(_First2);
; 374  : 		_CRT_SECURE_WMEMMOVE(_First1, _Size_in_words, _First2, _Count);

  00000	8b 44 24 10	 mov	 eax, DWORD PTR __Count$[esp-4]
  00004	8b 54 24 0c	 mov	 edx, DWORD PTR __First2$[esp-4]
  00008	56		 push	 esi
  00009	8b 74 24 08	 mov	 esi, DWORD PTR __First1$[esp]
  0000d	8d 0c 00	 lea	 ecx, DWORD PTR [eax+eax]
  00010	8b 44 24 0c	 mov	 eax, DWORD PTR __Size_in_words$[esp]
  00014	51		 push	 ecx
  00015	52		 push	 edx
  00016	8d 0c 00	 lea	 ecx, DWORD PTR [eax+eax]
  00019	51		 push	 ecx
  0001a	56		 push	 esi
  0001b	e8 00 00 00 00	 call	 _memmove_s
  00020	83 c4 10	 add	 esp, 16			; 00000010H

; 375  : 		return (_Elem *)_First1;

  00023	8b c6		 mov	 eax, esi
  00025	5e		 pop	 esi

; 376  : 		}

  00026	c3		 ret	 0
?_Move_s@?$char_traits@_W@std@@SAPA_WPA_WIPB_WI@Z ENDP	; std::char_traits<wchar_t>::_Move_s
_TEXT	ENDS
PUBLIC	?to_int_type@?$char_traits@_W@std@@SAGAB_W@Z	; std::char_traits<wchar_t>::to_int_type
; Function compile flags: /Ogtpy
;	COMDAT ?to_int_type@?$char_traits@_W@std@@SAGAB_W@Z
_TEXT	SEGMENT
__Ch$ = 8						; size = 4
?to_int_type@?$char_traits@_W@std@@SAGAB_W@Z PROC	; std::char_traits<wchar_t>::to_int_type, COMDAT

; 391  : 		return (_Ch);

  00000	8b 44 24 04	 mov	 eax, DWORD PTR __Ch$[esp-4]
  00004	66 8b 00	 mov	 ax, WORD PTR [eax]

; 392  : 		}

  00007	c3		 ret	 0
?to_int_type@?$char_traits@_W@std@@SAGAB_W@Z ENDP	; std::char_traits<wchar_t>::to_int_type
_TEXT	ENDS
PUBLIC	?eq_int_type@?$char_traits@_W@std@@SA_NABG0@Z	; std::char_traits<wchar_t>::eq_int_type
; Function compile flags: /Ogtpy
;	COMDAT ?eq_int_type@?$char_traits@_W@std@@SA_NABG0@Z
_TEXT	SEGMENT
__Left$ = 8						; size = 4
__Right$ = 12						; size = 4
?eq_int_type@?$char_traits@_W@std@@SA_NABG0@Z PROC	; std::char_traits<wchar_t>::eq_int_type, COMDAT

; 397  : 		return (_Left == _Right);

  00000	8b 44 24 04	 mov	 eax, DWORD PTR __Left$[esp-4]
  00004	66 8b 08	 mov	 cx, WORD PTR [eax]
  00007	8b 54 24 08	 mov	 edx, DWORD PTR __Right$[esp-4]
  0000b	33 c0		 xor	 eax, eax
  0000d	66 3b 0a	 cmp	 cx, WORD PTR [edx]
  00010	0f 94 c0	 sete	 al

; 398  : 		}

  00013	c3		 ret	 0
?eq_int_type@?$char_traits@_W@std@@SA_NABG0@Z ENDP	; std::char_traits<wchar_t>::eq_int_type
_TEXT	ENDS
PUBLIC	?eof@?$char_traits@_W@std@@SAGXZ		; std::char_traits<wchar_t>::eof
; Function compile flags: /Ogtpy
;	COMDAT ?eof@?$char_traits@_W@std@@SAGXZ
_TEXT	SEGMENT
?eof@?$char_traits@_W@std@@SAGXZ PROC			; std::char_traits<wchar_t>::eof, COMDAT

; 402  : 		return (WEOF);

  00000	b8 ff ff 00 00	 mov	 eax, 65535		; 0000ffffH

; 403  : 		}

  00005	c3		 ret	 0
?eof@?$char_traits@_W@std@@SAGXZ ENDP			; std::char_traits<wchar_t>::eof
_TEXT	ENDS
PUBLIC	?assign@?$char_traits@D@std@@SAXAADABD@Z	; std::char_traits<char>::assign
; Function compile flags: /Ogtpy
;	COMDAT ?assign@?$char_traits@D@std@@SAXAADABD@Z
_TEXT	SEGMENT
__Left$ = 8						; size = 4
__Right$ = 12						; size = 4
?assign@?$char_traits@D@std@@SAXAADABD@Z PROC		; std::char_traits<char>::assign, COMDAT

; 425  : 		_Left = _Right;

  00000	8b 44 24 08	 mov	 eax, DWORD PTR __Right$[esp-4]
  00004	8a 08		 mov	 cl, BYTE PTR [eax]
  00006	8b 54 24 04	 mov	 edx, DWORD PTR __Left$[esp-4]
  0000a	88 0a		 mov	 BYTE PTR [edx], cl

; 426  : 		}

  0000c	c3		 ret	 0
?assign@?$char_traits@D@std@@SAXAADABD@Z ENDP		; std::char_traits<char>::assign
_TEXT	ENDS
PUBLIC	?length@?$char_traits@D@std@@SAIPBD@Z		; std::char_traits<char>::length
; Function compile flags: /Ogtpy
;	COMDAT ?length@?$char_traits@D@std@@SAIPBD@Z
_TEXT	SEGMENT
__First$ = 8						; size = 4
?length@?$char_traits@D@std@@SAIPBD@Z PROC		; std::char_traits<char>::length, COMDAT

; 448  : //		_DEBUG_POINTER(_First);
; 449  : 		return (::strlen(_First));

  00000	8b 44 24 04	 mov	 eax, DWORD PTR __First$[esp-4]
  00004	8d 50 01	 lea	 edx, DWORD PTR [eax+1]
$LL3@length@2:
  00007	8a 08		 mov	 cl, BYTE PTR [eax]
  00009	40		 inc	 eax
  0000a	84 c9		 test	 cl, cl
  0000c	75 f9		 jne	 SHORT $LL3@length@2
  0000e	2b c2		 sub	 eax, edx

; 450  : 		}

  00010	c3		 ret	 0
?length@?$char_traits@D@std@@SAIPBD@Z ENDP		; std::char_traits<char>::length
_TEXT	ENDS
PUBLIC	?_Copy_s@?$char_traits@D@std@@SAPADPADIPBDI@Z	; std::char_traits<char>::_Copy_s
; Function compile flags: /Ogtpy
;	COMDAT ?_Copy_s@?$char_traits@D@std@@SAPADPADIPBDI@Z
_TEXT	SEGMENT
__First1$ = 8						; size = 4
__Size_in_bytes$ = 12					; size = 4
__First2$ = 16						; size = 4
__Count$ = 20						; size = 4
?_Copy_s@?$char_traits@D@std@@SAPADPADIPBDI@Z PROC	; std::char_traits<char>::_Copy_s, COMDAT

; 463  : //		_DEBUG_POINTER(_First1);
; 464  : //		_DEBUG_POINTER(_First2);
; 465  : 		_CRT_SECURE_MEMCPY(_First1, _Size_in_bytes, _First2, _Count);

  00000	8b 44 24 10	 mov	 eax, DWORD PTR __Count$[esp-4]
  00004	8b 4c 24 0c	 mov	 ecx, DWORD PTR __First2$[esp-4]
  00008	8b 54 24 08	 mov	 edx, DWORD PTR __Size_in_bytes$[esp-4]
  0000c	56		 push	 esi
  0000d	8b 74 24 08	 mov	 esi, DWORD PTR __First1$[esp]
  00011	50		 push	 eax
  00012	51		 push	 ecx
  00013	52		 push	 edx
  00014	56		 push	 esi
  00015	e8 00 00 00 00	 call	 _memcpy_s
  0001a	83 c4 10	 add	 esp, 16			; 00000010H

; 466  : 		return _First1;

  0001d	8b c6		 mov	 eax, esi
  0001f	5e		 pop	 esi

; 467  : 		}

  00020	c3		 ret	 0
?_Copy_s@?$char_traits@D@std@@SAPADPADIPBDI@Z ENDP	; std::char_traits<char>::_Copy_s
_TEXT	ENDS
PUBLIC	?_Move_s@?$char_traits@D@std@@SAPADPADIPBDI@Z	; std::char_traits<char>::_Move_s
; Function compile flags: /Ogtpy
;	COMDAT ?_Move_s@?$char_traits@D@std@@SAPADPADIPBDI@Z
_TEXT	SEGMENT
__First1$ = 8						; size = 4
__Size_in_bytes$ = 12					; size = 4
__First2$ = 16						; size = 4
__Count$ = 20						; size = 4
?_Move_s@?$char_traits@D@std@@SAPADPADIPBDI@Z PROC	; std::char_traits<char>::_Move_s, COMDAT

; 487  : //		_DEBUG_POINTER(_First1);
; 488  : //		_DEBUG_POINTER(_First2);
; 489  : 		_CRT_SECURE_MEMMOVE(_First1, _Size_in_bytes, _First2, _Count);

  00000	8b 44 24 10	 mov	 eax, DWORD PTR __Count$[esp-4]
  00004	8b 4c 24 0c	 mov	 ecx, DWORD PTR __First2$[esp-4]
  00008	8b 54 24 08	 mov	 edx, DWORD PTR __Size_in_bytes$[esp-4]
  0000c	56		 push	 esi
  0000d	8b 74 24 08	 mov	 esi, DWORD PTR __First1$[esp]
  00011	50		 push	 eax
  00012	51		 push	 ecx
  00013	52		 push	 edx
  00014	56		 push	 esi
  00015	e8 00 00 00 00	 call	 _memmove_s
  0001a	83 c4 10	 add	 esp, 16			; 00000010H

; 490  : 		return _First1;

  0001d	8b c6		 mov	 eax, esi
  0001f	5e		 pop	 esi

; 491  : 		}

  00020	c3		 ret	 0
?_Move_s@?$char_traits@D@std@@SAPADPADIPBDI@Z ENDP	; std::char_traits<char>::_Move_s
_TEXT	ENDS
PUBLIC	??0_Aux_cont@std@@QAE@QBV_Container_base_aux@1@@Z ; std::_Aux_cont::_Aux_cont
; Function compile flags: /Ogtpy
; File c:\program files (x86)\microsoft visual studio 9.0\vc\include\xutility
;	COMDAT ??0_Aux_cont@std@@QAE@QBV_Container_base_aux@1@@Z
_TEXT	SEGMENT
__Pcont$ = 8						; size = 4
??0_Aux_cont@std@@QAE@QBV_Container_base_aux@1@@Z PROC	; std::_Aux_cont::_Aux_cont, COMDAT
; _this$ = ecx

; 364  : 	explicit _Aux_cont(const _Container_base_aux * const _Pcont)

  00000	8b c1		 mov	 eax, ecx
  00002	8b 4c 24 04	 mov	 ecx, DWORD PTR __Pcont$[esp-4]
  00006	89 08		 mov	 DWORD PTR [eax], ecx
  00008	c2 04 00	 ret	 4
??0_Aux_cont@std@@QAE@QBV_Container_base_aux@1@@Z ENDP	; std::_Aux_cont::_Aux_cont
_TEXT	ENDS
PUBLIC	?_Getcont@_Aux_cont@std@@QBEPBV_Container_base_aux@2@XZ ; std::_Aux_cont::_Getcont
; Function compile flags: /Ogtpy
;	COMDAT ?_Getcont@_Aux_cont@std@@QBEPBV_Container_base_aux@2@XZ
_TEXT	SEGMENT
?_Getcont@_Aux_cont@std@@QBEPBV_Container_base_aux@2@XZ PROC ; std::_Aux_cont::_Getcont, COMDAT
; _this$ = ecx

; 369  : 		return _Mycontainer;

  00000	8b 01		 mov	 eax, DWORD PTR [ecx]

; 370  : 		}

  00002	c3		 ret	 0
?_Getcont@_Aux_cont@std@@QBEPBV_Container_base_aux@2@XZ ENDP ; std::_Aux_cont::_Getcont
_TEXT	ENDS
PUBLIC	??0_Container_base_aux@std@@QAE@XZ		; std::_Container_base_aux::_Container_base_aux
; Function compile flags: /Ogtpy
;	COMDAT ??0_Container_base_aux@std@@QAE@XZ
_TEXT	SEGMENT
??0_Container_base_aux@std@@QAE@XZ PROC			; std::_Container_base_aux::_Container_base_aux, COMDAT
; _this$ = ecx

; 379  : 	_Container_base_aux()

  00000	8b c1		 mov	 eax, ecx

; 380  : 		{
; 381  : 		// Do nothing: _Container_base_aux_alloc_real() will construct the aux object.
; 382  : 		}

  00002	c3		 ret	 0
??0_Container_base_aux@std@@QAE@XZ ENDP			; std::_Container_base_aux::_Container_base_aux
_TEXT	ENDS
PUBLIC	??1_Container_base_aux@std@@QAE@XZ		; std::_Container_base_aux::~_Container_base_aux
; Function compile flags: /Ogtpy
;	COMDAT ??1_Container_base_aux@std@@QAE@XZ
_TEXT	SEGMENT
??1_Container_base_aux@std@@QAE@XZ PROC			; std::_Container_base_aux::~_Container_base_aux, COMDAT
; _this$ = ecx

; 403  : 		// Do nothing: ~_Container_base_aux_alloc_real() previously destroyed the aux object.
; 404  : 		}

  00000	c3		 ret	 0
??1_Container_base_aux@std@@QAE@XZ ENDP			; std::_Container_base_aux::~_Container_base_aux
_TEXT	ENDS
PUBLIC	??0_Iterator_base_aux@std@@QAE@XZ		; std::_Iterator_base_aux::_Iterator_base_aux
; Function compile flags: /Ogtpy
;	COMDAT ??0_Iterator_base_aux@std@@QAE@XZ
_TEXT	SEGMENT
??0_Iterator_base_aux@std@@QAE@XZ PROC			; std::_Iterator_base_aux::_Iterator_base_aux, COMDAT
; _this$ = ecx

; 448  : 	_Iterator_base_aux()

  00000	8b c1		 mov	 eax, ecx
  00002	c7 00 00 00 00
	00		 mov	 DWORD PTR [eax], 0
  00008	c3		 ret	 0
??0_Iterator_base_aux@std@@QAE@XZ ENDP			; std::_Iterator_base_aux::_Iterator_base_aux
_TEXT	ENDS
PUBLIC	?_Set_container@_Iterator_base_aux@std@@QAEXQBV_Container_base_aux@2@@Z ; std::_Iterator_base_aux::_Set_container
; Function compile flags: /Ogtpy
;	COMDAT ?_Set_container@_Iterator_base_aux@std@@QAEXQBV_Container_base_aux@2@@Z
_TEXT	SEGMENT
__Pcont$ = 8						; size = 4
?_Set_container@_Iterator_base_aux@std@@QAEXQBV_Container_base_aux@2@@Z PROC ; std::_Iterator_base_aux::_Set_container, COMDAT
; _this$ = ecx

; 453  : 		_Myaux = _Pcont->_Myownedaux;

  00000	8b 44 24 04	 mov	 eax, DWORD PTR __Pcont$[esp-4]
  00004	8b 10		 mov	 edx, DWORD PTR [eax]
  00006	89 11		 mov	 DWORD PTR [ecx], edx

; 454  : 		}

  00008	c2 04 00	 ret	 4
?_Set_container@_Iterator_base_aux@std@@QAEXQBV_Container_base_aux@2@@Z ENDP ; std::_Iterator_base_aux::_Set_container
_TEXT	ENDS
PUBLIC	?_Getmycont@_Iterator_base_aux@std@@QBEPBV_Container_base_aux@2@XZ ; std::_Iterator_base_aux::_Getmycont
; Function compile flags: /Ogtpy
;	COMDAT ?_Getmycont@_Iterator_base_aux@std@@QBEPBV_Container_base_aux@2@XZ
_TEXT	SEGMENT
?_Getmycont@_Iterator_base_aux@std@@QBEPBV_Container_base_aux@2@XZ PROC ; std::_Iterator_base_aux::_Getmycont, COMDAT
; _this$ = ecx

; 458  : 		return _Myaux ? _Myaux->_Getcont() : 0;

  00000	8b 01		 mov	 eax, DWORD PTR [ecx]
  00002	85 c0		 test	 eax, eax
  00004	74 03		 je	 SHORT $LN3@Getmycont
  00006	8b 00		 mov	 eax, DWORD PTR [eax]

; 459  : 		}

  00008	c3		 ret	 0
$LN3@Getmycont:

; 458  : 		return _Myaux ? _Myaux->_Getcont() : 0;

  00009	33 c0		 xor	 eax, eax

; 459  : 		}

  0000b	c3		 ret	 0
?_Getmycont@_Iterator_base_aux@std@@QBEPBV_Container_base_aux@2@XZ ENDP ; std::_Iterator_base_aux::_Getmycont
_TEXT	ENDS
PUBLIC	?_Same_container@_Iterator_base_aux@std@@QBE_NABV12@@Z ; std::_Iterator_base_aux::_Same_container
; Function compile flags: /Ogtpy
;	COMDAT ?_Same_container@_Iterator_base_aux@std@@QBE_NABV12@@Z
_TEXT	SEGMENT
__Other$ = 8						; size = 4
?_Same_container@_Iterator_base_aux@std@@QBE_NABV12@@Z PROC ; std::_Iterator_base_aux::_Same_container, COMDAT
; _this$ = ecx

; 463  : 		return _Myaux == _Other._Myaux;

  00000	8b 01		 mov	 eax, DWORD PTR [ecx]
  00002	8b 54 24 04	 mov	 edx, DWORD PTR __Other$[esp-4]
  00006	33 c9		 xor	 ecx, ecx
  00008	3b 02		 cmp	 eax, DWORD PTR [edx]
  0000a	0f 94 c1	 sete	 cl
  0000d	8a c1		 mov	 al, cl

; 464  : 		}

  0000f	c2 04 00	 ret	 4
?_Same_container@_Iterator_base_aux@std@@QBE_NABV12@@Z ENDP ; std::_Iterator_base_aux::_Same_container
_TEXT	ENDS
PUBLIC	?_Has_container@_Iterator_base_aux@std@@QBE_NXZ	; std::_Iterator_base_aux::_Has_container
; Function compile flags: /Ogtpy
;	COMDAT ?_Has_container@_Iterator_base_aux@std@@QBE_NXZ
_TEXT	SEGMENT
?_Has_container@_Iterator_base_aux@std@@QBE_NXZ PROC	; std::_Iterator_base_aux::_Has_container, COMDAT
; _this$ = ecx

; 468  : 		return _Myaux != 0;

  00000	33 c0		 xor	 eax, eax
  00002	39 01		 cmp	 DWORD PTR [ecx], eax
  00004	0f 95 c0	 setne	 al

; 469  : 		}

  00007	c3		 ret	 0
?_Has_container@_Iterator_base_aux@std@@QBE_NXZ ENDP	; std::_Iterator_base_aux::_Has_container
_TEXT	ENDS
PUBLIC	??_7bad_alloc@std@@6B@				; std::bad_alloc::`vftable'
PUBLIC	??0bad_alloc@std@@QAE@PBD@Z			; std::bad_alloc::bad_alloc
PUBLIC	??_R4bad_alloc@std@@6B@				; std::bad_alloc::`RTTI Complete Object Locator'
PUBLIC	??_R0?AVbad_alloc@std@@@8			; std::bad_alloc `RTTI Type Descriptor'
PUBLIC	??_R3bad_alloc@std@@8				; std::bad_alloc::`RTTI Class Hierarchy Descriptor'
PUBLIC	??_R2bad_alloc@std@@8				; std::bad_alloc::`RTTI Base Class Array'
PUBLIC	??_R1A@?0A@EA@bad_alloc@std@@8			; std::bad_alloc::`RTTI Base Class Descriptor at (0,-1,0,64)'
PUBLIC	??_R1A@?0A@EA@exception@std@@8			; std::exception::`RTTI Base Class Descriptor at (0,-1,0,64)'
PUBLIC	??_R0?AVexception@std@@@8			; std::exception `RTTI Type Descriptor'
PUBLIC	??_R3exception@std@@8				; std::exception::`RTTI Class Hierarchy Descriptor'
PUBLIC	??_R2exception@std@@8				; std::exception::`RTTI Base Class Array'
EXTRN	??0exception@std@@QAE@ABQBD@Z:PROC		; std::exception::exception
EXTRN	??_7type_info@@6B@:QWORD			; type_info::`vftable'
EXTRN	??_Ebad_alloc@std@@UAEPAXI@Z:PROC		; std::bad_alloc::`vector deleting destructor'
EXTRN	?what@exception@std@@UBEPBDXZ:PROC		; std::exception::what
;	COMDAT ??_R2exception@std@@8
; File c:\program files (x86)\microsoft visual studio 9.0\vc\include\exception
rdata$r	SEGMENT
??_R2exception@std@@8 DD FLAT:??_R1A@?0A@EA@exception@std@@8 ; std::exception::`RTTI Base Class Array'
rdata$r	ENDS
;	COMDAT ??_R3exception@std@@8
rdata$r	SEGMENT
??_R3exception@std@@8 DD 00H				; std::exception::`RTTI Class Hierarchy Descriptor'
	DD	00H
	DD	01H
	DD	FLAT:??_R2exception@std@@8
rdata$r	ENDS
;	COMDAT ??_R0?AVexception@std@@@8
_DATA	SEGMENT
??_R0?AVexception@std@@@8 DD FLAT:??_7type_info@@6B@	; std::exception `RTTI Type Descriptor'
	DD	00H
	DB	'.?AVexception@std@@', 00H
_DATA	ENDS
;	COMDAT ??_R1A@?0A@EA@exception@std@@8
rdata$r	SEGMENT
??_R1A@?0A@EA@exception@std@@8 DD FLAT:??_R0?AVexception@std@@@8 ; std::exception::`RTTI Base Class Descriptor at (0,-1,0,64)'
	DD	00H
	DD	00H
	DD	0ffffffffH
	DD	00H
	DD	040H
	DD	FLAT:??_R3exception@std@@8
rdata$r	ENDS
;	COMDAT ??_R1A@?0A@EA@bad_alloc@std@@8
rdata$r	SEGMENT
??_R1A@?0A@EA@bad_alloc@std@@8 DD FLAT:??_R0?AVbad_alloc@std@@@8 ; std::bad_alloc::`RTTI Base Class Descriptor at (0,-1,0,64)'
	DD	01H
	DD	00H
	DD	0ffffffffH
	DD	00H
	DD	040H
	DD	FLAT:??_R3bad_alloc@std@@8
rdata$r	ENDS
;	COMDAT ??_R2bad_alloc@std@@8
rdata$r	SEGMENT
??_R2bad_alloc@std@@8 DD FLAT:??_R1A@?0A@EA@bad_alloc@std@@8 ; std::bad_alloc::`RTTI Base Class Array'
	DD	FLAT:??_R1A@?0A@EA@exception@std@@8
rdata$r	ENDS
;	COMDAT ??_R3bad_alloc@std@@8
rdata$r	SEGMENT
??_R3bad_alloc@std@@8 DD 00H				; std::bad_alloc::`RTTI Class Hierarchy Descriptor'
	DD	00H
	DD	02H
	DD	FLAT:??_R2bad_alloc@std@@8
rdata$r	ENDS
;	COMDAT ??_R0?AVbad_alloc@std@@@8
_DATA	SEGMENT
??_R0?AVbad_alloc@std@@@8 DD FLAT:??_7type_info@@6B@	; std::bad_alloc `RTTI Type Descriptor'
	DD	00H
	DB	'.?AVbad_alloc@std@@', 00H
_DATA	ENDS
;	COMDAT ??_R4bad_alloc@std@@6B@
rdata$r	SEGMENT
??_R4bad_alloc@std@@6B@ DD 00H				; std::bad_alloc::`RTTI Complete Object Locator'
	DD	00H
	DD	00H
	DD	FLAT:??_R0?AVbad_alloc@std@@@8
	DD	FLAT:??_R3bad_alloc@std@@8
rdata$r	ENDS
;	COMDAT ??_7bad_alloc@std@@6B@
CONST	SEGMENT
??_7bad_alloc@std@@6B@ DD FLAT:??_R4bad_alloc@std@@6B@	; std::bad_alloc::`vftable'
	DD	FLAT:??_Ebad_alloc@std@@UAEPAXI@Z
	DD	FLAT:?what@exception@std@@UBEPBDXZ
; Function compile flags: /Ogtpy
CONST	ENDS
;	COMDAT ??0bad_alloc@std@@QAE@PBD@Z
_TEXT	SEGMENT
__Message$ = 8						; size = 4
??0bad_alloc@std@@QAE@PBD@Z PROC			; std::bad_alloc::bad_alloc, COMDAT
; _this$ = ecx

; 371  : 		{	// construct from message string

  00000	56		 push	 esi
  00001	8d 44 24 08	 lea	 eax, DWORD PTR __Message$[esp]
  00005	50		 push	 eax
  00006	8b f1		 mov	 esi, ecx
  00008	e8 00 00 00 00	 call	 ??0exception@std@@QAE@ABQBD@Z ; std::exception::exception
  0000d	c7 06 00 00 00
	00		 mov	 DWORD PTR [esi], OFFSET ??_7bad_alloc@std@@6B@

; 372  : 		}

  00013	8b c6		 mov	 eax, esi
  00015	5e		 pop	 esi
  00016	c2 04 00	 ret	 4
??0bad_alloc@std@@QAE@PBD@Z ENDP			; std::bad_alloc::bad_alloc
_TEXT	ENDS
PUBLIC	??1bad_alloc@std@@UAE@XZ			; std::bad_alloc::~bad_alloc
EXTRN	??1exception@std@@UAE@XZ:PROC			; std::exception::~exception
; Function compile flags: /Ogtpy
;	COMDAT ??1bad_alloc@std@@UAE@XZ
_TEXT	SEGMENT
??1bad_alloc@std@@UAE@XZ PROC				; std::bad_alloc::~bad_alloc, COMDAT
; _this$ = ecx

; 380  : 		{	// destroy the object

  00000	c7 01 00 00 00
	00		 mov	 DWORD PTR [ecx], OFFSET ??_7bad_alloc@std@@6B@

; 381  : 		}

  00006	e9 00 00 00 00	 jmp	 ??1exception@std@@UAE@XZ ; std::exception::~exception
??1bad_alloc@std@@UAE@XZ ENDP				; std::bad_alloc::~bad_alloc
_TEXT	ENDS
EXTRN	??3@YAXPAX@Z:PROC				; operator delete
; Function compile flags: /Ogtpy
;	COMDAT ??_Gbad_alloc@std@@UAEPAXI@Z
_TEXT	SEGMENT
___flags$ = 8						; size = 4
??_Gbad_alloc@std@@UAEPAXI@Z PROC			; std::bad_alloc::`scalar deleting destructor', COMDAT
; _this$ = ecx
  00000	56		 push	 esi
  00001	8b f1		 mov	 esi, ecx
  00003	c7 06 00 00 00
	00		 mov	 DWORD PTR [esi], OFFSET ??_7bad_alloc@std@@6B@
  00009	e8 00 00 00 00	 call	 ??1exception@std@@UAE@XZ ; std::exception::~exception
  0000e	f6 44 24 08 01	 test	 BYTE PTR ___flags$[esp], 1
  00013	74 09		 je	 SHORT $LN6@scalar
  00015	56		 push	 esi
  00016	e8 00 00 00 00	 call	 ??3@YAXPAX@Z		; operator delete
  0001b	83 c4 04	 add	 esp, 4
$LN6@scalar:
  0001e	8b c6		 mov	 eax, esi
  00020	5e		 pop	 esi
  00021	c2 04 00	 ret	 4
??_Gbad_alloc@std@@UAEPAXI@Z ENDP			; std::bad_alloc::`scalar deleting destructor'
_TEXT	ENDS
PUBLIC	??2@YAPAXIPAX@Z					; operator new
; Function compile flags: /Ogtpy
; File c:\program files (x86)\microsoft visual studio 9.0\vc\include\new
;	COMDAT ??2@YAPAXIPAX@Z
_TEXT	SEGMENT
___formal$ = 8						; size = 4
__Where$ = 12						; size = 4
??2@YAPAXIPAX@Z PROC					; operator new, COMDAT

; 59   : 	return (_Where);

  00000	8b 44 24 08	 mov	 eax, DWORD PTR __Where$[esp-4]

; 60   : 	}

  00004	c3		 ret	 0
??2@YAPAXIPAX@Z ENDP					; operator new
_TEXT	ENDS
PUBLIC	??3@YAXPAX0@Z					; operator delete
; Function compile flags: /Ogtpy
;	COMDAT ??3@YAXPAX0@Z
_TEXT	SEGMENT
___formal$ = 8						; size = 4
___formal$ = 12						; size = 4
??3@YAXPAX0@Z PROC					; operator delete, COMDAT

; 64   : 	}

  00000	c3		 ret	 0
??3@YAXPAX0@Z ENDP					; operator delete
_TEXT	ENDS
PUBLIC	?_Getctype@_Locinfo@std@@QBE?AU_Ctypevec@@XZ	; std::_Locinfo::_Getctype
EXTRN	__Getctype:PROC
; Function compile flags: /Ogtpy
; File c:\program files (x86)\microsoft visual studio 9.0\vc\include\xlocinfo
;	COMDAT ?_Getctype@_Locinfo@std@@QBE?AU_Ctypevec@@XZ
_TEXT	SEGMENT
$T140864 = -16						; size = 16
___$ReturnUdt$ = 8					; size = 4
?_Getctype@_Locinfo@std@@QBE?AU_Ctypevec@@XZ PROC	; std::_Locinfo::_Getctype, COMDAT
; _this$ = ecx

; 123  : 		{	// return ctype stuff

  00000	83 ec 10	 sub	 esp, 16			; 00000010H

; 124  : 		return (::_Getctype());

  00003	8d 04 24	 lea	 eax, DWORD PTR $T140864[esp+16]
  00006	50		 push	 eax
  00007	e8 00 00 00 00	 call	 __Getctype
  0000c	8b 4c 24 18	 mov	 ecx, DWORD PTR ___$ReturnUdt$[esp+16]
  00010	8b 10		 mov	 edx, DWORD PTR [eax]
  00012	89 11		 mov	 DWORD PTR [ecx], edx
  00014	8b 50 04	 mov	 edx, DWORD PTR [eax+4]
  00017	89 51 04	 mov	 DWORD PTR [ecx+4], edx
  0001a	8b 50 08	 mov	 edx, DWORD PTR [eax+8]
  0001d	8b 40 0c	 mov	 eax, DWORD PTR [eax+12]
  00020	89 51 08	 mov	 DWORD PTR [ecx+8], edx
  00023	89 41 0c	 mov	 DWORD PTR [ecx+12], eax
  00026	8b c1		 mov	 eax, ecx

; 125  : 		}

  00028	83 c4 14	 add	 esp, 20			; 00000014H
  0002b	c2 04 00	 ret	 4
?_Getctype@_Locinfo@std@@QBE?AU_Ctypevec@@XZ ENDP	; std::_Locinfo::_Getctype
_TEXT	ENDS
PUBLIC	?_Getcvt@_Locinfo@std@@QBE?AU_Cvtvec@@XZ	; std::_Locinfo::_Getcvt
EXTRN	__Getcvt:PROC
; Function compile flags: /Ogtpy
;	COMDAT ?_Getcvt@_Locinfo@std@@QBE?AU_Cvtvec@@XZ
_TEXT	SEGMENT
___$ReturnUdt$ = 8					; size = 4
?_Getcvt@_Locinfo@std@@QBE?AU_Cvtvec@@XZ PROC		; std::_Locinfo::_Getcvt, COMDAT
; _this$ = ecx

; 129  : 		return (::_Getcvt());

  00000	e8 00 00 00 00	 call	 __Getcvt
  00005	8b c8		 mov	 ecx, eax
  00007	8b 44 24 04	 mov	 eax, DWORD PTR ___$ReturnUdt$[esp-4]
  0000b	89 08		 mov	 DWORD PTR [eax], ecx
  0000d	89 50 04	 mov	 DWORD PTR [eax+4], edx

; 130  : 		}

  00010	c2 04 00	 ret	 4
?_Getcvt@_Locinfo@std@@QBE?AU_Cvtvec@@XZ ENDP		; std::_Locinfo::_Getcvt
_TEXT	ENDS
PUBLIC	??0id@locale@std@@QAE@I@Z			; std::locale::id::id
; Function compile flags: /Ogtpy
; File c:\program files (x86)\microsoft visual studio 9.0\vc\include\xlocale
;	COMDAT ??0id@locale@std@@QAE@I@Z
_TEXT	SEGMENT
__Val$ = 8						; size = 4
??0id@locale@std@@QAE@I@Z PROC				; std::locale::id::id, COMDAT
; _this$ = ecx

; 73   : 			{	// construct with specified stamp value

  00000	8b c1		 mov	 eax, ecx
  00002	8b 4c 24 04	 mov	 ecx, DWORD PTR __Val$[esp-4]
  00006	89 08		 mov	 DWORD PTR [eax], ecx

; 74   : 			}

  00008	c2 04 00	 ret	 4
??0id@locale@std@@QAE@I@Z ENDP				; std::locale::id::id
_TEXT	ENDS
PUBLIC	??Bid@locale@std@@QAEIXZ			; std::locale::id::operator unsigned int
EXTRN	??1_Lockit@std@@QAE@XZ:PROC			; std::_Lockit::~_Lockit
EXTRN	?_Id_cnt@id@locale@std@@0HA:DWORD		; std::locale::id::_Id_cnt
EXTRN	??0_Lockit@std@@QAE@H@Z:PROC			; std::_Lockit::_Lockit
; Function compile flags: /Ogtpy
;	COMDAT ??Bid@locale@std@@QAEIXZ
_TEXT	SEGMENT
__Lock$89301 = -4					; size = 4
??Bid@locale@std@@QAEIXZ PROC				; std::locale::id::operator unsigned int, COMDAT
; _this$ = ecx

; 77   : 			{	// get stamp, with lazy allocation

  00000	51		 push	 ecx
  00001	56		 push	 esi
  00002	8b f1		 mov	 esi, ecx

; 78   : 			if (_Id == 0)

  00004	83 3e 00	 cmp	 DWORD PTR [esi], 0
  00007	75 26		 jne	 SHORT $LN6@operator

; 79   : 				{	// still zero, allocate stamp
; 80   : 				_BEGIN_LOCK(_LOCK_LOCALE)

  00009	6a 00		 push	 0
  0000b	8d 4c 24 08	 lea	 ecx, DWORD PTR __Lock$89301[esp+12]
  0000f	e8 00 00 00 00	 call	 ??0_Lockit@std@@QAE@H@Z	; std::_Lockit::_Lockit

; 81   : 					if (_Id == 0)

  00014	83 3e 00	 cmp	 DWORD PTR [esi], 0
  00017	75 0d		 jne	 SHORT $LN1@operator

; 82   : 						_Id = ++_Id_cnt;

  00019	a1 00 00 00 00	 mov	 eax, DWORD PTR ?_Id_cnt@id@locale@std@@0HA ; std::locale::id::_Id_cnt
  0001e	40		 inc	 eax
  0001f	a3 00 00 00 00	 mov	 DWORD PTR ?_Id_cnt@id@locale@std@@0HA, eax ; std::locale::id::_Id_cnt
  00024	89 06		 mov	 DWORD PTR [esi], eax
$LN1@operator:

; 83   : 				_END_LOCK()

  00026	8d 4c 24 04	 lea	 ecx, DWORD PTR __Lock$89301[esp+8]
  0002a	e8 00 00 00 00	 call	 ??1_Lockit@std@@QAE@XZ	; std::_Lockit::~_Lockit
$LN6@operator:

; 84   : 				}
; 85   : 			return (_Id);

  0002f	8b 06		 mov	 eax, DWORD PTR [esi]
  00031	5e		 pop	 esi

; 86   : 			}

  00032	59		 pop	 ecx
  00033	c3		 ret	 0
??Bid@locale@std@@QAEIXZ ENDP				; std::locale::id::operator unsigned int
_TEXT	ENDS
PUBLIC	?_Incref@facet@locale@std@@QAEXXZ		; std::locale::facet::_Incref
; Function compile flags: /Ogtpy
;	COMDAT ?_Incref@facet@locale@std@@QAEXXZ
_TEXT	SEGMENT
__Lock$89307 = -4					; size = 4
?_Incref@facet@locale@std@@QAEXXZ PROC			; std::locale::facet::_Incref, COMDAT
; _this$ = ecx

; 117  : 			{	// safely increment the reference count

  00000	51		 push	 ecx
  00001	56		 push	 esi
  00002	8b f1		 mov	 esi, ecx

; 118  : 			_BEGIN_LOCK(_LOCK_LOCALE)

  00004	6a 00		 push	 0
  00006	8d 4c 24 08	 lea	 ecx, DWORD PTR __Lock$89307[esp+12]
  0000a	e8 00 00 00 00	 call	 ??0_Lockit@std@@QAE@H@Z	; std::_Lockit::_Lockit

; 119  : 				if (_Refs < (size_t)(-1))

  0000f	8b 46 04	 mov	 eax, DWORD PTR [esi+4]
  00012	83 f8 ff	 cmp	 eax, -1
  00015	73 04		 jae	 SHORT $LN1@Incref

; 120  : 					++_Refs;

  00017	40		 inc	 eax
  00018	89 46 04	 mov	 DWORD PTR [esi+4], eax
$LN1@Incref:

; 121  : 			_END_LOCK()

  0001b	8d 4c 24 04	 lea	 ecx, DWORD PTR __Lock$89307[esp+8]
  0001f	e8 00 00 00 00	 call	 ??1_Lockit@std@@QAE@XZ	; std::_Lockit::~_Lockit
  00024	5e		 pop	 esi

; 122  : 			}

  00025	59		 pop	 ecx
  00026	c3		 ret	 0
?_Incref@facet@locale@std@@QAEXXZ ENDP			; std::locale::facet::_Incref
_TEXT	ENDS
PUBLIC	?_Decref@facet@locale@std@@QAEPAV123@XZ		; std::locale::facet::_Decref
; Function compile flags: /Ogtpy
;	COMDAT ?_Decref@facet@locale@std@@QAEPAV123@XZ
_TEXT	SEGMENT
__Lock$89312 = -4					; size = 4
?_Decref@facet@locale@std@@QAEPAV123@XZ PROC		; std::locale::facet::_Decref, COMDAT
; _this$ = ecx

; 125  : 			{	// safely decrement the reference count, return this when dead

  00000	51		 push	 ecx
  00001	56		 push	 esi
  00002	57		 push	 edi
  00003	8b f9		 mov	 edi, ecx

; 126  : 			_BEGIN_LOCK(_LOCK_LOCALE)

  00005	6a 00		 push	 0
  00007	8d 4c 24 0c	 lea	 ecx, DWORD PTR __Lock$89312[esp+16]
  0000b	e8 00 00 00 00	 call	 ??0_Lockit@std@@QAE@H@Z	; std::_Lockit::_Lockit

; 127  : 				if (0 < _Refs && _Refs < (size_t)(-1))

  00010	8b 47 04	 mov	 eax, DWORD PTR [edi+4]
  00013	85 c0		 test	 eax, eax
  00015	76 09		 jbe	 SHORT $LN1@Decref
  00017	83 f8 ff	 cmp	 eax, -1
  0001a	73 04		 jae	 SHORT $LN1@Decref

; 128  : 					--_Refs;

  0001c	48		 dec	 eax
  0001d	89 47 04	 mov	 DWORD PTR [edi+4], eax
$LN1@Decref:

; 129  : 				return (_Refs == 0 ? this : 0);

  00020	8b 77 04	 mov	 esi, DWORD PTR [edi+4]
  00023	f7 de		 neg	 esi
  00025	1b f6		 sbb	 esi, esi
  00027	f7 d6		 not	 esi
  00029	8d 4c 24 08	 lea	 ecx, DWORD PTR __Lock$89312[esp+12]
  0002d	23 f7		 and	 esi, edi
  0002f	e8 00 00 00 00	 call	 ??1_Lockit@std@@QAE@XZ	; std::_Lockit::~_Lockit
  00034	5f		 pop	 edi
  00035	8b c6		 mov	 eax, esi
  00037	5e		 pop	 esi

; 130  : 			_END_LOCK()
; 131  : 			}

  00038	59		 pop	 ecx
  00039	c3		 ret	 0
?_Decref@facet@locale@std@@QAEPAV123@XZ ENDP		; std::locale::facet::_Decref
_TEXT	ENDS
PUBLIC	?_Register@facet@locale@std@@QAEXXZ		; std::locale::facet::_Register
EXTRN	?facet_Register@facet@locale@std@@CAXPAV123@@Z:PROC ; std::locale::facet::facet_Register
; Function compile flags: /Ogtpy
;	COMDAT ?_Register@facet@locale@std@@QAEXXZ
_TEXT	SEGMENT
?_Register@facet@locale@std@@QAEXXZ PROC		; std::locale::facet::_Register, COMDAT
; _this$ = ecx

; 135  : #if defined(_M_CEE)
; 136  : 			facet_Register_m(this);
; 137  : #else
; 138  : 			facet_Register(this);

  00000	51		 push	 ecx
  00001	e8 00 00 00 00	 call	 ?facet_Register@facet@locale@std@@CAXPAV123@@Z ; std::locale::facet::facet_Register
  00006	59		 pop	 ecx

; 139  : #endif
; 140  : 			}

  00007	c3		 ret	 0
?_Register@facet@locale@std@@QAEXXZ ENDP		; std::locale::facet::_Register
_TEXT	ENDS
PUBLIC	??_7facet@locale@std@@6B@			; std::locale::facet::`vftable'
PUBLIC	??1facet@locale@std@@UAE@XZ			; std::locale::facet::~facet
PUBLIC	??_R4facet@locale@std@@6B@			; std::locale::facet::`RTTI Complete Object Locator'
PUBLIC	??_R0?AVfacet@locale@std@@@8			; std::locale::facet `RTTI Type Descriptor'
PUBLIC	??_R3facet@locale@std@@8			; std::locale::facet::`RTTI Class Hierarchy Descriptor'
PUBLIC	??_R2facet@locale@std@@8			; std::locale::facet::`RTTI Base Class Array'
PUBLIC	??_R1A@?0A@EA@facet@locale@std@@8		; std::locale::facet::`RTTI Base Class Descriptor at (0,-1,0,64)'
EXTRN	??_Efacet@locale@std@@UAEPAXI@Z:PROC		; std::locale::facet::`vector deleting destructor'
;	COMDAT ??_R1A@?0A@EA@facet@locale@std@@8
rdata$r	SEGMENT
??_R1A@?0A@EA@facet@locale@std@@8 DD FLAT:??_R0?AVfacet@locale@std@@@8 ; std::locale::facet::`RTTI Base Class Descriptor at (0,-1,0,64)'
	DD	00H
	DD	00H
	DD	0ffffffffH
	DD	00H
	DD	040H
	DD	FLAT:??_R3facet@locale@std@@8
rdata$r	ENDS
;	COMDAT ??_R2facet@locale@std@@8
rdata$r	SEGMENT
??_R2facet@locale@std@@8 DD FLAT:??_R1A@?0A@EA@facet@locale@std@@8 ; std::locale::facet::`RTTI Base Class Array'
rdata$r	ENDS
;	COMDAT ??_R3facet@locale@std@@8
rdata$r	SEGMENT
??_R3facet@locale@std@@8 DD 00H				; std::locale::facet::`RTTI Class Hierarchy Descriptor'
	DD	00H
	DD	01H
	DD	FLAT:??_R2facet@locale@std@@8
rdata$r	ENDS
;	COMDAT ??_R0?AVfacet@locale@std@@@8
_DATA	SEGMENT
??_R0?AVfacet@locale@std@@@8 DD FLAT:??_7type_info@@6B@	; std::locale::facet `RTTI Type Descriptor'
	DD	00H
	DB	'.?AVfacet@locale@std@@', 00H
_DATA	ENDS
;	COMDAT ??_R4facet@locale@std@@6B@
rdata$r	SEGMENT
??_R4facet@locale@std@@6B@ DD 00H			; std::locale::facet::`RTTI Complete Object Locator'
	DD	00H
	DD	00H
	DD	FLAT:??_R0?AVfacet@locale@std@@@8
	DD	FLAT:??_R3facet@locale@std@@8
rdata$r	ENDS
;	COMDAT ??_7facet@locale@std@@6B@
CONST	SEGMENT
??_7facet@locale@std@@6B@ DD FLAT:??_R4facet@locale@std@@6B@ ; std::locale::facet::`vftable'
	DD	FLAT:??_Efacet@locale@std@@UAEPAXI@Z
; Function compile flags: /Ogtpy
CONST	ENDS
;	COMDAT ??1facet@locale@std@@UAE@XZ
_TEXT	SEGMENT
??1facet@locale@std@@UAE@XZ PROC			; std::locale::facet::~facet, COMDAT
; _this$ = ecx

; 170  : 			{	// destroy the object

  00000	c7 01 00 00 00
	00		 mov	 DWORD PTR [ecx], OFFSET ??_7facet@locale@std@@6B@

; 171  : 			}

  00006	c3		 ret	 0
??1facet@locale@std@@UAE@XZ ENDP			; std::locale::facet::~facet
_TEXT	ENDS
PUBLIC	??0facet@locale@std@@IAE@I@Z			; std::locale::facet::facet
; Function compile flags: /Ogtpy
;	COMDAT ??0facet@locale@std@@IAE@I@Z
_TEXT	SEGMENT
__Initrefs$ = 8						; size = 4
??0facet@locale@std@@IAE@I@Z PROC			; std::locale::facet::facet, COMDAT
; _this$ = ecx

; 176  : 			{	// construct with initial reference count

  00000	8b c1		 mov	 eax, ecx
  00002	8b 4c 24 04	 mov	 ecx, DWORD PTR __Initrefs$[esp-4]
  00006	c7 00 00 00 00
	00		 mov	 DWORD PTR [eax], OFFSET ??_7facet@locale@std@@6B@
  0000c	89 48 04	 mov	 DWORD PTR [eax+4], ecx

; 177  : 			}

  0000f	c2 04 00	 ret	 4
??0facet@locale@std@@IAE@I@Z ENDP			; std::locale::facet::facet
_TEXT	ENDS
PUBLIC	??0locale@std@@QAE@XZ				; std::locale::locale
EXTRN	?_Getgloballocale@locale@std@@CAPAV_Locimp@12@XZ:PROC ; std::locale::_Getgloballocale
EXTRN	?_Init@locale@std@@CAPAV_Locimp@12@XZ:PROC	; std::locale::_Init
; Function compile flags: /Ogtpy
;	COMDAT ??0locale@std@@QAE@XZ
_TEXT	SEGMENT
__Lock$140891 = -4					; size = 4
??0locale@std@@QAE@XZ PROC				; std::locale::locale, COMDAT
; _this$ = ecx

; 324  : 		{	// construct from current locale

  00000	51		 push	 ecx
  00001	56		 push	 esi
  00002	57		 push	 edi
  00003	8b f9		 mov	 edi, ecx
  00005	e8 00 00 00 00	 call	 ?_Init@locale@std@@CAPAV_Locimp@12@XZ ; std::locale::_Init
  0000a	89 07		 mov	 DWORD PTR [edi], eax

; 325  : 		_Getgloballocale()->_Incref();

  0000c	e8 00 00 00 00	 call	 ?_Getgloballocale@locale@std@@CAPAV_Locimp@12@XZ ; std::locale::_Getgloballocale
  00011	6a 00		 push	 0
  00013	8d 4c 24 0c	 lea	 ecx, DWORD PTR __Lock$140891[esp+16]
  00017	8b f0		 mov	 esi, eax
  00019	e8 00 00 00 00	 call	 ??0_Lockit@std@@QAE@H@Z	; std::_Lockit::_Lockit
  0001e	8b 46 04	 mov	 eax, DWORD PTR [esi+4]
  00021	83 f8 ff	 cmp	 eax, -1
  00024	73 04		 jae	 SHORT $LN3@locale
  00026	40		 inc	 eax
  00027	89 46 04	 mov	 DWORD PTR [esi+4], eax
$LN3@locale:
  0002a	8d 4c 24 08	 lea	 ecx, DWORD PTR __Lock$140891[esp+12]
  0002e	e8 00 00 00 00	 call	 ??1_Lockit@std@@QAE@XZ	; std::_Lockit::~_Lockit

; 326  : 		}

  00033	8b c7		 mov	 eax, edi
  00035	5f		 pop	 edi
  00036	5e		 pop	 esi
  00037	59		 pop	 ecx
  00038	c3		 ret	 0
??0locale@std@@QAE@XZ ENDP				; std::locale::locale
_TEXT	ENDS
PUBLIC	??0locale@std@@QAE@ABV01@@Z			; std::locale::locale
; Function compile flags: /Ogtpy
;	COMDAT ??0locale@std@@QAE@ABV01@@Z
_TEXT	SEGMENT
__Lock$140899 = 8					; size = 4
__Right$ = 8						; size = 4
??0locale@std@@QAE@ABV01@@Z PROC			; std::locale::locale, COMDAT
; _this$ = ecx

; 334  : 		{	// construct by copying

  00000	8b 44 24 04	 mov	 eax, DWORD PTR __Right$[esp-4]
  00004	56		 push	 esi
  00005	8b 30		 mov	 esi, DWORD PTR [eax]
  00007	57		 push	 edi
  00008	8b f9		 mov	 edi, ecx

; 335  : 		_Ptr->_Incref();

  0000a	6a 00		 push	 0
  0000c	8d 4c 24 10	 lea	 ecx, DWORD PTR __Lock$140899[esp+8]
  00010	89 37		 mov	 DWORD PTR [edi], esi
  00012	e8 00 00 00 00	 call	 ??0_Lockit@std@@QAE@H@Z	; std::_Lockit::_Lockit
  00017	8b 46 04	 mov	 eax, DWORD PTR [esi+4]
  0001a	83 f8 ff	 cmp	 eax, -1
  0001d	73 04		 jae	 SHORT $LN3@locale@2
  0001f	40		 inc	 eax
  00020	89 46 04	 mov	 DWORD PTR [esi+4], eax
$LN3@locale@2:
  00023	8d 4c 24 0c	 lea	 ecx, DWORD PTR __Lock$140899[esp+4]
  00027	e8 00 00 00 00	 call	 ??1_Lockit@std@@QAE@XZ	; std::_Lockit::~_Lockit

; 336  : 		}

  0002c	8b c7		 mov	 eax, edi
  0002e	5f		 pop	 edi
  0002f	5e		 pop	 esi
  00030	c2 04 00	 ret	 4
??0locale@std@@QAE@ABV01@@Z ENDP			; std::locale::locale
_TEXT	ENDS
PUBLIC	??1locale@std@@QAE@XZ				; std::locale::~locale
; Function compile flags: /Ogtpy
;	COMDAT ??1locale@std@@QAE@XZ
_TEXT	SEGMENT
__Lock$140912 = -4					; size = 4
??1locale@std@@QAE@XZ PROC				; std::locale::~locale, COMDAT
; _this$ = ecx

; 390  : 		{	// destroy the object

  00000	51		 push	 ecx
  00001	57		 push	 edi

; 391  : 		if (_Ptr != 0)

  00002	8b 39		 mov	 edi, DWORD PTR [ecx]
  00004	85 ff		 test	 edi, edi
  00006	74 3f		 je	 SHORT $LN4@locale@3

; 392  : 			_DELETE_CRT(_Ptr->_Decref());

  00008	6a 00		 push	 0
  0000a	8d 4c 24 08	 lea	 ecx, DWORD PTR __Lock$140912[esp+12]
  0000e	e8 00 00 00 00	 call	 ??0_Lockit@std@@QAE@H@Z	; std::_Lockit::_Lockit
  00013	8b 47 04	 mov	 eax, DWORD PTR [edi+4]
  00016	85 c0		 test	 eax, eax
  00018	76 09		 jbe	 SHORT $LN6@locale@3
  0001a	83 f8 ff	 cmp	 eax, -1
  0001d	73 04		 jae	 SHORT $LN6@locale@3
  0001f	48		 dec	 eax
  00020	89 47 04	 mov	 DWORD PTR [edi+4], eax
$LN6@locale@3:
  00023	56		 push	 esi
  00024	8b 77 04	 mov	 esi, DWORD PTR [edi+4]
  00027	f7 de		 neg	 esi
  00029	1b f6		 sbb	 esi, esi
  0002b	f7 d6		 not	 esi
  0002d	8d 4c 24 08	 lea	 ecx, DWORD PTR __Lock$140912[esp+12]
  00031	23 f7		 and	 esi, edi
  00033	e8 00 00 00 00	 call	 ??1_Lockit@std@@QAE@XZ	; std::_Lockit::~_Lockit
  00038	85 f6		 test	 esi, esi
  0003a	74 0a		 je	 SHORT $LN9@locale@3
  0003c	8b 06		 mov	 eax, DWORD PTR [esi]
  0003e	8b 10		 mov	 edx, DWORD PTR [eax]
  00040	6a 01		 push	 1
  00042	8b ce		 mov	 ecx, esi
  00044	ff d2		 call	 edx
$LN9@locale@3:
  00046	5e		 pop	 esi
$LN4@locale@3:
  00047	5f		 pop	 edi

; 393  : 		}

  00048	59		 pop	 ecx
  00049	c3		 ret	 0
??1locale@std@@QAE@XZ ENDP				; std::locale::~locale
_TEXT	ENDS
PUBLIC	?_Getfacet@locale@std@@QBEPBVfacet@12@I@Z	; std::locale::_Getfacet
; Function compile flags: /Ogtpy
;	COMDAT ?_Getfacet@locale@std@@QBEPBVfacet@12@I@Z
_TEXT	SEGMENT
__Id$ = 8						; size = 4
?_Getfacet@locale@std@@QBEPBVfacet@12@I@Z PROC		; std::locale::_Getfacet, COMDAT
; _this$ = ecx

; 413  : 		const facet *_Facptr = _Id < _Ptr->_Facetcount
; 414  : 			? _Ptr->_Facetvec[_Id] : 0;	// null if id off end

  00000	8b 09		 mov	 ecx, DWORD PTR [ecx]
  00002	56		 push	 esi
  00003	8b 74 24 08	 mov	 esi, DWORD PTR __Id$[esp]
  00007	3b 71 0c	 cmp	 esi, DWORD PTR [ecx+12]
  0000a	73 24		 jae	 SHORT $LN6@Getfacet
  0000c	8b 41 08	 mov	 eax, DWORD PTR [ecx+8]
  0000f	8b 04 b0	 mov	 eax, DWORD PTR [eax+esi*4]

; 415  : 		if (_Facptr != 0 || !_Ptr->_Xparent)

  00012	85 c0		 test	 eax, eax
  00014	75 20		 jne	 SHORT $LN1@Getfacet
$LN10@Getfacet:
  00016	80 79 14 00	 cmp	 BYTE PTR [ecx+20], 0
  0001a	74 1a		 je	 SHORT $LN1@Getfacet

; 416  : 			return (_Facptr);	// found facet or not transparent, return pointer
; 417  : 		else
; 418  : 			{	// look in current locale
; 419  : 			locale::_Locimp *_Ptr = _Getgloballocale();

  0001c	e8 00 00 00 00	 call	 ?_Getgloballocale@locale@std@@CAPAV_Locimp@12@XZ ; std::locale::_Getgloballocale

; 420  : 			return (_Id < _Ptr->_Facetcount
; 421  : 				? _Ptr->_Facetvec[_Id]	// get from current locale
; 422  : 				: 0);	// no entry in current locale

  00021	3b 70 0c	 cmp	 esi, DWORD PTR [eax+12]
  00024	73 0e		 jae	 SHORT $LN8@Getfacet
  00026	8b 48 08	 mov	 ecx, DWORD PTR [eax+8]
  00029	8b 04 b1	 mov	 eax, DWORD PTR [ecx+esi*4]
  0002c	5e		 pop	 esi

; 423  : 			}
; 424  : 		}

  0002d	c2 04 00	 ret	 4
$LN6@Getfacet:

; 413  : 		const facet *_Facptr = _Id < _Ptr->_Facetcount
; 414  : 			? _Ptr->_Facetvec[_Id] : 0;	// null if id off end

  00030	33 c0		 xor	 eax, eax

; 415  : 		if (_Facptr != 0 || !_Ptr->_Xparent)

  00032	eb e2		 jmp	 SHORT $LN10@Getfacet
$LN8@Getfacet:

; 420  : 			return (_Id < _Ptr->_Facetcount
; 421  : 				? _Ptr->_Facetvec[_Id]	// get from current locale
; 422  : 				: 0);	// no entry in current locale

  00034	33 c0		 xor	 eax, eax
$LN1@Getfacet:
  00036	5e		 pop	 esi

; 423  : 			}
; 424  : 		}

  00037	c2 04 00	 ret	 4
?_Getfacet@locale@std@@QBEPBVfacet@12@I@Z ENDP		; std::locale::_Getfacet
; Function compile flags: /Ogtpy
_TEXT	ENDS
;	COMDAT ??_Gfacet@locale@std@@UAEPAXI@Z
_TEXT	SEGMENT
___flags$ = 8						; size = 4
??_Gfacet@locale@std@@UAEPAXI@Z PROC			; std::locale::facet::`scalar deleting destructor', COMDAT
; _this$ = ecx
  00000	f6 44 24 04 01	 test	 BYTE PTR ___flags$[esp-4], 1
  00005	56		 push	 esi
  00006	8b f1		 mov	 esi, ecx
  00008	c7 06 00 00 00
	00		 mov	 DWORD PTR [esi], OFFSET ??_7facet@locale@std@@6B@
  0000e	74 09		 je	 SHORT $LN6@scalar@2
  00010	56		 push	 esi
  00011	e8 00 00 00 00	 call	 ??3@YAXPAX@Z		; operator delete
  00016	83 c4 04	 add	 esp, 4
$LN6@scalar@2:
  00019	8b c6		 mov	 eax, esi
  0001b	5e		 pop	 esi
  0001c	c2 04 00	 ret	 4
??_Gfacet@locale@std@@UAEPAXI@Z ENDP			; std::locale::facet::`scalar deleting destructor'
_TEXT	ENDS
PUBLIC	??_7ctype_base@std@@6B@				; std::ctype_base::`vftable'
PUBLIC	??0ctype_base@std@@QAE@I@Z			; std::ctype_base::ctype_base
PUBLIC	??_R4ctype_base@std@@6B@			; std::ctype_base::`RTTI Complete Object Locator'
PUBLIC	??_R0?AUctype_base@std@@@8			; std::ctype_base `RTTI Type Descriptor'
PUBLIC	??_R3ctype_base@std@@8				; std::ctype_base::`RTTI Class Hierarchy Descriptor'
PUBLIC	??_R2ctype_base@std@@8				; std::ctype_base::`RTTI Base Class Array'
PUBLIC	??_R1A@?0A@EA@ctype_base@std@@8			; std::ctype_base::`RTTI Base Class Descriptor at (0,-1,0,64)'
EXTRN	??_Ectype_base@std@@UAEPAXI@Z:PROC		; std::ctype_base::`vector deleting destructor'
;	COMDAT ??_R1A@?0A@EA@ctype_base@std@@8
rdata$r	SEGMENT
??_R1A@?0A@EA@ctype_base@std@@8 DD FLAT:??_R0?AUctype_base@std@@@8 ; std::ctype_base::`RTTI Base Class Descriptor at (0,-1,0,64)'
	DD	01H
	DD	00H
	DD	0ffffffffH
	DD	00H
	DD	040H
	DD	FLAT:??_R3ctype_base@std@@8
rdata$r	ENDS
;	COMDAT ??_R2ctype_base@std@@8
rdata$r	SEGMENT
??_R2ctype_base@std@@8 DD FLAT:??_R1A@?0A@EA@ctype_base@std@@8 ; std::ctype_base::`RTTI Base Class Array'
	DD	FLAT:??_R1A@?0A@EA@facet@locale@std@@8
rdata$r	ENDS
;	COMDAT ??_R3ctype_base@std@@8
rdata$r	SEGMENT
??_R3ctype_base@std@@8 DD 00H				; std::ctype_base::`RTTI Class Hierarchy Descriptor'
	DD	00H
	DD	02H
	DD	FLAT:??_R2ctype_base@std@@8
rdata$r	ENDS
;	COMDAT ??_R0?AUctype_base@std@@@8
_DATA	SEGMENT
??_R0?AUctype_base@std@@@8 DD FLAT:??_7type_info@@6B@	; std::ctype_base `RTTI Type Descriptor'
	DD	00H
	DB	'.?AUctype_base@std@@', 00H
_DATA	ENDS
;	COMDAT ??_R4ctype_base@std@@6B@
rdata$r	SEGMENT
??_R4ctype_base@std@@6B@ DD 00H				; std::ctype_base::`RTTI Complete Object Locator'
	DD	00H
	DD	00H
	DD	FLAT:??_R0?AUctype_base@std@@@8
	DD	FLAT:??_R3ctype_base@std@@8
rdata$r	ENDS
;	COMDAT ??_7ctype_base@std@@6B@
CONST	SEGMENT
??_7ctype_base@std@@6B@ DD FLAT:??_R4ctype_base@std@@6B@ ; std::ctype_base::`vftable'
	DD	FLAT:??_Ectype_base@std@@UAEPAXI@Z
; Function compile flags: /Ogtpy
CONST	ENDS
;	COMDAT ??0ctype_base@std@@QAE@I@Z
_TEXT	SEGMENT
__Refs$ = 8						; size = 4
??0ctype_base@std@@QAE@I@Z PROC				; std::ctype_base::ctype_base, COMDAT
; _this$ = ecx

; 1358 : 		{	// default constructor

  00000	8b c1		 mov	 eax, ecx
  00002	8b 4c 24 04	 mov	 ecx, DWORD PTR __Refs$[esp-4]
  00006	89 48 04	 mov	 DWORD PTR [eax+4], ecx
  00009	c7 00 00 00 00
	00		 mov	 DWORD PTR [eax], OFFSET ??_7ctype_base@std@@6B@

; 1359 : 		}

  0000f	c2 04 00	 ret	 4
??0ctype_base@std@@QAE@I@Z ENDP				; std::ctype_base::ctype_base
_TEXT	ENDS
PUBLIC	??1ctype_base@std@@UAE@XZ			; std::ctype_base::~ctype_base
; Function compile flags: /Ogtpy
;	COMDAT ??1ctype_base@std@@UAE@XZ
_TEXT	SEGMENT
??1ctype_base@std@@UAE@XZ PROC				; std::ctype_base::~ctype_base, COMDAT
; _this$ = ecx

; 1363 : 		}

  00000	c7 01 00 00 00
	00		 mov	 DWORD PTR [ecx], OFFSET ??_7facet@locale@std@@6B@
  00006	c3		 ret	 0
??1ctype_base@std@@UAE@XZ ENDP				; std::ctype_base::~ctype_base
; Function compile flags: /Ogtpy
_TEXT	ENDS
;	COMDAT ??_Gctype_base@std@@UAEPAXI@Z
_TEXT	SEGMENT
___flags$ = 8						; size = 4
??_Gctype_base@std@@UAEPAXI@Z PROC			; std::ctype_base::`scalar deleting destructor', COMDAT
; _this$ = ecx
  00000	f6 44 24 04 01	 test	 BYTE PTR ___flags$[esp-4], 1
  00005	56		 push	 esi
  00006	8b f1		 mov	 esi, ecx
  00008	c7 06 00 00 00
	00		 mov	 DWORD PTR [esi], OFFSET ??_7facet@locale@std@@6B@
  0000e	74 09		 je	 SHORT $LN8@scalar@3
  00010	56		 push	 esi
  00011	e8 00 00 00 00	 call	 ??3@YAXPAX@Z		; operator delete
  00016	83 c4 04	 add	 esp, 4
$LN8@scalar@3:
  00019	8b c6		 mov	 eax, esi
  0001b	5e		 pop	 esi
  0001c	c2 04 00	 ret	 4
??_Gctype_base@std@@UAEPAXI@Z ENDP			; std::ctype_base::`scalar deleting destructor'
_TEXT	ENDS
PUBLIC	?widen@?$ctype@_W@std@@QBE_WD@Z			; std::ctype<wchar_t>::widen
; Function compile flags: /Ogtpy
;	COMDAT ?widen@?$ctype@_W@std@@QBE_WD@Z
_TEXT	SEGMENT
__Byte$ = 8						; size = 1
?widen@?$ctype@_W@std@@QBE_WD@Z PROC			; std::ctype<wchar_t>::widen, COMDAT
; _this$ = ecx

; 1965 : 		return (do_widen(_Byte));

  00000	8b 01		 mov	 eax, DWORD PTR [ecx]
  00002	8b 40 28	 mov	 eax, DWORD PTR [eax+40]
  00005	ff e0		 jmp	 eax
?widen@?$ctype@_W@std@@QBE_WD@Z ENDP			; std::ctype<wchar_t>::widen
_TEXT	ENDS
PUBLIC	?_Init@?$ctype@_W@std@@IAEXABV_Locinfo@2@@Z	; std::ctype<wchar_t>::_Init
; Function compile flags: /Ogtpy
;	COMDAT ?_Init@?$ctype@_W@std@@IAEXABV_Locinfo@2@@Z
_TEXT	SEGMENT
$T140966 = -16						; size = 16
__Lobj$ = 8						; size = 4
?_Init@?$ctype@_W@std@@IAEXABV_Locinfo@2@@Z PROC	; std::ctype<wchar_t>::_Init, COMDAT
; _this$ = ecx

; 2047 : 		{	// initialize from _Lobj

  00000	83 ec 10	 sub	 esp, 16			; 00000010H
  00003	56		 push	 esi

; 2048 : 		_Ctype = _Lobj._Getctype();

  00004	8d 44 24 04	 lea	 eax, DWORD PTR $T140966[esp+20]
  00008	50		 push	 eax
  00009	8b f1		 mov	 esi, ecx
  0000b	e8 00 00 00 00	 call	 __Getctype
  00010	8b 08		 mov	 ecx, DWORD PTR [eax]
  00012	89 4e 08	 mov	 DWORD PTR [esi+8], ecx
  00015	8b 50 04	 mov	 edx, DWORD PTR [eax+4]
  00018	89 56 0c	 mov	 DWORD PTR [esi+12], edx
  0001b	8b 48 08	 mov	 ecx, DWORD PTR [eax+8]
  0001e	89 4e 10	 mov	 DWORD PTR [esi+16], ecx
  00021	8b 50 0c	 mov	 edx, DWORD PTR [eax+12]
  00024	83 c4 04	 add	 esp, 4
  00027	89 56 14	 mov	 DWORD PTR [esi+20], edx

; 2049 : 		_Cvt = _Lobj._Getcvt();

  0002a	e8 00 00 00 00	 call	 __Getcvt
  0002f	89 46 18	 mov	 DWORD PTR [esi+24], eax
  00032	89 56 1c	 mov	 DWORD PTR [esi+28], edx
  00035	5e		 pop	 esi

; 2050 : 		}

  00036	83 c4 10	 add	 esp, 16			; 00000010H
  00039	c2 04 00	 ret	 4
?_Init@?$ctype@_W@std@@IAEXABV_Locinfo@2@@Z ENDP	; std::ctype<wchar_t>::_Init
_TEXT	ENDS
PUBLIC	?rdstate@ios_base@std@@QBEHXZ			; std::ios_base::rdstate
; Function compile flags: /Ogtpy
; File c:\program files (x86)\microsoft visual studio 9.0\vc\include\xiosbase
;	COMDAT ?rdstate@ios_base@std@@QBEHXZ
_TEXT	SEGMENT
?rdstate@ios_base@std@@QBEHXZ PROC			; std::ios_base::rdstate, COMDAT
; _this$ = ecx

; 311  : 		return (_Mystate);

  00000	8b 41 08	 mov	 eax, DWORD PTR [ecx+8]

; 312  : 		}

  00003	c3		 ret	 0
?rdstate@ios_base@std@@QBEHXZ ENDP			; std::ios_base::rdstate
_TEXT	ENDS
PUBLIC	?good@ios_base@std@@QBE_NXZ			; std::ios_base::good
; Function compile flags: /Ogtpy
;	COMDAT ?good@ios_base@std@@QBE_NXZ
_TEXT	SEGMENT
?good@ios_base@std@@QBE_NXZ PROC			; std::ios_base::good, COMDAT
; _this$ = ecx

; 334  : 		return (rdstate() == goodbit);

  00000	33 c0		 xor	 eax, eax
  00002	39 41 08	 cmp	 DWORD PTR [ecx+8], eax
  00005	0f 94 c0	 sete	 al

; 335  : 		}

  00008	c3		 ret	 0
?good@ios_base@std@@QBE_NXZ ENDP			; std::ios_base::good
_TEXT	ENDS
PUBLIC	?fail@ios_base@std@@QBE_NXZ			; std::ios_base::fail
; Function compile flags: /Ogtpy
;	COMDAT ?fail@ios_base@std@@QBE_NXZ
_TEXT	SEGMENT
?fail@ios_base@std@@QBE_NXZ PROC			; std::ios_base::fail, COMDAT
; _this$ = ecx

; 344  : 		return (((int)rdstate()
; 345  : 			& ((int)badbit | (int)failbit)) != 0);

  00000	f6 41 08 06	 test	 BYTE PTR [ecx+8], 6
  00004	b8 00 00 00 00	 mov	 eax, 0
  00009	0f 95 c0	 setne	 al

; 346  : 		}

  0000c	c3		 ret	 0
?fail@ios_base@std@@QBE_NXZ ENDP			; std::ios_base::fail
_TEXT	ENDS
PUBLIC	?flags@ios_base@std@@QBEHXZ			; std::ios_base::flags
; Function compile flags: /Ogtpy
;	COMDAT ?flags@ios_base@std@@QBEHXZ
_TEXT	SEGMENT
?flags@ios_base@std@@QBEHXZ PROC			; std::ios_base::flags, COMDAT
; _this$ = ecx

; 374  : 		return (_Fmtfl);

  00000	8b 41 10	 mov	 eax, DWORD PTR [ecx+16]

; 375  : 		}

  00003	c3		 ret	 0
?flags@ios_base@std@@QBEHXZ ENDP			; std::ios_base::flags
_TEXT	ENDS
PUBLIC	?width@ios_base@std@@QBEHXZ			; std::ios_base::width
; Function compile flags: /Ogtpy
;	COMDAT ?width@ios_base@std@@QBEHXZ
_TEXT	SEGMENT
?width@ios_base@std@@QBEHXZ PROC			; std::ios_base::width, COMDAT
; _this$ = ecx

; 419  : 		return (_Wide);

  00000	8b 41 18	 mov	 eax, DWORD PTR [ecx+24]

; 420  : 		}

  00003	c3		 ret	 0
?width@ios_base@std@@QBEHXZ ENDP			; std::ios_base::width
_TEXT	ENDS
PUBLIC	?width@ios_base@std@@QAEHH@Z			; std::ios_base::width
; Function compile flags: /Ogtpy
;	COMDAT ?width@ios_base@std@@QAEHH@Z
_TEXT	SEGMENT
__Newwidth$ = 8						; size = 4
?width@ios_base@std@@QAEHH@Z PROC			; std::ios_base::width, COMDAT
; _this$ = ecx

; 424  : 		streamsize _Oldwidth = _Wide;
; 425  : 		_Wide = _Newwidth;

  00000	8b 54 24 04	 mov	 edx, DWORD PTR __Newwidth$[esp-4]
  00004	8b 41 18	 mov	 eax, DWORD PTR [ecx+24]
  00007	89 51 18	 mov	 DWORD PTR [ecx+24], edx

; 426  : 		return (_Oldwidth);
; 427  : 		}

  0000a	c2 04 00	 ret	 4
?width@ios_base@std@@QAEHH@Z ENDP			; std::ios_base::width
_TEXT	ENDS
PUBLIC	?getloc@ios_base@std@@QBE?AVlocale@2@XZ		; std::ios_base::getloc
; Function compile flags: /Ogtpy
;	COMDAT ?getloc@ios_base@std@@QBE?AVlocale@2@XZ
_TEXT	SEGMENT
$T140996 = -4						; size = 4
__Lock$141009 = 8					; size = 4
___$ReturnUdt$ = 8					; size = 4
?getloc@ios_base@std@@QBE?AVlocale@2@XZ PROC		; std::ios_base::getloc, COMDAT
; _this$ = ecx

; 430  : 		{	// get locale

  00000	51		 push	 ecx

; 431  : 		return (*_Ploc);

  00001	8b 41 24	 mov	 eax, DWORD PTR [ecx+36]
  00004	56		 push	 esi
  00005	8b 30		 mov	 esi, DWORD PTR [eax]
  00007	57		 push	 edi
  00008	8b 7c 24 10	 mov	 edi, DWORD PTR ___$ReturnUdt$[esp+8]
  0000c	6a 00		 push	 0
  0000e	8d 4c 24 14	 lea	 ecx, DWORD PTR __Lock$141009[esp+12]
  00012	c7 44 24 0c 00
	00 00 00	 mov	 DWORD PTR $T140996[esp+16], 0
  0001a	89 37		 mov	 DWORD PTR [edi], esi
  0001c	e8 00 00 00 00	 call	 ??0_Lockit@std@@QAE@H@Z	; std::_Lockit::_Lockit
  00021	8b 46 04	 mov	 eax, DWORD PTR [esi+4]
  00024	83 f8 ff	 cmp	 eax, -1
  00027	73 04		 jae	 SHORT $LN7@getloc
  00029	40		 inc	 eax
  0002a	89 46 04	 mov	 DWORD PTR [esi+4], eax
$LN7@getloc:
  0002d	8d 4c 24 10	 lea	 ecx, DWORD PTR __Lock$141009[esp+8]
  00031	e8 00 00 00 00	 call	 ??1_Lockit@std@@QAE@XZ	; std::_Lockit::~_Lockit
  00036	8b c7		 mov	 eax, edi
  00038	5f		 pop	 edi
  00039	5e		 pop	 esi

; 432  : 		}

  0003a	59		 pop	 ecx
  0003b	c2 04 00	 ret	 4
?getloc@ios_base@std@@QBE?AVlocale@2@XZ ENDP		; std::ios_base::getloc
_TEXT	ENDS
PUBLIC	??_7ios_base@std@@6B@				; std::ios_base::`vftable'
PUBLIC	??1ios_base@std@@UAE@XZ				; std::ios_base::~ios_base
PUBLIC	??_R4ios_base@std@@6B@				; std::ios_base::`RTTI Complete Object Locator'
PUBLIC	??_R0?AVios_base@std@@@8			; std::ios_base `RTTI Type Descriptor'
PUBLIC	??_R3ios_base@std@@8				; std::ios_base::`RTTI Class Hierarchy Descriptor'
PUBLIC	??_R2ios_base@std@@8				; std::ios_base::`RTTI Base Class Array'
PUBLIC	??_R1A@?0A@EA@ios_base@std@@8			; std::ios_base::`RTTI Base Class Descriptor at (0,-1,0,64)'
PUBLIC	??_R13?0A@EA@?$_Iosb@H@std@@8			; std::_Iosb<int>::`RTTI Base Class Descriptor at (4,-1,0,64)'
PUBLIC	??_R0?AV?$_Iosb@H@std@@@8			; std::_Iosb<int> `RTTI Type Descriptor'
PUBLIC	??_R3?$_Iosb@H@std@@8				; std::_Iosb<int>::`RTTI Class Hierarchy Descriptor'
PUBLIC	??_R2?$_Iosb@H@std@@8				; std::_Iosb<int>::`RTTI Base Class Array'
PUBLIC	??_R1A@?0A@EA@?$_Iosb@H@std@@8			; std::_Iosb<int>::`RTTI Base Class Descriptor at (0,-1,0,64)'
EXTRN	?_Ios_base_dtor@ios_base@std@@CAXPAV12@@Z:PROC	; std::ios_base::_Ios_base_dtor
EXTRN	??_Eios_base@std@@UAEPAXI@Z:PROC		; std::ios_base::`vector deleting destructor'
;	COMDAT ??_R1A@?0A@EA@?$_Iosb@H@std@@8
rdata$r	SEGMENT
??_R1A@?0A@EA@?$_Iosb@H@std@@8 DD FLAT:??_R0?AV?$_Iosb@H@std@@@8 ; std::_Iosb<int>::`RTTI Base Class Descriptor at (0,-1,0,64)'
	DD	00H
	DD	00H
	DD	0ffffffffH
	DD	00H
	DD	040H
	DD	FLAT:??_R3?$_Iosb@H@std@@8
rdata$r	ENDS
;	COMDAT ??_R2?$_Iosb@H@std@@8
rdata$r	SEGMENT
??_R2?$_Iosb@H@std@@8 DD FLAT:??_R1A@?0A@EA@?$_Iosb@H@std@@8 ; std::_Iosb<int>::`RTTI Base Class Array'
rdata$r	ENDS
;	COMDAT ??_R3?$_Iosb@H@std@@8
rdata$r	SEGMENT
??_R3?$_Iosb@H@std@@8 DD 00H				; std::_Iosb<int>::`RTTI Class Hierarchy Descriptor'
	DD	00H
	DD	01H
	DD	FLAT:??_R2?$_Iosb@H@std@@8
rdata$r	ENDS
;	COMDAT ??_R0?AV?$_Iosb@H@std@@@8
_DATA	SEGMENT
??_R0?AV?$_Iosb@H@std@@@8 DD FLAT:??_7type_info@@6B@	; std::_Iosb<int> `RTTI Type Descriptor'
	DD	00H
	DB	'.?AV?$_Iosb@H@std@@', 00H
_DATA	ENDS
;	COMDAT ??_R13?0A@EA@?$_Iosb@H@std@@8
rdata$r	SEGMENT
??_R13?0A@EA@?$_Iosb@H@std@@8 DD FLAT:??_R0?AV?$_Iosb@H@std@@@8 ; std::_Iosb<int>::`RTTI Base Class Descriptor at (4,-1,0,64)'
	DD	00H
	DD	04H
	DD	0ffffffffH
	DD	00H
	DD	040H
	DD	FLAT:??_R3?$_Iosb@H@std@@8
rdata$r	ENDS
;	COMDAT ??_R1A@?0A@EA@ios_base@std@@8
rdata$r	SEGMENT
??_R1A@?0A@EA@ios_base@std@@8 DD FLAT:??_R0?AVios_base@std@@@8 ; std::ios_base::`RTTI Base Class Descriptor at (0,-1,0,64)'
	DD	01H
	DD	00H
	DD	0ffffffffH
	DD	00H
	DD	040H
	DD	FLAT:??_R3ios_base@std@@8
rdata$r	ENDS
;	COMDAT ??_R2ios_base@std@@8
rdata$r	SEGMENT
??_R2ios_base@std@@8 DD FLAT:??_R1A@?0A@EA@ios_base@std@@8 ; std::ios_base::`RTTI Base Class Array'
	DD	FLAT:??_R13?0A@EA@?$_Iosb@H@std@@8
rdata$r	ENDS
;	COMDAT ??_R3ios_base@std@@8
rdata$r	SEGMENT
??_R3ios_base@std@@8 DD 00H				; std::ios_base::`RTTI Class Hierarchy Descriptor'
	DD	00H
	DD	02H
	DD	FLAT:??_R2ios_base@std@@8
rdata$r	ENDS
;	COMDAT ??_R0?AVios_base@std@@@8
_DATA	SEGMENT
??_R0?AVios_base@std@@@8 DD FLAT:??_7type_info@@6B@	; std::ios_base `RTTI Type Descriptor'
	DD	00H
	DB	'.?AVios_base@std@@', 00H
_DATA	ENDS
;	COMDAT ??_R4ios_base@std@@6B@
rdata$r	SEGMENT
??_R4ios_base@std@@6B@ DD 00H				; std::ios_base::`RTTI Complete Object Locator'
	DD	00H
	DD	00H
	DD	FLAT:??_R0?AVios_base@std@@@8
	DD	FLAT:??_R3ios_base@std@@8
rdata$r	ENDS
;	COMDAT ??_7ios_base@std@@6B@
CONST	SEGMENT
??_7ios_base@std@@6B@ DD FLAT:??_R4ios_base@std@@6B@	; std::ios_base::`vftable'
	DD	FLAT:??_Eios_base@std@@UAEPAXI@Z
; Function compile flags: /Ogtpy
CONST	ENDS
;	COMDAT ??1ios_base@std@@UAE@XZ
_TEXT	SEGMENT
??1ios_base@std@@UAE@XZ PROC				; std::ios_base::~ios_base, COMDAT
; _this$ = ecx

; 494  :         _Ios_base_dtor(this);

  00000	51		 push	 ecx
  00001	c7 01 00 00 00
	00		 mov	 DWORD PTR [ecx], OFFSET ??_7ios_base@std@@6B@
  00007	e8 00 00 00 00	 call	 ?_Ios_base_dtor@ios_base@std@@CAXPAV12@@Z ; std::ios_base::_Ios_base_dtor
  0000c	59		 pop	 ecx

; 495  :         }

  0000d	c3		 ret	 0
??1ios_base@std@@UAE@XZ ENDP				; std::ios_base::~ios_base
_TEXT	ENDS
PUBLIC	??0ios_base@std@@IAE@XZ				; std::ios_base::ios_base
; Function compile flags: /Ogtpy
;	COMDAT ??0ios_base@std@@IAE@XZ
_TEXT	SEGMENT
??0ios_base@std@@IAE@XZ PROC				; std::ios_base::ios_base, COMDAT
; _this$ = ecx

; 510  : 	__CLR_OR_THIS_CALL ios_base()

  00000	8b c1		 mov	 eax, ecx
  00002	c7 00 00 00 00
	00		 mov	 DWORD PTR [eax], OFFSET ??_7ios_base@std@@6B@

; 511  : 		{	// default constructor
; 512  : 		}

  00008	c3		 ret	 0
??0ios_base@std@@IAE@XZ ENDP				; std::ios_base::ios_base
; Function compile flags: /Ogtpy
_TEXT	ENDS
;	COMDAT ??_Gios_base@std@@UAEPAXI@Z
_TEXT	SEGMENT
___flags$ = 8						; size = 4
??_Gios_base@std@@UAEPAXI@Z PROC			; std::ios_base::`scalar deleting destructor', COMDAT
; _this$ = ecx
  00000	56		 push	 esi
  00001	8b f1		 mov	 esi, ecx
  00003	56		 push	 esi
  00004	c7 06 00 00 00
	00		 mov	 DWORD PTR [esi], OFFSET ??_7ios_base@std@@6B@
  0000a	e8 00 00 00 00	 call	 ?_Ios_base_dtor@ios_base@std@@CAXPAV12@@Z ; std::ios_base::_Ios_base_dtor
  0000f	83 c4 04	 add	 esp, 4
  00012	f6 44 24 08 01	 test	 BYTE PTR ___flags$[esp], 1
  00017	74 09		 je	 SHORT $LN6@scalar@4
  00019	56		 push	 esi
  0001a	e8 00 00 00 00	 call	 ??3@YAXPAX@Z		; operator delete
  0001f	83 c4 04	 add	 esp, 4
$LN6@scalar@4:
  00022	8b c6		 mov	 eax, esi
  00024	5e		 pop	 esi
  00025	c2 04 00	 ret	 4
??_Gios_base@std@@UAEPAXI@Z ENDP			; std::ios_base::`scalar deleting destructor'
_TEXT	ENDS
PUBLIC	??_7Container@ForEach@CipherShed@@6B@		; CipherShed::ForEach::Container::`vftable'
PUBLIC	??0Container@ForEach@CipherShed@@QAE@XZ		; CipherShed::ForEach::Container::Container
PUBLIC	??_R4Container@ForEach@CipherShed@@6B@		; CipherShed::ForEach::Container::`RTTI Complete Object Locator'
PUBLIC	??_R0?AUContainer@ForEach@CipherShed@@@8	; CipherShed::ForEach::Container `RTTI Type Descriptor'
PUBLIC	??_R3Container@ForEach@CipherShed@@8		; CipherShed::ForEach::Container::`RTTI Class Hierarchy Descriptor'
PUBLIC	??_R2Container@ForEach@CipherShed@@8		; CipherShed::ForEach::Container::`RTTI Base Class Array'
PUBLIC	??_R1A@?0A@EA@Container@ForEach@CipherShed@@8	; CipherShed::ForEach::Container::`RTTI Base Class Descriptor at (0,-1,0,64)'
EXTRN	??_EContainer@ForEach@CipherShed@@UAEPAXI@Z:PROC ; CipherShed::ForEach::Container::`vector deleting destructor'
EXTRN	__purecall:PROC
;	COMDAT ??_R1A@?0A@EA@Container@ForEach@CipherShed@@8
; File c:\home\public\desktop\projects\ciphershed\src\platform\foreach.h
rdata$r	SEGMENT
??_R1A@?0A@EA@Container@ForEach@CipherShed@@8 DD FLAT:??_R0?AUContainer@ForEach@CipherShed@@@8 ; CipherShed::ForEach::Container::`RTTI Base Class Descriptor at (0,-1,0,64)'
	DD	00H
	DD	00H
	DD	0ffffffffH
	DD	00H
	DD	040H
	DD	FLAT:??_R3Container@ForEach@CipherShed@@8
rdata$r	ENDS
;	COMDAT ??_R2Container@ForEach@CipherShed@@8
rdata$r	SEGMENT
??_R2Container@ForEach@CipherShed@@8 DD FLAT:??_R1A@?0A@EA@Container@ForEach@CipherShed@@8 ; CipherShed::ForEach::Container::`RTTI Base Class Array'
rdata$r	ENDS
;	COMDAT ??_R3Container@ForEach@CipherShed@@8
rdata$r	SEGMENT
??_R3Container@ForEach@CipherShed@@8 DD 00H		; CipherShed::ForEach::Container::`RTTI Class Hierarchy Descriptor'
	DD	00H
	DD	01H
	DD	FLAT:??_R2Container@ForEach@CipherShed@@8
rdata$r	ENDS
;	COMDAT ??_R0?AUContainer@ForEach@CipherShed@@@8
_DATA	SEGMENT
??_R0?AUContainer@ForEach@CipherShed@@@8 DD FLAT:??_7type_info@@6B@ ; CipherShed::ForEach::Container `RTTI Type Descriptor'
	DD	00H
	DB	'.?AUContainer@ForEach@CipherShed@@', 00H
_DATA	ENDS
;	COMDAT ??_R4Container@ForEach@CipherShed@@6B@
rdata$r	SEGMENT
??_R4Container@ForEach@CipherShed@@6B@ DD 00H		; CipherShed::ForEach::Container::`RTTI Complete Object Locator'
	DD	00H
	DD	00H
	DD	FLAT:??_R0?AUContainer@ForEach@CipherShed@@@8
	DD	FLAT:??_R3Container@ForEach@CipherShed@@8
rdata$r	ENDS
;	COMDAT ??_7Container@ForEach@CipherShed@@6B@
CONST	SEGMENT
??_7Container@ForEach@CipherShed@@6B@ DD FLAT:??_R4Container@ForEach@CipherShed@@6B@ ; CipherShed::ForEach::Container::`vftable'
	DD	FLAT:??_EContainer@ForEach@CipherShed@@UAEPAXI@Z
	DD	FLAT:__purecall
	DD	FLAT:__purecall
; Function compile flags: /Ogtpy
CONST	ENDS
;	COMDAT ??0Container@ForEach@CipherShed@@QAE@XZ
_TEXT	SEGMENT
??0Container@ForEach@CipherShed@@QAE@XZ PROC		; CipherShed::ForEach::Container::Container, COMDAT
; _this$ = ecx

; 19   : 			Container () : InnerContinue (true), InnerEndCondition (false) { }

  00000	8b c1		 mov	 eax, ecx
  00002	c7 00 00 00 00
	00		 mov	 DWORD PTR [eax], OFFSET ??_7Container@ForEach@CipherShed@@6B@
  00008	c6 40 04 01	 mov	 BYTE PTR [eax+4], 1
  0000c	c6 40 05 00	 mov	 BYTE PTR [eax+5], 0
  00010	c3		 ret	 0
??0Container@ForEach@CipherShed@@QAE@XZ ENDP		; CipherShed::ForEach::Container::Container
_TEXT	ENDS
PUBLIC	??1Container@ForEach@CipherShed@@UAE@XZ		; CipherShed::ForEach::Container::~Container
; Function compile flags: /Ogtpy
;	COMDAT ??1Container@ForEach@CipherShed@@UAE@XZ
_TEXT	SEGMENT
??1Container@ForEach@CipherShed@@UAE@XZ PROC		; CipherShed::ForEach::Container::~Container, COMDAT
; _this$ = ecx

; 20   : 			virtual ~Container () { }

  00000	c7 01 00 00 00
	00		 mov	 DWORD PTR [ecx], OFFSET ??_7Container@ForEach@CipherShed@@6B@
  00006	c3		 ret	 0
??1Container@ForEach@CipherShed@@UAE@XZ ENDP		; CipherShed::ForEach::Container::~Container
_TEXT	ENDS
PUBLIC	?Continue@Container@ForEach@CipherShed@@QBEXXZ	; CipherShed::ForEach::Container::Continue
; Function compile flags: /Ogtpy
;	COMDAT ?Continue@Container@ForEach@CipherShed@@QBEXXZ
_TEXT	SEGMENT
?Continue@Container@ForEach@CipherShed@@QBEXXZ PROC	; CipherShed::ForEach::Container::Continue, COMDAT
; _this$ = ecx

; 22   : 			void Continue () const { InnerContinue = true; }

  00000	c6 41 04 01	 mov	 BYTE PTR [ecx+4], 1
  00004	c3		 ret	 0
?Continue@Container@ForEach@CipherShed@@QBEXXZ ENDP	; CipherShed::ForEach::Container::Continue
_TEXT	ENDS
PUBLIC	?InnerIsNotEnd@Container@ForEach@CipherShed@@QBE_NXZ ; CipherShed::ForEach::Container::InnerIsNotEnd
; Function compile flags: /Ogtpy
;	COMDAT ?InnerIsNotEnd@Container@ForEach@CipherShed@@QBE_NXZ
_TEXT	SEGMENT
?InnerIsNotEnd@Container@ForEach@CipherShed@@QBE_NXZ PROC ; CipherShed::ForEach::Container::InnerIsNotEnd, COMDAT
; _this$ = ecx

; 23   : 			bool InnerIsNotEnd () const { return InnerEndCondition = !InnerEndCondition; }

  00000	80 79 05 00	 cmp	 BYTE PTR [ecx+5], 0
  00004	0f 94 c0	 sete	 al
  00007	88 41 05	 mov	 BYTE PTR [ecx+5], al
  0000a	c3		 ret	 0
?InnerIsNotEnd@Container@ForEach@CipherShed@@QBE_NXZ ENDP ; CipherShed::ForEach::Container::InnerIsNotEnd
; Function compile flags: /Ogtpy
_TEXT	ENDS
;	COMDAT ??_GContainer@ForEach@CipherShed@@UAEPAXI@Z
_TEXT	SEGMENT
___flags$ = 8						; size = 4
??_GContainer@ForEach@CipherShed@@UAEPAXI@Z PROC	; CipherShed::ForEach::Container::`scalar deleting destructor', COMDAT
; _this$ = ecx
  00000	f6 44 24 04 01	 test	 BYTE PTR ___flags$[esp-4], 1
  00005	56		 push	 esi
  00006	8b f1		 mov	 esi, ecx
  00008	c7 06 00 00 00
	00		 mov	 DWORD PTR [esi], OFFSET ??_7Container@ForEach@CipherShed@@6B@
  0000e	74 09		 je	 SHORT $LN6@scalar@5
  00010	56		 push	 esi
  00011	e8 00 00 00 00	 call	 ??3@YAXPAX@Z		; operator delete
  00016	83 c4 04	 add	 esp, 4
$LN6@scalar@5:
  00019	8b c6		 mov	 eax, esi
  0001b	5e		 pop	 esi
  0001c	c2 04 00	 ret	 4
??_GContainer@ForEach@CipherShed@@UAEPAXI@Z ENDP	; CipherShed::ForEach::Container::`scalar deleting destructor'
_TEXT	ENDS
PUBLIC	??_C@_00CNPNBAHC@?$AA@				; `string'
PUBLIC	__$ArrayPad$
EXTRN	_defaultKeyFilesParam:QWORD
EXTRN	_KeyFileRemoveAll:PROC
EXTRN	_FirstKeyFile:DWORD
EXTRN	__imp__SetWindowTextA@8:PROC
EXTRN	___security_cookie:DWORD
EXTRN	@__security_check_cookie@4:PROC
EXTRN	_memset:PROC
;	COMDAT ??_C@_00CNPNBAHC@?$AA@
; File c:\program files\microsoft sdks\windows\v7.1\include\winnt.h
CONST	SEGMENT
??_C@_00CNPNBAHC@?$AA@ DB 00H				; `string'
; Function compile flags: /Ogtpy
; File c:\home\public\desktop\projects\ciphershed\src\format\tcformat.c
CONST	ENDS
;	COMDAT ?WipePasswordsAndKeyfiles@@YAXXZ
_TEXT	SEGMENT
_tmp$ = -72						; size = 65
__$ArrayPad$ = -4					; size = 4
?WipePasswordsAndKeyfiles@@YAXXZ PROC			; WipePasswordsAndKeyfiles, COMDAT

; 277  : {

  00000	83 ec 48	 sub	 esp, 72			; 00000048H
  00003	a1 00 00 00 00	 mov	 eax, DWORD PTR ___security_cookie
  00008	33 c4		 xor	 eax, esp
  0000a	89 44 24 44	 mov	 DWORD PTR __$ArrayPad$[esp+72], eax
  0000e	56		 push	 esi
  0000f	57		 push	 edi

; 278  : 	char tmp[MAX_PASSWORD+1];
; 279  : 
; 280  : 	// Attempt to wipe passwords stored in the input field buffers
; 281  : 	memset (tmp, 'X', MAX_PASSWORD);

  00010	6a 40		 push	 64			; 00000040H
  00012	8d 44 24 0c	 lea	 eax, DWORD PTR _tmp$[esp+84]
  00016	6a 58		 push	 88			; 00000058H
  00018	50		 push	 eax
  00019	e8 00 00 00 00	 call	 _memset

; 282  : 	tmp [MAX_PASSWORD] = 0;
; 283  : 	SetWindowText (hPasswordInputField, tmp);

  0001e	8b 15 00 00 00
	00		 mov	 edx, DWORD PTR ?hPasswordInputField@@3RAUHWND__@@A ; hPasswordInputField
  00024	8b 3d 00 00 00
	00		 mov	 edi, DWORD PTR __imp__SetWindowTextA@8
  0002a	83 c4 0c	 add	 esp, 12			; 0000000cH
  0002d	8d 4c 24 08	 lea	 ecx, DWORD PTR _tmp$[esp+80]
  00031	51		 push	 ecx
  00032	52		 push	 edx
  00033	c6 44 24 50 00	 mov	 BYTE PTR _tmp$[esp+152], 0
  00038	ff d7		 call	 edi

; 284  : 	SetWindowText (hVerifyPasswordInputField, tmp);

  0003a	8b 0d 00 00 00
	00		 mov	 ecx, DWORD PTR ?hVerifyPasswordInputField@@3RAUHWND__@@A ; hVerifyPasswordInputField
  00040	8d 44 24 08	 lea	 eax, DWORD PTR _tmp$[esp+80]
  00044	50		 push	 eax
  00045	51		 push	 ecx
  00046	ff d7		 call	 edi

; 285  : 
; 286  : 	burn (&szVerify[0], sizeof (szVerify));

  00048	ba 00 00 00 00	 mov	 edx, OFFSET ?szVerify@@3PADA ; szVerify
  0004d	b9 41 00 00 00	 mov	 ecx, 65			; 00000041H
  00052	8b f1		 mov	 esi, ecx
  00054	8b c2		 mov	 eax, edx
$LL19@WipePasswo:
  00056	c6 00 00	 mov	 BYTE PTR [eax], 0
  00059	40		 inc	 eax
  0005a	83 ee 01	 sub	 esi, 1
  0005d	75 f7		 jne	 SHORT $LL19@WipePasswo
  0005f	90		 npad	 1
$LL12@WipePasswo:
  00060	49		 dec	 ecx
  00061	c6 02 00	 mov	 BYTE PTR [edx], 0
  00064	42		 inc	 edx
  00065	85 c9		 test	 ecx, ecx
  00067	75 f7		 jne	 SHORT $LL12@WipePasswo

; 287  : 	burn (&volumePassword, sizeof (volumePassword));

  00069	ba 00 00 00 00	 mov	 edx, OFFSET ?volumePassword@@3UPassword@@A ; volumePassword
  0006e	b9 48 00 00 00	 mov	 ecx, 72			; 00000048H
  00073	8b f1		 mov	 esi, ecx
  00075	8b c2		 mov	 eax, edx
$LL23@WipePasswo:
  00077	c6 00 00	 mov	 BYTE PTR [eax], 0
  0007a	40		 inc	 eax
  0007b	83 ee 01	 sub	 esi, 1
  0007e	75 f7		 jne	 SHORT $LL23@WipePasswo
$LL7@WipePasswo:
  00080	49		 dec	 ecx
  00081	c6 02 00	 mov	 BYTE PTR [edx], 0
  00084	42		 inc	 edx
  00085	85 c9		 test	 ecx, ecx
  00087	75 f7		 jne	 SHORT $LL7@WipePasswo

; 288  : 	burn (&szRawPassword[0], sizeof (szRawPassword));

  00089	ba 00 00 00 00	 mov	 edx, OFFSET ?szRawPassword@@3PADA ; szRawPassword
  0008e	b9 41 00 00 00	 mov	 ecx, 65			; 00000041H
  00093	8b f1		 mov	 esi, ecx
  00095	8b c2		 mov	 eax, edx
$LL27@WipePasswo:
  00097	c6 00 00	 mov	 BYTE PTR [eax], 0
  0009a	40		 inc	 eax
  0009b	83 ee 01	 sub	 esi, 1
  0009e	75 f7		 jne	 SHORT $LL27@WipePasswo
$LL2@WipePasswo:
  000a0	49		 dec	 ecx
  000a1	c6 02 00	 mov	 BYTE PTR [edx], 0
  000a4	42		 inc	 edx
  000a5	85 c9		 test	 ecx, ecx
  000a7	75 f7		 jne	 SHORT $LL2@WipePasswo

; 289  : 
; 290  : 	SetWindowText (hPasswordInputField, "");

  000a9	8b 15 00 00 00
	00		 mov	 edx, DWORD PTR ?hPasswordInputField@@3RAUHWND__@@A ; hPasswordInputField
  000af	68 00 00 00 00	 push	 OFFSET ??_C@_00CNPNBAHC@?$AA@
  000b4	52		 push	 edx
  000b5	ff d7		 call	 edi

; 291  : 	SetWindowText (hVerifyPasswordInputField, "");

  000b7	a1 00 00 00 00	 mov	 eax, DWORD PTR ?hVerifyPasswordInputField@@3RAUHWND__@@A ; hVerifyPasswordInputField
  000bc	68 00 00 00 00	 push	 OFFSET ??_C@_00CNPNBAHC@?$AA@
  000c1	50		 push	 eax
  000c2	ff d7		 call	 edi

; 292  : 
; 293  : 	KeyFileRemoveAll (&FirstKeyFile);

  000c4	68 00 00 00 00	 push	 OFFSET _FirstKeyFile
  000c9	e8 00 00 00 00	 call	 _KeyFileRemoveAll

; 294  : 	KeyFileRemoveAll (&defaultKeyFilesParam.FirstKeyFile);

  000ce	68 04 00 00 00	 push	 OFFSET _defaultKeyFilesParam+4
  000d3	e8 00 00 00 00	 call	 _KeyFileRemoveAll

; 295  : }

  000d8	8b 4c 24 54	 mov	 ecx, DWORD PTR __$ArrayPad$[esp+88]
  000dc	83 c4 08	 add	 esp, 8
  000df	5f		 pop	 edi
  000e0	5e		 pop	 esi
  000e1	33 cc		 xor	 ecx, esp
  000e3	e8 00 00 00 00	 call	 @__security_check_cookie@4
  000e8	83 c4 48	 add	 esp, 72			; 00000048H
  000eb	c3		 ret	 0
?WipePasswordsAndKeyfiles@@YAXXZ ENDP			; WipePasswordsAndKeyfiles
_TEXT	ENDS
PUBLIC	??_GBootEncryption@CipherShed@@QAEPAXI@Z	; CipherShed::BootEncryption::`scalar deleting destructor'
EXTRN	??1BootEncryption@CipherShed@@QAE@XZ:PROC	; CipherShed::BootEncryption::~BootEncryption
; Function compile flags: /Ogtpy
;	COMDAT ??_GBootEncryption@CipherShed@@QAEPAXI@Z
_TEXT	SEGMENT
___flags$ = 8						; size = 4
??_GBootEncryption@CipherShed@@QAEPAXI@Z PROC		; CipherShed::BootEncryption::`scalar deleting destructor', COMDAT
; _this$ = ecx
  00000	56		 push	 esi
  00001	8b f1		 mov	 esi, ecx
  00003	e8 00 00 00 00	 call	 ??1BootEncryption@CipherShed@@QAE@XZ ; CipherShed::BootEncryption::~BootEncryption
  00008	f6 44 24 08 01	 test	 BYTE PTR ___flags$[esp], 1
  0000d	74 09		 je	 SHORT $LN4@scalar@6
  0000f	56		 push	 esi
  00010	e8 00 00 00 00	 call	 ??3@YAXPAX@Z		; operator delete
  00015	83 c4 04	 add	 esp, 4
$LN4@scalar@6:
  00018	8b c6		 mov	 eax, esi
  0001a	5e		 pop	 esi
  0001b	c2 04 00	 ret	 4
??_GBootEncryption@CipherShed@@QAEPAXI@Z ENDP		; CipherShed::BootEncryption::`scalar deleting destructor'
_TEXT	ENDS
PUBLIC	??_C@_0L@FEEFGEIL@CipherShed?$AA@		; `string'
PUBLIC	__$ArrayPad$
EXTRN	__imp__PostMessageA@16:PROC
EXTRN	_MainDlg:DWORD
EXTRN	__imp__GetWindowTextA@12:PROC
EXTRN	__imp__GetWindowLongA@8:PROC
;	COMDAT ??_C@_0L@FEEFGEIL@CipherShed?$AA@
; File c:\program files (x86)\microsoft visual studio 9.0\vc\include\string.h
CONST	SEGMENT
??_C@_0L@FEEFGEIL@CipherShed?$AA@ DB 'CipherShed', 00H	; `string'
; Function compile flags: /Ogtpy
; File c:\home\public\desktop\projects\ciphershed\src\format\tcformat.c
CONST	ENDS
;	COMDAT ?BroadcastSysEncCfgUpdateCallb@@YGHPAUHWND__@@J@Z
_TEXT	SEGMENT
_name$131745 = -1028					; size = 1024
__$ArrayPad$ = -4					; size = 4
_hwnd$ = 8						; size = 4
_lParam$ = 12						; size = 4
?BroadcastSysEncCfgUpdateCallb@@YGHPAUHWND__@@J@Z PROC	; BroadcastSysEncCfgUpdateCallb, COMDAT

; 377  : {

  00000	81 ec 04 04 00
	00		 sub	 esp, 1028		; 00000404H
  00006	a1 00 00 00 00	 mov	 eax, DWORD PTR ___security_cookie
  0000b	33 c4		 xor	 eax, esp
  0000d	89 84 24 00 04
	00 00		 mov	 DWORD PTR __$ArrayPad$[esp+1028], eax
  00014	56		 push	 esi
  00015	8b b4 24 0c 04
	00 00		 mov	 esi, DWORD PTR _hwnd$[esp+1028]

; 378  : 	/* Modifying 'TRUE' can introduce incompatibility with previous versions. */
; 379  : 	if (GetWindowLongPtr (hwnd, GWLP_USERDATA) == (LONG_PTR) 'TRUE')

  0001c	6a eb		 push	 -21			; ffffffebH
  0001e	56		 push	 esi
  0001f	ff 15 00 00 00
	00		 call	 DWORD PTR __imp__GetWindowLongA@8
  00025	3d 45 55 52 54	 cmp	 eax, 1414681925		; 54525545H
  0002a	75 58		 jne	 SHORT $LN9@BroadcastS

; 380  : 	{
; 381  : 		char name[1024] = { 0 };

  0002c	68 ff 03 00 00	 push	 1023			; 000003ffH
  00031	8d 44 24 09	 lea	 eax, DWORD PTR _name$131745[esp+1037]
  00035	6a 00		 push	 0
  00037	50		 push	 eax
  00038	c6 44 24 10 00	 mov	 BYTE PTR _name$131745[esp+1044], 0
  0003d	e8 00 00 00 00	 call	 _memset
  00042	83 c4 0c	 add	 esp, 12			; 0000000cH

; 382  : 		GetWindowText (hwnd, name, sizeof (name) - 1);

  00045	68 ff 03 00 00	 push	 1023			; 000003ffH
  0004a	8d 4c 24 08	 lea	 ecx, DWORD PTR _name$131745[esp+1036]
  0004e	51		 push	 ecx
  0004f	56		 push	 esi
  00050	ff 15 00 00 00
	00		 call	 DWORD PTR __imp__GetWindowTextA@12

; 383  : 		if (hwnd != MainDlg && strstr (name, "CipherShed"))

  00056	3b 35 00 00 00
	00		 cmp	 esi, DWORD PTR _MainDlg
  0005c	74 26		 je	 SHORT $LN9@BroadcastS
  0005e	8d 54 24 04	 lea	 edx, DWORD PTR _name$131745[esp+1032]
  00062	68 00 00 00 00	 push	 OFFSET ??_C@_0L@FEEFGEIL@CipherShed?$AA@
  00067	52		 push	 edx
  00068	e8 00 00 00 00	 call	 _strstr
  0006d	83 c4 08	 add	 esp, 8
  00070	85 c0		 test	 eax, eax
  00072	74 10		 je	 SHORT $LN9@BroadcastS

; 384  : 		{
; 385  : 			PostMessage (hwnd, TC_APPMSG_SYSENC_CONFIG_UPDATE, 0, 0);

  00074	6a 00		 push	 0
  00076	6a 00		 push	 0
  00078	68 65 80 00 00	 push	 32869			; 00008065H
  0007d	56		 push	 esi
  0007e	ff 15 00 00 00
	00		 call	 DWORD PTR __imp__PostMessageA@16
$LN9@BroadcastS:

; 386  : 		}
; 387  : 	}
; 388  : 	return TRUE;
; 389  : }

  00084	8b 8c 24 04 04
	00 00		 mov	 ecx, DWORD PTR __$ArrayPad$[esp+1032]
  0008b	5e		 pop	 esi
  0008c	33 cc		 xor	 ecx, esp
  0008e	b8 01 00 00 00	 mov	 eax, 1
  00093	e8 00 00 00 00	 call	 @__security_check_cookie@4
  00098	81 c4 04 04 00
	00		 add	 esp, 1028		; 00000404H
  0009e	c2 08 00	 ret	 8
?BroadcastSysEncCfgUpdateCallb@@YGHPAUHWND__@@J@Z ENDP	; BroadcastSysEncCfgUpdateCallb
_TEXT	ENDS
EXTRN	__imp__EnumWindows@8:PROC
; Function compile flags: /Ogtpy
;	COMDAT ?BroadcastSysEncCfgUpdate@@YAHXZ
_TEXT	SEGMENT
_bSuccess$ = -4						; size = 4
?BroadcastSysEncCfgUpdate@@YAHXZ PROC			; BroadcastSysEncCfgUpdate, COMDAT

; 392  : {

  00000	51		 push	 ecx

; 393  : 	BOOL bSuccess = FALSE;
; 394  : 	EnumWindows (BroadcastSysEncCfgUpdateCallb, (LPARAM) &bSuccess);

  00001	8d 04 24	 lea	 eax, DWORD PTR _bSuccess$[esp+4]
  00004	50		 push	 eax
  00005	68 00 00 00 00	 push	 OFFSET ?BroadcastSysEncCfgUpdateCallb@@YGHPAUHWND__@@J@Z ; BroadcastSysEncCfgUpdateCallb
  0000a	c7 44 24 08 00
	00 00 00	 mov	 DWORD PTR _bSuccess$[esp+12], 0
  00012	ff 15 00 00 00
	00		 call	 DWORD PTR __imp__EnumWindows@8

; 395  : 	return bSuccess;

  00018	8b 04 24	 mov	 eax, DWORD PTR _bSuccess$[esp+4]

; 396  : }

  0001b	59		 pop	 ecx
  0001c	c3		 ret	 0
?BroadcastSysEncCfgUpdate@@YAHXZ ENDP			; BroadcastSysEncCfgUpdate
_TEXT	ENDS
PUBLIC	??_C@_0BD@KMABOOHN@?6?7?$DM?1sysencryption?$DO?$AA@ ; `string'
PUBLIC	??_C@_0CG@BNNHBPIN@?6?7?7?$DMconfig?5key?$DN?$CCWipeMode?$CC?$DO?$CFd?$DM?1co@ ; `string'
PUBLIC	??_C@_0DE@HMBPOGIN@?6?7?7?$DMconfig?5key?$DN?$CCSystemEncryption@ ; `string'
PUBLIC	??_C@_0BC@IEDCODCO@?6?7?$DMsysencryption?$DO?$AA@ ; `string'
PUBLIC	??_C@_01NOFIACDB@w?$AA@				; `string'
PUBLIC	??_C@_0CE@LPCKNJKP@CANNOT_SAVE_SYS_ENCRYPTION_SETTI@ ; `string'
PUBLIC	??_C@_0BG@NJOIKHOP@System?5Encryption?4xml?$AA@	; `string'
EXTRN	_fclose:PROC
EXTRN	_TCFlushFile:PROC
EXTRN	_XmlWriteFooter:PROC
EXTRN	_nWipeMode:DWORD
EXTRN	_fprintf:PROC
EXTRN	_fputs:PROC
EXTRN	_XmlWriteHeader:PROC
EXTRN	_handleWin32Error:PROC
EXTRN	_fopen:PROC
EXTRN	_Error:PROC
EXTRN	_remove:PROC
EXTRN	_GetConfigPath:PROC
EXTRN	_SystemEncryptionStatus:DWORD
EXTRN	_CreateSysEncMutex:PROC
;	COMDAT ??_C@_0BD@KMABOOHN@?6?7?$DM?1sysencryption?$DO?$AA@
CONST	SEGMENT
??_C@_0BD@KMABOOHN@?6?7?$DM?1sysencryption?$DO?$AA@ DB 0aH, 09H, '</sysen'
	DB	'cryption>', 00H				; `string'
CONST	ENDS
;	COMDAT ??_C@_0CG@BNNHBPIN@?6?7?7?$DMconfig?5key?$DN?$CCWipeMode?$CC?$DO?$CFd?$DM?1co@
CONST	SEGMENT
??_C@_0CG@BNNHBPIN@?6?7?7?$DMconfig?5key?$DN?$CCWipeMode?$CC?$DO?$CFd?$DM?1co@ DB 0aH
	DB	09H, 09H, '<config key="WipeMode">%d</config>', 00H ; `string'
CONST	ENDS
;	COMDAT ??_C@_0DE@HMBPOGIN@?6?7?7?$DMconfig?5key?$DN?$CCSystemEncryption@
CONST	SEGMENT
??_C@_0DE@HMBPOGIN@?6?7?7?$DMconfig?5key?$DN?$CCSystemEncryption@ DB 0aH, 09H
	DB	09H, '<config key="SystemEncryptionStatus">%d</config>', 00H ; `string'
CONST	ENDS
;	COMDAT ??_C@_0BC@IEDCODCO@?6?7?$DMsysencryption?$DO?$AA@
CONST	SEGMENT
??_C@_0BC@IEDCODCO@?6?7?$DMsysencryption?$DO?$AA@ DB 0aH, 09H, '<sysencry'
	DB	'ption>', 00H				; `string'
CONST	ENDS
;	COMDAT ??_C@_01NOFIACDB@w?$AA@
CONST	SEGMENT
??_C@_01NOFIACDB@w?$AA@ DB 'w', 00H			; `string'
CONST	ENDS
;	COMDAT ??_C@_0CE@LPCKNJKP@CANNOT_SAVE_SYS_ENCRYPTION_SETTI@
CONST	SEGMENT
??_C@_0CE@LPCKNJKP@CANNOT_SAVE_SYS_ENCRYPTION_SETTI@ DB 'CANNOT_SAVE_SYS_'
	DB	'ENCRYPTION_SETTINGS', 00H			; `string'
CONST	ENDS
;	COMDAT ??_C@_0BG@NJOIKHOP@System?5Encryption?4xml?$AA@
CONST	SEGMENT
??_C@_0BG@NJOIKHOP@System?5Encryption?4xml?$AA@ DB 'System Encryption.xml'
	DB	00H						; `string'
; Function compile flags: /Ogtpy
CONST	ENDS
;	COMDAT ?SaveSysEncSettings@@YAHPAUHWND__@@@Z
_TEXT	SEGMENT
?SaveSysEncSettings@@YAHPAUHWND__@@@Z PROC		; SaveSysEncSettings, COMDAT
; _hwndDlg$ = eax

; 402  : 	FILE *f;
; 403  : 
; 404  : 	if (!bSystemEncryptionStatusChanged)

  00000	83 3d 00 00 00
	00 00		 cmp	 DWORD PTR _bSystemEncryptionStatusChanged, 0
  00007	57		 push	 edi
  00008	8b f8		 mov	 edi, eax

; 405  : 		return TRUE;

  0000a	74 58		 je	 SHORT $LN13@SaveSysEnc

; 406  : 
; 407  : 	if (hwndDlg == NULL && MainDlg != NULL)

  0000c	85 ff		 test	 edi, edi
  0000e	75 0b		 jne	 SHORT $LN7@SaveSysEnc
  00010	a1 00 00 00 00	 mov	 eax, DWORD PTR _MainDlg
  00015	85 c0		 test	 eax, eax
  00017	74 02		 je	 SHORT $LN7@SaveSysEnc

; 408  : 		hwndDlg = MainDlg;

  00019	8b f8		 mov	 edi, eax
$LN7@SaveSysEnc:

; 409  : 
; 410  : 	if (!CreateSysEncMutex ())

  0001b	e8 00 00 00 00	 call	 _CreateSysEncMutex
  00020	85 c0		 test	 eax, eax

; 411  : 		return FALSE;		// Only one instance that has the mutex can modify the system encryption settings

  00022	74 2d		 je	 SHORT $LN14@SaveSysEnc

; 412  : 
; 413  : 	if (SystemEncryptionStatus == SYSENC_STATUS_NONE)

  00024	83 3d 00 00 00
	00 00		 cmp	 DWORD PTR _SystemEncryptionStatus, 0
  0002b	75 3e		 jne	 SHORT $LN5@SaveSysEnc

; 414  : 	{
; 415  : 		if (remove (GetConfigPath (TC_APPD_FILENAME_SYSTEM_ENCRYPTION)) != 0)

  0002d	68 00 00 00 00	 push	 OFFSET ??_C@_0BG@NJOIKHOP@System?5Encryption?4xml?$AA@
  00032	e8 00 00 00 00	 call	 _GetConfigPath
  00037	50		 push	 eax
  00038	e8 00 00 00 00	 call	 _remove
  0003d	83 c4 08	 add	 esp, 8
  00040	85 c0		 test	 eax, eax
  00042	74 11		 je	 SHORT $LN4@SaveSysEnc

; 416  : 		{
; 417  : 			Error ("CANNOT_SAVE_SYS_ENCRYPTION_SETTINGS");

  00044	68 00 00 00 00	 push	 OFFSET ??_C@_0CE@LPCKNJKP@CANNOT_SAVE_SYS_ENCRYPTION_SETTI@
  00049	e8 00 00 00 00	 call	 _Error
  0004e	83 c4 04	 add	 esp, 4
$LN14@SaveSysEnc:

; 418  : 			return FALSE;

  00051	33 c0		 xor	 eax, eax
  00053	5f		 pop	 edi

; 460  : }

  00054	c3		 ret	 0
$LN4@SaveSysEnc:

; 419  : 		}
; 420  : 
; 421  : 		bSystemEncryptionStatusChanged = FALSE;

  00055	c7 05 00 00 00
	00 00 00 00 00	 mov	 DWORD PTR _bSystemEncryptionStatusChanged, 0

; 422  : 		BroadcastSysEncCfgUpdate ();

  0005f	e8 00 00 00 00	 call	 ?BroadcastSysEncCfgUpdate@@YAHXZ ; BroadcastSysEncCfgUpdate
$LN13@SaveSysEnc:

; 423  : 		return TRUE;

  00064	b8 01 00 00 00	 mov	 eax, 1
  00069	5f		 pop	 edi

; 460  : }

  0006a	c3		 ret	 0
$LN5@SaveSysEnc:
  0006b	56		 push	 esi

; 424  : 	}
; 425  : 
; 426  : 	f = fopen (GetConfigPath (TC_APPD_FILENAME_SYSTEM_ENCRYPTION), "w");

  0006c	68 00 00 00 00	 push	 OFFSET ??_C@_01NOFIACDB@w?$AA@
  00071	68 00 00 00 00	 push	 OFFSET ??_C@_0BG@NJOIKHOP@System?5Encryption?4xml?$AA@
  00076	e8 00 00 00 00	 call	 _GetConfigPath
  0007b	83 c4 04	 add	 esp, 4
  0007e	50		 push	 eax
  0007f	e8 00 00 00 00	 call	 _fopen
  00084	8b f0		 mov	 esi, eax
  00086	83 c4 08	 add	 esp, 8

; 427  : 	if (f == NULL)

  00089	85 f6		 test	 esi, esi
  0008b	75 18		 jne	 SHORT $LN3@SaveSysEnc

; 428  : 	{
; 429  : 		Error ("CANNOT_SAVE_SYS_ENCRYPTION_SETTINGS");

  0008d	68 00 00 00 00	 push	 OFFSET ??_C@_0CE@LPCKNJKP@CANNOT_SAVE_SYS_ENCRYPTION_SETTI@
  00092	e8 00 00 00 00	 call	 _Error

; 430  : 		handleWin32Error (hwndDlg);

  00097	57		 push	 edi
  00098	e8 00 00 00 00	 call	 _handleWin32Error
  0009d	83 c4 08	 add	 esp, 8
  000a0	5e		 pop	 esi

; 449  : 		return FALSE;

  000a1	33 c0		 xor	 eax, eax
  000a3	5f		 pop	 edi

; 460  : }

  000a4	c3		 ret	 0
$LN3@SaveSysEnc:

; 431  : 		return FALSE;
; 432  : 	}
; 433  : 
; 434  : 	if (XmlWriteHeader (f) < 0
; 435  : 
; 436  : 	|| fputs ("\n\t<sysencryption>", f) < 0
; 437  : 
; 438  : 	|| fprintf (f, "\n\t\t<config key=\"SystemEncryptionStatus\">%d</config>", SystemEncryptionStatus) < 0
; 439  : 
; 440  : 	|| fprintf (f, "\n\t\t<config key=\"WipeMode\">%d</config>", (int) nWipeMode) < 0
; 441  : 
; 442  : 	|| fputs ("\n\t</sysencryption>", f) < 0
; 443  : 
; 444  : 	|| XmlWriteFooter (f) < 0)

  000a5	56		 push	 esi
  000a6	e8 00 00 00 00	 call	 _XmlWriteHeader
  000ab	83 c4 04	 add	 esp, 4
  000ae	85 c0		 test	 eax, eax
  000b0	0f 8c 88 00 00
	00		 jl	 $LN1@SaveSysEnc
  000b6	56		 push	 esi
  000b7	68 00 00 00 00	 push	 OFFSET ??_C@_0BC@IEDCODCO@?6?7?$DMsysencryption?$DO?$AA@
  000bc	e8 00 00 00 00	 call	 _fputs
  000c1	83 c4 08	 add	 esp, 8
  000c4	85 c0		 test	 eax, eax
  000c6	7c 76		 jl	 SHORT $LN1@SaveSysEnc
  000c8	a1 00 00 00 00	 mov	 eax, DWORD PTR _SystemEncryptionStatus
  000cd	50		 push	 eax
  000ce	68 00 00 00 00	 push	 OFFSET ??_C@_0DE@HMBPOGIN@?6?7?7?$DMconfig?5key?$DN?$CCSystemEncryption@
  000d3	56		 push	 esi
  000d4	e8 00 00 00 00	 call	 _fprintf
  000d9	83 c4 0c	 add	 esp, 12			; 0000000cH
  000dc	85 c0		 test	 eax, eax
  000de	7c 5e		 jl	 SHORT $LN1@SaveSysEnc
  000e0	8b 0d 00 00 00
	00		 mov	 ecx, DWORD PTR _nWipeMode
  000e6	51		 push	 ecx
  000e7	68 00 00 00 00	 push	 OFFSET ??_C@_0CG@BNNHBPIN@?6?7?7?$DMconfig?5key?$DN?$CCWipeMode?$CC?$DO?$CFd?$DM?1co@
  000ec	56		 push	 esi
  000ed	e8 00 00 00 00	 call	 _fprintf
  000f2	83 c4 0c	 add	 esp, 12			; 0000000cH
  000f5	85 c0		 test	 eax, eax
  000f7	7c 45		 jl	 SHORT $LN1@SaveSysEnc
  000f9	56		 push	 esi
  000fa	68 00 00 00 00	 push	 OFFSET ??_C@_0BD@KMABOOHN@?6?7?$DM?1sysencryption?$DO?$AA@
  000ff	e8 00 00 00 00	 call	 _fputs
  00104	83 c4 08	 add	 esp, 8
  00107	85 c0		 test	 eax, eax
  00109	7c 33		 jl	 SHORT $LN1@SaveSysEnc
  0010b	56		 push	 esi
  0010c	e8 00 00 00 00	 call	 _XmlWriteFooter
  00111	83 c4 04	 add	 esp, 4
  00114	85 c0		 test	 eax, eax
  00116	7c 26		 jl	 SHORT $LN1@SaveSysEnc

; 450  : 	}
; 451  : 
; 452  : 	TCFlushFile (f);

  00118	56		 push	 esi
  00119	e8 00 00 00 00	 call	 _TCFlushFile

; 453  : 
; 454  : 	fclose (f);

  0011e	56		 push	 esi
  0011f	e8 00 00 00 00	 call	 _fclose
  00124	83 c4 08	 add	 esp, 8

; 455  : 
; 456  : 	bSystemEncryptionStatusChanged = FALSE;

  00127	c7 05 00 00 00
	00 00 00 00 00	 mov	 DWORD PTR _bSystemEncryptionStatusChanged, 0

; 457  : 	BroadcastSysEncCfgUpdate ();

  00131	e8 00 00 00 00	 call	 ?BroadcastSysEncCfgUpdate@@YAHXZ ; BroadcastSysEncCfgUpdate
  00136	5e		 pop	 esi

; 458  : 
; 459  : 	return TRUE;

  00137	b8 01 00 00 00	 mov	 eax, 1
  0013c	5f		 pop	 edi

; 460  : }

  0013d	c3		 ret	 0
$LN1@SaveSysEnc:

; 445  : 	{
; 446  : 		handleWin32Error (hwndDlg);

  0013e	57		 push	 edi
  0013f	e8 00 00 00 00	 call	 _handleWin32Error

; 447  : 		fclose (f);

  00144	56		 push	 esi
  00145	e8 00 00 00 00	 call	 _fclose

; 448  : 		Error ("CANNOT_SAVE_SYS_ENCRYPTION_SETTINGS");

  0014a	68 00 00 00 00	 push	 OFFSET ??_C@_0CE@LPCKNJKP@CANNOT_SAVE_SYS_ENCRYPTION_SETTI@
  0014f	e8 00 00 00 00	 call	 _Error
  00154	83 c4 0c	 add	 esp, 12			; 0000000cH
  00157	5e		 pop	 esi

; 449  : 		return FALSE;

  00158	33 c0		 xor	 eax, eax
  0015a	5f		 pop	 edi

; 460  : }

  0015b	c3		 ret	 0
?SaveSysEncSettings@@YAHPAUHWND__@@@Z ENDP		; SaveSysEncSettings
_TEXT	ENDS
PUBLIC	??_C@_0CF@BOINGOPM@ERR_GETTING_SYSTEM_ENCRYPTION_ST@ ; `string'
PUBLIC	??_R0?AUException@CipherShed@@@8		; CipherShed::Exception `RTTI Type Descriptor'
EXTRN	_AbortProcess:PROC
EXTRN	?GetHiddenOSCreationPhase@BootEncryption@CipherShed@@QAEIXZ:PROC ; CipherShed::BootEncryption::GetHiddenOSCreationPhase
EXTRN	___CxxFrameHandler3:PROC
;	COMDAT ??_R0?AUException@CipherShed@@@8
_DATA	SEGMENT
??_R0?AUException@CipherShed@@@8 DD FLAT:??_7type_info@@6B@ ; CipherShed::Exception `RTTI Type Descriptor'
	DD	00H
	DB	'.?AUException@CipherShed@@', 00H
_DATA	ENDS
;	COMDAT ??_C@_0CF@BOINGOPM@ERR_GETTING_SYSTEM_ENCRYPTION_ST@
CONST	SEGMENT
??_C@_0CF@BOINGOPM@ERR_GETTING_SYSTEM_ENCRYPTION_ST@ DB 'ERR_GETTING_SYST'
	DB	'EM_ENCRYPTION_STATUS', 00H			; `string'
CONST	ENDS
;	COMDAT xdata$x
xdata$x	SEGMENT
__catchsym$?DetermineHiddenOSCreationPhase@@YAIXZ$2 DD 08H
	DD	FLAT:??_R0?AUException@CipherShed@@@8
	DD	0ffffffe8H
	DD	FLAT:__catch$?DetermineHiddenOSCreationPhase@@YAIXZ$0
__unwindtable$?DetermineHiddenOSCreationPhase@@YAIXZ DD 0ffffffffH
	DD	00H
	DD	0ffffffffH
	DD	00H
__tryblocktable$?DetermineHiddenOSCreationPhase@@YAIXZ DD 00H
	DD	00H
	DD	01H
	DD	01H
	DD	FLAT:__catchsym$?DetermineHiddenOSCreationPhase@@YAIXZ$2
__ehfuncinfo$?DetermineHiddenOSCreationPhase@@YAIXZ DD 019930522H
	DD	02H
	DD	FLAT:__unwindtable$?DetermineHiddenOSCreationPhase@@YAIXZ
	DD	01H
	DD	FLAT:__tryblocktable$?DetermineHiddenOSCreationPhase@@YAIXZ
	DD	2 DUP(00H)
	DD	00H
	DD	01H
; Function compile flags: /Ogtpy
xdata$x	ENDS
;	COMDAT ?DetermineHiddenOSCreationPhase@@YAIXZ
_TEXT	SEGMENT
_e$131777 = -24						; size = 4
_phase$ = -20						; size = 4
__$EHRec$ = -16						; size = 16
?DetermineHiddenOSCreationPhase@@YAIXZ PROC		; DetermineHiddenOSCreationPhase, COMDAT

; 464  : {

  00000	55		 push	 ebp
  00001	8b ec		 mov	 ebp, esp
  00003	6a ff		 push	 -1
  00005	68 00 00 00 00	 push	 __ehhandler$?DetermineHiddenOSCreationPhase@@YAIXZ
  0000a	64 a1 00 00 00
	00		 mov	 eax, DWORD PTR fs:0
  00010	50		 push	 eax
  00011	83 ec 0c	 sub	 esp, 12			; 0000000cH
  00014	53		 push	 ebx
  00015	56		 push	 esi
  00016	57		 push	 edi
  00017	a1 00 00 00 00	 mov	 eax, DWORD PTR ___security_cookie
  0001c	33 c5		 xor	 eax, ebp
  0001e	50		 push	 eax
  0001f	8d 45 f4	 lea	 eax, DWORD PTR __$EHRec$[ebp+4]
  00022	64 a3 00 00 00
	00		 mov	 DWORD PTR fs:0, eax
  00028	89 65 f0	 mov	 DWORD PTR __$EHRec$[ebp], esp

; 465  : 	unsigned int phase = TC_HIDDEN_OS_CREATION_PHASE_NONE;
; 466  : 
; 467  : 	try
; 468  : 	{
; 469  : 		phase = BootEncObj->GetHiddenOSCreationPhase();

  0002b	8b 0d 00 00 00
	00		 mov	 ecx, DWORD PTR ?BootEncObj@@3PAVBootEncryption@CipherShed@@A ; BootEncObj
  00031	33 c0		 xor	 eax, eax
  00033	89 45 ec	 mov	 DWORD PTR _phase$[ebp], eax
  00036	89 45 fc	 mov	 DWORD PTR __$EHRec$[ebp+12], eax
  00039	e8 00 00 00 00	 call	 ?GetHiddenOSCreationPhase@BootEncryption@CipherShed@@QAEIXZ ; CipherShed::BootEncryption::GetHiddenOSCreationPhase

; 476  : 
; 477  : 	return phase;
; 478  : }

  0003e	8b 4d f4	 mov	 ecx, DWORD PTR __$EHRec$[ebp+4]
  00041	64 89 0d 00 00
	00 00		 mov	 DWORD PTR fs:0, ecx
  00048	59		 pop	 ecx
  00049	5f		 pop	 edi
  0004a	5e		 pop	 esi
  0004b	5b		 pop	 ebx
  0004c	8b e5		 mov	 esp, ebp
  0004e	5d		 pop	 ebp
  0004f	c3		 ret	 0
__catch$?DetermineHiddenOSCreationPhase@@YAIXZ$0:

; 470  : 	}
; 471  : 	catch (Exception &e)
; 472  : 	{
; 473  : 		e.Show (MainDlg);

  00050	8b 4d e8	 mov	 ecx, DWORD PTR _e$131777[ebp]
  00053	8b 01		 mov	 eax, DWORD PTR [ecx]
  00055	8b 15 00 00 00
	00		 mov	 edx, DWORD PTR _MainDlg
  0005b	8b 00		 mov	 eax, DWORD PTR [eax]
  0005d	52		 push	 edx
  0005e	ff d0		 call	 eax

; 474  : 		AbortProcess("ERR_GETTING_SYSTEM_ENCRYPTION_STATUS");

  00060	68 00 00 00 00	 push	 OFFSET ??_C@_0CF@BOINGOPM@ERR_GETTING_SYSTEM_ENCRYPTION_ST@
  00065	e8 00 00 00 00	 call	 _AbortProcess
  0006a	83 c4 04	 add	 esp, 4

; 475  : 	}

  0006d	b8 00 00 00 00	 mov	 eax, $LN9@DetermineH
  00072	c3		 ret	 0
$LN9@DetermineH:
  00073	8b 45 ec	 mov	 eax, DWORD PTR _phase$[ebp]

; 476  : 
; 477  : 	return phase;
; 478  : }

  00076	8b 4d f4	 mov	 ecx, DWORD PTR __$EHRec$[ebp+4]
  00079	64 89 0d 00 00
	00 00		 mov	 DWORD PTR fs:0, ecx
  00080	59		 pop	 ecx
  00081	5f		 pop	 edi
  00082	5e		 pop	 esi
  00083	5b		 pop	 ebx
  00084	8b e5		 mov	 esp, ebp
  00086	5d		 pop	 ebp
  00087	c3		 ret	 0
_TEXT	ENDS
;	COMDAT text$x
text$x	SEGMENT
__ehhandler$?DetermineHiddenOSCreationPhase@@YAIXZ:
  00000	8b 54 24 08	 mov	 edx, DWORD PTR [esp+8]
  00004	8d 42 0c	 lea	 eax, DWORD PTR [edx+12]
  00007	8b 4a e4	 mov	 ecx, DWORD PTR [edx-28]
  0000a	33 c8		 xor	 ecx, eax
  0000c	e8 00 00 00 00	 call	 @__security_check_cookie@4
  00011	b8 00 00 00 00	 mov	 eax, OFFSET __ehfuncinfo$?DetermineHiddenOSCreationPhase@@YAIXZ
  00016	e9 00 00 00 00	 jmp	 ___CxxFrameHandler3
text$x	ENDS
?DetermineHiddenOSCreationPhase@@YAIXZ ENDP		; DetermineHiddenOSCreationPhase
PUBLIC	??_C@_0CI@FPFBOAHN@SYSTEM_ENCRYPTION_IN_PROGRESS_EL@ ; `string'
EXTRN	?SetHiddenOSCreationPhase@BootEncryption@CipherShed@@QAEXI@Z:PROC ; CipherShed::BootEncryption::SetHiddenOSCreationPhase
;	COMDAT ??_C@_0CI@FPFBOAHN@SYSTEM_ENCRYPTION_IN_PROGRESS_EL@
CONST	SEGMENT
??_C@_0CI@FPFBOAHN@SYSTEM_ENCRYPTION_IN_PROGRESS_EL@ DB 'SYSTEM_ENCRYPTIO'
	DB	'N_IN_PROGRESS_ELSEWHERE', 00H		; `string'
CONST	ENDS
;	COMDAT xdata$x
xdata$x	SEGMENT
__catchsym$?ChangeHiddenOSCreationPhase@@YAHH@Z$2 DD 08H
	DD	FLAT:??_R0?AUException@CipherShed@@@8
	DD	0ffffffecH
	DD	FLAT:__catch$?ChangeHiddenOSCreationPhase@@YAHH@Z$0
__unwindtable$?ChangeHiddenOSCreationPhase@@YAHH@Z DD 0ffffffffH
	DD	00H
	DD	0ffffffffH
	DD	00H
__tryblocktable$?ChangeHiddenOSCreationPhase@@YAHH@Z DD 00H
	DD	00H
	DD	01H
	DD	01H
	DD	FLAT:__catchsym$?ChangeHiddenOSCreationPhase@@YAHH@Z$2
__ehfuncinfo$?ChangeHiddenOSCreationPhase@@YAHH@Z DD 019930522H
	DD	02H
	DD	FLAT:__unwindtable$?ChangeHiddenOSCreationPhase@@YAHH@Z
	DD	01H
	DD	FLAT:__tryblocktable$?ChangeHiddenOSCreationPhase@@YAHH@Z
	DD	2 DUP(00H)
	DD	00H
	DD	01H
; Function compile flags: /Ogtpy
xdata$x	ENDS
;	COMDAT ?ChangeHiddenOSCreationPhase@@YAHH@Z
_TEXT	SEGMENT
_e$131786 = -20						; size = 4
__$EHRec$ = -16						; size = 16
_newPhase$ = 8						; size = 4
?ChangeHiddenOSCreationPhase@@YAHH@Z PROC		; ChangeHiddenOSCreationPhase, COMDAT

; 483  : {

  00000	55		 push	 ebp
  00001	8b ec		 mov	 ebp, esp
  00003	6a ff		 push	 -1
  00005	68 00 00 00 00	 push	 __ehhandler$?ChangeHiddenOSCreationPhase@@YAHH@Z
  0000a	64 a1 00 00 00
	00		 mov	 eax, DWORD PTR fs:0
  00010	50		 push	 eax
  00011	83 ec 08	 sub	 esp, 8
  00014	53		 push	 ebx
  00015	56		 push	 esi
  00016	57		 push	 edi
  00017	a1 00 00 00 00	 mov	 eax, DWORD PTR ___security_cookie
  0001c	33 c5		 xor	 eax, ebp
  0001e	50		 push	 eax
  0001f	8d 45 f4	 lea	 eax, DWORD PTR __$EHRec$[ebp+4]
  00022	64 a3 00 00 00
	00		 mov	 DWORD PTR fs:0, eax
  00028	89 65 f0	 mov	 DWORD PTR __$EHRec$[ebp], esp

; 484  : 	if (!CreateSysEncMutex ())

  0002b	e8 00 00 00 00	 call	 _CreateSysEncMutex
  00030	85 c0		 test	 eax, eax
  00032	75 21		 jne	 SHORT $LN2@ChangeHidd

; 485  : 	{
; 486  : 		Error ("SYSTEM_ENCRYPTION_IN_PROGRESS_ELSEWHERE");

  00034	68 00 00 00 00	 push	 OFFSET ??_C@_0CI@FPFBOAHN@SYSTEM_ENCRYPTION_IN_PROGRESS_EL@
  00039	e8 00 00 00 00	 call	 _Error
  0003e	83 c4 04	 add	 esp, 4
$LN8@ChangeHidd:

; 497  : 		return FALSE;

  00041	33 c0		 xor	 eax, eax

; 507  : }

  00043	8b 4d f4	 mov	 ecx, DWORD PTR __$EHRec$[ebp+4]
  00046	64 89 0d 00 00
	00 00		 mov	 DWORD PTR fs:0, ecx
  0004d	59		 pop	 ecx
  0004e	5f		 pop	 edi
  0004f	5e		 pop	 esi
  00050	5b		 pop	 ebx
  00051	8b e5		 mov	 esp, ebp
  00053	5d		 pop	 ebp
  00054	c3		 ret	 0
$LN2@ChangeHidd:

; 487  : 		return FALSE;
; 488  : 	}
; 489  : 
; 490  : 	try
; 491  : 	{
; 492  : 		BootEncObj->SetHiddenOSCreationPhase (newPhase);

  00055	8b 45 08	 mov	 eax, DWORD PTR _newPhase$[ebp]
  00058	8b 0d 00 00 00
	00		 mov	 ecx, DWORD PTR ?BootEncObj@@3PAVBootEncryption@CipherShed@@A ; BootEncObj
  0005e	50		 push	 eax
  0005f	c7 45 fc 00 00
	00 00		 mov	 DWORD PTR __$EHRec$[ebp+12], 0
  00066	e8 00 00 00 00	 call	 ?SetHiddenOSCreationPhase@BootEncryption@CipherShed@@QAEXI@Z ; CipherShed::BootEncryption::SetHiddenOSCreationPhase

; 498  : 	}
; 499  : 
; 500  : 	//// The contents of the following items might be inappropriate after a change of the phase
; 501  : 	//szFileName[0] = 0;
; 502  : 	//szDiskFile[0] = 0;
; 503  : 	//nUIVolumeSize = 0;
; 504  : 	//nVolumeSize = 0;
; 505  : 
; 506  : 	return TRUE;

  0006b	b8 01 00 00 00	 mov	 eax, 1

; 507  : }

  00070	8b 4d f4	 mov	 ecx, DWORD PTR __$EHRec$[ebp+4]
  00073	64 89 0d 00 00
	00 00		 mov	 DWORD PTR fs:0, ecx
  0007a	59		 pop	 ecx
  0007b	5f		 pop	 edi
  0007c	5e		 pop	 esi
  0007d	5b		 pop	 ebx
  0007e	8b e5		 mov	 esp, ebp
  00080	5d		 pop	 ebp
  00081	c3		 ret	 0
__catch$?ChangeHiddenOSCreationPhase@@YAHH@Z$0:

; 493  : 	}
; 494  : 	catch (Exception &e)
; 495  : 	{
; 496  : 		e.Show (MainDlg);

  00082	8b 4d ec	 mov	 ecx, DWORD PTR _e$131786[ebp]
  00085	8b 11		 mov	 edx, DWORD PTR [ecx]
  00087	a1 00 00 00 00	 mov	 eax, DWORD PTR _MainDlg
  0008c	8b 12		 mov	 edx, DWORD PTR [edx]
  0008e	50		 push	 eax
  0008f	ff d2		 call	 edx

; 497  : 		return FALSE;

  00091	b8 00 00 00 00	 mov	 eax, $LN8@ChangeHidd
  00096	c3		 ret	 0
_TEXT	ENDS
;	COMDAT text$x
text$x	SEGMENT
__ehhandler$?ChangeHiddenOSCreationPhase@@YAHH@Z:
  00000	8b 54 24 08	 mov	 edx, DWORD PTR [esp+8]
  00004	8d 42 0c	 lea	 eax, DWORD PTR [edx+12]
  00007	8b 4a e8	 mov	 ecx, DWORD PTR [edx-24]
  0000a	33 c8		 xor	 ecx, eax
  0000c	e8 00 00 00 00	 call	 @__security_check_cookie@4
  00011	b8 00 00 00 00	 mov	 eax, OFFSET __ehfuncinfo$?ChangeHiddenOSCreationPhase@@YAHH@Z
  00016	e9 00 00 00 00	 jmp	 ___CxxFrameHandler3
text$x	ENDS
?ChangeHiddenOSCreationPhase@@YAHH@Z ENDP		; ChangeHiddenOSCreationPhase
; Function compile flags: /Ogtpy
;	COMDAT _CreatingHiddenSysVol
_TEXT	SEGMENT
_CreatingHiddenSysVol PROC				; COMDAT

; 610  : 	return (bHiddenOS 
; 611  : 		&& bHiddenVol && !bHiddenVolHost);

  00000	a1 00 00 00 00	 mov	 eax, DWORD PTR ?bHiddenOS@@3HC ; bHiddenOS
  00005	85 c0		 test	 eax, eax
  00007	74 1a		 je	 SHORT $LN3@CreatingHi
  00009	8b 0d 00 00 00
	00		 mov	 ecx, DWORD PTR ?bHiddenVol@@3HC ; bHiddenVol
  0000f	85 c9		 test	 ecx, ecx
  00011	74 10		 je	 SHORT $LN3@CreatingHi
  00013	8b 15 00 00 00
	00		 mov	 edx, DWORD PTR _bHiddenVolHost
  00019	85 d2		 test	 edx, edx
  0001b	75 06		 jne	 SHORT $LN3@CreatingHi
  0001d	b8 01 00 00 00	 mov	 eax, 1

; 612  : }

  00022	c3		 ret	 0
$LN3@CreatingHi:

; 610  : 	return (bHiddenOS 
; 611  : 		&& bHiddenVol && !bHiddenVolHost);

  00023	33 c0		 xor	 eax, eax

; 612  : }

  00025	c3		 ret	 0
_CreatingHiddenSysVol ENDP
_TEXT	ENDS
PUBLIC	??_C@_0BF@MIMCAHPI@SecurityTokenLibrary?$AA@	; `string'
PUBLIC	??_C@_0BC@CGLEBHPJ@SaveVolumeHistory?$AA@	; `string'
PUBLIC	??_C@_0BM@GHIJBHNC@HiddenSectorDetectionStatus?$AA@ ; `string'
PUBLIC	??_C@_0N@PLOGBODB@StartOnLogon?$AA@		; `string'
EXTRN	_LoadCombo:PROC
EXTRN	__imp__GetDlgItem@8:PROC
EXTRN	_InitSecurityTokenLibrary:PROC
EXTRN	_ConfigReadString:PROC
EXTRN	_bHistory:DWORD
EXTRN	_SecurityTokenLibraryPath:BYTE
EXTRN	_HiddenSectorDetectionStatus:DWORD
EXTRN	_bStartOnLogon:DWORD
EXTRN	_ConfigReadInt:PROC
EXTRN	_bInPlaceEncNonSysPending:DWORD
EXTRN	_LoadNonSysInPlaceEncSettings:PROC
EXTRN	_LoadSysEncSettings:PROC
EXTRN	_EnableHwEncryption:PROC
EXTRN	_ReadDriverConfigurationFlags:PROC
;	COMDAT ??_C@_0BF@MIMCAHPI@SecurityTokenLibrary?$AA@
CONST	SEGMENT
??_C@_0BF@MIMCAHPI@SecurityTokenLibrary?$AA@ DB 'SecurityTokenLibrary', 00H ; `string'
CONST	ENDS
;	COMDAT ??_C@_0BC@CGLEBHPJ@SaveVolumeHistory?$AA@
CONST	SEGMENT
??_C@_0BC@CGLEBHPJ@SaveVolumeHistory?$AA@ DB 'SaveVolumeHistory', 00H ; `string'
CONST	ENDS
;	COMDAT ??_C@_0BM@GHIJBHNC@HiddenSectorDetectionStatus?$AA@
CONST	SEGMENT
??_C@_0BM@GHIJBHNC@HiddenSectorDetectionStatus?$AA@ DB 'HiddenSectorDetec'
	DB	'tionStatus', 00H				; `string'
CONST	ENDS
;	COMDAT ??_C@_0N@PLOGBODB@StartOnLogon?$AA@
CONST	SEGMENT
??_C@_0N@PLOGBODB@StartOnLogon?$AA@ DB 'StartOnLogon', 00H ; `string'
; Function compile flags: /Ogtpy
CONST	ENDS
;	COMDAT _LoadSettings
_TEXT	SEGMENT
_savedWipeAlgorithm$ = -4				; size = 4
_LoadSettings PROC					; COMDAT
; _hwndDlg$ = esi

; 615  : {

  00000	51		 push	 ecx

; 616  : 	EnableHwEncryption ((ReadDriverConfigurationFlags() & TC_DRIVER_CONFIG_DISABLE_HARDWARE_ENCRYPTION) ? FALSE : TRUE);

  00001	e8 00 00 00 00	 call	 _ReadDriverConfigurationFlags
  00006	c1 e8 03	 shr	 eax, 3
  00009	f7 d0		 not	 eax
  0000b	83 e0 01	 and	 eax, 1
  0000e	50		 push	 eax
  0000f	e8 00 00 00 00	 call	 _EnableHwEncryption

; 617  : 
; 618  : 	WipeAlgorithmId savedWipeAlgorithm = TC_WIPE_NONE;
; 619  : 
; 620  : 	LoadSysEncSettings (hwndDlg);

  00014	56		 push	 esi
  00015	c7 44 24 08 00
	00 00 00	 mov	 DWORD PTR _savedWipeAlgorithm$[esp+12], 0
  0001d	e8 00 00 00 00	 call	 _LoadSysEncSettings

; 621  : 
; 622  : 	if (LoadNonSysInPlaceEncSettings (&savedWipeAlgorithm) != 0)

  00022	8d 44 24 08	 lea	 eax, DWORD PTR _savedWipeAlgorithm$[esp+12]
  00026	50		 push	 eax
  00027	e8 00 00 00 00	 call	 _LoadNonSysInPlaceEncSettings
  0002c	83 c4 0c	 add	 esp, 12			; 0000000cH
  0002f	85 c0		 test	 eax, eax
  00031	74 0a		 je	 SHORT $LN4@LoadSettin

; 623  : 		bInPlaceEncNonSysPending = TRUE;

  00033	c7 05 00 00 00
	00 01 00 00 00	 mov	 DWORD PTR _bInPlaceEncNonSysPending, 1
$LN4@LoadSettin:

; 624  : 
; 625  : 	defaultKeyFilesParam.EnableKeyFiles = FALSE;
; 626  : 
; 627  : 	bStartOnLogon =	ConfigReadInt ("StartOnLogon", FALSE);

  0003d	6a 00		 push	 0
  0003f	68 00 00 00 00	 push	 OFFSET ??_C@_0N@PLOGBODB@StartOnLogon?$AA@
  00044	c7 05 00 00 00
	00 00 00 00 00	 mov	 DWORD PTR _defaultKeyFilesParam, 0
  0004e	e8 00 00 00 00	 call	 _ConfigReadInt

; 628  : 
; 629  : 	HiddenSectorDetectionStatus = ConfigReadInt ("HiddenSectorDetectionStatus", 0);

  00053	6a 00		 push	 0
  00055	68 00 00 00 00	 push	 OFFSET ??_C@_0BM@GHIJBHNC@HiddenSectorDetectionStatus?$AA@
  0005a	a3 00 00 00 00	 mov	 DWORD PTR _bStartOnLogon, eax
  0005f	e8 00 00 00 00	 call	 _ConfigReadInt

; 630  : 
; 631  : 	bHistory = ConfigReadInt ("SaveVolumeHistory", FALSE);

  00064	6a 00		 push	 0
  00066	68 00 00 00 00	 push	 OFFSET ??_C@_0BC@CGLEBHPJ@SaveVolumeHistory?$AA@
  0006b	a3 00 00 00 00	 mov	 DWORD PTR _HiddenSectorDetectionStatus, eax
  00070	e8 00 00 00 00	 call	 _ConfigReadInt

; 632  : 
; 633  : 	ConfigReadString ("SecurityTokenLibrary", "", SecurityTokenLibraryPath, sizeof (SecurityTokenLibraryPath) - 1);

  00075	68 03 01 00 00	 push	 259			; 00000103H
  0007a	68 00 00 00 00	 push	 OFFSET _SecurityTokenLibraryPath
  0007f	68 00 00 00 00	 push	 OFFSET ??_C@_00CNPNBAHC@?$AA@
  00084	68 00 00 00 00	 push	 OFFSET ??_C@_0BF@MIMCAHPI@SecurityTokenLibrary?$AA@
  00089	a3 00 00 00 00	 mov	 DWORD PTR _bHistory, eax
  0008e	e8 00 00 00 00	 call	 _ConfigReadString
  00093	83 c4 28	 add	 esp, 40			; 00000028H

; 634  : 	if (SecurityTokenLibraryPath[0])

  00096	80 3d 00 00 00
	00 00		 cmp	 BYTE PTR _SecurityTokenLibraryPath, 0
  0009d	74 05		 je	 SHORT $LN3@LoadSettin

; 635  : 		InitSecurityTokenLibrary();

  0009f	e8 00 00 00 00	 call	 _InitSecurityTokenLibrary
$LN3@LoadSettin:

; 636  : 
; 637  : 	if (hwndDlg != NULL)

  000a4	85 f6		 test	 esi, esi
  000a6	74 15		 je	 SHORT $LN2@LoadSettin

; 638  : 	{
; 639  : 		LoadCombo (GetDlgItem (hwndDlg, IDC_COMBO_BOX));

  000a8	68 ea 03 00 00	 push	 1002			; 000003eaH
  000ad	56		 push	 esi
  000ae	ff 15 00 00 00
	00		 call	 DWORD PTR __imp__GetDlgItem@8
  000b4	50		 push	 eax
  000b5	e8 00 00 00 00	 call	 _LoadCombo
  000ba	83 c4 04	 add	 esp, 4
$LN2@LoadSettin:

; 640  : 		return;
; 641  : 	}
; 642  : 
; 643  : 	if (bHistoryCmdLine)
; 644  : 		return;
; 645  : }

  000bd	59		 pop	 ecx
  000be	c3		 ret	 0
_LoadSettings ENDP
_TEXT	ENDS
PUBLIC	??_C@_08BENDAOKD@Language?$AA@			; `string'
EXTRN	_NormalCursor:PROC
EXTRN	_ConfigWriteEnd:PROC
EXTRN	_GetPreferredLangId:PROC
EXTRN	_ConfigWriteString:PROC
EXTRN	_ConfigWriteInt:PROC
EXTRN	_ConfigWriteBegin:PROC
EXTRN	_DumpCombo:PROC
EXTRN	_WaitCursor:PROC
;	COMDAT ??_C@_08BENDAOKD@Language?$AA@
CONST	SEGMENT
??_C@_08BENDAOKD@Language?$AA@ DB 'Language', 00H	; `string'
; Function compile flags: /Ogtpy
CONST	ENDS
;	COMDAT _SaveSettings
_TEXT	SEGMENT
_SaveSettings PROC					; COMDAT
; _hwndDlg$ = esi

; 649  : 	WaitCursor ();

  00000	e8 00 00 00 00	 call	 _WaitCursor

; 650  : 
; 651  : 	if (hwndDlg != NULL)

  00005	85 f6		 test	 esi, esi
  00007	74 21		 je	 SHORT $LN2@SaveSettin

; 652  : 		DumpCombo (GetDlgItem (hwndDlg, IDC_COMBO_BOX), !bHistory);

  00009	33 c0		 xor	 eax, eax
  0000b	39 05 00 00 00
	00		 cmp	 DWORD PTR _bHistory, eax
  00011	0f 94 c0	 sete	 al
  00014	50		 push	 eax
  00015	68 ea 03 00 00	 push	 1002			; 000003eaH
  0001a	56		 push	 esi
  0001b	ff 15 00 00 00
	00		 call	 DWORD PTR __imp__GetDlgItem@8
  00021	50		 push	 eax
  00022	e8 00 00 00 00	 call	 _DumpCombo
  00027	83 c4 08	 add	 esp, 8
$LN2@SaveSettin:

; 653  : 
; 654  : 	ConfigWriteBegin ();

  0002a	e8 00 00 00 00	 call	 _ConfigWriteBegin

; 655  : 
; 656  : 	ConfigWriteInt ("StartOnLogon",	bStartOnLogon);

  0002f	8b 0d 00 00 00
	00		 mov	 ecx, DWORD PTR _bStartOnLogon
  00035	51		 push	 ecx
  00036	68 00 00 00 00	 push	 OFFSET ??_C@_0N@PLOGBODB@StartOnLogon?$AA@
  0003b	e8 00 00 00 00	 call	 _ConfigWriteInt

; 657  : 	ConfigWriteInt ("HiddenSectorDetectionStatus", HiddenSectorDetectionStatus);

  00040	8b 15 00 00 00
	00		 mov	 edx, DWORD PTR _HiddenSectorDetectionStatus
  00046	52		 push	 edx
  00047	68 00 00 00 00	 push	 OFFSET ??_C@_0BM@GHIJBHNC@HiddenSectorDetectionStatus?$AA@
  0004c	e8 00 00 00 00	 call	 _ConfigWriteInt

; 658  : 	ConfigWriteInt ("SaveVolumeHistory", bHistory);

  00051	a1 00 00 00 00	 mov	 eax, DWORD PTR _bHistory
  00056	50		 push	 eax
  00057	68 00 00 00 00	 push	 OFFSET ??_C@_0BC@CGLEBHPJ@SaveVolumeHistory?$AA@
  0005c	e8 00 00 00 00	 call	 _ConfigWriteInt
  00061	83 c4 18	 add	 esp, 24			; 00000018H

; 659  : 	ConfigWriteString ("SecurityTokenLibrary", SecurityTokenLibraryPath[0] ? SecurityTokenLibraryPath : "");

  00064	80 3d 00 00 00
	00 00		 cmp	 BYTE PTR _SecurityTokenLibraryPath, 0
  0006b	b8 00 00 00 00	 mov	 eax, OFFSET _SecurityTokenLibraryPath
  00070	75 05		 jne	 SHORT $LN6@SaveSettin
  00072	b8 00 00 00 00	 mov	 eax, OFFSET ??_C@_00CNPNBAHC@?$AA@
$LN6@SaveSettin:
  00077	50		 push	 eax
  00078	68 00 00 00 00	 push	 OFFSET ??_C@_0BF@MIMCAHPI@SecurityTokenLibrary?$AA@
  0007d	e8 00 00 00 00	 call	 _ConfigWriteString
  00082	83 c4 08	 add	 esp, 8

; 660  : 
; 661  : 	if (GetPreferredLangId () != NULL)

  00085	e8 00 00 00 00	 call	 _GetPreferredLangId
  0008a	85 c0		 test	 eax, eax
  0008c	74 13		 je	 SHORT $LN1@SaveSettin

; 662  : 		ConfigWriteString ("Language", GetPreferredLangId ());

  0008e	e8 00 00 00 00	 call	 _GetPreferredLangId
  00093	50		 push	 eax
  00094	68 00 00 00 00	 push	 OFFSET ??_C@_08BENDAOKD@Language?$AA@
  00099	e8 00 00 00 00	 call	 _ConfigWriteString
  0009e	83 c4 08	 add	 esp, 8
$LN1@SaveSettin:

; 663  : 
; 664  : 	ConfigWriteEnd ();

  000a1	e8 00 00 00 00	 call	 _ConfigWriteEnd

; 665  : 
; 666  : 	NormalCursor ();

  000a6	e9 00 00 00 00	 jmp	 _NormalCursor
_SaveSettings ENDP
_TEXT	ENDS
EXTRN	__imp__EndDialog@8:PROC
EXTRN	_CleanLastVisitedMRU:PROC
EXTRN	_MoveEditToCombo:PROC
EXTRN	_IsButtonChecked:PROC
EXTRN	__imp__IsWindow@4:PROC
; Function compile flags: /Ogtpy
;	COMDAT _EndMainDlg
_TEXT	SEGMENT
_EndMainDlg PROC					; COMDAT
; _hwndDlg$ = edi

; 673  : 	if (nCurPageNo == VOLUME_LOCATION_PAGE)

  00000	83 3d 00 00 00
	00 0e		 cmp	 DWORD PTR ?nCurPageNo@@3HA, 14 ; nCurPageNo, 0000000eH
  00007	56		 push	 esi
  00008	75 66		 jne	 SHORT $LN4@EndMainDlg

; 674  : 	{
; 675  : 		if (IsWindow(GetDlgItem(hCurPage, IDC_NO_HISTORY)))

  0000a	a1 00 00 00 00	 mov	 eax, DWORD PTR _hCurPage
  0000f	8b 35 00 00 00
	00		 mov	 esi, DWORD PTR __imp__GetDlgItem@8
  00015	68 f4 03 00 00	 push	 1012			; 000003f4H
  0001a	50		 push	 eax
  0001b	ff d6		 call	 esi
  0001d	50		 push	 eax
  0001e	ff 15 00 00 00
	00		 call	 DWORD PTR __imp__IsWindow@4
  00024	85 c0		 test	 eax, eax
  00026	74 23		 je	 SHORT $LN7@EndMainDlg

; 676  : 			bHistory = !IsButtonChecked (GetDlgItem (hCurPage, IDC_NO_HISTORY));

  00028	8b 0d 00 00 00
	00		 mov	 ecx, DWORD PTR _hCurPage
  0002e	68 f4 03 00 00	 push	 1012			; 000003f4H
  00033	51		 push	 ecx
  00034	ff d6		 call	 esi
  00036	50		 push	 eax
  00037	e8 00 00 00 00	 call	 _IsButtonChecked
  0003c	83 c4 04	 add	 esp, 4
  0003f	f7 d8		 neg	 eax
  00041	1b c0		 sbb	 eax, eax
  00043	40		 inc	 eax
  00044	a3 00 00 00 00	 mov	 DWORD PTR _bHistory, eax
  00049	eb 05		 jmp	 SHORT $LN3@EndMainDlg
$LN7@EndMainDlg:
  0004b	a1 00 00 00 00	 mov	 eax, DWORD PTR _bHistory
$LN3@EndMainDlg:

; 677  : 
; 678  : 		MoveEditToCombo (GetDlgItem (hCurPage, IDC_COMBO_BOX), bHistory);

  00050	8b 15 00 00 00
	00		 mov	 edx, DWORD PTR _hCurPage
  00056	50		 push	 eax
  00057	68 ea 03 00 00	 push	 1002			; 000003eaH
  0005c	52		 push	 edx
  0005d	ff d6		 call	 esi
  0005f	50		 push	 eax
  00060	e8 00 00 00 00	 call	 _MoveEditToCombo

; 679  : 		SaveSettings (hCurPage);

  00065	8b 35 00 00 00
	00		 mov	 esi, DWORD PTR _hCurPage
  0006b	83 c4 08	 add	 esp, 8

; 680  : 	}
; 681  : 	else 

  0006e	eb 02		 jmp	 SHORT $LN8@EndMainDlg
$LN4@EndMainDlg:

; 682  : 	{
; 683  : 		SaveSettings (NULL);

  00070	33 f6		 xor	 esi, esi
$LN8@EndMainDlg:
  00072	e8 00 00 00 00	 call	 _SaveSettings

; 684  : 	}
; 685  : 
; 686  : 	SaveSysEncSettings (hwndDlg);

  00077	8b c7		 mov	 eax, edi
  00079	e8 00 00 00 00	 call	 ?SaveSysEncSettings@@YAHPAUHWND__@@@Z ; SaveSysEncSettings

; 687  : 
; 688  : 	if (!bHistory)

  0007e	83 3d 00 00 00
	00 00		 cmp	 DWORD PTR _bHistory, 0
  00085	5e		 pop	 esi
  00086	75 05		 jne	 SHORT $LN1@EndMainDlg

; 689  : 		CleanLastVisitedMRU ();

  00088	e8 00 00 00 00	 call	 _CleanLastVisitedMRU
$LN1@EndMainDlg:

; 690  : 
; 691  : 	EndDialog (hwndDlg, 0);

  0008d	6a 00		 push	 0
  0008f	57		 push	 edi
  00090	ff 15 00 00 00
	00		 call	 DWORD PTR __imp__EndDialog@8

; 692  : }

  00096	c3		 ret	 0
_EndMainDlg ENDP
_TEXT	ENDS
EXTRN	?GetStatus@BootEncryption@CipherShed@@QAE?AUBootEncryptionStatus@@XZ:PROC ; CipherShed::BootEncryption::GetStatus
;	COMDAT ?locBootEncStatus@?1??SysEncryptionOrDecryptionRequired@@YAHXZ@4UBootEncryptionStatus@@A
_BSS	SEGMENT
?locBootEncStatus@?1??SysEncryptionOrDecryptionRequired@@YAHXZ@4UBootEncryptionStatus@@A DB 05eH DUP (?) ; `SysEncryptionOrDecryptionRequired'::`2'::locBootEncStatus
_BSS	ENDS
;	COMDAT xdata$x
xdata$x	SEGMENT
__catchsym$?SysEncryptionOrDecryptionRequired@@YAHXZ$2 DD 08H
	DD	FLAT:??_R0?AUException@CipherShed@@@8
	DD	0ffffffecH
	DD	FLAT:__catch$?SysEncryptionOrDecryptionRequired@@YAHXZ$0
__unwindtable$?SysEncryptionOrDecryptionRequired@@YAHXZ DD 0ffffffffH
	DD	00H
	DD	0ffffffffH
	DD	00H
__tryblocktable$?SysEncryptionOrDecryptionRequired@@YAHXZ DD 00H
	DD	00H
	DD	01H
	DD	01H
	DD	FLAT:__catchsym$?SysEncryptionOrDecryptionRequired@@YAHXZ$2
__ehfuncinfo$?SysEncryptionOrDecryptionRequired@@YAHXZ DD 019930522H
	DD	02H
	DD	FLAT:__unwindtable$?SysEncryptionOrDecryptionRequired@@YAHXZ
	DD	01H
	DD	FLAT:__tryblocktable$?SysEncryptionOrDecryptionRequired@@YAHXZ
	DD	2 DUP(00H)
	DD	00H
	DD	01H
; Function compile flags: /Ogtpy
xdata$x	ENDS
;	COMDAT ?SysEncryptionOrDecryptionRequired@@YAHXZ
_TEXT	SEGMENT
$T141168 = -114						; size = 94
_e$131848 = -20						; size = 4
__$EHRec$ = -16						; size = 16
?SysEncryptionOrDecryptionRequired@@YAHXZ PROC		; SysEncryptionOrDecryptionRequired, COMDAT

; 696  : {

  00000	55		 push	 ebp
  00001	8b ec		 mov	 ebp, esp
  00003	6a ff		 push	 -1
  00005	68 00 00 00 00	 push	 __ehhandler$?SysEncryptionOrDecryptionRequired@@YAHXZ
  0000a	64 a1 00 00 00
	00		 mov	 eax, DWORD PTR fs:0
  00010	50		 push	 eax
  00011	83 ec 68	 sub	 esp, 104		; 00000068H
  00014	53		 push	 ebx
  00015	56		 push	 esi
  00016	57		 push	 edi
  00017	a1 00 00 00 00	 mov	 eax, DWORD PTR ___security_cookie
  0001c	33 c5		 xor	 eax, ebp
  0001e	50		 push	 eax
  0001f	8d 45 f4	 lea	 eax, DWORD PTR __$EHRec$[ebp+4]
  00022	64 a3 00 00 00
	00		 mov	 DWORD PTR fs:0, eax
  00028	89 65 f0	 mov	 DWORD PTR __$EHRec$[ebp], esp

; 697  : 	/* If you update this function, revise SysEncryptionOrDecryptionRequired() in Mount.c as well. */
; 698  : 
; 699  : 	static BootEncryptionStatus locBootEncStatus;
; 700  : 
; 701  : 	try
; 702  : 	{
; 703  : 		locBootEncStatus = BootEncObj->GetStatus();

  0002b	8b 0d 00 00 00
	00		 mov	 ecx, DWORD PTR ?BootEncObj@@3PAVBootEncryption@CipherShed@@A ; BootEncObj
  00031	8d 45 8e	 lea	 eax, DWORD PTR $T141168[ebp]
  00034	50		 push	 eax
  00035	c7 45 fc 00 00
	00 00		 mov	 DWORD PTR __$EHRec$[ebp+12], 0
  0003c	e8 00 00 00 00	 call	 ?GetStatus@BootEncryption@CipherShed@@QAE?AUBootEncryptionStatus@@XZ ; CipherShed::BootEncryption::GetStatus
  00041	b9 17 00 00 00	 mov	 ecx, 23			; 00000017H
  00046	8b f0		 mov	 esi, eax
  00048	bf 00 00 00 00	 mov	 edi, OFFSET ?locBootEncStatus@?1??SysEncryptionOrDecryptionRequired@@YAHXZ@4UBootEncryptionStatus@@A
  0004d	f3 a5		 rep movsd
  0004f	66 a5		 movsw
$LN11@SysEncrypt:

; 709  : 
; 710  : 	return (SystemEncryptionStatus == SYSENC_STATUS_ENCRYPTING
; 711  : 		|| SystemEncryptionStatus == SYSENC_STATUS_DECRYPTING
; 712  : 		|| 
; 713  : 		(
; 714  : 			locBootEncStatus.DriveMounted 
; 715  : 			&& 
; 716  : 			(
; 717  : 				locBootEncStatus.ConfiguredEncryptedAreaStart != locBootEncStatus.EncryptedAreaStart
; 718  : 				|| locBootEncStatus.ConfiguredEncryptedAreaEnd != locBootEncStatus.EncryptedAreaEnd
; 719  : 			)
; 720  : 		)
; 721  : 	);

  00051	a1 00 00 00 00	 mov	 eax, DWORD PTR _SystemEncryptionStatus
  00056	3d 90 01 00 00	 cmp	 eax, 400		; 00000190H
  0005b	74 6f		 je	 SHORT $LN4@SysEncrypt
  0005d	3d 58 02 00 00	 cmp	 eax, 600		; 00000258H
  00062	74 68		 je	 SHORT $LN4@SysEncrypt
  00064	83 3d 06 00 00
	00 00		 cmp	 DWORD PTR ?locBootEncStatus@?1??SysEncryptionOrDecryptionRequired@@YAHXZ@4UBootEncryptionStatus@@A+6, 0
  0006b	74 36		 je	 SHORT $LN6@SysEncrypt
  0006d	a1 1a 00 00 00	 mov	 eax, DWORD PTR ?locBootEncStatus@?1??SysEncryptionOrDecryptionRequired@@YAHXZ@4UBootEncryptionStatus@@A+26
  00072	3b 05 2a 00 00
	00		 cmp	 eax, DWORD PTR ?locBootEncStatus@?1??SysEncryptionOrDecryptionRequired@@YAHXZ@4UBootEncryptionStatus@@A+42
  00078	75 52		 jne	 SHORT $LN4@SysEncrypt
  0007a	8b 0d 1e 00 00
	00		 mov	 ecx, DWORD PTR ?locBootEncStatus@?1??SysEncryptionOrDecryptionRequired@@YAHXZ@4UBootEncryptionStatus@@A+30
  00080	3b 0d 2e 00 00
	00		 cmp	 ecx, DWORD PTR ?locBootEncStatus@?1??SysEncryptionOrDecryptionRequired@@YAHXZ@4UBootEncryptionStatus@@A+46
  00086	75 44		 jne	 SHORT $LN4@SysEncrypt
  00088	8b 15 22 00 00
	00		 mov	 edx, DWORD PTR ?locBootEncStatus@?1??SysEncryptionOrDecryptionRequired@@YAHXZ@4UBootEncryptionStatus@@A+34
  0008e	3b 15 32 00 00
	00		 cmp	 edx, DWORD PTR ?locBootEncStatus@?1??SysEncryptionOrDecryptionRequired@@YAHXZ@4UBootEncryptionStatus@@A+50
  00094	75 36		 jne	 SHORT $LN4@SysEncrypt
  00096	a1 26 00 00 00	 mov	 eax, DWORD PTR ?locBootEncStatus@?1??SysEncryptionOrDecryptionRequired@@YAHXZ@4UBootEncryptionStatus@@A+38
  0009b	3b 05 36 00 00
	00		 cmp	 eax, DWORD PTR ?locBootEncStatus@?1??SysEncryptionOrDecryptionRequired@@YAHXZ@4UBootEncryptionStatus@@A+54
  000a1	75 29		 jne	 SHORT $LN4@SysEncrypt
$LN6@SysEncrypt:
  000a3	33 c0		 xor	 eax, eax

; 722  : }

  000a5	8b 4d f4	 mov	 ecx, DWORD PTR __$EHRec$[ebp+4]
  000a8	64 89 0d 00 00
	00 00		 mov	 DWORD PTR fs:0, ecx
  000af	59		 pop	 ecx
  000b0	5f		 pop	 edi
  000b1	5e		 pop	 esi
  000b2	5b		 pop	 ebx
  000b3	8b e5		 mov	 esp, ebp
  000b5	5d		 pop	 ebp
  000b6	c3		 ret	 0
__catch$?SysEncryptionOrDecryptionRequired@@YAHXZ$0:

; 704  : 	}
; 705  : 	catch (Exception &e)
; 706  : 	{
; 707  : 		e.Show (MainDlg);

  000b7	8b 4d ec	 mov	 ecx, DWORD PTR _e$131848[ebp]
  000ba	8b 11		 mov	 edx, DWORD PTR [ecx]
  000bc	a1 00 00 00 00	 mov	 eax, DWORD PTR _MainDlg
  000c1	8b 12		 mov	 edx, DWORD PTR [edx]
  000c3	50		 push	 eax
  000c4	ff d2		 call	 edx

; 708  : 	}

  000c6	b8 00 00 00 00	 mov	 eax, $LN11@SysEncrypt
  000cb	c3		 ret	 0
$LN4@SysEncrypt:

; 709  : 
; 710  : 	return (SystemEncryptionStatus == SYSENC_STATUS_ENCRYPTING
; 711  : 		|| SystemEncryptionStatus == SYSENC_STATUS_DECRYPTING
; 712  : 		|| 
; 713  : 		(
; 714  : 			locBootEncStatus.DriveMounted 
; 715  : 			&& 
; 716  : 			(
; 717  : 				locBootEncStatus.ConfiguredEncryptedAreaStart != locBootEncStatus.EncryptedAreaStart
; 718  : 				|| locBootEncStatus.ConfiguredEncryptedAreaEnd != locBootEncStatus.EncryptedAreaEnd
; 719  : 			)
; 720  : 		)
; 721  : 	);

  000cc	b8 01 00 00 00	 mov	 eax, 1

; 722  : }

  000d1	8b 4d f4	 mov	 ecx, DWORD PTR __$EHRec$[ebp+4]
  000d4	64 89 0d 00 00
	00 00		 mov	 DWORD PTR fs:0, ecx
  000db	59		 pop	 ecx
  000dc	5f		 pop	 edi
  000dd	5e		 pop	 esi
  000de	5b		 pop	 ebx
  000df	8b e5		 mov	 esp, ebp
  000e1	5d		 pop	 ebp
  000e2	c3		 ret	 0
_TEXT	ENDS
;	COMDAT text$x
text$x	SEGMENT
__ehhandler$?SysEncryptionOrDecryptionRequired@@YAHXZ:
  00000	8b 54 24 08	 mov	 edx, DWORD PTR [esp+8]
  00004	8d 42 0c	 lea	 eax, DWORD PTR [edx+12]
  00007	8b 4a 88	 mov	 ecx, DWORD PTR [edx-120]
  0000a	33 c8		 xor	 ecx, eax
  0000c	e8 00 00 00 00	 call	 @__security_check_cookie@4
  00011	b8 00 00 00 00	 mov	 eax, OFFSET __ehfuncinfo$?SysEncryptionOrDecryptionRequired@@YAHXZ
  00016	e9 00 00 00 00	 jmp	 ___CxxFrameHandler3
text$x	ENDS
?SysEncryptionOrDecryptionRequired@@YAHXZ ENDP		; SysEncryptionOrDecryptionRequired
;	COMDAT ?locBootEncStatus@?1??SysDriveOrPartitionFullyEncrypted@@YAHH@Z@4UBootEncryptionStatus@@A
_BSS	SEGMENT
?locBootEncStatus@?1??SysDriveOrPartitionFullyEncrypted@@YAHH@Z@4UBootEncryptionStatus@@A DB 05eH DUP (?) ; `SysDriveOrPartitionFullyEncrypted'::`2'::locBootEncStatus
_BSS	ENDS
;	COMDAT xdata$x
xdata$x	SEGMENT
__catchsym$?SysDriveOrPartitionFullyEncrypted@@YAHH@Z$2 DD 08H
	DD	FLAT:??_R0?AUException@CipherShed@@@8
	DD	0ffffffecH
	DD	FLAT:__catch$?SysDriveOrPartitionFullyEncrypted@@YAHH@Z$0
__unwindtable$?SysDriveOrPartitionFullyEncrypted@@YAHH@Z DD 0ffffffffH
	DD	00H
	DD	0ffffffffH
	DD	00H
__tryblocktable$?SysDriveOrPartitionFullyEncrypted@@YAHH@Z DD 00H
	DD	00H
	DD	01H
	DD	01H
	DD	FLAT:__catchsym$?SysDriveOrPartitionFullyEncrypted@@YAHH@Z$2
__ehfuncinfo$?SysDriveOrPartitionFullyEncrypted@@YAHH@Z DD 019930522H
	DD	02H
	DD	FLAT:__unwindtable$?SysDriveOrPartitionFullyEncrypted@@YAHH@Z
	DD	01H
	DD	FLAT:__tryblocktable$?SysDriveOrPartitionFullyEncrypted@@YAHH@Z
	DD	2 DUP(00H)
	DD	00H
	DD	01H
; Function compile flags: /Ogtpy
xdata$x	ENDS
;	COMDAT ?SysDriveOrPartitionFullyEncrypted@@YAHH@Z
_TEXT	SEGMENT
$T141188 = -114						; size = 94
_e$131856 = -20						; size = 4
__$EHRec$ = -16						; size = 16
_bSilent$ = 8						; size = 4
?SysDriveOrPartitionFullyEncrypted@@YAHH@Z PROC		; SysDriveOrPartitionFullyEncrypted, COMDAT

; 726  : {

  00000	55		 push	 ebp
  00001	8b ec		 mov	 ebp, esp
  00003	6a ff		 push	 -1
  00005	68 00 00 00 00	 push	 __ehhandler$?SysDriveOrPartitionFullyEncrypted@@YAHH@Z
  0000a	64 a1 00 00 00
	00		 mov	 eax, DWORD PTR fs:0
  00010	50		 push	 eax
  00011	83 ec 68	 sub	 esp, 104		; 00000068H
  00014	53		 push	 ebx
  00015	56		 push	 esi
  00016	57		 push	 edi
  00017	a1 00 00 00 00	 mov	 eax, DWORD PTR ___security_cookie
  0001c	33 c5		 xor	 eax, ebp
  0001e	50		 push	 eax
  0001f	8d 45 f4	 lea	 eax, DWORD PTR __$EHRec$[ebp+4]
  00022	64 a3 00 00 00
	00		 mov	 DWORD PTR fs:0, eax
  00028	89 65 f0	 mov	 DWORD PTR __$EHRec$[ebp], esp

; 727  : 	/* If you update this function, revise SysDriveOrPartitionFullyEncrypted() in Mount.c as well. */
; 728  : 
; 729  : 	static BootEncryptionStatus locBootEncStatus;
; 730  : 
; 731  : 	try
; 732  : 	{
; 733  : 		locBootEncStatus = BootEncObj->GetStatus();

  0002b	8b 0d 00 00 00
	00		 mov	 ecx, DWORD PTR ?BootEncObj@@3PAVBootEncryption@CipherShed@@A ; BootEncObj
  00031	8d 45 8e	 lea	 eax, DWORD PTR $T141188[ebp]
  00034	50		 push	 eax
  00035	c7 45 fc 00 00
	00 00		 mov	 DWORD PTR __$EHRec$[ebp+12], 0
  0003c	e8 00 00 00 00	 call	 ?GetStatus@BootEncryption@CipherShed@@QAE?AUBootEncryptionStatus@@XZ ; CipherShed::BootEncryption::GetStatus
  00041	b9 17 00 00 00	 mov	 ecx, 23			; 00000017H
  00046	8b f0		 mov	 esi, eax
  00048	bf 00 00 00 00	 mov	 edi, OFFSET ?locBootEncStatus@?1??SysDriveOrPartitionFullyEncrypted@@YAHH@Z@4UBootEncryptionStatus@@A
  0004d	f3 a5		 rep movsd
  0004f	66 a5		 movsw
$LN10@SysDriveOr:

; 740  : 
; 741  : 	return (!locBootEncStatus.SetupInProgress
; 742  : 		&& locBootEncStatus.ConfiguredEncryptedAreaEnd != 0
; 743  : 		&& locBootEncStatus.ConfiguredEncryptedAreaEnd != -1
; 744  : 		&& locBootEncStatus.ConfiguredEncryptedAreaStart == locBootEncStatus.EncryptedAreaStart
; 745  : 		&& locBootEncStatus.ConfiguredEncryptedAreaEnd == locBootEncStatus.EncryptedAreaEnd);

  00051	83 3d 3e 00 00
	00 00		 cmp	 DWORD PTR ?locBootEncStatus@?1??SysDriveOrPartitionFullyEncrypted@@YAHH@Z@4UBootEncryptionStatus@@A+62, 0
  00058	75 78		 jne	 SHORT $LN5@SysDriveOr
  0005a	a1 22 00 00 00	 mov	 eax, DWORD PTR ?locBootEncStatus@?1??SysDriveOrPartitionFullyEncrypted@@YAHH@Z@4UBootEncryptionStatus@@A+34
  0005f	8b 0d 26 00 00
	00		 mov	 ecx, DWORD PTR ?locBootEncStatus@?1??SysDriveOrPartitionFullyEncrypted@@YAHH@Z@4UBootEncryptionStatus@@A+38
  00065	8b d0		 mov	 edx, eax
  00067	0b d1		 or	 edx, ecx
  00069	74 67		 je	 SHORT $LN5@SysDriveOr
  0006b	8b d0		 mov	 edx, eax
  0006d	23 d1		 and	 edx, ecx
  0006f	83 fa ff	 cmp	 edx, -1
  00072	74 5e		 je	 SHORT $LN5@SysDriveOr
  00074	8b 15 1a 00 00
	00		 mov	 edx, DWORD PTR ?locBootEncStatus@?1??SysDriveOrPartitionFullyEncrypted@@YAHH@Z@4UBootEncryptionStatus@@A+26
  0007a	3b 15 2a 00 00
	00		 cmp	 edx, DWORD PTR ?locBootEncStatus@?1??SysDriveOrPartitionFullyEncrypted@@YAHH@Z@4UBootEncryptionStatus@@A+42
  00080	75 50		 jne	 SHORT $LN5@SysDriveOr
  00082	8b 15 1e 00 00
	00		 mov	 edx, DWORD PTR ?locBootEncStatus@?1??SysDriveOrPartitionFullyEncrypted@@YAHH@Z@4UBootEncryptionStatus@@A+30
  00088	3b 15 2e 00 00
	00		 cmp	 edx, DWORD PTR ?locBootEncStatus@?1??SysDriveOrPartitionFullyEncrypted@@YAHH@Z@4UBootEncryptionStatus@@A+46
  0008e	75 42		 jne	 SHORT $LN5@SysDriveOr
  00090	3b 05 32 00 00
	00		 cmp	 eax, DWORD PTR ?locBootEncStatus@?1??SysDriveOrPartitionFullyEncrypted@@YAHH@Z@4UBootEncryptionStatus@@A+50
  00096	75 3a		 jne	 SHORT $LN5@SysDriveOr
  00098	3b 0d 36 00 00
	00		 cmp	 ecx, DWORD PTR ?locBootEncStatus@?1??SysDriveOrPartitionFullyEncrypted@@YAHH@Z@4UBootEncryptionStatus@@A+54
  0009e	75 32		 jne	 SHORT $LN5@SysDriveOr
  000a0	b8 01 00 00 00	 mov	 eax, 1

; 746  : }

  000a5	8b 4d f4	 mov	 ecx, DWORD PTR __$EHRec$[ebp+4]
  000a8	64 89 0d 00 00
	00 00		 mov	 DWORD PTR fs:0, ecx
  000af	59		 pop	 ecx
  000b0	5f		 pop	 edi
  000b1	5e		 pop	 esi
  000b2	5b		 pop	 ebx
  000b3	8b e5		 mov	 esp, ebp
  000b5	5d		 pop	 ebp
  000b6	c3		 ret	 0
__catch$?SysDriveOrPartitionFullyEncrypted@@YAHH@Z$0:

; 734  : 	}
; 735  : 	catch (Exception &e)
; 736  : 	{
; 737  : 		if (!bSilent)

  000b7	83 7d 08 00	 cmp	 DWORD PTR _bSilent$[ebp], 0
  000bb	75 0f		 jne	 SHORT $LN1@SysDriveOr

; 738  : 			e.Show (MainDlg);

  000bd	8b 4d ec	 mov	 ecx, DWORD PTR _e$131856[ebp]
  000c0	8b 11		 mov	 edx, DWORD PTR [ecx]
  000c2	a1 00 00 00 00	 mov	 eax, DWORD PTR _MainDlg
  000c7	8b 12		 mov	 edx, DWORD PTR [edx]
  000c9	50		 push	 eax
  000ca	ff d2		 call	 edx
$LN1@SysDriveOr:

; 739  : 	}

  000cc	b8 00 00 00 00	 mov	 eax, $LN10@SysDriveOr
  000d1	c3		 ret	 0
$LN5@SysDriveOr:

; 740  : 
; 741  : 	return (!locBootEncStatus.SetupInProgress
; 742  : 		&& locBootEncStatus.ConfiguredEncryptedAreaEnd != 0
; 743  : 		&& locBootEncStatus.ConfiguredEncryptedAreaEnd != -1
; 744  : 		&& locBootEncStatus.ConfiguredEncryptedAreaStart == locBootEncStatus.EncryptedAreaStart
; 745  : 		&& locBootEncStatus.ConfiguredEncryptedAreaEnd == locBootEncStatus.EncryptedAreaEnd);

  000d2	33 c0		 xor	 eax, eax

; 746  : }

  000d4	8b 4d f4	 mov	 ecx, DWORD PTR __$EHRec$[ebp+4]
  000d7	64 89 0d 00 00
	00 00		 mov	 DWORD PTR fs:0, ecx
  000de	59		 pop	 ecx
  000df	5f		 pop	 edi
  000e0	5e		 pop	 esi
  000e1	5b		 pop	 ebx
  000e2	8b e5		 mov	 esp, ebp
  000e4	5d		 pop	 ebp
  000e5	c3		 ret	 0
_TEXT	ENDS
;	COMDAT text$x
text$x	SEGMENT
__ehhandler$?SysDriveOrPartitionFullyEncrypted@@YAHH@Z:
  00000	8b 54 24 08	 mov	 edx, DWORD PTR [esp+8]
  00004	8d 42 0c	 lea	 eax, DWORD PTR [edx+12]
  00007	8b 4a 88	 mov	 ecx, DWORD PTR [edx-120]
  0000a	33 c8		 xor	 ecx, eax
  0000c	e8 00 00 00 00	 call	 @__security_check_cookie@4
  00011	b8 00 00 00 00	 mov	 eax, OFFSET __ehfuncinfo$?SysDriveOrPartitionFullyEncrypted@@YAHH@Z
  00016	e9 00 00 00 00	 jmp	 ___CxxFrameHandler3
text$x	ENDS
?SysDriveOrPartitionFullyEncrypted@@YAHH@Z ENDP		; SysDriveOrPartitionFullyEncrypted
EXTRN	?Deinstall@BootEncryption@CipherShed@@QAEX_N@Z:PROC ; CipherShed::BootEncryption::Deinstall
EXTRN	?CheckEncryptionSetupResult@BootEncryption@CipherShed@@QAEXXZ:PROC ; CipherShed::BootEncryption::CheckEncryptionSetupResult
EXTRN	__imp__Sleep@4:PROC
EXTRN	?StartDecryption@BootEncryption@CipherShed@@QAEXH@Z:PROC ; CipherShed::BootEncryption::StartDecryption
EXTRN	?AbortSetupWait@BootEncryption@CipherShed@@QAEXXZ:PROC ; CipherShed::BootEncryption::AbortSetupWait
;	COMDAT xdata$x
xdata$x	SEGMENT
__catchsym$?ForceRemoveSysEnc@@YAHXZ$5 DD 08H
	DD	FLAT:??_R0?AUException@CipherShed@@@8
	DD	0ffffffe8H
	DD	FLAT:__catch$?ForceRemoveSysEnc@@YAHXZ$2
__catchsym$?ForceRemoveSysEnc@@YAHXZ$4 DD 08H
	DD	FLAT:??_R0?AUException@CipherShed@@@8
	DD	0ffffffecH
	DD	FLAT:__catch$?ForceRemoveSysEnc@@YAHXZ$0
__unwindtable$?ForceRemoveSysEnc@@YAHXZ DD 0ffffffffH
	DD	00H
	DD	0ffffffffH
	DD	00H
	DD	0ffffffffH
	DD	00H
	DD	0ffffffffH
	DD	00H
__ehfuncinfo$?ForceRemoveSysEnc@@YAHXZ DD 019930522H
	DD	04H
	DD	FLAT:__unwindtable$?ForceRemoveSysEnc@@YAHXZ
	DD	02H
	DD	FLAT:__tryblocktable$?ForceRemoveSysEnc@@YAHXZ
	DD	2 DUP(00H)
	DD	00H
	DD	01H
__tryblocktable$?ForceRemoveSysEnc@@YAHXZ DD 00H
	DD	00H
	DD	01H
	DD	01H
	DD	FLAT:__catchsym$?ForceRemoveSysEnc@@YAHXZ$4
	DD	02H
	DD	02H
	DD	03H
	DD	01H
	DD	FLAT:__catchsym$?ForceRemoveSysEnc@@YAHXZ$5
; Function compile flags: /Ogtpy
xdata$x	ENDS
;	COMDAT ?ForceRemoveSysEnc@@YAHXZ
_TEXT	SEGMENT
$T141211 = -590						; size = 94
$T141207 = -496						; size = 94
$T141209 = -402						; size = 94
$T141208 = -308						; size = 94
$T141206 = -214						; size = 94
_locBootEncStatus$131988 = -120				; size = 94
_e$132004 = -24						; size = 4
_e$131999 = -20						; size = 4
__$EHRec$ = -16						; size = 16
?ForceRemoveSysEnc@@YAHXZ PROC				; ForceRemoveSysEnc, COMDAT

; 1101 : {

  00000	55		 push	 ebp
  00001	8b ec		 mov	 ebp, esp
  00003	6a ff		 push	 -1
  00005	68 00 00 00 00	 push	 __ehhandler$?ForceRemoveSysEnc@@YAHXZ
  0000a	64 a1 00 00 00
	00		 mov	 eax, DWORD PTR fs:0
  00010	50		 push	 eax
  00011	81 ec 44 02 00
	00		 sub	 esp, 580		; 00000244H
  00017	53		 push	 ebx
  00018	56		 push	 esi
  00019	57		 push	 edi
  0001a	a1 00 00 00 00	 mov	 eax, DWORD PTR ___security_cookie
  0001f	33 c5		 xor	 eax, ebp
  00021	50		 push	 eax
  00022	8d 45 f4	 lea	 eax, DWORD PTR __$EHRec$[ebp+4]
  00025	64 a3 00 00 00
	00		 mov	 DWORD PTR fs:0, eax
  0002b	89 65 f0	 mov	 DWORD PTR __$EHRec$[ebp], esp

; 1102 : 	if (CreateSysEncMutex ())	// If no other instance is currently taking care of system encryption

  0002e	e8 00 00 00 00	 call	 _CreateSysEncMutex
  00033	85 c0		 test	 eax, eax
  00035	0f 84 47 01 00
	00		 je	 $LN9@ForceRemov

; 1103 : 	{
; 1104 : 		BootEncryptionStatus locBootEncStatus;
; 1105 : 
; 1106 : 		try
; 1107 : 		{
; 1108 : 			locBootEncStatus = BootEncObj->GetStatus();

  0003b	8b 0d 00 00 00
	00		 mov	 ecx, DWORD PTR ?BootEncObj@@3PAVBootEncryption@CipherShed@@A ; BootEncObj
  00041	8d 85 2a ff ff
	ff		 lea	 eax, DWORD PTR $T141206[ebp]
  00047	50		 push	 eax
  00048	c7 45 fc 00 00
	00 00		 mov	 DWORD PTR __$EHRec$[ebp+12], 0
  0004f	e8 00 00 00 00	 call	 ?GetStatus@BootEncryption@CipherShed@@QAE?AUBootEncryptionStatus@@XZ ; CipherShed::BootEncryption::GetStatus
  00054	b9 17 00 00 00	 mov	 ecx, 23			; 00000017H
  00059	8b f0		 mov	 esi, eax
  0005b	8d 7d 88	 lea	 edi, DWORD PTR _locBootEncStatus$131988[ebp]
  0005e	f3 a5		 rep movsd
  00060	66 a5		 movsw

; 1109 : 
; 1110 : 			if (locBootEncStatus.SetupInProgress)

  00062	83 7d c6 00	 cmp	 DWORD PTR _locBootEncStatus$131988[ebp+62], 0
  00066	74 0b		 je	 SHORT $LN7@ForceRemov

; 1111 : 				BootEncObj->AbortSetupWait ();

  00068	8b 0d 00 00 00
	00		 mov	 ecx, DWORD PTR ?BootEncObj@@3PAVBootEncryption@CipherShed@@A ; BootEncObj
  0006e	e8 00 00 00 00	 call	 ?AbortSetupWait@BootEncryption@CipherShed@@QAEXXZ ; CipherShed::BootEncryption::AbortSetupWait
$LN7@ForceRemov:

; 1112 : 
; 1113 : 			locBootEncStatus = BootEncObj->GetStatus();

  00073	8d 8d 10 fe ff
	ff		 lea	 ecx, DWORD PTR $T141207[ebp]
  00079	51		 push	 ecx
  0007a	8b 0d 00 00 00
	00		 mov	 ecx, DWORD PTR ?BootEncObj@@3PAVBootEncryption@CipherShed@@A ; BootEncObj
  00080	e8 00 00 00 00	 call	 ?GetStatus@BootEncryption@CipherShed@@QAE?AUBootEncryptionStatus@@XZ ; CipherShed::BootEncryption::GetStatus
  00085	b9 17 00 00 00	 mov	 ecx, 23			; 00000017H
  0008a	8b f0		 mov	 esi, eax
  0008c	8d 7d 88	 lea	 edi, DWORD PTR _locBootEncStatus$131988[ebp]
  0008f	f3 a5		 rep movsd
  00091	66 a5		 movsw

; 1114 : 
; 1115 : 			if (locBootEncStatus.DriveMounted)

  00093	83 7d 8e 00	 cmp	 DWORD PTR _locBootEncStatus$131988[ebp+6], 0
  00097	74 63		 je	 SHORT $LN23@ForceRemov

; 1116 : 			{
; 1117 : 				// Remove the header
; 1118 : 				BootEncObj->StartDecryption (DiscardUnreadableEncryptedSectors);			

  00099	8b 15 00 00 00
	00		 mov	 edx, DWORD PTR ?DiscardUnreadableEncryptedSectors@@3HC ; DiscardUnreadableEncryptedSectors
  0009f	8b 0d 00 00 00
	00		 mov	 ecx, DWORD PTR ?BootEncObj@@3PAVBootEncryption@CipherShed@@A ; BootEncObj
  000a5	52		 push	 edx
  000a6	e8 00 00 00 00	 call	 ?StartDecryption@BootEncryption@CipherShed@@QAEXH@Z ; CipherShed::BootEncryption::StartDecryption

; 1119 : 				locBootEncStatus = BootEncObj->GetStatus();

  000ab	8b 0d 00 00 00
	00		 mov	 ecx, DWORD PTR ?BootEncObj@@3PAVBootEncryption@CipherShed@@A ; BootEncObj
  000b1	8d 85 cc fe ff
	ff		 lea	 eax, DWORD PTR $T141208[ebp]
  000b7	50		 push	 eax
  000b8	e8 00 00 00 00	 call	 ?GetStatus@BootEncryption@CipherShed@@QAE?AUBootEncryptionStatus@@XZ ; CipherShed::BootEncryption::GetStatus
  000bd	8b 1d 00 00 00
	00		 mov	 ebx, DWORD PTR __imp__Sleep@4
$LN26@ForceRemov:
  000c3	b9 17 00 00 00	 mov	 ecx, 23			; 00000017H
  000c8	8d 7d 88	 lea	 edi, DWORD PTR _locBootEncStatus$131988[ebp]
  000cb	8b f0		 mov	 esi, eax
  000cd	f3 a5		 rep movsd
  000cf	66 a5		 movsw

; 1120 : 
; 1121 : 				while (locBootEncStatus.SetupInProgress)

  000d1	83 7d c6 00	 cmp	 DWORD PTR _locBootEncStatus$131988[ebp+62], 0
  000d5	74 18		 je	 SHORT $LN4@ForceRemov

; 1122 : 				{
; 1123 : 					Sleep (100);

  000d7	6a 64		 push	 100			; 00000064H
  000d9	ff d3		 call	 ebx

; 1124 : 					locBootEncStatus = BootEncObj->GetStatus();

  000db	8d 8d 6e fe ff
	ff		 lea	 ecx, DWORD PTR $T141209[ebp]
  000e1	51		 push	 ecx
  000e2	8b 0d 00 00 00
	00		 mov	 ecx, DWORD PTR ?BootEncObj@@3PAVBootEncryption@CipherShed@@A ; BootEncObj
  000e8	e8 00 00 00 00	 call	 ?GetStatus@BootEncryption@CipherShed@@QAE?AUBootEncryptionStatus@@XZ ; CipherShed::BootEncryption::GetStatus

; 1125 : 				}

  000ed	eb d4		 jmp	 SHORT $LN26@ForceRemov
$LN4@ForceRemov:

; 1126 : 
; 1127 : 				BootEncObj->CheckEncryptionSetupResult ();

  000ef	8b 0d 00 00 00
	00		 mov	 ecx, DWORD PTR ?BootEncObj@@3PAVBootEncryption@CipherShed@@A ; BootEncObj
  000f5	e8 00 00 00 00	 call	 ?CheckEncryptionSetupResult@BootEncryption@CipherShed@@QAEXXZ ; CipherShed::BootEncryption::CheckEncryptionSetupResult
  000fa	eb 06		 jmp	 SHORT $LN6@ForceRemov
$LN23@ForceRemov:
  000fc	8b 1d 00 00 00
	00		 mov	 ebx, DWORD PTR __imp__Sleep@4
$LN6@ForceRemov:

; 1128 : 			}
; 1129 : 
; 1130 : 			Sleep (50);

  00102	6a 32		 push	 50			; 00000032H
  00104	ff d3		 call	 ebx

; 1131 : 		}
; 1132 : 		catch (Exception &e)
; 1133 : 		{
; 1134 : 			e.Show (MainDlg);
; 1135 : 			return FALSE;
; 1136 : 		}
; 1137 : 
; 1138 : 		try
; 1139 : 		{
; 1140 : 			locBootEncStatus = BootEncObj->GetStatus();

  00106	8b 0d 00 00 00
	00		 mov	 ecx, DWORD PTR ?BootEncObj@@3PAVBootEncryption@CipherShed@@A ; BootEncObj
  0010c	8d 95 b2 fd ff
	ff		 lea	 edx, DWORD PTR $T141211[ebp]
  00112	52		 push	 edx
  00113	c7 45 fc 02 00
	00 00		 mov	 DWORD PTR __$EHRec$[ebp+12], 2
  0011a	e8 00 00 00 00	 call	 ?GetStatus@BootEncryption@CipherShed@@QAE?AUBootEncryptionStatus@@XZ ; CipherShed::BootEncryption::GetStatus
  0011f	b9 17 00 00 00	 mov	 ecx, 23			; 00000017H
  00124	8b f0		 mov	 esi, eax
  00126	8d 7d 88	 lea	 edi, DWORD PTR _locBootEncStatus$131988[ebp]
  00129	f3 a5		 rep movsd
  0012b	66 a5		 movsw

; 1141 : 
; 1142 : 			if (!locBootEncStatus.DriveMounted)

  0012d	83 7d 8e 00	 cmp	 DWORD PTR _locBootEncStatus$131988[ebp+6], 0
  00131	75 0d		 jne	 SHORT $LN2@ForceRemov

; 1143 : 				BootEncObj->Deinstall (true);

  00133	8b 0d 00 00 00
	00		 mov	 ecx, DWORD PTR ?BootEncObj@@3PAVBootEncryption@CipherShed@@A ; BootEncObj
  00139	6a 01		 push	 1
  0013b	e8 00 00 00 00	 call	 ?Deinstall@BootEncryption@CipherShed@@QAEX_N@Z ; CipherShed::BootEncryption::Deinstall
$LN2@ForceRemov:

; 1149 : 		}
; 1150 : 
; 1151 : 		return TRUE;

  00140	b8 01 00 00 00	 mov	 eax, 1

; 1155 : }

  00145	8b 4d f4	 mov	 ecx, DWORD PTR __$EHRec$[ebp+4]
  00148	64 89 0d 00 00
	00 00		 mov	 DWORD PTR fs:0, ecx
  0014f	59		 pop	 ecx
  00150	5f		 pop	 edi
  00151	5e		 pop	 esi
  00152	5b		 pop	 ebx
  00153	8b e5		 mov	 esp, ebp
  00155	5d		 pop	 ebp
  00156	c3		 ret	 0
__catch$?ForceRemoveSysEnc@@YAHXZ$2:

; 1144 : 		}
; 1145 : 		catch (Exception &e)
; 1146 : 		{
; 1147 : 			e.Show (MainDlg);

  00157	8b 4d e8	 mov	 ecx, DWORD PTR _e$132004[ebp]
  0015a	8b 01		 mov	 eax, DWORD PTR [ecx]
  0015c	8b 15 00 00 00
	00		 mov	 edx, DWORD PTR _MainDlg
  00162	8b 00		 mov	 eax, DWORD PTR [eax]
  00164	52		 push	 edx
  00165	ff d0		 call	 eax

; 1148 : 			return FALSE;

  00167	b8 00 00 00 00	 mov	 eax, $LN9@ForceRemov
  0016c	c3		 ret	 0
__catch$?ForceRemoveSysEnc@@YAHXZ$0:
  0016d	8b 4d ec	 mov	 ecx, DWORD PTR _e$131999[ebp]
  00170	8b 11		 mov	 edx, DWORD PTR [ecx]
  00172	a1 00 00 00 00	 mov	 eax, DWORD PTR _MainDlg
  00177	8b 12		 mov	 edx, DWORD PTR [edx]
  00179	50		 push	 eax
  0017a	ff d2		 call	 edx
  0017c	b8 00 00 00 00	 mov	 eax, $LN9@ForceRemov
  00181	c3		 ret	 0
$LN9@ForceRemov:

; 1152 : 	}
; 1153 : 	else
; 1154 : 		return FALSE;

  00182	33 c0		 xor	 eax, eax

; 1155 : }

  00184	8b 4d f4	 mov	 ecx, DWORD PTR __$EHRec$[ebp+4]
  00187	64 89 0d 00 00
	00 00		 mov	 DWORD PTR fs:0, ecx
  0018e	59		 pop	 ecx
  0018f	5f		 pop	 edi
  00190	5e		 pop	 esi
  00191	5b		 pop	 ebx
  00192	8b e5		 mov	 esp, ebp
  00194	5d		 pop	 ebp
  00195	c3		 ret	 0
_TEXT	ENDS
;	COMDAT text$x
text$x	SEGMENT
__ehhandler$?ForceRemoveSysEnc@@YAHXZ:
  00000	8b 54 24 08	 mov	 edx, DWORD PTR [esp+8]
  00004	8d 42 0c	 lea	 eax, DWORD PTR [edx+12]
  00007	8b 8a ac fd ff
	ff		 mov	 ecx, DWORD PTR [edx-596]
  0000d	33 c8		 xor	 ecx, eax
  0000f	e8 00 00 00 00	 call	 @__security_check_cookie@4
  00014	b8 00 00 00 00	 mov	 eax, OFFSET __ehfuncinfo$?ForceRemoveSysEnc@@YAHXZ
  00019	e9 00 00 00 00	 jmp	 ___CxxFrameHandler3
text$x	ENDS
?ForceRemoveSysEnc@@YAHXZ ENDP				; ForceRemoveSysEnc
PUBLIC	??_C@_11LOCGONAA@?$AA?$AA@			; `string'
PUBLIC	??_C@_0CA@EHDIKOJL@IDC_LINK_MORE_INFO_ABOUT_CIPHER?$AA@ ; `string'
PUBLIC	??_C@_0BH@PJGBOAEF@TWO_LAYER_CASCADE_HELP?$AA@	; `string'
PUBLIC	??_C@_0BJ@CFADADFJ@THREE_LAYER_CASCADE_HELP?$AA@ ; `string'
PUBLIC	??_C@_0N@IDJJJPOF@TWOFISH_HELP?$AA@		; `string'
PUBLIC	??_C@_07DABDIDEC@Twofish?$AA@			; `string'
PUBLIC	??_C@_0N@PAOPLDOJ@SERPENT_HELP?$AA@		; `string'
PUBLIC	??_C@_07CCCAKGBN@Serpent?$AA@			; `string'
PUBLIC	??_C@_08FJPFOLOD@AES_HELP?$AA@			; `string'
PUBLIC	??_C@_0BA@LGBFJNHH@MORE_INFO_ABOUT?$AA@		; `string'
PUBLIC	??_C@_03BKNEFOAH@AES?$AA@			; `string'
PUBLIC	__$ArrayPad$
PUBLIC	_ComboSelChangeEA
EXTRN	_AccommodateTextField:PROC
EXTRN	_hUserUnderlineFont:DWORD
EXTRN	__imp__SetWindowTextW@8:PROC
EXTRN	_wcscpy_s:PROC
EXTRN	_CipherGetName:PROC
EXTRN	_CipherGetKeySize:PROC
EXTRN	_EAGetPreviousCipher:PROC
EXTRN	_EAGetLastCipher:PROC
EXTRN	_EAGetCipherCount:PROC
EXTRN	_swprintf_s:PROC
EXTRN	_GetString:PROC
EXTRN	_EAGetName:PROC
EXTRN	__imp__SendMessageA@16:PROC
EXTRN	__chkstk:PROC
;	COMDAT ??_C@_11LOCGONAA@?$AA?$AA@
CONST	SEGMENT
??_C@_11LOCGONAA@?$AA?$AA@ DB 00H, 00H			; `string'
CONST	ENDS
;	COMDAT ??_C@_0CA@EHDIKOJL@IDC_LINK_MORE_INFO_ABOUT_CIPHER?$AA@
CONST	SEGMENT
??_C@_0CA@EHDIKOJL@IDC_LINK_MORE_INFO_ABOUT_CIPHER?$AA@ DB 'IDC_LINK_MORE'
	DB	'_INFO_ABOUT_CIPHER', 00H			; `string'
CONST	ENDS
;	COMDAT ??_C@_0BH@PJGBOAEF@TWO_LAYER_CASCADE_HELP?$AA@
CONST	SEGMENT
??_C@_0BH@PJGBOAEF@TWO_LAYER_CASCADE_HELP?$AA@ DB 'TWO_LAYER_CASCADE_HELP'
	DB	00H						; `string'
CONST	ENDS
;	COMDAT ??_C@_0BJ@CFADADFJ@THREE_LAYER_CASCADE_HELP?$AA@
CONST	SEGMENT
??_C@_0BJ@CFADADFJ@THREE_LAYER_CASCADE_HELP?$AA@ DB 'THREE_LAYER_CASCADE_'
	DB	'HELP', 00H					; `string'
CONST	ENDS
;	COMDAT ??_C@_0N@IDJJJPOF@TWOFISH_HELP?$AA@
CONST	SEGMENT
??_C@_0N@IDJJJPOF@TWOFISH_HELP?$AA@ DB 'TWOFISH_HELP', 00H ; `string'
CONST	ENDS
;	COMDAT ??_C@_07DABDIDEC@Twofish?$AA@
CONST	SEGMENT
??_C@_07DABDIDEC@Twofish?$AA@ DB 'Twofish', 00H		; `string'
CONST	ENDS
;	COMDAT ??_C@_0N@PAOPLDOJ@SERPENT_HELP?$AA@
CONST	SEGMENT
??_C@_0N@PAOPLDOJ@SERPENT_HELP?$AA@ DB 'SERPENT_HELP', 00H ; `string'
CONST	ENDS
;	COMDAT ??_C@_07CCCAKGBN@Serpent?$AA@
CONST	SEGMENT
??_C@_07CCCAKGBN@Serpent?$AA@ DB 'Serpent', 00H		; `string'
CONST	ENDS
;	COMDAT ??_C@_08FJPFOLOD@AES_HELP?$AA@
CONST	SEGMENT
??_C@_08FJPFOLOD@AES_HELP?$AA@ DB 'AES_HELP', 00H	; `string'
CONST	ENDS
;	COMDAT ??_C@_0BA@LGBFJNHH@MORE_INFO_ABOUT?$AA@
CONST	SEGMENT
??_C@_0BA@LGBFJNHH@MORE_INFO_ABOUT?$AA@ DB 'MORE_INFO_ABOUT', 00H ; `string'
CONST	ENDS
;	COMDAT ??_C@_03BKNEFOAH@AES?$AA@
CONST	SEGMENT
??_C@_03BKNEFOAH@AES?$AA@ DB 'AES', 00H			; `string'
; Function compile flags: /Ogtpy
CONST	ENDS
;	COMDAT _ComboSelChangeEA
_TEXT	SEGMENT
_cipherIDs$132028 = -8828				; size = 20
_name$132025 = -8808					; size = 100
_hyperLink$132027 = -8708				; size = 512
_auxLine$132026 = -8196					; size = 8192
__$ArrayPad$ = -4					; size = 4
_hwndDlg$ = 8						; size = 4
_ComboSelChangeEA PROC					; COMDAT

; 1172 : {

  00000	b8 7c 22 00 00	 mov	 eax, 8828		; 0000227cH
  00005	e8 00 00 00 00	 call	 __chkstk
  0000a	a1 00 00 00 00	 mov	 eax, DWORD PTR ___security_cookie
  0000f	33 c4		 xor	 eax, esp
  00011	89 84 24 78 22
	00 00		 mov	 DWORD PTR __$ArrayPad$[esp+8828], eax
  00018	53		 push	 ebx

; 1173 : 	LPARAM nIndex = SendMessage (GetDlgItem (hwndDlg, IDC_COMBO_BOX), CB_GETCURSEL, 0, 0);

  00019	8b 1d 00 00 00
	00		 mov	 ebx, DWORD PTR __imp__GetDlgItem@8
  0001f	55		 push	 ebp
  00020	8b ac 24 88 22
	00 00		 mov	 ebp, DWORD PTR _hwndDlg$[esp+8832]
  00027	56		 push	 esi
  00028	57		 push	 edi
  00029	6a 00		 push	 0
  0002b	6a 00		 push	 0
  0002d	68 47 01 00 00	 push	 327			; 00000147H
  00032	68 ea 03 00 00	 push	 1002			; 000003eaH
  00037	55		 push	 ebp
  00038	ff d3		 call	 ebx
  0003a	8b 3d 00 00 00
	00		 mov	 edi, DWORD PTR __imp__SendMessageA@16
  00040	50		 push	 eax
  00041	ff d7		 call	 edi
  00043	8b f0		 mov	 esi, eax

; 1174 : 
; 1175 : 	if (nIndex == CB_ERR)

  00045	83 fe ff	 cmp	 esi, -1
  00048	75 19		 jne	 SHORT $LN16@ComboSelCh

; 1176 : 	{
; 1177 : 		SetWindowText (GetDlgItem (hwndDlg, IDC_BOX_HELP), "");

  0004a	68 00 00 00 00	 push	 OFFSET ??_C@_00CNPNBAHC@?$AA@
  0004f	68 eb 03 00 00	 push	 1003			; 000003ebH
  00054	55		 push	 ebp
  00055	ff d3		 call	 ebx
  00057	50		 push	 eax
  00058	ff 15 00 00 00
	00		 call	 DWORD PTR __imp__SetWindowTextA@8

; 1178 : 	}
; 1179 : 	else

  0005e	e9 16 03 00 00	 jmp	 $LN15@ComboSelCh
$LN16@ComboSelCh:

; 1180 : 	{
; 1181 : 		char name[100];
; 1182 : 		wchar_t auxLine[4096];
; 1183 : 		wchar_t hyperLink[256] = { 0 };

  00063	33 c0		 xor	 eax, eax
  00065	68 fe 01 00 00	 push	 510			; 000001feH
  0006a	50		 push	 eax
  0006b	8d 8c 24 92 00
	00 00		 lea	 ecx, DWORD PTR _hyperLink$132027[esp+8854]
  00072	51		 push	 ecx
  00073	66 89 84 24 94
	00 00 00	 mov	 WORD PTR _hyperLink$132027[esp+8856], ax
  0007b	e8 00 00 00 00	 call	 _memset
  00080	83 c4 0c	 add	 esp, 12			; 0000000cH

; 1184 : 		int cipherIDs[5];
; 1185 : 		int i, cnt = 0;
; 1186 : 
; 1187 : 		nIndex = SendMessage (GetDlgItem (hwndDlg, IDC_COMBO_BOX), CB_GETITEMDATA, nIndex, 0);

  00083	6a 00		 push	 0
  00085	56		 push	 esi
  00086	68 50 01 00 00	 push	 336			; 00000150H
  0008b	68 ea 03 00 00	 push	 1002			; 000003eaH
  00090	55		 push	 ebp
  00091	ff d3		 call	 ebx
  00093	50		 push	 eax
  00094	ff d7		 call	 edi
  00096	8b d8		 mov	 ebx, eax

; 1188 : 		EAGetName (name, nIndex);

  00098	8d 54 24 24	 lea	 edx, DWORD PTR _name$132025[esp+8844]
  0009c	53		 push	 ebx
  0009d	52		 push	 edx
  0009e	e8 00 00 00 00	 call	 _EAGetName
  000a3	83 c4 08	 add	 esp, 8

; 1189 : 
; 1190 : 		if (strcmp (name, "AES") == 0)

  000a6	b9 00 00 00 00	 mov	 ecx, OFFSET ??_C@_03BKNEFOAH@AES?$AA@
  000ab	8d 44 24 24	 lea	 eax, DWORD PTR _name$132025[esp+8844]
  000af	90		 npad	 1
$LL21@ComboSelCh:
  000b0	8a 10		 mov	 dl, BYTE PTR [eax]
  000b2	3a 11		 cmp	 dl, BYTE PTR [ecx]
  000b4	75 1a		 jne	 SHORT $LN22@ComboSelCh
  000b6	84 d2		 test	 dl, dl
  000b8	74 12		 je	 SHORT $LN23@ComboSelCh
  000ba	8a 50 01	 mov	 dl, BYTE PTR [eax+1]
  000bd	3a 51 01	 cmp	 dl, BYTE PTR [ecx+1]
  000c0	75 0e		 jne	 SHORT $LN22@ComboSelCh
  000c2	83 c0 02	 add	 eax, 2
  000c5	83 c1 02	 add	 ecx, 2
  000c8	84 d2		 test	 dl, dl
  000ca	75 e4		 jne	 SHORT $LL21@ComboSelCh
$LN23@ComboSelCh:
  000cc	33 c0		 xor	 eax, eax
  000ce	eb 05		 jmp	 SHORT $LN24@ComboSelCh
$LN22@ComboSelCh:
  000d0	1b c0		 sbb	 eax, eax
  000d2	83 d8 ff	 sbb	 eax, -1
$LN24@ComboSelCh:
  000d5	85 c0		 test	 eax, eax

; 1191 : 		{
; 1192 : 			swprintf_s (hyperLink, sizeof(hyperLink) / 2, GetString ("MORE_INFO_ABOUT"), name);

  000d7	8d 44 24 24	 lea	 eax, DWORD PTR _name$132025[esp+8844]
  000db	75 34		 jne	 SHORT $LN14@ComboSelCh
  000dd	50		 push	 eax
  000de	68 00 00 00 00	 push	 OFFSET ??_C@_0BA@LGBFJNHH@MORE_INFO_ABOUT?$AA@
  000e3	e8 00 00 00 00	 call	 _GetString
  000e8	83 c4 04	 add	 esp, 4
  000eb	50		 push	 eax
  000ec	8d 8c 24 90 00
	00 00		 lea	 ecx, DWORD PTR _hyperLink$132027[esp+8852]
  000f3	68 00 01 00 00	 push	 256			; 00000100H
  000f8	51		 push	 ecx
  000f9	e8 00 00 00 00	 call	 _swprintf_s

; 1193 : 
; 1194 : 			SetWindowTextW (GetDlgItem (hwndDlg, IDC_BOX_HELP), GetString ("AES_HELP"));

  000fe	68 00 00 00 00	 push	 OFFSET ??_C@_08FJPFOLOD@AES_HELP?$AA@
  00103	e8 00 00 00 00	 call	 _GetString
  00108	83 c4 14	 add	 esp, 20			; 00000014H
  0010b	50		 push	 eax
  0010c	e9 25 02 00 00	 jmp	 $LN33@ComboSelCh
$LN14@ComboSelCh:

; 1195 : 		}
; 1196 : 		else if (strcmp (name, "Serpent") == 0)

  00111	b9 00 00 00 00	 mov	 ecx, OFFSET ??_C@_07CCCAKGBN@Serpent?$AA@
$LL25@ComboSelCh:
  00116	8a 10		 mov	 dl, BYTE PTR [eax]
  00118	3a 11		 cmp	 dl, BYTE PTR [ecx]
  0011a	75 1a		 jne	 SHORT $LN26@ComboSelCh
  0011c	84 d2		 test	 dl, dl
  0011e	74 12		 je	 SHORT $LN27@ComboSelCh
  00120	8a 50 01	 mov	 dl, BYTE PTR [eax+1]
  00123	3a 51 01	 cmp	 dl, BYTE PTR [ecx+1]
  00126	75 0e		 jne	 SHORT $LN26@ComboSelCh
  00128	83 c0 02	 add	 eax, 2
  0012b	83 c1 02	 add	 ecx, 2
  0012e	84 d2		 test	 dl, dl
  00130	75 e4		 jne	 SHORT $LL25@ComboSelCh
$LN27@ComboSelCh:
  00132	33 c0		 xor	 eax, eax
  00134	eb 05		 jmp	 SHORT $LN28@ComboSelCh
$LN26@ComboSelCh:
  00136	1b c0		 sbb	 eax, eax
  00138	83 d8 ff	 sbb	 eax, -1
$LN28@ComboSelCh:
  0013b	85 c0		 test	 eax, eax
  0013d	75 38		 jne	 SHORT $LN12@ComboSelCh

; 1197 : 		{
; 1198 : 			swprintf_s (hyperLink, sizeof(hyperLink) / 2, GetString ("MORE_INFO_ABOUT"), name);

  0013f	8d 54 24 24	 lea	 edx, DWORD PTR _name$132025[esp+8844]
  00143	52		 push	 edx
  00144	68 00 00 00 00	 push	 OFFSET ??_C@_0BA@LGBFJNHH@MORE_INFO_ABOUT?$AA@
  00149	e8 00 00 00 00	 call	 _GetString
  0014e	83 c4 04	 add	 esp, 4
  00151	50		 push	 eax
  00152	8d 84 24 90 00
	00 00		 lea	 eax, DWORD PTR _hyperLink$132027[esp+8852]
  00159	68 00 01 00 00	 push	 256			; 00000100H
  0015e	50		 push	 eax
  0015f	e8 00 00 00 00	 call	 _swprintf_s

; 1199 : 				
; 1200 : 			SetWindowTextW (GetDlgItem (hwndDlg, IDC_BOX_HELP), GetString ("SERPENT_HELP"));

  00164	68 00 00 00 00	 push	 OFFSET ??_C@_0N@PAOPLDOJ@SERPENT_HELP?$AA@
  00169	e8 00 00 00 00	 call	 _GetString
  0016e	83 c4 14	 add	 esp, 20			; 00000014H
  00171	50		 push	 eax
  00172	e9 bf 01 00 00	 jmp	 $LN33@ComboSelCh
$LN12@ComboSelCh:

; 1201 : 		}
; 1202 : 		else if (strcmp (name, "Twofish") == 0)

  00177	b9 00 00 00 00	 mov	 ecx, OFFSET ??_C@_07DABDIDEC@Twofish?$AA@
  0017c	8d 44 24 24	 lea	 eax, DWORD PTR _name$132025[esp+8844]
$LL29@ComboSelCh:
  00180	8a 10		 mov	 dl, BYTE PTR [eax]
  00182	3a 11		 cmp	 dl, BYTE PTR [ecx]
  00184	75 1a		 jne	 SHORT $LN30@ComboSelCh
  00186	84 d2		 test	 dl, dl
  00188	74 12		 je	 SHORT $LN31@ComboSelCh
  0018a	8a 50 01	 mov	 dl, BYTE PTR [eax+1]
  0018d	3a 51 01	 cmp	 dl, BYTE PTR [ecx+1]
  00190	75 0e		 jne	 SHORT $LN30@ComboSelCh
  00192	83 c0 02	 add	 eax, 2
  00195	83 c1 02	 add	 ecx, 2
  00198	84 d2		 test	 dl, dl
  0019a	75 e4		 jne	 SHORT $LL29@ComboSelCh
$LN31@ComboSelCh:
  0019c	33 c0		 xor	 eax, eax
  0019e	eb 05		 jmp	 SHORT $LN32@ComboSelCh
$LN30@ComboSelCh:
  001a0	1b c0		 sbb	 eax, eax
  001a2	83 d8 ff	 sbb	 eax, -1
$LN32@ComboSelCh:
  001a5	85 c0		 test	 eax, eax
  001a7	75 38		 jne	 SHORT $LN10@ComboSelCh

; 1203 : 		{
; 1204 : 			swprintf_s (hyperLink, sizeof(hyperLink) / 2, GetString ("MORE_INFO_ABOUT"), name);

  001a9	8d 4c 24 24	 lea	 ecx, DWORD PTR _name$132025[esp+8844]
  001ad	51		 push	 ecx
  001ae	68 00 00 00 00	 push	 OFFSET ??_C@_0BA@LGBFJNHH@MORE_INFO_ABOUT?$AA@
  001b3	e8 00 00 00 00	 call	 _GetString
  001b8	83 c4 04	 add	 esp, 4
  001bb	50		 push	 eax
  001bc	8d 94 24 90 00
	00 00		 lea	 edx, DWORD PTR _hyperLink$132027[esp+8852]
  001c3	68 00 01 00 00	 push	 256			; 00000100H
  001c8	52		 push	 edx
  001c9	e8 00 00 00 00	 call	 _swprintf_s

; 1205 : 
; 1206 : 			SetWindowTextW (GetDlgItem (hwndDlg, IDC_BOX_HELP), GetString ("TWOFISH_HELP"));

  001ce	68 00 00 00 00	 push	 OFFSET ??_C@_0N@IDJJJPOF@TWOFISH_HELP?$AA@
  001d3	e8 00 00 00 00	 call	 _GetString
  001d8	83 c4 14	 add	 esp, 20			; 00000014H
  001db	50		 push	 eax
  001dc	e9 55 01 00 00	 jmp	 $LN33@ComboSelCh
$LN10@ComboSelCh:

; 1207 : 		}
; 1208 : 		else if (EAGetCipherCount (nIndex) > 1)

  001e1	53		 push	 ebx
  001e2	e8 00 00 00 00	 call	 _EAGetCipherCount
  001e7	83 c4 04	 add	 esp, 4
  001ea	83 f8 01	 cmp	 eax, 1
  001ed	0f 8e 3e 01 00
	00		 jle	 $LN8@ComboSelCh

; 1209 : 		{
; 1210 : 			// Cascade
; 1211 : 			cipherIDs[cnt++] = i = EAGetLastCipher(nIndex);

  001f3	53		 push	 ebx
  001f4	e8 00 00 00 00	 call	 _EAGetLastCipher

; 1212 : 			while (i = EAGetPreviousCipher(nIndex, i))

  001f9	50		 push	 eax
  001fa	8b f8		 mov	 edi, eax
  001fc	53		 push	 ebx
  001fd	89 7c 24 1c	 mov	 DWORD PTR _cipherIDs$132028[esp+8856], edi
  00201	be 01 00 00 00	 mov	 esi, 1
  00206	e8 00 00 00 00	 call	 _EAGetPreviousCipher
  0020b	83 c4 0c	 add	 esp, 12			; 0000000cH
  0020e	85 c0		 test	 eax, eax
  00210	74 17		 je	 SHORT $LN6@ComboSelCh
$LL7@ComboSelCh:
  00212	50		 push	 eax

; 1213 : 			{
; 1214 : 				cipherIDs[cnt] = i;

  00213	89 44 b4 14	 mov	 DWORD PTR _cipherIDs$132028[esp+esi*4+8848], eax
  00217	53		 push	 ebx

; 1215 : 				cnt++; 

  00218	46		 inc	 esi
  00219	e8 00 00 00 00	 call	 _EAGetPreviousCipher
  0021e	83 c4 08	 add	 esp, 8
  00221	85 c0		 test	 eax, eax
  00223	75 ed		 jne	 SHORT $LL7@ComboSelCh

; 1212 : 			while (i = EAGetPreviousCipher(nIndex, i))

  00225	8b 7c 24 10	 mov	 edi, DWORD PTR _cipherIDs$132028[esp+8844]
$LN6@ComboSelCh:

; 1216 : 			}
; 1217 : 
; 1218 : 			switch (cnt)	// Number of ciphers in the cascade

  00229	83 ee 02	 sub	 esi, 2
  0022c	0f 84 7f 00 00
	00		 je	 $LN3@ComboSelCh
  00232	83 ee 01	 sub	 esi, 1
  00235	0f 85 cc 00 00
	00		 jne	 $LN4@ComboSelCh

; 1226 : 				break;
; 1227 : 
; 1228 : 			case 3:
; 1229 : 				swprintf (auxLine, GetString ("THREE_LAYER_CASCADE_HELP"), 
; 1230 : 					CipherGetName (cipherIDs[2]),
; 1231 : 					CipherGetKeySize (cipherIDs[2])*8,
; 1232 : 					CipherGetName (cipherIDs[1]),
; 1233 : 					CipherGetKeySize (cipherIDs[1])*8,
; 1234 : 					CipherGetName (cipherIDs[0]),
; 1235 : 					CipherGetKeySize (cipherIDs[0])*8);

  0023b	57		 push	 edi
  0023c	e8 00 00 00 00	 call	 _CipherGetKeySize
  00241	03 c0		 add	 eax, eax
  00243	03 c0		 add	 eax, eax
  00245	83 c4 04	 add	 esp, 4
  00248	03 c0		 add	 eax, eax
  0024a	50		 push	 eax
  0024b	57		 push	 edi
  0024c	e8 00 00 00 00	 call	 _CipherGetName
  00251	8b 74 24 1c	 mov	 esi, DWORD PTR _cipherIDs$132028[esp+8856]
  00255	83 c4 04	 add	 esp, 4
  00258	50		 push	 eax
  00259	56		 push	 esi
  0025a	e8 00 00 00 00	 call	 _CipherGetKeySize
  0025f	03 c0		 add	 eax, eax
  00261	03 c0		 add	 eax, eax
  00263	83 c4 04	 add	 esp, 4
  00266	03 c0		 add	 eax, eax
  00268	50		 push	 eax
  00269	56		 push	 esi
  0026a	e8 00 00 00 00	 call	 _CipherGetName
  0026f	8b 74 24 28	 mov	 esi, DWORD PTR _cipherIDs$132028[esp+8868]
  00273	83 c4 04	 add	 esp, 4
  00276	50		 push	 eax
  00277	56		 push	 esi
  00278	e8 00 00 00 00	 call	 _CipherGetKeySize
  0027d	03 c0		 add	 eax, eax
  0027f	03 c0		 add	 eax, eax
  00281	83 c4 04	 add	 esp, 4
  00284	03 c0		 add	 eax, eax
  00286	50		 push	 eax
  00287	56		 push	 esi
  00288	e8 00 00 00 00	 call	 _CipherGetName
  0028d	83 c4 04	 add	 esp, 4
  00290	50		 push	 eax
  00291	68 00 00 00 00	 push	 OFFSET ??_C@_0BJ@CFADADFJ@THREE_LAYER_CASCADE_HELP?$AA@
  00296	e8 00 00 00 00	 call	 _GetString
  0029b	83 c4 04	 add	 esp, 4
  0029e	50		 push	 eax
  0029f	8d 84 24 a4 02
	00 00		 lea	 eax, DWORD PTR _auxLine$132026[esp+8872]
  002a6	50		 push	 eax
  002a7	e8 00 00 00 00	 call	 ?swprintf@@YAHPA_WPB_WZZ ; swprintf
  002ac	83 c4 20	 add	 esp, 32			; 00000020H

; 1236 : 				break;

  002af	eb 56		 jmp	 SHORT $LN4@ComboSelCh
$LN3@ComboSelCh:

; 1219 : 			{
; 1220 : 			case 2:
; 1221 : 				swprintf (auxLine, GetString ("TWO_LAYER_CASCADE_HELP"), 
; 1222 : 					CipherGetName (cipherIDs[1]),
; 1223 : 					CipherGetKeySize (cipherIDs[1])*8,
; 1224 : 					CipherGetName (cipherIDs[0]),
; 1225 : 					CipherGetKeySize (cipherIDs[0])*8);

  002b1	57		 push	 edi
  002b2	e8 00 00 00 00	 call	 _CipherGetKeySize
  002b7	03 c0		 add	 eax, eax
  002b9	03 c0		 add	 eax, eax
  002bb	83 c4 04	 add	 esp, 4
  002be	03 c0		 add	 eax, eax
  002c0	50		 push	 eax
  002c1	57		 push	 edi
  002c2	e8 00 00 00 00	 call	 _CipherGetName
  002c7	8b 74 24 1c	 mov	 esi, DWORD PTR _cipherIDs$132028[esp+8856]
  002cb	83 c4 04	 add	 esp, 4
  002ce	50		 push	 eax
  002cf	56		 push	 esi
  002d0	e8 00 00 00 00	 call	 _CipherGetKeySize
  002d5	03 c0		 add	 eax, eax
  002d7	03 c0		 add	 eax, eax
  002d9	83 c4 04	 add	 esp, 4
  002dc	03 c0		 add	 eax, eax
  002de	50		 push	 eax
  002df	56		 push	 esi
  002e0	e8 00 00 00 00	 call	 _CipherGetName
  002e5	83 c4 04	 add	 esp, 4
  002e8	50		 push	 eax
  002e9	68 00 00 00 00	 push	 OFFSET ??_C@_0BH@PJGBOAEF@TWO_LAYER_CASCADE_HELP?$AA@
  002ee	e8 00 00 00 00	 call	 _GetString
  002f3	83 c4 04	 add	 esp, 4
  002f6	50		 push	 eax
  002f7	8d 8c 24 9c 02
	00 00		 lea	 ecx, DWORD PTR _auxLine$132026[esp+8864]
  002fe	51		 push	 ecx
  002ff	e8 00 00 00 00	 call	 ?swprintf@@YAHPA_WPB_WZZ ; swprintf
  00304	83 c4 18	 add	 esp, 24			; 00000018H
$LN4@ComboSelCh:

; 1237 : 			}
; 1238 : 
; 1239 : 			wcscpy_s (hyperLink, sizeof(hyperLink) / 2, GetString ("IDC_LINK_MORE_INFO_ABOUT_CIPHER"));

  00307	68 00 00 00 00	 push	 OFFSET ??_C@_0CA@EHDIKOJL@IDC_LINK_MORE_INFO_ABOUT_CIPHER?$AA@
  0030c	e8 00 00 00 00	 call	 _GetString
  00311	50		 push	 eax
  00312	8d 94 24 90 00
	00 00		 lea	 edx, DWORD PTR _hyperLink$132027[esp+8852]
  00319	68 00 01 00 00	 push	 256			; 00000100H
  0031e	52		 push	 edx
  0031f	e8 00 00 00 00	 call	 _wcscpy_s
  00324	83 c4 10	 add	 esp, 16			; 00000010H

; 1240 : 
; 1241 : 			SetWindowTextW (GetDlgItem (hwndDlg, IDC_BOX_HELP), auxLine);

  00327	8d 84 24 88 02
	00 00		 lea	 eax, DWORD PTR _auxLine$132026[esp+8844]
  0032e	50		 push	 eax

; 1242 : 		}
; 1243 : 		else

  0032f	eb 05		 jmp	 SHORT $LN33@ComboSelCh
$LN8@ComboSelCh:

; 1244 : 		{
; 1245 : 			// No info available for this encryption algorithm
; 1246 : 			SetWindowTextW (GetDlgItem (hwndDlg, IDC_BOX_HELP), L"");

  00331	68 00 00 00 00	 push	 OFFSET ??_C@_11LOCGONAA@?$AA?$AA@
$LN33@ComboSelCh:
  00336	68 eb 03 00 00	 push	 1003			; 000003ebH
  0033b	55		 push	 ebp
  0033c	ff 15 00 00 00
	00		 call	 DWORD PTR __imp__GetDlgItem@8
  00342	8b 35 00 00 00
	00		 mov	 esi, DWORD PTR __imp__SetWindowTextW@8
  00348	50		 push	 eax
  00349	ff d6		 call	 esi

; 1247 : 		}
; 1248 : 
; 1249 : 
; 1250 : 		// Update hyperlink
; 1251 : 		SetWindowTextW (GetDlgItem (hwndDlg, IDC_LINK_MORE_INFO_ABOUT_CIPHER), hyperLink);

  0034b	8d 8c 24 88 00
	00 00		 lea	 ecx, DWORD PTR _hyperLink$132027[esp+8844]
  00352	51		 push	 ecx
  00353	68 21 04 00 00	 push	 1057			; 00000421H
  00358	55		 push	 ebp
  00359	ff 15 00 00 00
	00		 call	 DWORD PTR __imp__GetDlgItem@8
  0035f	50		 push	 eax
  00360	ff d6		 call	 esi

; 1252 : 		AccommodateTextField (hwndDlg, IDC_LINK_MORE_INFO_ABOUT_CIPHER, FALSE, hUserUnderlineFont);

  00362	8b 15 00 00 00
	00		 mov	 edx, DWORD PTR _hUserUnderlineFont
  00368	52		 push	 edx
  00369	6a 00		 push	 0
  0036b	68 21 04 00 00	 push	 1057			; 00000421H
  00370	55		 push	 ebp
  00371	e8 00 00 00 00	 call	 _AccommodateTextField
  00376	83 c4 10	 add	 esp, 16			; 00000010H
$LN15@ComboSelCh:

; 1253 : 	}
; 1254 : }

  00379	8b 8c 24 88 22
	00 00		 mov	 ecx, DWORD PTR __$ArrayPad$[esp+8844]
  00380	5f		 pop	 edi
  00381	5e		 pop	 esi
  00382	5d		 pop	 ebp
  00383	5b		 pop	 ebx
  00384	33 cc		 xor	 ecx, esp
  00386	e8 00 00 00 00	 call	 @__security_check_cookie@4
  0038b	81 c4 7c 22 00
	00		 add	 esp, 8828		; 0000227cH
  00391	c3		 ret	 0
_ComboSelChangeEA ENDP
; Function compile flags: /Ogtpy
_TEXT	ENDS
;	COMDAT ?UpdateWizardModeControls@@YAXPAUHWND__@@H@Z
_TEXT	SEGMENT
?UpdateWizardModeControls@@YAXPAUHWND__@@H@Z PROC	; UpdateWizardModeControls, COMDAT
; _hwndDlg$ = edi
; _setWizardMode$ = esi

; 1339 : 	SendMessage (GetDlgItem (hwndDlg, IDC_FILE_CONTAINER),
; 1340 : 		BM_SETCHECK,
; 1341 : 		setWizardMode == WIZARD_MODE_FILE_CONTAINER ? BST_CHECKED : BST_UNCHECKED,
; 1342 : 		0);

  00000	33 c0		 xor	 eax, eax
  00002	53		 push	 ebx
  00003	8b 1d 00 00 00
	00		 mov	 ebx, DWORD PTR __imp__GetDlgItem@8
  00009	85 f6		 test	 esi, esi
  0000b	55		 push	 ebp
  0000c	0f 94 c0	 sete	 al
  0000f	6a 00		 push	 0
  00011	50		 push	 eax
  00012	68 f1 00 00 00	 push	 241			; 000000f1H
  00017	68 25 04 00 00	 push	 1061			; 00000425H
  0001c	57		 push	 edi
  0001d	ff d3		 call	 ebx
  0001f	8b 2d 00 00 00
	00		 mov	 ebp, DWORD PTR __imp__SendMessageA@16
  00025	50		 push	 eax
  00026	ff d5		 call	 ebp

; 1343 : 
; 1344 : 	SendMessage (GetDlgItem (hwndDlg, IDC_NONSYS_DEVICE),
; 1345 : 		BM_SETCHECK,
; 1346 : 		setWizardMode == WIZARD_MODE_NONSYS_DEVICE ? BST_CHECKED : BST_UNCHECKED,
; 1347 : 		0);

  00028	33 c9		 xor	 ecx, ecx
  0002a	83 fe 01	 cmp	 esi, 1
  0002d	0f 94 c1	 sete	 cl
  00030	6a 00		 push	 0
  00032	51		 push	 ecx
  00033	68 f1 00 00 00	 push	 241			; 000000f1H
  00038	68 26 04 00 00	 push	 1062			; 00000426H
  0003d	57		 push	 edi
  0003e	ff d3		 call	 ebx
  00040	50		 push	 eax
  00041	ff d5		 call	 ebp

; 1348 : 
; 1349 : 	SendMessage (GetDlgItem (hwndDlg, IDC_SYS_DEVICE),
; 1350 : 		BM_SETCHECK,
; 1351 : 		setWizardMode == WIZARD_MODE_SYS_DEVICE ? BST_CHECKED : BST_UNCHECKED,
; 1352 : 		0);

  00043	33 d2		 xor	 edx, edx
  00045	83 fe 02	 cmp	 esi, 2
  00048	0f 94 c2	 sete	 dl
  0004b	6a 00		 push	 0
  0004d	52		 push	 edx
  0004e	68 f1 00 00 00	 push	 241			; 000000f1H
  00053	68 27 04 00 00	 push	 1063			; 00000427H
  00058	57		 push	 edi
  00059	ff d3		 call	 ebx
  0005b	50		 push	 eax
  0005c	ff d5		 call	 ebp
  0005e	5d		 pop	 ebp
  0005f	5b		 pop	 ebx

; 1353 : }

  00060	c3		 ret	 0
?UpdateWizardModeControls@@YAXPAUHWND__@@H@Z ENDP	; UpdateWizardModeControls
; Function compile flags: /Ogtpy
_TEXT	ENDS
;	COMDAT ?GetSelectedWizardMode@@YAHPAUHWND__@@@Z
_TEXT	SEGMENT
?GetSelectedWizardMode@@YAHPAUHWND__@@@Z PROC		; GetSelectedWizardMode, COMDAT
; _hwndDlg$ = esi

; 1356 : {

  00000	57		 push	 edi

; 1357 : 	if (IsButtonChecked (GetDlgItem (hwndDlg, IDC_FILE_CONTAINER)))

  00001	8b 3d 00 00 00
	00		 mov	 edi, DWORD PTR __imp__GetDlgItem@8
  00007	68 25 04 00 00	 push	 1061			; 00000425H
  0000c	56		 push	 esi
  0000d	ff d7		 call	 edi
  0000f	50		 push	 eax
  00010	e8 00 00 00 00	 call	 _IsButtonChecked
  00015	83 c4 04	 add	 esp, 4
  00018	85 c0		 test	 eax, eax
  0001a	74 04		 je	 SHORT $LN3@GetSelecte

; 1358 : 		return WIZARD_MODE_FILE_CONTAINER;

  0001c	33 c0		 xor	 eax, eax
  0001e	5f		 pop	 edi

; 1364 : 		return WIZARD_MODE_SYS_DEVICE;
; 1365 : 
; 1366 : 	return DEFAULT_VOL_CREATION_WIZARD_MODE;
; 1367 : }

  0001f	c3		 ret	 0
$LN3@GetSelecte:

; 1359 : 
; 1360 : 	if (IsButtonChecked (GetDlgItem (hwndDlg, IDC_NONSYS_DEVICE)))

  00020	68 26 04 00 00	 push	 1062			; 00000426H
  00025	56		 push	 esi
  00026	ff d7		 call	 edi
  00028	50		 push	 eax
  00029	e8 00 00 00 00	 call	 _IsButtonChecked
  0002e	83 c4 04	 add	 esp, 4
  00031	85 c0		 test	 eax, eax
  00033	74 07		 je	 SHORT $LN2@GetSelecte

; 1361 : 		return WIZARD_MODE_NONSYS_DEVICE;

  00035	b8 01 00 00 00	 mov	 eax, 1
  0003a	5f		 pop	 edi

; 1364 : 		return WIZARD_MODE_SYS_DEVICE;
; 1365 : 
; 1366 : 	return DEFAULT_VOL_CREATION_WIZARD_MODE;
; 1367 : }

  0003b	c3		 ret	 0
$LN2@GetSelecte:

; 1362 : 
; 1363 : 	if (IsButtonChecked (GetDlgItem (hwndDlg, IDC_SYS_DEVICE)))

  0003c	68 27 04 00 00	 push	 1063			; 00000427H
  00041	56		 push	 esi
  00042	ff d7		 call	 edi
  00044	50		 push	 eax
  00045	e8 00 00 00 00	 call	 _IsButtonChecked
  0004a	83 c4 04	 add	 esp, 4
  0004d	f7 d8		 neg	 eax
  0004f	1b c0		 sbb	 eax, eax
  00051	83 e0 02	 and	 eax, 2
  00054	5f		 pop	 edi

; 1364 : 		return WIZARD_MODE_SYS_DEVICE;
; 1365 : 
; 1366 : 	return DEFAULT_VOL_CREATION_WIZARD_MODE;
; 1367 : }

  00055	c3		 ret	 0
?GetSelectedWizardMode@@YAHPAUHWND__@@@Z ENDP		; GetSelectedWizardMode
; Function compile flags: /Ogtpy
_TEXT	ENDS
;	COMDAT ?RefreshMultiBootControls@@YAXPAUHWND__@@@Z
_TEXT	SEGMENT
?RefreshMultiBootControls@@YAXPAUHWND__@@@Z PROC	; RefreshMultiBootControls, COMDAT
; _hwndDlg$ = esi

; 1371 : #ifdef DEBUG
; 1372 : 	if (nMultiBoot == 0)
; 1373 : 		nMultiBoot = 1;
; 1374 : #endif
; 1375 : 
; 1376 : 	SendMessage (GetDlgItem (hwndDlg, IDC_SINGLE_BOOT),
; 1377 : 		BM_SETCHECK,
; 1378 : 		nMultiBoot == 1 ? BST_CHECKED : BST_UNCHECKED,
; 1379 : 		0);

  00000	33 c0		 xor	 eax, eax
  00002	83 3d 00 00 00
	00 01		 cmp	 DWORD PTR ?nMultiBoot@@3HA, 1 ; nMultiBoot
  00009	53		 push	 ebx
  0000a	57		 push	 edi
  0000b	8b 3d 00 00 00
	00		 mov	 edi, DWORD PTR __imp__GetDlgItem@8
  00011	0f 94 c0	 sete	 al
  00014	6a 00		 push	 0
  00016	50		 push	 eax
  00017	68 f1 00 00 00	 push	 241			; 000000f1H
  0001c	68 34 04 00 00	 push	 1076			; 00000434H
  00021	56		 push	 esi
  00022	ff d7		 call	 edi
  00024	8b 1d 00 00 00
	00		 mov	 ebx, DWORD PTR __imp__SendMessageA@16
  0002a	50		 push	 eax
  0002b	ff d3		 call	 ebx

; 1380 : 
; 1381 : 	SendMessage (GetDlgItem (hwndDlg, IDC_MULTI_BOOT),
; 1382 : 		BM_SETCHECK,
; 1383 : 		nMultiBoot > 1 ? BST_CHECKED : BST_UNCHECKED,
; 1384 : 		0);

  0002d	33 c9		 xor	 ecx, ecx
  0002f	83 3d 00 00 00
	00 01		 cmp	 DWORD PTR ?nMultiBoot@@3HA, 1 ; nMultiBoot
  00036	6a 00		 push	 0
  00038	0f 9f c1	 setg	 cl
  0003b	51		 push	 ecx
  0003c	68 f1 00 00 00	 push	 241			; 000000f1H
  00041	68 35 04 00 00	 push	 1077			; 00000435H
  00046	56		 push	 esi
  00047	ff d7		 call	 edi
  00049	50		 push	 eax
  0004a	ff d3		 call	 ebx
  0004c	5f		 pop	 edi
  0004d	5b		 pop	 ebx

; 1385 : }

  0004e	c3		 ret	 0
?RefreshMultiBootControls@@YAXPAUHWND__@@@Z ENDP	; RefreshMultiBootControls
; Function compile flags: /Ogtpy
_TEXT	ENDS
;	COMDAT ?Get2RadButtonPageAnswer@@YAHXZ
_TEXT	SEGMENT
?Get2RadButtonPageAnswer@@YAHXZ PROC			; Get2RadButtonPageAnswer, COMDAT

; 1390 : 	if (IsButtonChecked (GetDlgItem (hCurPage, IDC_CHOICE1)))

  00000	a1 00 00 00 00	 mov	 eax, DWORD PTR _hCurPage
  00005	56		 push	 esi
  00006	8b 35 00 00 00
	00		 mov	 esi, DWORD PTR __imp__GetDlgItem@8
  0000c	68 dd 13 00 00	 push	 5085			; 000013ddH
  00011	50		 push	 eax
  00012	ff d6		 call	 esi
  00014	50		 push	 eax
  00015	e8 00 00 00 00	 call	 _IsButtonChecked
  0001a	83 c4 04	 add	 esp, 4
  0001d	85 c0		 test	 eax, eax
  0001f	74 07		 je	 SHORT $LN2@Get2RadBut

; 1391 : 		return 1;

  00021	b8 01 00 00 00	 mov	 eax, 1
  00026	5e		 pop	 esi

; 1394 : 		return 0;
; 1395 : 
; 1396 : 	return -1;
; 1397 : }

  00027	c3		 ret	 0
$LN2@Get2RadBut:

; 1392 : 
; 1393 : 	if (IsButtonChecked (GetDlgItem (hCurPage, IDC_CHOICE2)))

  00028	8b 0d 00 00 00
	00		 mov	 ecx, DWORD PTR _hCurPage
  0002e	68 df 13 00 00	 push	 5087			; 000013dfH
  00033	51		 push	 ecx
  00034	ff d6		 call	 esi
  00036	50		 push	 eax
  00037	e8 00 00 00 00	 call	 _IsButtonChecked
  0003c	83 c4 04	 add	 esp, 4
  0003f	f7 d8		 neg	 eax
  00041	1b c0		 sbb	 eax, eax
  00043	f7 d8		 neg	 eax
  00045	48		 dec	 eax
  00046	5e		 pop	 esi

; 1394 : 		return 0;
; 1395 : 
; 1396 : 	return -1;
; 1397 : }

  00047	c3		 ret	 0
?Get2RadButtonPageAnswer@@YAHXZ ENDP			; Get2RadButtonPageAnswer
; Function compile flags: /Ogtpy
_TEXT	ENDS
;	COMDAT ?Update2RadButtonPage@@YAXH@Z
_TEXT	SEGMENT
?Update2RadButtonPage@@YAXH@Z PROC			; Update2RadButtonPage, COMDAT
; _answer$ = esi

; 1402 : 	SendMessage (GetDlgItem (hCurPage, IDC_CHOICE1),
; 1403 : 		BM_SETCHECK,
; 1404 : 		answer == 1 ? BST_CHECKED : BST_UNCHECKED,
; 1405 : 		0);

  00000	8b 0d 00 00 00
	00		 mov	 ecx, DWORD PTR _hCurPage
  00006	33 c0		 xor	 eax, eax
  00008	53		 push	 ebx
  00009	57		 push	 edi
  0000a	8b 3d 00 00 00
	00		 mov	 edi, DWORD PTR __imp__GetDlgItem@8
  00010	83 fe 01	 cmp	 esi, 1
  00013	0f 94 c0	 sete	 al
  00016	6a 00		 push	 0
  00018	50		 push	 eax
  00019	68 f1 00 00 00	 push	 241			; 000000f1H
  0001e	68 dd 13 00 00	 push	 5085			; 000013ddH
  00023	51		 push	 ecx
  00024	ff d7		 call	 edi
  00026	8b 1d 00 00 00
	00		 mov	 ebx, DWORD PTR __imp__SendMessageA@16
  0002c	50		 push	 eax
  0002d	ff d3		 call	 ebx

; 1406 : 
; 1407 : 	SendMessage (GetDlgItem (hCurPage, IDC_CHOICE2),
; 1408 : 		BM_SETCHECK,
; 1409 : 		answer == 0 ? BST_CHECKED : BST_UNCHECKED,
; 1410 : 		0);

  0002f	a1 00 00 00 00	 mov	 eax, DWORD PTR _hCurPage
  00034	33 d2		 xor	 edx, edx
  00036	85 f6		 test	 esi, esi
  00038	0f 94 c2	 sete	 dl
  0003b	6a 00		 push	 0
  0003d	52		 push	 edx
  0003e	68 f1 00 00 00	 push	 241			; 000000f1H
  00043	68 df 13 00 00	 push	 5087			; 000013dfH
  00048	50		 push	 eax
  00049	ff d7		 call	 edi
  0004b	50		 push	 eax
  0004c	ff d3		 call	 ebx
  0004e	5f		 pop	 edi
  0004f	5b		 pop	 ebx

; 1411 : }

  00050	c3		 ret	 0
?Update2RadButtonPage@@YAXH@Z ENDP			; Update2RadButtonPage
_TEXT	ENDS
PUBLIC	??_C@_06JHILMIHF@CANCEL?$AA@			; `string'
PUBLIC	??_C@_04PKHKLFPJ@PREV?$AA@			; `string'
PUBLIC	??_C@_04MOKMKBJN@NEXT?$AA@			; `string'
PUBLIC	??_C@_08EOJLPPDK@UISTR_NO?$AA@			; `string'
PUBLIC	??_C@_09JHINKGCK@UISTR_YES?$AA@			; `string'
EXTRN	__imp__EnableWindow@8:PROC
;	COMDAT ??_C@_06JHILMIHF@CANCEL?$AA@
CONST	SEGMENT
??_C@_06JHILMIHF@CANCEL?$AA@ DB 'CANCEL', 00H		; `string'
CONST	ENDS
;	COMDAT ??_C@_04PKHKLFPJ@PREV?$AA@
CONST	SEGMENT
??_C@_04PKHKLFPJ@PREV?$AA@ DB 'PREV', 00H		; `string'
CONST	ENDS
;	COMDAT ??_C@_04MOKMKBJN@NEXT?$AA@
CONST	SEGMENT
??_C@_04MOKMKBJN@NEXT?$AA@ DB 'NEXT', 00H		; `string'
CONST	ENDS
;	COMDAT ??_C@_08EOJLPPDK@UISTR_NO?$AA@
CONST	SEGMENT
??_C@_08EOJLPPDK@UISTR_NO?$AA@ DB 'UISTR_NO', 00H	; `string'
CONST	ENDS
;	COMDAT ??_C@_09JHINKGCK@UISTR_YES?$AA@
CONST	SEGMENT
??_C@_09JHINKGCK@UISTR_YES?$AA@ DB 'UISTR_YES', 00H	; `string'
; Function compile flags: /Ogtpy
CONST	ENDS
;	COMDAT ?Init2RadButtonPageYesNo@@YAXH@Z
_TEXT	SEGMENT
?Init2RadButtonPageYesNo@@YAXH@Z PROC			; Init2RadButtonPageYesNo, COMDAT
; _answer$ = eax

; 1415 : {

  00000	53		 push	 ebx
  00001	56		 push	 esi
  00002	57		 push	 edi

; 1416 : 	SetWindowTextW (GetDlgItem (hCurPage, IDC_CHOICE1), GetString ("UISTR_YES"));

  00003	68 00 00 00 00	 push	 OFFSET ??_C@_09JHINKGCK@UISTR_YES?$AA@
  00008	8b f0		 mov	 esi, eax
  0000a	e8 00 00 00 00	 call	 _GetString
  0000f	8b 3d 00 00 00
	00		 mov	 edi, DWORD PTR __imp__GetDlgItem@8
  00015	83 c4 04	 add	 esp, 4
  00018	50		 push	 eax
  00019	a1 00 00 00 00	 mov	 eax, DWORD PTR _hCurPage
  0001e	68 dd 13 00 00	 push	 5085			; 000013ddH
  00023	50		 push	 eax
  00024	ff d7		 call	 edi
  00026	8b 1d 00 00 00
	00		 mov	 ebx, DWORD PTR __imp__SetWindowTextW@8
  0002c	50		 push	 eax
  0002d	ff d3		 call	 ebx

; 1417 : 	SetWindowTextW (GetDlgItem (hCurPage, IDC_CHOICE2), GetString ("UISTR_NO"));

  0002f	68 00 00 00 00	 push	 OFFSET ??_C@_08EOJLPPDK@UISTR_NO?$AA@
  00034	e8 00 00 00 00	 call	 _GetString
  00039	8b 0d 00 00 00
	00		 mov	 ecx, DWORD PTR _hCurPage
  0003f	83 c4 04	 add	 esp, 4
  00042	50		 push	 eax
  00043	68 df 13 00 00	 push	 5087			; 000013dfH
  00048	51		 push	 ecx
  00049	ff d7		 call	 edi
  0004b	50		 push	 eax
  0004c	ff d3		 call	 ebx

; 1418 : 
; 1419 : 	SetWindowTextW (GetDlgItem (MainDlg, IDC_NEXT), GetString ("NEXT"));

  0004e	68 00 00 00 00	 push	 OFFSET ??_C@_04MOKMKBJN@NEXT?$AA@
  00053	e8 00 00 00 00	 call	 _GetString
  00058	8b 15 00 00 00
	00		 mov	 edx, DWORD PTR _MainDlg
  0005e	83 c4 04	 add	 esp, 4
  00061	50		 push	 eax
  00062	68 10 04 00 00	 push	 1040			; 00000410H
  00067	52		 push	 edx
  00068	ff d7		 call	 edi
  0006a	50		 push	 eax
  0006b	ff d3		 call	 ebx

; 1420 : 	SetWindowTextW (GetDlgItem (MainDlg, IDC_PREV), GetString ("PREV"));

  0006d	68 00 00 00 00	 push	 OFFSET ??_C@_04PKHKLFPJ@PREV?$AA@
  00072	e8 00 00 00 00	 call	 _GetString
  00077	83 c4 04	 add	 esp, 4
  0007a	50		 push	 eax
  0007b	a1 00 00 00 00	 mov	 eax, DWORD PTR _MainDlg
  00080	68 11 04 00 00	 push	 1041			; 00000411H
  00085	50		 push	 eax
  00086	ff d7		 call	 edi
  00088	50		 push	 eax
  00089	ff d3		 call	 ebx

; 1421 : 	SetWindowTextW (GetDlgItem (MainDlg, IDCANCEL), GetString ("CANCEL"));

  0008b	68 00 00 00 00	 push	 OFFSET ??_C@_06JHILMIHF@CANCEL?$AA@
  00090	e8 00 00 00 00	 call	 _GetString
  00095	8b 0d 00 00 00
	00		 mov	 ecx, DWORD PTR _MainDlg
  0009b	83 c4 04	 add	 esp, 4
  0009e	50		 push	 eax
  0009f	6a 02		 push	 2
  000a1	51		 push	 ecx
  000a2	ff d7		 call	 edi
  000a4	50		 push	 eax
  000a5	ff d3		 call	 ebx

; 1422 : 
; 1423 : 	EnableWindow (GetDlgItem (MainDlg, IDC_NEXT), answer >= 0);

  000a7	a1 00 00 00 00	 mov	 eax, DWORD PTR _MainDlg
  000ac	33 d2		 xor	 edx, edx
  000ae	85 f6		 test	 esi, esi
  000b0	0f 9d c2	 setge	 dl
  000b3	52		 push	 edx
  000b4	68 10 04 00 00	 push	 1040			; 00000410H
  000b9	50		 push	 eax
  000ba	ff d7		 call	 edi
  000bc	8b 1d 00 00 00
	00		 mov	 ebx, DWORD PTR __imp__EnableWindow@8
  000c2	50		 push	 eax
  000c3	ff d3		 call	 ebx

; 1424 : 	EnableWindow (GetDlgItem (MainDlg, IDC_PREV), TRUE);

  000c5	8b 0d 00 00 00
	00		 mov	 ecx, DWORD PTR _MainDlg
  000cb	6a 01		 push	 1
  000cd	68 11 04 00 00	 push	 1041			; 00000411H
  000d2	51		 push	 ecx
  000d3	ff d7		 call	 edi
  000d5	50		 push	 eax
  000d6	ff d3		 call	 ebx

; 1425 : 
; 1426 : 	Update2RadButtonPage (answer);

  000d8	e8 00 00 00 00	 call	 ?Update2RadButtonPage@@YAXH@Z ; Update2RadButtonPage
  000dd	5f		 pop	 edi
  000de	5e		 pop	 esi
  000df	5b		 pop	 ebx

; 1427 : }

  000e0	c3		 ret	 0
?Init2RadButtonPageYesNo@@YAXH@Z ENDP			; Init2RadButtonPageYesNo
_TEXT	ENDS
PUBLIC	??_C@_13HOIJIPNN@?$AA?5?$AA?$AA@		; `string'
PUBLIC	??_C@_0BL@PONBLMNB@PROGRESS_STATUS_ENCRYPTING?$AA@ ; `string'
PUBLIC	??_C@_0BL@MHLPJIOG@PROGRESS_STATUS_DECRYPTING?$AA@ ; `string'
PUBLIC	??_C@_0BI@FJOOBAJA@PROGRESS_STATUS_WAITING?$AA@	; `string'
PUBLIC	__$ArrayPad$
EXTRN	_UpdateProgressBarProc:PROC
;	COMDAT ??_C@_13HOIJIPNN@?$AA?5?$AA?$AA@
CONST	SEGMENT
??_C@_13HOIJIPNN@?$AA?5?$AA?$AA@ DB ' ', 00H, 00H, 00H	; `string'
CONST	ENDS
;	COMDAT ??_C@_0BL@PONBLMNB@PROGRESS_STATUS_ENCRYPTING?$AA@
CONST	SEGMENT
??_C@_0BL@PONBLMNB@PROGRESS_STATUS_ENCRYPTING?$AA@ DB 'PROGRESS_STATUS_EN'
	DB	'CRYPTING', 00H				; `string'
CONST	ENDS
;	COMDAT ??_C@_0BL@MHLPJIOG@PROGRESS_STATUS_DECRYPTING?$AA@
CONST	SEGMENT
??_C@_0BL@MHLPJIOG@PROGRESS_STATUS_DECRYPTING?$AA@ DB 'PROGRESS_STATUS_DE'
	DB	'CRYPTING', 00H				; `string'
CONST	ENDS
;	COMDAT ??_C@_0BI@FJOOBAJA@PROGRESS_STATUS_WAITING?$AA@
CONST	SEGMENT
??_C@_0BI@FJOOBAJA@PROGRESS_STATUS_WAITING?$AA@ DB 'PROGRESS_STATUS_WAITI'
	DB	'NG', 00H					; `string'
CONST	ENDS
;	COMDAT xdata$x
xdata$x	SEGMENT
__catchsym$?UpdateSysEncProgressBar@@YAXXZ$2 DD 040H
	DD	00H
	DD	00H
	DD	FLAT:__catch$?UpdateSysEncProgressBar@@YAXXZ$0
__unwindtable$?UpdateSysEncProgressBar@@YAXXZ DD 0ffffffffH
	DD	00H
	DD	0ffffffffH
	DD	00H
__tryblocktable$?UpdateSysEncProgressBar@@YAXXZ DD 00H
	DD	00H
	DD	01H
	DD	01H
	DD	FLAT:__catchsym$?UpdateSysEncProgressBar@@YAXXZ$2
__ehfuncinfo$?UpdateSysEncProgressBar@@YAXXZ DD 019930522H
	DD	02H
	DD	FLAT:__unwindtable$?UpdateSysEncProgressBar@@YAXXZ
	DD	01H
	DD	FLAT:__tryblocktable$?UpdateSysEncProgressBar@@YAXXZ
	DD	2 DUP(00H)
	DD	00H
	DD	01H
; Function compile flags: /Ogtpy
xdata$x	ENDS
;	COMDAT ?UpdateSysEncProgressBar@@YAXXZ
_TEXT	SEGMENT
$T141270 = -206						; size = 94
_locBootEncStatus$ = -112				; size = 94
__$EHRec$ = -16						; size = 16
_tmpStr$132138 = 0					; size = 200
__$ArrayPad$ = 200					; size = 4
?UpdateSysEncProgressBar@@YAXXZ PROC			; UpdateSysEncProgressBar, COMDAT

; 1430 : {

  00000	55		 push	 ebp
  00001	8d ac 24 34 ff
	ff ff		 lea	 ebp, DWORD PTR [esp-204]
  00008	81 ec cc 00 00
	00		 sub	 esp, 204		; 000000ccH
  0000e	6a ff		 push	 -1
  00010	68 00 00 00 00	 push	 __ehhandler$?UpdateSysEncProgressBar@@YAXXZ
  00015	64 a1 00 00 00
	00		 mov	 eax, DWORD PTR fs:0
  0001b	50		 push	 eax
  0001c	81 ec c4 00 00
	00		 sub	 esp, 196		; 000000c4H
  00022	a1 00 00 00 00	 mov	 eax, DWORD PTR ___security_cookie
  00027	33 c5		 xor	 eax, ebp
  00029	89 85 c8 00 00
	00		 mov	 DWORD PTR __$ArrayPad$[ebp], eax
  0002f	53		 push	 ebx
  00030	56		 push	 esi
  00031	57		 push	 edi
  00032	50		 push	 eax
  00033	8d 45 f4	 lea	 eax, DWORD PTR __$EHRec$[ebp+4]
  00036	64 a3 00 00 00
	00		 mov	 DWORD PTR fs:0, eax
  0003c	89 65 f0	 mov	 DWORD PTR __$EHRec$[ebp], esp

; 1431 : 	BootEncryptionStatus locBootEncStatus;
; 1432 : 
; 1433 : 	try
; 1434 : 	{
; 1435 : 		locBootEncStatus = BootEncObj->GetStatus();

  0003f	8b 0d 00 00 00
	00		 mov	 ecx, DWORD PTR ?BootEncObj@@3PAVBootEncryption@CipherShed@@A ; BootEncObj
  00045	8d 85 32 ff ff
	ff		 lea	 eax, DWORD PTR $T141270[ebp]
  0004b	50		 push	 eax
  0004c	c7 45 fc 00 00
	00 00		 mov	 DWORD PTR __$EHRec$[ebp+12], 0
  00053	e8 00 00 00 00	 call	 ?GetStatus@BootEncryption@CipherShed@@QAE?AUBootEncryptionStatus@@XZ ; CipherShed::BootEncryption::GetStatus
  00058	8b f0		 mov	 esi, eax
  0005a	b9 17 00 00 00	 mov	 ecx, 23			; 00000017H
  0005f	8d 7d 90	 lea	 edi, DWORD PTR _locBootEncStatus$[ebp]
  00062	f3 a5		 rep movsd
  00064	66 a5		 movsw

; 1440 : 	}
; 1441 : 
; 1442 : 	if (locBootEncStatus.EncryptedAreaEnd == -1 
; 1443 : 		|| locBootEncStatus.EncryptedAreaStart == -1)

  00066	8b 45 c2	 mov	 eax, DWORD PTR _locBootEncStatus$[ebp+50]
  00069	8b 4d c6	 mov	 ecx, DWORD PTR _locBootEncStatus$[ebp+54]
  0006c	8b d0		 mov	 edx, eax
  0006e	23 d1		 and	 edx, ecx
  00070	83 fa ff	 cmp	 edx, -1
  00073	0f 84 ec 00 00
	00		 je	 $LN5@UpdateSysE
  00079	8b 55 ba	 mov	 edx, DWORD PTR _locBootEncStatus$[ebp+42]
  0007c	8b 75 be	 mov	 esi, DWORD PTR _locBootEncStatus$[ebp+46]
  0007f	8b fa		 mov	 edi, edx
  00081	23 fe		 and	 edi, esi
  00083	83 ff ff	 cmp	 edi, -1
  00086	0f 84 d9 00 00
	00		 je	 $LN5@UpdateSysE

; 1448 : 	{
; 1449 : 		UpdateProgressBarProc (locBootEncStatus.EncryptedAreaEnd - locBootEncStatus.EncryptedAreaStart + 1);

  0008c	2b c2		 sub	 eax, edx
  0008e	1b ce		 sbb	 ecx, esi
  00090	83 c0 01	 add	 eax, 1
  00093	83 d1 00	 adc	 ecx, 0
  00096	51		 push	 ecx
  00097	50		 push	 eax
  00098	e8 00 00 00 00	 call	 _UpdateProgressBarProc
  0009d	83 c4 08	 add	 esp, 8

; 1450 : 
; 1451 : 		if (locBootEncStatus.SetupInProgress)

  000a0	83 7d ce 00	 cmp	 DWORD PTR _locBootEncStatus$[ebp+62], 0
  000a4	0f 84 96 00 00
	00		 je	 $LN17@UpdateSysE

; 1452 : 		{
; 1453 : 			wchar_t tmpStr[100];
; 1454 : 
; 1455 : 			// Status
; 1456 : 
; 1457 : 			if (locBootEncStatus.TransformWaitingForIdle)

  000aa	83 7d d6 00	 cmp	 DWORD PTR _locBootEncStatus$[ebp+70], 0
  000ae	74 23		 je	 SHORT $LN2@UpdateSysE

; 1458 : 				wcscpy (tmpStr, GetString ("PROGRESS_STATUS_WAITING"));

  000b0	68 00 00 00 00	 push	 OFFSET ??_C@_0BI@FJOOBAJA@PROGRESS_STATUS_WAITING?$AA@
  000b5	e8 00 00 00 00	 call	 _GetString
  000ba	83 c4 04	 add	 esp, 4
  000bd	8d 55 00	 lea	 edx, DWORD PTR _tmpStr$132138[ebp]
$LL10@UpdateSysE:
  000c0	0f b7 08	 movzx	 ecx, WORD PTR [eax]
  000c3	66 89 0a	 mov	 WORD PTR [edx], cx
  000c6	83 c0 02	 add	 eax, 2
  000c9	83 c2 02	 add	 edx, 2
  000cc	66 85 c9	 test	 cx, cx
  000cf	75 ef		 jne	 SHORT $LL10@UpdateSysE

; 1459 : 			else

  000d1	eb 33		 jmp	 SHORT $LN1@UpdateSysE
$LN2@UpdateSysE:

; 1460 : 				wcscpy (tmpStr, GetString (SystemEncryptionStatus == SYSENC_STATUS_DECRYPTING ? "PROGRESS_STATUS_DECRYPTING" : "PROGRESS_STATUS_ENCRYPTING"));

  000d3	81 3d 00 00 00
	00 58 02 00 00	 cmp	 DWORD PTR _SystemEncryptionStatus, 600 ; 00000258H
  000dd	b8 00 00 00 00	 mov	 eax, OFFSET ??_C@_0BL@MHLPJIOG@PROGRESS_STATUS_DECRYPTING?$AA@
  000e2	74 05		 je	 SHORT $LN12@UpdateSysE
  000e4	b8 00 00 00 00	 mov	 eax, OFFSET ??_C@_0BL@PONBLMNB@PROGRESS_STATUS_ENCRYPTING?$AA@
$LN12@UpdateSysE:
  000e9	50		 push	 eax
  000ea	e8 00 00 00 00	 call	 _GetString
  000ef	83 c4 04	 add	 esp, 4
  000f2	8d 55 00	 lea	 edx, DWORD PTR _tmpStr$132138[ebp]
$LL13@UpdateSysE:
  000f5	0f b7 08	 movzx	 ecx, WORD PTR [eax]
  000f8	66 89 0a	 mov	 WORD PTR [edx], cx
  000fb	83 c0 02	 add	 eax, 2
  000fe	83 c2 02	 add	 edx, 2
  00101	66 85 c9	 test	 cx, cx
  00104	75 ef		 jne	 SHORT $LL13@UpdateSysE
$LN1@UpdateSysE:

; 1461 : 
; 1462 : 			wcscat (tmpStr, L" ");

  00106	8d 7d 00	 lea	 edi, DWORD PTR _tmpStr$132138[ebp]
  00109	83 c7 fe	 add	 edi, -2			; fffffffeH
  0010c	8d 64 24 00	 npad	 4
$LL21@UpdateSysE:
  00110	66 8b 47 02	 mov	 ax, WORD PTR [edi+2]
  00114	83 c7 02	 add	 edi, 2
  00117	66 85 c0	 test	 ax, ax
  0011a	75 f4		 jne	 SHORT $LL21@UpdateSysE

; 1463 : 
; 1464 : 			SetWindowTextW (GetDlgItem (hCurPage, IDC_WRITESPEED), tmpStr);

  0011c	8b 15 00 00 00
	00		 mov	 edx, DWORD PTR _hCurPage
  00122	a1 00 00 00 00	 mov	 eax, DWORD PTR ??_C@_13HOIJIPNN@?$AA?5?$AA?$AA@
  00127	8d 4d 00	 lea	 ecx, DWORD PTR _tmpStr$132138[ebp]
  0012a	51		 push	 ecx
  0012b	68 01 04 00 00	 push	 1025			; 00000401H
  00130	52		 push	 edx
  00131	89 07		 mov	 DWORD PTR [edi], eax
  00133	ff 15 00 00 00
	00		 call	 DWORD PTR __imp__GetDlgItem@8
  00139	50		 push	 eax
  0013a	ff 15 00 00 00
	00		 call	 DWORD PTR __imp__SetWindowTextW@8
$LN17@UpdateSysE:

; 1465 : 		}
; 1466 : 	}
; 1467 : }

  00140	8b 4d f4	 mov	 ecx, DWORD PTR __$EHRec$[ebp+4]
  00143	64 89 0d 00 00
	00 00		 mov	 DWORD PTR fs:0, ecx
  0014a	59		 pop	 ecx
  0014b	5f		 pop	 edi
  0014c	5e		 pop	 esi
  0014d	5b		 pop	 ebx
  0014e	8b 8d c8 00 00
	00		 mov	 ecx, DWORD PTR __$ArrayPad$[ebp]
  00154	33 cd		 xor	 ecx, ebp
  00156	e8 00 00 00 00	 call	 @__security_check_cookie@4
  0015b	81 c5 cc 00 00
	00		 add	 ebp, 204		; 000000ccH
  00161	8b e5		 mov	 esp, ebp
  00163	5d		 pop	 ebp
  00164	c3		 ret	 0
$LN5@UpdateSysE:

; 1444 : 	{
; 1445 : 		UpdateProgressBarProc (0);

  00165	6a 00		 push	 0
  00167	6a 00		 push	 0
  00169	e8 00 00 00 00	 call	 _UpdateProgressBarProc
  0016e	83 c4 08	 add	 esp, 8

; 1446 : 	}
; 1447 : 	else

  00171	eb cd		 jmp	 SHORT $LN17@UpdateSysE
__catch$?UpdateSysEncProgressBar@@YAXXZ$0:

; 1436 : 	}
; 1437 : 	catch (...)
; 1438 : 	{
; 1439 : 		return;

  00173	b8 00 00 00 00	 mov	 eax, $LN17@UpdateSysE
  00178	c3		 ret	 0
_TEXT	ENDS
;	COMDAT text$x
text$x	SEGMENT
__ehhandler$?UpdateSysEncProgressBar@@YAXXZ:
  00000	8b 54 24 08	 mov	 edx, DWORD PTR [esp+8]
  00004	8d 42 0c	 lea	 eax, DWORD PTR [edx+12]
  00007	8b 8a 2c ff ff
	ff		 mov	 ecx, DWORD PTR [edx-212]
  0000d	33 c8		 xor	 ecx, eax
  0000f	e8 00 00 00 00	 call	 @__security_check_cookie@4
  00014	8b 8a d4 00 00
	00		 mov	 ecx, DWORD PTR [edx+212]
  0001a	33 c8		 xor	 ecx, eax
  0001c	e8 00 00 00 00	 call	 @__security_check_cookie@4
  00021	b8 00 00 00 00	 mov	 eax, OFFSET __ehfuncinfo$?UpdateSysEncProgressBar@@YAXXZ
  00026	e9 00 00 00 00	 jmp	 ___CxxFrameHandler3
text$x	ENDS
?UpdateSysEncProgressBar@@YAXXZ ENDP			; UpdateSysEncProgressBar
EXTRN	_InitProgressBar:PROC
;	COMDAT xdata$x
xdata$x	SEGMENT
__catchsym$_InitSysEncProgressBar$2 DD 040H
	DD	00H
	DD	00H
	DD	FLAT:__catch$_InitSysEncProgressBar$0
__unwindtable$_InitSysEncProgressBar DD 0ffffffffH
	DD	00H
	DD	0ffffffffH
	DD	00H
__tryblocktable$_InitSysEncProgressBar DD 00H
	DD	00H
	DD	01H
	DD	01H
	DD	FLAT:__catchsym$_InitSysEncProgressBar$2
__ehfuncinfo$_InitSysEncProgressBar DD 019930522H
	DD	02H
	DD	FLAT:__unwindtable$_InitSysEncProgressBar
	DD	01H
	DD	FLAT:__tryblocktable$_InitSysEncProgressBar
	DD	2 DUP(00H)
	DD	00H
	DD	01H
; Function compile flags: /Ogtpy
xdata$x	ENDS
;	COMDAT _InitSysEncProgressBar
_TEXT	SEGMENT
$T141293 = -206						; size = 94
_locBootEncStatus$ = -112				; size = 94
__$EHRec$ = -16						; size = 16
_InitSysEncProgressBar PROC				; COMDAT

; 1470 : {

  00000	55		 push	 ebp
  00001	8b ec		 mov	 ebp, esp
  00003	6a ff		 push	 -1
  00005	68 00 00 00 00	 push	 __ehhandler$_InitSysEncProgressBar
  0000a	64 a1 00 00 00
	00		 mov	 eax, DWORD PTR fs:0
  00010	50		 push	 eax
  00011	81 ec c4 00 00
	00		 sub	 esp, 196		; 000000c4H
  00017	53		 push	 ebx
  00018	56		 push	 esi
  00019	57		 push	 edi
  0001a	a1 00 00 00 00	 mov	 eax, DWORD PTR ___security_cookie
  0001f	33 c5		 xor	 eax, ebp
  00021	50		 push	 eax
  00022	8d 45 f4	 lea	 eax, DWORD PTR __$EHRec$[ebp+4]
  00025	64 a3 00 00 00
	00		 mov	 DWORD PTR fs:0, eax
  0002b	89 65 f0	 mov	 DWORD PTR __$EHRec$[ebp], esp

; 1471 : 	BootEncryptionStatus locBootEncStatus;
; 1472 : 
; 1473 : 	try
; 1474 : 	{
; 1475 : 		locBootEncStatus = BootEncObj->GetStatus();

  0002e	8b 0d 00 00 00
	00		 mov	 ecx, DWORD PTR ?BootEncObj@@3PAVBootEncryption@CipherShed@@A ; BootEncObj
  00034	8d 85 32 ff ff
	ff		 lea	 eax, DWORD PTR $T141293[ebp]
  0003a	50		 push	 eax
  0003b	c7 45 fc 00 00
	00 00		 mov	 DWORD PTR __$EHRec$[ebp+12], 0
  00042	e8 00 00 00 00	 call	 ?GetStatus@BootEncryption@CipherShed@@QAE?AUBootEncryptionStatus@@XZ ; CipherShed::BootEncryption::GetStatus
  00047	b9 17 00 00 00	 mov	 ecx, 23			; 00000017H
  0004c	8b f0		 mov	 esi, eax
  0004e	8d 7d 90	 lea	 edi, DWORD PTR _locBootEncStatus$[ebp]
  00051	f3 a5		 rep movsd
  00053	66 a5		 movsw

; 1480 : 	}
; 1481 : 
; 1482 : 	if (locBootEncStatus.ConfiguredEncryptedAreaEnd == -1 
; 1483 : 		|| locBootEncStatus.ConfiguredEncryptedAreaStart == -1)

  00055	8b 55 b2	 mov	 edx, DWORD PTR _locBootEncStatus$[ebp+34]
  00058	8b 75 b6	 mov	 esi, DWORD PTR _locBootEncStatus$[ebp+38]
  0005b	8b ca		 mov	 ecx, edx
  0005d	23 ce		 and	 ecx, esi
  0005f	83 f9 ff	 cmp	 ecx, -1
  00062	74 67		 je	 SHORT $LN11@InitSysEnc
  00064	8b 45 aa	 mov	 eax, DWORD PTR _locBootEncStatus$[ebp+26]
  00067	23 45 ae	 and	 eax, DWORD PTR _locBootEncStatus$[ebp+30]
  0006a	83 f8 ff	 cmp	 eax, -1
  0006d	74 5c		 je	 SHORT $LN11@InitSysEnc

; 1484 : 		return;
; 1485 : 
; 1486 : 	InitProgressBar (locBootEncStatus.ConfiguredEncryptedAreaEnd 
; 1487 : 		- locBootEncStatus.ConfiguredEncryptedAreaStart + 1,
; 1488 : 		(locBootEncStatus.EncryptedAreaEnd == locBootEncStatus.EncryptedAreaStart || locBootEncStatus.EncryptedAreaEnd == -1) ?
; 1489 : 		0 :	locBootEncStatus.EncryptedAreaEnd - locBootEncStatus.EncryptedAreaStart + 1,
; 1490 : 		SystemEncryptionStatus == SYSENC_STATUS_DECRYPTING,
; 1491 : 		TRUE,
; 1492 : 		TRUE,
; 1493 : 		TRUE);

  0006f	8b 4d c2	 mov	 ecx, DWORD PTR _locBootEncStatus$[ebp+50]
  00072	8b 7d ba	 mov	 edi, DWORD PTR _locBootEncStatus$[ebp+42]
  00075	8b 45 c6	 mov	 eax, DWORD PTR _locBootEncStatus$[ebp+54]
  00078	3b cf		 cmp	 ecx, edi
  0007a	75 05		 jne	 SHORT $LN13@InitSysEnc
  0007c	3b 45 be	 cmp	 eax, DWORD PTR _locBootEncStatus$[ebp+46]
  0007f	74 18		 je	 SHORT $LN6@InitSysEnc
$LN13@InitSysEnc:
  00081	8b d9		 mov	 ebx, ecx
  00083	23 d8		 and	 ebx, eax
  00085	83 fb ff	 cmp	 ebx, -1
  00088	74 0f		 je	 SHORT $LN6@InitSysEnc
  0008a	2b cf		 sub	 ecx, edi
  0008c	1b 45 be	 sbb	 eax, DWORD PTR _locBootEncStatus$[ebp+46]
  0008f	83 c1 01	 add	 ecx, 1
  00092	83 d0 00	 adc	 eax, 0
  00095	8b f8		 mov	 edi, eax
  00097	eb 04		 jmp	 SHORT $LN7@InitSysEnc
$LN6@InitSysEnc:
  00099	33 c9		 xor	 ecx, ecx
  0009b	33 ff		 xor	 edi, edi
$LN7@InitSysEnc:
  0009d	33 c0		 xor	 eax, eax
  0009f	81 3d 00 00 00
	00 58 02 00 00	 cmp	 DWORD PTR _SystemEncryptionStatus, 600 ; 00000258H
  000a9	6a 01		 push	 1
  000ab	0f 94 c0	 sete	 al
  000ae	2b 55 aa	 sub	 edx, DWORD PTR _locBootEncStatus$[ebp+26]
  000b1	6a 01		 push	 1
  000b3	1b 75 ae	 sbb	 esi, DWORD PTR _locBootEncStatus$[ebp+30]
  000b6	6a 01		 push	 1
  000b8	83 c2 01	 add	 edx, 1
  000bb	83 d6 00	 adc	 esi, 0
  000be	50		 push	 eax
  000bf	57		 push	 edi
  000c0	51		 push	 ecx
  000c1	56		 push	 esi
  000c2	52		 push	 edx
  000c3	e8 00 00 00 00	 call	 _InitProgressBar
  000c8	83 c4 20	 add	 esp, 32			; 00000020H
$LN11@InitSysEnc:

; 1494 : }

  000cb	8b 4d f4	 mov	 ecx, DWORD PTR __$EHRec$[ebp+4]
  000ce	64 89 0d 00 00
	00 00		 mov	 DWORD PTR fs:0, ecx
  000d5	59		 pop	 ecx
  000d6	5f		 pop	 edi
  000d7	5e		 pop	 esi
  000d8	5b		 pop	 ebx
  000d9	8b e5		 mov	 esp, ebp
  000db	5d		 pop	 ebp
  000dc	c3		 ret	 0
__catch$_InitSysEncProgressBar$0:

; 1476 : 	}
; 1477 : 	catch (...)
; 1478 : 	{
; 1479 : 		return;

  000dd	b8 00 00 00 00	 mov	 eax, $LN11@InitSysEnc
  000e2	c3		 ret	 0
_TEXT	ENDS
;	COMDAT text$x
text$x	SEGMENT
__ehhandler$_InitSysEncProgressBar:
  00000	8b 54 24 08	 mov	 edx, DWORD PTR [esp+8]
  00004	8d 42 0c	 lea	 eax, DWORD PTR [edx+12]
  00007	8b 8a 2c ff ff
	ff		 mov	 ecx, DWORD PTR [edx-212]
  0000d	33 c8		 xor	 ecx, eax
  0000f	e8 00 00 00 00	 call	 @__security_check_cookie@4
  00014	b8 00 00 00 00	 mov	 eax, OFFSET __ehfuncinfo$_InitSysEncProgressBar
  00019	e9 00 00 00 00	 jmp	 ___CxxFrameHandler3
text$x	ENDS
_InitSysEncProgressBar ENDP
PUBLIC	??_C@_01CLKCMJKC@?5?$AA@			; `string'
PUBLIC	??_C@_0BO@DMHMPBKC@PROCESSED_PORTION_100_PERCENT?$AA@ ; `string'
PUBLIC	??_C@_0BJ@HKENJBII@PROGRESS_STATUS_FINISHED?$AA@ ; `string'
PUBLIC	??_C@_0BH@LLAADOBF@PROGRESS_STATUS_PAUSED?$AA@	; `string'
PUBLIC	??_C@_06PPGAKMJI@RESUME?$AA@			; `string'
PUBLIC	??_C@_09PJBBBIIP@IDC_PAUSE?$AA@			; `string'
PUBLIC	__$ArrayPad$
;	COMDAT ??_C@_01CLKCMJKC@?5?$AA@
CONST	SEGMENT
??_C@_01CLKCMJKC@?5?$AA@ DB ' ', 00H			; `string'
CONST	ENDS
;	COMDAT ??_C@_0BO@DMHMPBKC@PROCESSED_PORTION_100_PERCENT?$AA@
CONST	SEGMENT
??_C@_0BO@DMHMPBKC@PROCESSED_PORTION_100_PERCENT?$AA@ DB 'PROCESSED_PORTI'
	DB	'ON_100_PERCENT', 00H			; `string'
CONST	ENDS
;	COMDAT ??_C@_0BJ@HKENJBII@PROGRESS_STATUS_FINISHED?$AA@
CONST	SEGMENT
??_C@_0BJ@HKENJBII@PROGRESS_STATUS_FINISHED?$AA@ DB 'PROGRESS_STATUS_FINI'
	DB	'SHED', 00H					; `string'
CONST	ENDS
;	COMDAT ??_C@_0BH@LLAADOBF@PROGRESS_STATUS_PAUSED?$AA@
CONST	SEGMENT
??_C@_0BH@LLAADOBF@PROGRESS_STATUS_PAUSED?$AA@ DB 'PROGRESS_STATUS_PAUSED'
	DB	00H						; `string'
CONST	ENDS
;	COMDAT ??_C@_06PPGAKMJI@RESUME?$AA@
CONST	SEGMENT
??_C@_06PPGAKMJI@RESUME?$AA@ DB 'RESUME', 00H		; `string'
CONST	ENDS
;	COMDAT ??_C@_09PJBBBIIP@IDC_PAUSE?$AA@
CONST	SEGMENT
??_C@_09PJBBBIIP@IDC_PAUSE?$AA@ DB 'IDC_PAUSE', 00H	; `string'
CONST	ENDS
;	COMDAT xdata$x
xdata$x	SEGMENT
__catchsym$?UpdateSysEncControls@@YAXXZ$2 DD 040H
	DD	00H
	DD	00H
	DD	FLAT:__catch$?UpdateSysEncControls@@YAXXZ$0
__unwindtable$?UpdateSysEncControls@@YAXXZ DD 0ffffffffH
	DD	00H
	DD	0ffffffffH
	DD	00H
__tryblocktable$?UpdateSysEncControls@@YAXXZ DD 00H
	DD	00H
	DD	01H
	DD	01H
	DD	FLAT:__catchsym$?UpdateSysEncControls@@YAXXZ$2
__ehfuncinfo$?UpdateSysEncControls@@YAXXZ DD 019930522H
	DD	02H
	DD	FLAT:__unwindtable$?UpdateSysEncControls@@YAXXZ
	DD	01H
	DD	FLAT:__tryblocktable$?UpdateSysEncControls@@YAXXZ
	DD	2 DUP(00H)
	DD	00H
	DD	01H
; Function compile flags: /Ogtpy
xdata$x	ENDS
;	COMDAT ?UpdateSysEncControls@@YAXXZ
_TEXT	SEGMENT
$T141314 = -206						; size = 94
_locBootEncStatus$ = -112				; size = 94
__$EHRec$ = -16						; size = 16
_tmpStr$132162 = 0					; size = 200
__$ArrayPad$ = 200					; size = 4
?UpdateSysEncControls@@YAXXZ PROC			; UpdateSysEncControls, COMDAT

; 1497 : {

  00000	55		 push	 ebp
  00001	8d ac 24 34 ff
	ff ff		 lea	 ebp, DWORD PTR [esp-204]
  00008	81 ec cc 00 00
	00		 sub	 esp, 204		; 000000ccH
  0000e	6a ff		 push	 -1
  00010	68 00 00 00 00	 push	 __ehhandler$?UpdateSysEncControls@@YAXXZ
  00015	64 a1 00 00 00
	00		 mov	 eax, DWORD PTR fs:0
  0001b	50		 push	 eax
  0001c	81 ec c4 00 00
	00		 sub	 esp, 196		; 000000c4H
  00022	a1 00 00 00 00	 mov	 eax, DWORD PTR ___security_cookie
  00027	33 c5		 xor	 eax, ebp
  00029	89 85 c8 00 00
	00		 mov	 DWORD PTR __$ArrayPad$[ebp], eax
  0002f	53		 push	 ebx
  00030	56		 push	 esi
  00031	57		 push	 edi
  00032	50		 push	 eax
  00033	8d 45 f4	 lea	 eax, DWORD PTR __$EHRec$[ebp+4]
  00036	64 a3 00 00 00
	00		 mov	 DWORD PTR fs:0, eax
  0003c	89 65 f0	 mov	 DWORD PTR __$EHRec$[ebp], esp

; 1498 : 	BootEncryptionStatus locBootEncStatus;
; 1499 : 
; 1500 : 	try
; 1501 : 	{
; 1502 : 		locBootEncStatus = BootEncObj->GetStatus();

  0003f	8b 0d 00 00 00
	00		 mov	 ecx, DWORD PTR ?BootEncObj@@3PAVBootEncryption@CipherShed@@A ; BootEncObj
  00045	8d 85 32 ff ff
	ff		 lea	 eax, DWORD PTR $T141314[ebp]
  0004b	50		 push	 eax
  0004c	c7 45 fc 00 00
	00 00		 mov	 DWORD PTR __$EHRec$[ebp+12], 0
  00053	e8 00 00 00 00	 call	 ?GetStatus@BootEncryption@CipherShed@@QAE?AUBootEncryptionStatus@@XZ ; CipherShed::BootEncryption::GetStatus
  00058	b9 17 00 00 00	 mov	 ecx, 23			; 00000017H
  0005d	8b f0		 mov	 esi, eax
  0005f	8d 7d 90	 lea	 edi, DWORD PTR _locBootEncStatus$[ebp]
  00062	f3 a5		 rep movsd
  00064	66 a5		 movsw

; 1507 : 	}
; 1508 : 
; 1509 : 	EnableWindow (GetDlgItem (hCurPage, IDC_WIPE_MODE), 
; 1510 : 		!locBootEncStatus.SetupInProgress 
; 1511 : 		&& SystemEncryptionStatus == SYSENC_STATUS_ENCRYPTING);

  00066	8b 75 ce	 mov	 esi, DWORD PTR _locBootEncStatus$[ebp+62]
  00069	c7 45 fc ff ff
	ff ff		 mov	 DWORD PTR __$EHRec$[ebp+12], -1
  00070	85 f6		 test	 esi, esi
  00072	75 11		 jne	 SHORT $LN7@UpdateSysE@2
  00074	81 3d 00 00 00
	00 90 01 00 00	 cmp	 DWORD PTR _SystemEncryptionStatus, 400 ; 00000190H
  0007e	75 05		 jne	 SHORT $LN7@UpdateSysE@2
  00080	8d 46 01	 lea	 eax, DWORD PTR [esi+1]
  00083	eb 02		 jmp	 SHORT $LN8@UpdateSysE@2
$LN7@UpdateSysE@2:
  00085	33 c0		 xor	 eax, eax
$LN8@UpdateSysE@2:
  00087	8b 0d 00 00 00
	00		 mov	 ecx, DWORD PTR _hCurPage
  0008d	8b 1d 00 00 00
	00		 mov	 ebx, DWORD PTR __imp__GetDlgItem@8
  00093	50		 push	 eax
  00094	68 3d 04 00 00	 push	 1085			; 0000043dH
  00099	51		 push	 ecx
  0009a	ff d3		 call	 ebx
  0009c	8b 3d 00 00 00
	00		 mov	 edi, DWORD PTR __imp__EnableWindow@8
  000a2	50		 push	 eax
  000a3	ff d7		 call	 edi

; 1512 : 
; 1513 : 	SetWindowTextW (GetDlgItem (hCurPage, IDC_PAUSE),
; 1514 : 		GetString (locBootEncStatus.SetupInProgress ? "IDC_PAUSE" : "RESUME"));

  000a5	b8 00 00 00 00	 mov	 eax, OFFSET ??_C@_09PJBBBIIP@IDC_PAUSE?$AA@
  000aa	85 f6		 test	 esi, esi
  000ac	75 05		 jne	 SHORT $LN10@UpdateSysE@2
  000ae	b8 00 00 00 00	 mov	 eax, OFFSET ??_C@_06PPGAKMJI@RESUME?$AA@
$LN10@UpdateSysE@2:
  000b3	50		 push	 eax
  000b4	e8 00 00 00 00	 call	 _GetString
  000b9	8b 15 00 00 00
	00		 mov	 edx, DWORD PTR _hCurPage
  000bf	83 c4 04	 add	 esp, 4
  000c2	50		 push	 eax
  000c3	68 41 04 00 00	 push	 1089			; 00000441H
  000c8	52		 push	 edx
  000c9	ff d3		 call	 ebx
  000cb	50		 push	 eax
  000cc	ff 15 00 00 00
	00		 call	 DWORD PTR __imp__SetWindowTextW@8

; 1515 : 
; 1516 : 	EnableWindow (GetDlgItem (MainDlg, IDC_NEXT), !locBootEncStatus.SetupInProgress && !bFirstSysEncResumeDone);

  000d2	85 f6		 test	 esi, esi
  000d4	75 0d		 jne	 SHORT $LN11@UpdateSysE@2
  000d6	39 35 00 00 00
	00		 cmp	 DWORD PTR ?bFirstSysEncResumeDone@@3HA, esi ; bFirstSysEncResumeDone
  000dc	75 05		 jne	 SHORT $LN11@UpdateSysE@2
  000de	8d 46 01	 lea	 eax, DWORD PTR [esi+1]
  000e1	eb 02		 jmp	 SHORT $LN12@UpdateSysE@2
$LN11@UpdateSysE@2:
  000e3	33 c0		 xor	 eax, eax
$LN12@UpdateSysE@2:
  000e5	50		 push	 eax
  000e6	a1 00 00 00 00	 mov	 eax, DWORD PTR _MainDlg
  000eb	68 10 04 00 00	 push	 1040			; 00000410H
  000f0	50		 push	 eax
  000f1	ff d3		 call	 ebx
  000f3	50		 push	 eax
  000f4	ff d7		 call	 edi

; 1517 : 
; 1518 : 	if (!locBootEncStatus.SetupInProgress)

  000f6	85 f6		 test	 esi, esi
  000f8	0f 85 f4 00 00
	00		 jne	 $LN20@UpdateSysE@2

; 1519 : 	{
; 1520 : 		wchar_t tmpStr[100];
; 1521 : 
; 1522 : 		wcscpy (tmpStr, GetString ((SysDriveOrPartitionFullyEncrypted (TRUE) || !locBootEncStatus.DriveMounted) ?
; 1523 : 			"PROGRESS_STATUS_FINISHED" : "PROGRESS_STATUS_PAUSED"));

  000fe	6a 01		 push	 1
  00100	e8 00 00 00 00	 call	 ?SysDriveOrPartitionFullyEncrypted@@YAHH@Z ; SysDriveOrPartitionFullyEncrypted
  00105	83 c4 04	 add	 esp, 4
  00108	85 c0		 test	 eax, eax
  0010a	75 0a		 jne	 SHORT $LN13@UpdateSysE@2
  0010c	39 45 96	 cmp	 DWORD PTR _locBootEncStatus$[ebp+6], eax
  0010f	b8 00 00 00 00	 mov	 eax, OFFSET ??_C@_0BH@LLAADOBF@PROGRESS_STATUS_PAUSED?$AA@
  00114	75 05		 jne	 SHORT $LN14@UpdateSysE@2
$LN13@UpdateSysE@2:
  00116	b8 00 00 00 00	 mov	 eax, OFFSET ??_C@_0BJ@HKENJBII@PROGRESS_STATUS_FINISHED?$AA@
$LN14@UpdateSysE@2:
  0011b	50		 push	 eax
  0011c	e8 00 00 00 00	 call	 _GetString
  00121	83 c4 04	 add	 esp, 4
  00124	8d 55 00	 lea	 edx, DWORD PTR _tmpStr$132162[ebp]
$LL15@UpdateSysE@2:
  00127	0f b7 08	 movzx	 ecx, WORD PTR [eax]
  0012a	66 89 0a	 mov	 WORD PTR [edx], cx
  0012d	83 c0 02	 add	 eax, 2
  00130	83 c2 02	 add	 edx, 2
  00133	66 85 c9	 test	 cx, cx
  00136	75 ef		 jne	 SHORT $LL15@UpdateSysE@2

; 1524 : 		wcscat (tmpStr, L" ");

  00138	8d 7d 00	 lea	 edi, DWORD PTR _tmpStr$132162[ebp]
  0013b	83 c7 fe	 add	 edi, -2			; fffffffeH
  0013e	8b ff		 npad	 2
$LL24@UpdateSysE@2:
  00140	66 8b 47 02	 mov	 ax, WORD PTR [edi+2]
  00144	83 c7 02	 add	 edi, 2
  00147	66 85 c0	 test	 ax, ax
  0014a	75 f4		 jne	 SHORT $LL24@UpdateSysE@2

; 1525 : 
; 1526 : 		// Status
; 1527 : 		SetWindowTextW (GetDlgItem (hCurPage, IDC_WRITESPEED), tmpStr);

  0014c	a1 00 00 00 00	 mov	 eax, DWORD PTR _hCurPage
  00151	8b 0d 00 00 00
	00		 mov	 ecx, DWORD PTR ??_C@_13HOIJIPNN@?$AA?5?$AA?$AA@
  00157	8d 55 00	 lea	 edx, DWORD PTR _tmpStr$132162[ebp]
  0015a	52		 push	 edx
  0015b	68 01 04 00 00	 push	 1025			; 00000401H
  00160	50		 push	 eax
  00161	89 0f		 mov	 DWORD PTR [edi], ecx
  00163	ff d3		 call	 ebx
  00165	8b 35 00 00 00
	00		 mov	 esi, DWORD PTR __imp__SetWindowTextW@8
  0016b	50		 push	 eax
  0016c	ff d6		 call	 esi

; 1528 : 
; 1529 : 		if (SysDriveOrPartitionFullyEncrypted (TRUE) || SystemEncryptionStatus == SYSENC_STATUS_NONE)

  0016e	6a 01		 push	 1
  00170	e8 00 00 00 00	 call	 ?SysDriveOrPartitionFullyEncrypted@@YAHH@Z ; SysDriveOrPartitionFullyEncrypted
  00175	83 c4 04	 add	 esp, 4
  00178	85 c0		 test	 eax, eax
  0017a	75 08		 jne	 SHORT $LN1@UpdateSysE@2
  0017c	39 05 00 00 00
	00		 cmp	 DWORD PTR _SystemEncryptionStatus, eax
  00182	75 54		 jne	 SHORT $LN2@UpdateSysE@2
$LN1@UpdateSysE@2:

; 1530 : 		{
; 1531 : 			wcscpy (tmpStr, GetString ("PROCESSED_PORTION_100_PERCENT"));

  00184	68 00 00 00 00	 push	 OFFSET ??_C@_0BO@DMHMPBKC@PROCESSED_PORTION_100_PERCENT?$AA@
  00189	e8 00 00 00 00	 call	 _GetString
  0018e	83 c4 04	 add	 esp, 4
  00191	8d 55 00	 lea	 edx, DWORD PTR _tmpStr$132162[ebp]
$LL16@UpdateSysE@2:
  00194	0f b7 08	 movzx	 ecx, WORD PTR [eax]
  00197	66 89 0a	 mov	 WORD PTR [edx], cx
  0019a	83 c0 02	 add	 eax, 2
  0019d	83 c2 02	 add	 edx, 2
  001a0	66 85 c9	 test	 cx, cx
  001a3	75 ef		 jne	 SHORT $LL16@UpdateSysE@2

; 1532 : 			wcscat (tmpStr, L" ");

  001a5	8d 7d 00	 lea	 edi, DWORD PTR _tmpStr$132162[ebp]
  001a8	83 c7 fe	 add	 edi, -2			; fffffffeH
  001ab	eb 03 8d 49 00	 npad	 5
$LL25@UpdateSysE@2:
  001b0	66 8b 47 02	 mov	 ax, WORD PTR [edi+2]
  001b4	83 c7 02	 add	 edi, 2
  001b7	66 85 c0	 test	 ax, ax
  001ba	75 f4		 jne	 SHORT $LL25@UpdateSysE@2

; 1533 : 
; 1534 : 			SetWindowTextW (GetDlgItem (hCurPage, IDC_BYTESWRITTEN), tmpStr);

  001bc	a1 00 00 00 00	 mov	 eax, DWORD PTR _hCurPage
  001c1	8b 0d 00 00 00
	00		 mov	 ecx, DWORD PTR ??_C@_13HOIJIPNN@?$AA?5?$AA?$AA@
  001c7	8d 55 00	 lea	 edx, DWORD PTR _tmpStr$132162[ebp]
  001ca	52		 push	 edx
  001cb	68 00 04 00 00	 push	 1024			; 00000400H
  001d0	50		 push	 eax
  001d1	89 0f		 mov	 DWORD PTR [edi], ecx
  001d3	ff d3		 call	 ebx
  001d5	50		 push	 eax
  001d6	ff d6		 call	 esi
$LN2@UpdateSysE@2:

; 1535 : 		}
; 1536 : 
; 1537 : 		SetWindowText (GetDlgItem (hCurPage, IDC_TIMEREMAIN), " ");

  001d8	8b 0d 00 00 00
	00		 mov	 ecx, DWORD PTR _hCurPage
  001de	68 00 00 00 00	 push	 OFFSET ??_C@_01CLKCMJKC@?5?$AA@
  001e3	68 03 04 00 00	 push	 1027			; 00000403H
  001e8	51		 push	 ecx
  001e9	ff d3		 call	 ebx
  001eb	50		 push	 eax
  001ec	ff 15 00 00 00
	00		 call	 DWORD PTR __imp__SetWindowTextA@8
$LN20@UpdateSysE@2:

; 1538 : 	}
; 1539 : }

  001f2	8b 4d f4	 mov	 ecx, DWORD PTR __$EHRec$[ebp+4]
  001f5	64 89 0d 00 00
	00 00		 mov	 DWORD PTR fs:0, ecx
  001fc	59		 pop	 ecx
  001fd	5f		 pop	 edi
  001fe	5e		 pop	 esi
  001ff	5b		 pop	 ebx
  00200	8b 8d c8 00 00
	00		 mov	 ecx, DWORD PTR __$ArrayPad$[ebp]
  00206	33 cd		 xor	 ecx, ebp
  00208	e8 00 00 00 00	 call	 @__security_check_cookie@4
  0020d	81 c5 cc 00 00
	00		 add	 ebp, 204		; 000000ccH
  00213	8b e5		 mov	 esp, ebp
  00215	5d		 pop	 ebp
  00216	c3		 ret	 0
__catch$?UpdateSysEncControls@@YAXXZ$0:

; 1503 : 	}
; 1504 : 	catch (...)
; 1505 : 	{
; 1506 : 		return;

  00217	b8 00 00 00 00	 mov	 eax, $LN20@UpdateSysE@2
  0021c	c3		 ret	 0
_TEXT	ENDS
;	COMDAT text$x
text$x	SEGMENT
__ehhandler$?UpdateSysEncControls@@YAXXZ:
  00000	8b 54 24 08	 mov	 edx, DWORD PTR [esp+8]
  00004	8d 42 0c	 lea	 eax, DWORD PTR [edx+12]
  00007	8b 8a 2c ff ff
	ff		 mov	 ecx, DWORD PTR [edx-212]
  0000d	33 c8		 xor	 ecx, eax
  0000f	e8 00 00 00 00	 call	 @__security_check_cookie@4
  00014	8b 8a d4 00 00
	00		 mov	 ecx, DWORD PTR [edx+212]
  0001a	33 c8		 xor	 ecx, eax
  0001c	e8 00 00 00 00	 call	 @__security_check_cookie@4
  00021	b8 00 00 00 00	 mov	 eax, OFFSET __ehfuncinfo$?UpdateSysEncControls@@YAXXZ
  00026	e9 00 00 00 00	 jmp	 ___CxxFrameHandler3
text$x	ENDS
?UpdateSysEncControls@@YAXXZ ENDP			; UpdateSysEncControls
PUBLIC	??_C@_0CG@OIGJDCBH@FAILED_TO_INTERRUPT_SYSTEM_ENCRY@ ; `string'
EXTRN	__imp__SetTimer@16:PROC
EXTRN	?AbortSetup@BootEncryption@CipherShed@@QAEXXZ:PROC ; CipherShed::BootEncryption::AbortSetup
;	COMDAT ??_C@_0CG@OIGJDCBH@FAILED_TO_INTERRUPT_SYSTEM_ENCRY@
CONST	SEGMENT
??_C@_0CG@OIGJDCBH@FAILED_TO_INTERRUPT_SYSTEM_ENCRY@ DB 'FAILED_TO_INTERR'
	DB	'UPT_SYSTEM_ENCRYPTION', 00H			; `string'
CONST	ENDS
;	COMDAT xdata$x
xdata$x	SEGMENT
__catchsym$?SysEncPause@@YAXXZ$5 DD 08H
	DD	FLAT:??_R0?AUException@CipherShed@@@8
	DD	060H
	DD	FLAT:__catch$?SysEncPause@@YAXXZ$2
__catchsym$?SysEncPause@@YAXXZ$4 DD 08H
	DD	FLAT:??_R0?AUException@CipherShed@@@8
	DD	064H
	DD	FLAT:__catch$?SysEncPause@@YAXXZ$0
__unwindtable$?SysEncPause@@YAXXZ DD 0ffffffffH
	DD	00H
	DD	0ffffffffH
	DD	00H
	DD	0ffffffffH
	DD	00H
	DD	0ffffffffH
	DD	00H
__ehfuncinfo$?SysEncPause@@YAXXZ DD 019930522H
	DD	04H
	DD	FLAT:__unwindtable$?SysEncPause@@YAXXZ
	DD	02H
	DD	FLAT:__tryblocktable$?SysEncPause@@YAXXZ
	DD	2 DUP(00H)
	DD	00H
	DD	01H
__tryblocktable$?SysEncPause@@YAXXZ DD 00H
	DD	00H
	DD	01H
	DD	01H
	DD	FLAT:__catchsym$?SysEncPause@@YAXXZ$4
	DD	02H
	DD	02H
	DD	03H
	DD	01H
	DD	FLAT:__catchsym$?SysEncPause@@YAXXZ$5
; Function compile flags: /Ogtpy
xdata$x	ENDS
;	COMDAT ?SysEncPause@@YAXXZ
_TEXT	SEGMENT
$T141347 = -110						; size = 94
$T141346 = -110						; size = 94
$T141345 = -110						; size = 94
__$EHRec$ = -16						; size = 16
_locBootEncStatus$ = 0					; size = 94
_e$132186 = 96						; size = 4
_e$132176 = 100						; size = 4
?SysEncPause@@YAXXZ PROC				; SysEncPause, COMDAT

; 1542 : {

  00000	55		 push	 ebp
  00001	8d 6c 24 98	 lea	 ebp, DWORD PTR [esp-104]
  00005	83 ec 68	 sub	 esp, 104		; 00000068H
  00008	6a ff		 push	 -1
  0000a	68 00 00 00 00	 push	 __ehhandler$?SysEncPause@@YAXXZ
  0000f	64 a1 00 00 00
	00		 mov	 eax, DWORD PTR fs:0
  00015	50		 push	 eax
  00016	83 ec 64	 sub	 esp, 100		; 00000064H
  00019	53		 push	 ebx
  0001a	56		 push	 esi
  0001b	57		 push	 edi
  0001c	a1 00 00 00 00	 mov	 eax, DWORD PTR ___security_cookie
  00021	33 c5		 xor	 eax, ebp
  00023	50		 push	 eax
  00024	8d 45 f4	 lea	 eax, DWORD PTR __$EHRec$[ebp+4]
  00027	64 a3 00 00 00
	00		 mov	 DWORD PTR fs:0, eax
  0002d	89 65 f0	 mov	 DWORD PTR __$EHRec$[ebp], esp

; 1543 : 	BootEncryptionStatus locBootEncStatus;
; 1544 : 
; 1545 : 	if (CreateSysEncMutex ())

  00030	e8 00 00 00 00	 call	 _CreateSysEncMutex
  00035	85 c0		 test	 eax, eax
  00037	0f 84 90 01 00
	00		 je	 $LN9@SysEncPaus

; 1546 : 	{
; 1547 : 		EnableWindow (GetDlgItem (hCurPage, IDC_PAUSE), FALSE);

  0003d	a1 00 00 00 00	 mov	 eax, DWORD PTR _hCurPage
  00042	6a 00		 push	 0
  00044	68 41 04 00 00	 push	 1089			; 00000441H
  00049	50		 push	 eax
  0004a	ff 15 00 00 00
	00		 call	 DWORD PTR __imp__GetDlgItem@8
  00050	8b 1d 00 00 00
	00		 mov	 ebx, DWORD PTR __imp__EnableWindow@8
  00056	50		 push	 eax
  00057	ff d3		 call	 ebx

; 1548 : 
; 1549 : 		try
; 1550 : 		{
; 1551 : 			locBootEncStatus = BootEncObj->GetStatus();

  00059	8d 4d 92	 lea	 ecx, DWORD PTR $T141345[ebp]
  0005c	51		 push	 ecx
  0005d	8b 0d 00 00 00
	00		 mov	 ecx, DWORD PTR ?BootEncObj@@3PAVBootEncryption@CipherShed@@A ; BootEncObj
  00063	c7 45 fc 00 00
	00 00		 mov	 DWORD PTR __$EHRec$[ebp+12], 0
  0006a	e8 00 00 00 00	 call	 ?GetStatus@BootEncryption@CipherShed@@QAE?AUBootEncryptionStatus@@XZ ; CipherShed::BootEncryption::GetStatus
  0006f	b9 17 00 00 00	 mov	 ecx, 23			; 00000017H
  00074	8b f0		 mov	 esi, eax
  00076	8d 7d 00	 lea	 edi, DWORD PTR _locBootEncStatus$[ebp]
  00079	f3 a5		 rep movsd
  0007b	66 a5		 movsw

; 1559 : 		}
; 1560 : 
; 1561 : 		if (!locBootEncStatus.SetupInProgress)

  0007d	83 7d 3e 00	 cmp	 DWORD PTR _locBootEncStatus$[ebp+62], 0
  00081	c7 45 fc ff ff
	ff ff		 mov	 DWORD PTR __$EHRec$[ebp+12], -1
  00088	75 1c		 jne	 SHORT $LN7@SysEncPaus

; 1562 : 		{
; 1563 : 			EnableWindow (GetDlgItem (hCurPage, IDC_PAUSE), TRUE);

  0008a	8b 15 00 00 00
	00		 mov	 edx, DWORD PTR _hCurPage
  00090	6a 01		 push	 1
  00092	68 41 04 00 00	 push	 1089			; 00000441H
  00097	52		 push	 edx
  00098	ff 15 00 00 00
	00		 call	 DWORD PTR __imp__GetDlgItem@8
  0009e	50		 push	 eax
  0009f	ff d3		 call	 ebx

; 1564 : 			return;

  000a1	e9 34 01 00 00	 jmp	 $LN1@SysEncPaus
$LN7@SysEncPaus:

; 1565 : 		}
; 1566 : 
; 1567 : 		WaitCursor ();

  000a6	e8 00 00 00 00	 call	 _WaitCursor

; 1568 : 
; 1569 : 		try
; 1570 : 		{
; 1571 : 			int attempts = SYSENC_PAUSE_RETRIES;
; 1572 : 
; 1573 : 			BootEncObj->AbortSetup ();

  000ab	8b 0d 00 00 00
	00		 mov	 ecx, DWORD PTR ?BootEncObj@@3PAVBootEncryption@CipherShed@@A ; BootEncObj
  000b1	c7 45 fc 02 00
	00 00		 mov	 DWORD PTR __$EHRec$[ebp+12], 2
  000b8	bb c8 00 00 00	 mov	 ebx, 200		; 000000c8H
  000bd	e8 00 00 00 00	 call	 ?AbortSetup@BootEncryption@CipherShed@@QAEXXZ ; CipherShed::BootEncryption::AbortSetup

; 1574 : 
; 1575 : 			locBootEncStatus = BootEncObj->GetStatus();

  000c2	8d 45 92	 lea	 eax, DWORD PTR $T141346[ebp]
  000c5	50		 push	 eax
$LN26@SysEncPaus:
  000c6	8b 0d 00 00 00
	00		 mov	 ecx, DWORD PTR ?BootEncObj@@3PAVBootEncryption@CipherShed@@A ; BootEncObj
  000cc	e8 00 00 00 00	 call	 ?GetStatus@BootEncryption@CipherShed@@QAE?AUBootEncryptionStatus@@XZ ; CipherShed::BootEncryption::GetStatus
  000d1	b9 17 00 00 00	 mov	 ecx, 23			; 00000017H
  000d6	8d 7d 00	 lea	 edi, DWORD PTR _locBootEncStatus$[ebp]
  000d9	8b f0		 mov	 esi, eax
  000db	f3 a5		 rep movsd
  000dd	66 a5		 movsw

; 1576 : 
; 1577 : 			while (locBootEncStatus.SetupInProgress && attempts > 0)

  000df	83 7d 3e 00	 cmp	 DWORD PTR _locBootEncStatus$[ebp+62], 0
  000e3	74 13		 je	 SHORT $LN23@SysEncPaus
  000e5	85 db		 test	 ebx, ebx
  000e7	7e 1a		 jle	 SHORT $LN3@SysEncPaus

; 1578 : 			{
; 1579 : 				Sleep (SYSENC_PAUSE_RETRY_INTERVAL);

  000e9	6a 64		 push	 100			; 00000064H
  000eb	ff 15 00 00 00
	00		 call	 DWORD PTR __imp__Sleep@4

; 1580 : 				attempts--;
; 1581 : 				locBootEncStatus = BootEncObj->GetStatus();

  000f1	8d 4d 92	 lea	 ecx, DWORD PTR $T141347[ebp]
  000f4	4b		 dec	 ebx
  000f5	51		 push	 ecx

; 1582 : 			}

  000f6	eb ce		 jmp	 SHORT $LN26@SysEncPaus
$LN23@SysEncPaus:

; 1583 : 
; 1584 : 			if (!locBootEncStatus.SetupInProgress)
; 1585 : 				BootEncObj->CheckEncryptionSetupResult ();

  000f8	8b 0d 00 00 00
	00		 mov	 ecx, DWORD PTR ?BootEncObj@@3PAVBootEncryption@CipherShed@@A ; BootEncObj
  000fe	e8 00 00 00 00	 call	 ?CheckEncryptionSetupResult@BootEncryption@CipherShed@@QAEXXZ ; CipherShed::BootEncryption::CheckEncryptionSetupResult
$LN3@SysEncPaus:
  00103	c7 45 fc ff ff
	ff ff		 mov	 DWORD PTR __$EHRec$[ebp+12], -1
$LN19@SysEncPaus:

; 1592 : 
; 1593 : 		NormalCursor ();

  0010a	e8 00 00 00 00	 call	 _NormalCursor

; 1594 : 
; 1595 : 		if (locBootEncStatus.SetupInProgress)

  0010f	83 7d 3e 00	 cmp	 DWORD PTR _locBootEncStatus$[ebp+62], 0
  00113	74 56		 je	 SHORT $LN2@SysEncPaus

; 1596 : 		{
; 1597 : 			SetTimer (MainDlg, TIMER_ID_SYSENC_PROGRESS, TIMER_INTERVAL_SYSENC_PROGRESS, NULL);

  00115	a1 00 00 00 00	 mov	 eax, DWORD PTR _MainDlg
  0011a	6a 00		 push	 0
  0011c	6a 1e		 push	 30			; 0000001eH
  0011e	68 00 01 00 00	 push	 256			; 00000100H
  00123	50		 push	 eax
  00124	ff 15 00 00 00
	00		 call	 DWORD PTR __imp__SetTimer@16

; 1598 : 			EnableWindow (GetDlgItem (hCurPage, IDC_PAUSE), TRUE);

  0012a	8b 0d 00 00 00
	00		 mov	 ecx, DWORD PTR _hCurPage
  00130	6a 01		 push	 1
  00132	68 41 04 00 00	 push	 1089			; 00000441H
  00137	51		 push	 ecx
  00138	ff 15 00 00 00
	00		 call	 DWORD PTR __imp__GetDlgItem@8
  0013e	50		 push	 eax
  0013f	ff 15 00 00 00
	00		 call	 DWORD PTR __imp__EnableWindow@8

; 1599 : 			Error ("FAILED_TO_INTERRUPT_SYSTEM_ENCRYPTION");

  00145	68 00 00 00 00	 push	 OFFSET ??_C@_0CG@OIGJDCBH@FAILED_TO_INTERRUPT_SYSTEM_ENCRY@

; 1600 : 			return;

  0014a	e9 83 00 00 00	 jmp	 $LN27@SysEncPaus
__catch$?SysEncPause@@YAXXZ$2:

; 1586 : 
; 1587 : 		}
; 1588 : 		catch (Exception &e)
; 1589 : 		{
; 1590 : 			e.Show (MainDlg);

  0014f	8b 4d 60	 mov	 ecx, DWORD PTR _e$132186[ebp]
  00152	8b 11		 mov	 edx, DWORD PTR [ecx]
  00154	a1 00 00 00 00	 mov	 eax, DWORD PTR _MainDlg
  00159	8b 12		 mov	 edx, DWORD PTR [edx]
  0015b	50		 push	 eax
  0015c	ff d2		 call	 edx

; 1591 : 		}

  0015e	c7 45 fc ff ff
	ff ff		 mov	 DWORD PTR __$EHRec$[ebp+12], -1
  00165	b8 00 00 00 00	 mov	 eax, $LN19@SysEncPaus
  0016a	c3		 ret	 0
$LN2@SysEncPaus:

; 1601 : 		}
; 1602 : 		
; 1603 : 		UpdateSysEncControls ();

  0016b	e8 00 00 00 00	 call	 ?UpdateSysEncControls@@YAXXZ ; UpdateSysEncControls

; 1604 : 		EnableWindow (GetDlgItem (hCurPage, IDC_PAUSE), TRUE);

  00170	8b 15 00 00 00
	00		 mov	 edx, DWORD PTR _hCurPage
  00176	6a 01		 push	 1
  00178	68 41 04 00 00	 push	 1089			; 00000441H
  0017d	52		 push	 edx
  0017e	ff 15 00 00 00
	00		 call	 DWORD PTR __imp__GetDlgItem@8
  00184	50		 push	 eax
  00185	ff 15 00 00 00
	00		 call	 DWORD PTR __imp__EnableWindow@8

; 1605 : 	}
; 1606 : 	else

  0018b	eb 4d		 jmp	 SHORT $LN1@SysEncPaus
__catch$?SysEncPause@@YAXXZ$0:

; 1552 : 		}
; 1553 : 		catch (Exception &e)
; 1554 : 		{
; 1555 : 			e.Show (MainDlg);

  0018d	8b 4d 64	 mov	 ecx, DWORD PTR _e$132176[ebp]
  00190	8b 01		 mov	 eax, DWORD PTR [ecx]
  00192	8b 15 00 00 00
	00		 mov	 edx, DWORD PTR _MainDlg
  00198	8b 00		 mov	 eax, DWORD PTR [eax]
  0019a	52		 push	 edx
  0019b	ff d0		 call	 eax

; 1556 : 			Error ("ERR_GETTING_SYSTEM_ENCRYPTION_STATUS");

  0019d	68 00 00 00 00	 push	 OFFSET ??_C@_0CF@BOINGOPM@ERR_GETTING_SYSTEM_ENCRYPTION_ST@
  001a2	e8 00 00 00 00	 call	 _Error

; 1557 : 			EnableWindow (GetDlgItem (hCurPage, IDC_PAUSE), TRUE);

  001a7	8b 0d 00 00 00
	00		 mov	 ecx, DWORD PTR _hCurPage
  001ad	83 c4 04	 add	 esp, 4
  001b0	6a 01		 push	 1
  001b2	68 41 04 00 00	 push	 1089			; 00000441H
  001b7	51		 push	 ecx
  001b8	ff 15 00 00 00
	00		 call	 DWORD PTR __imp__GetDlgItem@8
  001be	50		 push	 eax
  001bf	ff 15 00 00 00
	00		 call	 DWORD PTR __imp__EnableWindow@8

; 1558 : 			return;

  001c5	b8 00 00 00 00	 mov	 eax, $LN17@SysEncPaus
  001ca	c3		 ret	 0
$LN17@SysEncPaus:
  001cb	eb 0d		 jmp	 SHORT $LN1@SysEncPaus
$LN9@SysEncPaus:

; 1607 : 		Error ("SYSTEM_ENCRYPTION_IN_PROGRESS_ELSEWHERE");

  001cd	68 00 00 00 00	 push	 OFFSET ??_C@_0CI@FPFBOAHN@SYSTEM_ENCRYPTION_IN_PROGRESS_EL@
$LN27@SysEncPaus:
  001d2	e8 00 00 00 00	 call	 _Error
  001d7	83 c4 04	 add	 esp, 4
$LN1@SysEncPaus:

; 1608 : }

  001da	8b 4d f4	 mov	 ecx, DWORD PTR __$EHRec$[ebp+4]
  001dd	64 89 0d 00 00
	00 00		 mov	 DWORD PTR fs:0, ecx
  001e4	59		 pop	 ecx
  001e5	5f		 pop	 edi
  001e6	5e		 pop	 esi
  001e7	5b		 pop	 ebx
  001e8	83 c5 68	 add	 ebp, 104		; 00000068H
  001eb	8b e5		 mov	 esp, ebp
  001ed	5d		 pop	 ebp
  001ee	c3		 ret	 0
_TEXT	ENDS
;	COMDAT text$x
text$x	SEGMENT
__ehhandler$?SysEncPause@@YAXXZ:
  00000	8b 54 24 08	 mov	 edx, DWORD PTR [esp+8]
  00004	8d 42 0c	 lea	 eax, DWORD PTR [edx+12]
  00007	8b 4a 8c	 mov	 ecx, DWORD PTR [edx-116]
  0000a	33 c8		 xor	 ecx, eax
  0000c	e8 00 00 00 00	 call	 @__security_check_cookie@4
  00011	b8 00 00 00 00	 mov	 eax, OFFSET __ehfuncinfo$?SysEncPause@@YAXXZ
  00016	e9 00 00 00 00	 jmp	 ___CxxFrameHandler3
text$x	ENDS
?SysEncPause@@YAXXZ ENDP				; SysEncPause
PUBLIC	??_C@_0CD@HEMAICHN@FAILED_TO_RESUME_SYSTEM_ENCRYPTI@ ; `string'
EXTRN	?StartEncryption@BootEncryption@CipherShed@@QAEXW4WipeAlgorithmId@@_N@Z:PROC ; CipherShed::BootEncryption::StartEncryption
EXTRN	__imp__SetThreadExecutionState@4:PROC
;	COMDAT ??_C@_0CD@HEMAICHN@FAILED_TO_RESUME_SYSTEM_ENCRYPTI@
CONST	SEGMENT
??_C@_0CD@HEMAICHN@FAILED_TO_RESUME_SYSTEM_ENCRYPTI@ DB 'FAILED_TO_RESUME'
	DB	'_SYSTEM_ENCRYPTION', 00H			; `string'
CONST	ENDS
;	COMDAT xdata$x
xdata$x	SEGMENT
__catchsym$?SysEncResume@@YAXXZ$5 DD 08H
	DD	FLAT:??_R0?AUException@CipherShed@@@8
	DD	0ffffffe8H
	DD	FLAT:__catch$?SysEncResume@@YAXXZ$2
__catchsym$?SysEncResume@@YAXXZ$4 DD 08H
	DD	FLAT:??_R0?AUException@CipherShed@@@8
	DD	0ffffffecH
	DD	FLAT:__catch$?SysEncResume@@YAXXZ$0
__unwindtable$?SysEncResume@@YAXXZ DD 0ffffffffH
	DD	00H
	DD	0ffffffffH
	DD	00H
	DD	0ffffffffH
	DD	00H
	DD	0ffffffffH
	DD	00H
__ehfuncinfo$?SysEncResume@@YAXXZ DD 019930522H
	DD	04H
	DD	FLAT:__unwindtable$?SysEncResume@@YAXXZ
	DD	02H
	DD	FLAT:__tryblocktable$?SysEncResume@@YAXXZ
	DD	2 DUP(00H)
	DD	00H
	DD	01H
__tryblocktable$?SysEncResume@@YAXXZ DD 00H
	DD	00H
	DD	01H
	DD	01H
	DD	FLAT:__catchsym$?SysEncResume@@YAXXZ$4
	DD	02H
	DD	02H
	DD	03H
	DD	01H
	DD	FLAT:__catchsym$?SysEncResume@@YAXXZ$5
; Function compile flags: /Ogtpy
xdata$x	ENDS
;	COMDAT ?SysEncResume@@YAXXZ
_TEXT	SEGMENT
$T141374 = -214						; size = 94
_locBootEncStatus$ = -120				; size = 94
_e$132209 = -24						; size = 4
_e$132197 = -20						; size = 4
__$EHRec$ = -16						; size = 16
?SysEncResume@@YAXXZ PROC				; SysEncResume, COMDAT

; 1612 : {

  00000	55		 push	 ebp
  00001	8b ec		 mov	 ebp, esp
  00003	6a ff		 push	 -1
  00005	68 00 00 00 00	 push	 __ehhandler$?SysEncResume@@YAXXZ
  0000a	64 a1 00 00 00
	00		 mov	 eax, DWORD PTR fs:0
  00010	50		 push	 eax
  00011	81 ec cc 00 00
	00		 sub	 esp, 204		; 000000ccH
  00017	53		 push	 ebx
  00018	56		 push	 esi
  00019	57		 push	 edi
  0001a	a1 00 00 00 00	 mov	 eax, DWORD PTR ___security_cookie
  0001f	33 c5		 xor	 eax, ebp
  00021	50		 push	 eax
  00022	8d 45 f4	 lea	 eax, DWORD PTR __$EHRec$[ebp+4]
  00025	64 a3 00 00 00
	00		 mov	 DWORD PTR fs:0, eax
  0002b	89 65 f0	 mov	 DWORD PTR __$EHRec$[ebp], esp

; 1613 : 	BootEncryptionStatus locBootEncStatus;
; 1614 : 
; 1615 : 	if (CreateSysEncMutex ())

  0002e	e8 00 00 00 00	 call	 _CreateSysEncMutex
  00033	85 c0		 test	 eax, eax
  00035	0f 84 34 02 00
	00		 je	 $LN11@SysEncResu

; 1616 : 	{
; 1617 : 		EnableWindow (GetDlgItem (hCurPage, IDC_PAUSE), FALSE);

  0003b	a1 00 00 00 00	 mov	 eax, DWORD PTR _hCurPage
  00040	6a 00		 push	 0
  00042	68 41 04 00 00	 push	 1089			; 00000441H
  00047	50		 push	 eax
  00048	ff 15 00 00 00
	00		 call	 DWORD PTR __imp__GetDlgItem@8
  0004e	8b 1d 00 00 00
	00		 mov	 ebx, DWORD PTR __imp__EnableWindow@8
  00054	50		 push	 eax
  00055	ff d3		 call	 ebx

; 1618 : 
; 1619 : 		try
; 1620 : 		{
; 1621 : 			locBootEncStatus = BootEncObj->GetStatus();

  00057	8d 8d 2a ff ff
	ff		 lea	 ecx, DWORD PTR $T141374[ebp]
  0005d	51		 push	 ecx
  0005e	8b 0d 00 00 00
	00		 mov	 ecx, DWORD PTR ?BootEncObj@@3PAVBootEncryption@CipherShed@@A ; BootEncObj
  00064	c7 45 fc 00 00
	00 00		 mov	 DWORD PTR __$EHRec$[ebp+12], 0
  0006b	e8 00 00 00 00	 call	 ?GetStatus@BootEncryption@CipherShed@@QAE?AUBootEncryptionStatus@@XZ ; CipherShed::BootEncryption::GetStatus
  00070	b9 17 00 00 00	 mov	 ecx, 23			; 00000017H
  00075	8b f0		 mov	 esi, eax
  00077	8d 7d 88	 lea	 edi, DWORD PTR _locBootEncStatus$[ebp]
  0007a	f3 a5		 rep movsd
  0007c	66 a5		 movsw
  0007e	83 ce ff	 or	 esi, -1

; 1629 : 		}
; 1630 : 
; 1631 : 		if (locBootEncStatus.SetupInProgress)

  00081	83 7d c6 00	 cmp	 DWORD PTR _locBootEncStatus$[ebp+62], 0
  00085	89 75 fc	 mov	 DWORD PTR __$EHRec$[ebp+12], esi
  00088	74 58		 je	 SHORT $LN9@SysEncResu

; 1632 : 		{
; 1633 : 			// Prevent the OS from entering Sleep mode when idle
; 1634 : 			SetThreadExecutionState (ES_CONTINUOUS | ES_SYSTEM_REQUIRED);

  0008a	68 01 00 00 80	 push	 -2147483647		; 80000001H
  0008f	ff 15 00 00 00
	00		 call	 DWORD PTR __imp__SetThreadExecutionState@4

; 1635 : 
; 1636 : 			bSystemEncryptionInProgress = TRUE;

  00095	c7 05 00 00 00
	00 01 00 00 00	 mov	 DWORD PTR ?bSystemEncryptionInProgress@@3HA, 1 ; bSystemEncryptionInProgress

; 1637 : 			UpdateSysEncControls ();

  0009f	e8 00 00 00 00	 call	 ?UpdateSysEncControls@@YAXXZ ; UpdateSysEncControls

; 1638 : 			SetTimer (MainDlg, TIMER_ID_SYSENC_PROGRESS, TIMER_INTERVAL_SYSENC_PROGRESS, NULL);

  000a4	8b 15 00 00 00
	00		 mov	 edx, DWORD PTR _MainDlg
  000aa	6a 00		 push	 0
  000ac	6a 1e		 push	 30			; 0000001eH
  000ae	68 00 01 00 00	 push	 256			; 00000100H
  000b3	52		 push	 edx
  000b4	ff 15 00 00 00
	00		 call	 DWORD PTR __imp__SetTimer@16

; 1639 : 			EnableWindow (GetDlgItem (hCurPage, IDC_PAUSE), TRUE);

  000ba	a1 00 00 00 00	 mov	 eax, DWORD PTR _hCurPage
  000bf	6a 01		 push	 1
  000c1	68 41 04 00 00	 push	 1089			; 00000441H
  000c6	50		 push	 eax
  000c7	ff 15 00 00 00
	00		 call	 DWORD PTR __imp__GetDlgItem@8
  000cd	50		 push	 eax
  000ce	ff d3		 call	 ebx

; 1694 : }

  000d0	8b 4d f4	 mov	 ecx, DWORD PTR __$EHRec$[ebp+4]
  000d3	64 89 0d 00 00
	00 00		 mov	 DWORD PTR fs:0, ecx
  000da	59		 pop	 ecx
  000db	5f		 pop	 edi
  000dc	5e		 pop	 esi
  000dd	5b		 pop	 ebx
  000de	8b e5		 mov	 esp, ebp
  000e0	5d		 pop	 ebp
  000e1	c3		 ret	 0
$LN9@SysEncResu:

; 1640 : 			return;
; 1641 : 		}
; 1642 : 
; 1643 : 		bSystemEncryptionInProgress = FALSE;

  000e2	c7 05 00 00 00
	00 00 00 00 00	 mov	 DWORD PTR ?bSystemEncryptionInProgress@@3HA, 0 ; bSystemEncryptionInProgress

; 1644 : 		WaitCursor ();

  000ec	e8 00 00 00 00	 call	 _WaitCursor

; 1645 : 
; 1646 : 		try
; 1647 : 		{
; 1648 : 			switch (SystemEncryptionStatus)

  000f1	a1 00 00 00 00	 mov	 eax, DWORD PTR _SystemEncryptionStatus
  000f6	c7 45 fc 02 00
	00 00		 mov	 DWORD PTR __$EHRec$[ebp+12], 2
  000fd	3d 90 01 00 00	 cmp	 eax, 400		; 00000190H
  00102	74 2e		 je	 SHORT $LN5@SysEncResu
  00104	3d 58 02 00 00	 cmp	 eax, 600		; 00000258H
  00109	75 48		 jne	 SHORT $LN6@SysEncResu

; 1653 : 				break;
; 1654 : 
; 1655 : 			case SYSENC_STATUS_DECRYPTING:
; 1656 : 
; 1657 : 				if (locBootEncStatus.DriveMounted)	// If the drive is not encrypted we will just deinstall

  0010b	83 7d 8e 00	 cmp	 DWORD PTR _locBootEncStatus$[ebp+6], 0
  0010f	74 42		 je	 SHORT $LN6@SysEncResu

; 1658 : 					BootEncObj->StartDecryption (DiscardUnreadableEncryptedSectors);	

  00111	8b 0d 00 00 00
	00		 mov	 ecx, DWORD PTR ?DiscardUnreadableEncryptedSectors@@3HC ; DiscardUnreadableEncryptedSectors
  00117	51		 push	 ecx
  00118	8b 0d 00 00 00
	00		 mov	 ecx, DWORD PTR ?BootEncObj@@3PAVBootEncryption@CipherShed@@A ; BootEncObj
  0011e	e8 00 00 00 00	 call	 ?StartDecryption@BootEncryption@CipherShed@@QAEXH@Z ; CipherShed::BootEncryption::StartDecryption

; 1659 : 
; 1660 : 				break;
; 1661 : 			}
; 1662 : 
; 1663 : 			bSystemEncryptionInProgress = TRUE;

  00123	c7 05 00 00 00
	00 01 00 00 00	 mov	 DWORD PTR ?bSystemEncryptionInProgress@@3HA, 1 ; bSystemEncryptionInProgress
  0012d	89 75 fc	 mov	 DWORD PTR __$EHRec$[ebp+12], esi
  00130	eb 53		 jmp	 SHORT $LN21@SysEncResu
$LN5@SysEncResu:

; 1649 : 			{
; 1650 : 			case SYSENC_STATUS_ENCRYPTING:
; 1651 : 
; 1652 : 				BootEncObj->StartEncryption (nWipeMode, bTryToCorrectReadErrors ? true : false);	

  00132	8b 15 00 00 00
	00		 mov	 edx, DWORD PTR ?bTryToCorrectReadErrors@@3HC ; bTryToCorrectReadErrors
  00138	85 d2		 test	 edx, edx
  0013a	8b 15 00 00 00
	00		 mov	 edx, DWORD PTR _nWipeMode
  00140	0f 95 c0	 setne	 al
  00143	0f b6 c8	 movzx	 ecx, al
  00146	51		 push	 ecx
  00147	8b 0d 00 00 00
	00		 mov	 ecx, DWORD PTR ?BootEncObj@@3PAVBootEncryption@CipherShed@@A ; BootEncObj
  0014d	52		 push	 edx
  0014e	e8 00 00 00 00	 call	 ?StartEncryption@BootEncryption@CipherShed@@QAEXW4WipeAlgorithmId@@_N@Z ; CipherShed::BootEncryption::StartEncryption
$LN6@SysEncResu:

; 1659 : 
; 1660 : 				break;
; 1661 : 			}
; 1662 : 
; 1663 : 			bSystemEncryptionInProgress = TRUE;

  00153	c7 05 00 00 00
	00 01 00 00 00	 mov	 DWORD PTR ?bSystemEncryptionInProgress@@3HA, 1 ; bSystemEncryptionInProgress
  0015d	89 75 fc	 mov	 DWORD PTR __$EHRec$[ebp+12], esi
  00160	eb 23		 jmp	 SHORT $LN21@SysEncResu
__catch$?SysEncResume@@YAXXZ$2:

; 1664 : 		}
; 1665 : 		catch (Exception &e)
; 1666 : 		{
; 1667 : 			e.Show (MainDlg);

  00162	8b 4d e8	 mov	 ecx, DWORD PTR _e$132209[ebp]
  00165	8b 01		 mov	 eax, DWORD PTR [ecx]
  00167	8b 15 00 00 00
	00		 mov	 edx, DWORD PTR _MainDlg
  0016d	8b 00		 mov	 eax, DWORD PTR [eax]
  0016f	52		 push	 edx
  00170	ff d0		 call	 eax

; 1668 : 		}

  00172	c7 45 fc ff ff
	ff ff		 mov	 DWORD PTR __$EHRec$[ebp+12], -1
  00179	b8 00 00 00 00	 mov	 eax, $LN24@SysEncResu
  0017e	c3		 ret	 0
$LN24@SysEncResu:
  0017f	8b 1d 00 00 00
	00		 mov	 ebx, DWORD PTR __imp__EnableWindow@8
$LN21@SysEncResu:

; 1669 : 
; 1670 : 		NormalCursor ();

  00185	e8 00 00 00 00	 call	 _NormalCursor

; 1671 : 
; 1672 : 		if (!bSystemEncryptionInProgress)

  0018a	83 3d 00 00 00
	00 00		 cmp	 DWORD PTR ?bSystemEncryptionInProgress@@3HA, 0 ; bSystemEncryptionInProgress
  00191	75 2c		 jne	 SHORT $LN2@SysEncResu

; 1673 : 		{
; 1674 : 			// Allow the OS to enter Sleep mode when idle
; 1675 : 			SetThreadExecutionState (ES_CONTINUOUS);

  00193	68 00 00 00 80	 push	 -2147483648		; 80000000H
  00198	ff 15 00 00 00
	00		 call	 DWORD PTR __imp__SetThreadExecutionState@4

; 1676 : 
; 1677 : 			EnableWindow (GetDlgItem (hCurPage, IDC_PAUSE), TRUE);

  0019e	8b 0d 00 00 00
	00		 mov	 ecx, DWORD PTR _hCurPage
  001a4	6a 01		 push	 1
  001a6	68 41 04 00 00	 push	 1089			; 00000441H
  001ab	51		 push	 ecx
  001ac	ff 15 00 00 00
	00		 call	 DWORD PTR __imp__GetDlgItem@8
  001b2	50		 push	 eax
  001b3	ff d3		 call	 ebx

; 1678 : 			Error ("FAILED_TO_RESUME_SYSTEM_ENCRYPTION");

  001b5	68 00 00 00 00	 push	 OFFSET ??_C@_0CD@HEMAICHN@FAILED_TO_RESUME_SYSTEM_ENCRYPTI@

; 1679 : 			return;

  001ba	e9 b5 00 00 00	 jmp	 $LN26@SysEncResu
$LN2@SysEncResu:

; 1680 : 		}
; 1681 : 
; 1682 : 		// Prevent the OS from entering Sleep mode when idle
; 1683 : 		SetThreadExecutionState (ES_CONTINUOUS | ES_SYSTEM_REQUIRED);

  001bf	68 01 00 00 80	 push	 -2147483647		; 80000001H
  001c4	ff 15 00 00 00
	00		 call	 DWORD PTR __imp__SetThreadExecutionState@4

; 1684 : 
; 1685 : 		bFirstSysEncResumeDone = TRUE;

  001ca	c7 05 00 00 00
	00 01 00 00 00	 mov	 DWORD PTR ?bFirstSysEncResumeDone@@3HA, 1 ; bFirstSysEncResumeDone

; 1686 : 		InitSysEncProgressBar ();

  001d4	e8 00 00 00 00	 call	 _InitSysEncProgressBar

; 1687 : 		UpdateSysEncProgressBar ();

  001d9	e8 00 00 00 00	 call	 ?UpdateSysEncProgressBar@@YAXXZ ; UpdateSysEncProgressBar

; 1688 : 		UpdateSysEncControls ();

  001de	e8 00 00 00 00	 call	 ?UpdateSysEncControls@@YAXXZ ; UpdateSysEncControls

; 1689 : 		EnableWindow (GetDlgItem (hCurPage, IDC_PAUSE), TRUE);

  001e3	8b 15 00 00 00
	00		 mov	 edx, DWORD PTR _hCurPage
  001e9	6a 01		 push	 1
  001eb	68 41 04 00 00	 push	 1089			; 00000441H
  001f0	52		 push	 edx
  001f1	ff 15 00 00 00
	00		 call	 DWORD PTR __imp__GetDlgItem@8
  001f7	50		 push	 eax
  001f8	ff d3		 call	 ebx

; 1690 : 		SetTimer (MainDlg, TIMER_ID_SYSENC_PROGRESS, TIMER_INTERVAL_SYSENC_PROGRESS, NULL);

  001fa	a1 00 00 00 00	 mov	 eax, DWORD PTR _MainDlg
  001ff	6a 00		 push	 0
  00201	6a 1e		 push	 30			; 0000001eH
  00203	68 00 01 00 00	 push	 256			; 00000100H
  00208	50		 push	 eax
  00209	ff 15 00 00 00
	00		 call	 DWORD PTR __imp__SetTimer@16

; 1694 : }

  0020f	8b 4d f4	 mov	 ecx, DWORD PTR __$EHRec$[ebp+4]
  00212	64 89 0d 00 00
	00 00		 mov	 DWORD PTR fs:0, ecx
  00219	59		 pop	 ecx
  0021a	5f		 pop	 edi
  0021b	5e		 pop	 esi
  0021c	5b		 pop	 ebx
  0021d	8b e5		 mov	 esp, ebp
  0021f	5d		 pop	 ebp
  00220	c3		 ret	 0
__catch$?SysEncResume@@YAXXZ$0:

; 1622 : 		}
; 1623 : 		catch (Exception &e)
; 1624 : 		{
; 1625 : 			e.Show (MainDlg);

  00221	8b 4d ec	 mov	 ecx, DWORD PTR _e$132197[ebp]
  00224	8b 11		 mov	 edx, DWORD PTR [ecx]
  00226	a1 00 00 00 00	 mov	 eax, DWORD PTR _MainDlg
  0022b	8b 12		 mov	 edx, DWORD PTR [edx]
  0022d	50		 push	 eax
  0022e	ff d2		 call	 edx

; 1626 : 			Error ("ERR_GETTING_SYSTEM_ENCRYPTION_STATUS");

  00230	68 00 00 00 00	 push	 OFFSET ??_C@_0CF@BOINGOPM@ERR_GETTING_SYSTEM_ENCRYPTION_ST@
  00235	e8 00 00 00 00	 call	 _Error

; 1627 : 			EnableWindow (GetDlgItem (hCurPage, IDC_PAUSE), TRUE);

  0023a	a1 00 00 00 00	 mov	 eax, DWORD PTR _hCurPage
  0023f	83 c4 04	 add	 esp, 4
  00242	6a 01		 push	 1
  00244	68 41 04 00 00	 push	 1089			; 00000441H
  00249	50		 push	 eax
  0024a	ff 15 00 00 00
	00		 call	 DWORD PTR __imp__GetDlgItem@8
  00250	50		 push	 eax
  00251	ff 15 00 00 00
	00		 call	 DWORD PTR __imp__EnableWindow@8

; 1628 : 			return;

  00257	b8 00 00 00 00	 mov	 eax, $LN19@SysEncResu
  0025c	c3		 ret	 0
$LN19@SysEncResu:

; 1694 : }

  0025d	8b 4d f4	 mov	 ecx, DWORD PTR __$EHRec$[ebp+4]
  00260	64 89 0d 00 00
	00 00		 mov	 DWORD PTR fs:0, ecx
  00267	59		 pop	 ecx
  00268	5f		 pop	 edi
  00269	5e		 pop	 esi
  0026a	5b		 pop	 ebx
  0026b	8b e5		 mov	 esp, ebp
  0026d	5d		 pop	 ebp
  0026e	c3		 ret	 0
$LN11@SysEncResu:

; 1691 : 	}
; 1692 : 	else
; 1693 : 		Error ("SYSTEM_ENCRYPTION_IN_PROGRESS_ELSEWHERE");

  0026f	68 00 00 00 00	 push	 OFFSET ??_C@_0CI@FPFBOAHN@SYSTEM_ENCRYPTION_IN_PROGRESS_EL@
$LN26@SysEncResu:
  00274	e8 00 00 00 00	 call	 _Error
  00279	83 c4 04	 add	 esp, 4

; 1694 : }

  0027c	8b 4d f4	 mov	 ecx, DWORD PTR __$EHRec$[ebp+4]
  0027f	64 89 0d 00 00
	00 00		 mov	 DWORD PTR fs:0, ecx
  00286	59		 pop	 ecx
  00287	5f		 pop	 edi
  00288	5e		 pop	 esi
  00289	5b		 pop	 ebx
  0028a	8b e5		 mov	 esp, ebp
  0028c	5d		 pop	 ebp
  0028d	c3		 ret	 0
_TEXT	ENDS
;	COMDAT text$x
text$x	SEGMENT
__ehhandler$?SysEncResume@@YAXXZ:
  00000	8b 54 24 08	 mov	 edx, DWORD PTR [esp+8]
  00004	8d 42 0c	 lea	 eax, DWORD PTR [edx+12]
  00007	8b 8a 24 ff ff
	ff		 mov	 ecx, DWORD PTR [edx-220]
  0000d	33 c8		 xor	 ecx, eax
  0000f	e8 00 00 00 00	 call	 @__security_check_cookie@4
  00014	b8 00 00 00 00	 mov	 eax, OFFSET __ehfuncinfo$?SysEncResume@@YAXXZ
  00019	e9 00 00 00 00	 jmp	 ___CxxFrameHandler3
text$x	ENDS
?SysEncResume@@YAXXZ ENDP				; SysEncResume
EXTRN	__imp__DispatchMessageA@4:PROC
EXTRN	__imp__PeekMessageA@20:PROC
; Function compile flags: /Ogtpy
;	COMDAT _NonSysInplaceEncPause
_TEXT	SEGMENT
_guiMsg$132241 = -28					; size = 28
_NonSysInplaceEncPause PROC				; COMDAT

; 1743 : {

  00000	83 ec 1c	 sub	 esp, 28			; 0000001cH
  00003	55		 push	 ebp
  00004	56		 push	 esi
  00005	57		 push	 edi

; 1744 : 	bVolTransformThreadCancel = TRUE;

  00006	c7 05 00 00 00
	00 01 00 00 00	 mov	 DWORD PTR _bVolTransformThreadCancel, 1

; 1745 : 
; 1746 : 	WaitCursor ();

  00010	e8 00 00 00 00	 call	 _WaitCursor

; 1747 : 
; 1748 : 	int waitThreshold = 100;	// Do not block GUI events for more than 10 seconds. IMPORTANT: This prevents deadlocks when the thread calls us back e.g. to update GUI!

  00015	8b 35 00 00 00
	00		 mov	 esi, DWORD PTR __imp__PeekMessageA@20
  0001b	8b 3d 00 00 00
	00		 mov	 edi, DWORD PTR __imp__DispatchMessageA@4
  00021	bd 64 00 00 00	 mov	 ebp, 100		; 00000064H
$LL7@NonSysInpl:

; 1749 : 	
; 1750 : 	while (bVolTransformThreadRunning || bVolTransformThreadToRun)

  00026	a1 00 00 00 00	 mov	 eax, DWORD PTR ?bVolTransformThreadRunning@@3HC ; bVolTransformThreadRunning
  0002b	85 c0		 test	 eax, eax
  0002d	75 0a		 jne	 SHORT $LN5@NonSysInpl
  0002f	8b 0d 00 00 00
	00		 mov	 ecx, DWORD PTR ?bVolTransformThreadToRun@@3HC ; bVolTransformThreadToRun
  00035	85 c9		 test	 ecx, ecx
  00037	74 56		 je	 SHORT $LN6@NonSysInpl
$LN5@NonSysInpl:

; 1751 : 	{
; 1752 : 		MSG guiMsg;
; 1753 : 
; 1754 : 		bVolTransformThreadCancel = TRUE;

  00039	c7 05 00 00 00
	00 01 00 00 00	 mov	 DWORD PTR _bVolTransformThreadCancel, 1

; 1755 : 
; 1756 : 		if (waitThreshold <= 0)

  00043	85 ed		 test	 ebp, ebp
  00045	7f 3d		 jg	 SHORT $LN4@NonSysInpl

; 1757 : 		{
; 1758 : 			while (PeekMessage (&guiMsg, NULL, 0, 0, PM_REMOVE) != 0)

  00047	6a 01		 push	 1
  00049	6a 00		 push	 0
  0004b	6a 00		 push	 0
  0004d	6a 00		 push	 0
  0004f	8d 54 24 1c	 lea	 edx, DWORD PTR _guiMsg$132241[esp+56]
  00053	52		 push	 edx
  00054	ff d6		 call	 esi
  00056	85 c0		 test	 eax, eax
  00058	74 2b		 je	 SHORT $LN14@NonSysInpl
  0005a	8d 9b 00 00 00
	00		 npad	 6
$LL3@NonSysInpl:

; 1759 : 			{
; 1760 : 				DispatchMessage (&guiMsg);

  00060	8d 44 24 0c	 lea	 eax, DWORD PTR _guiMsg$132241[esp+40]
  00064	50		 push	 eax
  00065	ff d7		 call	 edi
  00067	6a 01		 push	 1
  00069	6a 00		 push	 0
  0006b	6a 00		 push	 0
  0006d	6a 00		 push	 0
  0006f	8d 4c 24 1c	 lea	 ecx, DWORD PTR _guiMsg$132241[esp+56]
  00073	51		 push	 ecx
  00074	ff d6		 call	 esi
  00076	85 c0		 test	 eax, eax
  00078	75 e6		 jne	 SHORT $LL3@NonSysInpl

; 1765 : 
; 1766 : 		Sleep (100);

  0007a	6a 64		 push	 100			; 00000064H
  0007c	ff 15 00 00 00
	00		 call	 DWORD PTR __imp__Sleep@4

; 1767 : 	}

  00082	eb a2		 jmp	 SHORT $LL7@NonSysInpl
$LN4@NonSysInpl:

; 1761 : 			}
; 1762 : 		}
