; Listing generated by Microsoft (R) Optimizing Compiler Version 15.00.30729.01 

	TITLE	c:\home\public\Desktop\projects\ciphershed.build\src\Common\Password.c
	.686P
	.XMM
	include listing.inc
	.model	flat

INCLUDELIB LIBCMT
INCLUDELIB OLDNAMES

PUBLIC	_RtlSecureZeroMemory
; Function compile flags: /Ogtpy
; File c:\program files\microsoft sdks\windows\v7.1\include\winnt.h
;	COMDAT _RtlSecureZeroMemory
_TEXT	SEGMENT
_ptr$ = 8						; size = 4
_cnt$ = 12						; size = 4
_RtlSecureZeroMemory PROC				; COMDAT

; 13070:     volatile char *vptr = (volatile char *)ptr;
; 13071: 
; 13072: #if defined(_M_AMD64)
; 13073: 
; 13074:         __stosb((PBYTE )((DWORD64)vptr), 0, cnt);
; 13075: 
; 13076: #else
; 13077: 
; 13078:     while (cnt) {

  00000	8b 54 24 08	 mov	 edx, DWORD PTR _cnt$[esp-4]
  00004	8b 44 24 04	 mov	 eax, DWORD PTR _ptr$[esp-4]
  00008	8b c8		 mov	 ecx, eax
  0000a	85 d2		 test	 edx, edx
  0000c	74 0b		 je	 SHORT $LN1@RtlSecureZ
  0000e	8b ff		 npad	 2
$LL2@RtlSecureZ:

; 13079:         *vptr = 0;

  00010	c6 01 00	 mov	 BYTE PTR [ecx], 0

; 13080:         vptr++;

  00013	41		 inc	 ecx

; 13081:         cnt--;

  00014	83 ea 01	 sub	 edx, 1
  00017	75 f7		 jne	 SHORT $LL2@RtlSecureZ
$LN1@RtlSecureZ:

; 13082:     }
; 13083: 
; 13084: #endif
; 13085: 
; 13086:     return ptr;
; 13087: }

  00019	c3		 ret	 0
_RtlSecureZeroMemory ENDP
_TEXT	ENDS
PUBLIC	_szVerify$GSCopy$
PUBLIC	_hButton$GSCopy$
PUBLIC	__$ArrayPad$
PUBLIC	_VerifyPasswordAndUpdate
EXTRN	__imp__EnableWindow@8:PROC
EXTRN	__imp__GetWindowTextA@12:PROC
EXTRN	__imp__GetWindowTextLengthA@4:PROC
EXTRN	___security_cookie:DWORD
EXTRN	@__security_check_cookie@4:PROC
; Function compile flags: /Ogtpy
; File c:\home\public\desktop\projects\ciphershed.build\src\common\password.c
;	COMDAT _VerifyPasswordAndUpdate
_TEXT	SEGMENT
_hButton$GSCopy$ = -148					; size = 4
_szVerify$GSCopy$ = -144				; size = 4
_szTmp1$ = -140						; size = 65
_szTmp2$ = -72						; size = 65
__$ArrayPad$ = -4					; size = 4
_hwndDlg$ = 8						; size = 4
_hButton$ = 12						; size = 4
_hPassword$ = 16					; size = 4
_hVerify$ = 20						; size = 4
_szPassword$ = 24					; size = 4
_szVerify$ = 28						; size = 4
_keyFilesEnabled$ = 32					; size = 4
_VerifyPasswordAndUpdate PROC				; COMDAT

; 30   : {

  00000	81 ec 94 00 00
	00		 sub	 esp, 148		; 00000094H
  00006	a1 00 00 00 00	 mov	 eax, DWORD PTR ___security_cookie
  0000b	33 c4		 xor	 eax, esp
  0000d	89 84 24 90 00
	00 00		 mov	 DWORD PTR __$ArrayPad$[esp+148], eax
  00014	8b 84 24 9c 00
	00 00		 mov	 eax, DWORD PTR _hButton$[esp+144]
  0001b	8b 8c 24 ac 00
	00 00		 mov	 ecx, DWORD PTR _szVerify$[esp+144]
  00022	53		 push	 ebx
  00023	8b 9c 24 a8 00
	00 00		 mov	 ebx, DWORD PTR _hVerify$[esp+148]
  0002a	55		 push	 ebp
  0002b	8b ac 24 b0 00
	00 00		 mov	 ebp, DWORD PTR _szPassword$[esp+152]
  00032	56		 push	 esi
  00033	8b b4 24 ac 00
	00 00		 mov	 esi, DWORD PTR _hPassword$[esp+156]
  0003a	57		 push	 edi

; 31   : 	char szTmp1[MAX_PASSWORD + 1];
; 32   : 	char szTmp2[MAX_PASSWORD + 1];
; 33   : 	int k = GetWindowTextLength (hPassword);

  0003b	56		 push	 esi

; 52   : 		memcpy (szPassword, szTmp1, sizeof (szTmp1));

  0003c	89 44 24 14	 mov	 DWORD PTR _hButton$GSCopy$[esp+168], eax
  00040	89 4c 24 18	 mov	 DWORD PTR _szVerify$GSCopy$[esp+168], ecx
  00044	ff 15 00 00 00
	00		 call	 DWORD PTR __imp__GetWindowTextLengthA@4
  0004a	6a 41		 push	 65			; 00000041H
  0004c	8d 54 24 1c	 lea	 edx, DWORD PTR _szTmp1$[esp+168]
  00050	52		 push	 edx
  00051	56		 push	 esi
  00052	8b 35 00 00 00
	00		 mov	 esi, DWORD PTR __imp__GetWindowTextA@12
  00058	8b f8		 mov	 edi, eax
  0005a	ff d6		 call	 esi
  0005c	6a 41		 push	 65			; 00000041H
  0005e	8d 44 24 60	 lea	 eax, DWORD PTR _szTmp2$[esp+168]
  00062	50		 push	 eax
  00063	53		 push	 ebx
  00064	ff d6		 call	 esi
  00066	8d 4c 24 5c	 lea	 ecx, DWORD PTR _szTmp2$[esp+164]
  0006a	8d 44 24 18	 lea	 eax, DWORD PTR _szTmp1$[esp+164]
  0006e	8b ff		 npad	 2
$LL44@VerifyPass:
  00070	8a 10		 mov	 dl, BYTE PTR [eax]
  00072	3a 11		 cmp	 dl, BYTE PTR [ecx]
  00074	75 1a		 jne	 SHORT $LN45@VerifyPass

; 34   : 	BOOL bEnable = FALSE;
; 35   : 
; 36   : 	if (hwndDlg);		/* Remove warning */
; 37   : 
; 38   : 	GetWindowText (hPassword, szTmp1, sizeof (szTmp1));
; 39   : 	GetWindowText (hVerify, szTmp2, sizeof (szTmp2));
; 40   : 
; 41   : 	if (strcmp (szTmp1, szTmp2) != 0)

  00076	84 d2		 test	 dl, dl
  00078	74 12		 je	 SHORT $LN46@VerifyPass
  0007a	8a 50 01	 mov	 dl, BYTE PTR [eax+1]
  0007d	3a 51 01	 cmp	 dl, BYTE PTR [ecx+1]
  00080	75 0e		 jne	 SHORT $LN45@VerifyPass
  00082	83 c0 02	 add	 eax, 2
  00085	83 c1 02	 add	 ecx, 2
  00088	84 d2		 test	 dl, dl
  0008a	75 e4		 jne	 SHORT $LL44@VerifyPass
$LN46@VerifyPass:
  0008c	33 c0		 xor	 eax, eax
  0008e	eb 05		 jmp	 SHORT $LN47@VerifyPass
$LN45@VerifyPass:
  00090	1b c0		 sbb	 eax, eax
  00092	83 d8 ff	 sbb	 eax, -1
$LN47@VerifyPass:
  00095	85 c0		 test	 eax, eax
  00097	74 04		 je	 SHORT $LN17@VerifyPass

; 42   : 		bEnable = FALSE;

  00099	33 db		 xor	 ebx, ebx

; 43   : 	else

  0009b	eb 18		 jmp	 SHORT $LN13@VerifyPass
$LN17@VerifyPass:

; 44   : 	{
; 45   : 		if (k >= MIN_PASSWORD || keyFilesEnabled)

  0009d	83 ff 01	 cmp	 edi, 1
  000a0	7d 0e		 jge	 SHORT $LN14@VerifyPass
  000a2	83 bc 24 c0 00
	00 00 00	 cmp	 DWORD PTR _keyFilesEnabled$[esp+160], 0
  000aa	75 04		 jne	 SHORT $LN14@VerifyPass

; 47   : 		else
; 48   : 			bEnable = FALSE;

  000ac	33 db		 xor	 ebx, ebx
  000ae	eb 05		 jmp	 SHORT $LN13@VerifyPass
$LN14@VerifyPass:

; 46   : 			bEnable = TRUE;

  000b0	bb 01 00 00 00	 mov	 ebx, 1
$LN13@VerifyPass:

; 49   : 	}
; 50   : 
; 51   : 	if (szPassword != NULL)

  000b5	85 ed		 test	 ebp, ebp
  000b7	74 0e		 je	 SHORT $LN12@VerifyPass

; 52   : 		memcpy (szPassword, szTmp1, sizeof (szTmp1));

  000b9	b9 10 00 00 00	 mov	 ecx, 16			; 00000010H
  000be	8d 74 24 18	 lea	 esi, DWORD PTR _szTmp1$[esp+164]
  000c2	8b fd		 mov	 edi, ebp
  000c4	f3 a5		 rep movsd
  000c6	a4		 movsb
$LN12@VerifyPass:

; 53   : 
; 54   : 	if (szVerify != NULL)

  000c7	8b 7c 24 14	 mov	 edi, DWORD PTR _szVerify$GSCopy$[esp+164]
  000cb	85 ff		 test	 edi, edi
  000cd	74 0c		 je	 SHORT $LN10@VerifyPass

; 55   : 		memcpy (szVerify, szTmp2, sizeof (szTmp2));

  000cf	b9 10 00 00 00	 mov	 ecx, 16			; 00000010H
  000d4	8d 74 24 5c	 lea	 esi, DWORD PTR _szTmp2$[esp+164]
  000d8	f3 a5		 rep movsd
  000da	a4		 movsb
$LN10@VerifyPass:

; 56   : 
; 57   : 	burn (szTmp1, sizeof (szTmp1));

  000db	8d 54 24 18	 lea	 edx, DWORD PTR _szTmp1$[esp+164]
  000df	b9 41 00 00 00	 mov	 ecx, 65			; 00000041H
  000e4	8b f1		 mov	 esi, ecx
  000e6	8b c2		 mov	 eax, edx
$LL22@VerifyPass:
  000e8	c6 00 00	 mov	 BYTE PTR [eax], 0
  000eb	40		 inc	 eax
  000ec	83 ee 01	 sub	 esi, 1
  000ef	75 f7		 jne	 SHORT $LL22@VerifyPass
$LL7@VerifyPass:
  000f1	49		 dec	 ecx
  000f2	c6 02 00	 mov	 BYTE PTR [edx], 0
  000f5	42		 inc	 edx
  000f6	85 c9		 test	 ecx, ecx
  000f8	75 f7		 jne	 SHORT $LL7@VerifyPass

; 58   : 	burn (szTmp2, sizeof (szTmp2));

  000fa	8d 54 24 5c	 lea	 edx, DWORD PTR _szTmp2$[esp+164]
  000fe	b9 41 00 00 00	 mov	 ecx, 65			; 00000041H
  00103	8b f1		 mov	 esi, ecx
  00105	8b c2		 mov	 eax, edx
$LL26@VerifyPass:
  00107	c6 00 00	 mov	 BYTE PTR [eax], 0
  0010a	40		 inc	 eax
  0010b	83 ee 01	 sub	 esi, 1
  0010e	75 f7		 jne	 SHORT $LL26@VerifyPass
$LL2@VerifyPass:
  00110	49		 dec	 ecx
  00111	c6 02 00	 mov	 BYTE PTR [edx], 0
  00114	42		 inc	 edx
  00115	85 c9		 test	 ecx, ecx
  00117	75 f7		 jne	 SHORT $LL2@VerifyPass

; 59   : 
; 60   : 	EnableWindow (hButton, bEnable);

  00119	8b 4c 24 10	 mov	 ecx, DWORD PTR _hButton$GSCopy$[esp+164]
  0011d	53		 push	 ebx
  0011e	51		 push	 ecx
  0011f	ff 15 00 00 00
	00		 call	 DWORD PTR __imp__EnableWindow@8

; 61   : }

  00125	8b 8c 24 a0 00
	00 00		 mov	 ecx, DWORD PTR __$ArrayPad$[esp+164]
  0012c	5f		 pop	 edi
  0012d	5e		 pop	 esi
  0012e	5d		 pop	 ebp
  0012f	5b		 pop	 ebx
  00130	33 cc		 xor	 ecx, esp
  00132	e8 00 00 00 00	 call	 @__security_check_cookie@4
  00137	81 c4 94 00 00
	00		 add	 esp, 148		; 00000094H
  0013d	c3		 ret	 0
_VerifyPasswordAndUpdate ENDP
_TEXT	ENDS
PUBLIC	__$ArrayPad$
PUBLIC	_CheckPasswordCharEncoding
EXTRN	__imp__GetWindowTextW@12:PROC
EXTRN	__imp__GetWindowTextLengthW@4:PROC
; Function compile flags: /Ogtpy
;	COMDAT _CheckPasswordCharEncoding
_TEXT	SEGMENT
_s$80731 = -136						; size = 130
__$ArrayPad$ = -4					; size = 4
_hPassword$ = 8						; size = 4
_ptrPw$ = 12						; size = 4
_CheckPasswordCharEncoding PROC				; COMDAT

; 65   : {

  00000	81 ec 88 00 00
	00		 sub	 esp, 136		; 00000088H
  00006	a1 00 00 00 00	 mov	 eax, DWORD PTR ___security_cookie
  0000b	33 c4		 xor	 eax, esp
  0000d	89 84 24 84 00
	00 00		 mov	 DWORD PTR __$ArrayPad$[esp+136], eax
  00014	53		 push	 ebx
  00015	56		 push	 esi
  00016	8b b4 24 94 00
	00 00		 mov	 esi, DWORD PTR _hPassword$[esp+140]

; 66   : 	int i, len;
; 67   : 
; 68   : 	//It would not make sense to have both parameters specified.
; 69   : 	if (hPassword!=NULL && ptrPw!=NULL)

  0001d	85 f6		 test	 esi, esi
  0001f	74 23		 je	 SHORT $LN40@CheckPassw
  00021	83 bc 24 98 00
	00 00 00	 cmp	 DWORD PTR _ptrPw$[esp+140], 0
  00029	74 4e		 je	 SHORT $LN20@CheckPassw
$LN46@CheckPassw:
  0002b	5e		 pop	 esi

; 70   : 	{
; 71   : 		return FALSE;

  0002c	33 c0		 xor	 eax, eax
  0002e	5b		 pop	 ebx

; 135  : }

  0002f	8b 8c 24 84 00
	00 00		 mov	 ecx, DWORD PTR __$ArrayPad$[esp+136]
  00036	33 cc		 xor	 ecx, esp
  00038	e8 00 00 00 00	 call	 @__security_check_cookie@4
  0003d	81 c4 88 00 00
	00		 add	 esp, 136		; 00000088H
  00043	c3		 ret	 0
$LN40@CheckPassw:

; 72   : 	}
; 73   : 
; 74   : 	if (hPassword==NULL && ptrPw==NULL)

  00044	8b b4 24 98 00
	00 00		 mov	 esi, DWORD PTR _ptrPw$[esp+140]
  0004b	85 f6		 test	 esi, esi

; 75   : 	{
; 76   : 		return FALSE;

  0004d	74 dc		 je	 SHORT $LN46@CheckPassw

; 77   : 	}
; 78   : 
; 79   : 	if (hPassword == NULL)
; 80   : 	{
; 81   : 		unsigned char *pw;
; 82   : 		len = ptrPw->Length;

  0004f	8b 16		 mov	 edx, DWORD PTR [esi]

; 83   : 
; 84   : 		if (len>=sizeof(ptrPw->Text))
; 85   : 		{
; 86   : 			return FALSE;

  00051	33 c0		 xor	 eax, eax
  00053	83 fa 41	 cmp	 edx, 65			; 00000041H
  00056	0f 83 8b 00 00
	00		 jae	 $LN23@CheckPassw

; 87   : 		}
; 88   : 
; 89   : 		pw = (unsigned char *) ptrPw->Text;
; 90   : 
; 91   : 		for (i = 0; i < len; i++)

  0005c	85 d2		 test	 edx, edx
  0005e	0f 8e 7e 00 00
	00		 jle	 $LN1@CheckPassw
$LL18@CheckPassw:

; 92   : 		{
; 93   : 			//for i in `seq 32 126`; do printf "\x$(printf %x $i) "; done
; 94   : 			if (pw[i] >= 0x7f || pw[i] < 0x20)	// A non-ASCII or non-printable character?

  00064	8a 4c 30 04	 mov	 cl, BYTE PTR [eax+esi+4]
  00068	80 f9 7f	 cmp	 cl, 127			; 0000007fH
  0006b	73 be		 jae	 SHORT $LN46@CheckPassw
  0006d	80 f9 20	 cmp	 cl, 32			; 00000020H
  00070	72 b9		 jb	 SHORT $LN46@CheckPassw
  00072	40		 inc	 eax
  00073	3b c2		 cmp	 eax, edx
  00075	7c ed		 jl	 SHORT $LL18@CheckPassw

; 121  : 		{
; 122  : 			if (s[i] >= 0x7f || s[i] < 0x20)	// A non-ASCII or non-printable character?

  00077	eb 69		 jmp	 SHORT $LN1@CheckPassw
$LN20@CheckPassw:

; 95   : 			{
; 96   : 				return FALSE;
; 97   : 			}
; 98   : 		}
; 99   : 	}
; 100  : 	else
; 101  : 	{
; 102  : 		wchar_t s[MAX_PASSWORD + 1];
; 103  : 		// Below GetWindowTextW is called, ensure the same suffix functionis called 
; 104  : 		// GetWindowTextLength may be defined as GetWindowTextLengthA which would at 
; 105  : 		// best return double the length
; 106  : 		len = GetWindowTextLengthW (hPassword);

  00079	56		 push	 esi
  0007a	ff 15 00 00 00
	00		 call	 DWORD PTR __imp__GetWindowTextLengthW@4
  00080	8b d8		 mov	 ebx, eax

; 107  : 
; 108  : 		// this is disingenuous here, because the GetWindowTextLength function docs say to use strlen 
; 109  : 		// on the return from GetWindowText because GetWindowTextLength >= strlen
; 110  : 		//
; 111  : 		// This check should happen after GetWindowText
; 112  : 		// len=strlen(s)
; 113  : 		if (len > MAX_PASSWORD)

  00082	83 fb 40	 cmp	 ebx, 64			; 00000040H

; 114  : 		{
; 115  : 			return FALSE; 

  00085	7f a4		 jg	 SHORT $LN46@CheckPassw
  00087	57		 push	 edi

; 116  : 		}
; 117  : 
; 118  : 		GetWindowTextW (hPassword, s, sizeof (s) / sizeof (wchar_t));

  00088	6a 41		 push	 65			; 00000041H
  0008a	8d 44 24 10	 lea	 eax, DWORD PTR _s$80731[esp+152]
  0008e	50		 push	 eax
  0008f	56		 push	 esi
  00090	ff 15 00 00 00
	00		 call	 DWORD PTR __imp__GetWindowTextW@12

; 119  : 
; 120  : 		for (i = 0; i < len; i++)

  00096	33 ff		 xor	 edi, edi
  00098	85 db		 test	 ebx, ebx
  0009a	7e 1a		 jle	 SHORT $LN6@CheckPassw
  0009c	8d 64 24 00	 npad	 4
$LL11@CheckPassw:

; 121  : 		{
; 122  : 			if (s[i] >= 0x7f || s[i] < 0x20)	// A non-ASCII or non-printable character?

  000a0	0f b7 44 7c 0c	 movzx	 eax, WORD PTR _s$80731[esp+edi*2+148]
  000a5	66 83 f8 7f	 cmp	 ax, 127			; 0000007fH
  000a9	73 0b		 jae	 SHORT $LN6@CheckPassw
  000ab	66 83 f8 20	 cmp	 ax, 32			; 00000020H
  000af	72 05		 jb	 SHORT $LN6@CheckPassw
  000b1	47		 inc	 edi
  000b2	3b fb		 cmp	 edi, ebx
  000b4	7c ea		 jl	 SHORT $LL11@CheckPassw
$LN6@CheckPassw:

; 123  : 				break;
; 124  : 		}
; 125  : 
; 126  : 		burn (s, sizeof(s));

  000b6	8d 54 24 0c	 lea	 edx, DWORD PTR _s$80731[esp+148]
  000ba	b9 82 00 00 00	 mov	 ecx, 130		; 00000082H
  000bf	8b f1		 mov	 esi, ecx
  000c1	8b c2		 mov	 eax, edx
$LL26@CheckPassw:
  000c3	c6 00 00	 mov	 BYTE PTR [eax], 0
  000c6	40		 inc	 eax
  000c7	83 ee 01	 sub	 esi, 1
  000ca	75 f7		 jne	 SHORT $LL26@CheckPassw
  000cc	8d 64 24 00	 npad	 4
$LL3@CheckPassw:
  000d0	49		 dec	 ecx
  000d1	c6 02 00	 mov	 BYTE PTR [edx], 0
  000d4	42		 inc	 edx
  000d5	85 c9		 test	 ecx, ecx
  000d7	75 f7		 jne	 SHORT $LL3@CheckPassw

; 127  : 
; 128  : 		if (i < len)

  000d9	3b fb		 cmp	 edi, ebx
  000db	5f		 pop	 edi

; 129  : 		{
; 130  : 			return FALSE; 

  000dc	0f 8c 49 ff ff
	ff		 jl	 $LN46@CheckPassw
$LN1@CheckPassw:

; 131  : 		}
; 132  : 	}
; 133  : 
; 134  : 	return TRUE;

  000e2	b8 01 00 00 00	 mov	 eax, 1
$LN23@CheckPassw:

; 135  : }

  000e7	8b 8c 24 8c 00
	00 00		 mov	 ecx, DWORD PTR __$ArrayPad$[esp+144]
  000ee	5e		 pop	 esi
  000ef	5b		 pop	 ebx
  000f0	33 cc		 xor	 ecx, esp
  000f2	e8 00 00 00 00	 call	 @__security_check_cookie@4
  000f7	81 c4 88 00 00
	00		 add	 esp, 136		; 00000088H
  000fd	c3		 ret	 0
_CheckPasswordCharEncoding ENDP
_TEXT	ENDS
PUBLIC	??_C@_0BI@FPFPGNBO@PASSWORD_LENGTH_WARNING?$AA@	; `string'
PUBLIC	_CheckPasswordLength
EXTRN	__imp__MessageBoxW@16:PROC
EXTRN	_GetString:PROC
EXTRN	_lpszTitle:DWORD
;	COMDAT ??_C@_0BI@FPFPGNBO@PASSWORD_LENGTH_WARNING?$AA@
CONST	SEGMENT
??_C@_0BI@FPFPGNBO@PASSWORD_LENGTH_WARNING?$AA@ DB 'PASSWORD_LENGTH_WARNI'
	DB	'NG', 00H					; `string'
; Function compile flags: /Ogtpy
CONST	ENDS
;	COMDAT _CheckPasswordLength
_TEXT	SEGMENT
_hwndDlg$ = 8						; size = 4
_hwndItem$ = 12						; size = 4
_CheckPasswordLength PROC				; COMDAT

; 140  : 	if (GetWindowTextLength (hwndItem) < PASSWORD_LEN_WARNING)

  00000	8b 44 24 08	 mov	 eax, DWORD PTR _hwndItem$[esp-4]
  00004	50		 push	 eax
  00005	ff 15 00 00 00
	00		 call	 DWORD PTR __imp__GetWindowTextLengthA@4
  0000b	83 f8 14	 cmp	 eax, 20			; 00000014H
  0000e	7d 2d		 jge	 SHORT $LN1@CheckPassw@2

; 141  : 	{
; 142  : #ifndef _DEBUG
; 143  : 		if (MessageBoxW (hwndDlg, GetString ("PASSWORD_LENGTH_WARNING"), lpszTitle, MB_YESNO|MB_ICONWARNING|MB_DEFBUTTON2) != IDYES)

  00010	8b 0d 00 00 00
	00		 mov	 ecx, DWORD PTR _lpszTitle
  00016	68 34 01 00 00	 push	 308			; 00000134H
  0001b	51		 push	 ecx
  0001c	68 00 00 00 00	 push	 OFFSET ??_C@_0BI@FPFPGNBO@PASSWORD_LENGTH_WARNING?$AA@
  00021	e8 00 00 00 00	 call	 _GetString
  00026	8b 54 24 10	 mov	 edx, DWORD PTR _hwndDlg$[esp+8]
  0002a	83 c4 04	 add	 esp, 4
  0002d	50		 push	 eax
  0002e	52		 push	 edx
  0002f	ff 15 00 00 00
	00		 call	 DWORD PTR __imp__MessageBoxW@16
  00035	83 f8 06	 cmp	 eax, 6
  00038	74 03		 je	 SHORT $LN1@CheckPassw@2

; 144  : 			return FALSE;

  0003a	33 c0		 xor	 eax, eax

; 148  : }

  0003c	c3		 ret	 0
$LN1@CheckPassw@2:

; 145  : #endif
; 146  : 	}
; 147  : 	return TRUE;

  0003d	b8 01 00 00 00	 mov	 eax, 1

; 148  : }

  00042	c3		 ret	 0
_CheckPasswordLength ENDP
_TEXT	ENDS
PUBLIC	_hwndDlg$GSCopy$
PUBLIC	_newPassword$GSCopy$
PUBLIC	__$ArrayPad$
PUBLIC	_ChangePwd
EXTRN	_handleError:PROC
EXTRN	_IsUacSupported:PROC
EXTRN	_UacElevated:DWORD
EXTRN	__imp__SetLastError@4:PROC
EXTRN	_RandStop:PROC
EXTRN	_RemoveFakeDosName:PROC
EXTRN	__imp__CloseHandle@4:PROC
EXTRN	__imp__SetFileTime@16:PROC
EXTRN	__imp__GetLastError@0:PROC
EXTRN	__imp__FlushFileBuffers@4:PROC
EXTRN	_WriteRandomDataToReservedHeaderAreas:PROC
EXTRN	_WriteEffectiveVolumeHeader:PROC
EXTRN	_crypto_close:PROC
EXTRN	_CreateVolumeHeaderInMemory:PROC
EXTRN	_EnableElevatedCursorChange:PROC
EXTRN	_UserEnrichRandomPool:PROC
EXTRN	_NormalCursor:PROC
EXTRN	_RandSetHashFunction:PROC
EXTRN	_ReadVolumeHeader:PROC
EXTRN	_ReadEffectiveVolumeHeader:PROC
EXTRN	__imp__SetFilePointerEx@20:PROC
EXTRN	__imp__GetFileTime@16:PROC
EXTRN	_bPreserveTimestamp:DWORD
EXTRN	_Randinit:PROC
EXTRN	__imp__GetFileSizeEx@8:PROC
EXTRN	_GetPartitionInfo:PROC
EXTRN	__imp__DeviceIoControl@32:PROC
EXTRN	__imp__CreateFileA@28:PROC
EXTRN	_FakeDosNameForDevice:PROC
EXTRN	_strcpy_s:PROC
EXTRN	_CreateFullVolumePath:PROC
EXTRN	_WaitCursor:PROC
EXTRN	_memset:PROC
EXTRN	__allmul:PROC
; Function compile flags: /Ogtpy
;	COMDAT _ChangePwd
_TEXT	SEGMENT
_cryptoInfo$ = -1444					; size = 4
_bDevice$ = -1440					; size = 4
_dev$ = -1436						; size = 4
_hostSize$ = -1432					; size = 8
_headerOffset$ = -1424					; size = 8
_volumeType$ = -1416					; size = 4
_hwndDlg$GSCopy$ = -1412				; size = 4
_ci$ = -1408						; size = 4
_nDosLinkCreated$ = -1404				; size = 4
_bTimeStampValid$ = -1400				; size = 4
_newPassword$GSCopy$ = -1396				; size = 4
_bytesRead$ = -1392					; size = 4
_fileSize$80820 = -1388					; size = 8
_driveInfo$ = -1380					; size = 24
_ftLastAccessTime$ = -1356				; size = 8
_ftCreationTime$ = -1348				; size = 8
_ftLastWriteTime$ = -1340				; size = 8
_dwResult$80811 = -1332					; size = 4
_diskInfo$80810 = -1328					; size = 32
_szDiskFile$ = -1296					; size = 260
_buffer$ = -1036					; size = 512
_szCFDevice$ = -524					; size = 260
_szDosDevice$ = -264					; size = 260
__$ArrayPad$ = -4					; size = 4
_lpszVolume$ = 8					; size = 4
_oldPassword$ = 12					; size = 4
_newPassword$ = 16					; size = 4
_pkcs5$ = 20						; size = 4
_hwndDlg$ = 24						; size = 4
_ChangePwd PROC						; COMDAT

; 151  : {

  00000	81 ec a4 05 00
	00		 sub	 esp, 1444		; 000005a4H
  00006	a1 00 00 00 00	 mov	 eax, DWORD PTR ___security_cookie
  0000b	33 c4		 xor	 eax, esp
  0000d	89 84 24 a0 05
	00 00		 mov	 DWORD PTR __$ArrayPad$[esp+1444], eax
  00014	8b 84 24 b0 05
	00 00		 mov	 eax, DWORD PTR _newPassword$[esp+1440]

; 152  : 	int nDosLinkCreated = 1, nStatus = ERR_OS_ERROR;

  0001b	8b 8c 24 b8 05
	00 00		 mov	 ecx, DWORD PTR _hwndDlg$[esp+1440]
  00022	53		 push	 ebx
  00023	55		 push	 ebp
  00024	8b ac 24 b0 05
	00 00		 mov	 ebp, DWORD PTR _lpszVolume$[esp+1448]
  0002b	56		 push	 esi

; 153  : 	char szDiskFile[TC_MAX_PATH], szCFDevice[TC_MAX_PATH];
; 154  : 	char szDosDevice[TC_MAX_PATH];
; 155  : 	char buffer[TC_VOLUME_HEADER_EFFECTIVE_SIZE];
; 156  : 	PCRYPTO_INFO cryptoInfo = NULL, ci = NULL;

  0002c	33 db		 xor	 ebx, ebx
  0002e	57		 push	 edi
  0002f	8b bc 24 bc 05
	00 00		 mov	 edi, DWORD PTR _oldPassword$[esp+1456]
  00036	be 01 00 00 00	 mov	 esi, 1
  0003b	89 44 24 40	 mov	 DWORD PTR _newPassword$GSCopy$[esp+1460], eax
  0003f	89 4c 24 30	 mov	 DWORD PTR _hwndDlg$GSCopy$[esp+1460], ecx
  00043	89 74 24 38	 mov	 DWORD PTR _nDosLinkCreated$[esp+1460], esi
  00047	89 5c 24 10	 mov	 DWORD PTR _cryptoInfo$[esp+1460], ebx
  0004b	89 5c 24 34	 mov	 DWORD PTR _ci$[esp+1460], ebx

; 157  : 	void *dev = INVALID_HANDLE_VALUE;

  0004f	c7 44 24 18 ff
	ff ff ff	 mov	 DWORD PTR _dev$[esp+1460], -1

; 158  : 	DWORD dwError;
; 159  : 	DWORD bytesRead;
; 160  : 	BOOL bDevice;
; 161  : 	unsigned __int64 hostSize = 0;
; 162  : 	int volumeType;
; 163  : 	int wipePass;
; 164  : 	FILETIME ftCreationTime;
; 165  : 	FILETIME ftLastWriteTime;
; 166  : 	FILETIME ftLastAccessTime;
; 167  : 	BOOL bTimeStampValid = FALSE;

  00057	89 5c 24 3c	 mov	 DWORD PTR _bTimeStampValid$[esp+1460], ebx

; 168  : 	LARGE_INTEGER headerOffset;
; 169  : 	BOOL backupHeader;
; 170  : 	DISK_GEOMETRY driveInfo;
; 171  : 
; 172  : 	if (oldPassword->Length == 0 || newPassword->Length == 0) return -1;

  0005b	39 1f		 cmp	 DWORD PTR [edi], ebx
  0005d	0f 84 a6 05 00
	00		 je	 $LN63@ChangePwd
  00063	39 18		 cmp	 DWORD PTR [eax], ebx
  00065	0f 84 9e 05 00
	00		 je	 $LN63@ChangePwd

; 173  : 
; 174  : 	WaitCursor ();

  0006b	e8 00 00 00 00	 call	 _WaitCursor

; 175  : 
; 176  : 	CreateFullVolumePath (szDiskFile, lpszVolume, &bDevice);

  00070	8d 54 24 14	 lea	 edx, DWORD PTR _bDevice$[esp+1460]
  00074	52		 push	 edx
  00075	8d 84 24 a8 00
	00 00		 lea	 eax, DWORD PTR _szDiskFile$[esp+1464]
  0007c	55		 push	 ebp
  0007d	50		 push	 eax
  0007e	e8 00 00 00 00	 call	 _CreateFullVolumePath
  00083	83 c4 0c	 add	 esp, 12			; 0000000cH

; 177  : 
; 178  : 	if (bDevice == FALSE)

  00086	39 5c 24 14	 cmp	 DWORD PTR _bDevice$[esp+1460], ebx
  0008a	75 1f		 jne	 SHORT $LN62@ChangePwd

; 179  : 	{
; 180  : 		strcpy_s (szCFDevice, sizeof(szCFDevice), szDiskFile);

  0008c	8d 8c 24 a4 00
	00 00		 lea	 ecx, DWORD PTR _szDiskFile$[esp+1460]
  00093	51		 push	 ecx
  00094	8d 94 24 ac 03
	00 00		 lea	 edx, DWORD PTR _szCFDevice$[esp+1464]
  0009b	68 04 01 00 00	 push	 260			; 00000104H
  000a0	52		 push	 edx
  000a1	e8 00 00 00 00	 call	 _strcpy_s
  000a6	83 c4 0c	 add	 esp, 12			; 0000000cH

; 181  : 	}
; 182  : 	else

  000a9	eb 2d		 jmp	 SHORT $LN60@ChangePwd
$LN62@ChangePwd:

; 183  : 	{
; 184  : 		nDosLinkCreated = FakeDosNameForDevice (szDiskFile, szDosDevice, szCFDevice, FALSE);

  000ab	53		 push	 ebx
  000ac	8d 84 24 ac 03
	00 00		 lea	 eax, DWORD PTR _szCFDevice$[esp+1464]
  000b3	50		 push	 eax
  000b4	8d 8c 24 b4 04
	00 00		 lea	 ecx, DWORD PTR _szDosDevice$[esp+1468]
  000bb	51		 push	 ecx
  000bc	8d 94 24 b0 00
	00 00		 lea	 edx, DWORD PTR _szDiskFile$[esp+1472]
  000c3	52		 push	 edx
  000c4	e8 00 00 00 00	 call	 _FakeDosNameForDevice
  000c9	83 c4 10	 add	 esp, 16			; 00000010H
  000cc	89 44 24 38	 mov	 DWORD PTR _nDosLinkCreated$[esp+1460], eax

; 185  : 		
; 186  : 		if (nDosLinkCreated != 0)

  000d0	3b c3		 cmp	 eax, ebx
  000d2	0f 85 52 04 00
	00		 jne	 $error$80799
$LN60@ChangePwd:

; 187  : 			goto error;
; 188  : 	}
; 189  : 
; 190  : 	dev = CreateFile (szCFDevice, GENERIC_READ | GENERIC_WRITE, FILE_SHARE_READ | FILE_SHARE_WRITE, NULL, OPEN_EXISTING, 0, NULL);

  000d8	6a 00		 push	 0
  000da	6a 00		 push	 0
  000dc	6a 03		 push	 3
  000de	6a 00		 push	 0
  000e0	6a 03		 push	 3
  000e2	68 00 00 00 c0	 push	 -1073741824		; c0000000H
  000e7	8d 84 24 c0 03
	00 00		 lea	 eax, DWORD PTR _szCFDevice$[esp+1484]
  000ee	50		 push	 eax
  000ef	ff 15 00 00 00
	00		 call	 DWORD PTR __imp__CreateFileA@28
  000f5	8b d8		 mov	 ebx, eax
  000f7	89 5c 24 18	 mov	 DWORD PTR _dev$[esp+1460], ebx

; 191  : 
; 192  : 	if (dev == INVALID_HANDLE_VALUE) 

  000fb	83 fb ff	 cmp	 ebx, -1
  000fe	0f 84 26 04 00
	00		 je	 $error$80799

; 193  : 		goto error;
; 194  : 
; 195  : 	if (bDevice)

  00104	83 7c 24 14 00	 cmp	 DWORD PTR _bDevice$[esp+1460], 0
  00109	0f 84 89 00 00
	00		 je	 $LN58@ChangePwd

; 196  : 	{
; 197  : 		/* This is necessary to determine the hidden volume header offset */
; 198  : 
; 199  : 		if (dev == INVALID_HANDLE_VALUE)
; 200  : 		{
; 201  : 			goto error;
; 202  : 		}
; 203  : 		else
; 204  : 		{
; 205  : 			PARTITION_INFORMATION diskInfo;
; 206  : 			DWORD dwResult;
; 207  : 			BOOL bResult;
; 208  : 
; 209  : 			bResult = DeviceIoControl (dev, IOCTL_DISK_GET_DRIVE_GEOMETRY, NULL, 0,
; 210  : 				&driveInfo, sizeof (driveInfo), &dwResult, NULL);

  0010f	6a 00		 push	 0
  00111	8d 8c 24 84 00
	00 00		 lea	 ecx, DWORD PTR _dwResult$80811[esp+1464]
  00118	51		 push	 ecx
  00119	6a 18		 push	 24			; 00000018H
  0011b	8d 54 24 5c	 lea	 edx, DWORD PTR _driveInfo$[esp+1472]
  0011f	52		 push	 edx
  00120	6a 00		 push	 0
  00122	6a 00		 push	 0
  00124	68 00 00 07 00	 push	 458752			; 00070000H
  00129	53		 push	 ebx
  0012a	ff 15 00 00 00
	00		 call	 DWORD PTR __imp__DeviceIoControl@32

; 211  : 
; 212  : 			if (!bResult)

  00130	85 c0		 test	 eax, eax
  00132	0f 84 f2 03 00
	00		 je	 $error$80799

; 213  : 				goto error;
; 214  : 
; 215  : 			bResult = GetPartitionInfo (lpszVolume, &diskInfo);

  00138	8d 84 24 84 00
	00 00		 lea	 eax, DWORD PTR _diskInfo$80810[esp+1460]
  0013f	50		 push	 eax
  00140	55		 push	 ebp
  00141	e8 00 00 00 00	 call	 _GetPartitionInfo
  00146	83 c4 08	 add	 esp, 8

; 216  : 
; 217  : 			if (bResult)

  00149	85 c0		 test	 eax, eax
  0014b	74 10		 je	 SHORT $LN54@ChangePwd

; 218  : 			{
; 219  : 				hostSize = diskInfo.PartitionLength.QuadPart;

  0014d	8b 84 24 8c 00
	00 00		 mov	 eax, DWORD PTR _diskInfo$80810[esp+1468]
  00154	8b 94 24 90 00
	00 00		 mov	 edx, DWORD PTR _diskInfo$80810[esp+1472]

; 220  : 			}
; 221  : 			else

  0015b	eb 27		 jmp	 SHORT $LN102@ChangePwd
$LN54@ChangePwd:

; 222  : 			{
; 223  : 				hostSize = driveInfo.Cylinders.QuadPart * driveInfo.BytesPerSector *
; 224  : 					driveInfo.SectorsPerTrack * driveInfo.TracksPerCylinder;

  0015d	8b 44 24 5c	 mov	 eax, DWORD PTR _driveInfo$[esp+1472]
  00161	f7 64 24 60	 mul	 DWORD PTR _driveInfo$[esp+1476]
  00165	8b 4c 24 64	 mov	 ecx, DWORD PTR _driveInfo$[esp+1480]
  00169	6a 00		 push	 0
  0016b	51		 push	 ecx
  0016c	52		 push	 edx
  0016d	50		 push	 eax
  0016e	e8 00 00 00 00	 call	 __allmul
  00173	8b 4c 24 54	 mov	 ecx, DWORD PTR _driveInfo$[esp+1464]
  00177	51		 push	 ecx
  00178	8b 4c 24 54	 mov	 ecx, DWORD PTR _driveInfo$[esp+1464]
  0017c	51		 push	 ecx
  0017d	52		 push	 edx
  0017e	50		 push	 eax
  0017f	e8 00 00 00 00	 call	 __allmul
$LN102@ChangePwd:
  00184	89 44 24 1c	 mov	 DWORD PTR _hostSize$[esp+1460], eax

; 225  : 			}
; 226  : 
; 227  : 			if (hostSize == 0)

  00188	0b c2		 or	 eax, edx
  0018a	89 54 24 20	 mov	 DWORD PTR _hostSize$[esp+1464], edx
  0018e	75 2c		 jne	 SHORT $LN51@ChangePwd

; 228  : 			{
; 229  : 				nStatus = ERR_VOL_SIZE_WRONG;

  00190	8d 70 07	 lea	 esi, DWORD PTR [eax+7]

; 230  : 				goto error;

  00193	e9 92 03 00 00	 jmp	 $error$80799
$LN58@ChangePwd:

; 231  : 			}
; 232  : 		}
; 233  : 	}
; 234  : 	else
; 235  : 	{
; 236  : 		LARGE_INTEGER fileSize;
; 237  : 		if (!GetFileSizeEx (dev, &fileSize))

  00198	8d 54 24 48	 lea	 edx, DWORD PTR _fileSize$80820[esp+1460]
  0019c	52		 push	 edx
  0019d	53		 push	 ebx
  0019e	ff 15 00 00 00
	00		 call	 DWORD PTR __imp__GetFileSizeEx@8
  001a4	85 c0		 test	 eax, eax

; 238  : 		{
; 239  : 			nStatus = ERR_OS_ERROR;
; 240  : 			goto error;

  001a6	0f 84 7e 03 00
	00		 je	 $error$80799

; 241  : 		}
; 242  : 
; 243  : 		hostSize = fileSize.QuadPart;

  001ac	8b 44 24 48	 mov	 eax, DWORD PTR _fileSize$80820[esp+1460]
  001b0	8b 4c 24 4c	 mov	 ecx, DWORD PTR _fileSize$80820[esp+1464]
  001b4	89 44 24 1c	 mov	 DWORD PTR _hostSize$[esp+1460], eax
  001b8	89 4c 24 20	 mov	 DWORD PTR _hostSize$[esp+1464], ecx
$LN51@ChangePwd:

; 244  : 	}
; 245  : 
; 246  : 	if (Randinit ())

  001bc	e8 00 00 00 00	 call	 _Randinit
  001c1	85 c0		 test	 eax, eax
  001c3	0f 85 61 03 00
	00		 jne	 $error$80799

; 247  : 		goto error;
; 248  : 
; 249  : 	if (!bDevice && bPreserveTimestamp)

  001c9	39 44 24 14	 cmp	 DWORD PTR _bDevice$[esp+1460], eax
  001cd	75 28		 jne	 SHORT $LN47@ChangePwd
  001cf	39 05 00 00 00
	00		 cmp	 DWORD PTR _bPreserveTimestamp, eax
  001d5	74 20		 je	 SHORT $LN47@ChangePwd

; 250  : 	{
; 251  : 		if (GetFileTime ((HANDLE) dev, &ftCreationTime, &ftLastAccessTime, &ftLastWriteTime) == 0)

  001d7	8d 54 24 78	 lea	 edx, DWORD PTR _ftLastWriteTime$[esp+1460]
  001db	52		 push	 edx
  001dc	8d 44 24 6c	 lea	 eax, DWORD PTR _ftLastAccessTime$[esp+1464]
  001e0	50		 push	 eax
  001e1	8d 4c 24 78	 lea	 ecx, DWORD PTR _ftCreationTime$[esp+1468]
  001e5	51		 push	 ecx
  001e6	53		 push	 ebx
  001e7	ff 15 00 00 00
	00		 call	 DWORD PTR __imp__GetFileTime@16
  001ed	f7 d8		 neg	 eax
  001ef	1b c0		 sbb	 eax, eax
  001f1	f7 d8		 neg	 eax
  001f3	89 44 24 3c	 mov	 DWORD PTR _bTimeStampValid$[esp+1460], eax
$LN47@ChangePwd:

; 252  : 			bTimeStampValid = FALSE;
; 253  : 		else
; 254  : 			bTimeStampValid = TRUE;
; 255  : 	}
; 256  : 
; 257  : 	for (volumeType = TC_VOLUME_TYPE_NORMAL; volumeType < TC_VOLUME_TYPE_COUNT; volumeType++)

  001f7	8b 6c 24 28	 mov	 ebp, DWORD PTR _headerOffset$[esp+1464]
  001fb	8b 5c 24 24	 mov	 ebx, DWORD PTR _headerOffset$[esp+1460]
  001ff	c7 44 24 2c 00
	00 00 00	 mov	 DWORD PTR _volumeType$[esp+1460], 0
$LL45@ChangePwd:

; 258  : 	{
; 259  : 		// Seek the volume header
; 260  : 		switch (volumeType)

  00207	8b 44 24 2c	 mov	 eax, DWORD PTR _volumeType$[esp+1460]
  0020b	83 e8 00	 sub	 eax, 0
  0020e	74 53		 je	 SHORT $LN40@ChangePwd
  00210	83 e8 01	 sub	 eax, 1
  00213	74 2c		 je	 SHORT $LN39@ChangePwd
  00215	83 e8 01	 sub	 eax, 1
  00218	75 4d		 jne	 SHORT $LN41@ChangePwd

; 272  : 
; 273  : 		case TC_VOLUME_TYPE_HIDDEN_LEGACY:
; 274  : 			if (bDevice && driveInfo.BytesPerSector != TC_SECTOR_SIZE_LEGACY)

  0021a	39 44 24 14	 cmp	 DWORD PTR _bDevice$[esp+1460], eax
  0021e	74 0e		 je	 SHORT $LN36@ChangePwd
  00220	81 7c 24 64 00
	02 00 00	 cmp	 DWORD PTR _driveInfo$[esp+1480], 512 ; 00000200H
  00228	0f 85 b8 00 00
	00		 jne	 $LN44@ChangePwd
$LN36@ChangePwd:

; 275  : 				continue;
; 276  : 
; 277  : 			headerOffset.QuadPart = hostSize - TC_HIDDEN_VOLUME_HEADER_OFFSET_LEGACY;

  0022e	8b 5c 24 1c	 mov	 ebx, DWORD PTR _hostSize$[esp+1460]
  00232	8b 6c 24 20	 mov	 ebp, DWORD PTR _hostSize$[esp+1464]
  00236	81 eb 00 06 00
	00		 sub	 ebx, 1536		; 00000600H
  0023c	83 dd 00	 sbb	 ebp, 0

; 278  : 			break;

  0023f	eb 26		 jmp	 SHORT $LN41@ChangePwd
$LN39@ChangePwd:

; 264  : 			break;
; 265  : 
; 266  : 		case TC_VOLUME_TYPE_HIDDEN:
; 267  : 			if (TC_HIDDEN_VOLUME_HEADER_OFFSET + TC_VOLUME_HEADER_SIZE > hostSize)

  00241	83 7c 24 20 00	 cmp	 DWORD PTR _hostSize$[esp+1464], 0
  00246	0f 82 9a 00 00
	00		 jb	 $LN44@ChangePwd
  0024c	77 0e		 ja	 SHORT $LN95@ChangePwd
  0024e	81 7c 24 1c 00
	00 02 00	 cmp	 DWORD PTR _hostSize$[esp+1460], 131072 ; 00020000H
  00256	0f 82 8a 00 00
	00		 jb	 $LN44@ChangePwd
$LN95@ChangePwd:

; 268  : 				continue;
; 269  : 
; 270  : 			headerOffset.QuadPart = TC_HIDDEN_VOLUME_HEADER_OFFSET;

  0025c	bb 00 00 01 00	 mov	 ebx, 65536		; 00010000H

; 271  : 			break;

  00261	eb 02		 jmp	 SHORT $LN103@ChangePwd
$LN40@ChangePwd:

; 261  : 		{
; 262  : 		case TC_VOLUME_TYPE_NORMAL:
; 263  : 			headerOffset.QuadPart = TC_VOLUME_HEADER_OFFSET;

  00263	33 db		 xor	 ebx, ebx
$LN103@ChangePwd:
  00265	33 ed		 xor	 ebp, ebp
$LN41@ChangePwd:

; 279  : 		}
; 280  : 
; 281  : 		if (!SetFilePointerEx ((HANDLE) dev, headerOffset, NULL, FILE_BEGIN))

  00267	8b 74 24 18	 mov	 esi, DWORD PTR _dev$[esp+1460]
  0026b	6a 00		 push	 0
  0026d	6a 00		 push	 0
  0026f	55		 push	 ebp
  00270	53		 push	 ebx
  00271	56		 push	 esi
  00272	ff 15 00 00 00
	00		 call	 DWORD PTR __imp__SetFilePointerEx@20
  00278	85 c0		 test	 eax, eax
  0027a	0f 84 8d 00 00
	00		 je	 $LN78@ChangePwd

; 285  : 		}
; 286  : 
; 287  : 		/* Read in volume header */
; 288  : 		if (!ReadEffectiveVolumeHeader (bDevice, dev, (byte*)buffer, &bytesRead))

  00280	8b 4c 24 14	 mov	 ecx, DWORD PTR _bDevice$[esp+1460]
  00284	8d 54 24 44	 lea	 edx, DWORD PTR _bytesRead$[esp+1460]
  00288	52		 push	 edx
  00289	8d 84 24 ac 01
	00 00		 lea	 eax, DWORD PTR _buffer$[esp+1464]
  00290	50		 push	 eax
  00291	56		 push	 esi
  00292	51		 push	 ecx
  00293	e8 00 00 00 00	 call	 _ReadEffectiveVolumeHeader
  00298	83 c4 10	 add	 esp, 16			; 00000010H
  0029b	85 c0		 test	 eax, eax
  0029d	74 6e		 je	 SHORT $LN78@ChangePwd

; 289  : 		{
; 290  : 			nStatus = ERR_OS_ERROR;
; 291  : 			goto error;
; 292  : 		}
; 293  : 
; 294  : 		if (bytesRead != sizeof (buffer))

  0029f	81 7c 24 44 00
	02 00 00	 cmp	 DWORD PTR _bytesRead$[esp+1460], 512 ; 00000200H
  002a7	74 17		 je	 SHORT $LN33@ChangePwd

; 295  : 		{
; 296  : 			// Windows may report EOF when reading sectors from the last cluster of a device formatted as NTFS 
; 297  : 			memset (buffer, 0, sizeof (buffer));

  002a9	68 00 02 00 00	 push	 512			; 00000200H
  002ae	8d 94 24 ac 01
	00 00		 lea	 edx, DWORD PTR _buffer$[esp+1464]
  002b5	6a 00		 push	 0
  002b7	52		 push	 edx
  002b8	e8 00 00 00 00	 call	 _memset
  002bd	83 c4 0c	 add	 esp, 12			; 0000000cH
$LN33@ChangePwd:

; 298  : 		}
; 299  : 
; 300  : 		/* Try to decrypt the header */
; 301  : 
; 302  : 		nStatus = ReadVolumeHeader (FALSE, buffer, oldPassword, &cryptoInfo, NULL);

  002c0	6a 00		 push	 0
  002c2	8d 44 24 14	 lea	 eax, DWORD PTR _cryptoInfo$[esp+1464]
  002c6	50		 push	 eax
  002c7	57		 push	 edi
  002c8	8d 8c 24 b4 01
	00 00		 lea	 ecx, DWORD PTR _buffer$[esp+1472]
  002cf	51		 push	 ecx
  002d0	6a 00		 push	 0
  002d2	e8 00 00 00 00	 call	 _ReadVolumeHeader
  002d7	8b f0		 mov	 esi, eax
  002d9	83 c4 14	 add	 esp, 20			; 00000014H

; 303  : 		if (nStatus == ERR_CIPHER_INIT_WEAK_KEY)

  002dc	83 fe 12	 cmp	 esi, 18			; 00000012H
  002df	74 3a		 je	 SHORT $LN99@ChangePwd

; 304  : 			nStatus = 0;	// We can ignore this error here
; 305  : 
; 306  : 		if (nStatus == ERR_PASSWORD_WRONG)

  002e1	83 fe 03	 cmp	 esi, 3
  002e4	75 12		 jne	 SHORT $LN31@ChangePwd
$LN44@ChangePwd:

; 252  : 			bTimeStampValid = FALSE;
; 253  : 		else
; 254  : 			bTimeStampValid = TRUE;
; 255  : 	}
; 256  : 
; 257  : 	for (volumeType = TC_VOLUME_TYPE_NORMAL; volumeType < TC_VOLUME_TYPE_COUNT; volumeType++)

  002e6	8b 44 24 2c	 mov	 eax, DWORD PTR _volumeType$[esp+1460]
  002ea	40		 inc	 eax
  002eb	83 f8 03	 cmp	 eax, 3
  002ee	89 44 24 2c	 mov	 DWORD PTR _volumeType$[esp+1460], eax
  002f2	0f 8c 0f ff ff
	ff		 jl	 $LL45@ChangePwd
$LN31@ChangePwd:

; 275  : 				continue;
; 276  : 
; 277  : 			headerOffset.QuadPart = hostSize - TC_HIDDEN_VOLUME_HEADER_OFFSET_LEGACY;

  002f8	89 6c 24 28	 mov	 DWORD PTR _headerOffset$[esp+1464], ebp

; 307  : 		{
; 308  : 			continue;		// Try next volume type
; 309  : 		}
; 310  : 		else if (nStatus != 0)

  002fc	85 f6		 test	 esi, esi
  002fe	74 1f		 je	 SHORT $LN27@ChangePwd

; 311  : 		{
; 312  : 			cryptoInfo = NULL;

  00300	c7 44 24 10 00
	00 00 00	 mov	 DWORD PTR _cryptoInfo$[esp+1460], 0

; 313  : 			goto error;

  00308	e9 1d 02 00 00	 jmp	 $error$80799
$LN78@ChangePwd:

; 275  : 				continue;
; 276  : 
; 277  : 			headerOffset.QuadPart = hostSize - TC_HIDDEN_VOLUME_HEADER_OFFSET_LEGACY;

  0030d	89 6c 24 28	 mov	 DWORD PTR _headerOffset$[esp+1464], ebp
$LN81@ChangePwd:

; 282  : 		{
; 283  : 			nStatus = ERR_OS_ERROR;

  00311	be 01 00 00 00	 mov	 esi, 1

; 284  : 			goto error;

  00316	e9 0f 02 00 00	 jmp	 $error$80799
$LN99@ChangePwd:

; 275  : 				continue;
; 276  : 
; 277  : 			headerOffset.QuadPart = hostSize - TC_HIDDEN_VOLUME_HEADER_OFFSET_LEGACY;

  0031b	89 6c 24 28	 mov	 DWORD PTR _headerOffset$[esp+1464], ebp
$LN27@ChangePwd:

; 314  : 		}
; 315  : 		else 
; 316  : 			break;
; 317  : 	}
; 318  : 
; 319  : 	if (nStatus != 0)
; 320  : 	{
; 321  : 		cryptoInfo = NULL;
; 322  : 		goto error;
; 323  : 	}
; 324  : 
; 325  : 	if (cryptoInfo->HeaderFlags & TC_HEADER_FLAG_ENCRYPTED_SYSTEM)

  0031f	8b 44 24 10	 mov	 eax, DWORD PTR _cryptoInfo$[esp+1460]
  00323	f6 80 60 44 00
	00 01		 test	 BYTE PTR [eax+17504], 1
  0032a	74 0a		 je	 SHORT $LN26@ChangePwd

; 326  : 	{
; 327  : 		nStatus = ERR_SYS_HIDVOL_HEAD_REENC_MODE_WRONG;

  0032c	be 1f 00 00 00	 mov	 esi, 31			; 0000001fH

; 328  : 		goto error;

  00331	e9 f4 01 00 00	 jmp	 $error$80799
$LN26@ChangePwd:

; 329  : 	}
; 330  : 
; 331  : 	// Change the PKCS-5 PRF if requested by user
; 332  : 	if (pkcs5 != 0)

  00336	8b 8c 24 c4 05
	00 00		 mov	 ecx, DWORD PTR _pkcs5$[esp+1456]
  0033d	85 c9		 test	 ecx, ecx
  0033f	74 0a		 je	 SHORT $LN25@ChangePwd

; 333  : 		cryptoInfo->pkcs5 = pkcs5;

  00341	89 88 ec 43 00
	00		 mov	 DWORD PTR [eax+17388], ecx
  00347	8b 44 24 10	 mov	 eax, DWORD PTR _cryptoInfo$[esp+1460]
$LN25@ChangePwd:

; 334  : 
; 335  : 	RandSetHashFunction (cryptoInfo->pkcs5);

  0034b	8b 90 ec 43 00
	00		 mov	 edx, DWORD PTR [eax+17388]
  00351	52		 push	 edx
  00352	e8 00 00 00 00	 call	 _RandSetHashFunction

; 336  : 
; 337  : 	NormalCursor();

  00357	e8 00 00 00 00	 call	 _NormalCursor

; 338  : 	UserEnrichRandomPool (hwndDlg);

  0035c	8b 74 24 34	 mov	 esi, DWORD PTR _hwndDlg$GSCopy$[esp+1464]
  00360	56		 push	 esi
  00361	e8 00 00 00 00	 call	 _UserEnrichRandomPool

; 339  : 	EnableElevatedCursorChange (hwndDlg);

  00366	56		 push	 esi
  00367	e8 00 00 00 00	 call	 _EnableElevatedCursorChange
  0036c	83 c4 0c	 add	 esp, 12			; 0000000cH

; 340  : 	WaitCursor();

  0036f	e8 00 00 00 00	 call	 _WaitCursor

; 341  : 
; 342  : 	/* Re-encrypt the volume header */ 
; 343  : 	backupHeader = FALSE;

  00374	8b 44 24 10	 mov	 eax, DWORD PTR _cryptoInfo$[esp+1460]
  00378	33 ff		 xor	 edi, edi

; 344  : 
; 345  : 	while (TRUE)
; 346  : 	{
; 347  : 		/* The header will be re-encrypted PRAND_DISK_WIPE_PASSES times to prevent adversaries from using 
; 348  : 		techniques such as magnetic force microscopy or magnetic force scanning tunnelling microscopy
; 349  : 		to recover the overwritten header. According to Peter Gutmann, data should be overwritten 22
; 350  : 		times (ideally, 35 times) using non-random patterns and pseudorandom data. However, as users might
; 351  : 		impatiently interupt the process (etc.) we will not use the Gutmann's patterns but will write the
; 352  : 		valid re-encrypted header, i.e. pseudorandom data, and there will be many more passes than Guttman
; 353  : 		recommends. During each pass we will write a valid working header. Each pass will use the same master
; 354  : 		key, and also the same header key, secondary key (XTS), etc., derived from the new password. The only
; 355  : 		item that will be different for each pass will be the salt. This is sufficient to cause each "version"
; 356  : 		of the header to differ substantially and in a random manner from the versions written during the
; 357  : 		other passes. */
; 358  : 
; 359  : 		for (wipePass = 0; wipePass < PRAND_DISK_WIPE_PASSES; wipePass++)

  0037a	33 ed		 xor	 ebp, ebp
  0037c	eb 06		 jmp	 SHORT $LN22@ChangePwd
  0037e	8b ff		 npad	 2
$LL97@ChangePwd:
  00380	8b 44 24 10	 mov	 eax, DWORD PTR _cryptoInfo$[esp+1460]
$LN22@ChangePwd:

; 360  : 		{
; 361  : 			// Prepare new volume header
; 362  : 			nStatus = CreateVolumeHeaderInMemory (FALSE,
; 363  : 				buffer,
; 364  : 				cryptoInfo->ea,
; 365  : 				cryptoInfo->mode,
; 366  : 				newPassword,
; 367  : 				cryptoInfo->pkcs5,
; 368  : 				(char*)cryptoInfo->master_keydata, //unsigned __int8
; 369  : 				&ci,
; 370  : 				cryptoInfo->VolumeSize.Value,
; 371  : 				(volumeType == TC_VOLUME_TYPE_HIDDEN || volumeType == TC_VOLUME_TYPE_HIDDEN_LEGACY) ? cryptoInfo->hiddenVolumeSize : 0,
; 372  : 				cryptoInfo->EncryptedAreaStart.Value,
; 373  : 				cryptoInfo->EncryptedAreaLength.Value,
; 374  : 				cryptoInfo->RequiredProgramVersion,
; 375  : 				cryptoInfo->HeaderFlags,
; 376  : 				cryptoInfo->SectorSize,
; 377  : 				wipePass < PRAND_DISK_WIPE_PASSES - 1);

  00384	8b 4c 24 2c	 mov	 ecx, DWORD PTR _volumeType$[esp+1460]
  00388	83 f9 01	 cmp	 ecx, 1
  0038b	74 0b		 je	 SHORT $LN67@ChangePwd
  0038d	83 f9 02	 cmp	 ecx, 2
  00390	74 06		 je	 SHORT $LN67@ChangePwd
  00392	33 c9		 xor	 ecx, ecx
  00394	33 f6		 xor	 esi, esi
  00396	eb 0c		 jmp	 SHORT $LN68@ChangePwd
$LN67@ChangePwd:
  00398	8b 88 10 44 00
	00		 mov	 ecx, DWORD PTR [eax+17424]
  0039e	8b b0 14 44 00
	00		 mov	 esi, DWORD PTR [eax+17428]
$LN68@ChangePwd:
  003a4	33 d2		 xor	 edx, edx
  003a6	81 fd ff 00 00
	00		 cmp	 ebp, 255		; 000000ffH
  003ac	0f 9c c2	 setl	 dl
  003af	52		 push	 edx
  003b0	8b 90 40 44 00
	00		 mov	 edx, DWORD PTR [eax+17472]
  003b6	52		 push	 edx
  003b7	8b 90 60 44 00
	00		 mov	 edx, DWORD PTR [eax+17504]
  003bd	52		 push	 edx
  003be	0f b7 90 38 44
	00 00		 movzx	 edx, WORD PTR [eax+17464]
  003c5	52		 push	 edx
  003c6	8b 90 5c 44 00
	00		 mov	 edx, DWORD PTR [eax+17500]
  003cc	52		 push	 edx
  003cd	8b 90 58 44 00
	00		 mov	 edx, DWORD PTR [eax+17496]
  003d3	52		 push	 edx
  003d4	8b 90 54 44 00
	00		 mov	 edx, DWORD PTR [eax+17492]
  003da	52		 push	 edx
  003db	8b 90 50 44 00
	00		 mov	 edx, DWORD PTR [eax+17488]
  003e1	52		 push	 edx
  003e2	8b 90 48 44 00
	00		 mov	 edx, DWORD PTR [eax+17480]
  003e8	56		 push	 esi
  003e9	51		 push	 ecx
  003ea	8b 88 4c 44 00
	00		 mov	 ecx, DWORD PTR [eax+17484]
  003f0	51		 push	 ecx
  003f1	52		 push	 edx
  003f2	8d 4c 24 64	 lea	 ecx, DWORD PTR _ci$[esp+1508]
  003f6	51		 push	 ecx
  003f7	8b 88 ec 43 00
	00		 mov	 ecx, DWORD PTR [eax+17388]
  003fd	8d 90 a8 41 00
	00		 lea	 edx, DWORD PTR [eax+16808]
  00403	52		 push	 edx
  00404	8b 54 24 78	 mov	 edx, DWORD PTR _newPassword$GSCopy$[esp+1516]
  00408	51		 push	 ecx
  00409	8b 48 04	 mov	 ecx, DWORD PTR [eax+4]
  0040c	52		 push	 edx
  0040d	8b 10		 mov	 edx, DWORD PTR [eax]
  0040f	51		 push	 ecx
  00410	52		 push	 edx
  00411	8d 84 24 f0 01
	00 00		 lea	 eax, DWORD PTR _buffer$[esp+1532]
  00418	50		 push	 eax
  00419	6a 00		 push	 0
  0041b	e8 00 00 00 00	 call	 _CreateVolumeHeaderInMemory
  00420	8b f0		 mov	 esi, eax

; 378  : 
; 379  : 			if (ci != NULL)

  00422	8b 84 24 84 00
	00 00		 mov	 eax, DWORD PTR _ci$[esp+1540]
  00429	83 c4 50	 add	 esp, 80			; 00000050H
  0042c	85 c0		 test	 eax, eax
  0042e	74 09		 je	 SHORT $LN19@ChangePwd

; 380  : 				crypto_close (ci);

  00430	50		 push	 eax
  00431	e8 00 00 00 00	 call	 _crypto_close
  00436	83 c4 04	 add	 esp, 4
$LN19@ChangePwd:

; 381  : 
; 382  : 			if (nStatus != 0)

  00439	85 f6		 test	 esi, esi
  0043b	0f 85 e9 00 00
	00		 jne	 $error$80799

; 383  : 				goto error;
; 384  : 
; 385  : 			if (!SetFilePointerEx ((HANDLE) dev, headerOffset, NULL, FILE_BEGIN))

  00441	8b 4c 24 28	 mov	 ecx, DWORD PTR _headerOffset$[esp+1464]
  00445	56		 push	 esi
  00446	56		 push	 esi
  00447	8b 74 24 20	 mov	 esi, DWORD PTR _dev$[esp+1468]
  0044b	51		 push	 ecx
  0044c	53		 push	 ebx
  0044d	56		 push	 esi
  0044e	ff 15 00 00 00
	00		 call	 DWORD PTR __imp__SetFilePointerEx@20
  00454	85 c0		 test	 eax, eax
  00456	0f 84 b5 fe ff
	ff		 je	 $LN81@ChangePwd

; 386  : 			{
; 387  : 				nStatus = ERR_OS_ERROR;
; 388  : 				goto error;
; 389  : 			}
; 390  : 
; 391  : 			if (!WriteEffectiveVolumeHeader (bDevice, dev, (byte*)buffer))

  0045c	8b 44 24 14	 mov	 eax, DWORD PTR _bDevice$[esp+1460]
  00460	8d 94 24 a8 01
	00 00		 lea	 edx, DWORD PTR _buffer$[esp+1460]
  00467	52		 push	 edx
  00468	56		 push	 esi
  00469	50		 push	 eax
  0046a	e8 00 00 00 00	 call	 _WriteEffectiveVolumeHeader
  0046f	83 c4 0c	 add	 esp, 12			; 0000000cH
  00472	85 c0		 test	 eax, eax
  00474	0f 84 97 fe ff
	ff		 je	 $LN81@ChangePwd

; 392  : 			{
; 393  : 				nStatus = ERR_OS_ERROR;
; 394  : 				goto error;
; 395  : 			}
; 396  : 
; 397  : 			if (bDevice
; 398  : 				&& !cryptoInfo->LegacyVolume
; 399  : 				&& !cryptoInfo->hiddenVolume
; 400  : 				&& cryptoInfo->HeaderVersion == 4
; 401  : 				&& (cryptoInfo->HeaderFlags & TC_HEADER_FLAG_NONSYS_INPLACE_ENC) != 0
; 402  : 				&& (cryptoInfo->HeaderFlags & ~TC_HEADER_FLAG_NONSYS_INPLACE_ENC) == 0)

  0047a	83 7c 24 14 00	 cmp	 DWORD PTR _bDevice$[esp+1460], 0
  0047f	74 60		 je	 SHORT $LN14@ChangePwd
  00481	8b 44 24 10	 mov	 eax, DWORD PTR _cryptoInfo$[esp+1460]
  00485	83 b8 3c 44 00
	00 00		 cmp	 DWORD PTR [eax+17468], 0
  0048c	75 53		 jne	 SHORT $LN14@ChangePwd
  0048e	83 b8 a0 29 00
	00 00		 cmp	 DWORD PTR [eax+10656], 0
  00495	75 4a		 jne	 SHORT $LN14@ChangePwd
  00497	66 83 b8 a4 29
	00 00 04	 cmp	 WORD PTR [eax+10660], 4
  0049f	75 40		 jne	 SHORT $LN14@ChangePwd
  004a1	8b 88 60 44 00
	00		 mov	 ecx, DWORD PTR [eax+17504]
  004a7	f6 c1 02	 test	 cl, 2
  004aa	74 35		 je	 SHORT $LN14@ChangePwd
  004ac	f7 c1 fd ff ff
	ff		 test	 ecx, -3			; fffffffdH
  004b2	75 2d		 jne	 SHORT $LN14@ChangePwd

; 403  : 			{
; 404  : 				nStatus = WriteRandomDataToReservedHeaderAreas (dev, cryptoInfo, cryptoInfo->VolumeSize.Value, !backupHeader, backupHeader);

  004b4	8b 90 4c 44 00
	00		 mov	 edx, DWORD PTR [eax+17484]
  004ba	33 c9		 xor	 ecx, ecx
  004bc	85 ff		 test	 edi, edi
  004be	0f 94 c1	 sete	 cl
  004c1	57		 push	 edi
  004c2	51		 push	 ecx
  004c3	8b 88 48 44 00
	00		 mov	 ecx, DWORD PTR [eax+17480]
  004c9	52		 push	 edx
  004ca	51		 push	 ecx
  004cb	50		 push	 eax
  004cc	8b d6		 mov	 edx, esi
  004ce	52		 push	 edx
  004cf	e8 00 00 00 00	 call	 _WriteRandomDataToReservedHeaderAreas
  004d4	8b f0		 mov	 esi, eax
  004d6	83 c4 18	 add	 esp, 24			; 00000018H

; 405  : 				if (nStatus != ERR_SUCCESS)

  004d9	85 f6		 test	 esi, esi
  004db	75 4d		 jne	 SHORT $error$80799
  004dd	8b 74 24 18	 mov	 esi, DWORD PTR _dev$[esp+1460]
$LN14@ChangePwd:

; 406  : 					goto error;
; 407  : 			}
; 408  : 
; 409  : 			FlushFileBuffers (dev);

  004e1	56		 push	 esi
  004e2	ff 15 00 00 00
	00		 call	 DWORD PTR __imp__FlushFileBuffers@4
  004e8	45		 inc	 ebp
  004e9	81 fd 00 01 00
	00		 cmp	 ebp, 256		; 00000100H
  004ef	0f 8c 8b fe ff
	ff		 jl	 $LL97@ChangePwd

; 410  : 		}
; 411  : 
; 412  : 		if (backupHeader || cryptoInfo->LegacyVolume)

  004f5	85 ff		 test	 edi, edi
  004f7	75 2f		 jne	 SHORT $LN84@ChangePwd
  004f9	8b 44 24 10	 mov	 eax, DWORD PTR _cryptoInfo$[esp+1460]
  004fd	39 b8 3c 44 00
	00		 cmp	 DWORD PTR [eax+17468], edi
  00503	75 23		 jne	 SHORT $LN84@ChangePwd

; 413  : 			break;
; 414  : 			
; 415  : 		backupHeader = TRUE;
; 416  : 		headerOffset.QuadPart += hostSize - TC_VOLUME_HEADER_GROUP_SIZE;

  00505	8b 4c 24 1c	 mov	 ecx, DWORD PTR _hostSize$[esp+1460]
  00509	8b 54 24 20	 mov	 edx, DWORD PTR _hostSize$[esp+1464]
  0050d	81 e9 00 00 02
	00		 sub	 ecx, 131072		; 00020000H
  00513	83 da 00	 sbb	 edx, 0
  00516	03 d9		 add	 ebx, ecx
  00518	11 54 24 28	 adc	 DWORD PTR _headerOffset$[esp+1464], edx
  0051c	bf 01 00 00 00	 mov	 edi, 1
  00521	33 ed		 xor	 ebp, ebp
  00523	e9 5c fe ff ff	 jmp	 $LN22@ChangePwd
$LN84@ChangePwd:

; 417  : 	}
; 418  : 
; 419  : 	/* Password successfully changed */
; 420  : 	nStatus = 0;

  00528	33 f6		 xor	 esi, esi
$error$80799:

; 421  : 
; 422  : error:
; 423  : 	dwError = GetLastError ();

  0052a	ff 15 00 00 00
	00		 call	 DWORD PTR __imp__GetLastError@0

; 424  : 
; 425  : 	burn (buffer, sizeof (buffer));

  00530	8d 94 24 a8 01
	00 00		 lea	 edx, DWORD PTR _buffer$[esp+1460]
  00537	b9 00 02 00 00	 mov	 ecx, 512		; 00000200H
  0053c	8b e8		 mov	 ebp, eax
  0053e	8b f9		 mov	 edi, ecx
  00540	8b c2		 mov	 eax, edx
$LL70@ChangePwd:
  00542	c6 00 00	 mov	 BYTE PTR [eax], 0
  00545	40		 inc	 eax
  00546	83 ef 01	 sub	 edi, 1
  00549	75 f7		 jne	 SHORT $LL70@ChangePwd
  0054b	eb 03 8d 49 00	 npad	 5
$LL8@ChangePwd:
  00550	49		 dec	 ecx
  00551	c6 02 00	 mov	 BYTE PTR [edx], 0
  00554	42		 inc	 edx
  00555	85 c9		 test	 ecx, ecx
  00557	75 f7		 jne	 SHORT $LL8@ChangePwd

; 426  : 
; 427  : 	if (cryptoInfo != NULL)

  00559	8b 44 24 10	 mov	 eax, DWORD PTR _cryptoInfo$[esp+1460]
  0055d	85 c0		 test	 eax, eax
  0055f	74 09		 je	 SHORT $LN6@ChangePwd

; 428  : 		crypto_close (cryptoInfo);

  00561	50		 push	 eax
  00562	e8 00 00 00 00	 call	 _crypto_close
  00567	83 c4 04	 add	 esp, 4
$LN6@ChangePwd:

; 429  : 
; 430  : 	if (bTimeStampValid)

  0056a	83 7c 24 3c 00	 cmp	 DWORD PTR _bTimeStampValid$[esp+1460], 0

; 431  : 		SetFileTime (dev, &ftCreationTime, &ftLastAccessTime, &ftLastWriteTime);

  0056f	8b 7c 24 18	 mov	 edi, DWORD PTR _dev$[esp+1460]
  00573	74 16		 je	 SHORT $LN5@ChangePwd
  00575	8d 44 24 78	 lea	 eax, DWORD PTR _ftLastWriteTime$[esp+1460]
  00579	50		 push	 eax
  0057a	8d 4c 24 6c	 lea	 ecx, DWORD PTR _ftLastAccessTime$[esp+1464]
  0057e	51		 push	 ecx
  0057f	8d 54 24 78	 lea	 edx, DWORD PTR _ftCreationTime$[esp+1468]
  00583	52		 push	 edx
  00584	57		 push	 edi
  00585	ff 15 00 00 00
	00		 call	 DWORD PTR __imp__SetFileTime@16
$LN5@ChangePwd:

; 432  : 
; 433  : 	if (dev != INVALID_HANDLE_VALUE)

  0058b	83 ff ff	 cmp	 edi, -1
  0058e	74 07		 je	 SHORT $LN4@ChangePwd

; 434  : 		CloseHandle ((HANDLE) dev);

  00590	57		 push	 edi
  00591	ff 15 00 00 00
	00		 call	 DWORD PTR __imp__CloseHandle@4
$LN4@ChangePwd:

; 435  : 
; 436  : 	if (nDosLinkCreated == 0)

  00597	83 7c 24 38 00	 cmp	 DWORD PTR _nDosLinkCreated$[esp+1460], 0
  0059c	75 18		 jne	 SHORT $LN3@ChangePwd

; 437  : 		RemoveFakeDosName (szDiskFile, szDosDevice);

  0059e	8d 84 24 ac 04
	00 00		 lea	 eax, DWORD PTR _szDosDevice$[esp+1460]
  005a5	50		 push	 eax
  005a6	8d 8c 24 a8 00
	00 00		 lea	 ecx, DWORD PTR _szDiskFile$[esp+1464]
  005ad	51		 push	 ecx
  005ae	e8 00 00 00 00	 call	 _RemoveFakeDosName
  005b3	83 c4 08	 add	 esp, 8
$LN3@ChangePwd:

; 438  : 
; 439  : 	RandStop (FALSE);

  005b6	6a 00		 push	 0
  005b8	e8 00 00 00 00	 call	 _RandStop
  005bd	83 c4 04	 add	 esp, 4

; 440  : 	NormalCursor ();

  005c0	e8 00 00 00 00	 call	 _NormalCursor

; 441  : 
; 442  : 	SetLastError (dwError);

  005c5	55		 push	 ebp
  005c6	ff 15 00 00 00
	00		 call	 DWORD PTR __imp__SetLastError@4

; 443  : 
; 444  : 	if (nStatus == ERR_OS_ERROR && dwError == ERROR_ACCESS_DENIED
; 445  : 		&& bDevice
; 446  : 		&& !UacElevated
; 447  : 		&& IsUacSupported ())

  005cc	83 fe 01	 cmp	 esi, 1
  005cf	75 22		 jne	 SHORT $LN2@ChangePwd
  005d1	83 fd 05	 cmp	 ebp, 5
  005d4	75 21		 jne	 SHORT $LN91@ChangePwd
  005d6	83 7c 24 14 00	 cmp	 DWORD PTR _bDevice$[esp+1460], 0
  005db	74 1a		 je	 SHORT $LN91@ChangePwd
  005dd	83 3d 00 00 00
	00 00		 cmp	 DWORD PTR _UacElevated, 0
  005e4	75 11		 jne	 SHORT $LN91@ChangePwd
  005e6	e8 00 00 00 00	 call	 _IsUacSupported
  005eb	85 c0		 test	 eax, eax
  005ed	74 08		 je	 SHORT $LN91@ChangePwd

; 448  : 		return nStatus;

  005ef	8b c6		 mov	 eax, esi
  005f1	eb 19		 jmp	 SHORT $LN65@ChangePwd
$LN2@ChangePwd:

; 449  : 
; 450  : 	if (nStatus != 0)

  005f3	85 f6		 test	 esi, esi
  005f5	74 0e		 je	 SHORT $LN1@ChangePwd
$LN91@ChangePwd:

; 451  : 		handleError (hwndDlg, nStatus);

  005f7	8b 54 24 30	 mov	 edx, DWORD PTR _hwndDlg$GSCopy$[esp+1460]
  005fb	56		 push	 esi
  005fc	52		 push	 edx
  005fd	e8 00 00 00 00	 call	 _handleError
  00602	83 c4 08	 add	 esp, 8
$LN1@ChangePwd:

; 452  : 
; 453  : 	return nStatus;

  00605	8b c6		 mov	 eax, esi
  00607	eb 03		 jmp	 SHORT $LN65@ChangePwd
$LN63@ChangePwd:

; 168  : 	LARGE_INTEGER headerOffset;
; 169  : 	BOOL backupHeader;
; 170  : 	DISK_GEOMETRY driveInfo;
; 171  : 
; 172  : 	if (oldPassword->Length == 0 || newPassword->Length == 0) return -1;

  00609	83 c8 ff	 or	 eax, -1
$LN65@ChangePwd:

; 454  : }

  0060c	8b 8c 24 b0 05
	00 00		 mov	 ecx, DWORD PTR __$ArrayPad$[esp+1460]
  00613	5f		 pop	 edi
  00614	5e		 pop	 esi
  00615	5d		 pop	 ebp
  00616	5b		 pop	 ebx
  00617	33 cc		 xor	 ecx, esp
  00619	e8 00 00 00 00	 call	 @__security_check_cookie@4
  0061e	81 c4 a4 05 00
	00		 add	 esp, 1444		; 000005a4H
  00624	c3		 ret	 0
_ChangePwd ENDP
_TEXT	ENDS
END
