; Listing generated by Microsoft (R) Optimizing Compiler Version 15.00.30729.01 

	TITLE	c:\home\public\Desktop\projects\ciphershed.build\src\Common\SecurityToken.cpp
	.686P
	.XMM
	include listing.inc
	.model	flat

INCLUDELIB LIBCMT
INCLUDELIB OLDNAMES

PUBLIC	??_C@_0P@GHFPNOJB@bad?5allocation?$AA@		; `string'
PUBLIC	?Pkcs11Functions@SecurityToken@CipherShed@@1PAUCK_FUNCTION_LIST@@A ; CipherShed::SecurityToken::Pkcs11Functions
PUBLIC	?Initialized@SecurityToken@CipherShed@@1_NA	; CipherShed::SecurityToken::Initialized
PUBLIC	?Pkcs11LibraryHandle@SecurityToken@CipherShed@@1PAUHINSTANCE__@@A ; CipherShed::SecurityToken::Pkcs11LibraryHandle
PUBLIC	?_Value@?$_Is_swap_move@U_Swap_move_tag@std@@@std@@2_NB ; std::_Is_swap_move<std::_Swap_move_tag>::_Value
PUBLIC	?value@?$integral_constant@_N$0A@@tr1@std@@2_NB	; std::tr1::integral_constant<bool,0>::value
PUBLIC	?value@?$integral_constant@_N$00@tr1@std@@2_NB	; std::tr1::integral_constant<bool,1>::value
PUBLIC	?collate@?$_Locbase@H@std@@2HB			; std::_Locbase<int>::collate
PUBLIC	?ctype@?$_Locbase@H@std@@2HB			; std::_Locbase<int>::ctype
PUBLIC	?monetary@?$_Locbase@H@std@@2HB			; std::_Locbase<int>::monetary
PUBLIC	?numeric@?$_Locbase@H@std@@2HB			; std::_Locbase<int>::numeric
PUBLIC	?time@?$_Locbase@H@std@@2HB			; std::_Locbase<int>::time
PUBLIC	?messages@?$_Locbase@H@std@@2HB			; std::_Locbase<int>::messages
PUBLIC	?all@?$_Locbase@H@std@@2HB			; std::_Locbase<int>::all
PUBLIC	?none@?$_Locbase@H@std@@2HB			; std::_Locbase<int>::none
PUBLIC	?table_size@?$ctype@D@std@@2IB			; std::ctype<char>::table_size
PUBLIC	?skipws@?$_Iosb@H@std@@2W4_Fmtflags@12@B	; std::_Iosb<int>::skipws
PUBLIC	?unitbuf@?$_Iosb@H@std@@2W4_Fmtflags@12@B	; std::_Iosb<int>::unitbuf
PUBLIC	?uppercase@?$_Iosb@H@std@@2W4_Fmtflags@12@B	; std::_Iosb<int>::uppercase
PUBLIC	?showbase@?$_Iosb@H@std@@2W4_Fmtflags@12@B	; std::_Iosb<int>::showbase
PUBLIC	?showpoint@?$_Iosb@H@std@@2W4_Fmtflags@12@B	; std::_Iosb<int>::showpoint
PUBLIC	?showpos@?$_Iosb@H@std@@2W4_Fmtflags@12@B	; std::_Iosb<int>::showpos
PUBLIC	?left@?$_Iosb@H@std@@2W4_Fmtflags@12@B		; std::_Iosb<int>::left
PUBLIC	?right@?$_Iosb@H@std@@2W4_Fmtflags@12@B		; std::_Iosb<int>::right
PUBLIC	?internal@?$_Iosb@H@std@@2W4_Fmtflags@12@B	; std::_Iosb<int>::internal
PUBLIC	?dec@?$_Iosb@H@std@@2W4_Fmtflags@12@B		; std::_Iosb<int>::dec
PUBLIC	?oct@?$_Iosb@H@std@@2W4_Fmtflags@12@B		; std::_Iosb<int>::oct
PUBLIC	?hex@?$_Iosb@H@std@@2W4_Fmtflags@12@B		; std::_Iosb<int>::hex
PUBLIC	?scientific@?$_Iosb@H@std@@2W4_Fmtflags@12@B	; std::_Iosb<int>::scientific
PUBLIC	?fixed@?$_Iosb@H@std@@2W4_Fmtflags@12@B		; std::_Iosb<int>::fixed
PUBLIC	?hexfloat@?$_Iosb@H@std@@2W4_Fmtflags@12@B	; std::_Iosb<int>::hexfloat
PUBLIC	?boolalpha@?$_Iosb@H@std@@2W4_Fmtflags@12@B	; std::_Iosb<int>::boolalpha
PUBLIC	?_Stdio@?$_Iosb@H@std@@2W4_Fmtflags@12@B	; std::_Iosb<int>::_Stdio
PUBLIC	?adjustfield@?$_Iosb@H@std@@2W4_Fmtflags@12@B	; std::_Iosb<int>::adjustfield
PUBLIC	?basefield@?$_Iosb@H@std@@2W4_Fmtflags@12@B	; std::_Iosb<int>::basefield
PUBLIC	?floatfield@?$_Iosb@H@std@@2W4_Fmtflags@12@B	; std::_Iosb<int>::floatfield
PUBLIC	?goodbit@?$_Iosb@H@std@@2W4_Iostate@12@B	; std::_Iosb<int>::goodbit
PUBLIC	?eofbit@?$_Iosb@H@std@@2W4_Iostate@12@B		; std::_Iosb<int>::eofbit
PUBLIC	?failbit@?$_Iosb@H@std@@2W4_Iostate@12@B	; std::_Iosb<int>::failbit
PUBLIC	?badbit@?$_Iosb@H@std@@2W4_Iostate@12@B		; std::_Iosb<int>::badbit
PUBLIC	?_Hardfail@?$_Iosb@H@std@@2W4_Iostate@12@B	; std::_Iosb<int>::_Hardfail
PUBLIC	?in@?$_Iosb@H@std@@2W4_Openmode@12@B		; std::_Iosb<int>::in
PUBLIC	?out@?$_Iosb@H@std@@2W4_Openmode@12@B		; std::_Iosb<int>::out
PUBLIC	?ate@?$_Iosb@H@std@@2W4_Openmode@12@B		; std::_Iosb<int>::ate
PUBLIC	?app@?$_Iosb@H@std@@2W4_Openmode@12@B		; std::_Iosb<int>::app
PUBLIC	?trunc@?$_Iosb@H@std@@2W4_Openmode@12@B		; std::_Iosb<int>::trunc
PUBLIC	?_Nocreate@?$_Iosb@H@std@@2W4_Openmode@12@B	; std::_Iosb<int>::_Nocreate
PUBLIC	?_Noreplace@?$_Iosb@H@std@@2W4_Openmode@12@B	; std::_Iosb<int>::_Noreplace
PUBLIC	?binary@?$_Iosb@H@std@@2W4_Openmode@12@B	; std::_Iosb<int>::binary
PUBLIC	?beg@?$_Iosb@H@std@@2W4_Seekdir@12@B		; std::_Iosb<int>::beg
PUBLIC	?cur@?$_Iosb@H@std@@2W4_Seekdir@12@B		; std::_Iosb<int>::cur
PUBLIC	?end@?$_Iosb@H@std@@2W4_Seekdir@12@B		; std::_Iosb<int>::end
PUBLIC	?MaxPasswordLength@SecurityToken@CipherShed@@2IB ; CipherShed::SecurityToken::MaxPasswordLength
_BSS	SEGMENT
?Pkcs11Functions@SecurityToken@CipherShed@@1PAUCK_FUNCTION_LIST@@A DD 01H DUP (?) ; CipherShed::SecurityToken::Pkcs11Functions
?Initialized@SecurityToken@CipherShed@@1_NA DB 01H DUP (?) ; CipherShed::SecurityToken::Initialized
	ALIGN	4

?Pkcs11LibraryHandle@SecurityToken@CipherShed@@1PAUHINSTANCE__@@A DD 01H DUP (?) ; CipherShed::SecurityToken::Pkcs11LibraryHandle
_BSS	ENDS
;	COMDAT ?MaxPasswordLength@SecurityToken@CipherShed@@2IB
CONST	SEGMENT
?MaxPasswordLength@SecurityToken@CipherShed@@2IB DD 080H ; CipherShed::SecurityToken::MaxPasswordLength
CONST	ENDS
;	COMDAT ?end@?$_Iosb@H@std@@2W4_Seekdir@12@B
CONST	SEGMENT
?end@?$_Iosb@H@std@@2W4_Seekdir@12@B DD 02H		; std::_Iosb<int>::end
CONST	ENDS
;	COMDAT ?cur@?$_Iosb@H@std@@2W4_Seekdir@12@B
CONST	SEGMENT
?cur@?$_Iosb@H@std@@2W4_Seekdir@12@B DD 01H		; std::_Iosb<int>::cur
CONST	ENDS
;	COMDAT ?beg@?$_Iosb@H@std@@2W4_Seekdir@12@B
CONST	SEGMENT
?beg@?$_Iosb@H@std@@2W4_Seekdir@12@B DD 00H		; std::_Iosb<int>::beg
CONST	ENDS
;	COMDAT ?binary@?$_Iosb@H@std@@2W4_Openmode@12@B
CONST	SEGMENT
?binary@?$_Iosb@H@std@@2W4_Openmode@12@B DD 020H	; std::_Iosb<int>::binary
CONST	ENDS
;	COMDAT ?_Noreplace@?$_Iosb@H@std@@2W4_Openmode@12@B
CONST	SEGMENT
?_Noreplace@?$_Iosb@H@std@@2W4_Openmode@12@B DD 080H	; std::_Iosb<int>::_Noreplace
CONST	ENDS
;	COMDAT ?_Nocreate@?$_Iosb@H@std@@2W4_Openmode@12@B
CONST	SEGMENT
?_Nocreate@?$_Iosb@H@std@@2W4_Openmode@12@B DD 040H	; std::_Iosb<int>::_Nocreate
CONST	ENDS
;	COMDAT ?trunc@?$_Iosb@H@std@@2W4_Openmode@12@B
CONST	SEGMENT
?trunc@?$_Iosb@H@std@@2W4_Openmode@12@B DD 010H		; std::_Iosb<int>::trunc
CONST	ENDS
;	COMDAT ?app@?$_Iosb@H@std@@2W4_Openmode@12@B
CONST	SEGMENT
?app@?$_Iosb@H@std@@2W4_Openmode@12@B DD 08H		; std::_Iosb<int>::app
CONST	ENDS
;	COMDAT ?ate@?$_Iosb@H@std@@2W4_Openmode@12@B
CONST	SEGMENT
?ate@?$_Iosb@H@std@@2W4_Openmode@12@B DD 04H		; std::_Iosb<int>::ate
CONST	ENDS
;	COMDAT ?out@?$_Iosb@H@std@@2W4_Openmode@12@B
CONST	SEGMENT
?out@?$_Iosb@H@std@@2W4_Openmode@12@B DD 02H		; std::_Iosb<int>::out
CONST	ENDS
;	COMDAT ?in@?$_Iosb@H@std@@2W4_Openmode@12@B
CONST	SEGMENT
?in@?$_Iosb@H@std@@2W4_Openmode@12@B DD 01H		; std::_Iosb<int>::in
CONST	ENDS
;	COMDAT ?_Hardfail@?$_Iosb@H@std@@2W4_Iostate@12@B
CONST	SEGMENT
?_Hardfail@?$_Iosb@H@std@@2W4_Iostate@12@B DD 010H	; std::_Iosb<int>::_Hardfail
CONST	ENDS
;	COMDAT ?badbit@?$_Iosb@H@std@@2W4_Iostate@12@B
CONST	SEGMENT
?badbit@?$_Iosb@H@std@@2W4_Iostate@12@B DD 04H		; std::_Iosb<int>::badbit
CONST	ENDS
;	COMDAT ?failbit@?$_Iosb@H@std@@2W4_Iostate@12@B
CONST	SEGMENT
?failbit@?$_Iosb@H@std@@2W4_Iostate@12@B DD 02H		; std::_Iosb<int>::failbit
CONST	ENDS
;	COMDAT ?eofbit@?$_Iosb@H@std@@2W4_Iostate@12@B
CONST	SEGMENT
?eofbit@?$_Iosb@H@std@@2W4_Iostate@12@B DD 01H		; std::_Iosb<int>::eofbit
CONST	ENDS
;	COMDAT ?goodbit@?$_Iosb@H@std@@2W4_Iostate@12@B
CONST	SEGMENT
?goodbit@?$_Iosb@H@std@@2W4_Iostate@12@B DD 00H		; std::_Iosb<int>::goodbit
CONST	ENDS
;	COMDAT ?floatfield@?$_Iosb@H@std@@2W4_Fmtflags@12@B
CONST	SEGMENT
?floatfield@?$_Iosb@H@std@@2W4_Fmtflags@12@B DD 03000H	; std::_Iosb<int>::floatfield
CONST	ENDS
;	COMDAT ?basefield@?$_Iosb@H@std@@2W4_Fmtflags@12@B
CONST	SEGMENT
?basefield@?$_Iosb@H@std@@2W4_Fmtflags@12@B DD 0e00H	; std::_Iosb<int>::basefield
CONST	ENDS
;	COMDAT ?adjustfield@?$_Iosb@H@std@@2W4_Fmtflags@12@B
CONST	SEGMENT
?adjustfield@?$_Iosb@H@std@@2W4_Fmtflags@12@B DD 01c0H	; std::_Iosb<int>::adjustfield
CONST	ENDS
;	COMDAT ?_Stdio@?$_Iosb@H@std@@2W4_Fmtflags@12@B
CONST	SEGMENT
?_Stdio@?$_Iosb@H@std@@2W4_Fmtflags@12@B DD 08000H	; std::_Iosb<int>::_Stdio
CONST	ENDS
;	COMDAT ?boolalpha@?$_Iosb@H@std@@2W4_Fmtflags@12@B
CONST	SEGMENT
?boolalpha@?$_Iosb@H@std@@2W4_Fmtflags@12@B DD 04000H	; std::_Iosb<int>::boolalpha
CONST	ENDS
;	COMDAT ?hexfloat@?$_Iosb@H@std@@2W4_Fmtflags@12@B
CONST	SEGMENT
?hexfloat@?$_Iosb@H@std@@2W4_Fmtflags@12@B DD 03000H	; std::_Iosb<int>::hexfloat
CONST	ENDS
;	COMDAT ?fixed@?$_Iosb@H@std@@2W4_Fmtflags@12@B
CONST	SEGMENT
?fixed@?$_Iosb@H@std@@2W4_Fmtflags@12@B DD 02000H	; std::_Iosb<int>::fixed
CONST	ENDS
;	COMDAT ?scientific@?$_Iosb@H@std@@2W4_Fmtflags@12@B
CONST	SEGMENT
?scientific@?$_Iosb@H@std@@2W4_Fmtflags@12@B DD 01000H	; std::_Iosb<int>::scientific
CONST	ENDS
;	COMDAT ?hex@?$_Iosb@H@std@@2W4_Fmtflags@12@B
CONST	SEGMENT
?hex@?$_Iosb@H@std@@2W4_Fmtflags@12@B DD 0800H		; std::_Iosb<int>::hex
CONST	ENDS
;	COMDAT ?oct@?$_Iosb@H@std@@2W4_Fmtflags@12@B
CONST	SEGMENT
?oct@?$_Iosb@H@std@@2W4_Fmtflags@12@B DD 0400H		; std::_Iosb<int>::oct
CONST	ENDS
;	COMDAT ?dec@?$_Iosb@H@std@@2W4_Fmtflags@12@B
CONST	SEGMENT
?dec@?$_Iosb@H@std@@2W4_Fmtflags@12@B DD 0200H		; std::_Iosb<int>::dec
CONST	ENDS
;	COMDAT ?internal@?$_Iosb@H@std@@2W4_Fmtflags@12@B
CONST	SEGMENT
?internal@?$_Iosb@H@std@@2W4_Fmtflags@12@B DD 0100H	; std::_Iosb<int>::internal
CONST	ENDS
;	COMDAT ?right@?$_Iosb@H@std@@2W4_Fmtflags@12@B
CONST	SEGMENT
?right@?$_Iosb@H@std@@2W4_Fmtflags@12@B DD 080H		; std::_Iosb<int>::right
CONST	ENDS
;	COMDAT ?left@?$_Iosb@H@std@@2W4_Fmtflags@12@B
CONST	SEGMENT
?left@?$_Iosb@H@std@@2W4_Fmtflags@12@B DD 040H		; std::_Iosb<int>::left
CONST	ENDS
;	COMDAT ?showpos@?$_Iosb@H@std@@2W4_Fmtflags@12@B
CONST	SEGMENT
?showpos@?$_Iosb@H@std@@2W4_Fmtflags@12@B DD 020H	; std::_Iosb<int>::showpos
CONST	ENDS
;	COMDAT ?showpoint@?$_Iosb@H@std@@2W4_Fmtflags@12@B
CONST	SEGMENT
?showpoint@?$_Iosb@H@std@@2W4_Fmtflags@12@B DD 010H	; std::_Iosb<int>::showpoint
CONST	ENDS
;	COMDAT ?showbase@?$_Iosb@H@std@@2W4_Fmtflags@12@B
CONST	SEGMENT
?showbase@?$_Iosb@H@std@@2W4_Fmtflags@12@B DD 08H	; std::_Iosb<int>::showbase
CONST	ENDS
;	COMDAT ?uppercase@?$_Iosb@H@std@@2W4_Fmtflags@12@B
CONST	SEGMENT
?uppercase@?$_Iosb@H@std@@2W4_Fmtflags@12@B DD 04H	; std::_Iosb<int>::uppercase
CONST	ENDS
;	COMDAT ?unitbuf@?$_Iosb@H@std@@2W4_Fmtflags@12@B
CONST	SEGMENT
?unitbuf@?$_Iosb@H@std@@2W4_Fmtflags@12@B DD 02H	; std::_Iosb<int>::unitbuf
CONST	ENDS
;	COMDAT ?skipws@?$_Iosb@H@std@@2W4_Fmtflags@12@B
CONST	SEGMENT
?skipws@?$_Iosb@H@std@@2W4_Fmtflags@12@B DD 01H		; std::_Iosb<int>::skipws
CONST	ENDS
;	COMDAT ?table_size@?$ctype@D@std@@2IB
CONST	SEGMENT
?table_size@?$ctype@D@std@@2IB DD 0100H			; std::ctype<char>::table_size
CONST	ENDS
;	COMDAT ?none@?$_Locbase@H@std@@2HB
CONST	SEGMENT
?none@?$_Locbase@H@std@@2HB DD 00H			; std::_Locbase<int>::none
CONST	ENDS
;	COMDAT ?all@?$_Locbase@H@std@@2HB
CONST	SEGMENT
?all@?$_Locbase@H@std@@2HB DD 03fH			; std::_Locbase<int>::all
CONST	ENDS
;	COMDAT ?messages@?$_Locbase@H@std@@2HB
CONST	SEGMENT
?messages@?$_Locbase@H@std@@2HB DD 020H			; std::_Locbase<int>::messages
CONST	ENDS
;	COMDAT ?time@?$_Locbase@H@std@@2HB
CONST	SEGMENT
?time@?$_Locbase@H@std@@2HB DD 010H			; std::_Locbase<int>::time
CONST	ENDS
;	COMDAT ?numeric@?$_Locbase@H@std@@2HB
CONST	SEGMENT
?numeric@?$_Locbase@H@std@@2HB DD 08H			; std::_Locbase<int>::numeric
CONST	ENDS
;	COMDAT ?monetary@?$_Locbase@H@std@@2HB
CONST	SEGMENT
?monetary@?$_Locbase@H@std@@2HB DD 04H			; std::_Locbase<int>::monetary
CONST	ENDS
;	COMDAT ?ctype@?$_Locbase@H@std@@2HB
CONST	SEGMENT
?ctype@?$_Locbase@H@std@@2HB DD 02H			; std::_Locbase<int>::ctype
CONST	ENDS
;	COMDAT ?collate@?$_Locbase@H@std@@2HB
CONST	SEGMENT
?collate@?$_Locbase@H@std@@2HB DD 01H			; std::_Locbase<int>::collate
CONST	ENDS
;	COMDAT ?value@?$integral_constant@_N$00@tr1@std@@2_NB
CONST	SEGMENT
?value@?$integral_constant@_N$00@tr1@std@@2_NB DB 01H	; std::tr1::integral_constant<bool,1>::value
CONST	ENDS
;	COMDAT ?value@?$integral_constant@_N$0A@@tr1@std@@2_NB
CONST	SEGMENT
?value@?$integral_constant@_N$0A@@tr1@std@@2_NB DB 00H	; std::tr1::integral_constant<bool,0>::value
CONST	ENDS
;	COMDAT ?_Value@?$_Is_swap_move@U_Swap_move_tag@std@@@std@@2_NB
CONST	SEGMENT
?_Value@?$_Is_swap_move@U_Swap_move_tag@std@@@std@@2_NB DB 01H ; std::_Is_swap_move<std::_Swap_move_tag>::_Value
CONST	ENDS
_DATA	SEGMENT
__bad_alloc_Message DD FLAT:??_C@_0P@GHFPNOJB@bad?5allocation?$AA@
_DATA	ENDS
;	COMDAT ??_C@_0P@GHFPNOJB@bad?5allocation?$AA@
CONST	SEGMENT
??_C@_0P@GHFPNOJB@bad?5allocation?$AA@ DB 'bad allocation', 00H ; `string'
CONST	ENDS
PUBLIC	??_7bad_alloc@std@@6B@				; std::bad_alloc::`vftable'
PUBLIC	??0bad_alloc@std@@QAE@PBD@Z			; std::bad_alloc::bad_alloc
PUBLIC	??_R4bad_alloc@std@@6B@				; std::bad_alloc::`RTTI Complete Object Locator'
PUBLIC	??_R0?AVbad_alloc@std@@@8			; std::bad_alloc `RTTI Type Descriptor'
PUBLIC	??_R3bad_alloc@std@@8				; std::bad_alloc::`RTTI Class Hierarchy Descriptor'
PUBLIC	??_R2bad_alloc@std@@8				; std::bad_alloc::`RTTI Base Class Array'
PUBLIC	??_R1A@?0A@EA@bad_alloc@std@@8			; std::bad_alloc::`RTTI Base Class Descriptor at (0,-1,0,64)'
PUBLIC	??_R1A@?0A@EA@exception@std@@8			; std::exception::`RTTI Base Class Descriptor at (0,-1,0,64)'
PUBLIC	??_R0?AVexception@std@@@8			; std::exception `RTTI Type Descriptor'
PUBLIC	??_R3exception@std@@8				; std::exception::`RTTI Class Hierarchy Descriptor'
PUBLIC	??_R2exception@std@@8				; std::exception::`RTTI Base Class Array'
EXTRN	??0exception@std@@QAE@ABQBD@Z:PROC		; std::exception::exception
EXTRN	??_7type_info@@6B@:QWORD			; type_info::`vftable'
EXTRN	??_Ebad_alloc@std@@UAEPAXI@Z:PROC		; std::bad_alloc::`vector deleting destructor'
EXTRN	?what@exception@std@@UBEPBDXZ:PROC		; std::exception::what
;	COMDAT ??_R2exception@std@@8
; File c:\program files (x86)\microsoft visual studio 9.0\vc\include\exception
rdata$r	SEGMENT
??_R2exception@std@@8 DD FLAT:??_R1A@?0A@EA@exception@std@@8 ; std::exception::`RTTI Base Class Array'
rdata$r	ENDS
;	COMDAT ??_R3exception@std@@8
rdata$r	SEGMENT
??_R3exception@std@@8 DD 00H				; std::exception::`RTTI Class Hierarchy Descriptor'
	DD	00H
	DD	01H
	DD	FLAT:??_R2exception@std@@8
rdata$r	ENDS
;	COMDAT ??_R0?AVexception@std@@@8
_DATA	SEGMENT
??_R0?AVexception@std@@@8 DD FLAT:??_7type_info@@6B@	; std::exception `RTTI Type Descriptor'
	DD	00H
	DB	'.?AVexception@std@@', 00H
_DATA	ENDS
;	COMDAT ??_R1A@?0A@EA@exception@std@@8
rdata$r	SEGMENT
??_R1A@?0A@EA@exception@std@@8 DD FLAT:??_R0?AVexception@std@@@8 ; std::exception::`RTTI Base Class Descriptor at (0,-1,0,64)'
	DD	00H
	DD	00H
	DD	0ffffffffH
	DD	00H
	DD	040H
	DD	FLAT:??_R3exception@std@@8
rdata$r	ENDS
;	COMDAT ??_R1A@?0A@EA@bad_alloc@std@@8
rdata$r	SEGMENT
??_R1A@?0A@EA@bad_alloc@std@@8 DD FLAT:??_R0?AVbad_alloc@std@@@8 ; std::bad_alloc::`RTTI Base Class Descriptor at (0,-1,0,64)'
	DD	01H
	DD	00H
	DD	0ffffffffH
	DD	00H
	DD	040H
	DD	FLAT:??_R3bad_alloc@std@@8
rdata$r	ENDS
;	COMDAT ??_R2bad_alloc@std@@8
rdata$r	SEGMENT
??_R2bad_alloc@std@@8 DD FLAT:??_R1A@?0A@EA@bad_alloc@std@@8 ; std::bad_alloc::`RTTI Base Class Array'
	DD	FLAT:??_R1A@?0A@EA@exception@std@@8
rdata$r	ENDS
;	COMDAT ??_R3bad_alloc@std@@8
rdata$r	SEGMENT
??_R3bad_alloc@std@@8 DD 00H				; std::bad_alloc::`RTTI Class Hierarchy Descriptor'
	DD	00H
	DD	02H
	DD	FLAT:??_R2bad_alloc@std@@8
rdata$r	ENDS
;	COMDAT ??_R0?AVbad_alloc@std@@@8
_DATA	SEGMENT
??_R0?AVbad_alloc@std@@@8 DD FLAT:??_7type_info@@6B@	; std::bad_alloc `RTTI Type Descriptor'
	DD	00H
	DB	'.?AVbad_alloc@std@@', 00H
_DATA	ENDS
;	COMDAT ??_R4bad_alloc@std@@6B@
rdata$r	SEGMENT
??_R4bad_alloc@std@@6B@ DD 00H				; std::bad_alloc::`RTTI Complete Object Locator'
	DD	00H
	DD	00H
	DD	FLAT:??_R0?AVbad_alloc@std@@@8
	DD	FLAT:??_R3bad_alloc@std@@8
rdata$r	ENDS
;	COMDAT ??_7bad_alloc@std@@6B@
CONST	SEGMENT
??_7bad_alloc@std@@6B@ DD FLAT:??_R4bad_alloc@std@@6B@	; std::bad_alloc::`vftable'
	DD	FLAT:??_Ebad_alloc@std@@UAEPAXI@Z
	DD	FLAT:?what@exception@std@@UBEPBDXZ
; Function compile flags: /Ogtpy
CONST	ENDS
;	COMDAT ??0bad_alloc@std@@QAE@PBD@Z
_TEXT	SEGMENT
__Message$ = 8						; size = 4
??0bad_alloc@std@@QAE@PBD@Z PROC			; std::bad_alloc::bad_alloc, COMDAT
; _this$ = ecx

; 371  : 		{	// construct from message string

  00000	56		 push	 esi
  00001	8d 44 24 08	 lea	 eax, DWORD PTR __Message$[esp]
  00005	50		 push	 eax
  00006	8b f1		 mov	 esi, ecx
  00008	e8 00 00 00 00	 call	 ??0exception@std@@QAE@ABQBD@Z ; std::exception::exception
  0000d	c7 06 00 00 00
	00		 mov	 DWORD PTR [esi], OFFSET ??_7bad_alloc@std@@6B@

; 372  : 		}

  00013	8b c6		 mov	 eax, esi
  00015	5e		 pop	 esi
  00016	c2 04 00	 ret	 4
??0bad_alloc@std@@QAE@PBD@Z ENDP			; std::bad_alloc::bad_alloc
_TEXT	ENDS
PUBLIC	??1bad_alloc@std@@UAE@XZ			; std::bad_alloc::~bad_alloc
EXTRN	??1exception@std@@UAE@XZ:PROC			; std::exception::~exception
; Function compile flags: /Ogtpy
;	COMDAT ??1bad_alloc@std@@UAE@XZ
_TEXT	SEGMENT
??1bad_alloc@std@@UAE@XZ PROC				; std::bad_alloc::~bad_alloc, COMDAT
; _this$ = ecx

; 380  : 		{	// destroy the object

  00000	c7 01 00 00 00
	00		 mov	 DWORD PTR [ecx], OFFSET ??_7bad_alloc@std@@6B@

; 381  : 		}

  00006	e9 00 00 00 00	 jmp	 ??1exception@std@@UAE@XZ ; std::exception::~exception
??1bad_alloc@std@@UAE@XZ ENDP				; std::bad_alloc::~bad_alloc
_TEXT	ENDS
EXTRN	??3@YAXPAX@Z:PROC				; operator delete
; Function compile flags: /Ogtpy
;	COMDAT ??_Gbad_alloc@std@@UAEPAXI@Z
_TEXT	SEGMENT
___flags$ = 8						; size = 4
??_Gbad_alloc@std@@UAEPAXI@Z PROC			; std::bad_alloc::`scalar deleting destructor', COMDAT
; _this$ = ecx
  00000	56		 push	 esi
  00001	8b f1		 mov	 esi, ecx
  00003	c7 06 00 00 00
	00		 mov	 DWORD PTR [esi], OFFSET ??_7bad_alloc@std@@6B@
  00009	e8 00 00 00 00	 call	 ??1exception@std@@UAE@XZ ; std::exception::~exception
  0000e	f6 44 24 08 01	 test	 BYTE PTR ___flags$[esp], 1
  00013	74 09		 je	 SHORT $LN6@scalar
  00015	56		 push	 esi
  00016	e8 00 00 00 00	 call	 ??3@YAXPAX@Z		; operator delete
  0001b	83 c4 04	 add	 esp, 4
$LN6@scalar:
  0001e	8b c6		 mov	 eax, esi
  00020	5e		 pop	 esi
  00021	c2 04 00	 ret	 4
??_Gbad_alloc@std@@UAEPAXI@Z ENDP			; std::bad_alloc::`scalar deleting destructor'
_TEXT	ENDS
PUBLIC	??2@YAPAXIPAX@Z					; operator new
; Function compile flags: /Ogtpy
; File c:\program files (x86)\microsoft visual studio 9.0\vc\include\new
;	COMDAT ??2@YAPAXIPAX@Z
_TEXT	SEGMENT
___formal$ = 8						; size = 4
__Where$ = 12						; size = 4
??2@YAPAXIPAX@Z PROC					; operator new, COMDAT

; 59   : 	return (_Where);

  00000	8b 44 24 08	 mov	 eax, DWORD PTR __Where$[esp-4]

; 60   : 	}

  00004	c3		 ret	 0
??2@YAPAXIPAX@Z ENDP					; operator new
_TEXT	ENDS
PUBLIC	??3@YAXPAX0@Z					; operator delete
; Function compile flags: /Ogtpy
;	COMDAT ??3@YAXPAX0@Z
_TEXT	SEGMENT
___formal$ = 8						; size = 4
___formal$ = 12						; size = 4
??3@YAXPAX0@Z PROC					; operator delete, COMDAT

; 64   : 	}

  00000	c3		 ret	 0
??3@YAXPAX0@Z ENDP					; operator delete
_TEXT	ENDS
PUBLIC	_wmemchr
; Function compile flags: /Ogtpy
; File c:\program files (x86)\microsoft visual studio 9.0\vc\include\wchar.h
;	COMDAT _wmemchr
_TEXT	SEGMENT
__S$ = 8						; size = 4
__C$ = 12						; size = 2
__N$ = 16						; size = 4
_wmemchr PROC						; COMDAT

; 1211 :         {for (; 0 < _N; ++_S, --_N)

  00000	8b 4c 24 0c	 mov	 ecx, DWORD PTR __N$[esp-4]
  00004	85 c9		 test	 ecx, ecx
  00006	76 16		 jbe	 SHORT $LN2@wmemchr
  00008	66 8b 54 24 08	 mov	 dx, WORD PTR __C$[esp-4]
  0000d	8b 44 24 04	 mov	 eax, DWORD PTR __S$[esp-4]
$LL4@wmemchr:

; 1212 :                 if (*_S == _C)

  00011	66 39 10	 cmp	 WORD PTR [eax], dx
  00014	74 0a		 je	 SHORT $LN5@wmemchr
  00016	83 c0 02	 add	 eax, 2
  00019	83 e9 01	 sub	 ecx, 1
  0001c	75 f3		 jne	 SHORT $LL4@wmemchr
$LN2@wmemchr:

; 1213 :                         return (_CONST_RETURN wchar_t *)(_S);
; 1214 :         return (0); }

  0001e	33 c0		 xor	 eax, eax
$LN5@wmemchr:
  00020	c3		 ret	 0
_wmemchr ENDP
_TEXT	ENDS
PUBLIC	_wmemcmp
; Function compile flags: /Ogtpy
;	COMDAT _wmemcmp
_TEXT	SEGMENT
__S1$ = 8						; size = 4
__S2$ = 12						; size = 4
__N$ = 16						; size = 4
_wmemcmp PROC						; COMDAT

; 1216 :         {for (; 0 < _N; ++_S1, ++_S2, --_N)

  00000	8b 54 24 0c	 mov	 edx, DWORD PTR __N$[esp-4]
  00004	56		 push	 esi
  00005	85 d2		 test	 edx, edx
  00007	76 1b		 jbe	 SHORT $LN2@wmemcmp
  00009	8b 4c 24 0c	 mov	 ecx, DWORD PTR __S2$[esp]
  0000d	8b 44 24 08	 mov	 eax, DWORD PTR __S1$[esp]
$LL4@wmemcmp:

; 1217 :                 if (*_S1 != *_S2)

  00011	66 8b 30	 mov	 si, WORD PTR [eax]
  00014	66 3b 31	 cmp	 si, WORD PTR [ecx]
  00017	75 0f		 jne	 SHORT $LN8@wmemcmp
  00019	83 c0 02	 add	 eax, 2
  0001c	83 c1 02	 add	 ecx, 2
  0001f	83 ea 01	 sub	 edx, 1
  00022	75 ed		 jne	 SHORT $LL4@wmemcmp
$LN2@wmemcmp:

; 1219 :         return (0); }

  00024	33 c0		 xor	 eax, eax
  00026	5e		 pop	 esi
  00027	c3		 ret	 0
$LN8@wmemcmp:

; 1218 :                         return (*_S1 < *_S2 ? -1 : +1);

  00028	0f b7 00	 movzx	 eax, WORD PTR [eax]
  0002b	66 3b 01	 cmp	 ax, WORD PTR [ecx]
  0002e	5e		 pop	 esi
  0002f	1b c0		 sbb	 eax, eax
  00031	83 e0 fe	 and	 eax, -2			; fffffffeH
  00034	40		 inc	 eax

; 1219 :         return (0); }

  00035	c3		 ret	 0
_wmemcmp ENDP
_TEXT	ENDS
PUBLIC	_wmemcpy_s
EXTRN	_memcpy_s:PROC
; Function compile flags: /Ogtpy
;	COMDAT _wmemcpy_s
_TEXT	SEGMENT
__S1$ = 8						; size = 4
__N1$ = 12						; size = 4
__S2$ = 16						; size = 4
__N$ = 20						; size = 4
_wmemcpy_s PROC						; COMDAT

; 1232 : #pragma warning( push )
; 1233 : #pragma warning( disable : 6386 )
; 1234 :             return memcpy_s(_S1, _N1*sizeof(wchar_t), _S2, _N*sizeof(wchar_t));

  00000	8b 44 24 10	 mov	 eax, DWORD PTR __N$[esp-4]
  00004	8d 0c 00	 lea	 ecx, DWORD PTR [eax+eax]
  00007	89 4c 24 10	 mov	 DWORD PTR __N$[esp-4], ecx
  0000b	8b 44 24 08	 mov	 eax, DWORD PTR __N1$[esp-4]
  0000f	8d 0c 00	 lea	 ecx, DWORD PTR [eax+eax]
  00012	89 4c 24 08	 mov	 DWORD PTR __N1$[esp-4], ecx
  00016	e9 00 00 00 00	 jmp	 _memcpy_s
_wmemcpy_s ENDP
_TEXT	ENDS
PUBLIC	_wmemmove_s
EXTRN	_memmove_s:PROC
; Function compile flags: /Ogtpy
;	COMDAT _wmemmove_s
_TEXT	SEGMENT
__S1$ = 8						; size = 4
__N1$ = 12						; size = 4
__S2$ = 16						; size = 4
__N$ = 20						; size = 4
_wmemmove_s PROC					; COMDAT

; 1252 : #pragma warning( push )
; 1253 : #pragma warning( disable : 6386 )
; 1254 :             return memmove_s(_S1, _N1*sizeof(wchar_t), _S2, _N*sizeof(wchar_t));

  00000	8b 44 24 10	 mov	 eax, DWORD PTR __N$[esp-4]
  00004	8d 0c 00	 lea	 ecx, DWORD PTR [eax+eax]
  00007	89 4c 24 10	 mov	 DWORD PTR __N$[esp-4], ecx
  0000b	8b 44 24 08	 mov	 eax, DWORD PTR __N1$[esp-4]
  0000f	8d 0c 00	 lea	 ecx, DWORD PTR [eax+eax]
  00012	89 4c 24 08	 mov	 DWORD PTR __N1$[esp-4], ecx
  00016	e9 00 00 00 00	 jmp	 _memmove_s
_wmemmove_s ENDP
_TEXT	ENDS
PUBLIC	?assign@?$char_traits@_W@std@@SAXAA_WAB_W@Z	; std::char_traits<wchar_t>::assign
; Function compile flags: /Ogtpy
; File c:\program files (x86)\microsoft visual studio 9.0\vc\include\iosfwd
;	COMDAT ?assign@?$char_traits@_W@std@@SAXAA_WAB_W@Z
_TEXT	SEGMENT
__Left$ = 8						; size = 4
__Right$ = 12						; size = 4
?assign@?$char_traits@_W@std@@SAXAA_WAB_W@Z PROC	; std::char_traits<wchar_t>::assign, COMDAT

; 310  : 		_Left = _Right;

  00000	8b 44 24 08	 mov	 eax, DWORD PTR __Right$[esp-4]
  00004	66 8b 08	 mov	 cx, WORD PTR [eax]
  00007	8b 54 24 04	 mov	 edx, DWORD PTR __Left$[esp-4]
  0000b	66 89 0a	 mov	 WORD PTR [edx], cx

; 311  : 		}

  0000e	c3		 ret	 0
?assign@?$char_traits@_W@std@@SAXAA_WAB_W@Z ENDP	; std::char_traits<wchar_t>::assign
_TEXT	ENDS
PUBLIC	?compare@?$char_traits@_W@std@@SAHPB_W0I@Z	; std::char_traits<wchar_t>::compare
; Function compile flags: /Ogtpy
;	COMDAT ?compare@?$char_traits@_W@std@@SAHPB_W0I@Z
_TEXT	SEGMENT
__First1$ = 8						; size = 4
__First2$ = 12						; size = 4
__Count$ = 16						; size = 4
?compare@?$char_traits@_W@std@@SAHPB_W0I@Z PROC		; std::char_traits<wchar_t>::compare, COMDAT

; 326  : //		_DEBUG_POINTER(_First1);
; 327  : //		_DEBUG_POINTER(_First2);
; 328  : 		return (::wmemcmp(_First1, _First2, _Count));

  00000	e9 00 00 00 00	 jmp	 _wmemcmp
?compare@?$char_traits@_W@std@@SAHPB_W0I@Z ENDP		; std::char_traits<wchar_t>::compare
_TEXT	ENDS
PUBLIC	?length@?$char_traits@_W@std@@SAIPB_W@Z		; std::char_traits<wchar_t>::length
; Function compile flags: /Ogtpy
;	COMDAT ?length@?$char_traits@_W@std@@SAIPB_W@Z
_TEXT	SEGMENT
__First$ = 8						; size = 4
?length@?$char_traits@_W@std@@SAIPB_W@Z PROC		; std::char_traits<wchar_t>::length, COMDAT

; 333  : //		_DEBUG_POINTER(_First);
; 334  : 		return (::wcslen(_First));

  00000	8b 44 24 04	 mov	 eax, DWORD PTR __First$[esp-4]
  00004	8d 50 02	 lea	 edx, DWORD PTR [eax+2]
$LL3@length:
  00007	66 8b 08	 mov	 cx, WORD PTR [eax]
  0000a	83 c0 02	 add	 eax, 2
  0000d	66 85 c9	 test	 cx, cx
  00010	75 f5		 jne	 SHORT $LL3@length
  00012	2b c2		 sub	 eax, edx
  00014	d1 f8		 sar	 eax, 1

; 335  : 		}

  00016	c3		 ret	 0
?length@?$char_traits@_W@std@@SAIPB_W@Z ENDP		; std::char_traits<wchar_t>::length
_TEXT	ENDS
PUBLIC	?_Copy_s@?$char_traits@_W@std@@SAPA_WPA_WIPB_WI@Z ; std::char_traits<wchar_t>::_Copy_s
; Function compile flags: /Ogtpy
;	COMDAT ?_Copy_s@?$char_traits@_W@std@@SAPA_WPA_WIPB_WI@Z
_TEXT	SEGMENT
__First1$ = 8						; size = 4
__Size_in_words$ = 12					; size = 4
__First2$ = 16						; size = 4
__Count$ = 20						; size = 4
?_Copy_s@?$char_traits@_W@std@@SAPA_WPA_WIPB_WI@Z PROC	; std::char_traits<wchar_t>::_Copy_s, COMDAT

; 348  : //		_DEBUG_POINTER(_First1);
; 349  : //		_DEBUG_POINTER(_First2);
; 350  : 		_CRT_SECURE_WMEMCPY(_First1, _Size_in_words, _First2, _Count);

  00000	8b 44 24 10	 mov	 eax, DWORD PTR __Count$[esp-4]
  00004	8b 54 24 0c	 mov	 edx, DWORD PTR __First2$[esp-4]
  00008	56		 push	 esi
  00009	8b 74 24 08	 mov	 esi, DWORD PTR __First1$[esp]
  0000d	8d 0c 00	 lea	 ecx, DWORD PTR [eax+eax]
  00010	8b 44 24 0c	 mov	 eax, DWORD PTR __Size_in_words$[esp]
  00014	51		 push	 ecx
  00015	52		 push	 edx
  00016	8d 0c 00	 lea	 ecx, DWORD PTR [eax+eax]
  00019	51		 push	 ecx
  0001a	56		 push	 esi
  0001b	e8 00 00 00 00	 call	 _memcpy_s
  00020	83 c4 10	 add	 esp, 16			; 00000010H

; 351  : 		return _First1;

  00023	8b c6		 mov	 eax, esi
  00025	5e		 pop	 esi

; 352  : 		}

  00026	c3		 ret	 0
?_Copy_s@?$char_traits@_W@std@@SAPA_WPA_WIPB_WI@Z ENDP	; std::char_traits<wchar_t>::_Copy_s
_TEXT	ENDS
PUBLIC	?find@?$char_traits@_W@std@@SAPB_WPB_WIAB_W@Z	; std::char_traits<wchar_t>::find
; Function compile flags: /Ogtpy
;	COMDAT ?find@?$char_traits@_W@std@@SAPB_WPB_WIAB_W@Z
_TEXT	SEGMENT
__First$ = 8						; size = 4
__Count$ = 12						; size = 4
__Ch$ = 16						; size = 4
?find@?$char_traits@_W@std@@SAPB_WPB_WIAB_W@Z PROC	; std::char_traits<wchar_t>::find, COMDAT

; 357  : //		_DEBUG_POINTER(_First);
; 358  : 		return ((const _Elem *)::wmemchr(_First, _Ch, _Count));

  00000	8b 4c 24 08	 mov	 ecx, DWORD PTR __Count$[esp-4]
  00004	8b 44 24 04	 mov	 eax, DWORD PTR __First$[esp-4]
  00008	85 c9		 test	 ecx, ecx
  0000a	76 14		 jbe	 SHORT $LN4@find
  0000c	8b 54 24 0c	 mov	 edx, DWORD PTR __Ch$[esp-4]
  00010	0f b7 12	 movzx	 edx, WORD PTR [edx]
$LL6@find:
  00013	66 39 10	 cmp	 WORD PTR [eax], dx
  00016	74 0a		 je	 SHORT $LN7@find
  00018	83 c0 02	 add	 eax, 2
  0001b	83 e9 01	 sub	 ecx, 1
  0001e	75 f3		 jne	 SHORT $LL6@find
$LN4@find:
  00020	33 c0		 xor	 eax, eax
$LN7@find:

; 359  : 		}

  00022	c3		 ret	 0
?find@?$char_traits@_W@std@@SAPB_WPB_WIAB_W@Z ENDP	; std::char_traits<wchar_t>::find
_TEXT	ENDS
PUBLIC	?_Move_s@?$char_traits@_W@std@@SAPA_WPA_WIPB_WI@Z ; std::char_traits<wchar_t>::_Move_s
; Function compile flags: /Ogtpy
;	COMDAT ?_Move_s@?$char_traits@_W@std@@SAPA_WPA_WIPB_WI@Z
_TEXT	SEGMENT
__First1$ = 8						; size = 4
__Size_in_words$ = 12					; size = 4
__First2$ = 16						; size = 4
__Count$ = 20						; size = 4
?_Move_s@?$char_traits@_W@std@@SAPA_WPA_WIPB_WI@Z PROC	; std::char_traits<wchar_t>::_Move_s, COMDAT

; 372  : //		_DEBUG_POINTER(_First1);
; 373  : //		_DEBUG_POINTER(_First2);
; 374  : 		_CRT_SECURE_WMEMMOVE(_First1, _Size_in_words, _First2, _Count);

  00000	8b 44 24 10	 mov	 eax, DWORD PTR __Count$[esp-4]
  00004	8b 54 24 0c	 mov	 edx, DWORD PTR __First2$[esp-4]
  00008	56		 push	 esi
  00009	8b 74 24 08	 mov	 esi, DWORD PTR __First1$[esp]
  0000d	8d 0c 00	 lea	 ecx, DWORD PTR [eax+eax]
  00010	8b 44 24 0c	 mov	 eax, DWORD PTR __Size_in_words$[esp]
  00014	51		 push	 ecx
  00015	52		 push	 edx
  00016	8d 0c 00	 lea	 ecx, DWORD PTR [eax+eax]
  00019	51		 push	 ecx
  0001a	56		 push	 esi
  0001b	e8 00 00 00 00	 call	 _memmove_s
  00020	83 c4 10	 add	 esp, 16			; 00000010H

; 375  : 		return (_Elem *)_First1;

  00023	8b c6		 mov	 eax, esi
  00025	5e		 pop	 esi

; 376  : 		}

  00026	c3		 ret	 0
?_Move_s@?$char_traits@_W@std@@SAPA_WPA_WIPB_WI@Z ENDP	; std::char_traits<wchar_t>::_Move_s
_TEXT	ENDS
PUBLIC	?to_int_type@?$char_traits@_W@std@@SAGAB_W@Z	; std::char_traits<wchar_t>::to_int_type
; Function compile flags: /Ogtpy
;	COMDAT ?to_int_type@?$char_traits@_W@std@@SAGAB_W@Z
_TEXT	SEGMENT
__Ch$ = 8						; size = 4
?to_int_type@?$char_traits@_W@std@@SAGAB_W@Z PROC	; std::char_traits<wchar_t>::to_int_type, COMDAT

; 391  : 		return (_Ch);

  00000	8b 44 24 04	 mov	 eax, DWORD PTR __Ch$[esp-4]
  00004	66 8b 00	 mov	 ax, WORD PTR [eax]

; 392  : 		}

  00007	c3		 ret	 0
?to_int_type@?$char_traits@_W@std@@SAGAB_W@Z ENDP	; std::char_traits<wchar_t>::to_int_type
_TEXT	ENDS
PUBLIC	?eq_int_type@?$char_traits@_W@std@@SA_NABG0@Z	; std::char_traits<wchar_t>::eq_int_type
; Function compile flags: /Ogtpy
;	COMDAT ?eq_int_type@?$char_traits@_W@std@@SA_NABG0@Z
_TEXT	SEGMENT
__Left$ = 8						; size = 4
__Right$ = 12						; size = 4
?eq_int_type@?$char_traits@_W@std@@SA_NABG0@Z PROC	; std::char_traits<wchar_t>::eq_int_type, COMDAT

; 397  : 		return (_Left == _Right);

  00000	8b 44 24 04	 mov	 eax, DWORD PTR __Left$[esp-4]
  00004	66 8b 08	 mov	 cx, WORD PTR [eax]
  00007	8b 54 24 08	 mov	 edx, DWORD PTR __Right$[esp-4]
  0000b	33 c0		 xor	 eax, eax
  0000d	66 3b 0a	 cmp	 cx, WORD PTR [edx]
  00010	0f 94 c0	 sete	 al

; 398  : 		}

  00013	c3		 ret	 0
?eq_int_type@?$char_traits@_W@std@@SA_NABG0@Z ENDP	; std::char_traits<wchar_t>::eq_int_type
_TEXT	ENDS
PUBLIC	?eof@?$char_traits@_W@std@@SAGXZ		; std::char_traits<wchar_t>::eof
; Function compile flags: /Ogtpy
;	COMDAT ?eof@?$char_traits@_W@std@@SAGXZ
_TEXT	SEGMENT
?eof@?$char_traits@_W@std@@SAGXZ PROC			; std::char_traits<wchar_t>::eof, COMDAT

; 402  : 		return (WEOF);

  00000	b8 ff ff 00 00	 mov	 eax, 65535		; 0000ffffH

; 403  : 		}

  00005	c3		 ret	 0
?eof@?$char_traits@_W@std@@SAGXZ ENDP			; std::char_traits<wchar_t>::eof
_TEXT	ENDS
PUBLIC	?assign@?$char_traits@D@std@@SAXAADABD@Z	; std::char_traits<char>::assign
; Function compile flags: /Ogtpy
;	COMDAT ?assign@?$char_traits@D@std@@SAXAADABD@Z
_TEXT	SEGMENT
__Left$ = 8						; size = 4
__Right$ = 12						; size = 4
?assign@?$char_traits@D@std@@SAXAADABD@Z PROC		; std::char_traits<char>::assign, COMDAT

; 425  : 		_Left = _Right;

  00000	8b 44 24 08	 mov	 eax, DWORD PTR __Right$[esp-4]
  00004	8a 08		 mov	 cl, BYTE PTR [eax]
  00006	8b 54 24 04	 mov	 edx, DWORD PTR __Left$[esp-4]
  0000a	88 0a		 mov	 BYTE PTR [edx], cl

; 426  : 		}

  0000c	c3		 ret	 0
?assign@?$char_traits@D@std@@SAXAADABD@Z ENDP		; std::char_traits<char>::assign
_TEXT	ENDS
PUBLIC	?compare@?$char_traits@D@std@@SAHPBD0I@Z	; std::char_traits<char>::compare
; Function compile flags: /Ogtpy
;	COMDAT ?compare@?$char_traits@D@std@@SAHPBD0I@Z
_TEXT	SEGMENT
__First1$ = 8						; size = 4
__First2$ = 12						; size = 4
__Count$ = 16						; size = 4
?compare@?$char_traits@D@std@@SAHPBD0I@Z PROC		; std::char_traits<char>::compare, COMDAT

; 441  : //		_DEBUG_POINTER(_First1);
; 442  : //		_DEBUG_POINTER(_First2);
; 443  : 		return (::memcmp(_First1, _First2, _Count));

  00000	8b 4c 24 08	 mov	 ecx, DWORD PTR __First2$[esp-4]
  00004	8b 54 24 04	 mov	 edx, DWORD PTR __First1$[esp-4]
  00008	56		 push	 esi
  00009	8b 74 24 10	 mov	 esi, DWORD PTR __Count$[esp]
  0000d	57		 push	 edi
  0000e	83 fe 04	 cmp	 esi, 4
  00011	72 14		 jb	 SHORT $LN11@compare
$LL4@compare:
  00013	8b 02		 mov	 eax, DWORD PTR [edx]
  00015	3b 01		 cmp	 eax, DWORD PTR [ecx]
  00017	75 12		 jne	 SHORT $LN5@compare
  00019	83 ee 04	 sub	 esi, 4
  0001c	83 c1 04	 add	 ecx, 4
  0001f	83 c2 04	 add	 edx, 4
  00022	83 fe 04	 cmp	 esi, 4
  00025	73 ec		 jae	 SHORT $LL4@compare
$LN11@compare:
  00027	85 f6		 test	 esi, esi
  00029	74 44		 je	 SHORT $LN6@compare
$LN5@compare:
  0002b	0f b6 02	 movzx	 eax, BYTE PTR [edx]
  0002e	0f b6 39	 movzx	 edi, BYTE PTR [ecx]
  00031	2b c7		 sub	 eax, edi
  00033	75 31		 jne	 SHORT $LN7@compare
  00035	83 fe 01	 cmp	 esi, 1
  00038	76 35		 jbe	 SHORT $LN6@compare
  0003a	0f b6 42 01	 movzx	 eax, BYTE PTR [edx+1]
  0003e	0f b6 79 01	 movzx	 edi, BYTE PTR [ecx+1]
  00042	2b c7		 sub	 eax, edi
  00044	75 20		 jne	 SHORT $LN7@compare
  00046	83 fe 02	 cmp	 esi, 2
  00049	76 24		 jbe	 SHORT $LN6@compare
  0004b	0f b6 42 02	 movzx	 eax, BYTE PTR [edx+2]
  0004f	0f b6 79 02	 movzx	 edi, BYTE PTR [ecx+2]
  00053	2b c7		 sub	 eax, edi
  00055	75 0f		 jne	 SHORT $LN7@compare
  00057	83 fe 03	 cmp	 esi, 3
  0005a	76 13		 jbe	 SHORT $LN6@compare
  0005c	0f b6 42 03	 movzx	 eax, BYTE PTR [edx+3]
  00060	0f b6 49 03	 movzx	 ecx, BYTE PTR [ecx+3]
  00064	2b c1		 sub	 eax, ecx
$LN7@compare:
  00066	c1 f8 1f	 sar	 eax, 31			; 0000001fH
  00069	5f		 pop	 edi
  0006a	83 c8 01	 or	 eax, 1
  0006d	5e		 pop	 esi

; 444  : 		}

  0006e	c3		 ret	 0
$LN6@compare:
  0006f	5f		 pop	 edi

; 441  : //		_DEBUG_POINTER(_First1);
; 442  : //		_DEBUG_POINTER(_First2);
; 443  : 		return (::memcmp(_First1, _First2, _Count));

  00070	33 c0		 xor	 eax, eax
  00072	5e		 pop	 esi

; 444  : 		}

  00073	c3		 ret	 0
?compare@?$char_traits@D@std@@SAHPBD0I@Z ENDP		; std::char_traits<char>::compare
_TEXT	ENDS
PUBLIC	?length@?$char_traits@D@std@@SAIPBD@Z		; std::char_traits<char>::length
; Function compile flags: /Ogtpy
;	COMDAT ?length@?$char_traits@D@std@@SAIPBD@Z
_TEXT	SEGMENT
__First$ = 8						; size = 4
?length@?$char_traits@D@std@@SAIPBD@Z PROC		; std::char_traits<char>::length, COMDAT

; 448  : //		_DEBUG_POINTER(_First);
; 449  : 		return (::strlen(_First));

  00000	8b 44 24 04	 mov	 eax, DWORD PTR __First$[esp-4]
  00004	8d 50 01	 lea	 edx, DWORD PTR [eax+1]
$LL3@length@2:
  00007	8a 08		 mov	 cl, BYTE PTR [eax]
  00009	40		 inc	 eax
  0000a	84 c9		 test	 cl, cl
  0000c	75 f9		 jne	 SHORT $LL3@length@2
  0000e	2b c2		 sub	 eax, edx

; 450  : 		}

  00010	c3		 ret	 0
?length@?$char_traits@D@std@@SAIPBD@Z ENDP		; std::char_traits<char>::length
_TEXT	ENDS
PUBLIC	?_Copy_s@?$char_traits@D@std@@SAPADPADIPBDI@Z	; std::char_traits<char>::_Copy_s
; Function compile flags: /Ogtpy
;	COMDAT ?_Copy_s@?$char_traits@D@std@@SAPADPADIPBDI@Z
_TEXT	SEGMENT
__First1$ = 8						; size = 4
__Size_in_bytes$ = 12					; size = 4
__First2$ = 16						; size = 4
__Count$ = 20						; size = 4
?_Copy_s@?$char_traits@D@std@@SAPADPADIPBDI@Z PROC	; std::char_traits<char>::_Copy_s, COMDAT

; 463  : //		_DEBUG_POINTER(_First1);
; 464  : //		_DEBUG_POINTER(_First2);
; 465  : 		_CRT_SECURE_MEMCPY(_First1, _Size_in_bytes, _First2, _Count);

  00000	8b 44 24 10	 mov	 eax, DWORD PTR __Count$[esp-4]
  00004	8b 4c 24 0c	 mov	 ecx, DWORD PTR __First2$[esp-4]
  00008	8b 54 24 08	 mov	 edx, DWORD PTR __Size_in_bytes$[esp-4]
  0000c	56		 push	 esi
  0000d	8b 74 24 08	 mov	 esi, DWORD PTR __First1$[esp]
  00011	50		 push	 eax
  00012	51		 push	 ecx
  00013	52		 push	 edx
  00014	56		 push	 esi
  00015	e8 00 00 00 00	 call	 _memcpy_s
  0001a	83 c4 10	 add	 esp, 16			; 00000010H

; 466  : 		return _First1;

  0001d	8b c6		 mov	 eax, esi
  0001f	5e		 pop	 esi

; 467  : 		}

  00020	c3		 ret	 0
?_Copy_s@?$char_traits@D@std@@SAPADPADIPBDI@Z ENDP	; std::char_traits<char>::_Copy_s
_TEXT	ENDS
PUBLIC	?find@?$char_traits@D@std@@SAPBDPBDIABD@Z	; std::char_traits<char>::find
EXTRN	_memchr:PROC
; Function compile flags: /Ogtpy
;	COMDAT ?find@?$char_traits@D@std@@SAPBDPBDIABD@Z
_TEXT	SEGMENT
__First$ = 8						; size = 4
__Count$ = 12						; size = 4
__Ch$ = 16						; size = 4
?find@?$char_traits@D@std@@SAPBDPBDIABD@Z PROC		; std::char_traits<char>::find, COMDAT

; 472  : //		_DEBUG_POINTER(_First);
; 473  : 		return ((const _Elem *)::memchr(_First, _Ch, _Count));

  00000	8b 4c 24 0c	 mov	 ecx, DWORD PTR __Ch$[esp-4]
  00004	8b 44 24 08	 mov	 eax, DWORD PTR __Count$[esp-4]
  00008	0f be 11	 movsx	 edx, BYTE PTR [ecx]
  0000b	50		 push	 eax
  0000c	8b 44 24 08	 mov	 eax, DWORD PTR __First$[esp]
  00010	52		 push	 edx
  00011	50		 push	 eax
  00012	e8 00 00 00 00	 call	 _memchr
  00017	83 c4 0c	 add	 esp, 12			; 0000000cH

; 474  : 		}

  0001a	c3		 ret	 0
?find@?$char_traits@D@std@@SAPBDPBDIABD@Z ENDP		; std::char_traits<char>::find
_TEXT	ENDS
PUBLIC	?_Move_s@?$char_traits@D@std@@SAPADPADIPBDI@Z	; std::char_traits<char>::_Move_s
; Function compile flags: /Ogtpy
;	COMDAT ?_Move_s@?$char_traits@D@std@@SAPADPADIPBDI@Z
_TEXT	SEGMENT
__First1$ = 8						; size = 4
__Size_in_bytes$ = 12					; size = 4
__First2$ = 16						; size = 4
__Count$ = 20						; size = 4
?_Move_s@?$char_traits@D@std@@SAPADPADIPBDI@Z PROC	; std::char_traits<char>::_Move_s, COMDAT

; 487  : //		_DEBUG_POINTER(_First1);
; 488  : //		_DEBUG_POINTER(_First2);
; 489  : 		_CRT_SECURE_MEMMOVE(_First1, _Size_in_bytes, _First2, _Count);

  00000	8b 44 24 10	 mov	 eax, DWORD PTR __Count$[esp-4]
  00004	8b 4c 24 0c	 mov	 ecx, DWORD PTR __First2$[esp-4]
  00008	8b 54 24 08	 mov	 edx, DWORD PTR __Size_in_bytes$[esp-4]
  0000c	56		 push	 esi
  0000d	8b 74 24 08	 mov	 esi, DWORD PTR __First1$[esp]
  00011	50		 push	 eax
  00012	51		 push	 ecx
  00013	52		 push	 edx
  00014	56		 push	 esi
  00015	e8 00 00 00 00	 call	 _memmove_s
  0001a	83 c4 10	 add	 esp, 16			; 00000010H

; 490  : 		return _First1;

  0001d	8b c6		 mov	 eax, esi
  0001f	5e		 pop	 esi

; 491  : 		}

  00020	c3		 ret	 0
?_Move_s@?$char_traits@D@std@@SAPADPADIPBDI@Z ENDP	; std::char_traits<char>::_Move_s
_TEXT	ENDS
PUBLIC	?to_int_type@?$char_traits@D@std@@SAHABD@Z	; std::char_traits<char>::to_int_type
; Function compile flags: /Ogtpy
;	COMDAT ?to_int_type@?$char_traits@D@std@@SAHABD@Z
_TEXT	SEGMENT
__Ch$ = 8						; size = 4
?to_int_type@?$char_traits@D@std@@SAHABD@Z PROC		; std::char_traits<char>::to_int_type, COMDAT

; 506  : 		return ((unsigned char)_Ch);

  00000	8b 44 24 04	 mov	 eax, DWORD PTR __Ch$[esp-4]
  00004	0f b6 00	 movzx	 eax, BYTE PTR [eax]

; 507  : 		}

  00007	c3		 ret	 0
?to_int_type@?$char_traits@D@std@@SAHABD@Z ENDP		; std::char_traits<char>::to_int_type
_TEXT	ENDS
PUBLIC	?eq_int_type@?$char_traits@D@std@@SA_NABH0@Z	; std::char_traits<char>::eq_int_type
; Function compile flags: /Ogtpy
;	COMDAT ?eq_int_type@?$char_traits@D@std@@SA_NABH0@Z
_TEXT	SEGMENT
__Left$ = 8						; size = 4
__Right$ = 12						; size = 4
?eq_int_type@?$char_traits@D@std@@SA_NABH0@Z PROC	; std::char_traits<char>::eq_int_type, COMDAT

; 512  : 		return (_Left == _Right);

  00000	8b 44 24 04	 mov	 eax, DWORD PTR __Left$[esp-4]
  00004	8b 08		 mov	 ecx, DWORD PTR [eax]
  00006	8b 54 24 08	 mov	 edx, DWORD PTR __Right$[esp-4]
  0000a	33 c0		 xor	 eax, eax
  0000c	3b 0a		 cmp	 ecx, DWORD PTR [edx]
  0000e	0f 94 c0	 sete	 al

; 513  : 		}

  00011	c3		 ret	 0
?eq_int_type@?$char_traits@D@std@@SA_NABH0@Z ENDP	; std::char_traits<char>::eq_int_type
_TEXT	ENDS
PUBLIC	?eof@?$char_traits@D@std@@SAHXZ			; std::char_traits<char>::eof
; Function compile flags: /Ogtpy
;	COMDAT ?eof@?$char_traits@D@std@@SAHXZ
_TEXT	SEGMENT
?eof@?$char_traits@D@std@@SAHXZ PROC			; std::char_traits<char>::eof, COMDAT

; 517  : 		return (EOF);

  00000	83 c8 ff	 or	 eax, -1

; 518  : 		}

  00003	c3		 ret	 0
?eof@?$char_traits@D@std@@SAHXZ ENDP			; std::char_traits<char>::eof
_TEXT	ENDS
PUBLIC	??0_Aux_cont@std@@QAE@QBV_Container_base_aux@1@@Z ; std::_Aux_cont::_Aux_cont
; Function compile flags: /Ogtpy
; File c:\program files (x86)\microsoft visual studio 9.0\vc\include\xutility
;	COMDAT ??0_Aux_cont@std@@QAE@QBV_Container_base_aux@1@@Z
_TEXT	SEGMENT
__Pcont$ = 8						; size = 4
??0_Aux_cont@std@@QAE@QBV_Container_base_aux@1@@Z PROC	; std::_Aux_cont::_Aux_cont, COMDAT
; _this$ = ecx

; 364  : 	explicit _Aux_cont(const _Container_base_aux * const _Pcont)

  00000	8b c1		 mov	 eax, ecx
  00002	8b 4c 24 04	 mov	 ecx, DWORD PTR __Pcont$[esp-4]
  00006	89 08		 mov	 DWORD PTR [eax], ecx
  00008	c2 04 00	 ret	 4
??0_Aux_cont@std@@QAE@QBV_Container_base_aux@1@@Z ENDP	; std::_Aux_cont::_Aux_cont
_TEXT	ENDS
PUBLIC	?_Getcont@_Aux_cont@std@@QBEPBV_Container_base_aux@2@XZ ; std::_Aux_cont::_Getcont
; Function compile flags: /Ogtpy
;	COMDAT ?_Getcont@_Aux_cont@std@@QBEPBV_Container_base_aux@2@XZ
_TEXT	SEGMENT
?_Getcont@_Aux_cont@std@@QBEPBV_Container_base_aux@2@XZ PROC ; std::_Aux_cont::_Getcont, COMDAT
; _this$ = ecx

; 369  : 		return _Mycontainer;

  00000	8b 01		 mov	 eax, DWORD PTR [ecx]

; 370  : 		}

  00002	c3		 ret	 0
?_Getcont@_Aux_cont@std@@QBEPBV_Container_base_aux@2@XZ ENDP ; std::_Aux_cont::_Getcont
_TEXT	ENDS
PUBLIC	??0_Container_base_aux@std@@QAE@XZ		; std::_Container_base_aux::_Container_base_aux
; Function compile flags: /Ogtpy
;	COMDAT ??0_Container_base_aux@std@@QAE@XZ
_TEXT	SEGMENT
??0_Container_base_aux@std@@QAE@XZ PROC			; std::_Container_base_aux::_Container_base_aux, COMDAT
; _this$ = ecx

; 379  : 	_Container_base_aux()

  00000	8b c1		 mov	 eax, ecx

; 380  : 		{
; 381  : 		// Do nothing: _Container_base_aux_alloc_real() will construct the aux object.
; 382  : 		}

  00002	c3		 ret	 0
??0_Container_base_aux@std@@QAE@XZ ENDP			; std::_Container_base_aux::_Container_base_aux
_TEXT	ENDS
PUBLIC	??1_Container_base_aux@std@@QAE@XZ		; std::_Container_base_aux::~_Container_base_aux
; Function compile flags: /Ogtpy
;	COMDAT ??1_Container_base_aux@std@@QAE@XZ
_TEXT	SEGMENT
??1_Container_base_aux@std@@QAE@XZ PROC			; std::_Container_base_aux::~_Container_base_aux, COMDAT
; _this$ = ecx

; 403  : 		// Do nothing: ~_Container_base_aux_alloc_real() previously destroyed the aux object.
; 404  : 		}

  00000	c3		 ret	 0
??1_Container_base_aux@std@@QAE@XZ ENDP			; std::_Container_base_aux::~_Container_base_aux
_TEXT	ENDS
PUBLIC	??0_Iterator_base_aux@std@@QAE@XZ		; std::_Iterator_base_aux::_Iterator_base_aux
; Function compile flags: /Ogtpy
;	COMDAT ??0_Iterator_base_aux@std@@QAE@XZ
_TEXT	SEGMENT
??0_Iterator_base_aux@std@@QAE@XZ PROC			; std::_Iterator_base_aux::_Iterator_base_aux, COMDAT
; _this$ = ecx

; 448  : 	_Iterator_base_aux()

  00000	8b c1		 mov	 eax, ecx
  00002	c7 00 00 00 00
	00		 mov	 DWORD PTR [eax], 0
  00008	c3		 ret	 0
??0_Iterator_base_aux@std@@QAE@XZ ENDP			; std::_Iterator_base_aux::_Iterator_base_aux
_TEXT	ENDS
PUBLIC	?_Set_container@_Iterator_base_aux@std@@QAEXQBV_Container_base_aux@2@@Z ; std::_Iterator_base_aux::_Set_container
; Function compile flags: /Ogtpy
;	COMDAT ?_Set_container@_Iterator_base_aux@std@@QAEXQBV_Container_base_aux@2@@Z
_TEXT	SEGMENT
__Pcont$ = 8						; size = 4
?_Set_container@_Iterator_base_aux@std@@QAEXQBV_Container_base_aux@2@@Z PROC ; std::_Iterator_base_aux::_Set_container, COMDAT
; _this$ = ecx

; 453  : 		_Myaux = _Pcont->_Myownedaux;

  00000	8b 44 24 04	 mov	 eax, DWORD PTR __Pcont$[esp-4]
  00004	8b 10		 mov	 edx, DWORD PTR [eax]
  00006	89 11		 mov	 DWORD PTR [ecx], edx

; 454  : 		}

  00008	c2 04 00	 ret	 4
?_Set_container@_Iterator_base_aux@std@@QAEXQBV_Container_base_aux@2@@Z ENDP ; std::_Iterator_base_aux::_Set_container
_TEXT	ENDS
PUBLIC	?_Getmycont@_Iterator_base_aux@std@@QBEPBV_Container_base_aux@2@XZ ; std::_Iterator_base_aux::_Getmycont
; Function compile flags: /Ogtpy
;	COMDAT ?_Getmycont@_Iterator_base_aux@std@@QBEPBV_Container_base_aux@2@XZ
_TEXT	SEGMENT
?_Getmycont@_Iterator_base_aux@std@@QBEPBV_Container_base_aux@2@XZ PROC ; std::_Iterator_base_aux::_Getmycont, COMDAT
; _this$ = ecx

; 458  : 		return _Myaux ? _Myaux->_Getcont() : 0;

  00000	8b 01		 mov	 eax, DWORD PTR [ecx]
  00002	85 c0		 test	 eax, eax
  00004	74 03		 je	 SHORT $LN3@Getmycont
  00006	8b 00		 mov	 eax, DWORD PTR [eax]

; 459  : 		}

  00008	c3		 ret	 0
$LN3@Getmycont:

; 458  : 		return _Myaux ? _Myaux->_Getcont() : 0;

  00009	33 c0		 xor	 eax, eax

; 459  : 		}

  0000b	c3		 ret	 0
?_Getmycont@_Iterator_base_aux@std@@QBEPBV_Container_base_aux@2@XZ ENDP ; std::_Iterator_base_aux::_Getmycont
_TEXT	ENDS
PUBLIC	?_Same_container@_Iterator_base_aux@std@@QBE_NABV12@@Z ; std::_Iterator_base_aux::_Same_container
; Function compile flags: /Ogtpy
;	COMDAT ?_Same_container@_Iterator_base_aux@std@@QBE_NABV12@@Z
_TEXT	SEGMENT
__Other$ = 8						; size = 4
?_Same_container@_Iterator_base_aux@std@@QBE_NABV12@@Z PROC ; std::_Iterator_base_aux::_Same_container, COMDAT
; _this$ = ecx

; 463  : 		return _Myaux == _Other._Myaux;

  00000	8b 01		 mov	 eax, DWORD PTR [ecx]
  00002	8b 54 24 04	 mov	 edx, DWORD PTR __Other$[esp-4]
  00006	33 c9		 xor	 ecx, ecx
  00008	3b 02		 cmp	 eax, DWORD PTR [edx]
  0000a	0f 94 c1	 sete	 cl
  0000d	8a c1		 mov	 al, cl

; 464  : 		}

  0000f	c2 04 00	 ret	 4
?_Same_container@_Iterator_base_aux@std@@QBE_NABV12@@Z ENDP ; std::_Iterator_base_aux::_Same_container
_TEXT	ENDS
PUBLIC	?_Has_container@_Iterator_base_aux@std@@QBE_NXZ	; std::_Iterator_base_aux::_Has_container
; Function compile flags: /Ogtpy
;	COMDAT ?_Has_container@_Iterator_base_aux@std@@QBE_NXZ
_TEXT	SEGMENT
?_Has_container@_Iterator_base_aux@std@@QBE_NXZ PROC	; std::_Iterator_base_aux::_Has_container, COMDAT
; _this$ = ecx

; 468  : 		return _Myaux != 0;

  00000	33 c0		 xor	 eax, eax
  00002	39 01		 cmp	 DWORD PTR [ecx], eax
  00004	0f 95 c0	 setne	 al

; 469  : 		}

  00007	c3		 ret	 0
?_Has_container@_Iterator_base_aux@std@@QBE_NXZ ENDP	; std::_Iterator_base_aux::_Has_container
_TEXT	ENDS
PUBLIC	??0_Iterator_base_secure@std@@QAE@XZ		; std::_Iterator_base_secure::_Iterator_base_secure
; Function compile flags: /Ogtpy
;	COMDAT ??0_Iterator_base_secure@std@@QAE@XZ
_TEXT	SEGMENT
??0_Iterator_base_secure@std@@QAE@XZ PROC		; std::_Iterator_base_secure::_Iterator_base_secure, COMDAT
; _this$ = ecx

; 567  : 		{

  00000	8b c1		 mov	 eax, ecx
  00002	c7 00 00 00 00
	00		 mov	 DWORD PTR [eax], 0

; 568  : 		}

  00008	c3		 ret	 0
??0_Iterator_base_secure@std@@QAE@XZ ENDP		; std::_Iterator_base_secure::_Iterator_base_secure
_TEXT	ENDS
PUBLIC	?_Same_container@_Iterator_base_secure@std@@QBE_NABV12@@Z ; std::_Iterator_base_secure::_Same_container
; Function compile flags: /Ogtpy
;	COMDAT ?_Same_container@_Iterator_base_secure@std@@QBE_NABV12@@Z
_TEXT	SEGMENT
__Other$ = 8						; size = 4
?_Same_container@_Iterator_base_secure@std@@QBE_NABV12@@Z PROC ; std::_Iterator_base_secure::_Same_container, COMDAT
; _this$ = ecx

; 577  : 		return _Mycont == _Other._Mycont;

  00000	8b 01		 mov	 eax, DWORD PTR [ecx]
  00002	8b 54 24 04	 mov	 edx, DWORD PTR __Other$[esp-4]
  00006	33 c9		 xor	 ecx, ecx
  00008	3b 02		 cmp	 eax, DWORD PTR [edx]
  0000a	0f 94 c1	 sete	 cl
  0000d	8a c1		 mov	 al, cl

; 578  : 		}

  0000f	c2 04 00	 ret	 4
?_Same_container@_Iterator_base_secure@std@@QBE_NABV12@@Z ENDP ; std::_Iterator_base_secure::_Same_container
_TEXT	ENDS
PUBLIC	?_Has_container@_Iterator_base_secure@std@@QBE_NXZ ; std::_Iterator_base_secure::_Has_container
; Function compile flags: /Ogtpy
;	COMDAT ?_Has_container@_Iterator_base_secure@std@@QBE_NXZ
_TEXT	SEGMENT
?_Has_container@_Iterator_base_secure@std@@QBE_NXZ PROC	; std::_Iterator_base_secure::_Has_container, COMDAT
; _this$ = ecx

; 582  : 		return _Mycont != 0;

  00000	33 c0		 xor	 eax, eax
  00002	39 01		 cmp	 DWORD PTR [ecx], eax
  00004	0f 95 c0	 setne	 al

; 583  : 		}

  00007	c3		 ret	 0
?_Has_container@_Iterator_base_secure@std@@QBE_NXZ ENDP	; std::_Iterator_base_secure::_Has_container
_TEXT	ENDS
PUBLIC	?_Getctype@_Locinfo@std@@QBE?AU_Ctypevec@@XZ	; std::_Locinfo::_Getctype
EXTRN	__Getctype:PROC
; Function compile flags: /Ogtpy
; File c:\program files (x86)\microsoft visual studio 9.0\vc\include\xlocinfo
;	COMDAT ?_Getctype@_Locinfo@std@@QBE?AU_Ctypevec@@XZ
_TEXT	SEGMENT
$T137129 = -16						; size = 16
___$ReturnUdt$ = 8					; size = 4
?_Getctype@_Locinfo@std@@QBE?AU_Ctypevec@@XZ PROC	; std::_Locinfo::_Getctype, COMDAT
; _this$ = ecx

; 123  : 		{	// return ctype stuff

  00000	83 ec 10	 sub	 esp, 16			; 00000010H

; 124  : 		return (::_Getctype());

  00003	8d 04 24	 lea	 eax, DWORD PTR $T137129[esp+16]
  00006	50		 push	 eax
  00007	e8 00 00 00 00	 call	 __Getctype
  0000c	8b 4c 24 18	 mov	 ecx, DWORD PTR ___$ReturnUdt$[esp+16]
  00010	8b 10		 mov	 edx, DWORD PTR [eax]
  00012	89 11		 mov	 DWORD PTR [ecx], edx
  00014	8b 50 04	 mov	 edx, DWORD PTR [eax+4]
  00017	89 51 04	 mov	 DWORD PTR [ecx+4], edx
  0001a	8b 50 08	 mov	 edx, DWORD PTR [eax+8]
  0001d	8b 40 0c	 mov	 eax, DWORD PTR [eax+12]
  00020	89 51 08	 mov	 DWORD PTR [ecx+8], edx
  00023	89 41 0c	 mov	 DWORD PTR [ecx+12], eax
  00026	8b c1		 mov	 eax, ecx

; 125  : 		}

  00028	83 c4 14	 add	 esp, 20			; 00000014H
  0002b	c2 04 00	 ret	 4
?_Getctype@_Locinfo@std@@QBE?AU_Ctypevec@@XZ ENDP	; std::_Locinfo::_Getctype
_TEXT	ENDS
PUBLIC	?_Getcvt@_Locinfo@std@@QBE?AU_Cvtvec@@XZ	; std::_Locinfo::_Getcvt
EXTRN	__Getcvt:PROC
; Function compile flags: /Ogtpy
;	COMDAT ?_Getcvt@_Locinfo@std@@QBE?AU_Cvtvec@@XZ
_TEXT	SEGMENT
___$ReturnUdt$ = 8					; size = 4
?_Getcvt@_Locinfo@std@@QBE?AU_Cvtvec@@XZ PROC		; std::_Locinfo::_Getcvt, COMDAT
; _this$ = ecx

; 129  : 		return (::_Getcvt());

  00000	e8 00 00 00 00	 call	 __Getcvt
  00005	8b c8		 mov	 ecx, eax
  00007	8b 44 24 04	 mov	 eax, DWORD PTR ___$ReturnUdt$[esp-4]
  0000b	89 08		 mov	 DWORD PTR [eax], ecx
  0000d	89 50 04	 mov	 DWORD PTR [eax+4], edx

; 130  : 		}

  00010	c2 04 00	 ret	 4
?_Getcvt@_Locinfo@std@@QBE?AU_Cvtvec@@XZ ENDP		; std::_Locinfo::_Getcvt
_TEXT	ENDS
PUBLIC	??0id@locale@std@@QAE@I@Z			; std::locale::id::id
; Function compile flags: /Ogtpy
; File c:\program files (x86)\microsoft visual studio 9.0\vc\include\xlocale
;	COMDAT ??0id@locale@std@@QAE@I@Z
_TEXT	SEGMENT
__Val$ = 8						; size = 4
??0id@locale@std@@QAE@I@Z PROC				; std::locale::id::id, COMDAT
; _this$ = ecx

; 73   : 			{	// construct with specified stamp value

  00000	8b c1		 mov	 eax, ecx
  00002	8b 4c 24 04	 mov	 ecx, DWORD PTR __Val$[esp-4]
  00006	89 08		 mov	 DWORD PTR [eax], ecx

; 74   : 			}

  00008	c2 04 00	 ret	 4
??0id@locale@std@@QAE@I@Z ENDP				; std::locale::id::id
_TEXT	ENDS
PUBLIC	??Bid@locale@std@@QAEIXZ			; std::locale::id::operator unsigned int
EXTRN	??1_Lockit@std@@QAE@XZ:PROC			; std::_Lockit::~_Lockit
EXTRN	?_Id_cnt@id@locale@std@@0HA:DWORD		; std::locale::id::_Id_cnt
EXTRN	??0_Lockit@std@@QAE@H@Z:PROC			; std::_Lockit::_Lockit
; Function compile flags: /Ogtpy
;	COMDAT ??Bid@locale@std@@QAEIXZ
_TEXT	SEGMENT
__Lock$47902 = -4					; size = 4
??Bid@locale@std@@QAEIXZ PROC				; std::locale::id::operator unsigned int, COMDAT
; _this$ = ecx

; 77   : 			{	// get stamp, with lazy allocation

  00000	51		 push	 ecx
  00001	56		 push	 esi
  00002	8b f1		 mov	 esi, ecx

; 78   : 			if (_Id == 0)

  00004	83 3e 00	 cmp	 DWORD PTR [esi], 0
  00007	75 26		 jne	 SHORT $LN6@operator

; 79   : 				{	// still zero, allocate stamp
; 80   : 				_BEGIN_LOCK(_LOCK_LOCALE)

  00009	6a 00		 push	 0
  0000b	8d 4c 24 08	 lea	 ecx, DWORD PTR __Lock$47902[esp+12]
  0000f	e8 00 00 00 00	 call	 ??0_Lockit@std@@QAE@H@Z	; std::_Lockit::_Lockit

; 81   : 					if (_Id == 0)

  00014	83 3e 00	 cmp	 DWORD PTR [esi], 0
  00017	75 0d		 jne	 SHORT $LN1@operator

; 82   : 						_Id = ++_Id_cnt;

  00019	a1 00 00 00 00	 mov	 eax, DWORD PTR ?_Id_cnt@id@locale@std@@0HA ; std::locale::id::_Id_cnt
  0001e	40		 inc	 eax
  0001f	a3 00 00 00 00	 mov	 DWORD PTR ?_Id_cnt@id@locale@std@@0HA, eax ; std::locale::id::_Id_cnt
  00024	89 06		 mov	 DWORD PTR [esi], eax
$LN1@operator:

; 83   : 				_END_LOCK()

  00026	8d 4c 24 04	 lea	 ecx, DWORD PTR __Lock$47902[esp+8]
  0002a	e8 00 00 00 00	 call	 ??1_Lockit@std@@QAE@XZ	; std::_Lockit::~_Lockit
$LN6@operator:

; 84   : 				}
; 85   : 			return (_Id);

  0002f	8b 06		 mov	 eax, DWORD PTR [esi]
  00031	5e		 pop	 esi

; 86   : 			}

  00032	59		 pop	 ecx
  00033	c3		 ret	 0
??Bid@locale@std@@QAEIXZ ENDP				; std::locale::id::operator unsigned int
_TEXT	ENDS
PUBLIC	?_Incref@facet@locale@std@@QAEXXZ		; std::locale::facet::_Incref
; Function compile flags: /Ogtpy
;	COMDAT ?_Incref@facet@locale@std@@QAEXXZ
_TEXT	SEGMENT
__Lock$47908 = -4					; size = 4
?_Incref@facet@locale@std@@QAEXXZ PROC			; std::locale::facet::_Incref, COMDAT
; _this$ = ecx

; 117  : 			{	// safely increment the reference count

  00000	51		 push	 ecx
  00001	56		 push	 esi
  00002	8b f1		 mov	 esi, ecx

; 118  : 			_BEGIN_LOCK(_LOCK_LOCALE)

  00004	6a 00		 push	 0
  00006	8d 4c 24 08	 lea	 ecx, DWORD PTR __Lock$47908[esp+12]
  0000a	e8 00 00 00 00	 call	 ??0_Lockit@std@@QAE@H@Z	; std::_Lockit::_Lockit

; 119  : 				if (_Refs < (size_t)(-1))

  0000f	8b 46 04	 mov	 eax, DWORD PTR [esi+4]
  00012	83 f8 ff	 cmp	 eax, -1
  00015	73 04		 jae	 SHORT $LN1@Incref

; 120  : 					++_Refs;

  00017	40		 inc	 eax
  00018	89 46 04	 mov	 DWORD PTR [esi+4], eax
$LN1@Incref:

; 121  : 			_END_LOCK()

  0001b	8d 4c 24 04	 lea	 ecx, DWORD PTR __Lock$47908[esp+8]
  0001f	e8 00 00 00 00	 call	 ??1_Lockit@std@@QAE@XZ	; std::_Lockit::~_Lockit
  00024	5e		 pop	 esi

; 122  : 			}

  00025	59		 pop	 ecx
  00026	c3		 ret	 0
?_Incref@facet@locale@std@@QAEXXZ ENDP			; std::locale::facet::_Incref
_TEXT	ENDS
PUBLIC	?_Decref@facet@locale@std@@QAEPAV123@XZ		; std::locale::facet::_Decref
; Function compile flags: /Ogtpy
;	COMDAT ?_Decref@facet@locale@std@@QAEPAV123@XZ
_TEXT	SEGMENT
__Lock$47913 = -4					; size = 4
?_Decref@facet@locale@std@@QAEPAV123@XZ PROC		; std::locale::facet::_Decref, COMDAT
; _this$ = ecx

; 125  : 			{	// safely decrement the reference count, return this when dead

  00000	51		 push	 ecx
  00001	56		 push	 esi
  00002	57		 push	 edi
  00003	8b f9		 mov	 edi, ecx

; 126  : 			_BEGIN_LOCK(_LOCK_LOCALE)

  00005	6a 00		 push	 0
  00007	8d 4c 24 0c	 lea	 ecx, DWORD PTR __Lock$47913[esp+16]
  0000b	e8 00 00 00 00	 call	 ??0_Lockit@std@@QAE@H@Z	; std::_Lockit::_Lockit

; 127  : 				if (0 < _Refs && _Refs < (size_t)(-1))

  00010	8b 47 04	 mov	 eax, DWORD PTR [edi+4]
  00013	85 c0		 test	 eax, eax
  00015	76 09		 jbe	 SHORT $LN1@Decref
  00017	83 f8 ff	 cmp	 eax, -1
  0001a	73 04		 jae	 SHORT $LN1@Decref

; 128  : 					--_Refs;

  0001c	48		 dec	 eax
  0001d	89 47 04	 mov	 DWORD PTR [edi+4], eax
$LN1@Decref:

; 129  : 				return (_Refs == 0 ? this : 0);

  00020	8b 77 04	 mov	 esi, DWORD PTR [edi+4]
  00023	f7 de		 neg	 esi
  00025	1b f6		 sbb	 esi, esi
  00027	f7 d6		 not	 esi
  00029	8d 4c 24 08	 lea	 ecx, DWORD PTR __Lock$47913[esp+12]
  0002d	23 f7		 and	 esi, edi
  0002f	e8 00 00 00 00	 call	 ??1_Lockit@std@@QAE@XZ	; std::_Lockit::~_Lockit
  00034	5f		 pop	 edi
  00035	8b c6		 mov	 eax, esi
  00037	5e		 pop	 esi

; 130  : 			_END_LOCK()
; 131  : 			}

  00038	59		 pop	 ecx
  00039	c3		 ret	 0
?_Decref@facet@locale@std@@QAEPAV123@XZ ENDP		; std::locale::facet::_Decref
_TEXT	ENDS
PUBLIC	?_Register@facet@locale@std@@QAEXXZ		; std::locale::facet::_Register
EXTRN	?facet_Register@facet@locale@std@@CAXPAV123@@Z:PROC ; std::locale::facet::facet_Register
; Function compile flags: /Ogtpy
;	COMDAT ?_Register@facet@locale@std@@QAEXXZ
_TEXT	SEGMENT
?_Register@facet@locale@std@@QAEXXZ PROC		; std::locale::facet::_Register, COMDAT
; _this$ = ecx

; 135  : #if defined(_M_CEE)
; 136  : 			facet_Register_m(this);
; 137  : #else
; 138  : 			facet_Register(this);

  00000	51		 push	 ecx
  00001	e8 00 00 00 00	 call	 ?facet_Register@facet@locale@std@@CAXPAV123@@Z ; std::locale::facet::facet_Register
  00006	59		 pop	 ecx

; 139  : #endif
; 140  : 			}

  00007	c3		 ret	 0
?_Register@facet@locale@std@@QAEXXZ ENDP		; std::locale::facet::_Register
_TEXT	ENDS
PUBLIC	??_7facet@locale@std@@6B@			; std::locale::facet::`vftable'
PUBLIC	??1facet@locale@std@@UAE@XZ			; std::locale::facet::~facet
PUBLIC	??_R4facet@locale@std@@6B@			; std::locale::facet::`RTTI Complete Object Locator'
PUBLIC	??_R0?AVfacet@locale@std@@@8			; std::locale::facet `RTTI Type Descriptor'
PUBLIC	??_R3facet@locale@std@@8			; std::locale::facet::`RTTI Class Hierarchy Descriptor'
PUBLIC	??_R2facet@locale@std@@8			; std::locale::facet::`RTTI Base Class Array'
PUBLIC	??_R1A@?0A@EA@facet@locale@std@@8		; std::locale::facet::`RTTI Base Class Descriptor at (0,-1,0,64)'
EXTRN	??_Efacet@locale@std@@UAEPAXI@Z:PROC		; std::locale::facet::`vector deleting destructor'
;	COMDAT ??_R1A@?0A@EA@facet@locale@std@@8
rdata$r	SEGMENT
??_R1A@?0A@EA@facet@locale@std@@8 DD FLAT:??_R0?AVfacet@locale@std@@@8 ; std::locale::facet::`RTTI Base Class Descriptor at (0,-1,0,64)'
	DD	00H
	DD	00H
	DD	0ffffffffH
	DD	00H
	DD	040H
	DD	FLAT:??_R3facet@locale@std@@8
rdata$r	ENDS
;	COMDAT ??_R2facet@locale@std@@8
rdata$r	SEGMENT
??_R2facet@locale@std@@8 DD FLAT:??_R1A@?0A@EA@facet@locale@std@@8 ; std::locale::facet::`RTTI Base Class Array'
rdata$r	ENDS
;	COMDAT ??_R3facet@locale@std@@8
rdata$r	SEGMENT
??_R3facet@locale@std@@8 DD 00H				; std::locale::facet::`RTTI Class Hierarchy Descriptor'
	DD	00H
	DD	01H
	DD	FLAT:??_R2facet@locale@std@@8
rdata$r	ENDS
;	COMDAT ??_R0?AVfacet@locale@std@@@8
_DATA	SEGMENT
??_R0?AVfacet@locale@std@@@8 DD FLAT:??_7type_info@@6B@	; std::locale::facet `RTTI Type Descriptor'
	DD	00H
	DB	'.?AVfacet@locale@std@@', 00H
_DATA	ENDS
;	COMDAT ??_R4facet@locale@std@@6B@
rdata$r	SEGMENT
??_R4facet@locale@std@@6B@ DD 00H			; std::locale::facet::`RTTI Complete Object Locator'
	DD	00H
	DD	00H
	DD	FLAT:??_R0?AVfacet@locale@std@@@8
	DD	FLAT:??_R3facet@locale@std@@8
rdata$r	ENDS
;	COMDAT ??_7facet@locale@std@@6B@
CONST	SEGMENT
??_7facet@locale@std@@6B@ DD FLAT:??_R4facet@locale@std@@6B@ ; std::locale::facet::`vftable'
	DD	FLAT:??_Efacet@locale@std@@UAEPAXI@Z
; Function compile flags: /Ogtpy
CONST	ENDS
;	COMDAT ??1facet@locale@std@@UAE@XZ
_TEXT	SEGMENT
??1facet@locale@std@@UAE@XZ PROC			; std::locale::facet::~facet, COMDAT
; _this$ = ecx

; 170  : 			{	// destroy the object

  00000	c7 01 00 00 00
	00		 mov	 DWORD PTR [ecx], OFFSET ??_7facet@locale@std@@6B@

; 171  : 			}

  00006	c3		 ret	 0
??1facet@locale@std@@UAE@XZ ENDP			; std::locale::facet::~facet
_TEXT	ENDS
PUBLIC	??0facet@locale@std@@IAE@I@Z			; std::locale::facet::facet
; Function compile flags: /Ogtpy
;	COMDAT ??0facet@locale@std@@IAE@I@Z
_TEXT	SEGMENT
__Initrefs$ = 8						; size = 4
??0facet@locale@std@@IAE@I@Z PROC			; std::locale::facet::facet, COMDAT
; _this$ = ecx

; 176  : 			{	// construct with initial reference count

  00000	8b c1		 mov	 eax, ecx
  00002	8b 4c 24 04	 mov	 ecx, DWORD PTR __Initrefs$[esp-4]
  00006	c7 00 00 00 00
	00		 mov	 DWORD PTR [eax], OFFSET ??_7facet@locale@std@@6B@
  0000c	89 48 04	 mov	 DWORD PTR [eax+4], ecx

; 177  : 			}

  0000f	c2 04 00	 ret	 4
??0facet@locale@std@@IAE@I@Z ENDP			; std::locale::facet::facet
_TEXT	ENDS
PUBLIC	??0locale@std@@QAE@XZ				; std::locale::locale
EXTRN	?_Getgloballocale@locale@std@@CAPAV_Locimp@12@XZ:PROC ; std::locale::_Getgloballocale
EXTRN	?_Init@locale@std@@CAPAV_Locimp@12@XZ:PROC	; std::locale::_Init
; Function compile flags: /Ogtpy
;	COMDAT ??0locale@std@@QAE@XZ
_TEXT	SEGMENT
__Lock$137156 = -4					; size = 4
??0locale@std@@QAE@XZ PROC				; std::locale::locale, COMDAT
; _this$ = ecx

; 324  : 		{	// construct from current locale

  00000	51		 push	 ecx
  00001	56		 push	 esi
  00002	57		 push	 edi
  00003	8b f9		 mov	 edi, ecx
  00005	e8 00 00 00 00	 call	 ?_Init@locale@std@@CAPAV_Locimp@12@XZ ; std::locale::_Init
  0000a	89 07		 mov	 DWORD PTR [edi], eax

; 325  : 		_Getgloballocale()->_Incref();

  0000c	e8 00 00 00 00	 call	 ?_Getgloballocale@locale@std@@CAPAV_Locimp@12@XZ ; std::locale::_Getgloballocale
  00011	6a 00		 push	 0
  00013	8d 4c 24 0c	 lea	 ecx, DWORD PTR __Lock$137156[esp+16]
  00017	8b f0		 mov	 esi, eax
  00019	e8 00 00 00 00	 call	 ??0_Lockit@std@@QAE@H@Z	; std::_Lockit::_Lockit
  0001e	8b 46 04	 mov	 eax, DWORD PTR [esi+4]
  00021	83 f8 ff	 cmp	 eax, -1
  00024	73 04		 jae	 SHORT $LN3@locale
  00026	40		 inc	 eax
  00027	89 46 04	 mov	 DWORD PTR [esi+4], eax
$LN3@locale:
  0002a	8d 4c 24 08	 lea	 ecx, DWORD PTR __Lock$137156[esp+12]
  0002e	e8 00 00 00 00	 call	 ??1_Lockit@std@@QAE@XZ	; std::_Lockit::~_Lockit

; 326  : 		}

  00033	8b c7		 mov	 eax, edi
  00035	5f		 pop	 edi
  00036	5e		 pop	 esi
  00037	59		 pop	 ecx
  00038	c3		 ret	 0
??0locale@std@@QAE@XZ ENDP				; std::locale::locale
_TEXT	ENDS
PUBLIC	??0locale@std@@QAE@ABV01@@Z			; std::locale::locale
; Function compile flags: /Ogtpy
;	COMDAT ??0locale@std@@QAE@ABV01@@Z
_TEXT	SEGMENT
__Lock$137164 = 8					; size = 4
__Right$ = 8						; size = 4
??0locale@std@@QAE@ABV01@@Z PROC			; std::locale::locale, COMDAT
; _this$ = ecx

; 334  : 		{	// construct by copying

  00000	8b 44 24 04	 mov	 eax, DWORD PTR __Right$[esp-4]
  00004	56		 push	 esi
  00005	8b 30		 mov	 esi, DWORD PTR [eax]
  00007	57		 push	 edi
  00008	8b f9		 mov	 edi, ecx

; 335  : 		_Ptr->_Incref();

  0000a	6a 00		 push	 0
  0000c	8d 4c 24 10	 lea	 ecx, DWORD PTR __Lock$137164[esp+8]
  00010	89 37		 mov	 DWORD PTR [edi], esi
  00012	e8 00 00 00 00	 call	 ??0_Lockit@std@@QAE@H@Z	; std::_Lockit::_Lockit
  00017	8b 46 04	 mov	 eax, DWORD PTR [esi+4]
  0001a	83 f8 ff	 cmp	 eax, -1
  0001d	73 04		 jae	 SHORT $LN3@locale@2
  0001f	40		 inc	 eax
  00020	89 46 04	 mov	 DWORD PTR [esi+4], eax
$LN3@locale@2:
  00023	8d 4c 24 0c	 lea	 ecx, DWORD PTR __Lock$137164[esp+4]
  00027	e8 00 00 00 00	 call	 ??1_Lockit@std@@QAE@XZ	; std::_Lockit::~_Lockit

; 336  : 		}

  0002c	8b c7		 mov	 eax, edi
  0002e	5f		 pop	 edi
  0002f	5e		 pop	 esi
  00030	c2 04 00	 ret	 4
??0locale@std@@QAE@ABV01@@Z ENDP			; std::locale::locale
_TEXT	ENDS
PUBLIC	??1locale@std@@QAE@XZ				; std::locale::~locale
; Function compile flags: /Ogtpy
;	COMDAT ??1locale@std@@QAE@XZ
_TEXT	SEGMENT
__Lock$137177 = -4					; size = 4
??1locale@std@@QAE@XZ PROC				; std::locale::~locale, COMDAT
; _this$ = ecx

; 390  : 		{	// destroy the object

  00000	51		 push	 ecx
  00001	57		 push	 edi

; 391  : 		if (_Ptr != 0)

  00002	8b 39		 mov	 edi, DWORD PTR [ecx]
  00004	85 ff		 test	 edi, edi
  00006	74 3f		 je	 SHORT $LN4@locale@3

; 392  : 			_DELETE_CRT(_Ptr->_Decref());

  00008	6a 00		 push	 0
  0000a	8d 4c 24 08	 lea	 ecx, DWORD PTR __Lock$137177[esp+12]
  0000e	e8 00 00 00 00	 call	 ??0_Lockit@std@@QAE@H@Z	; std::_Lockit::_Lockit
  00013	8b 47 04	 mov	 eax, DWORD PTR [edi+4]
  00016	85 c0		 test	 eax, eax
  00018	76 09		 jbe	 SHORT $LN6@locale@3
  0001a	83 f8 ff	 cmp	 eax, -1
  0001d	73 04		 jae	 SHORT $LN6@locale@3
  0001f	48		 dec	 eax
  00020	89 47 04	 mov	 DWORD PTR [edi+4], eax
$LN6@locale@3:
  00023	56		 push	 esi
  00024	8b 77 04	 mov	 esi, DWORD PTR [edi+4]
  00027	f7 de		 neg	 esi
  00029	1b f6		 sbb	 esi, esi
  0002b	f7 d6		 not	 esi
  0002d	8d 4c 24 08	 lea	 ecx, DWORD PTR __Lock$137177[esp+12]
  00031	23 f7		 and	 esi, edi
  00033	e8 00 00 00 00	 call	 ??1_Lockit@std@@QAE@XZ	; std::_Lockit::~_Lockit
  00038	85 f6		 test	 esi, esi
  0003a	74 0a		 je	 SHORT $LN9@locale@3
  0003c	8b 06		 mov	 eax, DWORD PTR [esi]
  0003e	8b 10		 mov	 edx, DWORD PTR [eax]
  00040	6a 01		 push	 1
  00042	8b ce		 mov	 ecx, esi
  00044	ff d2		 call	 edx
$LN9@locale@3:
  00046	5e		 pop	 esi
$LN4@locale@3:
  00047	5f		 pop	 edi

; 393  : 		}

  00048	59		 pop	 ecx
  00049	c3		 ret	 0
??1locale@std@@QAE@XZ ENDP				; std::locale::~locale
_TEXT	ENDS
PUBLIC	?_Getfacet@locale@std@@QBEPBVfacet@12@I@Z	; std::locale::_Getfacet
; Function compile flags: /Ogtpy
;	COMDAT ?_Getfacet@locale@std@@QBEPBVfacet@12@I@Z
_TEXT	SEGMENT
__Id$ = 8						; size = 4
?_Getfacet@locale@std@@QBEPBVfacet@12@I@Z PROC		; std::locale::_Getfacet, COMDAT
; _this$ = ecx

; 413  : 		const facet *_Facptr = _Id < _Ptr->_Facetcount
; 414  : 			? _Ptr->_Facetvec[_Id] : 0;	// null if id off end

  00000	8b 09		 mov	 ecx, DWORD PTR [ecx]
  00002	56		 push	 esi
  00003	8b 74 24 08	 mov	 esi, DWORD PTR __Id$[esp]
  00007	3b 71 0c	 cmp	 esi, DWORD PTR [ecx+12]
  0000a	73 24		 jae	 SHORT $LN6@Getfacet
  0000c	8b 41 08	 mov	 eax, DWORD PTR [ecx+8]
  0000f	8b 04 b0	 mov	 eax, DWORD PTR [eax+esi*4]

; 415  : 		if (_Facptr != 0 || !_Ptr->_Xparent)

  00012	85 c0		 test	 eax, eax
  00014	75 20		 jne	 SHORT $LN1@Getfacet
$LN10@Getfacet:
  00016	80 79 14 00	 cmp	 BYTE PTR [ecx+20], 0
  0001a	74 1a		 je	 SHORT $LN1@Getfacet

; 416  : 			return (_Facptr);	// found facet or not transparent, return pointer
; 417  : 		else
; 418  : 			{	// look in current locale
; 419  : 			locale::_Locimp *_Ptr = _Getgloballocale();

  0001c	e8 00 00 00 00	 call	 ?_Getgloballocale@locale@std@@CAPAV_Locimp@12@XZ ; std::locale::_Getgloballocale

; 420  : 			return (_Id < _Ptr->_Facetcount
; 421  : 				? _Ptr->_Facetvec[_Id]	// get from current locale
; 422  : 				: 0);	// no entry in current locale

  00021	3b 70 0c	 cmp	 esi, DWORD PTR [eax+12]
  00024	73 0e		 jae	 SHORT $LN8@Getfacet
  00026	8b 48 08	 mov	 ecx, DWORD PTR [eax+8]
  00029	8b 04 b1	 mov	 eax, DWORD PTR [ecx+esi*4]
  0002c	5e		 pop	 esi

; 423  : 			}
; 424  : 		}

  0002d	c2 04 00	 ret	 4
$LN6@Getfacet:

; 413  : 		const facet *_Facptr = _Id < _Ptr->_Facetcount
; 414  : 			? _Ptr->_Facetvec[_Id] : 0;	// null if id off end

  00030	33 c0		 xor	 eax, eax

; 415  : 		if (_Facptr != 0 || !_Ptr->_Xparent)

  00032	eb e2		 jmp	 SHORT $LN10@Getfacet
$LN8@Getfacet:

; 420  : 			return (_Id < _Ptr->_Facetcount
; 421  : 				? _Ptr->_Facetvec[_Id]	// get from current locale
; 422  : 				: 0);	// no entry in current locale

  00034	33 c0		 xor	 eax, eax
$LN1@Getfacet:
  00036	5e		 pop	 esi

; 423  : 			}
; 424  : 		}

  00037	c2 04 00	 ret	 4
?_Getfacet@locale@std@@QBEPBVfacet@12@I@Z ENDP		; std::locale::_Getfacet
; Function compile flags: /Ogtpy
_TEXT	ENDS
;	COMDAT ??_Gfacet@locale@std@@UAEPAXI@Z
_TEXT	SEGMENT
___flags$ = 8						; size = 4
??_Gfacet@locale@std@@UAEPAXI@Z PROC			; std::locale::facet::`scalar deleting destructor', COMDAT
; _this$ = ecx
  00000	f6 44 24 04 01	 test	 BYTE PTR ___flags$[esp-4], 1
  00005	56		 push	 esi
  00006	8b f1		 mov	 esi, ecx
  00008	c7 06 00 00 00
	00		 mov	 DWORD PTR [esi], OFFSET ??_7facet@locale@std@@6B@
  0000e	74 09		 je	 SHORT $LN6@scalar@2
  00010	56		 push	 esi
  00011	e8 00 00 00 00	 call	 ??3@YAXPAX@Z		; operator delete
  00016	83 c4 04	 add	 esp, 4
$LN6@scalar@2:
  00019	8b c6		 mov	 eax, esi
  0001b	5e		 pop	 esi
  0001c	c2 04 00	 ret	 4
??_Gfacet@locale@std@@UAEPAXI@Z ENDP			; std::locale::facet::`scalar deleting destructor'
_TEXT	ENDS
PUBLIC	??_7ctype_base@std@@6B@				; std::ctype_base::`vftable'
PUBLIC	??0ctype_base@std@@QAE@I@Z			; std::ctype_base::ctype_base
PUBLIC	??_R4ctype_base@std@@6B@			; std::ctype_base::`RTTI Complete Object Locator'
PUBLIC	??_R0?AUctype_base@std@@@8			; std::ctype_base `RTTI Type Descriptor'
PUBLIC	??_R3ctype_base@std@@8				; std::ctype_base::`RTTI Class Hierarchy Descriptor'
PUBLIC	??_R2ctype_base@std@@8				; std::ctype_base::`RTTI Base Class Array'
PUBLIC	??_R1A@?0A@EA@ctype_base@std@@8			; std::ctype_base::`RTTI Base Class Descriptor at (0,-1,0,64)'
EXTRN	??_Ectype_base@std@@UAEPAXI@Z:PROC		; std::ctype_base::`vector deleting destructor'
;	COMDAT ??_R1A@?0A@EA@ctype_base@std@@8
rdata$r	SEGMENT
??_R1A@?0A@EA@ctype_base@std@@8 DD FLAT:??_R0?AUctype_base@std@@@8 ; std::ctype_base::`RTTI Base Class Descriptor at (0,-1,0,64)'
	DD	01H
	DD	00H
	DD	0ffffffffH
	DD	00H
	DD	040H
	DD	FLAT:??_R3ctype_base@std@@8
rdata$r	ENDS
;	COMDAT ??_R2ctype_base@std@@8
rdata$r	SEGMENT
??_R2ctype_base@std@@8 DD FLAT:??_R1A@?0A@EA@ctype_base@std@@8 ; std::ctype_base::`RTTI Base Class Array'
	DD	FLAT:??_R1A@?0A@EA@facet@locale@std@@8
rdata$r	ENDS
;	COMDAT ??_R3ctype_base@std@@8
rdata$r	SEGMENT
??_R3ctype_base@std@@8 DD 00H				; std::ctype_base::`RTTI Class Hierarchy Descriptor'
	DD	00H
	DD	02H
	DD	FLAT:??_R2ctype_base@std@@8
rdata$r	ENDS
;	COMDAT ??_R0?AUctype_base@std@@@8
_DATA	SEGMENT
??_R0?AUctype_base@std@@@8 DD FLAT:??_7type_info@@6B@	; std::ctype_base `RTTI Type Descriptor'
	DD	00H
	DB	'.?AUctype_base@std@@', 00H
_DATA	ENDS
;	COMDAT ??_R4ctype_base@std@@6B@
rdata$r	SEGMENT
??_R4ctype_base@std@@6B@ DD 00H				; std::ctype_base::`RTTI Complete Object Locator'
	DD	00H
	DD	00H
	DD	FLAT:??_R0?AUctype_base@std@@@8
	DD	FLAT:??_R3ctype_base@std@@8
rdata$r	ENDS
;	COMDAT ??_7ctype_base@std@@6B@
CONST	SEGMENT
??_7ctype_base@std@@6B@ DD FLAT:??_R4ctype_base@std@@6B@ ; std::ctype_base::`vftable'
	DD	FLAT:??_Ectype_base@std@@UAEPAXI@Z
; Function compile flags: /Ogtpy
CONST	ENDS
;	COMDAT ??0ctype_base@std@@QAE@I@Z
_TEXT	SEGMENT
__Refs$ = 8						; size = 4
??0ctype_base@std@@QAE@I@Z PROC				; std::ctype_base::ctype_base, COMDAT
; _this$ = ecx

; 1358 : 		{	// default constructor

  00000	8b c1		 mov	 eax, ecx
  00002	8b 4c 24 04	 mov	 ecx, DWORD PTR __Refs$[esp-4]
  00006	89 48 04	 mov	 DWORD PTR [eax+4], ecx
  00009	c7 00 00 00 00
	00		 mov	 DWORD PTR [eax], OFFSET ??_7ctype_base@std@@6B@

; 1359 : 		}

  0000f	c2 04 00	 ret	 4
??0ctype_base@std@@QAE@I@Z ENDP				; std::ctype_base::ctype_base
_TEXT	ENDS
PUBLIC	??1ctype_base@std@@UAE@XZ			; std::ctype_base::~ctype_base
; Function compile flags: /Ogtpy
;	COMDAT ??1ctype_base@std@@UAE@XZ
_TEXT	SEGMENT
??1ctype_base@std@@UAE@XZ PROC				; std::ctype_base::~ctype_base, COMDAT
; _this$ = ecx

; 1363 : 		}

  00000	c7 01 00 00 00
	00		 mov	 DWORD PTR [ecx], OFFSET ??_7facet@locale@std@@6B@
  00006	c3		 ret	 0
??1ctype_base@std@@UAE@XZ ENDP				; std::ctype_base::~ctype_base
; Function compile flags: /Ogtpy
_TEXT	ENDS
;	COMDAT ??_Gctype_base@std@@UAEPAXI@Z
_TEXT	SEGMENT
___flags$ = 8						; size = 4
??_Gctype_base@std@@UAEPAXI@Z PROC			; std::ctype_base::`scalar deleting destructor', COMDAT
; _this$ = ecx
  00000	f6 44 24 04 01	 test	 BYTE PTR ___flags$[esp-4], 1
  00005	56		 push	 esi
  00006	8b f1		 mov	 esi, ecx
  00008	c7 06 00 00 00
	00		 mov	 DWORD PTR [esi], OFFSET ??_7facet@locale@std@@6B@
  0000e	74 09		 je	 SHORT $LN8@scalar@3
  00010	56		 push	 esi
  00011	e8 00 00 00 00	 call	 ??3@YAXPAX@Z		; operator delete
  00016	83 c4 04	 add	 esp, 4
$LN8@scalar@3:
  00019	8b c6		 mov	 eax, esi
  0001b	5e		 pop	 esi
  0001c	c2 04 00	 ret	 4
??_Gctype_base@std@@UAEPAXI@Z ENDP			; std::ctype_base::`scalar deleting destructor'
_TEXT	ENDS
PUBLIC	?widen@?$ctype@D@std@@QBEDD@Z			; std::ctype<char>::widen
; Function compile flags: /Ogtpy
;	COMDAT ?widen@?$ctype@D@std@@QBEDD@Z
_TEXT	SEGMENT
__Byte$ = 8						; size = 1
?widen@?$ctype@D@std@@QBEDD@Z PROC			; std::ctype<char>::widen, COMDAT
; _this$ = ecx

; 1716 : 		return (do_widen(_Byte));

  00000	8b 01		 mov	 eax, DWORD PTR [ecx]
  00002	8b 40 18	 mov	 eax, DWORD PTR [eax+24]
  00005	ff e0		 jmp	 eax
?widen@?$ctype@D@std@@QBEDD@Z ENDP			; std::ctype<char>::widen
_TEXT	ENDS
PUBLIC	?_Init@?$ctype@D@std@@IAEXABV_Locinfo@2@@Z	; std::ctype<char>::_Init
; Function compile flags: /Ogtpy
;	COMDAT ?_Init@?$ctype@D@std@@IAEXABV_Locinfo@2@@Z
_TEXT	SEGMENT
$T137230 = -16						; size = 16
__Lobj$ = 8						; size = 4
?_Init@?$ctype@D@std@@IAEXABV_Locinfo@2@@Z PROC		; std::ctype<char>::_Init, COMDAT
; _this$ = ecx

; 1807 : 		{	// initialize from _Lobj

  00000	83 ec 10	 sub	 esp, 16			; 00000010H
  00003	56		 push	 esi

; 1808 : 		_Ctype = _Lobj._Getctype();

  00004	8d 44 24 04	 lea	 eax, DWORD PTR $T137230[esp+20]
  00008	50		 push	 eax
  00009	8b f1		 mov	 esi, ecx
  0000b	e8 00 00 00 00	 call	 __Getctype
  00010	8b 08		 mov	 ecx, DWORD PTR [eax]
  00012	89 4e 08	 mov	 DWORD PTR [esi+8], ecx
  00015	8b 50 04	 mov	 edx, DWORD PTR [eax+4]
  00018	89 56 0c	 mov	 DWORD PTR [esi+12], edx
  0001b	8b 48 08	 mov	 ecx, DWORD PTR [eax+8]
  0001e	89 4e 10	 mov	 DWORD PTR [esi+16], ecx
  00021	8b 50 0c	 mov	 edx, DWORD PTR [eax+12]
  00024	83 c4 04	 add	 esp, 4
  00027	89 56 14	 mov	 DWORD PTR [esi+20], edx
  0002a	5e		 pop	 esi

; 1809 : 		}

  0002b	83 c4 10	 add	 esp, 16			; 00000010H
  0002e	c2 04 00	 ret	 4
?_Init@?$ctype@D@std@@IAEXABV_Locinfo@2@@Z ENDP		; std::ctype<char>::_Init
_TEXT	ENDS
PUBLIC	?widen@?$ctype@_W@std@@QBE_WD@Z			; std::ctype<wchar_t>::widen
; Function compile flags: /Ogtpy
;	COMDAT ?widen@?$ctype@_W@std@@QBE_WD@Z
_TEXT	SEGMENT
__Byte$ = 8						; size = 1
?widen@?$ctype@_W@std@@QBE_WD@Z PROC			; std::ctype<wchar_t>::widen, COMDAT
; _this$ = ecx

; 1965 : 		return (do_widen(_Byte));

  00000	8b 01		 mov	 eax, DWORD PTR [ecx]
  00002	8b 40 28	 mov	 eax, DWORD PTR [eax+40]
  00005	ff e0		 jmp	 eax
?widen@?$ctype@_W@std@@QBE_WD@Z ENDP			; std::ctype<wchar_t>::widen
_TEXT	ENDS
PUBLIC	?_Init@?$ctype@_W@std@@IAEXABV_Locinfo@2@@Z	; std::ctype<wchar_t>::_Init
; Function compile flags: /Ogtpy
;	COMDAT ?_Init@?$ctype@_W@std@@IAEXABV_Locinfo@2@@Z
_TEXT	SEGMENT
$T137244 = -16						; size = 16
__Lobj$ = 8						; size = 4
?_Init@?$ctype@_W@std@@IAEXABV_Locinfo@2@@Z PROC	; std::ctype<wchar_t>::_Init, COMDAT
; _this$ = ecx

; 2047 : 		{	// initialize from _Lobj

  00000	83 ec 10	 sub	 esp, 16			; 00000010H
  00003	56		 push	 esi

; 2048 : 		_Ctype = _Lobj._Getctype();

  00004	8d 44 24 04	 lea	 eax, DWORD PTR $T137244[esp+20]
  00008	50		 push	 eax
  00009	8b f1		 mov	 esi, ecx
  0000b	e8 00 00 00 00	 call	 __Getctype
  00010	8b 08		 mov	 ecx, DWORD PTR [eax]
  00012	89 4e 08	 mov	 DWORD PTR [esi+8], ecx
  00015	8b 50 04	 mov	 edx, DWORD PTR [eax+4]
  00018	89 56 0c	 mov	 DWORD PTR [esi+12], edx
  0001b	8b 48 08	 mov	 ecx, DWORD PTR [eax+8]
  0001e	89 4e 10	 mov	 DWORD PTR [esi+16], ecx
  00021	8b 50 0c	 mov	 edx, DWORD PTR [eax+12]
  00024	83 c4 04	 add	 esp, 4
  00027	89 56 14	 mov	 DWORD PTR [esi+20], edx

; 2049 : 		_Cvt = _Lobj._Getcvt();

  0002a	e8 00 00 00 00	 call	 __Getcvt
  0002f	89 46 18	 mov	 DWORD PTR [esi+24], eax
  00032	89 56 1c	 mov	 DWORD PTR [esi+28], edx
  00035	5e		 pop	 esi

; 2050 : 		}

  00036	83 c4 10	 add	 esp, 16			; 00000010H
  00039	c2 04 00	 ret	 4
?_Init@?$ctype@_W@std@@IAEXABV_Locinfo@2@@Z ENDP	; std::ctype<wchar_t>::_Init
_TEXT	ENDS
PUBLIC	?rdstate@ios_base@std@@QBEHXZ			; std::ios_base::rdstate
; Function compile flags: /Ogtpy
; File c:\program files (x86)\microsoft visual studio 9.0\vc\include\xiosbase
;	COMDAT ?rdstate@ios_base@std@@QBEHXZ
_TEXT	SEGMENT
?rdstate@ios_base@std@@QBEHXZ PROC			; std::ios_base::rdstate, COMDAT
; _this$ = ecx

; 311  : 		return (_Mystate);

  00000	8b 41 08	 mov	 eax, DWORD PTR [ecx+8]

; 312  : 		}

  00003	c3		 ret	 0
?rdstate@ios_base@std@@QBEHXZ ENDP			; std::ios_base::rdstate
_TEXT	ENDS
PUBLIC	?good@ios_base@std@@QBE_NXZ			; std::ios_base::good
; Function compile flags: /Ogtpy
;	COMDAT ?good@ios_base@std@@QBE_NXZ
_TEXT	SEGMENT
?good@ios_base@std@@QBE_NXZ PROC			; std::ios_base::good, COMDAT
; _this$ = ecx

; 334  : 		return (rdstate() == goodbit);

  00000	33 c0		 xor	 eax, eax
  00002	39 41 08	 cmp	 DWORD PTR [ecx+8], eax
  00005	0f 94 c0	 sete	 al

; 335  : 		}

  00008	c3		 ret	 0
?good@ios_base@std@@QBE_NXZ ENDP			; std::ios_base::good
_TEXT	ENDS
PUBLIC	?fail@ios_base@std@@QBE_NXZ			; std::ios_base::fail
; Function compile flags: /Ogtpy
;	COMDAT ?fail@ios_base@std@@QBE_NXZ
_TEXT	SEGMENT
?fail@ios_base@std@@QBE_NXZ PROC			; std::ios_base::fail, COMDAT
; _this$ = ecx

; 344  : 		return (((int)rdstate()
; 345  : 			& ((int)badbit | (int)failbit)) != 0);

  00000	f6 41 08 06	 test	 BYTE PTR [ecx+8], 6
  00004	b8 00 00 00 00	 mov	 eax, 0
  00009	0f 95 c0	 setne	 al

; 346  : 		}

  0000c	c3		 ret	 0
?fail@ios_base@std@@QBE_NXZ ENDP			; std::ios_base::fail
_TEXT	ENDS
PUBLIC	?flags@ios_base@std@@QBEHXZ			; std::ios_base::flags
; Function compile flags: /Ogtpy
;	COMDAT ?flags@ios_base@std@@QBEHXZ
_TEXT	SEGMENT
?flags@ios_base@std@@QBEHXZ PROC			; std::ios_base::flags, COMDAT
; _this$ = ecx

; 374  : 		return (_Fmtfl);

  00000	8b 41 10	 mov	 eax, DWORD PTR [ecx+16]

; 375  : 		}

  00003	c3		 ret	 0
?flags@ios_base@std@@QBEHXZ ENDP			; std::ios_base::flags
_TEXT	ENDS
PUBLIC	?setf@ios_base@std@@QAEHHH@Z			; std::ios_base::setf
; Function compile flags: /Ogtpy
;	COMDAT ?setf@ios_base@std@@QAEHHH@Z
_TEXT	SEGMENT
__Newfmtflags$ = 8					; size = 4
__Mask$ = 12						; size = 4
?setf@ios_base@std@@QAEHHH@Z PROC			; std::ios_base::setf, COMDAT
; _this$ = ecx

; 394  : 		ios_base::fmtflags _Oldfmtflags = _Fmtfl;
; 395  : 		_Fmtfl = (fmtflags)(((int)_Fmtfl & (int)~_Mask)
; 396  : 			| ((int)_Newfmtflags & (int)_Mask & (int)_Fmtmask));

  00000	8b 54 24 08	 mov	 edx, DWORD PTR __Mask$[esp-4]
  00004	8b 41 10	 mov	 eax, DWORD PTR [ecx+16]
  00007	56		 push	 esi
  00008	57		 push	 edi
  00009	8b 7c 24 0c	 mov	 edi, DWORD PTR __Newfmtflags$[esp+4]
  0000d	8b f2		 mov	 esi, edx
  0000f	f7 d6		 not	 esi
  00011	23 fa		 and	 edi, edx
  00013	23 f0		 and	 esi, eax
  00015	81 e7 ff ff 00
	00		 and	 edi, 65535		; 0000ffffH
  0001b	0b f7		 or	 esi, edi
  0001d	5f		 pop	 edi
  0001e	89 71 10	 mov	 DWORD PTR [ecx+16], esi
  00021	5e		 pop	 esi

; 397  : 		return (_Oldfmtflags);
; 398  : 		}

  00022	c2 08 00	 ret	 8
?setf@ios_base@std@@QAEHHH@Z ENDP			; std::ios_base::setf
_TEXT	ENDS
PUBLIC	?width@ios_base@std@@QBEHXZ			; std::ios_base::width
; Function compile flags: /Ogtpy
;	COMDAT ?width@ios_base@std@@QBEHXZ
_TEXT	SEGMENT
?width@ios_base@std@@QBEHXZ PROC			; std::ios_base::width, COMDAT
; _this$ = ecx

; 419  : 		return (_Wide);

  00000	8b 41 18	 mov	 eax, DWORD PTR [ecx+24]

; 420  : 		}

  00003	c3		 ret	 0
?width@ios_base@std@@QBEHXZ ENDP			; std::ios_base::width
_TEXT	ENDS
PUBLIC	?width@ios_base@std@@QAEHH@Z			; std::ios_base::width
; Function compile flags: /Ogtpy
;	COMDAT ?width@ios_base@std@@QAEHH@Z
_TEXT	SEGMENT
__Newwidth$ = 8						; size = 4
?width@ios_base@std@@QAEHH@Z PROC			; std::ios_base::width, COMDAT
; _this$ = ecx

; 424  : 		streamsize _Oldwidth = _Wide;
; 425  : 		_Wide = _Newwidth;

  00000	8b 54 24 04	 mov	 edx, DWORD PTR __Newwidth$[esp-4]
  00004	8b 41 18	 mov	 eax, DWORD PTR [ecx+24]
  00007	89 51 18	 mov	 DWORD PTR [ecx+24], edx

; 426  : 		return (_Oldwidth);
; 427  : 		}

  0000a	c2 04 00	 ret	 4
?width@ios_base@std@@QAEHH@Z ENDP			; std::ios_base::width
_TEXT	ENDS
PUBLIC	?getloc@ios_base@std@@QBE?AVlocale@2@XZ		; std::ios_base::getloc
; Function compile flags: /Ogtpy
;	COMDAT ?getloc@ios_base@std@@QBE?AVlocale@2@XZ
_TEXT	SEGMENT
$T137276 = -4						; size = 4
__Lock$137289 = 8					; size = 4
___$ReturnUdt$ = 8					; size = 4
?getloc@ios_base@std@@QBE?AVlocale@2@XZ PROC		; std::ios_base::getloc, COMDAT
; _this$ = ecx

; 430  : 		{	// get locale

  00000	51		 push	 ecx

; 431  : 		return (*_Ploc);

  00001	8b 41 24	 mov	 eax, DWORD PTR [ecx+36]
  00004	56		 push	 esi
  00005	8b 30		 mov	 esi, DWORD PTR [eax]
  00007	57		 push	 edi
  00008	8b 7c 24 10	 mov	 edi, DWORD PTR ___$ReturnUdt$[esp+8]
  0000c	6a 00		 push	 0
  0000e	8d 4c 24 14	 lea	 ecx, DWORD PTR __Lock$137289[esp+12]
  00012	c7 44 24 0c 00
	00 00 00	 mov	 DWORD PTR $T137276[esp+16], 0
  0001a	89 37		 mov	 DWORD PTR [edi], esi
  0001c	e8 00 00 00 00	 call	 ??0_Lockit@std@@QAE@H@Z	; std::_Lockit::_Lockit
  00021	8b 46 04	 mov	 eax, DWORD PTR [esi+4]
  00024	83 f8 ff	 cmp	 eax, -1
  00027	73 04		 jae	 SHORT $LN7@getloc
  00029	40		 inc	 eax
  0002a	89 46 04	 mov	 DWORD PTR [esi+4], eax
$LN7@getloc:
  0002d	8d 4c 24 10	 lea	 ecx, DWORD PTR __Lock$137289[esp+8]
  00031	e8 00 00 00 00	 call	 ??1_Lockit@std@@QAE@XZ	; std::_Lockit::~_Lockit
  00036	8b c7		 mov	 eax, edi
  00038	5f		 pop	 edi
  00039	5e		 pop	 esi

; 432  : 		}

  0003a	59		 pop	 ecx
  0003b	c2 04 00	 ret	 4
?getloc@ios_base@std@@QBE?AVlocale@2@XZ ENDP		; std::ios_base::getloc
_TEXT	ENDS
PUBLIC	??_7ios_base@std@@6B@				; std::ios_base::`vftable'
PUBLIC	??1ios_base@std@@UAE@XZ				; std::ios_base::~ios_base
PUBLIC	??_R4ios_base@std@@6B@				; std::ios_base::`RTTI Complete Object Locator'
PUBLIC	??_R0?AVios_base@std@@@8			; std::ios_base `RTTI Type Descriptor'
PUBLIC	??_R3ios_base@std@@8				; std::ios_base::`RTTI Class Hierarchy Descriptor'
PUBLIC	??_R2ios_base@std@@8				; std::ios_base::`RTTI Base Class Array'
PUBLIC	??_R1A@?0A@EA@ios_base@std@@8			; std::ios_base::`RTTI Base Class Descriptor at (0,-1,0,64)'
PUBLIC	??_R13?0A@EA@?$_Iosb@H@std@@8			; std::_Iosb<int>::`RTTI Base Class Descriptor at (4,-1,0,64)'
PUBLIC	??_R0?AV?$_Iosb@H@std@@@8			; std::_Iosb<int> `RTTI Type Descriptor'
PUBLIC	??_R3?$_Iosb@H@std@@8				; std::_Iosb<int>::`RTTI Class Hierarchy Descriptor'
PUBLIC	??_R2?$_Iosb@H@std@@8				; std::_Iosb<int>::`RTTI Base Class Array'
PUBLIC	??_R1A@?0A@EA@?$_Iosb@H@std@@8			; std::_Iosb<int>::`RTTI Base Class Descriptor at (0,-1,0,64)'
EXTRN	?_Ios_base_dtor@ios_base@std@@CAXPAV12@@Z:PROC	; std::ios_base::_Ios_base_dtor
EXTRN	??_Eios_base@std@@UAEPAXI@Z:PROC		; std::ios_base::`vector deleting destructor'
;	COMDAT ??_R1A@?0A@EA@?$_Iosb@H@std@@8
rdata$r	SEGMENT
??_R1A@?0A@EA@?$_Iosb@H@std@@8 DD FLAT:??_R0?AV?$_Iosb@H@std@@@8 ; std::_Iosb<int>::`RTTI Base Class Descriptor at (0,-1,0,64)'
	DD	00H
	DD	00H
	DD	0ffffffffH
	DD	00H
	DD	040H
	DD	FLAT:??_R3?$_Iosb@H@std@@8
rdata$r	ENDS
;	COMDAT ??_R2?$_Iosb@H@std@@8
rdata$r	SEGMENT
??_R2?$_Iosb@H@std@@8 DD FLAT:??_R1A@?0A@EA@?$_Iosb@H@std@@8 ; std::_Iosb<int>::`RTTI Base Class Array'
rdata$r	ENDS
;	COMDAT ??_R3?$_Iosb@H@std@@8
rdata$r	SEGMENT
??_R3?$_Iosb@H@std@@8 DD 00H				; std::_Iosb<int>::`RTTI Class Hierarchy Descriptor'
	DD	00H
	DD	01H
	DD	FLAT:??_R2?$_Iosb@H@std@@8
rdata$r	ENDS
;	COMDAT ??_R0?AV?$_Iosb@H@std@@@8
_DATA	SEGMENT
??_R0?AV?$_Iosb@H@std@@@8 DD FLAT:??_7type_info@@6B@	; std::_Iosb<int> `RTTI Type Descriptor'
	DD	00H
	DB	'.?AV?$_Iosb@H@std@@', 00H
_DATA	ENDS
;	COMDAT ??_R13?0A@EA@?$_Iosb@H@std@@8
rdata$r	SEGMENT
??_R13?0A@EA@?$_Iosb@H@std@@8 DD FLAT:??_R0?AV?$_Iosb@H@std@@@8 ; std::_Iosb<int>::`RTTI Base Class Descriptor at (4,-1,0,64)'
	DD	00H
	DD	04H
	DD	0ffffffffH
	DD	00H
	DD	040H
	DD	FLAT:??_R3?$_Iosb@H@std@@8
rdata$r	ENDS
;	COMDAT ??_R1A@?0A@EA@ios_base@std@@8
rdata$r	SEGMENT
??_R1A@?0A@EA@ios_base@std@@8 DD FLAT:??_R0?AVios_base@std@@@8 ; std::ios_base::`RTTI Base Class Descriptor at (0,-1,0,64)'
	DD	01H
	DD	00H
	DD	0ffffffffH
	DD	00H
	DD	040H
	DD	FLAT:??_R3ios_base@std@@8
rdata$r	ENDS
;	COMDAT ??_R2ios_base@std@@8
rdata$r	SEGMENT
??_R2ios_base@std@@8 DD FLAT:??_R1A@?0A@EA@ios_base@std@@8 ; std::ios_base::`RTTI Base Class Array'
	DD	FLAT:??_R13?0A@EA@?$_Iosb@H@std@@8
rdata$r	ENDS
;	COMDAT ??_R3ios_base@std@@8
rdata$r	SEGMENT
??_R3ios_base@std@@8 DD 00H				; std::ios_base::`RTTI Class Hierarchy Descriptor'
	DD	00H
	DD	02H
	DD	FLAT:??_R2ios_base@std@@8
rdata$r	ENDS
;	COMDAT ??_R0?AVios_base@std@@@8
_DATA	SEGMENT
??_R0?AVios_base@std@@@8 DD FLAT:??_7type_info@@6B@	; std::ios_base `RTTI Type Descriptor'
	DD	00H
	DB	'.?AVios_base@std@@', 00H
_DATA	ENDS
;	COMDAT ??_R4ios_base@std@@6B@
rdata$r	SEGMENT
??_R4ios_base@std@@6B@ DD 00H				; std::ios_base::`RTTI Complete Object Locator'
	DD	00H
	DD	00H
	DD	FLAT:??_R0?AVios_base@std@@@8
	DD	FLAT:??_R3ios_base@std@@8
rdata$r	ENDS
;	COMDAT ??_7ios_base@std@@6B@
CONST	SEGMENT
??_7ios_base@std@@6B@ DD FLAT:??_R4ios_base@std@@6B@	; std::ios_base::`vftable'
	DD	FLAT:??_Eios_base@std@@UAEPAXI@Z
; Function compile flags: /Ogtpy
CONST	ENDS
;	COMDAT ??1ios_base@std@@UAE@XZ
_TEXT	SEGMENT
??1ios_base@std@@UAE@XZ PROC				; std::ios_base::~ios_base, COMDAT
; _this$ = ecx

; 494  :         _Ios_base_dtor(this);

  00000	51		 push	 ecx
  00001	c7 01 00 00 00
	00		 mov	 DWORD PTR [ecx], OFFSET ??_7ios_base@std@@6B@
  00007	e8 00 00 00 00	 call	 ?_Ios_base_dtor@ios_base@std@@CAXPAV12@@Z ; std::ios_base::_Ios_base_dtor
  0000c	59		 pop	 ecx

; 495  :         }

  0000d	c3		 ret	 0
??1ios_base@std@@UAE@XZ ENDP				; std::ios_base::~ios_base
_TEXT	ENDS
PUBLIC	??0ios_base@std@@IAE@XZ				; std::ios_base::ios_base
; Function compile flags: /Ogtpy
;	COMDAT ??0ios_base@std@@IAE@XZ
_TEXT	SEGMENT
??0ios_base@std@@IAE@XZ PROC				; std::ios_base::ios_base, COMDAT
; _this$ = ecx

; 510  : 	__CLR_OR_THIS_CALL ios_base()

  00000	8b c1		 mov	 eax, ecx
  00002	c7 00 00 00 00
	00		 mov	 DWORD PTR [eax], OFFSET ??_7ios_base@std@@6B@

; 511  : 		{	// default constructor
; 512  : 		}

  00008	c3		 ret	 0
??0ios_base@std@@IAE@XZ ENDP				; std::ios_base::ios_base
; Function compile flags: /Ogtpy
_TEXT	ENDS
;	COMDAT ??_Gios_base@std@@UAEPAXI@Z
_TEXT	SEGMENT
___flags$ = 8						; size = 4
??_Gios_base@std@@UAEPAXI@Z PROC			; std::ios_base::`scalar deleting destructor', COMDAT
; _this$ = ecx
  00000	56		 push	 esi
  00001	8b f1		 mov	 esi, ecx
  00003	56		 push	 esi
  00004	c7 06 00 00 00
	00		 mov	 DWORD PTR [esi], OFFSET ??_7ios_base@std@@6B@
  0000a	e8 00 00 00 00	 call	 ?_Ios_base_dtor@ios_base@std@@CAXPAV12@@Z ; std::ios_base::_Ios_base_dtor
  0000f	83 c4 04	 add	 esp, 4
  00012	f6 44 24 08 01	 test	 BYTE PTR ___flags$[esp], 1
  00017	74 09		 je	 SHORT $LN6@scalar@4
  00019	56		 push	 esi
  0001a	e8 00 00 00 00	 call	 ??3@YAXPAX@Z		; operator delete
  0001f	83 c4 04	 add	 esp, 4
$LN6@scalar@4:
  00022	8b c6		 mov	 eax, esi
  00024	5e		 pop	 esi
  00025	c2 04 00	 ret	 4
??_Gios_base@std@@UAEPAXI@Z ENDP			; std::ios_base::`scalar deleting destructor'
_TEXT	ENDS
PUBLIC	?hex@std@@YAAAVios_base@1@AAV21@@Z		; std::hex
; Function compile flags: /Ogtpy
; File c:\program files (x86)\microsoft visual studio 9.0\vc\include\ios
;	COMDAT ?hex@std@@YAAAVios_base@1@AAV21@@Z
_TEXT	SEGMENT
__Iosbase$ = 8						; size = 4
?hex@std@@YAAAVios_base@1@AAV21@@Z PROC			; std::hex, COMDAT

; 191  : 	_Iosbase.setf(ios_base::hex, ios_base::basefield);

  00000	8b 44 24 04	 mov	 eax, DWORD PTR __Iosbase$[esp-4]
  00004	8b 48 10	 mov	 ecx, DWORD PTR [eax+16]
  00007	81 e1 ff f9 ff
	ff		 and	 ecx, -1537		; fffff9ffH
  0000d	81 c9 00 08 00
	00		 or	 ecx, 2048		; 00000800H
  00013	89 48 10	 mov	 DWORD PTR [eax+16], ecx

; 192  : 	return (_Iosbase);
; 193  : 	}

  00016	c3		 ret	 0
?hex@std@@YAAAVios_base@1@AAV21@@Z ENDP			; std::hex
_TEXT	ENDS
PUBLIC	??_7Container@ForEach@CipherShed@@6B@		; CipherShed::ForEach::Container::`vftable'
PUBLIC	??0Container@ForEach@CipherShed@@QAE@XZ		; CipherShed::ForEach::Container::Container
PUBLIC	??_R4Container@ForEach@CipherShed@@6B@		; CipherShed::ForEach::Container::`RTTI Complete Object Locator'
PUBLIC	??_R0?AUContainer@ForEach@CipherShed@@@8	; CipherShed::ForEach::Container `RTTI Type Descriptor'
PUBLIC	??_R3Container@ForEach@CipherShed@@8		; CipherShed::ForEach::Container::`RTTI Class Hierarchy Descriptor'
PUBLIC	??_R2Container@ForEach@CipherShed@@8		; CipherShed::ForEach::Container::`RTTI Base Class Array'
PUBLIC	??_R1A@?0A@EA@Container@ForEach@CipherShed@@8	; CipherShed::ForEach::Container::`RTTI Base Class Descriptor at (0,-1,0,64)'
EXTRN	??_EContainer@ForEach@CipherShed@@UAEPAXI@Z:PROC ; CipherShed::ForEach::Container::`vector deleting destructor'
EXTRN	__purecall:PROC
;	COMDAT ??_R1A@?0A@EA@Container@ForEach@CipherShed@@8
; File c:\home\public\desktop\projects\ciphershed.build\src\platform\foreach.h
rdata$r	SEGMENT
??_R1A@?0A@EA@Container@ForEach@CipherShed@@8 DD FLAT:??_R0?AUContainer@ForEach@CipherShed@@@8 ; CipherShed::ForEach::Container::`RTTI Base Class Descriptor at (0,-1,0,64)'
	DD	00H
	DD	00H
	DD	0ffffffffH
	DD	00H
	DD	040H
	DD	FLAT:??_R3Container@ForEach@CipherShed@@8
rdata$r	ENDS
;	COMDAT ??_R2Container@ForEach@CipherShed@@8
rdata$r	SEGMENT
??_R2Container@ForEach@CipherShed@@8 DD FLAT:??_R1A@?0A@EA@Container@ForEach@CipherShed@@8 ; CipherShed::ForEach::Container::`RTTI Base Class Array'
rdata$r	ENDS
;	COMDAT ??_R3Container@ForEach@CipherShed@@8
rdata$r	SEGMENT
??_R3Container@ForEach@CipherShed@@8 DD 00H		; CipherShed::ForEach::Container::`RTTI Class Hierarchy Descriptor'
	DD	00H
	DD	01H
	DD	FLAT:??_R2Container@ForEach@CipherShed@@8
rdata$r	ENDS
;	COMDAT ??_R0?AUContainer@ForEach@CipherShed@@@8
_DATA	SEGMENT
??_R0?AUContainer@ForEach@CipherShed@@@8 DD FLAT:??_7type_info@@6B@ ; CipherShed::ForEach::Container `RTTI Type Descriptor'
	DD	00H
	DB	'.?AUContainer@ForEach@CipherShed@@', 00H
_DATA	ENDS
;	COMDAT ??_R4Container@ForEach@CipherShed@@6B@
rdata$r	SEGMENT
??_R4Container@ForEach@CipherShed@@6B@ DD 00H		; CipherShed::ForEach::Container::`RTTI Complete Object Locator'
	DD	00H
	DD	00H
	DD	FLAT:??_R0?AUContainer@ForEach@CipherShed@@@8
	DD	FLAT:??_R3Container@ForEach@CipherShed@@8
rdata$r	ENDS
;	COMDAT ??_7Container@ForEach@CipherShed@@6B@
CONST	SEGMENT
??_7Container@ForEach@CipherShed@@6B@ DD FLAT:??_R4Container@ForEach@CipherShed@@6B@ ; CipherShed::ForEach::Container::`vftable'
	DD	FLAT:??_EContainer@ForEach@CipherShed@@UAEPAXI@Z
	DD	FLAT:__purecall
	DD	FLAT:__purecall
; Function compile flags: /Ogtpy
CONST	ENDS
;	COMDAT ??0Container@ForEach@CipherShed@@QAE@XZ
_TEXT	SEGMENT
??0Container@ForEach@CipherShed@@QAE@XZ PROC		; CipherShed::ForEach::Container::Container, COMDAT
; _this$ = ecx

; 19   : 			Container () : InnerContinue (true), InnerEndCondition (false) { }

  00000	8b c1		 mov	 eax, ecx
  00002	c7 00 00 00 00
	00		 mov	 DWORD PTR [eax], OFFSET ??_7Container@ForEach@CipherShed@@6B@
  00008	c6 40 04 01	 mov	 BYTE PTR [eax+4], 1
  0000c	c6 40 05 00	 mov	 BYTE PTR [eax+5], 0
  00010	c3		 ret	 0
??0Container@ForEach@CipherShed@@QAE@XZ ENDP		; CipherShed::ForEach::Container::Container
_TEXT	ENDS
PUBLIC	??1Container@ForEach@CipherShed@@UAE@XZ		; CipherShed::ForEach::Container::~Container
; Function compile flags: /Ogtpy
;	COMDAT ??1Container@ForEach@CipherShed@@UAE@XZ
_TEXT	SEGMENT
??1Container@ForEach@CipherShed@@UAE@XZ PROC		; CipherShed::ForEach::Container::~Container, COMDAT
; _this$ = ecx

; 20   : 			virtual ~Container () { }

  00000	c7 01 00 00 00
	00		 mov	 DWORD PTR [ecx], OFFSET ??_7Container@ForEach@CipherShed@@6B@
  00006	c3		 ret	 0
??1Container@ForEach@CipherShed@@UAE@XZ ENDP		; CipherShed::ForEach::Container::~Container
_TEXT	ENDS
PUBLIC	?Continue@Container@ForEach@CipherShed@@QBEXXZ	; CipherShed::ForEach::Container::Continue
; Function compile flags: /Ogtpy
;	COMDAT ?Continue@Container@ForEach@CipherShed@@QBEXXZ
_TEXT	SEGMENT
?Continue@Container@ForEach@CipherShed@@QBEXXZ PROC	; CipherShed::ForEach::Container::Continue, COMDAT
; _this$ = ecx

; 22   : 			void Continue () const { InnerContinue = true; }

  00000	c6 41 04 01	 mov	 BYTE PTR [ecx+4], 1
  00004	c3		 ret	 0
?Continue@Container@ForEach@CipherShed@@QBEXXZ ENDP	; CipherShed::ForEach::Container::Continue
_TEXT	ENDS
PUBLIC	?InnerIsNotEnd@Container@ForEach@CipherShed@@QBE_NXZ ; CipherShed::ForEach::Container::InnerIsNotEnd
; Function compile flags: /Ogtpy
;	COMDAT ?InnerIsNotEnd@Container@ForEach@CipherShed@@QBE_NXZ
_TEXT	SEGMENT
?InnerIsNotEnd@Container@ForEach@CipherShed@@QBE_NXZ PROC ; CipherShed::ForEach::Container::InnerIsNotEnd, COMDAT
; _this$ = ecx

; 23   : 			bool InnerIsNotEnd () const { return InnerEndCondition = !InnerEndCondition; }

  00000	80 79 05 00	 cmp	 BYTE PTR [ecx+5], 0
  00004	0f 94 c0	 sete	 al
  00007	88 41 05	 mov	 BYTE PTR [ecx+5], al
  0000a	c3		 ret	 0
?InnerIsNotEnd@Container@ForEach@CipherShed@@QBE_NXZ ENDP ; CipherShed::ForEach::Container::InnerIsNotEnd
; Function compile flags: /Ogtpy
_TEXT	ENDS
;	COMDAT ??_GContainer@ForEach@CipherShed@@UAEPAXI@Z
_TEXT	SEGMENT
___flags$ = 8						; size = 4
??_GContainer@ForEach@CipherShed@@UAEPAXI@Z PROC	; CipherShed::ForEach::Container::`scalar deleting destructor', COMDAT
; _this$ = ecx
  00000	f6 44 24 04 01	 test	 BYTE PTR ___flags$[esp-4], 1
  00005	56		 push	 esi
  00006	8b f1		 mov	 esi, ecx
  00008	c7 06 00 00 00
	00		 mov	 DWORD PTR [esi], OFFSET ??_7Container@ForEach@CipherShed@@6B@
  0000e	74 09		 je	 SHORT $LN6@scalar@5
  00010	56		 push	 esi
  00011	e8 00 00 00 00	 call	 ??3@YAXPAX@Z		; operator delete
  00016	83 c4 04	 add	 esp, 4
$LN6@scalar@5:
  00019	8b c6		 mov	 eax, esi
  0001b	5e		 pop	 esi
  0001c	c2 04 00	 ret	 4
??_GContainer@ForEach@CipherShed@@UAEPAXI@Z ENDP	; CipherShed::ForEach::Container::`scalar deleting destructor'
_TEXT	ENDS
PUBLIC	_RtlSecureZeroMemory
; Function compile flags: /Ogtpy
; File c:\program files\microsoft sdks\windows\v7.1\include\winnt.h
;	COMDAT _RtlSecureZeroMemory
_TEXT	SEGMENT
_ptr$ = 8						; size = 4
_cnt$ = 12						; size = 4
_RtlSecureZeroMemory PROC				; COMDAT

; 13070:     volatile char *vptr = (volatile char *)ptr;
; 13071: 
; 13072: #if defined(_M_AMD64)
; 13073: 
; 13074:         __stosb((PBYTE )((DWORD64)vptr), 0, cnt);
; 13075: 
; 13076: #else
; 13077: 
; 13078:     while (cnt) {

  00000	8b 54 24 08	 mov	 edx, DWORD PTR _cnt$[esp-4]
  00004	8b 44 24 04	 mov	 eax, DWORD PTR _ptr$[esp-4]
  00008	8b c8		 mov	 ecx, eax
  0000a	85 d2		 test	 edx, edx
  0000c	74 0b		 je	 SHORT $LN1@RtlSecureZ
  0000e	8b ff		 npad	 2
$LL2@RtlSecureZ:

; 13079:         *vptr = 0;

  00010	c6 01 00	 mov	 BYTE PTR [ecx], 0

; 13080:         vptr++;

  00013	41		 inc	 ecx

; 13081:         cnt--;

  00014	83 ea 01	 sub	 edx, 1
  00017	75 f7		 jne	 SHORT $LL2@RtlSecureZ
$LN1@RtlSecureZ:

; 13082:     }
; 13083: 
; 13084: #endif
; 13085: 
; 13086:     return ptr;
; 13087: }

  00019	c3		 ret	 0
_RtlSecureZeroMemory ENDP
_TEXT	ENDS
PUBLIC	??_7Exception@CipherShed@@6B@			; CipherShed::Exception::`vftable'
PUBLIC	??0Exception@CipherShed@@QAE@XZ			; CipherShed::Exception::Exception
PUBLIC	??_R4Exception@CipherShed@@6B@			; CipherShed::Exception::`RTTI Complete Object Locator'
PUBLIC	??_R0?AUException@CipherShed@@@8		; CipherShed::Exception `RTTI Type Descriptor'
PUBLIC	??_R3Exception@CipherShed@@8			; CipherShed::Exception::`RTTI Class Hierarchy Descriptor'
PUBLIC	??_R2Exception@CipherShed@@8			; CipherShed::Exception::`RTTI Base Class Array'
PUBLIC	??_R1A@?0A@EA@Exception@CipherShed@@8		; CipherShed::Exception::`RTTI Base Class Descriptor at (0,-1,0,64)'
;	COMDAT ??_R1A@?0A@EA@Exception@CipherShed@@8
rdata$r	SEGMENT
??_R1A@?0A@EA@Exception@CipherShed@@8 DD FLAT:??_R0?AUException@CipherShed@@@8 ; CipherShed::Exception::`RTTI Base Class Descriptor at (0,-1,0,64)'
	DD	00H
	DD	00H
	DD	0ffffffffH
	DD	00H
	DD	040H
	DD	FLAT:??_R3Exception@CipherShed@@8
rdata$r	ENDS
;	COMDAT ??_R2Exception@CipherShed@@8
rdata$r	SEGMENT
??_R2Exception@CipherShed@@8 DD FLAT:??_R1A@?0A@EA@Exception@CipherShed@@8 ; CipherShed::Exception::`RTTI Base Class Array'
rdata$r	ENDS
;	COMDAT ??_R3Exception@CipherShed@@8
rdata$r	SEGMENT
??_R3Exception@CipherShed@@8 DD 00H			; CipherShed::Exception::`RTTI Class Hierarchy Descriptor'
	DD	00H
	DD	01H
	DD	FLAT:??_R2Exception@CipherShed@@8
rdata$r	ENDS
;	COMDAT ??_R0?AUException@CipherShed@@@8
_DATA	SEGMENT
??_R0?AUException@CipherShed@@@8 DD FLAT:??_7type_info@@6B@ ; CipherShed::Exception `RTTI Type Descriptor'
	DD	00H
	DB	'.?AUException@CipherShed@@', 00H
_DATA	ENDS
;	COMDAT ??_R4Exception@CipherShed@@6B@
rdata$r	SEGMENT
??_R4Exception@CipherShed@@6B@ DD 00H			; CipherShed::Exception::`RTTI Complete Object Locator'
	DD	00H
	DD	00H
	DD	FLAT:??_R0?AUException@CipherShed@@@8
	DD	FLAT:??_R3Exception@CipherShed@@8
rdata$r	ENDS
;	COMDAT ??_7Exception@CipherShed@@6B@
CONST	SEGMENT
??_7Exception@CipherShed@@6B@ DD FLAT:??_R4Exception@CipherShed@@6B@ ; CipherShed::Exception::`vftable'
	DD	FLAT:__purecall
; Function compile flags: /Ogtpy
CONST	ENDS
;	COMDAT ??0Exception@CipherShed@@QAE@XZ
_TEXT	SEGMENT
??0Exception@CipherShed@@QAE@XZ PROC			; CipherShed::Exception::Exception, COMDAT
; _this$ = ecx
  00000	8b c1		 mov	 eax, ecx
  00002	c7 00 00 00 00
	00		 mov	 DWORD PTR [eax], OFFSET ??_7Exception@CipherShed@@6B@
  00008	c3		 ret	 0
??0Exception@CipherShed@@QAE@XZ ENDP			; CipherShed::Exception::Exception
_TEXT	ENDS
PUBLIC	??_7ParameterIncorrect@CipherShed@@6B@		; CipherShed::ParameterIncorrect::`vftable'
PUBLIC	??0ParameterIncorrect@CipherShed@@QAE@PBD@Z	; CipherShed::ParameterIncorrect::ParameterIncorrect
PUBLIC	??_R4ParameterIncorrect@CipherShed@@6B@		; CipherShed::ParameterIncorrect::`RTTI Complete Object Locator'
PUBLIC	??_R0?AUParameterIncorrect@CipherShed@@@8	; CipherShed::ParameterIncorrect `RTTI Type Descriptor'
PUBLIC	??_R3ParameterIncorrect@CipherShed@@8		; CipherShed::ParameterIncorrect::`RTTI Class Hierarchy Descriptor'
PUBLIC	??_R2ParameterIncorrect@CipherShed@@8		; CipherShed::ParameterIncorrect::`RTTI Base Class Array'
PUBLIC	??_R1A@?0A@EA@ParameterIncorrect@CipherShed@@8	; CipherShed::ParameterIncorrect::`RTTI Base Class Descriptor at (0,-1,0,64)'
PUBLIC	?Show@ParameterIncorrect@CipherShed@@UBEXPAUHWND__@@@Z ; CipherShed::ParameterIncorrect::Show
;	COMDAT ??_R1A@?0A@EA@ParameterIncorrect@CipherShed@@8
; File c:\home\public\desktop\projects\ciphershed.build\src\common\exception.h
rdata$r	SEGMENT
??_R1A@?0A@EA@ParameterIncorrect@CipherShed@@8 DD FLAT:??_R0?AUParameterIncorrect@CipherShed@@@8 ; CipherShed::ParameterIncorrect::`RTTI Base Class Descriptor at (0,-1,0,64)'
	DD	01H
	DD	00H
	DD	0ffffffffH
	DD	00H
	DD	040H
	DD	FLAT:??_R3ParameterIncorrect@CipherShed@@8
rdata$r	ENDS
;	COMDAT ??_R2ParameterIncorrect@CipherShed@@8
rdata$r	SEGMENT
??_R2ParameterIncorrect@CipherShed@@8 DD FLAT:??_R1A@?0A@EA@ParameterIncorrect@CipherShed@@8 ; CipherShed::ParameterIncorrect::`RTTI Base Class Array'
	DD	FLAT:??_R1A@?0A@EA@Exception@CipherShed@@8
rdata$r	ENDS
;	COMDAT ??_R3ParameterIncorrect@CipherShed@@8
rdata$r	SEGMENT
??_R3ParameterIncorrect@CipherShed@@8 DD 00H		; CipherShed::ParameterIncorrect::`RTTI Class Hierarchy Descriptor'
	DD	00H
	DD	02H
	DD	FLAT:??_R2ParameterIncorrect@CipherShed@@8
rdata$r	ENDS
;	COMDAT ??_R0?AUParameterIncorrect@CipherShed@@@8
_DATA	SEGMENT
??_R0?AUParameterIncorrect@CipherShed@@@8 DD FLAT:??_7type_info@@6B@ ; CipherShed::ParameterIncorrect `RTTI Type Descriptor'
	DD	00H
	DB	'.?AUParameterIncorrect@CipherShed@@', 00H
_DATA	ENDS
;	COMDAT ??_R4ParameterIncorrect@CipherShed@@6B@
rdata$r	SEGMENT
??_R4ParameterIncorrect@CipherShed@@6B@ DD 00H		; CipherShed::ParameterIncorrect::`RTTI Complete Object Locator'
	DD	00H
	DD	00H
	DD	FLAT:??_R0?AUParameterIncorrect@CipherShed@@@8
	DD	FLAT:??_R3ParameterIncorrect@CipherShed@@8
rdata$r	ENDS
;	COMDAT ??_7ParameterIncorrect@CipherShed@@6B@
CONST	SEGMENT
??_7ParameterIncorrect@CipherShed@@6B@ DD FLAT:??_R4ParameterIncorrect@CipherShed@@6B@ ; CipherShed::ParameterIncorrect::`vftable'
	DD	FLAT:?Show@ParameterIncorrect@CipherShed@@UBEXPAUHWND__@@@Z
; Function compile flags: /Ogtpy
CONST	ENDS
;	COMDAT ??0ParameterIncorrect@CipherShed@@QAE@PBD@Z
_TEXT	SEGMENT
_srcPos$ = 8						; size = 4
??0ParameterIncorrect@CipherShed@@QAE@PBD@Z PROC	; CipherShed::ParameterIncorrect::ParameterIncorrect, COMDAT
; _this$ = ecx

; 54   : 		ParameterIncorrect (const char *srcPos) : SrcPos (srcPos) { }

  00000	8b c1		 mov	 eax, ecx
  00002	8b 4c 24 04	 mov	 ecx, DWORD PTR _srcPos$[esp-4]
  00006	c7 00 00 00 00
	00		 mov	 DWORD PTR [eax], OFFSET ??_7ParameterIncorrect@CipherShed@@6B@
  0000c	89 48 04	 mov	 DWORD PTR [eax+4], ecx
  0000f	c2 04 00	 ret	 4
??0ParameterIncorrect@CipherShed@@QAE@PBD@Z ENDP	; CipherShed::ParameterIncorrect::ParameterIncorrect
_TEXT	ENDS
PUBLIC	??_7Pkcs11Exception@CipherShed@@6B@		; CipherShed::Pkcs11Exception::`vftable'
PUBLIC	??0Pkcs11Exception@CipherShed@@QAE@K@Z		; CipherShed::Pkcs11Exception::Pkcs11Exception
PUBLIC	??_R4Pkcs11Exception@CipherShed@@6B@		; CipherShed::Pkcs11Exception::`RTTI Complete Object Locator'
PUBLIC	??_R0?AUPkcs11Exception@CipherShed@@@8		; CipherShed::Pkcs11Exception `RTTI Type Descriptor'
PUBLIC	??_R3Pkcs11Exception@CipherShed@@8		; CipherShed::Pkcs11Exception::`RTTI Class Hierarchy Descriptor'
PUBLIC	??_R2Pkcs11Exception@CipherShed@@8		; CipherShed::Pkcs11Exception::`RTTI Base Class Array'
PUBLIC	??_R1A@?0A@EA@Pkcs11Exception@CipherShed@@8	; CipherShed::Pkcs11Exception::`RTTI Base Class Descriptor at (0,-1,0,64)'
PUBLIC	?Show@Pkcs11Exception@CipherShed@@UBEXPAUHWND__@@@Z ; CipherShed::Pkcs11Exception::Show
;	COMDAT ??_R1A@?0A@EA@Pkcs11Exception@CipherShed@@8
rdata$r	SEGMENT
??_R1A@?0A@EA@Pkcs11Exception@CipherShed@@8 DD FLAT:??_R0?AUPkcs11Exception@CipherShed@@@8 ; CipherShed::Pkcs11Exception::`RTTI Base Class Descriptor at (0,-1,0,64)'
	DD	01H
	DD	00H
	DD	0ffffffffH
	DD	00H
	DD	040H
	DD	FLAT:??_R3Pkcs11Exception@CipherShed@@8
rdata$r	ENDS
;	COMDAT ??_R2Pkcs11Exception@CipherShed@@8
rdata$r	SEGMENT
??_R2Pkcs11Exception@CipherShed@@8 DD FLAT:??_R1A@?0A@EA@Pkcs11Exception@CipherShed@@8 ; CipherShed::Pkcs11Exception::`RTTI Base Class Array'
	DD	FLAT:??_R1A@?0A@EA@Exception@CipherShed@@8
rdata$r	ENDS
;	COMDAT ??_R3Pkcs11Exception@CipherShed@@8
rdata$r	SEGMENT
??_R3Pkcs11Exception@CipherShed@@8 DD 00H		; CipherShed::Pkcs11Exception::`RTTI Class Hierarchy Descriptor'
	DD	00H
	DD	02H
	DD	FLAT:??_R2Pkcs11Exception@CipherShed@@8
rdata$r	ENDS
;	COMDAT ??_R0?AUPkcs11Exception@CipherShed@@@8
_DATA	SEGMENT
??_R0?AUPkcs11Exception@CipherShed@@@8 DD FLAT:??_7type_info@@6B@ ; CipherShed::Pkcs11Exception `RTTI Type Descriptor'
	DD	00H
	DB	'.?AUPkcs11Exception@CipherShed@@', 00H
_DATA	ENDS
;	COMDAT ??_R4Pkcs11Exception@CipherShed@@6B@
rdata$r	SEGMENT
??_R4Pkcs11Exception@CipherShed@@6B@ DD 00H		; CipherShed::Pkcs11Exception::`RTTI Complete Object Locator'
	DD	00H
	DD	00H
	DD	FLAT:??_R0?AUPkcs11Exception@CipherShed@@@8
	DD	FLAT:??_R3Pkcs11Exception@CipherShed@@8
rdata$r	ENDS
;	COMDAT ??_7Pkcs11Exception@CipherShed@@6B@
CONST	SEGMENT
??_7Pkcs11Exception@CipherShed@@6B@ DD FLAT:??_R4Pkcs11Exception@CipherShed@@6B@ ; CipherShed::Pkcs11Exception::`vftable'
	DD	FLAT:?Show@Pkcs11Exception@CipherShed@@UBEXPAUHWND__@@@Z
; Function compile flags: /Ogtpy
; File c:\home\public\desktop\projects\ciphershed.build\src\common\securitytoken.h
CONST	ENDS
;	COMDAT ??0Pkcs11Exception@CipherShed@@QAE@K@Z
_TEXT	SEGMENT
_errorCode$ = 8						; size = 4
??0Pkcs11Exception@CipherShed@@QAE@K@Z PROC		; CipherShed::Pkcs11Exception::Pkcs11Exception, COMDAT
; _this$ = ecx

; 89   : 		{

  00000	8b c1		 mov	 eax, ecx
  00002	8b 4c 24 04	 mov	 ecx, DWORD PTR _errorCode$[esp-4]
  00006	c7 00 00 00 00
	00		 mov	 DWORD PTR [eax], OFFSET ??_7Pkcs11Exception@CipherShed@@6B@
  0000c	89 48 04	 mov	 DWORD PTR [eax+4], ecx
  0000f	c6 40 08 00	 mov	 BYTE PTR [eax+8], 0

; 90   : 		}

  00013	c2 04 00	 ret	 4
??0Pkcs11Exception@CipherShed@@QAE@K@Z ENDP		; CipherShed::Pkcs11Exception::Pkcs11Exception
_TEXT	ENDS
PUBLIC	?GetErrorCode@Pkcs11Exception@CipherShed@@QBEKXZ ; CipherShed::Pkcs11Exception::GetErrorCode
; Function compile flags: /Ogtpy
;	COMDAT ?GetErrorCode@Pkcs11Exception@CipherShed@@QBEKXZ
_TEXT	SEGMENT
?GetErrorCode@Pkcs11Exception@CipherShed@@QBEKXZ PROC	; CipherShed::Pkcs11Exception::GetErrorCode, COMDAT
; _this$ = ecx

; 106  : 		CK_RV GetErrorCode () const { return ErrorCode; }

  00000	8b 41 04	 mov	 eax, DWORD PTR [ecx+4]
  00003	c3		 ret	 0
?GetErrorCode@Pkcs11Exception@CipherShed@@QBEKXZ ENDP	; CipherShed::Pkcs11Exception::GetErrorCode
_TEXT	ENDS
PUBLIC	??0Pkcs11Session@CipherShed@@QAE@XZ		; CipherShed::Pkcs11Session::Pkcs11Session
; Function compile flags: /Ogtpy
;	COMDAT ??0Pkcs11Session@CipherShed@@QAE@XZ
_TEXT	SEGMENT
??0Pkcs11Session@CipherShed@@QAE@XZ PROC		; CipherShed::Pkcs11Session::Pkcs11Session, COMDAT
; _this$ = ecx

; 158  : 		Pkcs11Session () : UserLoggedIn (false) { }

  00000	8b c1		 mov	 eax, ecx
  00002	c6 40 04 00	 mov	 BYTE PTR [eax+4], 0
  00006	c3		 ret	 0
??0Pkcs11Session@CipherShed@@QAE@XZ ENDP		; CipherShed::Pkcs11Session::Pkcs11Session
_TEXT	ENDS
PUBLIC	??_7InvalidSecurityTokenKeyfilePath@CipherShed@@6B@ ; CipherShed::InvalidSecurityTokenKeyfilePath::`vftable'
PUBLIC	??0InvalidSecurityTokenKeyfilePath@CipherShed@@QAE@XZ ; CipherShed::InvalidSecurityTokenKeyfilePath::InvalidSecurityTokenKeyfilePath
PUBLIC	??_R4InvalidSecurityTokenKeyfilePath@CipherShed@@6B@ ; CipherShed::InvalidSecurityTokenKeyfilePath::`RTTI Complete Object Locator'
PUBLIC	??_R0?AUInvalidSecurityTokenKeyfilePath@CipherShed@@@8 ; CipherShed::InvalidSecurityTokenKeyfilePath `RTTI Type Descriptor'
PUBLIC	??_R3InvalidSecurityTokenKeyfilePath@CipherShed@@8 ; CipherShed::InvalidSecurityTokenKeyfilePath::`RTTI Class Hierarchy Descriptor'
PUBLIC	??_R2InvalidSecurityTokenKeyfilePath@CipherShed@@8 ; CipherShed::InvalidSecurityTokenKeyfilePath::`RTTI Base Class Array'
PUBLIC	??_R1A@?0A@EA@InvalidSecurityTokenKeyfilePath@CipherShed@@8 ; CipherShed::InvalidSecurityTokenKeyfilePath::`RTTI Base Class Descriptor at (0,-1,0,64)'
PUBLIC	?Show@InvalidSecurityTokenKeyfilePath@CipherShed@@UBEXPAUHWND__@@@Z ; CipherShed::InvalidSecurityTokenKeyfilePath::Show
;	COMDAT ??_R1A@?0A@EA@InvalidSecurityTokenKeyfilePath@CipherShed@@8
rdata$r	SEGMENT
??_R1A@?0A@EA@InvalidSecurityTokenKeyfilePath@CipherShed@@8 DD FLAT:??_R0?AUInvalidSecurityTokenKeyfilePath@CipherShed@@@8 ; CipherShed::InvalidSecurityTokenKeyfilePath::`RTTI Base Class Descriptor at (0,-1,0,64)'
	DD	01H
	DD	00H
	DD	0ffffffffH
	DD	00H
	DD	040H
	DD	FLAT:??_R3InvalidSecurityTokenKeyfilePath@CipherShed@@8
rdata$r	ENDS
;	COMDAT ??_R2InvalidSecurityTokenKeyfilePath@CipherShed@@8
rdata$r	SEGMENT
??_R2InvalidSecurityTokenKeyfilePath@CipherShed@@8 DD FLAT:??_R1A@?0A@EA@InvalidSecurityTokenKeyfilePath@CipherShed@@8 ; CipherShed::InvalidSecurityTokenKeyfilePath::`RTTI Base Class Array'
	DD	FLAT:??_R1A@?0A@EA@Exception@CipherShed@@8
rdata$r	ENDS
;	COMDAT ??_R3InvalidSecurityTokenKeyfilePath@CipherShed@@8
rdata$r	SEGMENT
??_R3InvalidSecurityTokenKeyfilePath@CipherShed@@8 DD 00H ; CipherShed::InvalidSecurityTokenKeyfilePath::`RTTI Class Hierarchy Descriptor'
	DD	00H
	DD	02H
	DD	FLAT:??_R2InvalidSecurityTokenKeyfilePath@CipherShed@@8
rdata$r	ENDS
;	COMDAT ??_R0?AUInvalidSecurityTokenKeyfilePath@CipherShed@@@8
_DATA	SEGMENT
??_R0?AUInvalidSecurityTokenKeyfilePath@CipherShed@@@8 DD FLAT:??_7type_info@@6B@ ; CipherShed::InvalidSecurityTokenKeyfilePath `RTTI Type Descriptor'
	DD	00H
	DB	'.?AUInvalidSecurityTokenKeyfilePath@CipherShed@@', 00H
_DATA	ENDS
;	COMDAT ??_R4InvalidSecurityTokenKeyfilePath@CipherShed@@6B@
rdata$r	SEGMENT
??_R4InvalidSecurityTokenKeyfilePath@CipherShed@@6B@ DD 00H ; CipherShed::InvalidSecurityTokenKeyfilePath::`RTTI Complete Object Locator'
	DD	00H
	DD	00H
	DD	FLAT:??_R0?AUInvalidSecurityTokenKeyfilePath@CipherShed@@@8
	DD	FLAT:??_R3InvalidSecurityTokenKeyfilePath@CipherShed@@8
rdata$r	ENDS
;	COMDAT ??_7InvalidSecurityTokenKeyfilePath@CipherShed@@6B@
CONST	SEGMENT
??_7InvalidSecurityTokenKeyfilePath@CipherShed@@6B@ DD FLAT:??_R4InvalidSecurityTokenKeyfilePath@CipherShed@@6B@ ; CipherShed::InvalidSecurityTokenKeyfilePath::`vftable'
	DD	FLAT:?Show@InvalidSecurityTokenKeyfilePath@CipherShed@@UBEXPAUHWND__@@@Z
; Function compile flags: /Ogtpy
CONST	ENDS
;	COMDAT ??0InvalidSecurityTokenKeyfilePath@CipherShed@@QAE@XZ
_TEXT	SEGMENT
??0InvalidSecurityTokenKeyfilePath@CipherShed@@QAE@XZ PROC ; CipherShed::InvalidSecurityTokenKeyfilePath::InvalidSecurityTokenKeyfilePath, COMDAT
; _this$ = ecx
  00000	8b c1		 mov	 eax, ecx
  00002	c7 00 00 00 00
	00		 mov	 DWORD PTR [eax], OFFSET ??_7InvalidSecurityTokenKeyfilePath@CipherShed@@6B@
  00008	c3		 ret	 0
??0InvalidSecurityTokenKeyfilePath@CipherShed@@QAE@XZ ENDP ; CipherShed::InvalidSecurityTokenKeyfilePath::InvalidSecurityTokenKeyfilePath
_TEXT	ENDS
PUBLIC	??_C@_0BL@JIBHLIDC@INVALID_TOKEN_KEYFILE_PATH?$AA@ ; `string'
EXTRN	_Error:PROC
;	COMDAT ??_C@_0BL@JIBHLIDC@INVALID_TOKEN_KEYFILE_PATH?$AA@
CONST	SEGMENT
??_C@_0BL@JIBHLIDC@INVALID_TOKEN_KEYFILE_PATH?$AA@ DB 'INVALID_TOKEN_KEYF'
	DB	'ILE_PATH', 00H				; `string'
; Function compile flags: /Ogtpy
CONST	ENDS
;	COMDAT ?Show@InvalidSecurityTokenKeyfilePath@CipherShed@@UBEXPAUHWND__@@@Z
_TEXT	SEGMENT
_parent$ = 8						; size = 4
?Show@InvalidSecurityTokenKeyfilePath@CipherShed@@UBEXPAUHWND__@@@Z PROC ; CipherShed::InvalidSecurityTokenKeyfilePath::Show, COMDAT
; _this$ = ecx

; 140  : 		void Show (HWND parent) const { Error ("INVALID_TOKEN_KEYFILE_PATH"); }

  00000	68 00 00 00 00	 push	 OFFSET ??_C@_0BL@JIBHLIDC@INVALID_TOKEN_KEYFILE_PATH?$AA@
  00005	e8 00 00 00 00	 call	 _Error
  0000a	59		 pop	 ecx
  0000b	c2 04 00	 ret	 4
?Show@InvalidSecurityTokenKeyfilePath@CipherShed@@UBEXPAUHWND__@@@Z ENDP ; CipherShed::InvalidSecurityTokenKeyfilePath::Show
_TEXT	ENDS
PUBLIC	??_7SecurityTokenKeyfileNotFound@CipherShed@@6B@ ; CipherShed::SecurityTokenKeyfileNotFound::`vftable'
PUBLIC	??0SecurityTokenKeyfileNotFound@CipherShed@@QAE@XZ ; CipherShed::SecurityTokenKeyfileNotFound::SecurityTokenKeyfileNotFound
PUBLIC	??_R4SecurityTokenKeyfileNotFound@CipherShed@@6B@ ; CipherShed::SecurityTokenKeyfileNotFound::`RTTI Complete Object Locator'
PUBLIC	??_R0?AUSecurityTokenKeyfileNotFound@CipherShed@@@8 ; CipherShed::SecurityTokenKeyfileNotFound `RTTI Type Descriptor'
PUBLIC	??_R3SecurityTokenKeyfileNotFound@CipherShed@@8	; CipherShed::SecurityTokenKeyfileNotFound::`RTTI Class Hierarchy Descriptor'
PUBLIC	??_R2SecurityTokenKeyfileNotFound@CipherShed@@8	; CipherShed::SecurityTokenKeyfileNotFound::`RTTI Base Class Array'
PUBLIC	??_R1A@?0A@EA@SecurityTokenKeyfileNotFound@CipherShed@@8 ; CipherShed::SecurityTokenKeyfileNotFound::`RTTI Base Class Descriptor at (0,-1,0,64)'
PUBLIC	?Show@SecurityTokenKeyfileNotFound@CipherShed@@UBEXPAUHWND__@@@Z ; CipherShed::SecurityTokenKeyfileNotFound::Show
;	COMDAT ??_R1A@?0A@EA@SecurityTokenKeyfileNotFound@CipherShed@@8
rdata$r	SEGMENT
??_R1A@?0A@EA@SecurityTokenKeyfileNotFound@CipherShed@@8 DD FLAT:??_R0?AUSecurityTokenKeyfileNotFound@CipherShed@@@8 ; CipherShed::SecurityTokenKeyfileNotFound::`RTTI Base Class Descriptor at (0,-1,0,64)'
	DD	01H
	DD	00H
	DD	0ffffffffH
	DD	00H
	DD	040H
	DD	FLAT:??_R3SecurityTokenKeyfileNotFound@CipherShed@@8
rdata$r	ENDS
;	COMDAT ??_R2SecurityTokenKeyfileNotFound@CipherShed@@8
rdata$r	SEGMENT
??_R2SecurityTokenKeyfileNotFound@CipherShed@@8 DD FLAT:??_R1A@?0A@EA@SecurityTokenKeyfileNotFound@CipherShed@@8 ; CipherShed::SecurityTokenKeyfileNotFound::`RTTI Base Class Array'
	DD	FLAT:??_R1A@?0A@EA@Exception@CipherShed@@8
rdata$r	ENDS
;	COMDAT ??_R3SecurityTokenKeyfileNotFound@CipherShed@@8
rdata$r	SEGMENT
??_R3SecurityTokenKeyfileNotFound@CipherShed@@8 DD 00H	; CipherShed::SecurityTokenKeyfileNotFound::`RTTI Class Hierarchy Descriptor'
	DD	00H
	DD	02H
	DD	FLAT:??_R2SecurityTokenKeyfileNotFound@CipherShed@@8
rdata$r	ENDS
;	COMDAT ??_R0?AUSecurityTokenKeyfileNotFound@CipherShed@@@8
_DATA	SEGMENT
??_R0?AUSecurityTokenKeyfileNotFound@CipherShed@@@8 DD FLAT:??_7type_info@@6B@ ; CipherShed::SecurityTokenKeyfileNotFound `RTTI Type Descriptor'
	DD	00H
	DB	'.?AUSecurityTokenKeyfileNotFound@CipherShed@@', 00H
_DATA	ENDS
;	COMDAT ??_R4SecurityTokenKeyfileNotFound@CipherShed@@6B@
rdata$r	SEGMENT
??_R4SecurityTokenKeyfileNotFound@CipherShed@@6B@ DD 00H ; CipherShed::SecurityTokenKeyfileNotFound::`RTTI Complete Object Locator'
	DD	00H
	DD	00H
	DD	FLAT:??_R0?AUSecurityTokenKeyfileNotFound@CipherShed@@@8
	DD	FLAT:??_R3SecurityTokenKeyfileNotFound@CipherShed@@8
rdata$r	ENDS
;	COMDAT ??_7SecurityTokenKeyfileNotFound@CipherShed@@6B@
CONST	SEGMENT
??_7SecurityTokenKeyfileNotFound@CipherShed@@6B@ DD FLAT:??_R4SecurityTokenKeyfileNotFound@CipherShed@@6B@ ; CipherShed::SecurityTokenKeyfileNotFound::`vftable'
	DD	FLAT:?Show@SecurityTokenKeyfileNotFound@CipherShed@@UBEXPAUHWND__@@@Z
; Function compile flags: /Ogtpy
CONST	ENDS
;	COMDAT ??0SecurityTokenKeyfileNotFound@CipherShed@@QAE@XZ
_TEXT	SEGMENT
??0SecurityTokenKeyfileNotFound@CipherShed@@QAE@XZ PROC	; CipherShed::SecurityTokenKeyfileNotFound::SecurityTokenKeyfileNotFound, COMDAT
; _this$ = ecx
  00000	8b c1		 mov	 eax, ecx
  00002	c7 00 00 00 00
	00		 mov	 DWORD PTR [eax], OFFSET ??_7SecurityTokenKeyfileNotFound@CipherShed@@6B@
  00008	c3		 ret	 0
??0SecurityTokenKeyfileNotFound@CipherShed@@QAE@XZ ENDP	; CipherShed::SecurityTokenKeyfileNotFound::SecurityTokenKeyfileNotFound
_TEXT	ENDS
PUBLIC	??_C@_0BI@BBCBGCML@TOKEN_KEYFILE_NOT_FOUND?$AA@	; `string'
;	COMDAT ??_C@_0BI@BBCBGCML@TOKEN_KEYFILE_NOT_FOUND?$AA@
CONST	SEGMENT
??_C@_0BI@BBCBGCML@TOKEN_KEYFILE_NOT_FOUND?$AA@ DB 'TOKEN_KEYFILE_NOT_FOU'
	DB	'ND', 00H					; `string'
; Function compile flags: /Ogtpy
CONST	ENDS
;	COMDAT ?Show@SecurityTokenKeyfileNotFound@CipherShed@@UBEXPAUHWND__@@@Z
_TEXT	SEGMENT
_parent$ = 8						; size = 4
?Show@SecurityTokenKeyfileNotFound@CipherShed@@UBEXPAUHWND__@@@Z PROC ; CipherShed::SecurityTokenKeyfileNotFound::Show, COMDAT
; _this$ = ecx

; 150  : 		void Show (HWND parent) const { Error ("TOKEN_KEYFILE_NOT_FOUND"); }

  00000	68 00 00 00 00	 push	 OFFSET ??_C@_0BI@BBCBGCML@TOKEN_KEYFILE_NOT_FOUND?$AA@
  00005	e8 00 00 00 00	 call	 _Error
  0000a	59		 pop	 ecx
  0000b	c2 04 00	 ret	 4
?Show@SecurityTokenKeyfileNotFound@CipherShed@@UBEXPAUHWND__@@@Z ENDP ; CipherShed::SecurityTokenKeyfileNotFound::Show
_TEXT	ENDS
PUBLIC	??_7SecurityTokenLibraryNotInitialized@CipherShed@@6B@ ; CipherShed::SecurityTokenLibraryNotInitialized::`vftable'
PUBLIC	??0SecurityTokenLibraryNotInitialized@CipherShed@@QAE@XZ ; CipherShed::SecurityTokenLibraryNotInitialized::SecurityTokenLibraryNotInitialized
PUBLIC	??_R4SecurityTokenLibraryNotInitialized@CipherShed@@6B@ ; CipherShed::SecurityTokenLibraryNotInitialized::`RTTI Complete Object Locator'
PUBLIC	??_R0?AUSecurityTokenLibraryNotInitialized@CipherShed@@@8 ; CipherShed::SecurityTokenLibraryNotInitialized `RTTI Type Descriptor'
PUBLIC	??_R3SecurityTokenLibraryNotInitialized@CipherShed@@8 ; CipherShed::SecurityTokenLibraryNotInitialized::`RTTI Class Hierarchy Descriptor'
PUBLIC	??_R2SecurityTokenLibraryNotInitialized@CipherShed@@8 ; CipherShed::SecurityTokenLibraryNotInitialized::`RTTI Base Class Array'
PUBLIC	??_R1A@?0A@EA@SecurityTokenLibraryNotInitialized@CipherShed@@8 ; CipherShed::SecurityTokenLibraryNotInitialized::`RTTI Base Class Descriptor at (0,-1,0,64)'
PUBLIC	?Show@SecurityTokenLibraryNotInitialized@CipherShed@@UBEXPAUHWND__@@@Z ; CipherShed::SecurityTokenLibraryNotInitialized::Show
;	COMDAT ??_R1A@?0A@EA@SecurityTokenLibraryNotInitialized@CipherShed@@8
rdata$r	SEGMENT
??_R1A@?0A@EA@SecurityTokenLibraryNotInitialized@CipherShed@@8 DD FLAT:??_R0?AUSecurityTokenLibraryNotInitialized@CipherShed@@@8 ; CipherShed::SecurityTokenLibraryNotInitialized::`RTTI Base Class Descriptor at (0,-1,0,64)'
	DD	01H
	DD	00H
	DD	0ffffffffH
	DD	00H
	DD	040H
	DD	FLAT:??_R3SecurityTokenLibraryNotInitialized@CipherShed@@8
rdata$r	ENDS
;	COMDAT ??_R2SecurityTokenLibraryNotInitialized@CipherShed@@8
rdata$r	SEGMENT
??_R2SecurityTokenLibraryNotInitialized@CipherShed@@8 DD FLAT:??_R1A@?0A@EA@SecurityTokenLibraryNotInitialized@CipherShed@@8 ; CipherShed::SecurityTokenLibraryNotInitialized::`RTTI Base Class Array'
	DD	FLAT:??_R1A@?0A@EA@Exception@CipherShed@@8
rdata$r	ENDS
;	COMDAT ??_R3SecurityTokenLibraryNotInitialized@CipherShed@@8
rdata$r	SEGMENT
??_R3SecurityTokenLibraryNotInitialized@CipherShed@@8 DD 00H ; CipherShed::SecurityTokenLibraryNotInitialized::`RTTI Class Hierarchy Descriptor'
	DD	00H
	DD	02H
	DD	FLAT:??_R2SecurityTokenLibraryNotInitialized@CipherShed@@8
rdata$r	ENDS
;	COMDAT ??_R0?AUSecurityTokenLibraryNotInitialized@CipherShed@@@8
_DATA	SEGMENT
??_R0?AUSecurityTokenLibraryNotInitialized@CipherShed@@@8 DD FLAT:??_7type_info@@6B@ ; CipherShed::SecurityTokenLibraryNotInitialized `RTTI Type Descriptor'
	DD	00H
	DB	'.?AUSecurityTokenLibraryNotInitialized@CipherShed@@', 00H
_DATA	ENDS
;	COMDAT ??_R4SecurityTokenLibraryNotInitialized@CipherShed@@6B@
rdata$r	SEGMENT
??_R4SecurityTokenLibraryNotInitialized@CipherShed@@6B@ DD 00H ; CipherShed::SecurityTokenLibraryNotInitialized::`RTTI Complete Object Locator'
	DD	00H
	DD	00H
	DD	FLAT:??_R0?AUSecurityTokenLibraryNotInitialized@CipherShed@@@8
	DD	FLAT:??_R3SecurityTokenLibraryNotInitialized@CipherShed@@8
rdata$r	ENDS
;	COMDAT ??_7SecurityTokenLibraryNotInitialized@CipherShed@@6B@
CONST	SEGMENT
??_7SecurityTokenLibraryNotInitialized@CipherShed@@6B@ DD FLAT:??_R4SecurityTokenLibraryNotInitialized@CipherShed@@6B@ ; CipherShed::SecurityTokenLibraryNotInitialized::`vftable'
	DD	FLAT:?Show@SecurityTokenLibraryNotInitialized@CipherShed@@UBEXPAUHWND__@@@Z
; Function compile flags: /Ogtpy
CONST	ENDS
;	COMDAT ??0SecurityTokenLibraryNotInitialized@CipherShed@@QAE@XZ
_TEXT	SEGMENT
??0SecurityTokenLibraryNotInitialized@CipherShed@@QAE@XZ PROC ; CipherShed::SecurityTokenLibraryNotInitialized::SecurityTokenLibraryNotInitialized, COMDAT
; _this$ = ecx
  00000	8b c1		 mov	 eax, ecx
  00002	c7 00 00 00 00
	00		 mov	 DWORD PTR [eax], OFFSET ??_7SecurityTokenLibraryNotInitialized@CipherShed@@6B@
  00008	c3		 ret	 0
??0SecurityTokenLibraryNotInitialized@CipherShed@@QAE@XZ ENDP ; CipherShed::SecurityTokenLibraryNotInitialized::SecurityTokenLibraryNotInitialized
_TEXT	ENDS
PUBLIC	??_C@_0BK@OPPAPAFF@PKCS11_MODULE_INIT_FAILED?$AA@ ; `string'
PUBLIC	??_C@_0BL@NECJIJNL@NO_PKCS11_MODULE_SPECIFIED?$AA@ ; `string'
EXTRN	_SecurityTokenLibraryPath:BYTE
;	COMDAT ??_C@_0BK@OPPAPAFF@PKCS11_MODULE_INIT_FAILED?$AA@
CONST	SEGMENT
??_C@_0BK@OPPAPAFF@PKCS11_MODULE_INIT_FAILED?$AA@ DB 'PKCS11_MODULE_INIT_'
	DB	'FAILED', 00H				; `string'
CONST	ENDS
;	COMDAT ??_C@_0BL@NECJIJNL@NO_PKCS11_MODULE_SPECIFIED?$AA@
CONST	SEGMENT
??_C@_0BL@NECJIJNL@NO_PKCS11_MODULE_SPECIFIED?$AA@ DB 'NO_PKCS11_MODULE_S'
	DB	'PECIFIED', 00H				; `string'
; Function compile flags: /Ogtpy
CONST	ENDS
;	COMDAT ?Show@SecurityTokenLibraryNotInitialized@CipherShed@@UBEXPAUHWND__@@@Z
_TEXT	SEGMENT
_parent$ = 8						; size = 4
?Show@SecurityTokenLibraryNotInitialized@CipherShed@@UBEXPAUHWND__@@@Z PROC ; CipherShed::SecurityTokenLibraryNotInitialized::Show, COMDAT
; _this$ = ecx

; 135  : 		void Show (HWND parent) const { Error (SecurityTokenLibraryPath[0] == 0 ? "NO_PKCS11_MODULE_SPECIFIED" : "PKCS11_MODULE_INIT_FAILED"); }

  00000	80 3d 00 00 00
	00 00		 cmp	 BYTE PTR _SecurityTokenLibraryPath, 0
  00007	b8 00 00 00 00	 mov	 eax, OFFSET ??_C@_0BL@NECJIJNL@NO_PKCS11_MODULE_SPECIFIED?$AA@
  0000c	74 05		 je	 SHORT $LN4@Show
  0000e	b8 00 00 00 00	 mov	 eax, OFFSET ??_C@_0BK@OPPAPAFF@PKCS11_MODULE_INIT_FAILED?$AA@
$LN4@Show:
  00013	50		 push	 eax
  00014	e8 00 00 00 00	 call	 _Error
  00019	59		 pop	 ecx
  0001a	c2 04 00	 ret	 4
?Show@SecurityTokenLibraryNotInitialized@CipherShed@@UBEXPAUHWND__@@@Z ENDP ; CipherShed::SecurityTokenLibraryNotInitialized::Show
; Function compile flags: /Ogtpy
; File c:\home\public\desktop\projects\ciphershed.build\src\common\securitytoken.cpp
_TEXT	ENDS
;	COMDAT ??0Finally161@?N@??CreateKeyfile@SecurityToken@CipherShed@@SAXKAAV?$vector@EV?$allocator@E@std@@@std@@ABV?$basic_string@DU?$char_traits@D@std@@V?$allocator@D@2@@5@@Z@QAE@PAV45@@Z
_TEXT	SEGMENT
??0Finally161@?N@??CreateKeyfile@SecurityToken@CipherShed@@SAXKAAV?$vector@EV?$allocator@E@std@@@std@@ABV?$basic_string@DU?$char_traits@D@std@@V?$allocator@D@2@@5@@Z@QAE@PAV45@@Z PROC ; `CipherShed::SecurityToken::CreateKeyfile'::`13'::Finally161::Finally161, COMDAT
; _this$ = eax
; _a$ = ecx

; 161  : 		finally_do_arg (vector <byte> *, &objectData, { if (!finally_arg->empty()) burn (&finally_arg->front(), finally_arg->size()); });

  00000	89 08		 mov	 DWORD PTR [eax], ecx
  00002	c3		 ret	 0
??0Finally161@?N@??CreateKeyfile@SecurityToken@CipherShed@@SAXKAAV?$vector@EV?$allocator@E@std@@@std@@ABV?$basic_string@DU?$char_traits@D@std@@V?$allocator@D@2@@5@@Z@QAE@PAV45@@Z ENDP ; `CipherShed::SecurityToken::CreateKeyfile'::`13'::Finally161::Finally161
_TEXT	ENDS
PUBLIC	??_7SecurityTokenKeyfileAlreadyExists@CipherShed@@6B@ ; CipherShed::SecurityTokenKeyfileAlreadyExists::`vftable'
PUBLIC	??0SecurityTokenKeyfileAlreadyExists@CipherShed@@QAE@XZ ; CipherShed::SecurityTokenKeyfileAlreadyExists::SecurityTokenKeyfileAlreadyExists
PUBLIC	??_R4SecurityTokenKeyfileAlreadyExists@CipherShed@@6B@ ; CipherShed::SecurityTokenKeyfileAlreadyExists::`RTTI Complete Object Locator'
PUBLIC	??_R0?AUSecurityTokenKeyfileAlreadyExists@CipherShed@@@8 ; CipherShed::SecurityTokenKeyfileAlreadyExists `RTTI Type Descriptor'
PUBLIC	??_R3SecurityTokenKeyfileAlreadyExists@CipherShed@@8 ; CipherShed::SecurityTokenKeyfileAlreadyExists::`RTTI Class Hierarchy Descriptor'
PUBLIC	??_R2SecurityTokenKeyfileAlreadyExists@CipherShed@@8 ; CipherShed::SecurityTokenKeyfileAlreadyExists::`RTTI Base Class Array'
PUBLIC	??_R1A@?0A@EA@SecurityTokenKeyfileAlreadyExists@CipherShed@@8 ; CipherShed::SecurityTokenKeyfileAlreadyExists::`RTTI Base Class Descriptor at (0,-1,0,64)'
PUBLIC	?Show@SecurityTokenKeyfileAlreadyExists@CipherShed@@UBEXPAUHWND__@@@Z ; CipherShed::SecurityTokenKeyfileAlreadyExists::Show
;	COMDAT ??_R1A@?0A@EA@SecurityTokenKeyfileAlreadyExists@CipherShed@@8
rdata$r	SEGMENT
??_R1A@?0A@EA@SecurityTokenKeyfileAlreadyExists@CipherShed@@8 DD FLAT:??_R0?AUSecurityTokenKeyfileAlreadyExists@CipherShed@@@8 ; CipherShed::SecurityTokenKeyfileAlreadyExists::`RTTI Base Class Descriptor at (0,-1,0,64)'
	DD	01H
	DD	00H
	DD	0ffffffffH
	DD	00H
	DD	040H
	DD	FLAT:??_R3SecurityTokenKeyfileAlreadyExists@CipherShed@@8
rdata$r	ENDS
;	COMDAT ??_R2SecurityTokenKeyfileAlreadyExists@CipherShed@@8
rdata$r	SEGMENT
??_R2SecurityTokenKeyfileAlreadyExists@CipherShed@@8 DD FLAT:??_R1A@?0A@EA@SecurityTokenKeyfileAlreadyExists@CipherShed@@8 ; CipherShed::SecurityTokenKeyfileAlreadyExists::`RTTI Base Class Array'
	DD	FLAT:??_R1A@?0A@EA@Exception@CipherShed@@8
rdata$r	ENDS
;	COMDAT ??_R3SecurityTokenKeyfileAlreadyExists@CipherShed@@8
rdata$r	SEGMENT
??_R3SecurityTokenKeyfileAlreadyExists@CipherShed@@8 DD 00H ; CipherShed::SecurityTokenKeyfileAlreadyExists::`RTTI Class Hierarchy Descriptor'
	DD	00H
	DD	02H
	DD	FLAT:??_R2SecurityTokenKeyfileAlreadyExists@CipherShed@@8
rdata$r	ENDS
;	COMDAT ??_R0?AUSecurityTokenKeyfileAlreadyExists@CipherShed@@@8
_DATA	SEGMENT
??_R0?AUSecurityTokenKeyfileAlreadyExists@CipherShed@@@8 DD FLAT:??_7type_info@@6B@ ; CipherShed::SecurityTokenKeyfileAlreadyExists `RTTI Type Descriptor'
	DD	00H
	DB	'.?AUSecurityTokenKeyfileAlreadyExists@CipherShed@@', 00H
_DATA	ENDS
;	COMDAT ??_R4SecurityTokenKeyfileAlreadyExists@CipherShed@@6B@
rdata$r	SEGMENT
??_R4SecurityTokenKeyfileAlreadyExists@CipherShed@@6B@ DD 00H ; CipherShed::SecurityTokenKeyfileAlreadyExists::`RTTI Complete Object Locator'
	DD	00H
	DD	00H
	DD	FLAT:??_R0?AUSecurityTokenKeyfileAlreadyExists@CipherShed@@@8
	DD	FLAT:??_R3SecurityTokenKeyfileAlreadyExists@CipherShed@@8
rdata$r	ENDS
;	COMDAT ??_7SecurityTokenKeyfileAlreadyExists@CipherShed@@6B@
CONST	SEGMENT
??_7SecurityTokenKeyfileAlreadyExists@CipherShed@@6B@ DD FLAT:??_R4SecurityTokenKeyfileAlreadyExists@CipherShed@@6B@ ; CipherShed::SecurityTokenKeyfileAlreadyExists::`vftable'
	DD	FLAT:?Show@SecurityTokenKeyfileAlreadyExists@CipherShed@@UBEXPAUHWND__@@@Z
; Function compile flags: /Ogtpy
CONST	ENDS
;	COMDAT ??0SecurityTokenKeyfileAlreadyExists@CipherShed@@QAE@XZ
_TEXT	SEGMENT
??0SecurityTokenKeyfileAlreadyExists@CipherShed@@QAE@XZ PROC ; CipherShed::SecurityTokenKeyfileAlreadyExists::SecurityTokenKeyfileAlreadyExists, COMDAT
; _this$ = ecx
  00000	8b c1		 mov	 eax, ecx
  00002	c7 00 00 00 00
	00		 mov	 DWORD PTR [eax], OFFSET ??_7SecurityTokenKeyfileAlreadyExists@CipherShed@@6B@
  00008	c3		 ret	 0
??0SecurityTokenKeyfileAlreadyExists@CipherShed@@QAE@XZ ENDP ; CipherShed::SecurityTokenKeyfileAlreadyExists::SecurityTokenKeyfileAlreadyExists
_TEXT	ENDS
PUBLIC	??_C@_0BN@LMLDGKPH@TOKEN_KEYFILE_ALREADY_EXISTS?$AA@ ; `string'
;	COMDAT ??_C@_0BN@LMLDGKPH@TOKEN_KEYFILE_ALREADY_EXISTS?$AA@
; File c:\home\public\desktop\projects\ciphershed.build\src\common\securitytoken.h
CONST	SEGMENT
??_C@_0BN@LMLDGKPH@TOKEN_KEYFILE_ALREADY_EXISTS?$AA@ DB 'TOKEN_KEYFILE_AL'
	DB	'READY_EXISTS', 00H				; `string'
; Function compile flags: /Ogtpy
CONST	ENDS
;	COMDAT ?Show@SecurityTokenKeyfileAlreadyExists@CipherShed@@UBEXPAUHWND__@@@Z
_TEXT	SEGMENT
_parent$ = 8						; size = 4
?Show@SecurityTokenKeyfileAlreadyExists@CipherShed@@UBEXPAUHWND__@@@Z PROC ; CipherShed::SecurityTokenKeyfileAlreadyExists::Show, COMDAT
; _this$ = ecx

; 145  : 		void Show (HWND parent) const { Error ("TOKEN_KEYFILE_ALREADY_EXISTS"); }

  00000	68 00 00 00 00	 push	 OFFSET ??_C@_0BN@LMLDGKPH@TOKEN_KEYFILE_ALREADY_EXISTS?$AA@
  00005	e8 00 00 00 00	 call	 _Error
  0000a	59		 pop	 ecx
  0000b	c2 04 00	 ret	 4
?Show@SecurityTokenKeyfileAlreadyExists@CipherShed@@UBEXPAUHWND__@@@Z ENDP ; CipherShed::SecurityTokenKeyfileAlreadyExists::Show
; Function compile flags: /Ogtpy
; File c:\home\public\desktop\projects\ciphershed.build\src\common\securitytoken.cpp
_TEXT	ENDS
;	COMDAT ??0Finally331@?5??GetObjects@SecurityToken@CipherShed@@KA?AV?$vector@KV?$allocator@K@std@@@std@@KK@Z@QAE@K@Z
_TEXT	SEGMENT
??0Finally331@?5??GetObjects@SecurityToken@CipherShed@@KA?AV?$vector@KV?$allocator@K@std@@@std@@KK@Z@QAE@K@Z PROC ; `CipherShed::SecurityToken::GetObjects'::`6'::Finally331::Finally331, COMDAT
; _this$ = eax
; _a$ = ecx

; 331  : 		finally_do_arg (CK_SLOT_ID, slotId, { Pkcs11Functions->C_FindObjectsFinal (Sessions[finally_arg].Handle); });

  00000	89 08		 mov	 DWORD PTR [eax], ecx
  00002	c3		 ret	 0
??0Finally331@?5??GetObjects@SecurityToken@CipherShed@@KA?AV?$vector@KV?$allocator@K@std@@@std@@KK@Z@QAE@K@Z ENDP ; `CipherShed::SecurityToken::GetObjects'::`6'::Finally331::Finally331
; Function compile flags: /Ogtpy
_TEXT	ENDS
;	COMDAT ??0Finally482@?BL@??LoginUserIfRequired@SecurityToken@CipherShed@@KAXK@Z@QAE@PAV?$basic_string@DU?$char_traits@D@std@@V?$allocator@D@2@@std@@@Z
_TEXT	SEGMENT
??0Finally482@?BL@??LoginUserIfRequired@SecurityToken@CipherShed@@KAXK@Z@QAE@PAV?$basic_string@DU?$char_traits@D@std@@V?$allocator@D@2@@std@@@Z PROC ; `CipherShed::SecurityToken::LoginUserIfRequired'::`27'::Finally482::Finally482, COMDAT
; _this$ = eax
; _a$ = ecx

; 482  : 					finally_do_arg (string*, &pin, { burn ((void *) finally_arg->c_str(), finally_arg->size()); });

  00000	89 08		 mov	 DWORD PTR [eax], ecx
  00002	c3		 ret	 0
??0Finally482@?BL@??LoginUserIfRequired@SecurityToken@CipherShed@@KAXK@Z@QAE@PAV?$basic_string@DU?$char_traits@D@std@@V?$allocator@D@2@@std@@@Z ENDP ; `CipherShed::SecurityToken::LoginUserIfRequired'::`27'::Finally482::Finally482
_TEXT	ENDS
PUBLIC	?size@?$basic_string@DU?$char_traits@D@std@@V?$allocator@D@2@@std@@QBEIXZ ; std::basic_string<char,std::char_traits<char>,std::allocator<char> >::size
; Function compile flags: /Ogtpy
; File c:\program files (x86)\microsoft visual studio 9.0\vc\include\xstring
;	COMDAT ?size@?$basic_string@DU?$char_traits@D@std@@V?$allocator@D@2@@std@@QBEIXZ
_TEXT	SEGMENT
?size@?$basic_string@DU?$char_traits@D@std@@V?$allocator@D@2@@std@@QBEIXZ PROC ; std::basic_string<char,std::char_traits<char>,std::allocator<char> >::size, COMDAT
; _this$ = ecx

; 1666 : 		return (_Mysize);

  00000	8b 41 14	 mov	 eax, DWORD PTR [ecx+20]

; 1667 : 		}

  00003	c3		 ret	 0
?size@?$basic_string@DU?$char_traits@D@std@@V?$allocator@D@2@@std@@QBEIXZ ENDP ; std::basic_string<char,std::char_traits<char>,std::allocator<char> >::size
_TEXT	ENDS
PUBLIC	?empty@?$basic_string@DU?$char_traits@D@std@@V?$allocator@D@2@@std@@QBE_NXZ ; std::basic_string<char,std::char_traits<char>,std::allocator<char> >::empty
; Function compile flags: /Ogtpy
;	COMDAT ?empty@?$basic_string@DU?$char_traits@D@std@@V?$allocator@D@2@@std@@QBE_NXZ
_TEXT	SEGMENT
?empty@?$basic_string@DU?$char_traits@D@std@@V?$allocator@D@2@@std@@QBE_NXZ PROC ; std::basic_string<char,std::char_traits<char>,std::allocator<char> >::empty, COMDAT
; _this$ = ecx

; 1705 : 		return (_Mysize == 0);

  00000	33 c0		 xor	 eax, eax
  00002	39 41 14	 cmp	 DWORD PTR [ecx+20], eax
  00005	0f 94 c0	 sete	 al

; 1706 : 		}

  00008	c3		 ret	 0
?empty@?$basic_string@DU?$char_traits@D@std@@V?$allocator@D@2@@std@@QBE_NXZ ENDP ; std::basic_string<char,std::char_traits<char>,std::allocator<char> >::empty
_TEXT	ENDS
PUBLIC	?size@?$basic_string@_WU?$char_traits@_W@std@@V?$allocator@_W@2@@std@@QBEIXZ ; std::basic_string<wchar_t,std::char_traits<wchar_t>,std::allocator<wchar_t> >::size
; Function compile flags: /Ogtpy
;	COMDAT ?size@?$basic_string@_WU?$char_traits@_W@std@@V?$allocator@_W@2@@std@@QBEIXZ
_TEXT	SEGMENT
?size@?$basic_string@_WU?$char_traits@_W@std@@V?$allocator@_W@2@@std@@QBEIXZ PROC ; std::basic_string<wchar_t,std::char_traits<wchar_t>,std::allocator<wchar_t> >::size, COMDAT
; _this$ = ecx

; 1666 : 		return (_Mysize);

  00000	8b 41 14	 mov	 eax, DWORD PTR [ecx+20]

; 1667 : 		}

  00003	c3		 ret	 0
?size@?$basic_string@_WU?$char_traits@_W@std@@V?$allocator@_W@2@@std@@QBEIXZ ENDP ; std::basic_string<wchar_t,std::char_traits<wchar_t>,std::allocator<wchar_t> >::size
_TEXT	ENDS
PUBLIC	?empty@?$basic_string@_WU?$char_traits@_W@std@@V?$allocator@_W@2@@std@@QBE_NXZ ; std::basic_string<wchar_t,std::char_traits<wchar_t>,std::allocator<wchar_t> >::empty
; Function compile flags: /Ogtpy
;	COMDAT ?empty@?$basic_string@_WU?$char_traits@_W@std@@V?$allocator@_W@2@@std@@QBE_NXZ
_TEXT	SEGMENT
?empty@?$basic_string@_WU?$char_traits@_W@std@@V?$allocator@_W@2@@std@@QBE_NXZ PROC ; std::basic_string<wchar_t,std::char_traits<wchar_t>,std::allocator<wchar_t> >::empty, COMDAT
; _this$ = ecx

; 1705 : 		return (_Mysize == 0);

  00000	33 c0		 xor	 eax, eax
  00002	39 41 14	 cmp	 DWORD PTR [ecx+20], eax
  00005	0f 94 c0	 sete	 al

; 1706 : 		}

  00008	c3		 ret	 0
?empty@?$basic_string@_WU?$char_traits@_W@std@@V?$allocator@_W@2@@std@@QBE_NXZ ENDP ; std::basic_string<wchar_t,std::char_traits<wchar_t>,std::allocator<wchar_t> >::empty
_TEXT	ENDS
PUBLIC	??_7?$basic_ostream@DU?$char_traits@D@std@@@std@@6B@ ; std::basic_ostream<char,std::char_traits<char> >::`vftable'
PUBLIC	??1?$basic_ostream@DU?$char_traits@D@std@@@std@@UAE@XZ ; std::basic_ostream<char,std::char_traits<char> >::~basic_ostream<char,std::char_traits<char> >
PUBLIC	??_R4?$basic_ostream@DU?$char_traits@D@std@@@std@@6B@ ; std::basic_ostream<char,std::char_traits<char> >::`RTTI Complete Object Locator'
PUBLIC	??_R0?AV?$basic_ostream@DU?$char_traits@D@std@@@std@@@8 ; std::basic_ostream<char,std::char_traits<char> > `RTTI Type Descriptor'
PUBLIC	??_R3?$basic_ostream@DU?$char_traits@D@std@@@std@@8 ; std::basic_ostream<char,std::char_traits<char> >::`RTTI Class Hierarchy Descriptor'
PUBLIC	??_R2?$basic_ostream@DU?$char_traits@D@std@@@std@@8 ; std::basic_ostream<char,std::char_traits<char> >::`RTTI Base Class Array'
PUBLIC	??_R1A@?0A@EA@?$basic_ostream@DU?$char_traits@D@std@@@std@@8 ; std::basic_ostream<char,std::char_traits<char> >::`RTTI Base Class Descriptor at (0,-1,0,64)'
PUBLIC	??_R1A@A@3FA@?$basic_ios@DU?$char_traits@D@std@@@std@@8 ; std::basic_ios<char,std::char_traits<char> >::`RTTI Base Class Descriptor at (0,0,4,80)'
PUBLIC	??_R0?AV?$basic_ios@DU?$char_traits@D@std@@@std@@@8 ; std::basic_ios<char,std::char_traits<char> > `RTTI Type Descriptor'
PUBLIC	??_R3?$basic_ios@DU?$char_traits@D@std@@@std@@8	; std::basic_ios<char,std::char_traits<char> >::`RTTI Class Hierarchy Descriptor'
PUBLIC	??_R2?$basic_ios@DU?$char_traits@D@std@@@std@@8	; std::basic_ios<char,std::char_traits<char> >::`RTTI Base Class Array'
PUBLIC	??_R1A@?0A@EA@?$basic_ios@DU?$char_traits@D@std@@@std@@8 ; std::basic_ios<char,std::char_traits<char> >::`RTTI Base Class Descriptor at (0,-1,0,64)'
PUBLIC	??_R1A@A@3EA@ios_base@std@@8			; std::ios_base::`RTTI Base Class Descriptor at (0,0,4,64)'
PUBLIC	??_R13A@3EA@?$_Iosb@H@std@@8			; std::_Iosb<int>::`RTTI Base Class Descriptor at (4,0,4,64)'
EXTRN	??_E?$basic_ostream@DU?$char_traits@D@std@@@std@@UAEPAXI@Z:PROC ; std::basic_ostream<char,std::char_traits<char> >::`vector deleting destructor'
;	COMDAT ??_R13A@3EA@?$_Iosb@H@std@@8
; File c:\program files (x86)\microsoft visual studio 9.0\vc\include\ostream
rdata$r	SEGMENT
??_R13A@3EA@?$_Iosb@H@std@@8 DD FLAT:??_R0?AV?$_Iosb@H@std@@@8 ; std::_Iosb<int>::`RTTI Base Class Descriptor at (4,0,4,64)'
	DD	00H
	DD	04H
	DD	00H
	DD	04H
	DD	040H
	DD	FLAT:??_R3?$_Iosb@H@std@@8
rdata$r	ENDS
;	COMDAT ??_R1A@A@3EA@ios_base@std@@8
rdata$r	SEGMENT
??_R1A@A@3EA@ios_base@std@@8 DD FLAT:??_R0?AVios_base@std@@@8 ; std::ios_base::`RTTI Base Class Descriptor at (0,0,4,64)'
	DD	01H
	DD	00H
	DD	00H
	DD	04H
	DD	040H
	DD	FLAT:??_R3ios_base@std@@8
rdata$r	ENDS
;	COMDAT ??_R1A@?0A@EA@?$basic_ios@DU?$char_traits@D@std@@@std@@8
rdata$r	SEGMENT
??_R1A@?0A@EA@?$basic_ios@DU?$char_traits@D@std@@@std@@8 DD FLAT:??_R0?AV?$basic_ios@DU?$char_traits@D@std@@@std@@@8 ; std::basic_ios<char,std::char_traits<char> >::`RTTI Base Class Descriptor at (0,-1,0,64)'
	DD	02H
	DD	00H
	DD	0ffffffffH
	DD	00H
	DD	040H
	DD	FLAT:??_R3?$basic_ios@DU?$char_traits@D@std@@@std@@8
rdata$r	ENDS
;	COMDAT ??_R2?$basic_ios@DU?$char_traits@D@std@@@std@@8
rdata$r	SEGMENT
??_R2?$basic_ios@DU?$char_traits@D@std@@@std@@8 DD FLAT:??_R1A@?0A@EA@?$basic_ios@DU?$char_traits@D@std@@@std@@8 ; std::basic_ios<char,std::char_traits<char> >::`RTTI Base Class Array'
	DD	FLAT:??_R1A@?0A@EA@ios_base@std@@8
	DD	FLAT:??_R13?0A@EA@?$_Iosb@H@std@@8
rdata$r	ENDS
;	COMDAT ??_R3?$basic_ios@DU?$char_traits@D@std@@@std@@8
rdata$r	SEGMENT
??_R3?$basic_ios@DU?$char_traits@D@std@@@std@@8 DD 00H	; std::basic_ios<char,std::char_traits<char> >::`RTTI Class Hierarchy Descriptor'
	DD	00H
	DD	03H
	DD	FLAT:??_R2?$basic_ios@DU?$char_traits@D@std@@@std@@8
rdata$r	ENDS
;	COMDAT ??_R0?AV?$basic_ios@DU?$char_traits@D@std@@@std@@@8
_DATA	SEGMENT
??_R0?AV?$basic_ios@DU?$char_traits@D@std@@@std@@@8 DD FLAT:??_7type_info@@6B@ ; std::basic_ios<char,std::char_traits<char> > `RTTI Type Descriptor'
	DD	00H
	DB	'.?AV?$basic_ios@DU?$char_traits@D@std@@@std@@', 00H
_DATA	ENDS
;	COMDAT ??_R1A@A@3FA@?$basic_ios@DU?$char_traits@D@std@@@std@@8
rdata$r	SEGMENT
??_R1A@A@3FA@?$basic_ios@DU?$char_traits@D@std@@@std@@8 DD FLAT:??_R0?AV?$basic_ios@DU?$char_traits@D@std@@@std@@@8 ; std::basic_ios<char,std::char_traits<char> >::`RTTI Base Class Descriptor at (0,0,4,80)'
	DD	02H
	DD	00H
	DD	00H
	DD	04H
	DD	050H
	DD	FLAT:??_R3?$basic_ios@DU?$char_traits@D@std@@@std@@8
rdata$r	ENDS
;	COMDAT ??_R1A@?0A@EA@?$basic_ostream@DU?$char_traits@D@std@@@std@@8
rdata$r	SEGMENT
??_R1A@?0A@EA@?$basic_ostream@DU?$char_traits@D@std@@@std@@8 DD FLAT:??_R0?AV?$basic_ostream@DU?$char_traits@D@std@@@std@@@8 ; std::basic_ostream<char,std::char_traits<char> >::`RTTI Base Class Descriptor at (0,-1,0,64)'
	DD	03H
	DD	00H
	DD	0ffffffffH
	DD	00H
	DD	040H
	DD	FLAT:??_R3?$basic_ostream@DU?$char_traits@D@std@@@std@@8
rdata$r	ENDS
;	COMDAT ??_R2?$basic_ostream@DU?$char_traits@D@std@@@std@@8
rdata$r	SEGMENT
??_R2?$basic_ostream@DU?$char_traits@D@std@@@std@@8 DD FLAT:??_R1A@?0A@EA@?$basic_ostream@DU?$char_traits@D@std@@@std@@8 ; std::basic_ostream<char,std::char_traits<char> >::`RTTI Base Class Array'
	DD	FLAT:??_R1A@A@3FA@?$basic_ios@DU?$char_traits@D@std@@@std@@8
	DD	FLAT:??_R1A@A@3EA@ios_base@std@@8
	DD	FLAT:??_R13A@3EA@?$_Iosb@H@std@@8
rdata$r	ENDS
;	COMDAT ??_R3?$basic_ostream@DU?$char_traits@D@std@@@std@@8
rdata$r	SEGMENT
??_R3?$basic_ostream@DU?$char_traits@D@std@@@std@@8 DD 00H ; std::basic_ostream<char,std::char_traits<char> >::`RTTI Class Hierarchy Descriptor'
	DD	00H
	DD	04H
	DD	FLAT:??_R2?$basic_ostream@DU?$char_traits@D@std@@@std@@8
rdata$r	ENDS
;	COMDAT ??_R0?AV?$basic_ostream@DU?$char_traits@D@std@@@std@@@8
_DATA	SEGMENT
??_R0?AV?$basic_ostream@DU?$char_traits@D@std@@@std@@@8 DD FLAT:??_7type_info@@6B@ ; std::basic_ostream<char,std::char_traits<char> > `RTTI Type Descriptor'
	DD	00H
	DB	'.?AV?$basic_ostream@DU?$char_traits@D@std@@@std@@', 00H
_DATA	ENDS
;	COMDAT ??_R4?$basic_ostream@DU?$char_traits@D@std@@@std@@6B@
rdata$r	SEGMENT
??_R4?$basic_ostream@DU?$char_traits@D@std@@@std@@6B@ DD 00H ; std::basic_ostream<char,std::char_traits<char> >::`RTTI Complete Object Locator'
	DD	04H
	DD	00H
	DD	FLAT:??_R0?AV?$basic_ostream@DU?$char_traits@D@std@@@std@@@8
	DD	FLAT:??_R3?$basic_ostream@DU?$char_traits@D@std@@@std@@8
rdata$r	ENDS
;	COMDAT ??_7?$basic_ostream@DU?$char_traits@D@std@@@std@@6B@
CONST	SEGMENT
??_7?$basic_ostream@DU?$char_traits@D@std@@@std@@6B@ DD FLAT:??_R4?$basic_ostream@DU?$char_traits@D@std@@@std@@6B@ ; std::basic_ostream<char,std::char_traits<char> >::`vftable'
	DD	FLAT:??_E?$basic_ostream@DU?$char_traits@D@std@@@std@@UAEPAXI@Z
; Function compile flags: /Ogtpy
CONST	ENDS
;	COMDAT ??1?$basic_ostream@DU?$char_traits@D@std@@@std@@UAE@XZ
_TEXT	SEGMENT
??1?$basic_ostream@DU?$char_traits@D@std@@@std@@UAE@XZ PROC ; std::basic_ostream<char,std::char_traits<char> >::~basic_ostream<char,std::char_traits<char> >, COMDAT
; _this$ = ecx

; 63   : 		{	// destroy the object

  00000	8b 41 fc	 mov	 eax, DWORD PTR [ecx-4]
  00003	8b 50 04	 mov	 edx, DWORD PTR [eax+4]
  00006	c7 44 0a fc 00
	00 00 00	 mov	 DWORD PTR [edx+ecx-4], OFFSET ??_7?$basic_ostream@DU?$char_traits@D@std@@@std@@6B@

; 64   : 		}

  0000e	c3		 ret	 0
??1?$basic_ostream@DU?$char_traits@D@std@@@std@@UAE@XZ ENDP ; std::basic_ostream<char,std::char_traits<char> >::~basic_ostream<char,std::char_traits<char> >
_TEXT	ENDS
PUBLIC	??6?$basic_ostream@DU?$char_traits@D@std@@@std@@QAEAAV01@P6AAAVios_base@1@AAV21@@Z@Z ; std::basic_ostream<char,std::char_traits<char> >::operator<<
; Function compile flags: /Ogtpy
;	COMDAT ??6?$basic_ostream@DU?$char_traits@D@std@@@std@@QAEAAV01@P6AAAVios_base@1@AAV21@@Z@Z
_TEXT	SEGMENT
__Pfn$ = 8						; size = 4
??6?$basic_ostream@DU?$char_traits@D@std@@@std@@QAEAAV01@P6AAAVios_base@1@AAV21@@Z@Z PROC ; std::basic_ostream<char,std::char_traits<char> >::operator<<, COMDAT
; _this$ = ecx

; 184  : 		{	// call ios_base manipulator

  00000	56		 push	 esi
  00001	8b f1		 mov	 esi, ecx

; 185  : 		_DEBUG_POINTER(_Pfn);
; 186  : 		(*_Pfn)(*(ios_base *)this);

  00003	85 f6		 test	 esi, esi
  00005	75 10		 jne	 SHORT $LN3@operator@2
  00007	33 c0		 xor	 eax, eax
  00009	50		 push	 eax
  0000a	ff 54 24 0c	 call	 DWORD PTR __Pfn$[esp+4]
  0000e	83 c4 04	 add	 esp, 4

; 187  : 		return (*this);

  00011	8b c6		 mov	 eax, esi
  00013	5e		 pop	 esi

; 188  : 		}

  00014	c2 04 00	 ret	 4
$LN3@operator@2:

; 185  : 		_DEBUG_POINTER(_Pfn);
; 186  : 		(*_Pfn)(*(ios_base *)this);

  00017	8b 06		 mov	 eax, DWORD PTR [esi]
  00019	8b 40 04	 mov	 eax, DWORD PTR [eax+4]
  0001c	03 c6		 add	 eax, esi
  0001e	50		 push	 eax
  0001f	ff 54 24 0c	 call	 DWORD PTR __Pfn$[esp+4]
  00023	83 c4 04	 add	 esp, 4

; 187  : 		return (*this);

  00026	8b c6		 mov	 eax, esi
  00028	5e		 pop	 esi

; 188  : 		}

  00029	c2 04 00	 ret	 4
??6?$basic_ostream@DU?$char_traits@D@std@@@std@@QAEAAV01@P6AAAVios_base@1@AAV21@@Z@Z ENDP ; std::basic_ostream<char,std::char_traits<char> >::operator<<
_TEXT	ENDS
PUBLIC	??1?$basic_ios@DU?$char_traits@D@std@@@std@@UAE@XZ ; std::basic_ios<char,std::char_traits<char> >::~basic_ios<char,std::char_traits<char> >
; Function compile flags: /Ogtpy
; File c:\program files (x86)\microsoft visual studio 9.0\vc\include\ios
;	COMDAT ??1?$basic_ios@DU?$char_traits@D@std@@@std@@UAE@XZ
_TEXT	SEGMENT
??1?$basic_ios@DU?$char_traits@D@std@@@std@@UAE@XZ PROC	; std::basic_ios<char,std::char_traits<char> >::~basic_ios<char,std::char_traits<char> >, COMDAT
; _this$ = ecx

; 39   : 		}

  00000	51		 push	 ecx
  00001	c7 01 00 00 00
	00		 mov	 DWORD PTR [ecx], OFFSET ??_7ios_base@std@@6B@
  00007	e8 00 00 00 00	 call	 ?_Ios_base_dtor@ios_base@std@@CAXPAV12@@Z ; std::ios_base::_Ios_base_dtor
  0000c	59		 pop	 ecx
  0000d	c3		 ret	 0
??1?$basic_ios@DU?$char_traits@D@std@@@std@@UAE@XZ ENDP	; std::basic_ios<char,std::char_traits<char> >::~basic_ios<char,std::char_traits<char> >
_TEXT	ENDS
PUBLIC	?rdbuf@?$basic_ios@DU?$char_traits@D@std@@@std@@QBEPAV?$basic_streambuf@DU?$char_traits@D@std@@@2@XZ ; std::basic_ios<char,std::char_traits<char> >::rdbuf
; Function compile flags: /Ogtpy
;	COMDAT ?rdbuf@?$basic_ios@DU?$char_traits@D@std@@@std@@QBEPAV?$basic_streambuf@DU?$char_traits@D@std@@@2@XZ
_TEXT	SEGMENT
?rdbuf@?$basic_ios@DU?$char_traits@D@std@@@std@@QBEPAV?$basic_streambuf@DU?$char_traits@D@std@@@2@XZ PROC ; std::basic_ios<char,std::char_traits<char> >::rdbuf, COMDAT
; _this$ = ecx

; 85   : 		return (_Mystrbuf);

  00000	8b 41 28	 mov	 eax, DWORD PTR [ecx+40]

; 86   : 		}

  00003	c3		 ret	 0
?rdbuf@?$basic_ios@DU?$char_traits@D@std@@@std@@QBEPAV?$basic_streambuf@DU?$char_traits@D@std@@@2@XZ ENDP ; std::basic_ios<char,std::char_traits<char> >::rdbuf
_TEXT	ENDS
PUBLIC	??_7?$basic_ostream@_WU?$char_traits@_W@std@@@std@@6B@ ; std::basic_ostream<wchar_t,std::char_traits<wchar_t> >::`vftable'
PUBLIC	??1?$basic_ostream@_WU?$char_traits@_W@std@@@std@@UAE@XZ ; std::basic_ostream<wchar_t,std::char_traits<wchar_t> >::~basic_ostream<wchar_t,std::char_traits<wchar_t> >
PUBLIC	??_R4?$basic_ostream@_WU?$char_traits@_W@std@@@std@@6B@ ; std::basic_ostream<wchar_t,std::char_traits<wchar_t> >::`RTTI Complete Object Locator'
PUBLIC	??_R0?AV?$basic_ostream@_WU?$char_traits@_W@std@@@std@@@8 ; std::basic_ostream<wchar_t,std::char_traits<wchar_t> > `RTTI Type Descriptor'
PUBLIC	??_R3?$basic_ostream@_WU?$char_traits@_W@std@@@std@@8 ; std::basic_ostream<wchar_t,std::char_traits<wchar_t> >::`RTTI Class Hierarchy Descriptor'
PUBLIC	??_R2?$basic_ostream@_WU?$char_traits@_W@std@@@std@@8 ; std::basic_ostream<wchar_t,std::char_traits<wchar_t> >::`RTTI Base Class Array'
PUBLIC	??_R1A@?0A@EA@?$basic_ostream@_WU?$char_traits@_W@std@@@std@@8 ; std::basic_ostream<wchar_t,std::char_traits<wchar_t> >::`RTTI Base Class Descriptor at (0,-1,0,64)'
PUBLIC	??_R1A@A@3FA@?$basic_ios@_WU?$char_traits@_W@std@@@std@@8 ; std::basic_ios<wchar_t,std::char_traits<wchar_t> >::`RTTI Base Class Descriptor at (0,0,4,80)'
PUBLIC	??_R0?AV?$basic_ios@_WU?$char_traits@_W@std@@@std@@@8 ; std::basic_ios<wchar_t,std::char_traits<wchar_t> > `RTTI Type Descriptor'
PUBLIC	??_R3?$basic_ios@_WU?$char_traits@_W@std@@@std@@8 ; std::basic_ios<wchar_t,std::char_traits<wchar_t> >::`RTTI Class Hierarchy Descriptor'
PUBLIC	??_R2?$basic_ios@_WU?$char_traits@_W@std@@@std@@8 ; std::basic_ios<wchar_t,std::char_traits<wchar_t> >::`RTTI Base Class Array'
PUBLIC	??_R1A@?0A@EA@?$basic_ios@_WU?$char_traits@_W@std@@@std@@8 ; std::basic_ios<wchar_t,std::char_traits<wchar_t> >::`RTTI Base Class Descriptor at (0,-1,0,64)'
EXTRN	??_E?$basic_ostream@_WU?$char_traits@_W@std@@@std@@UAEPAXI@Z:PROC ; std::basic_ostream<wchar_t,std::char_traits<wchar_t> >::`vector deleting destructor'
;	COMDAT ??_R1A@?0A@EA@?$basic_ios@_WU?$char_traits@_W@std@@@std@@8
; File c:\program files (x86)\microsoft visual studio 9.0\vc\include\ostream
rdata$r	SEGMENT
??_R1A@?0A@EA@?$basic_ios@_WU?$char_traits@_W@std@@@std@@8 DD FLAT:??_R0?AV?$basic_ios@_WU?$char_traits@_W@std@@@std@@@8 ; std::basic_ios<wchar_t,std::char_traits<wchar_t> >::`RTTI Base Class Descriptor at (0,-1,0,64)'
	DD	02H
	DD	00H
	DD	0ffffffffH
	DD	00H
	DD	040H
	DD	FLAT:??_R3?$basic_ios@_WU?$char_traits@_W@std@@@std@@8
rdata$r	ENDS
;	COMDAT ??_R2?$basic_ios@_WU?$char_traits@_W@std@@@std@@8
rdata$r	SEGMENT
??_R2?$basic_ios@_WU?$char_traits@_W@std@@@std@@8 DD FLAT:??_R1A@?0A@EA@?$basic_ios@_WU?$char_traits@_W@std@@@std@@8 ; std::basic_ios<wchar_t,std::char_traits<wchar_t> >::`RTTI Base Class Array'
	DD	FLAT:??_R1A@?0A@EA@ios_base@std@@8
	DD	FLAT:??_R13?0A@EA@?$_Iosb@H@std@@8
rdata$r	ENDS
;	COMDAT ??_R3?$basic_ios@_WU?$char_traits@_W@std@@@std@@8
rdata$r	SEGMENT
??_R3?$basic_ios@_WU?$char_traits@_W@std@@@std@@8 DD 00H ; std::basic_ios<wchar_t,std::char_traits<wchar_t> >::`RTTI Class Hierarchy Descriptor'
	DD	00H
	DD	03H
	DD	FLAT:??_R2?$basic_ios@_WU?$char_traits@_W@std@@@std@@8
rdata$r	ENDS
;	COMDAT ??_R0?AV?$basic_ios@_WU?$char_traits@_W@std@@@std@@@8
_DATA	SEGMENT
??_R0?AV?$basic_ios@_WU?$char_traits@_W@std@@@std@@@8 DD FLAT:??_7type_info@@6B@ ; std::basic_ios<wchar_t,std::char_traits<wchar_t> > `RTTI Type Descriptor'
	DD	00H
	DB	'.?AV?$basic_ios@_WU?$char_traits@_W@std@@@std@@', 00H
_DATA	ENDS
;	COMDAT ??_R1A@A@3FA@?$basic_ios@_WU?$char_traits@_W@std@@@std@@8
rdata$r	SEGMENT
??_R1A@A@3FA@?$basic_ios@_WU?$char_traits@_W@std@@@std@@8 DD FLAT:??_R0?AV?$basic_ios@_WU?$char_traits@_W@std@@@std@@@8 ; std::basic_ios<wchar_t,std::char_traits<wchar_t> >::`RTTI Base Class Descriptor at (0,0,4,80)'
	DD	02H
	DD	00H
	DD	00H
	DD	04H
	DD	050H
	DD	FLAT:??_R3?$basic_ios@_WU?$char_traits@_W@std@@@std@@8
rdata$r	ENDS
;	COMDAT ??_R1A@?0A@EA@?$basic_ostream@_WU?$char_traits@_W@std@@@std@@8
rdata$r	SEGMENT
??_R1A@?0A@EA@?$basic_ostream@_WU?$char_traits@_W@std@@@std@@8 DD FLAT:??_R0?AV?$basic_ostream@_WU?$char_traits@_W@std@@@std@@@8 ; std::basic_ostream<wchar_t,std::char_traits<wchar_t> >::`RTTI Base Class Descriptor at (0,-1,0,64)'
	DD	03H
	DD	00H
	DD	0ffffffffH
	DD	00H
	DD	040H
	DD	FLAT:??_R3?$basic_ostream@_WU?$char_traits@_W@std@@@std@@8
rdata$r	ENDS
;	COMDAT ??_R2?$basic_ostream@_WU?$char_traits@_W@std@@@std@@8
rdata$r	SEGMENT
??_R2?$basic_ostream@_WU?$char_traits@_W@std@@@std@@8 DD FLAT:??_R1A@?0A@EA@?$basic_ostream@_WU?$char_traits@_W@std@@@std@@8 ; std::basic_ostream<wchar_t,std::char_traits<wchar_t> >::`RTTI Base Class Array'
	DD	FLAT:??_R1A@A@3FA@?$basic_ios@_WU?$char_traits@_W@std@@@std@@8
	DD	FLAT:??_R1A@A@3EA@ios_base@std@@8
	DD	FLAT:??_R13A@3EA@?$_Iosb@H@std@@8
rdata$r	ENDS
;	COMDAT ??_R3?$basic_ostream@_WU?$char_traits@_W@std@@@std@@8
rdata$r	SEGMENT
??_R3?$basic_ostream@_WU?$char_traits@_W@std@@@std@@8 DD 00H ; std::basic_ostream<wchar_t,std::char_traits<wchar_t> >::`RTTI Class Hierarchy Descriptor'
	DD	00H
	DD	04H
	DD	FLAT:??_R2?$basic_ostream@_WU?$char_traits@_W@std@@@std@@8
rdata$r	ENDS
;	COMDAT ??_R0?AV?$basic_ostream@_WU?$char_traits@_W@std@@@std@@@8
_DATA	SEGMENT
??_R0?AV?$basic_ostream@_WU?$char_traits@_W@std@@@std@@@8 DD FLAT:??_7type_info@@6B@ ; std::basic_ostream<wchar_t,std::char_traits<wchar_t> > `RTTI Type Descriptor'
	DD	00H
	DB	'.?AV?$basic_ostream@_WU?$char_traits@_W@std@@@std@@', 00H
_DATA	ENDS
;	COMDAT ??_R4?$basic_ostream@_WU?$char_traits@_W@std@@@std@@6B@
rdata$r	SEGMENT
??_R4?$basic_ostream@_WU?$char_traits@_W@std@@@std@@6B@ DD 00H ; std::basic_ostream<wchar_t,std::char_traits<wchar_t> >::`RTTI Complete Object Locator'
	DD	04H
	DD	00H
	DD	FLAT:??_R0?AV?$basic_ostream@_WU?$char_traits@_W@std@@@std@@@8
	DD	FLAT:??_R3?$basic_ostream@_WU?$char_traits@_W@std@@@std@@8
rdata$r	ENDS
;	COMDAT ??_7?$basic_ostream@_WU?$char_traits@_W@std@@@std@@6B@
CONST	SEGMENT
??_7?$basic_ostream@_WU?$char_traits@_W@std@@@std@@6B@ DD FLAT:??_R4?$basic_ostream@_WU?$char_traits@_W@std@@@std@@6B@ ; std::basic_ostream<wchar_t,std::char_traits<wchar_t> >::`vftable'
	DD	FLAT:??_E?$basic_ostream@_WU?$char_traits@_W@std@@@std@@UAEPAXI@Z
; Function compile flags: /Ogtpy
CONST	ENDS
;	COMDAT ??1?$basic_ostream@_WU?$char_traits@_W@std@@@std@@UAE@XZ
_TEXT	SEGMENT
??1?$basic_ostream@_WU?$char_traits@_W@std@@@std@@UAE@XZ PROC ; std::basic_ostream<wchar_t,std::char_traits<wchar_t> >::~basic_ostream<wchar_t,std::char_traits<wchar_t> >, COMDAT
; _this$ = ecx

; 63   : 		{	// destroy the object

  00000	8b 41 fc	 mov	 eax, DWORD PTR [ecx-4]
  00003	8b 50 04	 mov	 edx, DWORD PTR [eax+4]
  00006	c7 44 0a fc 00
	00 00 00	 mov	 DWORD PTR [edx+ecx-4], OFFSET ??_7?$basic_ostream@_WU?$char_traits@_W@std@@@std@@6B@

; 64   : 		}

  0000e	c3		 ret	 0
??1?$basic_ostream@_WU?$char_traits@_W@std@@@std@@UAE@XZ ENDP ; std::basic_ostream<wchar_t,std::char_traits<wchar_t> >::~basic_ostream<wchar_t,std::char_traits<wchar_t> >
_TEXT	ENDS
PUBLIC	??1?$basic_ios@_WU?$char_traits@_W@std@@@std@@UAE@XZ ; std::basic_ios<wchar_t,std::char_traits<wchar_t> >::~basic_ios<wchar_t,std::char_traits<wchar_t> >
; Function compile flags: /Ogtpy
; File c:\program files (x86)\microsoft visual studio 9.0\vc\include\ios
;	COMDAT ??1?$basic_ios@_WU?$char_traits@_W@std@@@std@@UAE@XZ
_TEXT	SEGMENT
??1?$basic_ios@_WU?$char_traits@_W@std@@@std@@UAE@XZ PROC ; std::basic_ios<wchar_t,std::char_traits<wchar_t> >::~basic_ios<wchar_t,std::char_traits<wchar_t> >, COMDAT
; _this$ = ecx

; 39   : 		}

  00000	51		 push	 ecx
  00001	c7 01 00 00 00
	00		 mov	 DWORD PTR [ecx], OFFSET ??_7ios_base@std@@6B@
  00007	e8 00 00 00 00	 call	 ?_Ios_base_dtor@ios_base@std@@CAXPAV12@@Z ; std::ios_base::_Ios_base_dtor
  0000c	59		 pop	 ecx
  0000d	c3		 ret	 0
??1?$basic_ios@_WU?$char_traits@_W@std@@@std@@UAE@XZ ENDP ; std::basic_ios<wchar_t,std::char_traits<wchar_t> >::~basic_ios<wchar_t,std::char_traits<wchar_t> >
_TEXT	ENDS
PUBLIC	?rdbuf@?$basic_ios@_WU?$char_traits@_W@std@@@std@@QBEPAV?$basic_streambuf@_WU?$char_traits@_W@std@@@2@XZ ; std::basic_ios<wchar_t,std::char_traits<wchar_t> >::rdbuf
; Function compile flags: /Ogtpy
;	COMDAT ?rdbuf@?$basic_ios@_WU?$char_traits@_W@std@@@std@@QBEPAV?$basic_streambuf@_WU?$char_traits@_W@std@@@2@XZ
_TEXT	SEGMENT
?rdbuf@?$basic_ios@_WU?$char_traits@_W@std@@@std@@QBEPAV?$basic_streambuf@_WU?$char_traits@_W@std@@@2@XZ PROC ; std::basic_ios<wchar_t,std::char_traits<wchar_t> >::rdbuf, COMDAT
; _this$ = ecx

; 85   : 		return (_Mystrbuf);

  00000	8b 41 28	 mov	 eax, DWORD PTR [ecx+40]

; 86   : 		}

  00003	c3		 ret	 0
?rdbuf@?$basic_ios@_WU?$char_traits@_W@std@@@std@@QBEPAV?$basic_streambuf@_WU?$char_traits@_W@std@@@2@XZ ENDP ; std::basic_ios<wchar_t,std::char_traits<wchar_t> >::rdbuf
_TEXT	ENDS
PUBLIC	??_7?$basic_istream@DU?$char_traits@D@std@@@std@@6B@ ; std::basic_istream<char,std::char_traits<char> >::`vftable'
PUBLIC	??1?$basic_istream@DU?$char_traits@D@std@@@std@@UAE@XZ ; std::basic_istream<char,std::char_traits<char> >::~basic_istream<char,std::char_traits<char> >
PUBLIC	??_R4?$basic_istream@DU?$char_traits@D@std@@@std@@6B@ ; std::basic_istream<char,std::char_traits<char> >::`RTTI Complete Object Locator'
PUBLIC	??_R0?AV?$basic_istream@DU?$char_traits@D@std@@@std@@@8 ; std::basic_istream<char,std::char_traits<char> > `RTTI Type Descriptor'
PUBLIC	??_R3?$basic_istream@DU?$char_traits@D@std@@@std@@8 ; std::basic_istream<char,std::char_traits<char> >::`RTTI Class Hierarchy Descriptor'
PUBLIC	??_R2?$basic_istream@DU?$char_traits@D@std@@@std@@8 ; std::basic_istream<char,std::char_traits<char> >::`RTTI Base Class Array'
PUBLIC	??_R1A@?0A@EA@?$basic_istream@DU?$char_traits@D@std@@@std@@8 ; std::basic_istream<char,std::char_traits<char> >::`RTTI Base Class Descriptor at (0,-1,0,64)'
EXTRN	??_E?$basic_istream@DU?$char_traits@D@std@@@std@@UAEPAXI@Z:PROC ; std::basic_istream<char,std::char_traits<char> >::`vector deleting destructor'
;	COMDAT ??_R1A@?0A@EA@?$basic_istream@DU?$char_traits@D@std@@@std@@8
; File c:\program files (x86)\microsoft visual studio 9.0\vc\include\istream
rdata$r	SEGMENT
??_R1A@?0A@EA@?$basic_istream@DU?$char_traits@D@std@@@std@@8 DD FLAT:??_R0?AV?$basic_istream@DU?$char_traits@D@std@@@std@@@8 ; std::basic_istream<char,std::char_traits<char> >::`RTTI Base Class Descriptor at (0,-1,0,64)'
	DD	03H
	DD	00H
	DD	0ffffffffH
	DD	00H
	DD	040H
	DD	FLAT:??_R3?$basic_istream@DU?$char_traits@D@std@@@std@@8
rdata$r	ENDS
;	COMDAT ??_R2?$basic_istream@DU?$char_traits@D@std@@@std@@8
rdata$r	SEGMENT
??_R2?$basic_istream@DU?$char_traits@D@std@@@std@@8 DD FLAT:??_R1A@?0A@EA@?$basic_istream@DU?$char_traits@D@std@@@std@@8 ; std::basic_istream<char,std::char_traits<char> >::`RTTI Base Class Array'
	DD	FLAT:??_R1A@A@3FA@?$basic_ios@DU?$char_traits@D@std@@@std@@8
	DD	FLAT:??_R1A@A@3EA@ios_base@std@@8
	DD	FLAT:??_R13A@3EA@?$_Iosb@H@std@@8
rdata$r	ENDS
;	COMDAT ??_R3?$basic_istream@DU?$char_traits@D@std@@@std@@8
rdata$r	SEGMENT
??_R3?$basic_istream@DU?$char_traits@D@std@@@std@@8 DD 00H ; std::basic_istream<char,std::char_traits<char> >::`RTTI Class Hierarchy Descriptor'
	DD	00H
	DD	04H
	DD	FLAT:??_R2?$basic_istream@DU?$char_traits@D@std@@@std@@8
rdata$r	ENDS
;	COMDAT ??_R0?AV?$basic_istream@DU?$char_traits@D@std@@@std@@@8
_DATA	SEGMENT
??_R0?AV?$basic_istream@DU?$char_traits@D@std@@@std@@@8 DD FLAT:??_7type_info@@6B@ ; std::basic_istream<char,std::char_traits<char> > `RTTI Type Descriptor'
	DD	00H
	DB	'.?AV?$basic_istream@DU?$char_traits@D@std@@@std@@', 00H
_DATA	ENDS
;	COMDAT ??_R4?$basic_istream@DU?$char_traits@D@std@@@std@@6B@
rdata$r	SEGMENT
??_R4?$basic_istream@DU?$char_traits@D@std@@@std@@6B@ DD 00H ; std::basic_istream<char,std::char_traits<char> >::`RTTI Complete Object Locator'
	DD	08H
	DD	00H
	DD	FLAT:??_R0?AV?$basic_istream@DU?$char_traits@D@std@@@std@@@8
	DD	FLAT:??_R3?$basic_istream@DU?$char_traits@D@std@@@std@@8
rdata$r	ENDS
;	COMDAT ??_7?$basic_istream@DU?$char_traits@D@std@@@std@@6B@
CONST	SEGMENT
??_7?$basic_istream@DU?$char_traits@D@std@@@std@@6B@ DD FLAT:??_R4?$basic_istream@DU?$char_traits@D@std@@@std@@6B@ ; std::basic_istream<char,std::char_traits<char> >::`vftable'
	DD	FLAT:??_E?$basic_istream@DU?$char_traits@D@std@@@std@@UAEPAXI@Z
; Function compile flags: /Ogtpy
CONST	ENDS
;	COMDAT ??1?$basic_istream@DU?$char_traits@D@std@@@std@@UAE@XZ
_TEXT	SEGMENT
??1?$basic_istream@DU?$char_traits@D@std@@@std@@UAE@XZ PROC ; std::basic_istream<char,std::char_traits<char> >::~basic_istream<char,std::char_traits<char> >, COMDAT
; _this$ = ecx

; 42   : 		{	// destroy the object

  00000	8b 41 f8	 mov	 eax, DWORD PTR [ecx-8]
  00003	8b 50 04	 mov	 edx, DWORD PTR [eax+4]
  00006	c7 44 0a f8 00
	00 00 00	 mov	 DWORD PTR [edx+ecx-8], OFFSET ??_7?$basic_istream@DU?$char_traits@D@std@@@std@@6B@

; 43   : 		}

  0000e	c3		 ret	 0
??1?$basic_istream@DU?$char_traits@D@std@@@std@@UAE@XZ ENDP ; std::basic_istream<char,std::char_traits<char> >::~basic_istream<char,std::char_traits<char> >
_TEXT	ENDS
PUBLIC	??_7?$basic_istream@_WU?$char_traits@_W@std@@@std@@6B@ ; std::basic_istream<wchar_t,std::char_traits<wchar_t> >::`vftable'
PUBLIC	??1?$basic_istream@_WU?$char_traits@_W@std@@@std@@UAE@XZ ; std::basic_istream<wchar_t,std::char_traits<wchar_t> >::~basic_istream<wchar_t,std::char_traits<wchar_t> >
PUBLIC	??_R4?$basic_istream@_WU?$char_traits@_W@std@@@std@@6B@ ; std::basic_istream<wchar_t,std::char_traits<wchar_t> >::`RTTI Complete Object Locator'
PUBLIC	??_R0?AV?$basic_istream@_WU?$char_traits@_W@std@@@std@@@8 ; std::basic_istream<wchar_t,std::char_traits<wchar_t> > `RTTI Type Descriptor'
PUBLIC	??_R3?$basic_istream@_WU?$char_traits@_W@std@@@std@@8 ; std::basic_istream<wchar_t,std::char_traits<wchar_t> >::`RTTI Class Hierarchy Descriptor'
PUBLIC	??_R2?$basic_istream@_WU?$char_traits@_W@std@@@std@@8 ; std::basic_istream<wchar_t,std::char_traits<wchar_t> >::`RTTI Base Class Array'
PUBLIC	??_R1A@?0A@EA@?$basic_istream@_WU?$char_traits@_W@std@@@std@@8 ; std::basic_istream<wchar_t,std::char_traits<wchar_t> >::`RTTI Base Class Descriptor at (0,-1,0,64)'
EXTRN	??_E?$basic_istream@_WU?$char_traits@_W@std@@@std@@UAEPAXI@Z:PROC ; std::basic_istream<wchar_t,std::char_traits<wchar_t> >::`vector deleting destructor'
;	COMDAT ??_R1A@?0A@EA@?$basic_istream@_WU?$char_traits@_W@std@@@std@@8
rdata$r	SEGMENT
??_R1A@?0A@EA@?$basic_istream@_WU?$char_traits@_W@std@@@std@@8 DD FLAT:??_R0?AV?$basic_istream@_WU?$char_traits@_W@std@@@std@@@8 ; std::basic_istream<wchar_t,std::char_traits<wchar_t> >::`RTTI Base Class Descriptor at (0,-1,0,64)'
	DD	03H
	DD	00H
	DD	0ffffffffH
	DD	00H
	DD	040H
	DD	FLAT:??_R3?$basic_istream@_WU?$char_traits@_W@std@@@std@@8
rdata$r	ENDS
;	COMDAT ??_R2?$basic_istream@_WU?$char_traits@_W@std@@@std@@8
rdata$r	SEGMENT
??_R2?$basic_istream@_WU?$char_traits@_W@std@@@std@@8 DD FLAT:??_R1A@?0A@EA@?$basic_istream@_WU?$char_traits@_W@std@@@std@@8 ; std::basic_istream<wchar_t,std::char_traits<wchar_t> >::`RTTI Base Class Array'
	DD	FLAT:??_R1A@A@3FA@?$basic_ios@_WU?$char_traits@_W@std@@@std@@8
	DD	FLAT:??_R1A@A@3EA@ios_base@std@@8
	DD	FLAT:??_R13A@3EA@?$_Iosb@H@std@@8
rdata$r	ENDS
;	COMDAT ??_R3?$basic_istream@_WU?$char_traits@_W@std@@@std@@8
rdata$r	SEGMENT
??_R3?$basic_istream@_WU?$char_traits@_W@std@@@std@@8 DD 00H ; std::basic_istream<wchar_t,std::char_traits<wchar_t> >::`RTTI Class Hierarchy Descriptor'
	DD	00H
	DD	04H
	DD	FLAT:??_R2?$basic_istream@_WU?$char_traits@_W@std@@@std@@8
rdata$r	ENDS
;	COMDAT ??_R0?AV?$basic_istream@_WU?$char_traits@_W@std@@@std@@@8
_DATA	SEGMENT
??_R0?AV?$basic_istream@_WU?$char_traits@_W@std@@@std@@@8 DD FLAT:??_7type_info@@6B@ ; std::basic_istream<wchar_t,std::char_traits<wchar_t> > `RTTI Type Descriptor'
	DD	00H
	DB	'.?AV?$basic_istream@_WU?$char_traits@_W@std@@@std@@', 00H
_DATA	ENDS
;	COMDAT ??_R4?$basic_istream@_WU?$char_traits@_W@std@@@std@@6B@
rdata$r	SEGMENT
??_R4?$basic_istream@_WU?$char_traits@_W@std@@@std@@6B@ DD 00H ; std::basic_istream<wchar_t,std::char_traits<wchar_t> >::`RTTI Complete Object Locator'
	DD	08H
	DD	00H
	DD	FLAT:??_R0?AV?$basic_istream@_WU?$char_traits@_W@std@@@std@@@8
	DD	FLAT:??_R3?$basic_istream@_WU?$char_traits@_W@std@@@std@@8
rdata$r	ENDS
;	COMDAT ??_7?$basic_istream@_WU?$char_traits@_W@std@@@std@@6B@
CONST	SEGMENT
??_7?$basic_istream@_WU?$char_traits@_W@std@@@std@@6B@ DD FLAT:??_R4?$basic_istream@_WU?$char_traits@_W@std@@@std@@6B@ ; std::basic_istream<wchar_t,std::char_traits<wchar_t> >::`vftable'
	DD	FLAT:??_E?$basic_istream@_WU?$char_traits@_W@std@@@std@@UAEPAXI@Z
; Function compile flags: /Ogtpy
CONST	ENDS
;	COMDAT ??1?$basic_istream@_WU?$char_traits@_W@std@@@std@@UAE@XZ
_TEXT	SEGMENT
??1?$basic_istream@_WU?$char_traits@_W@std@@@std@@UAE@XZ PROC ; std::basic_istream<wchar_t,std::char_traits<wchar_t> >::~basic_istream<wchar_t,std::char_traits<wchar_t> >, COMDAT
; _this$ = ecx

; 42   : 		{	// destroy the object

  00000	8b 41 f8	 mov	 eax, DWORD PTR [ecx-8]
  00003	8b 50 04	 mov	 edx, DWORD PTR [eax+4]
  00006	c7 44 0a f8 00
	00 00 00	 mov	 DWORD PTR [edx+ecx-8], OFFSET ??_7?$basic_istream@_WU?$char_traits@_W@std@@@std@@6B@

; 43   : 		}

  0000e	c3		 ret	 0
??1?$basic_istream@_WU?$char_traits@_W@std@@@std@@UAE@XZ ENDP ; std::basic_istream<wchar_t,std::char_traits<wchar_t> >::~basic_istream<wchar_t,std::char_traits<wchar_t> >
_TEXT	ENDS
PUBLIC	??0?$auto_ptr@UGetPinFunctor@CipherShed@@@std@@QAE@PAUGetPinFunctor@CipherShed@@@Z ; std::auto_ptr<CipherShed::GetPinFunctor>::auto_ptr<CipherShed::GetPinFunctor>
; Function compile flags: /Ogtpy
; File c:\program files (x86)\microsoft visual studio 9.0\vc\include\memory
;	COMDAT ??0?$auto_ptr@UGetPinFunctor@CipherShed@@@std@@QAE@PAUGetPinFunctor@CipherShed@@@Z
_TEXT	SEGMENT
__Ptr$ = 8						; size = 4
??0?$auto_ptr@UGetPinFunctor@CipherShed@@@std@@QAE@PAUGetPinFunctor@CipherShed@@@Z PROC ; std::auto_ptr<CipherShed::GetPinFunctor>::auto_ptr<CipherShed::GetPinFunctor>, COMDAT
; _this$ = ecx

; 661  : 		{	// construct from object pointer

  00000	8b c1		 mov	 eax, ecx
  00002	8b 4c 24 04	 mov	 ecx, DWORD PTR __Ptr$[esp-4]
  00006	89 08		 mov	 DWORD PTR [eax], ecx

; 662  : 		}

  00008	c2 04 00	 ret	 4
??0?$auto_ptr@UGetPinFunctor@CipherShed@@@std@@QAE@PAUGetPinFunctor@CipherShed@@@Z ENDP ; std::auto_ptr<CipherShed::GetPinFunctor>::auto_ptr<CipherShed::GetPinFunctor>
_TEXT	ENDS
PUBLIC	??1?$auto_ptr@UGetPinFunctor@CipherShed@@@std@@QAE@XZ ; std::auto_ptr<CipherShed::GetPinFunctor>::~auto_ptr<CipherShed::GetPinFunctor>
; Function compile flags: /Ogtpy
;	COMDAT ??1?$auto_ptr@UGetPinFunctor@CipherShed@@@std@@QAE@XZ
_TEXT	SEGMENT
??1?$auto_ptr@UGetPinFunctor@CipherShed@@@std@@QAE@XZ PROC ; std::auto_ptr<CipherShed::GetPinFunctor>::~auto_ptr<CipherShed::GetPinFunctor>, COMDAT
; _this$ = ecx

; 721  : 		delete _Myptr;

  00000	8b 09		 mov	 ecx, DWORD PTR [ecx]
  00002	85 c9		 test	 ecx, ecx
  00004	74 08		 je	 SHORT $LN3@auto_ptr
  00006	8b 01		 mov	 eax, DWORD PTR [ecx]
  00008	8b 10		 mov	 edx, DWORD PTR [eax]
  0000a	6a 01		 push	 1
  0000c	ff d2		 call	 edx
$LN3@auto_ptr:

; 722  : 		}

  0000e	c3		 ret	 0
??1?$auto_ptr@UGetPinFunctor@CipherShed@@@std@@QAE@XZ ENDP ; std::auto_ptr<CipherShed::GetPinFunctor>::~auto_ptr<CipherShed::GetPinFunctor>
_TEXT	ENDS
PUBLIC	??0?$auto_ptr@USendExceptionFunctor@CipherShed@@@std@@QAE@PAUSendExceptionFunctor@CipherShed@@@Z ; std::auto_ptr<CipherShed::SendExceptionFunctor>::auto_ptr<CipherShed::SendExceptionFunctor>
; Function compile flags: /Ogtpy
;	COMDAT ??0?$auto_ptr@USendExceptionFunctor@CipherShed@@@std@@QAE@PAUSendExceptionFunctor@CipherShed@@@Z
_TEXT	SEGMENT
__Ptr$ = 8						; size = 4
??0?$auto_ptr@USendExceptionFunctor@CipherShed@@@std@@QAE@PAUSendExceptionFunctor@CipherShed@@@Z PROC ; std::auto_ptr<CipherShed::SendExceptionFunctor>::auto_ptr<CipherShed::SendExceptionFunctor>, COMDAT
; _this$ = ecx

; 661  : 		{	// construct from object pointer

  00000	8b c1		 mov	 eax, ecx
  00002	8b 4c 24 04	 mov	 ecx, DWORD PTR __Ptr$[esp-4]
  00006	89 08		 mov	 DWORD PTR [eax], ecx

; 662  : 		}

  00008	c2 04 00	 ret	 4
??0?$auto_ptr@USendExceptionFunctor@CipherShed@@@std@@QAE@PAUSendExceptionFunctor@CipherShed@@@Z ENDP ; std::auto_ptr<CipherShed::SendExceptionFunctor>::auto_ptr<CipherShed::SendExceptionFunctor>
_TEXT	ENDS
PUBLIC	??1?$auto_ptr@USendExceptionFunctor@CipherShed@@@std@@QAE@XZ ; std::auto_ptr<CipherShed::SendExceptionFunctor>::~auto_ptr<CipherShed::SendExceptionFunctor>
; Function compile flags: /Ogtpy
;	COMDAT ??1?$auto_ptr@USendExceptionFunctor@CipherShed@@@std@@QAE@XZ
_TEXT	SEGMENT
??1?$auto_ptr@USendExceptionFunctor@CipherShed@@@std@@QAE@XZ PROC ; std::auto_ptr<CipherShed::SendExceptionFunctor>::~auto_ptr<CipherShed::SendExceptionFunctor>, COMDAT
; _this$ = ecx

; 721  : 		delete _Myptr;

  00000	8b 09		 mov	 ecx, DWORD PTR [ecx]
  00002	85 c9		 test	 ecx, ecx
  00004	74 08		 je	 SHORT $LN3@auto_ptr@2
  00006	8b 01		 mov	 eax, DWORD PTR [ecx]
  00008	8b 10		 mov	 edx, DWORD PTR [eax]
  0000a	6a 01		 push	 1
  0000c	ff d2		 call	 edx
$LN3@auto_ptr@2:

; 722  : 		}

  0000e	c3		 ret	 0
??1?$auto_ptr@USendExceptionFunctor@CipherShed@@@std@@QAE@XZ ENDP ; std::auto_ptr<CipherShed::SendExceptionFunctor>::~auto_ptr<CipherShed::SendExceptionFunctor>
_TEXT	ENDS
PUBLIC	??_7?$basic_iostream@_WU?$char_traits@_W@std@@@std@@6B@ ; std::basic_iostream<wchar_t,std::char_traits<wchar_t> >::`vftable'
PUBLIC	??1?$basic_iostream@_WU?$char_traits@_W@std@@@std@@UAE@XZ ; std::basic_iostream<wchar_t,std::char_traits<wchar_t> >::~basic_iostream<wchar_t,std::char_traits<wchar_t> >
PUBLIC	??_R4?$basic_iostream@_WU?$char_traits@_W@std@@@std@@6B@ ; std::basic_iostream<wchar_t,std::char_traits<wchar_t> >::`RTTI Complete Object Locator'
PUBLIC	??_R0?AV?$basic_iostream@_WU?$char_traits@_W@std@@@std@@@8 ; std::basic_iostream<wchar_t,std::char_traits<wchar_t> > `RTTI Type Descriptor'
PUBLIC	??_R3?$basic_iostream@_WU?$char_traits@_W@std@@@std@@8 ; std::basic_iostream<wchar_t,std::char_traits<wchar_t> >::`RTTI Class Hierarchy Descriptor'
PUBLIC	??_R2?$basic_iostream@_WU?$char_traits@_W@std@@@std@@8 ; std::basic_iostream<wchar_t,std::char_traits<wchar_t> >::`RTTI Base Class Array'
PUBLIC	??_R1A@?0A@EA@?$basic_iostream@_WU?$char_traits@_W@std@@@std@@8 ; std::basic_iostream<wchar_t,std::char_traits<wchar_t> >::`RTTI Base Class Descriptor at (0,-1,0,64)'
PUBLIC	??_R17?0A@EA@?$basic_ostream@_WU?$char_traits@_W@std@@@std@@8 ; std::basic_ostream<wchar_t,std::char_traits<wchar_t> >::`RTTI Base Class Descriptor at (8,-1,0,64)'
EXTRN	??_E?$basic_iostream@_WU?$char_traits@_W@std@@@std@@UAEPAXI@Z:PROC ; std::basic_iostream<wchar_t,std::char_traits<wchar_t> >::`vector deleting destructor'
;	COMDAT ??_R17?0A@EA@?$basic_ostream@_WU?$char_traits@_W@std@@@std@@8
; File c:\program files (x86)\microsoft visual studio 9.0\vc\include\istream
rdata$r	SEGMENT
??_R17?0A@EA@?$basic_ostream@_WU?$char_traits@_W@std@@@std@@8 DD FLAT:??_R0?AV?$basic_ostream@_WU?$char_traits@_W@std@@@std@@@8 ; std::basic_ostream<wchar_t,std::char_traits<wchar_t> >::`RTTI Base Class Descriptor at (8,-1,0,64)'
	DD	03H
	DD	08H
	DD	0ffffffffH
	DD	00H
	DD	040H
	DD	FLAT:??_R3?$basic_ostream@_WU?$char_traits@_W@std@@@std@@8
rdata$r	ENDS
;	COMDAT ??_R1A@?0A@EA@?$basic_iostream@_WU?$char_traits@_W@std@@@std@@8
rdata$r	SEGMENT
??_R1A@?0A@EA@?$basic_iostream@_WU?$char_traits@_W@std@@@std@@8 DD FLAT:??_R0?AV?$basic_iostream@_WU?$char_traits@_W@std@@@std@@@8 ; std::basic_iostream<wchar_t,std::char_traits<wchar_t> >::`RTTI Base Class Descriptor at (0,-1,0,64)'
	DD	08H
	DD	00H
	DD	0ffffffffH
	DD	00H
	DD	040H
	DD	FLAT:??_R3?$basic_iostream@_WU?$char_traits@_W@std@@@std@@8
rdata$r	ENDS
;	COMDAT ??_R2?$basic_iostream@_WU?$char_traits@_W@std@@@std@@8
rdata$r	SEGMENT
??_R2?$basic_iostream@_WU?$char_traits@_W@std@@@std@@8 DD FLAT:??_R1A@?0A@EA@?$basic_iostream@_WU?$char_traits@_W@std@@@std@@8 ; std::basic_iostream<wchar_t,std::char_traits<wchar_t> >::`RTTI Base Class Array'
	DD	FLAT:??_R1A@?0A@EA@?$basic_istream@_WU?$char_traits@_W@std@@@std@@8
	DD	FLAT:??_R1A@A@3FA@?$basic_ios@_WU?$char_traits@_W@std@@@std@@8
	DD	FLAT:??_R1A@A@3EA@ios_base@std@@8
	DD	FLAT:??_R13A@3EA@?$_Iosb@H@std@@8
	DD	FLAT:??_R17?0A@EA@?$basic_ostream@_WU?$char_traits@_W@std@@@std@@8
	DD	FLAT:??_R1A@A@3FA@?$basic_ios@_WU?$char_traits@_W@std@@@std@@8
	DD	FLAT:??_R1A@A@3EA@ios_base@std@@8
	DD	FLAT:??_R13A@3EA@?$_Iosb@H@std@@8
rdata$r	ENDS
;	COMDAT ??_R3?$basic_iostream@_WU?$char_traits@_W@std@@@std@@8
rdata$r	SEGMENT
??_R3?$basic_iostream@_WU?$char_traits@_W@std@@@std@@8 DD 00H ; std::basic_iostream<wchar_t,std::char_traits<wchar_t> >::`RTTI Class Hierarchy Descriptor'
	DD	03H
	DD	09H
	DD	FLAT:??_R2?$basic_iostream@_WU?$char_traits@_W@std@@@std@@8
rdata$r	ENDS
;	COMDAT ??_R0?AV?$basic_iostream@_WU?$char_traits@_W@std@@@std@@@8
_DATA	SEGMENT
??_R0?AV?$basic_iostream@_WU?$char_traits@_W@std@@@std@@@8 DD FLAT:??_7type_info@@6B@ ; std::basic_iostream<wchar_t,std::char_traits<wchar_t> > `RTTI Type Descriptor'
	DD	00H
	DB	'.?AV?$basic_iostream@_WU?$char_traits@_W@std@@@std@@', 00H
_DATA	ENDS
;	COMDAT ??_R4?$basic_iostream@_WU?$char_traits@_W@std@@@std@@6B@
rdata$r	SEGMENT
??_R4?$basic_iostream@_WU?$char_traits@_W@std@@@std@@6B@ DD 00H ; std::basic_iostream<wchar_t,std::char_traits<wchar_t> >::`RTTI Complete Object Locator'
	DD	0cH
	DD	00H
	DD	FLAT:??_R0?AV?$basic_iostream@_WU?$char_traits@_W@std@@@std@@@8
	DD	FLAT:??_R3?$basic_iostream@_WU?$char_traits@_W@std@@@std@@8
rdata$r	ENDS
;	COMDAT ??_7?$basic_iostream@_WU?$char_traits@_W@std@@@std@@6B@
CONST	SEGMENT
??_7?$basic_iostream@_WU?$char_traits@_W@std@@@std@@6B@ DD FLAT:??_R4?$basic_iostream@_WU?$char_traits@_W@std@@@std@@6B@ ; std::basic_iostream<wchar_t,std::char_traits<wchar_t> >::`vftable'
	DD	FLAT:??_E?$basic_iostream@_WU?$char_traits@_W@std@@@std@@UAEPAXI@Z
; Function compile flags: /Ogtpy
CONST	ENDS
;	COMDAT ??1?$basic_iostream@_WU?$char_traits@_W@std@@@std@@UAE@XZ
_TEXT	SEGMENT
??1?$basic_iostream@_WU?$char_traits@_W@std@@@std@@UAE@XZ PROC ; std::basic_iostream<wchar_t,std::char_traits<wchar_t> >::~basic_iostream<wchar_t,std::char_traits<wchar_t> >, COMDAT
; _this$ = ecx

; 918  : 		{	// destroy the object

  00000	8b 41 f4	 mov	 eax, DWORD PTR [ecx-12]
  00003	8b 50 04	 mov	 edx, DWORD PTR [eax+4]
  00006	c7 44 0a f4 00
	00 00 00	 mov	 DWORD PTR [edx+ecx-12], OFFSET ??_7?$basic_iostream@_WU?$char_traits@_W@std@@@std@@6B@

; 919  : 		}

  0000e	8b 41 fc	 mov	 eax, DWORD PTR [ecx-4]
  00011	8b 50 04	 mov	 edx, DWORD PTR [eax+4]
  00014	c7 44 0a fc 00
	00 00 00	 mov	 DWORD PTR [edx+ecx-4], OFFSET ??_7?$basic_ostream@_WU?$char_traits@_W@std@@@std@@6B@
  0001c	8b 41 f4	 mov	 eax, DWORD PTR [ecx-12]
  0001f	8b 50 04	 mov	 edx, DWORD PTR [eax+4]
  00022	c7 44 0a f4 00
	00 00 00	 mov	 DWORD PTR [edx+ecx-12], OFFSET ??_7?$basic_istream@_WU?$char_traits@_W@std@@@std@@6B@
  0002a	c3		 ret	 0
??1?$basic_iostream@_WU?$char_traits@_W@std@@@std@@UAE@XZ ENDP ; std::basic_iostream<wchar_t,std::char_traits<wchar_t> >::~basic_iostream<wchar_t,std::char_traits<wchar_t> >
_TEXT	ENDS
PUBLIC	??8const_iterator@?$_Tree@V?$_Tmap_traits@KUPkcs11Session@CipherShed@@U?$less@K@std@@V?$allocator@U?$pair@$$CBKUPkcs11Session@CipherShed@@@std@@@4@$0A@@std@@@std@@QBE_NABV012@@Z ; std::_Tree<std::_Tmap_traits<unsigned long,CipherShed::Pkcs11Session,std::less<unsigned long>,std::allocator<std::pair<unsigned long const ,CipherShed::Pkcs11Session> >,0> >::const_iterator::operator==
EXTRN	__invalid_parameter_noinfo:PROC
; Function compile flags: /Ogtpy
; File c:\program files (x86)\microsoft visual studio 9.0\vc\include\xtree
;	COMDAT ??8const_iterator@?$_Tree@V?$_Tmap_traits@KUPkcs11Session@CipherShed@@U?$less@K@std@@V?$allocator@U?$pair@$$CBKUPkcs11Session@CipherShed@@@std@@@4@$0A@@std@@@std@@QBE_NABV012@@Z
_TEXT	SEGMENT
__Right$ = 8						; size = 4
??8const_iterator@?$_Tree@V?$_Tmap_traits@KUPkcs11Session@CipherShed@@U?$less@K@std@@V?$allocator@U?$pair@$$CBKUPkcs11Session@CipherShed@@@std@@@4@$0A@@std@@@std@@QBE_NABV012@@Z PROC ; std::_Tree<std::_Tmap_traits<unsigned long,CipherShed::Pkcs11Session,std::less<unsigned long>,std::allocator<std::pair<unsigned long const ,CipherShed::Pkcs11Session> >,0> >::const_iterator::operator==, COMDAT
; _this$ = ecx

; 299  : 			{	// test for iterator equality

  00000	56		 push	 esi
  00001	8b f1		 mov	 esi, ecx

; 300  : 
; 301  :  #if _HAS_ITERATOR_DEBUGGING
; 302  : 			if (this->_Mycont == 0 || this->_Mycont != _Right._Mycont)
; 303  : 				{
; 304  : 				_DEBUG_ERROR("map/set iterators incompatible");
; 305  : 				_SCL_SECURE_INVALID_ARGUMENT;
; 306  : 				}
; 307  :  #else
; 308  : 			_SCL_SECURE_VALIDATE(this->_Has_container() && this->_Same_container(_Right));

  00003	8b 06		 mov	 eax, DWORD PTR [esi]
  00005	57		 push	 edi
  00006	8b 7c 24 0c	 mov	 edi, DWORD PTR __Right$[esp+4]
  0000a	85 c0		 test	 eax, eax
  0000c	74 04		 je	 SHORT $LN1@operator@3
  0000e	3b 07		 cmp	 eax, DWORD PTR [edi]
  00010	74 05		 je	 SHORT $LN2@operator@3
$LN1@operator@3:
  00012	e8 00 00 00 00	 call	 __invalid_parameter_noinfo
$LN2@operator@3:

; 309  :  #endif /* _HAS_ITERATOR_DEBUGGING */
; 310  : 
; 311  : 			return (_Ptr == _Right._Ptr);

  00017	8b 46 04	 mov	 eax, DWORD PTR [esi+4]
  0001a	33 c9		 xor	 ecx, ecx
  0001c	3b 47 04	 cmp	 eax, DWORD PTR [edi+4]
  0001f	5f		 pop	 edi
  00020	0f 94 c1	 sete	 cl
  00023	8a c1		 mov	 al, cl
  00025	5e		 pop	 esi

; 312  : 			}

  00026	c2 04 00	 ret	 4
??8const_iterator@?$_Tree@V?$_Tmap_traits@KUPkcs11Session@CipherShed@@U?$less@K@std@@V?$allocator@U?$pair@$$CBKUPkcs11Session@CipherShed@@@std@@@4@$0A@@std@@@std@@QBE_NABV012@@Z ENDP ; std::_Tree<std::_Tmap_traits<unsigned long,CipherShed::Pkcs11Session,std::less<unsigned long>,std::allocator<std::pair<unsigned long const ,CipherShed::Pkcs11Session> >,0> >::const_iterator::operator==
_TEXT	ENDS
PUBLIC	??9const_iterator@?$_Tree@V?$_Tmap_traits@KUPkcs11Session@CipherShed@@U?$less@K@std@@V?$allocator@U?$pair@$$CBKUPkcs11Session@CipherShed@@@std@@@4@$0A@@std@@@std@@QBE_NABV012@@Z ; std::_Tree<std::_Tmap_traits<unsigned long,CipherShed::Pkcs11Session,std::less<unsigned long>,std::allocator<std::pair<unsigned long const ,CipherShed::Pkcs11Session> >,0> >::const_iterator::operator!=
; Function compile flags: /Ogtpy
;	COMDAT ??9const_iterator@?$_Tree@V?$_Tmap_traits@KUPkcs11Session@CipherShed@@U?$less@K@std@@V?$allocator@U?$pair@$$CBKUPkcs11Session@CipherShed@@@std@@@4@$0A@@std@@@std@@QBE_NABV012@@Z
_TEXT	SEGMENT
__Right$ = 8						; size = 4
??9const_iterator@?$_Tree@V?$_Tmap_traits@KUPkcs11Session@CipherShed@@U?$less@K@std@@V?$allocator@U?$pair@$$CBKUPkcs11Session@CipherShed@@@std@@@4@$0A@@std@@@std@@QBE_NABV012@@Z PROC ; std::_Tree<std::_Tmap_traits<unsigned long,CipherShed::Pkcs11Session,std::less<unsigned long>,std::allocator<std::pair<unsigned long const ,CipherShed::Pkcs11Session> >,0> >::const_iterator::operator!=, COMDAT
; _this$ = ecx

; 315  : 			{	// test for iterator inequality

  00000	56		 push	 esi
  00001	8b f1		 mov	 esi, ecx

; 316  : 			return (!(*this == _Right));

  00003	8b 06		 mov	 eax, DWORD PTR [esi]
  00005	57		 push	 edi
  00006	8b 7c 24 0c	 mov	 edi, DWORD PTR __Right$[esp+4]
  0000a	85 c0		 test	 eax, eax
  0000c	74 04		 je	 SHORT $LN3@operator@4
  0000e	3b 07		 cmp	 eax, DWORD PTR [edi]
  00010	74 05		 je	 SHORT $LN4@operator@4
$LN3@operator@4:
  00012	e8 00 00 00 00	 call	 __invalid_parameter_noinfo
$LN4@operator@4:
  00017	8b 46 04	 mov	 eax, DWORD PTR [esi+4]
  0001a	33 c9		 xor	 ecx, ecx
  0001c	3b 47 04	 cmp	 eax, DWORD PTR [edi+4]
  0001f	5f		 pop	 edi
  00020	0f 95 c1	 setne	 cl
  00023	8a c1		 mov	 al, cl
  00025	5e		 pop	 esi

; 317  : 			}

  00026	c2 04 00	 ret	 4
??9const_iterator@?$_Tree@V?$_Tmap_traits@KUPkcs11Session@CipherShed@@U?$less@K@std@@V?$allocator@U?$pair@$$CBKUPkcs11Session@CipherShed@@@std@@@4@$0A@@std@@@std@@QBE_NABV012@@Z ENDP ; std::_Tree<std::_Tmap_traits<unsigned long,CipherShed::Pkcs11Session,std::less<unsigned long>,std::allocator<std::pair<unsigned long const ,CipherShed::Pkcs11Session> >,0> >::const_iterator::operator!=
_TEXT	ENDS
PUBLIC	??D?$_Vector_const_iterator@USecurityTokenKeyfile@CipherShed@@V?$allocator@USecurityTokenKeyfile@CipherShed@@@std@@@std@@QBEABUSecurityTokenKeyfile@CipherShed@@XZ ; std::_Vector_const_iterator<CipherShed::SecurityTokenKeyfile,std::allocator<CipherShed::SecurityTokenKeyfile> >::operator*
; Function compile flags: /Ogtpy
; File c:\program files (x86)\microsoft visual studio 9.0\vc\include\vector
;	COMDAT ??D?$_Vector_const_iterator@USecurityTokenKeyfile@CipherShed@@V?$allocator@USecurityTokenKeyfile@CipherShed@@@std@@@std@@QBEABUSecurityTokenKeyfile@CipherShed@@XZ
_TEXT	SEGMENT
??D?$_Vector_const_iterator@USecurityTokenKeyfile@CipherShed@@V?$allocator@USecurityTokenKeyfile@CipherShed@@@std@@@std@@QBEABUSecurityTokenKeyfile@CipherShed@@XZ PROC ; std::_Vector_const_iterator<CipherShed::SecurityTokenKeyfile,std::allocator<CipherShed::SecurityTokenKeyfile> >::operator*, COMDAT
; _this$ = ecx

; 91   : 		{	// return designated object

  00000	56		 push	 esi
  00001	8b f1		 mov	 esi, ecx

; 92   : 
; 93   :  #if _HAS_ITERATOR_DEBUGGING
; 94   : 		if (this->_Mycont == 0
; 95   : 			|| _Myptr < ((_Myvec *)this->_Mycont)->_Myfirst
; 96   : 			|| ((_Myvec *)this->_Mycont)->_Mylast <= _Myptr)
; 97   : 			{
; 98   : 			_DEBUG_ERROR("vector iterator not dereferencable");
; 99   : 			_SCL_SECURE_OUT_OF_RANGE;
; 100  : 			}
; 101  :  #else
; 102  :  		_SCL_SECURE_VALIDATE(this->_Has_container());

  00003	8b 06		 mov	 eax, DWORD PTR [esi]
  00005	85 c0		 test	 eax, eax
  00007	75 0b		 jne	 SHORT $LN13@operator@5
  00009	e8 00 00 00 00	 call	 __invalid_parameter_noinfo

; 103  : 		_SCL_SECURE_VALIDATE_RANGE(_Myptr < ((_Myvec *)(this->_Getmycont()))->_Mylast);

  0000e	8b 06		 mov	 eax, DWORD PTR [esi]
  00010	85 c0		 test	 eax, eax
  00012	74 04		 je	 SHORT $LN9@operator@5
$LN13@operator@5:
  00014	8b 00		 mov	 eax, DWORD PTR [eax]
  00016	eb 02		 jmp	 SHORT $LN10@operator@5
$LN9@operator@5:
  00018	33 c0		 xor	 eax, eax
$LN10@operator@5:
  0001a	8b 4e 04	 mov	 ecx, DWORD PTR [esi+4]
  0001d	3b 48 10	 cmp	 ecx, DWORD PTR [eax+16]
  00020	72 0a		 jb	 SHORT $LN14@operator@5
  00022	e8 00 00 00 00	 call	 __invalid_parameter_noinfo

; 104  :  #endif /* _HAS_ITERATOR_DEBUGGING */
; 105  : 
; 106  : 		return (*_Myptr);

  00027	8b 46 04	 mov	 eax, DWORD PTR [esi+4]
  0002a	5e		 pop	 esi

; 107  : 		}

  0002b	c3		 ret	 0
$LN14@operator@5:

; 104  :  #endif /* _HAS_ITERATOR_DEBUGGING */
; 105  : 
; 106  : 		return (*_Myptr);

  0002c	8b c1		 mov	 eax, ecx
  0002e	5e		 pop	 esi

; 107  : 		}

  0002f	c3		 ret	 0
??D?$_Vector_const_iterator@USecurityTokenKeyfile@CipherShed@@V?$allocator@USecurityTokenKeyfile@CipherShed@@@std@@@std@@QBEABUSecurityTokenKeyfile@CipherShed@@XZ ENDP ; std::_Vector_const_iterator<CipherShed::SecurityTokenKeyfile,std::allocator<CipherShed::SecurityTokenKeyfile> >::operator*
_TEXT	ENDS
PUBLIC	?size@?$vector@EV?$allocator@E@std@@@std@@QBEIXZ ; std::vector<unsigned char,std::allocator<unsigned char> >::size
; Function compile flags: /Ogtpy
;	COMDAT ?size@?$vector@EV?$allocator@E@std@@@std@@QBEIXZ
_TEXT	SEGMENT
?size@?$vector@EV?$allocator@E@std@@@std@@QBEIXZ PROC	; std::vector<unsigned char,std::allocator<unsigned char> >::size, COMDAT
; _this$ = ecx

; 726  : 		return (_Mylast - _Myfirst);

  00000	8b 41 10	 mov	 eax, DWORD PTR [ecx+16]
  00003	2b 41 0c	 sub	 eax, DWORD PTR [ecx+12]

; 727  : 		}

  00006	c3		 ret	 0
?size@?$vector@EV?$allocator@E@std@@@std@@QBEIXZ ENDP	; std::vector<unsigned char,std::allocator<unsigned char> >::size
_TEXT	ENDS
PUBLIC	?empty@?$vector@EV?$allocator@E@std@@@std@@QBE_NXZ ; std::vector<unsigned char,std::allocator<unsigned char> >::empty
; Function compile flags: /Ogtpy
;	COMDAT ?empty@?$vector@EV?$allocator@E@std@@@std@@QBE_NXZ
_TEXT	SEGMENT
?empty@?$vector@EV?$allocator@E@std@@@std@@QBE_NXZ PROC	; std::vector<unsigned char,std::allocator<unsigned char> >::empty, COMDAT
; _this$ = ecx

; 736  : 		return (size() == 0);

  00000	8b 41 10	 mov	 eax, DWORD PTR [ecx+16]
  00003	2b 41 0c	 sub	 eax, DWORD PTR [ecx+12]
  00006	f7 d8		 neg	 eax
  00008	1b c0		 sbb	 eax, eax
  0000a	40		 inc	 eax

; 737  : 		}

  0000b	c3		 ret	 0
?empty@?$vector@EV?$allocator@E@std@@@std@@QBE_NXZ ENDP	; std::vector<unsigned char,std::allocator<unsigned char> >::empty
_TEXT	ENDS
PUBLIC	??D?$_Vector_const_iterator@KV?$allocator@K@std@@@std@@QBEABKXZ ; std::_Vector_const_iterator<unsigned long,std::allocator<unsigned long> >::operator*
; Function compile flags: /Ogtpy
;	COMDAT ??D?$_Vector_const_iterator@KV?$allocator@K@std@@@std@@QBEABKXZ
_TEXT	SEGMENT
??D?$_Vector_const_iterator@KV?$allocator@K@std@@@std@@QBEABKXZ PROC ; std::_Vector_const_iterator<unsigned long,std::allocator<unsigned long> >::operator*, COMDAT
; _this$ = ecx

; 91   : 		{	// return designated object

  00000	56		 push	 esi
  00001	8b f1		 mov	 esi, ecx

; 92   : 
; 93   :  #if _HAS_ITERATOR_DEBUGGING
; 94   : 		if (this->_Mycont == 0
; 95   : 			|| _Myptr < ((_Myvec *)this->_Mycont)->_Myfirst
; 96   : 			|| ((_Myvec *)this->_Mycont)->_Mylast <= _Myptr)
; 97   : 			{
; 98   : 			_DEBUG_ERROR("vector iterator not dereferencable");
; 99   : 			_SCL_SECURE_OUT_OF_RANGE;
; 100  : 			}
; 101  :  #else
; 102  :  		_SCL_SECURE_VALIDATE(this->_Has_container());

  00003	8b 06		 mov	 eax, DWORD PTR [esi]
  00005	85 c0		 test	 eax, eax
  00007	75 0b		 jne	 SHORT $LN13@operator@6
  00009	e8 00 00 00 00	 call	 __invalid_parameter_noinfo

; 103  : 		_SCL_SECURE_VALIDATE_RANGE(_Myptr < ((_Myvec *)(this->_Getmycont()))->_Mylast);

  0000e	8b 06		 mov	 eax, DWORD PTR [esi]
  00010	85 c0		 test	 eax, eax
  00012	74 04		 je	 SHORT $LN9@operator@6
$LN13@operator@6:
  00014	8b 00		 mov	 eax, DWORD PTR [eax]
  00016	eb 02		 jmp	 SHORT $LN10@operator@6
$LN9@operator@6:
  00018	33 c0		 xor	 eax, eax
$LN10@operator@6:
  0001a	8b 4e 04	 mov	 ecx, DWORD PTR [esi+4]
  0001d	3b 48 10	 cmp	 ecx, DWORD PTR [eax+16]
  00020	72 0a		 jb	 SHORT $LN14@operator@6
  00022	e8 00 00 00 00	 call	 __invalid_parameter_noinfo

; 104  :  #endif /* _HAS_ITERATOR_DEBUGGING */
; 105  : 
; 106  : 		return (*_Myptr);

  00027	8b 46 04	 mov	 eax, DWORD PTR [esi+4]
  0002a	5e		 pop	 esi

; 107  : 		}

  0002b	c3		 ret	 0
$LN14@operator@6:

; 104  :  #endif /* _HAS_ITERATOR_DEBUGGING */
; 105  : 
; 106  : 		return (*_Myptr);

  0002c	8b c1		 mov	 eax, ecx
  0002e	5e		 pop	 esi

; 107  : 		}

  0002f	c3		 ret	 0
??D?$_Vector_const_iterator@KV?$allocator@K@std@@@std@@QBEABKXZ ENDP ; std::_Vector_const_iterator<unsigned long,std::allocator<unsigned long> >::operator*
_TEXT	ENDS
PUBLIC	?empty@?$list@USecurityTokenInfo@CipherShed@@V?$allocator@USecurityTokenInfo@CipherShed@@@std@@@std@@QBE_NXZ ; std::list<CipherShed::SecurityTokenInfo,std::allocator<CipherShed::SecurityTokenInfo> >::empty
; Function compile flags: /Ogtpy
; File c:\program files (x86)\microsoft visual studio 9.0\vc\include\list
;	COMDAT ?empty@?$list@USecurityTokenInfo@CipherShed@@V?$allocator@USecurityTokenInfo@CipherShed@@@std@@@std@@QBE_NXZ
_TEXT	SEGMENT
?empty@?$list@USecurityTokenInfo@CipherShed@@V?$allocator@USecurityTokenInfo@CipherShed@@@std@@@std@@QBE_NXZ PROC ; std::list<CipherShed::SecurityTokenInfo,std::allocator<CipherShed::SecurityTokenInfo> >::empty, COMDAT
; _this$ = ecx

; 630  : 		return (_Mysize == 0);

  00000	33 c0		 xor	 eax, eax
  00002	39 41 18	 cmp	 DWORD PTR [ecx+24], eax
  00005	0f 94 c0	 sete	 al

; 631  : 		}

  00008	c3		 ret	 0
?empty@?$list@USecurityTokenInfo@CipherShed@@V?$allocator@USecurityTokenInfo@CipherShed@@@std@@@std@@QBE_NXZ ENDP ; std::list<CipherShed::SecurityTokenInfo,std::allocator<CipherShed::SecurityTokenInfo> >::empty
_TEXT	ENDS
PUBLIC	??_7?$basic_iostream@DU?$char_traits@D@std@@@std@@6B@ ; std::basic_iostream<char,std::char_traits<char> >::`vftable'
PUBLIC	??1?$basic_iostream@DU?$char_traits@D@std@@@std@@UAE@XZ ; std::basic_iostream<char,std::char_traits<char> >::~basic_iostream<char,std::char_traits<char> >
PUBLIC	??_R4?$basic_iostream@DU?$char_traits@D@std@@@std@@6B@ ; std::basic_iostream<char,std::char_traits<char> >::`RTTI Complete Object Locator'
PUBLIC	??_R0?AV?$basic_iostream@DU?$char_traits@D@std@@@std@@@8 ; std::basic_iostream<char,std::char_traits<char> > `RTTI Type Descriptor'
PUBLIC	??_R3?$basic_iostream@DU?$char_traits@D@std@@@std@@8 ; std::basic_iostream<char,std::char_traits<char> >::`RTTI Class Hierarchy Descriptor'
PUBLIC	??_R2?$basic_iostream@DU?$char_traits@D@std@@@std@@8 ; std::basic_iostream<char,std::char_traits<char> >::`RTTI Base Class Array'
PUBLIC	??_R1A@?0A@EA@?$basic_iostream@DU?$char_traits@D@std@@@std@@8 ; std::basic_iostream<char,std::char_traits<char> >::`RTTI Base Class Descriptor at (0,-1,0,64)'
PUBLIC	??_R17?0A@EA@?$basic_ostream@DU?$char_traits@D@std@@@std@@8 ; std::basic_ostream<char,std::char_traits<char> >::`RTTI Base Class Descriptor at (8,-1,0,64)'
EXTRN	??_E?$basic_iostream@DU?$char_traits@D@std@@@std@@UAEPAXI@Z:PROC ; std::basic_iostream<char,std::char_traits<char> >::`vector deleting destructor'
;	COMDAT ??_R17?0A@EA@?$basic_ostream@DU?$char_traits@D@std@@@std@@8
; File c:\program files (x86)\microsoft visual studio 9.0\vc\include\istream
rdata$r	SEGMENT
??_R17?0A@EA@?$basic_ostream@DU?$char_traits@D@std@@@std@@8 DD FLAT:??_R0?AV?$basic_ostream@DU?$char_traits@D@std@@@std@@@8 ; std::basic_ostream<char,std::char_traits<char> >::`RTTI Base Class Descriptor at (8,-1,0,64)'
	DD	03H
	DD	08H
	DD	0ffffffffH
	DD	00H
	DD	040H
	DD	FLAT:??_R3?$basic_ostream@DU?$char_traits@D@std@@@std@@8
rdata$r	ENDS
;	COMDAT ??_R1A@?0A@EA@?$basic_iostream@DU?$char_traits@D@std@@@std@@8
rdata$r	SEGMENT
??_R1A@?0A@EA@?$basic_iostream@DU?$char_traits@D@std@@@std@@8 DD FLAT:??_R0?AV?$basic_iostream@DU?$char_traits@D@std@@@std@@@8 ; std::basic_iostream<char,std::char_traits<char> >::`RTTI Base Class Descriptor at (0,-1,0,64)'
	DD	08H
	DD	00H
	DD	0ffffffffH
	DD	00H
	DD	040H
	DD	FLAT:??_R3?$basic_iostream@DU?$char_traits@D@std@@@std@@8
rdata$r	ENDS
;	COMDAT ??_R2?$basic_iostream@DU?$char_traits@D@std@@@std@@8
rdata$r	SEGMENT
??_R2?$basic_iostream@DU?$char_traits@D@std@@@std@@8 DD FLAT:??_R1A@?0A@EA@?$basic_iostream@DU?$char_traits@D@std@@@std@@8 ; std::basic_iostream<char,std::char_traits<char> >::`RTTI Base Class Array'
	DD	FLAT:??_R1A@?0A@EA@?$basic_istream@DU?$char_traits@D@std@@@std@@8
	DD	FLAT:??_R1A@A@3FA@?$basic_ios@DU?$char_traits@D@std@@@std@@8
	DD	FLAT:??_R1A@A@3EA@ios_base@std@@8
	DD	FLAT:??_R13A@3EA@?$_Iosb@H@std@@8
	DD	FLAT:??_R17?0A@EA@?$basic_ostream@DU?$char_traits@D@std@@@std@@8
	DD	FLAT:??_R1A@A@3FA@?$basic_ios@DU?$char_traits@D@std@@@std@@8
	DD	FLAT:??_R1A@A@3EA@ios_base@std@@8
	DD	FLAT:??_R13A@3EA@?$_Iosb@H@std@@8
rdata$r	ENDS
;	COMDAT ??_R3?$basic_iostream@DU?$char_traits@D@std@@@std@@8
rdata$r	SEGMENT
??_R3?$basic_iostream@DU?$char_traits@D@std@@@std@@8 DD 00H ; std::basic_iostream<char,std::char_traits<char> >::`RTTI Class Hierarchy Descriptor'
	DD	03H
	DD	09H
	DD	FLAT:??_R2?$basic_iostream@DU?$char_traits@D@std@@@std@@8
rdata$r	ENDS
;	COMDAT ??_R0?AV?$basic_iostream@DU?$char_traits@D@std@@@std@@@8
_DATA	SEGMENT
??_R0?AV?$basic_iostream@DU?$char_traits@D@std@@@std@@@8 DD FLAT:??_7type_info@@6B@ ; std::basic_iostream<char,std::char_traits<char> > `RTTI Type Descriptor'
	DD	00H
	DB	'.?AV?$basic_iostream@DU?$char_traits@D@std@@@std@@', 00H
_DATA	ENDS
;	COMDAT ??_R4?$basic_iostream@DU?$char_traits@D@std@@@std@@6B@
rdata$r	SEGMENT
??_R4?$basic_iostream@DU?$char_traits@D@std@@@std@@6B@ DD 00H ; std::basic_iostream<char,std::char_traits<char> >::`RTTI Complete Object Locator'
	DD	0cH
	DD	00H
	DD	FLAT:??_R0?AV?$basic_iostream@DU?$char_traits@D@std@@@std@@@8
	DD	FLAT:??_R3?$basic_iostream@DU?$char_traits@D@std@@@std@@8
rdata$r	ENDS
;	COMDAT ??_7?$basic_iostream@DU?$char_traits@D@std@@@std@@6B@
CONST	SEGMENT
??_7?$basic_iostream@DU?$char_traits@D@std@@@std@@6B@ DD FLAT:??_R4?$basic_iostream@DU?$char_traits@D@std@@@std@@6B@ ; std::basic_iostream<char,std::char_traits<char> >::`vftable'
	DD	FLAT:??_E?$basic_iostream@DU?$char_traits@D@std@@@std@@UAEPAXI@Z
; Function compile flags: /Ogtpy
CONST	ENDS
;	COMDAT ??1?$basic_iostream@DU?$char_traits@D@std@@@std@@UAE@XZ
_TEXT	SEGMENT
??1?$basic_iostream@DU?$char_traits@D@std@@@std@@UAE@XZ PROC ; std::basic_iostream<char,std::char_traits<char> >::~basic_iostream<char,std::char_traits<char> >, COMDAT
; _this$ = ecx

; 918  : 		{	// destroy the object

  00000	8b 41 f4	 mov	 eax, DWORD PTR [ecx-12]
  00003	8b 50 04	 mov	 edx, DWORD PTR [eax+4]
  00006	c7 44 0a f4 00
	00 00 00	 mov	 DWORD PTR [edx+ecx-12], OFFSET ??_7?$basic_iostream@DU?$char_traits@D@std@@@std@@6B@

; 919  : 		}

  0000e	8b 41 fc	 mov	 eax, DWORD PTR [ecx-4]
  00011	8b 50 04	 mov	 edx, DWORD PTR [eax+4]
  00014	c7 44 0a fc 00
	00 00 00	 mov	 DWORD PTR [edx+ecx-4], OFFSET ??_7?$basic_ostream@DU?$char_traits@D@std@@@std@@6B@
  0001c	8b 41 f4	 mov	 eax, DWORD PTR [ecx-12]
  0001f	8b 50 04	 mov	 edx, DWORD PTR [eax+4]
  00022	c7 44 0a f4 00
	00 00 00	 mov	 DWORD PTR [edx+ecx-12], OFFSET ??_7?$basic_istream@DU?$char_traits@D@std@@@std@@6B@
  0002a	c3		 ret	 0
??1?$basic_iostream@DU?$char_traits@D@std@@@std@@UAE@XZ ENDP ; std::basic_iostream<char,std::char_traits<char> >::~basic_iostream<char,std::char_traits<char> >
_TEXT	ENDS
PUBLIC	??_Glocale@std@@QAEPAXI@Z			; std::locale::`scalar deleting destructor'
; Function compile flags: /Ogtpy
;	COMDAT ??_Glocale@std@@QAEPAXI@Z
_TEXT	SEGMENT
__Lock$137555 = -4					; size = 4
___flags$ = 8						; size = 4
??_Glocale@std@@QAEPAXI@Z PROC				; std::locale::`scalar deleting destructor', COMDAT
; _this$ = ecx
  00000	51		 push	 ecx
  00001	53		 push	 ebx
  00002	8b d9		 mov	 ebx, ecx
  00004	57		 push	 edi
  00005	8b 3b		 mov	 edi, DWORD PTR [ebx]
  00007	85 ff		 test	 edi, edi
  00009	74 3f		 je	 SHORT $LN7@scalar@6
  0000b	6a 00		 push	 0
  0000d	8d 4c 24 0c	 lea	 ecx, DWORD PTR __Lock$137555[esp+16]
  00011	e8 00 00 00 00	 call	 ??0_Lockit@std@@QAE@H@Z	; std::_Lockit::_Lockit
  00016	8b 47 04	 mov	 eax, DWORD PTR [edi+4]
  00019	85 c0		 test	 eax, eax
  0001b	76 09		 jbe	 SHORT $LN9@scalar@6
  0001d	83 f8 ff	 cmp	 eax, -1
  00020	73 04		 jae	 SHORT $LN9@scalar@6
  00022	48		 dec	 eax
  00023	89 47 04	 mov	 DWORD PTR [edi+4], eax
$LN9@scalar@6:
  00026	56		 push	 esi
  00027	8b 77 04	 mov	 esi, DWORD PTR [edi+4]
  0002a	f7 de		 neg	 esi
  0002c	1b f6		 sbb	 esi, esi
  0002e	f7 d6		 not	 esi
  00030	8d 4c 24 0c	 lea	 ecx, DWORD PTR __Lock$137555[esp+16]
  00034	23 f7		 and	 esi, edi
  00036	e8 00 00 00 00	 call	 ??1_Lockit@std@@QAE@XZ	; std::_Lockit::~_Lockit
  0003b	85 f6		 test	 esi, esi
  0003d	74 0a		 je	 SHORT $LN13@scalar@6
  0003f	8b 06		 mov	 eax, DWORD PTR [esi]
  00041	8b 10		 mov	 edx, DWORD PTR [eax]
  00043	6a 01		 push	 1
  00045	8b ce		 mov	 ecx, esi
  00047	ff d2		 call	 edx
$LN13@scalar@6:
  00049	5e		 pop	 esi
$LN7@scalar@6:
  0004a	f6 44 24 10 01	 test	 BYTE PTR ___flags$[esp+8], 1
  0004f	74 09		 je	 SHORT $LN12@scalar@6
  00051	53		 push	 ebx
  00052	e8 00 00 00 00	 call	 ??3@YAXPAX@Z		; operator delete
  00057	83 c4 04	 add	 esp, 4
$LN12@scalar@6:
  0005a	5f		 pop	 edi
  0005b	8b c3		 mov	 eax, ebx
  0005d	5b		 pop	 ebx
  0005e	59		 pop	 ecx
  0005f	c2 04 00	 ret	 4
??_Glocale@std@@QAEPAXI@Z ENDP				; std::locale::`scalar deleting destructor'
_TEXT	ENDS
PUBLIC	??_D?$basic_ostream@DU?$char_traits@D@std@@@std@@QAEXXZ ; std::basic_ostream<char,std::char_traits<char> >::`vbase destructor'
; Function compile flags: /Ogtpy
;	COMDAT ??_D?$basic_ostream@DU?$char_traits@D@std@@@std@@QAEXXZ
_TEXT	SEGMENT
??_D?$basic_ostream@DU?$char_traits@D@std@@@std@@QAEXXZ PROC ; std::basic_ostream<char,std::char_traits<char> >::`vbase destructor', COMDAT
; _this$ = ecx
  00000	8d 41 04	 lea	 eax, DWORD PTR [ecx+4]
  00003	8b 48 fc	 mov	 ecx, DWORD PTR [eax-4]
  00006	8b 51 04	 mov	 edx, DWORD PTR [ecx+4]
  00009	c7 44 02 fc 00
	00 00 00	 mov	 DWORD PTR [edx+eax-4], OFFSET ??_7?$basic_ostream@DU?$char_traits@D@std@@@std@@6B@
  00011	50		 push	 eax
  00012	c7 00 00 00 00
	00		 mov	 DWORD PTR [eax], OFFSET ??_7ios_base@std@@6B@
  00018	e8 00 00 00 00	 call	 ?_Ios_base_dtor@ios_base@std@@CAXPAV12@@Z ; std::ios_base::_Ios_base_dtor
  0001d	59		 pop	 ecx
  0001e	c3		 ret	 0
??_D?$basic_ostream@DU?$char_traits@D@std@@@std@@QAEXXZ ENDP ; std::basic_ostream<char,std::char_traits<char> >::`vbase destructor'
_TEXT	ENDS
PUBLIC	??_D?$basic_ostream@_WU?$char_traits@_W@std@@@std@@QAEXXZ ; std::basic_ostream<wchar_t,std::char_traits<wchar_t> >::`vbase destructor'
; Function compile flags: /Ogtpy
;	COMDAT ??_D?$basic_ostream@_WU?$char_traits@_W@std@@@std@@QAEXXZ
_TEXT	SEGMENT
??_D?$basic_ostream@_WU?$char_traits@_W@std@@@std@@QAEXXZ PROC ; std::basic_ostream<wchar_t,std::char_traits<wchar_t> >::`vbase destructor', COMDAT
; _this$ = ecx
  00000	8d 41 04	 lea	 eax, DWORD PTR [ecx+4]
  00003	8b 48 fc	 mov	 ecx, DWORD PTR [eax-4]
  00006	8b 51 04	 mov	 edx, DWORD PTR [ecx+4]
  00009	c7 44 02 fc 00
	00 00 00	 mov	 DWORD PTR [edx+eax-4], OFFSET ??_7?$basic_ostream@_WU?$char_traits@_W@std@@@std@@6B@
  00011	50		 push	 eax
  00012	c7 00 00 00 00
	00		 mov	 DWORD PTR [eax], OFFSET ??_7ios_base@std@@6B@
  00018	e8 00 00 00 00	 call	 ?_Ios_base_dtor@ios_base@std@@CAXPAV12@@Z ; std::ios_base::_Ios_base_dtor
  0001d	59		 pop	 ecx
  0001e	c3		 ret	 0
??_D?$basic_ostream@_WU?$char_traits@_W@std@@@std@@QAEXXZ ENDP ; std::basic_ostream<wchar_t,std::char_traits<wchar_t> >::`vbase destructor'
_TEXT	ENDS
PUBLIC	??_D?$basic_istream@DU?$char_traits@D@std@@@std@@QAEXXZ ; std::basic_istream<char,std::char_traits<char> >::`vbase destructor'
; Function compile flags: /Ogtpy
;	COMDAT ??_D?$basic_istream@DU?$char_traits@D@std@@@std@@QAEXXZ
_TEXT	SEGMENT
??_D?$basic_istream@DU?$char_traits@D@std@@@std@@QAEXXZ PROC ; std::basic_istream<char,std::char_traits<char> >::`vbase destructor', COMDAT
; _this$ = ecx
  00000	8d 41 08	 lea	 eax, DWORD PTR [ecx+8]
  00003	8b 48 f8	 mov	 ecx, DWORD PTR [eax-8]
  00006	8b 51 04	 mov	 edx, DWORD PTR [ecx+4]
  00009	c7 44 02 f8 00
	00 00 00	 mov	 DWORD PTR [edx+eax-8], OFFSET ??_7?$basic_istream@DU?$char_traits@D@std@@@std@@6B@
  00011	50		 push	 eax
  00012	c7 00 00 00 00
	00		 mov	 DWORD PTR [eax], OFFSET ??_7ios_base@std@@6B@
  00018	e8 00 00 00 00	 call	 ?_Ios_base_dtor@ios_base@std@@CAXPAV12@@Z ; std::ios_base::_Ios_base_dtor
  0001d	59		 pop	 ecx
  0001e	c3		 ret	 0
??_D?$basic_istream@DU?$char_traits@D@std@@@std@@QAEXXZ ENDP ; std::basic_istream<char,std::char_traits<char> >::`vbase destructor'
_TEXT	ENDS
PUBLIC	??_D?$basic_istream@_WU?$char_traits@_W@std@@@std@@QAEXXZ ; std::basic_istream<wchar_t,std::char_traits<wchar_t> >::`vbase destructor'
; Function compile flags: /Ogtpy
;	COMDAT ??_D?$basic_istream@_WU?$char_traits@_W@std@@@std@@QAEXXZ
_TEXT	SEGMENT
??_D?$basic_istream@_WU?$char_traits@_W@std@@@std@@QAEXXZ PROC ; std::basic_istream<wchar_t,std::char_traits<wchar_t> >::`vbase destructor', COMDAT
; _this$ = ecx
  00000	8d 41 08	 lea	 eax, DWORD PTR [ecx+8]
  00003	8b 48 f8	 mov	 ecx, DWORD PTR [eax-8]
  00006	8b 51 04	 mov	 edx, DWORD PTR [ecx+4]
  00009	c7 44 02 f8 00
	00 00 00	 mov	 DWORD PTR [edx+eax-8], OFFSET ??_7?$basic_istream@_WU?$char_traits@_W@std@@@std@@6B@
  00011	50		 push	 eax
  00012	c7 00 00 00 00
	00		 mov	 DWORD PTR [eax], OFFSET ??_7ios_base@std@@6B@
  00018	e8 00 00 00 00	 call	 ?_Ios_base_dtor@ios_base@std@@CAXPAV12@@Z ; std::ios_base::_Ios_base_dtor
  0001d	59		 pop	 ecx
  0001e	c3		 ret	 0
??_D?$basic_istream@_WU?$char_traits@_W@std@@@std@@QAEXXZ ENDP ; std::basic_istream<wchar_t,std::char_traits<wchar_t> >::`vbase destructor'
_TEXT	ENDS
PUBLIC	??_D?$basic_iostream@_WU?$char_traits@_W@std@@@std@@QAEXXZ ; std::basic_iostream<wchar_t,std::char_traits<wchar_t> >::`vbase destructor'
; Function compile flags: /Ogtpy
;	COMDAT ??_D?$basic_iostream@_WU?$char_traits@_W@std@@@std@@QAEXXZ
_TEXT	SEGMENT
??_D?$basic_iostream@_WU?$char_traits@_W@std@@@std@@QAEXXZ PROC ; std::basic_iostream<wchar_t,std::char_traits<wchar_t> >::`vbase destructor', COMDAT
; _this$ = ecx
  00000	8d 41 0c	 lea	 eax, DWORD PTR [ecx+12]
  00003	8b 48 f4	 mov	 ecx, DWORD PTR [eax-12]
  00006	8b 51 04	 mov	 edx, DWORD PTR [ecx+4]
  00009	c7 44 02 f4 00
	00 00 00	 mov	 DWORD PTR [edx+eax-12], OFFSET ??_7?$basic_iostream@_WU?$char_traits@_W@std@@@std@@6B@
  00011	8b 48 fc	 mov	 ecx, DWORD PTR [eax-4]
  00014	8b 51 04	 mov	 edx, DWORD PTR [ecx+4]
  00017	c7 44 02 fc 00
	00 00 00	 mov	 DWORD PTR [edx+eax-4], OFFSET ??_7?$basic_ostream@_WU?$char_traits@_W@std@@@std@@6B@
  0001f	8b 48 f4	 mov	 ecx, DWORD PTR [eax-12]
  00022	8b 51 04	 mov	 edx, DWORD PTR [ecx+4]
  00025	c7 44 02 f4 00
	00 00 00	 mov	 DWORD PTR [edx+eax-12], OFFSET ??_7?$basic_istream@_WU?$char_traits@_W@std@@@std@@6B@
  0002d	50		 push	 eax
  0002e	c7 00 00 00 00
	00		 mov	 DWORD PTR [eax], OFFSET ??_7ios_base@std@@6B@
  00034	e8 00 00 00 00	 call	 ?_Ios_base_dtor@ios_base@std@@CAXPAV12@@Z ; std::ios_base::_Ios_base_dtor
  00039	59		 pop	 ecx
  0003a	c3		 ret	 0
??_D?$basic_iostream@_WU?$char_traits@_W@std@@@std@@QAEXXZ ENDP ; std::basic_iostream<wchar_t,std::char_traits<wchar_t> >::`vbase destructor'
_TEXT	ENDS
PUBLIC	??_D?$basic_iostream@DU?$char_traits@D@std@@@std@@QAEXXZ ; std::basic_iostream<char,std::char_traits<char> >::`vbase destructor'
; Function compile flags: /Ogtpy
;	COMDAT ??_D?$basic_iostream@DU?$char_traits@D@std@@@std@@QAEXXZ
_TEXT	SEGMENT
??_D?$basic_iostream@DU?$char_traits@D@std@@@std@@QAEXXZ PROC ; std::basic_iostream<char,std::char_traits<char> >::`vbase destructor', COMDAT
; _this$ = ecx
  00000	8d 41 0c	 lea	 eax, DWORD PTR [ecx+12]
  00003	8b 48 f4	 mov	 ecx, DWORD PTR [eax-12]
  00006	8b 51 04	 mov	 edx, DWORD PTR [ecx+4]
  00009	c7 44 02 f4 00
	00 00 00	 mov	 DWORD PTR [edx+eax-12], OFFSET ??_7?$basic_iostream@DU?$char_traits@D@std@@@std@@6B@
  00011	8b 48 fc	 mov	 ecx, DWORD PTR [eax-4]
  00014	8b 51 04	 mov	 edx, DWORD PTR [ecx+4]
  00017	c7 44 02 fc 00
	00 00 00	 mov	 DWORD PTR [edx+eax-4], OFFSET ??_7?$basic_ostream@DU?$char_traits@D@std@@@std@@6B@
  0001f	8b 48 f4	 mov	 ecx, DWORD PTR [eax-12]
  00022	8b 51 04	 mov	 edx, DWORD PTR [ecx+4]
  00025	c7 44 02 f4 00
	00 00 00	 mov	 DWORD PTR [edx+eax-12], OFFSET ??_7?$basic_istream@DU?$char_traits@D@std@@@std@@6B@
  0002d	50		 push	 eax
  0002e	c7 00 00 00 00
	00		 mov	 DWORD PTR [eax], OFFSET ??_7ios_base@std@@6B@
  00034	e8 00 00 00 00	 call	 ?_Ios_base_dtor@ios_base@std@@CAXPAV12@@Z ; std::ios_base::_Ios_base_dtor
  00039	59		 pop	 ecx
  0003a	c3		 ret	 0
??_D?$basic_iostream@DU?$char_traits@D@std@@@std@@QAEXXZ ENDP ; std::basic_iostream<char,std::char_traits<char> >::`vbase destructor'
_TEXT	ENDS
PUBLIC	?_Myptr@?$basic_string@DU?$char_traits@D@std@@V?$allocator@D@2@@std@@IAEPADXZ ; std::basic_string<char,std::char_traits<char>,std::allocator<char> >::_Myptr
; Function compile flags: /Ogtpy
; File c:\program files (x86)\microsoft visual studio 9.0\vc\include\xstring
;	COMDAT ?_Myptr@?$basic_string@DU?$char_traits@D@std@@V?$allocator@D@2@@std@@IAEPADXZ
_TEXT	SEGMENT
?_Myptr@?$basic_string@DU?$char_traits@D@std@@V?$allocator@D@2@@std@@IAEPADXZ PROC ; std::basic_string<char,std::char_traits<char>,std::allocator<char> >::_Myptr, COMDAT
; _this$ = ecx

; 2170 : 		return (_BUF_SIZE <= _Myres ? _Bx._Ptr : _Bx._Buf);

  00000	83 79 18 10	 cmp	 DWORD PTR [ecx+24], 16	; 00000010H
  00004	72 04		 jb	 SHORT $LN3@Myptr
  00006	8b 41 04	 mov	 eax, DWORD PTR [ecx+4]

; 2171 : 		}

  00009	c3		 ret	 0
$LN3@Myptr:

; 2170 : 		return (_BUF_SIZE <= _Myres ? _Bx._Ptr : _Bx._Buf);

  0000a	8d 41 04	 lea	 eax, DWORD PTR [ecx+4]

; 2171 : 		}

  0000d	c3		 ret	 0
?_Myptr@?$basic_string@DU?$char_traits@D@std@@V?$allocator@D@2@@std@@IAEPADXZ ENDP ; std::basic_string<char,std::char_traits<char>,std::allocator<char> >::_Myptr
_TEXT	ENDS
PUBLIC	?_Myptr@?$basic_string@DU?$char_traits@D@std@@V?$allocator@D@2@@std@@IBEPBDXZ ; std::basic_string<char,std::char_traits<char>,std::allocator<char> >::_Myptr
; Function compile flags: /Ogtpy
;	COMDAT ?_Myptr@?$basic_string@DU?$char_traits@D@std@@V?$allocator@D@2@@std@@IBEPBDXZ
_TEXT	SEGMENT
?_Myptr@?$basic_string@DU?$char_traits@D@std@@V?$allocator@D@2@@std@@IBEPBDXZ PROC ; std::basic_string<char,std::char_traits<char>,std::allocator<char> >::_Myptr, COMDAT
; _this$ = ecx

; 2175 : 		return (_BUF_SIZE <= _Myres ? _Bx._Ptr : _Bx._Buf);

  00000	83 79 18 10	 cmp	 DWORD PTR [ecx+24], 16	; 00000010H
  00004	72 04		 jb	 SHORT $LN3@Myptr@2
  00006	8b 41 04	 mov	 eax, DWORD PTR [ecx+4]

; 2176 : 		}

  00009	c3		 ret	 0
$LN3@Myptr@2:

; 2175 : 		return (_BUF_SIZE <= _Myres ? _Bx._Ptr : _Bx._Buf);

  0000a	8d 41 04	 lea	 eax, DWORD PTR [ecx+4]

; 2176 : 		}

  0000d	c3		 ret	 0
?_Myptr@?$basic_string@DU?$char_traits@D@std@@V?$allocator@D@2@@std@@IBEPBDXZ ENDP ; std::basic_string<char,std::char_traits<char>,std::allocator<char> >::_Myptr
_TEXT	ENDS
PUBLIC	??0?$allocator@D@std@@QAE@XZ			; std::allocator<char>::allocator<char>
; Function compile flags: /Ogtpy
; File c:\program files (x86)\microsoft visual studio 9.0\vc\include\xmemory
;	COMDAT ??0?$allocator@D@std@@QAE@XZ
_TEXT	SEGMENT
??0?$allocator@D@std@@QAE@XZ PROC			; std::allocator<char>::allocator<char>, COMDAT
; _this$ = ecx

; 119  : 	allocator() _THROW0()

  00000	8b c1		 mov	 eax, ecx

; 120  : 		{	// construct default allocator (do nothing)
; 121  : 		}

  00002	c3		 ret	 0
??0?$allocator@D@std@@QAE@XZ ENDP			; std::allocator<char>::allocator<char>
_TEXT	ENDS
PUBLIC	?deallocate@?$allocator@D@std@@QAEXPADI@Z	; std::allocator<char>::deallocate
; Function compile flags: /Ogtpy
;	COMDAT ?deallocate@?$allocator@D@std@@QAEXPADI@Z
_TEXT	SEGMENT
__Ptr$ = 8						; size = 4
___formal$ = 12						; size = 4
?deallocate@?$allocator@D@std@@QAEXPADI@Z PROC		; std::allocator<char>::deallocate, COMDAT
; _this$ = ecx

; 140  : 		::operator delete(_Ptr);

  00000	8b 44 24 04	 mov	 eax, DWORD PTR __Ptr$[esp-4]
  00004	50		 push	 eax
  00005	e8 00 00 00 00	 call	 ??3@YAXPAX@Z		; operator delete
  0000a	59		 pop	 ecx

; 141  : 		}

  0000b	c2 08 00	 ret	 8
?deallocate@?$allocator@D@std@@QAEXPADI@Z ENDP		; std::allocator<char>::deallocate
_TEXT	ENDS
PUBLIC	?_Myptr@?$basic_string@_WU?$char_traits@_W@std@@V?$allocator@_W@2@@std@@IBEPB_WXZ ; std::basic_string<wchar_t,std::char_traits<wchar_t>,std::allocator<wchar_t> >::_Myptr
; Function compile flags: /Ogtpy
; File c:\program files (x86)\microsoft visual studio 9.0\vc\include\xstring
;	COMDAT ?_Myptr@?$basic_string@_WU?$char_traits@_W@std@@V?$allocator@_W@2@@std@@IBEPB_WXZ
_TEXT	SEGMENT
?_Myptr@?$basic_string@_WU?$char_traits@_W@std@@V?$allocator@_W@2@@std@@IBEPB_WXZ PROC ; std::basic_string<wchar_t,std::char_traits<wchar_t>,std::allocator<wchar_t> >::_Myptr, COMDAT
; _this$ = ecx

; 2175 : 		return (_BUF_SIZE <= _Myres ? _Bx._Ptr : _Bx._Buf);

  00000	83 79 18 08	 cmp	 DWORD PTR [ecx+24], 8
  00004	72 04		 jb	 SHORT $LN3@Myptr@3
  00006	8b 41 04	 mov	 eax, DWORD PTR [ecx+4]

; 2176 : 		}

  00009	c3		 ret	 0
$LN3@Myptr@3:

; 2175 : 		return (_BUF_SIZE <= _Myres ? _Bx._Ptr : _Bx._Buf);

  0000a	8d 41 04	 lea	 eax, DWORD PTR [ecx+4]

; 2176 : 		}

  0000d	c3		 ret	 0
?_Myptr@?$basic_string@_WU?$char_traits@_W@std@@V?$allocator@_W@2@@std@@IBEPB_WXZ ENDP ; std::basic_string<wchar_t,std::char_traits<wchar_t>,std::allocator<wchar_t> >::_Myptr
_TEXT	ENDS
PUBLIC	??0?$allocator@_W@std@@QAE@XZ			; std::allocator<wchar_t>::allocator<wchar_t>
; Function compile flags: /Ogtpy
; File c:\program files (x86)\microsoft visual studio 9.0\vc\include\xmemory
;	COMDAT ??0?$allocator@_W@std@@QAE@XZ
_TEXT	SEGMENT
??0?$allocator@_W@std@@QAE@XZ PROC			; std::allocator<wchar_t>::allocator<wchar_t>, COMDAT
; _this$ = ecx

; 119  : 	allocator() _THROW0()

  00000	8b c1		 mov	 eax, ecx

; 120  : 		{	// construct default allocator (do nothing)
; 121  : 		}

  00002	c3		 ret	 0
??0?$allocator@_W@std@@QAE@XZ ENDP			; std::allocator<wchar_t>::allocator<wchar_t>
_TEXT	ENDS
PUBLIC	?deallocate@?$allocator@_W@std@@QAEXPA_WI@Z	; std::allocator<wchar_t>::deallocate
; Function compile flags: /Ogtpy
;	COMDAT ?deallocate@?$allocator@_W@std@@QAEXPA_WI@Z
_TEXT	SEGMENT
__Ptr$ = 8						; size = 4
___formal$ = 12						; size = 4
?deallocate@?$allocator@_W@std@@QAEXPA_WI@Z PROC	; std::allocator<wchar_t>::deallocate, COMDAT
; _this$ = ecx

; 140  : 		::operator delete(_Ptr);

  00000	8b 44 24 04	 mov	 eax, DWORD PTR __Ptr$[esp-4]
  00004	50		 push	 eax
  00005	e8 00 00 00 00	 call	 ??3@YAXPAX@Z		; operator delete
  0000a	59		 pop	 ecx

; 141  : 		}

  0000b	c2 08 00	 ret	 8
?deallocate@?$allocator@_W@std@@QAEXPA_WI@Z ENDP	; std::allocator<wchar_t>::deallocate
_TEXT	ENDS
PUBLIC	?fill@?$basic_ios@DU?$char_traits@D@std@@@std@@QBEDXZ ; std::basic_ios<char,std::char_traits<char> >::fill
; Function compile flags: /Ogtpy
; File c:\program files (x86)\microsoft visual studio 9.0\vc\include\ios
;	COMDAT ?fill@?$basic_ios@DU?$char_traits@D@std@@@std@@QBEDXZ
_TEXT	SEGMENT
?fill@?$basic_ios@DU?$char_traits@D@std@@@std@@QBEDXZ PROC ; std::basic_ios<char,std::char_traits<char> >::fill, COMDAT
; _this$ = ecx

; 106  : 		return (_Fillch);

  00000	8a 41 30	 mov	 al, BYTE PTR [ecx+48]

; 107  : 		}

  00003	c3		 ret	 0
?fill@?$basic_ios@DU?$char_traits@D@std@@@std@@QBEDXZ ENDP ; std::basic_ios<char,std::char_traits<char> >::fill
_TEXT	ENDS
PUBLIC	??_7?$basic_ios@DU?$char_traits@D@std@@@std@@6B@ ; std::basic_ios<char,std::char_traits<char> >::`vftable'
PUBLIC	??0?$basic_ios@DU?$char_traits@D@std@@@std@@IAE@XZ ; std::basic_ios<char,std::char_traits<char> >::basic_ios<char,std::char_traits<char> >
PUBLIC	??_R4?$basic_ios@DU?$char_traits@D@std@@@std@@6B@ ; std::basic_ios<char,std::char_traits<char> >::`RTTI Complete Object Locator'
EXTRN	??_E?$basic_ios@DU?$char_traits@D@std@@@std@@UAEPAXI@Z:PROC ; std::basic_ios<char,std::char_traits<char> >::`vector deleting destructor'
;	COMDAT ??_R4?$basic_ios@DU?$char_traits@D@std@@@std@@6B@
; File c:\program files (x86)\microsoft visual studio 9.0\vc\include\xiosbase
rdata$r	SEGMENT
??_R4?$basic_ios@DU?$char_traits@D@std@@@std@@6B@ DD 00H ; std::basic_ios<char,std::char_traits<char> >::`RTTI Complete Object Locator'
	DD	00H
	DD	00H
	DD	FLAT:??_R0?AV?$basic_ios@DU?$char_traits@D@std@@@std@@@8
	DD	FLAT:??_R3?$basic_ios@DU?$char_traits@D@std@@@std@@8
rdata$r	ENDS
;	COMDAT ??_7?$basic_ios@DU?$char_traits@D@std@@@std@@6B@
CONST	SEGMENT
??_7?$basic_ios@DU?$char_traits@D@std@@@std@@6B@ DD FLAT:??_R4?$basic_ios@DU?$char_traits@D@std@@@std@@6B@ ; std::basic_ios<char,std::char_traits<char> >::`vftable'
	DD	FLAT:??_E?$basic_ios@DU?$char_traits@D@std@@@std@@UAEPAXI@Z
; Function compile flags: /Ogtpy
; File c:\program files (x86)\microsoft visual studio 9.0\vc\include\ios
CONST	ENDS
;	COMDAT ??0?$basic_ios@DU?$char_traits@D@std@@@std@@IAE@XZ
_TEXT	SEGMENT
??0?$basic_ios@DU?$char_traits@D@std@@@std@@IAE@XZ PROC	; std::basic_ios<char,std::char_traits<char> >::basic_ios<char,std::char_traits<char> >, COMDAT
; _this$ = ecx

; 146  : 	__CLR_OR_THIS_CALL basic_ios()

  00000	8b c1		 mov	 eax, ecx
  00002	c7 00 00 00 00
	00		 mov	 DWORD PTR [eax], OFFSET ??_7?$basic_ios@DU?$char_traits@D@std@@@std@@6B@

; 147  : 		{	// default constructor, do nothing
; 148  : 		}

  00008	c3		 ret	 0
??0?$basic_ios@DU?$char_traits@D@std@@@std@@IAE@XZ ENDP	; std::basic_ios<char,std::char_traits<char> >::basic_ios<char,std::char_traits<char> >
; Function compile flags: /Ogtpy
_TEXT	ENDS
;	COMDAT ??_G?$basic_ios@DU?$char_traits@D@std@@@std@@UAEPAXI@Z
_TEXT	SEGMENT
___flags$ = 8						; size = 4
??_G?$basic_ios@DU?$char_traits@D@std@@@std@@UAEPAXI@Z PROC ; std::basic_ios<char,std::char_traits<char> >::`scalar deleting destructor', COMDAT
; _this$ = ecx
  00000	56		 push	 esi
  00001	8b f1		 mov	 esi, ecx
  00003	56		 push	 esi
  00004	c7 06 00 00 00
	00		 mov	 DWORD PTR [esi], OFFSET ??_7ios_base@std@@6B@
  0000a	e8 00 00 00 00	 call	 ?_Ios_base_dtor@ios_base@std@@CAXPAV12@@Z ; std::ios_base::_Ios_base_dtor
  0000f	83 c4 04	 add	 esp, 4
  00012	f6 44 24 08 01	 test	 BYTE PTR ___flags$[esp], 1
  00017	74 09		 je	 SHORT $LN9@scalar@7
  00019	56		 push	 esi
  0001a	e8 00 00 00 00	 call	 ??3@YAXPAX@Z		; operator delete
  0001f	83 c4 04	 add	 esp, 4
$LN9@scalar@7:
  00022	8b c6		 mov	 eax, esi
  00024	5e		 pop	 esi
  00025	c2 04 00	 ret	 4
??_G?$basic_ios@DU?$char_traits@D@std@@@std@@UAEPAXI@Z ENDP ; std::basic_ios<char,std::char_traits<char> >::`scalar deleting destructor'
_TEXT	ENDS
PUBLIC	?fill@?$basic_ios@_WU?$char_traits@_W@std@@@std@@QBE_WXZ ; std::basic_ios<wchar_t,std::char_traits<wchar_t> >::fill
; Function compile flags: /Ogtpy
;	COMDAT ?fill@?$basic_ios@_WU?$char_traits@_W@std@@@std@@QBE_WXZ
_TEXT	SEGMENT
?fill@?$basic_ios@_WU?$char_traits@_W@std@@@std@@QBE_WXZ PROC ; std::basic_ios<wchar_t,std::char_traits<wchar_t> >::fill, COMDAT
; _this$ = ecx

; 106  : 		return (_Fillch);

  00000	66 8b 41 30	 mov	 ax, WORD PTR [ecx+48]

; 107  : 		}

  00004	c3		 ret	 0
?fill@?$basic_ios@_WU?$char_traits@_W@std@@@std@@QBE_WXZ ENDP ; std::basic_ios<wchar_t,std::char_traits<wchar_t> >::fill
_TEXT	ENDS
PUBLIC	??_7?$basic_ios@_WU?$char_traits@_W@std@@@std@@6B@ ; std::basic_ios<wchar_t,std::char_traits<wchar_t> >::`vftable'
PUBLIC	??0?$basic_ios@_WU?$char_traits@_W@std@@@std@@IAE@XZ ; std::basic_ios<wchar_t,std::char_traits<wchar_t> >::basic_ios<wchar_t,std::char_traits<wchar_t> >
PUBLIC	??_R4?$basic_ios@_WU?$char_traits@_W@std@@@std@@6B@ ; std::basic_ios<wchar_t,std::char_traits<wchar_t> >::`RTTI Complete Object Locator'
EXTRN	??_E?$basic_ios@_WU?$char_traits@_W@std@@@std@@UAEPAXI@Z:PROC ; std::basic_ios<wchar_t,std::char_traits<wchar_t> >::`vector deleting destructor'
;	COMDAT ??_R4?$basic_ios@_WU?$char_traits@_W@std@@@std@@6B@
; File c:\program files (x86)\microsoft visual studio 9.0\vc\include\xiosbase
rdata$r	SEGMENT
??_R4?$basic_ios@_WU?$char_traits@_W@std@@@std@@6B@ DD 00H ; std::basic_ios<wchar_t,std::char_traits<wchar_t> >::`RTTI Complete Object Locator'
	DD	00H
	DD	00H
	DD	FLAT:??_R0?AV?$basic_ios@_WU?$char_traits@_W@std@@@std@@@8
	DD	FLAT:??_R3?$basic_ios@_WU?$char_traits@_W@std@@@std@@8
rdata$r	ENDS
;	COMDAT ??_7?$basic_ios@_WU?$char_traits@_W@std@@@std@@6B@
CONST	SEGMENT
??_7?$basic_ios@_WU?$char_traits@_W@std@@@std@@6B@ DD FLAT:??_R4?$basic_ios@_WU?$char_traits@_W@std@@@std@@6B@ ; std::basic_ios<wchar_t,std::char_traits<wchar_t> >::`vftable'
	DD	FLAT:??_E?$basic_ios@_WU?$char_traits@_W@std@@@std@@UAEPAXI@Z
; Function compile flags: /Ogtpy
; File c:\program files (x86)\microsoft visual studio 9.0\vc\include\ios
CONST	ENDS
;	COMDAT ??0?$basic_ios@_WU?$char_traits@_W@std@@@std@@IAE@XZ
_TEXT	SEGMENT
??0?$basic_ios@_WU?$char_traits@_W@std@@@std@@IAE@XZ PROC ; std::basic_ios<wchar_t,std::char_traits<wchar_t> >::basic_ios<wchar_t,std::char_traits<wchar_t> >, COMDAT
; _this$ = ecx

; 146  : 	__CLR_OR_THIS_CALL basic_ios()

  00000	8b c1		 mov	 eax, ecx
  00002	c7 00 00 00 00
	00		 mov	 DWORD PTR [eax], OFFSET ??_7?$basic_ios@_WU?$char_traits@_W@std@@@std@@6B@

; 147  : 		{	// default constructor, do nothing
; 148  : 		}

  00008	c3		 ret	 0
??0?$basic_ios@_WU?$char_traits@_W@std@@@std@@IAE@XZ ENDP ; std::basic_ios<wchar_t,std::char_traits<wchar_t> >::basic_ios<wchar_t,std::char_traits<wchar_t> >
; Function compile flags: /Ogtpy
_TEXT	ENDS
;	COMDAT ??_G?$basic_ios@_WU?$char_traits@_W@std@@@std@@UAEPAXI@Z
_TEXT	SEGMENT
___flags$ = 8						; size = 4
??_G?$basic_ios@_WU?$char_traits@_W@std@@@std@@UAEPAXI@Z PROC ; std::basic_ios<wchar_t,std::char_traits<wchar_t> >::`scalar deleting destructor', COMDAT
; _this$ = ecx
  00000	56		 push	 esi
  00001	8b f1		 mov	 esi, ecx
  00003	56		 push	 esi
  00004	c7 06 00 00 00
	00		 mov	 DWORD PTR [esi], OFFSET ??_7ios_base@std@@6B@
  0000a	e8 00 00 00 00	 call	 ?_Ios_base_dtor@ios_base@std@@CAXPAV12@@Z ; std::ios_base::_Ios_base_dtor
  0000f	83 c4 04	 add	 esp, 4
  00012	f6 44 24 08 01	 test	 BYTE PTR ___flags$[esp], 1
  00017	74 09		 je	 SHORT $LN9@scalar@8
  00019	56		 push	 esi
  0001a	e8 00 00 00 00	 call	 ??3@YAXPAX@Z		; operator delete
  0001f	83 c4 04	 add	 esp, 4
$LN9@scalar@8:
  00022	8b c6		 mov	 eax, esi
  00024	5e		 pop	 esi
  00025	c2 04 00	 ret	 4
??_G?$basic_ios@_WU?$char_traits@_W@std@@@std@@UAEPAXI@Z ENDP ; std::basic_ios<wchar_t,std::char_traits<wchar_t> >::`scalar deleting destructor'
_TEXT	ENDS
PUBLIC	?pubsync@?$basic_streambuf@DU?$char_traits@D@std@@@std@@QAEHXZ ; std::basic_streambuf<char,std::char_traits<char> >::pubsync
; Function compile flags: /Ogtpy
; File c:\program files (x86)\microsoft visual studio 9.0\vc\include\streambuf
;	COMDAT ?pubsync@?$basic_streambuf@DU?$char_traits@D@std@@@std@@QAEHXZ
_TEXT	SEGMENT
?pubsync@?$basic_streambuf@DU?$char_traits@D@std@@@std@@QAEHXZ PROC ; std::basic_streambuf<char,std::char_traits<char> >::pubsync, COMDAT
; _this$ = ecx

; 100  : 		return (sync());

  00000	8b 01		 mov	 eax, DWORD PTR [ecx]
  00002	8b 50 30	 mov	 edx, DWORD PTR [eax+48]
  00005	ff e2		 jmp	 edx
?pubsync@?$basic_streambuf@DU?$char_traits@D@std@@@std@@QAEHXZ ENDP ; std::basic_streambuf<char,std::char_traits<char> >::pubsync
_TEXT	ENDS
PUBLIC	?_Unlock@?$basic_streambuf@DU?$char_traits@D@std@@@std@@QAEXXZ ; std::basic_streambuf<char,std::char_traits<char> >::_Unlock
EXTRN	?_Unlock@_Mutex@std@@QAEXXZ:PROC		; std::_Mutex::_Unlock
; Function compile flags: /Ogtpy
;	COMDAT ?_Unlock@?$basic_streambuf@DU?$char_traits@D@std@@@std@@QAEXXZ
_TEXT	SEGMENT
?_Unlock@?$basic_streambuf@DU?$char_traits@D@std@@@std@@QAEXXZ PROC ; std::basic_streambuf<char,std::char_traits<char> >::_Unlock, COMDAT
; _this$ = ecx

; 178  : 		_Mylock._Unlock();

  00000	83 c1 04	 add	 ecx, 4
  00003	e9 00 00 00 00	 jmp	 ?_Unlock@_Mutex@std@@QAEXXZ ; std::_Mutex::_Unlock
?_Unlock@?$basic_streambuf@DU?$char_traits@D@std@@@std@@QAEXXZ ENDP ; std::basic_streambuf<char,std::char_traits<char> >::_Unlock
_TEXT	ENDS
PUBLIC	?eback@?$basic_streambuf@DU?$char_traits@D@std@@@std@@IBEPADXZ ; std::basic_streambuf<char,std::char_traits<char> >::eback
; Function compile flags: /Ogtpy
;	COMDAT ?eback@?$basic_streambuf@DU?$char_traits@D@std@@@std@@IBEPADXZ
_TEXT	SEGMENT
?eback@?$basic_streambuf@DU?$char_traits@D@std@@@std@@IBEPADXZ PROC ; std::basic_streambuf<char,std::char_traits<char> >::eback, COMDAT
; _this$ = ecx

; 185  : 		return (*_IGfirst);

  00000	8b 41 10	 mov	 eax, DWORD PTR [ecx+16]
  00003	8b 00		 mov	 eax, DWORD PTR [eax]

; 186  : 		}

  00005	c3		 ret	 0
?eback@?$basic_streambuf@DU?$char_traits@D@std@@@std@@IBEPADXZ ENDP ; std::basic_streambuf<char,std::char_traits<char> >::eback
_TEXT	ENDS
PUBLIC	?gptr@?$basic_streambuf@DU?$char_traits@D@std@@@std@@IBEPADXZ ; std::basic_streambuf<char,std::char_traits<char> >::gptr
; Function compile flags: /Ogtpy
;	COMDAT ?gptr@?$basic_streambuf@DU?$char_traits@D@std@@@std@@IBEPADXZ
_TEXT	SEGMENT
?gptr@?$basic_streambuf@DU?$char_traits@D@std@@@std@@IBEPADXZ PROC ; std::basic_streambuf<char,std::char_traits<char> >::gptr, COMDAT
; _this$ = ecx

; 190  : 		return (*_IGnext);

  00000	8b 41 20	 mov	 eax, DWORD PTR [ecx+32]
  00003	8b 00		 mov	 eax, DWORD PTR [eax]

; 191  : 		}

  00005	c3		 ret	 0
?gptr@?$basic_streambuf@DU?$char_traits@D@std@@@std@@IBEPADXZ ENDP ; std::basic_streambuf<char,std::char_traits<char> >::gptr
_TEXT	ENDS
PUBLIC	?pbase@?$basic_streambuf@DU?$char_traits@D@std@@@std@@IBEPADXZ ; std::basic_streambuf<char,std::char_traits<char> >::pbase
; Function compile flags: /Ogtpy
;	COMDAT ?pbase@?$basic_streambuf@DU?$char_traits@D@std@@@std@@IBEPADXZ
_TEXT	SEGMENT
?pbase@?$basic_streambuf@DU?$char_traits@D@std@@@std@@IBEPADXZ PROC ; std::basic_streambuf<char,std::char_traits<char> >::pbase, COMDAT
; _this$ = ecx

; 195  : 		return (*_IPfirst);

  00000	8b 41 14	 mov	 eax, DWORD PTR [ecx+20]
  00003	8b 00		 mov	 eax, DWORD PTR [eax]

; 196  : 		}

  00005	c3		 ret	 0
?pbase@?$basic_streambuf@DU?$char_traits@D@std@@@std@@IBEPADXZ ENDP ; std::basic_streambuf<char,std::char_traits<char> >::pbase
_TEXT	ENDS
PUBLIC	?pptr@?$basic_streambuf@DU?$char_traits@D@std@@@std@@IBEPADXZ ; std::basic_streambuf<char,std::char_traits<char> >::pptr
; Function compile flags: /Ogtpy
;	COMDAT ?pptr@?$basic_streambuf@DU?$char_traits@D@std@@@std@@IBEPADXZ
_TEXT	SEGMENT
?pptr@?$basic_streambuf@DU?$char_traits@D@std@@@std@@IBEPADXZ PROC ; std::basic_streambuf<char,std::char_traits<char> >::pptr, COMDAT
; _this$ = ecx

; 200  : 		return (*_IPnext);

  00000	8b 41 24	 mov	 eax, DWORD PTR [ecx+36]
  00003	8b 00		 mov	 eax, DWORD PTR [eax]

; 201  : 		}

  00005	c3		 ret	 0
?pptr@?$basic_streambuf@DU?$char_traits@D@std@@@std@@IBEPADXZ ENDP ; std::basic_streambuf<char,std::char_traits<char> >::pptr
_TEXT	ENDS
PUBLIC	?egptr@?$basic_streambuf@DU?$char_traits@D@std@@@std@@IBEPADXZ ; std::basic_streambuf<char,std::char_traits<char> >::egptr
; Function compile flags: /Ogtpy
;	COMDAT ?egptr@?$basic_streambuf@DU?$char_traits@D@std@@@std@@IBEPADXZ
_TEXT	SEGMENT
?egptr@?$basic_streambuf@DU?$char_traits@D@std@@@std@@IBEPADXZ PROC ; std::basic_streambuf<char,std::char_traits<char> >::egptr, COMDAT
; _this$ = ecx

; 205  : 		return (*_IGnext + *_IGcount);

  00000	8b 41 30	 mov	 eax, DWORD PTR [ecx+48]
  00003	8b 49 20	 mov	 ecx, DWORD PTR [ecx+32]
  00006	8b 00		 mov	 eax, DWORD PTR [eax]
  00008	03 01		 add	 eax, DWORD PTR [ecx]

; 206  : 		}

  0000a	c3		 ret	 0
?egptr@?$basic_streambuf@DU?$char_traits@D@std@@@std@@IBEPADXZ ENDP ; std::basic_streambuf<char,std::char_traits<char> >::egptr
_TEXT	ENDS
PUBLIC	?setg@?$basic_streambuf@DU?$char_traits@D@std@@@std@@IAEXPAD00@Z ; std::basic_streambuf<char,std::char_traits<char> >::setg
; Function compile flags: /Ogtpy
;	COMDAT ?setg@?$basic_streambuf@DU?$char_traits@D@std@@@std@@IAEXPAD00@Z
_TEXT	SEGMENT
__First$ = 8						; size = 4
__Next$ = 12						; size = 4
__Last$ = 16						; size = 4
?setg@?$basic_streambuf@DU?$char_traits@D@std@@@std@@IAEXPAD00@Z PROC ; std::basic_streambuf<char,std::char_traits<char> >::setg, COMDAT
; _this$ = ecx

; 216  : 		*_IGfirst = _First;

  00000	8b 41 10	 mov	 eax, DWORD PTR [ecx+16]
  00003	8b 54 24 04	 mov	 edx, DWORD PTR __First$[esp-4]
  00007	89 10		 mov	 DWORD PTR [eax], edx

; 217  : 		*_IGnext = _Next;

  00009	8b 51 20	 mov	 edx, DWORD PTR [ecx+32]
  0000c	8b 44 24 08	 mov	 eax, DWORD PTR __Next$[esp-4]
  00010	89 02		 mov	 DWORD PTR [edx], eax

; 218  : 		*_IGcount = (int)(_Last - _Next);

  00012	8b 54 24 0c	 mov	 edx, DWORD PTR __Last$[esp-4]
  00016	2b d0		 sub	 edx, eax
  00018	8b 41 30	 mov	 eax, DWORD PTR [ecx+48]
  0001b	89 10		 mov	 DWORD PTR [eax], edx

; 219  : 		}

  0001d	c2 0c 00	 ret	 12			; 0000000cH
?setg@?$basic_streambuf@DU?$char_traits@D@std@@@std@@IAEXPAD00@Z ENDP ; std::basic_streambuf<char,std::char_traits<char> >::setg
_TEXT	ENDS
PUBLIC	?epptr@?$basic_streambuf@DU?$char_traits@D@std@@@std@@IBEPADXZ ; std::basic_streambuf<char,std::char_traits<char> >::epptr
; Function compile flags: /Ogtpy
;	COMDAT ?epptr@?$basic_streambuf@DU?$char_traits@D@std@@@std@@IBEPADXZ
_TEXT	SEGMENT
?epptr@?$basic_streambuf@DU?$char_traits@D@std@@@std@@IBEPADXZ PROC ; std::basic_streambuf<char,std::char_traits<char> >::epptr, COMDAT
; _this$ = ecx

; 223  : 		return (*_IPnext + *_IPcount);

  00000	8b 41 34	 mov	 eax, DWORD PTR [ecx+52]
  00003	8b 49 24	 mov	 ecx, DWORD PTR [ecx+36]
  00006	8b 00		 mov	 eax, DWORD PTR [eax]
  00008	03 01		 add	 eax, DWORD PTR [ecx]

; 224  : 		}

  0000a	c3		 ret	 0
?epptr@?$basic_streambuf@DU?$char_traits@D@std@@@std@@IBEPADXZ ENDP ; std::basic_streambuf<char,std::char_traits<char> >::epptr
_TEXT	ENDS
PUBLIC	?setp@?$basic_streambuf@DU?$char_traits@D@std@@@std@@IAEXPAD0@Z ; std::basic_streambuf<char,std::char_traits<char> >::setp
; Function compile flags: /Ogtpy
;	COMDAT ?setp@?$basic_streambuf@DU?$char_traits@D@std@@@std@@IAEXPAD0@Z
_TEXT	SEGMENT
__First$ = 8						; size = 4
__Last$ = 12						; size = 4
?setp@?$basic_streambuf@DU?$char_traits@D@std@@@std@@IAEXPAD0@Z PROC ; std::basic_streambuf<char,std::char_traits<char> >::setp, COMDAT
; _this$ = ecx

; 257  : 		*_IPfirst = _First;

  00000	8b 51 14	 mov	 edx, DWORD PTR [ecx+20]
  00003	8b 44 24 04	 mov	 eax, DWORD PTR __First$[esp-4]
  00007	89 02		 mov	 DWORD PTR [edx], eax

; 258  : 		*_IPnext = _First;

  00009	8b 51 24	 mov	 edx, DWORD PTR [ecx+36]
  0000c	89 02		 mov	 DWORD PTR [edx], eax

; 259  : 		*_IPcount = (int)(_Last - _First);

  0000e	8b 54 24 08	 mov	 edx, DWORD PTR __Last$[esp-4]
  00012	2b d0		 sub	 edx, eax
  00014	8b 41 34	 mov	 eax, DWORD PTR [ecx+52]
  00017	89 10		 mov	 DWORD PTR [eax], edx

; 260  : 		}

  00019	c2 08 00	 ret	 8
?setp@?$basic_streambuf@DU?$char_traits@D@std@@@std@@IAEXPAD0@Z ENDP ; std::basic_streambuf<char,std::char_traits<char> >::setp
_TEXT	ENDS
PUBLIC	?setp@?$basic_streambuf@DU?$char_traits@D@std@@@std@@IAEXPAD00@Z ; std::basic_streambuf<char,std::char_traits<char> >::setp
; Function compile flags: /Ogtpy
;	COMDAT ?setp@?$basic_streambuf@DU?$char_traits@D@std@@@std@@IAEXPAD00@Z
_TEXT	SEGMENT
__First$ = 8						; size = 4
__Next$ = 12						; size = 4
__Last$ = 16						; size = 4
?setp@?$basic_streambuf@DU?$char_traits@D@std@@@std@@IAEXPAD00@Z PROC ; std::basic_streambuf<char,std::char_traits<char> >::setp, COMDAT
; _this$ = ecx

; 264  : 		*_IPfirst = _First;

  00000	8b 41 14	 mov	 eax, DWORD PTR [ecx+20]
  00003	8b 54 24 04	 mov	 edx, DWORD PTR __First$[esp-4]
  00007	89 10		 mov	 DWORD PTR [eax], edx

; 265  : 		*_IPnext = _Next;

  00009	8b 51 24	 mov	 edx, DWORD PTR [ecx+36]
  0000c	8b 44 24 08	 mov	 eax, DWORD PTR __Next$[esp-4]
  00010	89 02		 mov	 DWORD PTR [edx], eax

; 266  : 		*_IPcount = (int)(_Last - _Next);

  00012	8b 54 24 0c	 mov	 edx, DWORD PTR __Last$[esp-4]
  00016	2b d0		 sub	 edx, eax
  00018	8b 41 34	 mov	 eax, DWORD PTR [ecx+52]
  0001b	89 10		 mov	 DWORD PTR [eax], edx

; 267  : 		}

  0001d	c2 0c 00	 ret	 12			; 0000000cH
?setp@?$basic_streambuf@DU?$char_traits@D@std@@@std@@IAEXPAD00@Z ENDP ; std::basic_streambuf<char,std::char_traits<char> >::setp
_TEXT	ENDS
PUBLIC	?_Pninc@?$basic_streambuf@DU?$char_traits@D@std@@@std@@IAEPADXZ ; std::basic_streambuf<char,std::char_traits<char> >::_Pninc
; Function compile flags: /Ogtpy
;	COMDAT ?_Pninc@?$basic_streambuf@DU?$char_traits@D@std@@@std@@IAEPADXZ
_TEXT	SEGMENT
?_Pninc@?$basic_streambuf@DU?$char_traits@D@std@@@std@@IAEPADXZ PROC ; std::basic_streambuf<char,std::char_traits<char> >::_Pninc, COMDAT
; _this$ = ecx

; 271  : 		--*_IPcount;

  00000	8b 41 34	 mov	 eax, DWORD PTR [ecx+52]
  00003	ff 08		 dec	 DWORD PTR [eax]

; 272  : 		return ((*_IPnext)++);

  00005	8b 49 24	 mov	 ecx, DWORD PTR [ecx+36]
  00008	8b 01		 mov	 eax, DWORD PTR [ecx]
  0000a	8d 50 01	 lea	 edx, DWORD PTR [eax+1]
  0000d	89 11		 mov	 DWORD PTR [ecx], edx

; 273  : 		}

  0000f	c3		 ret	 0
?_Pninc@?$basic_streambuf@DU?$char_traits@D@std@@@std@@IAEPADXZ ENDP ; std::basic_streambuf<char,std::char_traits<char> >::_Pninc
_TEXT	ENDS
PUBLIC	?_Pnavail@?$basic_streambuf@DU?$char_traits@D@std@@@std@@IBEHXZ ; std::basic_streambuf<char,std::char_traits<char> >::_Pnavail
; Function compile flags: /Ogtpy
;	COMDAT ?_Pnavail@?$basic_streambuf@DU?$char_traits@D@std@@@std@@IBEHXZ
_TEXT	SEGMENT
?_Pnavail@?$basic_streambuf@DU?$char_traits@D@std@@@std@@IBEHXZ PROC ; std::basic_streambuf<char,std::char_traits<char> >::_Pnavail, COMDAT
; _this$ = ecx

; 277  : 		return (*_IPnext != 0 ? *_IPcount : 0);

  00000	8b 41 24	 mov	 eax, DWORD PTR [ecx+36]
  00003	83 38 00	 cmp	 DWORD PTR [eax], 0
  00006	74 06		 je	 SHORT $LN3@Pnavail
  00008	8b 49 34	 mov	 ecx, DWORD PTR [ecx+52]
  0000b	8b 01		 mov	 eax, DWORD PTR [ecx]

; 278  : 		}

  0000d	c3		 ret	 0
$LN3@Pnavail:

; 277  : 		return (*_IPnext != 0 ? *_IPcount : 0);

  0000e	33 c0		 xor	 eax, eax

; 278  : 		}

  00010	c3		 ret	 0
?_Pnavail@?$basic_streambuf@DU?$char_traits@D@std@@@std@@IBEHXZ ENDP ; std::basic_streambuf<char,std::char_traits<char> >::_Pnavail
_TEXT	ENDS
PUBLIC	?pubsync@?$basic_streambuf@_WU?$char_traits@_W@std@@@std@@QAEHXZ ; std::basic_streambuf<wchar_t,std::char_traits<wchar_t> >::pubsync
; Function compile flags: /Ogtpy
;	COMDAT ?pubsync@?$basic_streambuf@_WU?$char_traits@_W@std@@@std@@QAEHXZ
_TEXT	SEGMENT
?pubsync@?$basic_streambuf@_WU?$char_traits@_W@std@@@std@@QAEHXZ PROC ; std::basic_streambuf<wchar_t,std::char_traits<wchar_t> >::pubsync, COMDAT
; _this$ = ecx

; 100  : 		return (sync());

  00000	8b 01		 mov	 eax, DWORD PTR [ecx]
  00002	8b 50 30	 mov	 edx, DWORD PTR [eax+48]
  00005	ff e2		 jmp	 edx
?pubsync@?$basic_streambuf@_WU?$char_traits@_W@std@@@std@@QAEHXZ ENDP ; std::basic_streambuf<wchar_t,std::char_traits<wchar_t> >::pubsync
_TEXT	ENDS
PUBLIC	?_Unlock@?$basic_streambuf@_WU?$char_traits@_W@std@@@std@@QAEXXZ ; std::basic_streambuf<wchar_t,std::char_traits<wchar_t> >::_Unlock
; Function compile flags: /Ogtpy
;	COMDAT ?_Unlock@?$basic_streambuf@_WU?$char_traits@_W@std@@@std@@QAEXXZ
_TEXT	SEGMENT
?_Unlock@?$basic_streambuf@_WU?$char_traits@_W@std@@@std@@QAEXXZ PROC ; std::basic_streambuf<wchar_t,std::char_traits<wchar_t> >::_Unlock, COMDAT
; _this$ = ecx

; 178  : 		_Mylock._Unlock();

  00000	83 c1 04	 add	 ecx, 4
  00003	e9 00 00 00 00	 jmp	 ?_Unlock@_Mutex@std@@QAEXXZ ; std::_Mutex::_Unlock
?_Unlock@?$basic_streambuf@_WU?$char_traits@_W@std@@@std@@QAEXXZ ENDP ; std::basic_streambuf<wchar_t,std::char_traits<wchar_t> >::_Unlock
_TEXT	ENDS
PUBLIC	?eback@?$basic_streambuf@_WU?$char_traits@_W@std@@@std@@IBEPA_WXZ ; std::basic_streambuf<wchar_t,std::char_traits<wchar_t> >::eback
; Function compile flags: /Ogtpy
;	COMDAT ?eback@?$basic_streambuf@_WU?$char_traits@_W@std@@@std@@IBEPA_WXZ
_TEXT	SEGMENT
?eback@?$basic_streambuf@_WU?$char_traits@_W@std@@@std@@IBEPA_WXZ PROC ; std::basic_streambuf<wchar_t,std::char_traits<wchar_t> >::eback, COMDAT
; _this$ = ecx

; 185  : 		return (*_IGfirst);

  00000	8b 41 10	 mov	 eax, DWORD PTR [ecx+16]
  00003	8b 00		 mov	 eax, DWORD PTR [eax]

; 186  : 		}

  00005	c3		 ret	 0
?eback@?$basic_streambuf@_WU?$char_traits@_W@std@@@std@@IBEPA_WXZ ENDP ; std::basic_streambuf<wchar_t,std::char_traits<wchar_t> >::eback
_TEXT	ENDS
PUBLIC	?gptr@?$basic_streambuf@_WU?$char_traits@_W@std@@@std@@IBEPA_WXZ ; std::basic_streambuf<wchar_t,std::char_traits<wchar_t> >::gptr
; Function compile flags: /Ogtpy
;	COMDAT ?gptr@?$basic_streambuf@_WU?$char_traits@_W@std@@@std@@IBEPA_WXZ
_TEXT	SEGMENT
?gptr@?$basic_streambuf@_WU?$char_traits@_W@std@@@std@@IBEPA_WXZ PROC ; std::basic_streambuf<wchar_t,std::char_traits<wchar_t> >::gptr, COMDAT
; _this$ = ecx

; 190  : 		return (*_IGnext);

  00000	8b 41 20	 mov	 eax, DWORD PTR [ecx+32]
  00003	8b 00		 mov	 eax, DWORD PTR [eax]

; 191  : 		}

  00005	c3		 ret	 0
?gptr@?$basic_streambuf@_WU?$char_traits@_W@std@@@std@@IBEPA_WXZ ENDP ; std::basic_streambuf<wchar_t,std::char_traits<wchar_t> >::gptr
_TEXT	ENDS
PUBLIC	?pbase@?$basic_streambuf@_WU?$char_traits@_W@std@@@std@@IBEPA_WXZ ; std::basic_streambuf<wchar_t,std::char_traits<wchar_t> >::pbase
; Function compile flags: /Ogtpy
;	COMDAT ?pbase@?$basic_streambuf@_WU?$char_traits@_W@std@@@std@@IBEPA_WXZ
_TEXT	SEGMENT
?pbase@?$basic_streambuf@_WU?$char_traits@_W@std@@@std@@IBEPA_WXZ PROC ; std::basic_streambuf<wchar_t,std::char_traits<wchar_t> >::pbase, COMDAT
; _this$ = ecx

; 195  : 		return (*_IPfirst);

  00000	8b 41 14	 mov	 eax, DWORD PTR [ecx+20]
  00003	8b 00		 mov	 eax, DWORD PTR [eax]

; 196  : 		}

  00005	c3		 ret	 0
?pbase@?$basic_streambuf@_WU?$char_traits@_W@std@@@std@@IBEPA_WXZ ENDP ; std::basic_streambuf<wchar_t,std::char_traits<wchar_t> >::pbase
_TEXT	ENDS
PUBLIC	?pptr@?$basic_streambuf@_WU?$char_traits@_W@std@@@std@@IBEPA_WXZ ; std::basic_streambuf<wchar_t,std::char_traits<wchar_t> >::pptr
; Function compile flags: /Ogtpy
;	COMDAT ?pptr@?$basic_streambuf@_WU?$char_traits@_W@std@@@std@@IBEPA_WXZ
_TEXT	SEGMENT
?pptr@?$basic_streambuf@_WU?$char_traits@_W@std@@@std@@IBEPA_WXZ PROC ; std::basic_streambuf<wchar_t,std::char_traits<wchar_t> >::pptr, COMDAT
; _this$ = ecx

; 200  : 		return (*_IPnext);

  00000	8b 41 24	 mov	 eax, DWORD PTR [ecx+36]
  00003	8b 00		 mov	 eax, DWORD PTR [eax]

; 201  : 		}

  00005	c3		 ret	 0
?pptr@?$basic_streambuf@_WU?$char_traits@_W@std@@@std@@IBEPA_WXZ ENDP ; std::basic_streambuf<wchar_t,std::char_traits<wchar_t> >::pptr
_TEXT	ENDS
PUBLIC	?egptr@?$basic_streambuf@_WU?$char_traits@_W@std@@@std@@IBEPA_WXZ ; std::basic_streambuf<wchar_t,std::char_traits<wchar_t> >::egptr
; Function compile flags: /Ogtpy
;	COMDAT ?egptr@?$basic_streambuf@_WU?$char_traits@_W@std@@@std@@IBEPA_WXZ
_TEXT	SEGMENT
?egptr@?$basic_streambuf@_WU?$char_traits@_W@std@@@std@@IBEPA_WXZ PROC ; std::basic_streambuf<wchar_t,std::char_traits<wchar_t> >::egptr, COMDAT
; _this$ = ecx

; 205  : 		return (*_IGnext + *_IGcount);

  00000	8b 41 30	 mov	 eax, DWORD PTR [ecx+48]
  00003	8b 10		 mov	 edx, DWORD PTR [eax]
  00005	8b 41 20	 mov	 eax, DWORD PTR [ecx+32]
  00008	8b 08		 mov	 ecx, DWORD PTR [eax]
  0000a	8d 04 51	 lea	 eax, DWORD PTR [ecx+edx*2]

; 206  : 		}

  0000d	c3		 ret	 0
?egptr@?$basic_streambuf@_WU?$char_traits@_W@std@@@std@@IBEPA_WXZ ENDP ; std::basic_streambuf<wchar_t,std::char_traits<wchar_t> >::egptr
_TEXT	ENDS
PUBLIC	?setg@?$basic_streambuf@_WU?$char_traits@_W@std@@@std@@IAEXPA_W00@Z ; std::basic_streambuf<wchar_t,std::char_traits<wchar_t> >::setg
; Function compile flags: /Ogtpy
;	COMDAT ?setg@?$basic_streambuf@_WU?$char_traits@_W@std@@@std@@IAEXPA_W00@Z
_TEXT	SEGMENT
__First$ = 8						; size = 4
__Next$ = 12						; size = 4
__Last$ = 16						; size = 4
?setg@?$basic_streambuf@_WU?$char_traits@_W@std@@@std@@IAEXPA_W00@Z PROC ; std::basic_streambuf<wchar_t,std::char_traits<wchar_t> >::setg, COMDAT
; _this$ = ecx

; 216  : 		*_IGfirst = _First;

  00000	8b 41 10	 mov	 eax, DWORD PTR [ecx+16]
  00003	8b 54 24 04	 mov	 edx, DWORD PTR __First$[esp-4]
  00007	89 10		 mov	 DWORD PTR [eax], edx

; 217  : 		*_IGnext = _Next;

  00009	8b 51 20	 mov	 edx, DWORD PTR [ecx+32]
  0000c	8b 44 24 08	 mov	 eax, DWORD PTR __Next$[esp-4]
  00010	89 02		 mov	 DWORD PTR [edx], eax

; 218  : 		*_IGcount = (int)(_Last - _Next);

  00012	8b 54 24 0c	 mov	 edx, DWORD PTR __Last$[esp-4]
  00016	2b d0		 sub	 edx, eax
  00018	8b 41 30	 mov	 eax, DWORD PTR [ecx+48]
  0001b	d1 fa		 sar	 edx, 1
  0001d	89 10		 mov	 DWORD PTR [eax], edx

; 219  : 		}

  0001f	c2 0c 00	 ret	 12			; 0000000cH
?setg@?$basic_streambuf@_WU?$char_traits@_W@std@@@std@@IAEXPA_W00@Z ENDP ; std::basic_streambuf<wchar_t,std::char_traits<wchar_t> >::setg
_TEXT	ENDS
PUBLIC	?epptr@?$basic_streambuf@_WU?$char_traits@_W@std@@@std@@IBEPA_WXZ ; std::basic_streambuf<wchar_t,std::char_traits<wchar_t> >::epptr
; Function compile flags: /Ogtpy
;	COMDAT ?epptr@?$basic_streambuf@_WU?$char_traits@_W@std@@@std@@IBEPA_WXZ
_TEXT	SEGMENT
?epptr@?$basic_streambuf@_WU?$char_traits@_W@std@@@std@@IBEPA_WXZ PROC ; std::basic_streambuf<wchar_t,std::char_traits<wchar_t> >::epptr, COMDAT
; _this$ = ecx

; 223  : 		return (*_IPnext + *_IPcount);

  00000	8b 41 34	 mov	 eax, DWORD PTR [ecx+52]
  00003	8b 10		 mov	 edx, DWORD PTR [eax]
  00005	8b 41 24	 mov	 eax, DWORD PTR [ecx+36]
  00008	8b 08		 mov	 ecx, DWORD PTR [eax]
  0000a	8d 04 51	 lea	 eax, DWORD PTR [ecx+edx*2]

; 224  : 		}

  0000d	c3		 ret	 0
?epptr@?$basic_streambuf@_WU?$char_traits@_W@std@@@std@@IBEPA_WXZ ENDP ; std::basic_streambuf<wchar_t,std::char_traits<wchar_t> >::epptr
_TEXT	ENDS
PUBLIC	?setp@?$basic_streambuf@_WU?$char_traits@_W@std@@@std@@IAEXPA_W0@Z ; std::basic_streambuf<wchar_t,std::char_traits<wchar_t> >::setp
; Function compile flags: /Ogtpy
;	COMDAT ?setp@?$basic_streambuf@_WU?$char_traits@_W@std@@@std@@IAEXPA_W0@Z
_TEXT	SEGMENT
__First$ = 8						; size = 4
__Last$ = 12						; size = 4
?setp@?$basic_streambuf@_WU?$char_traits@_W@std@@@std@@IAEXPA_W0@Z PROC ; std::basic_streambuf<wchar_t,std::char_traits<wchar_t> >::setp, COMDAT
; _this$ = ecx

; 257  : 		*_IPfirst = _First;

  00000	8b 51 14	 mov	 edx, DWORD PTR [ecx+20]
  00003	8b 44 24 04	 mov	 eax, DWORD PTR __First$[esp-4]
  00007	89 02		 mov	 DWORD PTR [edx], eax

; 258  : 		*_IPnext = _First;

  00009	8b 51 24	 mov	 edx, DWORD PTR [ecx+36]
  0000c	89 02		 mov	 DWORD PTR [edx], eax

; 259  : 		*_IPcount = (int)(_Last - _First);

  0000e	8b 54 24 08	 mov	 edx, DWORD PTR __Last$[esp-4]
  00012	2b d0		 sub	 edx, eax
  00014	8b 41 34	 mov	 eax, DWORD PTR [ecx+52]
  00017	d1 fa		 sar	 edx, 1
  00019	89 10		 mov	 DWORD PTR [eax], edx

; 260  : 		}

  0001b	c2 08 00	 ret	 8
?setp@?$basic_streambuf@_WU?$char_traits@_W@std@@@std@@IAEXPA_W0@Z ENDP ; std::basic_streambuf<wchar_t,std::char_traits<wchar_t> >::setp
_TEXT	ENDS
PUBLIC	?setp@?$basic_streambuf@_WU?$char_traits@_W@std@@@std@@IAEXPA_W00@Z ; std::basic_streambuf<wchar_t,std::char_traits<wchar_t> >::setp
; Function compile flags: /Ogtpy
;	COMDAT ?setp@?$basic_streambuf@_WU?$char_traits@_W@std@@@std@@IAEXPA_W00@Z
_TEXT	SEGMENT
__First$ = 8						; size = 4
__Next$ = 12						; size = 4
__Last$ = 16						; size = 4
?setp@?$basic_streambuf@_WU?$char_traits@_W@std@@@std@@IAEXPA_W00@Z PROC ; std::basic_streambuf<wchar_t,std::char_traits<wchar_t> >::setp, COMDAT
; _this$ = ecx

; 264  : 		*_IPfirst = _First;

  00000	8b 41 14	 mov	 eax, DWORD PTR [ecx+20]
  00003	8b 54 24 04	 mov	 edx, DWORD PTR __First$[esp-4]
  00007	89 10		 mov	 DWORD PTR [eax], edx

; 265  : 		*_IPnext = _Next;

  00009	8b 51 24	 mov	 edx, DWORD PTR [ecx+36]
  0000c	8b 44 24 08	 mov	 eax, DWORD PTR __Next$[esp-4]
  00010	89 02		 mov	 DWORD PTR [edx], eax

; 266  : 		*_IPcount = (int)(_Last - _Next);

  00012	8b 54 24 0c	 mov	 edx, DWORD PTR __Last$[esp-4]
  00016	2b d0		 sub	 edx, eax
  00018	8b 41 34	 mov	 eax, DWORD PTR [ecx+52]
  0001b	d1 fa		 sar	 edx, 1
  0001d	89 10		 mov	 DWORD PTR [eax], edx

; 267  : 		}

  0001f	c2 0c 00	 ret	 12			; 0000000cH
?setp@?$basic_streambuf@_WU?$char_traits@_W@std@@@std@@IAEXPA_W00@Z ENDP ; std::basic_streambuf<wchar_t,std::char_traits<wchar_t> >::setp
_TEXT	ENDS
PUBLIC	?_Pninc@?$basic_streambuf@_WU?$char_traits@_W@std@@@std@@IAEPA_WXZ ; std::basic_streambuf<wchar_t,std::char_traits<wchar_t> >::_Pninc
; Function compile flags: /Ogtpy
;	COMDAT ?_Pninc@?$basic_streambuf@_WU?$char_traits@_W@std@@@std@@IAEPA_WXZ
_TEXT	SEGMENT
?_Pninc@?$basic_streambuf@_WU?$char_traits@_W@std@@@std@@IAEPA_WXZ PROC ; std::basic_streambuf<wchar_t,std::char_traits<wchar_t> >::_Pninc, COMDAT
; _this$ = ecx

; 271  : 		--*_IPcount;

  00000	8b 41 34	 mov	 eax, DWORD PTR [ecx+52]
  00003	ff 08		 dec	 DWORD PTR [eax]

; 272  : 		return ((*_IPnext)++);

  00005	8b 49 24	 mov	 ecx, DWORD PTR [ecx+36]
  00008	8b 01		 mov	 eax, DWORD PTR [ecx]
  0000a	8d 50 02	 lea	 edx, DWORD PTR [eax+2]
  0000d	89 11		 mov	 DWORD PTR [ecx], edx

; 273  : 		}

  0000f	c3		 ret	 0
?_Pninc@?$basic_streambuf@_WU?$char_traits@_W@std@@@std@@IAEPA_WXZ ENDP ; std::basic_streambuf<wchar_t,std::char_traits<wchar_t> >::_Pninc
_TEXT	ENDS
PUBLIC	?_Pnavail@?$basic_streambuf@_WU?$char_traits@_W@std@@@std@@IBEHXZ ; std::basic_streambuf<wchar_t,std::char_traits<wchar_t> >::_Pnavail
; Function compile flags: /Ogtpy
;	COMDAT ?_Pnavail@?$basic_streambuf@_WU?$char_traits@_W@std@@@std@@IBEHXZ
_TEXT	SEGMENT
?_Pnavail@?$basic_streambuf@_WU?$char_traits@_W@std@@@std@@IBEHXZ PROC ; std::basic_streambuf<wchar_t,std::char_traits<wchar_t> >::_Pnavail, COMDAT
; _this$ = ecx

; 277  : 		return (*_IPnext != 0 ? *_IPcount : 0);

  00000	8b 41 24	 mov	 eax, DWORD PTR [ecx+36]
  00003	83 38 00	 cmp	 DWORD PTR [eax], 0
  00006	74 06		 je	 SHORT $LN3@Pnavail@2
  00008	8b 49 34	 mov	 ecx, DWORD PTR [ecx+52]
  0000b	8b 01		 mov	 eax, DWORD PTR [ecx]

; 278  : 		}

  0000d	c3		 ret	 0
$LN3@Pnavail@2:

; 277  : 		return (*_IPnext != 0 ? *_IPcount : 0);

  0000e	33 c0		 xor	 eax, eax

; 278  : 		}

  00010	c3		 ret	 0
?_Pnavail@?$basic_streambuf@_WU?$char_traits@_W@std@@@std@@IBEHXZ ENDP ; std::basic_streambuf<wchar_t,std::char_traits<wchar_t> >::_Pnavail
_TEXT	ENDS
PUBLIC	?get@?$auto_ptr@UGetPinFunctor@CipherShed@@@std@@QBEPAUGetPinFunctor@CipherShed@@XZ ; std::auto_ptr<CipherShed::GetPinFunctor>::get
; Function compile flags: /Ogtpy
; File c:\program files (x86)\microsoft visual studio 9.0\vc\include\memory
;	COMDAT ?get@?$auto_ptr@UGetPinFunctor@CipherShed@@@std@@QBEPAUGetPinFunctor@CipherShed@@XZ
_TEXT	SEGMENT
?get@?$auto_ptr@UGetPinFunctor@CipherShed@@@std@@QBEPAUGetPinFunctor@CipherShed@@XZ PROC ; std::auto_ptr<CipherShed::GetPinFunctor>::get, COMDAT
; _this$ = ecx

; 750  : 		return (_Myptr);

  00000	8b 01		 mov	 eax, DWORD PTR [ecx]

; 751  : 		}

  00002	c3		 ret	 0
?get@?$auto_ptr@UGetPinFunctor@CipherShed@@@std@@QBEPAUGetPinFunctor@CipherShed@@XZ ENDP ; std::auto_ptr<CipherShed::GetPinFunctor>::get
_TEXT	ENDS
PUBLIC	?release@?$auto_ptr@UGetPinFunctor@CipherShed@@@std@@QAEPAUGetPinFunctor@CipherShed@@XZ ; std::auto_ptr<CipherShed::GetPinFunctor>::release
; Function compile flags: /Ogtpy
;	COMDAT ?release@?$auto_ptr@UGetPinFunctor@CipherShed@@@std@@QAEPAUGetPinFunctor@CipherShed@@XZ
_TEXT	SEGMENT
?release@?$auto_ptr@UGetPinFunctor@CipherShed@@@std@@QAEPAUGetPinFunctor@CipherShed@@XZ PROC ; std::auto_ptr<CipherShed::GetPinFunctor>::release, COMDAT
; _this$ = ecx

; 755  : 		_Ty *_Tmp = _Myptr;

  00000	8b 01		 mov	 eax, DWORD PTR [ecx]

; 756  : 		_Myptr = 0;

  00002	c7 01 00 00 00
	00		 mov	 DWORD PTR [ecx], 0

; 757  : 		return (_Tmp);
; 758  : 		}

  00008	c3		 ret	 0
?release@?$auto_ptr@UGetPinFunctor@CipherShed@@@std@@QAEPAUGetPinFunctor@CipherShed@@XZ ENDP ; std::auto_ptr<CipherShed::GetPinFunctor>::release
_TEXT	ENDS
PUBLIC	?reset@?$auto_ptr@UGetPinFunctor@CipherShed@@@std@@QAEXPAUGetPinFunctor@CipherShed@@@Z ; std::auto_ptr<CipherShed::GetPinFunctor>::reset
; Function compile flags: /Ogtpy
;	COMDAT ?reset@?$auto_ptr@UGetPinFunctor@CipherShed@@@std@@QAEXPAUGetPinFunctor@CipherShed@@@Z
_TEXT	SEGMENT
__Ptr$ = 8						; size = 4
?reset@?$auto_ptr@UGetPinFunctor@CipherShed@@@std@@QAEXPAUGetPinFunctor@CipherShed@@@Z PROC ; std::auto_ptr<CipherShed::GetPinFunctor>::reset, COMDAT
; _this$ = ecx

; 761  : 		{	// destroy designated object and store new pointer

  00000	56		 push	 esi
  00001	8b f1		 mov	 esi, ecx

; 762  : 		if (_Ptr != _Myptr)

  00003	8b 0e		 mov	 ecx, DWORD PTR [esi]
  00005	57		 push	 edi
  00006	8b 7c 24 0c	 mov	 edi, DWORD PTR __Ptr$[esp+4]
  0000a	3b f9		 cmp	 edi, ecx
  0000c	74 0c		 je	 SHORT $LN7@reset

; 763  : 			delete _Myptr;

  0000e	85 c9		 test	 ecx, ecx
  00010	74 08		 je	 SHORT $LN7@reset
  00012	8b 01		 mov	 eax, DWORD PTR [ecx]
  00014	8b 10		 mov	 edx, DWORD PTR [eax]
  00016	6a 01		 push	 1
  00018	ff d2		 call	 edx
$LN7@reset:

; 764  : 		_Myptr = _Ptr;

  0001a	89 3e		 mov	 DWORD PTR [esi], edi
  0001c	5f		 pop	 edi
  0001d	5e		 pop	 esi

; 765  : 		}

  0001e	c2 04 00	 ret	 4
?reset@?$auto_ptr@UGetPinFunctor@CipherShed@@@std@@QAEXPAUGetPinFunctor@CipherShed@@@Z ENDP ; std::auto_ptr<CipherShed::GetPinFunctor>::reset
_TEXT	ENDS
PUBLIC	?_Color@?$_Tree@V?$_Tmap_traits@KUPkcs11Session@CipherShed@@U?$less@K@std@@V?$allocator@U?$pair@$$CBKUPkcs11Session@CipherShed@@@std@@@4@$0A@@std@@@std@@KAAADPAU_Node@?$_Tree_nod@V?$_Tmap_traits@KUPkcs11Session@CipherShed@@U?$less@K@std@@V?$allocator@U?$pair@$$CBKUPkcs11Session@CipherShed@@@std@@@4@$0A@@std@@@2@@Z ; std::_Tree<std::_Tmap_traits<unsigned long,CipherShed::Pkcs11Session,std::less<unsigned long>,std::allocator<std::pair<unsigned long const ,CipherShed::Pkcs11Session> >,0> >::_Color
; Function compile flags: /Ogtpy
; File c:\program files (x86)\microsoft visual studio 9.0\vc\include\xtree
;	COMDAT ?_Color@?$_Tree@V?$_Tmap_traits@KUPkcs11Session@CipherShed@@U?$less@K@std@@V?$allocator@U?$pair@$$CBKUPkcs11Session@CipherShed@@@std@@@4@$0A@@std@@@std@@KAAADPAU_Node@?$_Tree_nod@V?$_Tmap_traits@KUPkcs11Session@CipherShed@@U?$less@K@std@@V?$allocator@U?$pair@$$CBKUPkcs11Session@CipherShed@@@std@@@4@$0A@@std@@@2@@Z
_TEXT	SEGMENT
__Pnode$ = 8						; size = 4
?_Color@?$_Tree@V?$_Tmap_traits@KUPkcs11Session@CipherShed@@U?$less@K@std@@V?$allocator@U?$pair@$$CBKUPkcs11Session@CipherShed@@@std@@@4@$0A@@std@@@std@@KAAADPAU_Node@?$_Tree_nod@V?$_Tmap_traits@KUPkcs11Session@CipherShed@@U?$less@K@std@@V?$allocator@U?$pair@$$CBKUPkcs11Session@CipherShed@@@std@@@4@$0A@@std@@@2@@Z PROC ; std::_Tree<std::_Tmap_traits<unsigned long,CipherShed::Pkcs11Session,std::less<unsigned long>,std::allocator<std::pair<unsigned long const ,CipherShed::Pkcs11Session> >,0> >::_Color, COMDAT

; 152  : 		return ((_Charref)(*_Pnode)._Color);

  00000	8b 44 24 04	 mov	 eax, DWORD PTR __Pnode$[esp-4]
  00004	83 c0 18	 add	 eax, 24			; 00000018H

; 153  : 		}

  00007	c3		 ret	 0
?_Color@?$_Tree@V?$_Tmap_traits@KUPkcs11Session@CipherShed@@U?$less@K@std@@V?$allocator@U?$pair@$$CBKUPkcs11Session@CipherShed@@@std@@@4@$0A@@std@@@std@@KAAADPAU_Node@?$_Tree_nod@V?$_Tmap_traits@KUPkcs11Session@CipherShed@@U?$less@K@std@@V?$allocator@U?$pair@$$CBKUPkcs11Session@CipherShed@@@std@@@4@$0A@@std@@@2@@Z ENDP ; std::_Tree<std::_Tmap_traits<unsigned long,CipherShed::Pkcs11Session,std::less<unsigned long>,std::allocator<std::pair<unsigned long const ,CipherShed::Pkcs11Session> >,0> >::_Color
_TEXT	ENDS
PUBLIC	?_Isnil@?$_Tree@V?$_Tmap_traits@KUPkcs11Session@CipherShed@@U?$less@K@std@@V?$allocator@U?$pair@$$CBKUPkcs11Session@CipherShed@@@std@@@4@$0A@@std@@@std@@KAAADPAU_Node@?$_Tree_nod@V?$_Tmap_traits@KUPkcs11Session@CipherShed@@U?$less@K@std@@V?$allocator@U?$pair@$$CBKUPkcs11Session@CipherShed@@@std@@@4@$0A@@std@@@2@@Z ; std::_Tree<std::_Tmap_traits<unsigned long,CipherShed::Pkcs11Session,std::less<unsigned long>,std::allocator<std::pair<unsigned long const ,CipherShed::Pkcs11Session> >,0> >::_Isnil
; Function compile flags: /Ogtpy
;	COMDAT ?_Isnil@?$_Tree@V?$_Tmap_traits@KUPkcs11Session@CipherShed@@U?$less@K@std@@V?$allocator@U?$pair@$$CBKUPkcs11Session@CipherShed@@@std@@@4@$0A@@std@@@std@@KAAADPAU_Node@?$_Tree_nod@V?$_Tmap_traits@KUPkcs11Session@CipherShed@@U?$less@K@std@@V?$allocator@U?$pair@$$CBKUPkcs11Session@CipherShed@@@std@@@4@$0A@@std@@@2@@Z
_TEXT	SEGMENT
__Pnode$ = 8						; size = 4
?_Isnil@?$_Tree@V?$_Tmap_traits@KUPkcs11Session@CipherShed@@U?$less@K@std@@V?$allocator@U?$pair@$$CBKUPkcs11Session@CipherShed@@@std@@@4@$0A@@std@@@std@@KAAADPAU_Node@?$_Tree_nod@V?$_Tmap_traits@KUPkcs11Session@CipherShed@@U?$less@K@std@@V?$allocator@U?$pair@$$CBKUPkcs11Session@CipherShed@@@std@@@4@$0A@@std@@@2@@Z PROC ; std::_Tree<std::_Tmap_traits<unsigned long,CipherShed::Pkcs11Session,std::less<unsigned long>,std::allocator<std::pair<unsigned long const ,CipherShed::Pkcs11Session> >,0> >::_Isnil, COMDAT

; 157  : 		return ((_Charref)(*_Pnode)._Isnil);

  00000	8b 44 24 04	 mov	 eax, DWORD PTR __Pnode$[esp-4]
  00004	83 c0 19	 add	 eax, 25			; 00000019H

; 158  : 		}

  00007	c3		 ret	 0
?_Isnil@?$_Tree@V?$_Tmap_traits@KUPkcs11Session@CipherShed@@U?$less@K@std@@V?$allocator@U?$pair@$$CBKUPkcs11Session@CipherShed@@@std@@@4@$0A@@std@@@std@@KAAADPAU_Node@?$_Tree_nod@V?$_Tmap_traits@KUPkcs11Session@CipherShed@@U?$less@K@std@@V?$allocator@U?$pair@$$CBKUPkcs11Session@CipherShed@@@std@@@4@$0A@@std@@@2@@Z ENDP ; std::_Tree<std::_Tmap_traits<unsigned long,CipherShed::Pkcs11Session,std::less<unsigned long>,std::allocator<std::pair<unsigned long const ,CipherShed::Pkcs11Session> >,0> >::_Isnil
_TEXT	ENDS
PUBLIC	?_Left@?$_Tree@V?$_Tmap_traits@KUPkcs11Session@CipherShed@@U?$less@K@std@@V?$allocator@U?$pair@$$CBKUPkcs11Session@CipherShed@@@std@@@4@$0A@@std@@@std@@KAAAPAU_Node@?$_Tree_nod@V?$_Tmap_traits@KUPkcs11Session@CipherShed@@U?$less@K@std@@V?$allocator@U?$pair@$$CBKUPkcs11Session@CipherShed@@@std@@@4@$0A@@std@@@2@PAU342@@Z ; std::_Tree<std::_Tmap_traits<unsigned long,CipherShed::Pkcs11Session,std::less<unsigned long>,std::allocator<std::pair<unsigned long const ,CipherShed::Pkcs11Session> >,0> >::_Left
; Function compile flags: /Ogtpy
;	COMDAT ?_Left@?$_Tree@V?$_Tmap_traits@KUPkcs11Session@CipherShed@@U?$less@K@std@@V?$allocator@U?$pair@$$CBKUPkcs11Session@CipherShed@@@std@@@4@$0A@@std@@@std@@KAAAPAU_Node@?$_Tree_nod@V?$_Tmap_traits@KUPkcs11Session@CipherShed@@U?$less@K@std@@V?$allocator@U?$pair@$$CBKUPkcs11Session@CipherShed@@@std@@@4@$0A@@std@@@2@PAU342@@Z
_TEXT	SEGMENT
__Pnode$ = 8						; size = 4
?_Left@?$_Tree@V?$_Tmap_traits@KUPkcs11Session@CipherShed@@U?$less@K@std@@V?$allocator@U?$pair@$$CBKUPkcs11Session@CipherShed@@@std@@@4@$0A@@std@@@std@@KAAAPAU_Node@?$_Tree_nod@V?$_Tmap_traits@KUPkcs11Session@CipherShed@@U?$less@K@std@@V?$allocator@U?$pair@$$CBKUPkcs11Session@CipherShed@@@std@@@4@$0A@@std@@@2@PAU342@@Z PROC ; std::_Tree<std::_Tmap_traits<unsigned long,CipherShed::Pkcs11Session,std::less<unsigned long>,std::allocator<std::pair<unsigned long const ,CipherShed::Pkcs11Session> >,0> >::_Left, COMDAT

; 167  : 		return ((_Nodepref)(*_Pnode)._Left);

  00000	8b 44 24 04	 mov	 eax, DWORD PTR __Pnode$[esp-4]

; 168  : 		}

  00004	c3		 ret	 0
?_Left@?$_Tree@V?$_Tmap_traits@KUPkcs11Session@CipherShed@@U?$less@K@std@@V?$allocator@U?$pair@$$CBKUPkcs11Session@CipherShed@@@std@@@4@$0A@@std@@@std@@KAAAPAU_Node@?$_Tree_nod@V?$_Tmap_traits@KUPkcs11Session@CipherShed@@U?$less@K@std@@V?$allocator@U?$pair@$$CBKUPkcs11Session@CipherShed@@@std@@@4@$0A@@std@@@2@PAU342@@Z ENDP ; std::_Tree<std::_Tmap_traits<unsigned long,CipherShed::Pkcs11Session,std::less<unsigned long>,std::allocator<std::pair<unsigned long const ,CipherShed::Pkcs11Session> >,0> >::_Left
_TEXT	ENDS
PUBLIC	?_Parent@?$_Tree@V?$_Tmap_traits@KUPkcs11Session@CipherShed@@U?$less@K@std@@V?$allocator@U?$pair@$$CBKUPkcs11Session@CipherShed@@@std@@@4@$0A@@std@@@std@@KAAAPAU_Node@?$_Tree_nod@V?$_Tmap_traits@KUPkcs11Session@CipherShed@@U?$less@K@std@@V?$allocator@U?$pair@$$CBKUPkcs11Session@CipherShed@@@std@@@4@$0A@@std@@@2@PAU342@@Z ; std::_Tree<std::_Tmap_traits<unsigned long,CipherShed::Pkcs11Session,std::less<unsigned long>,std::allocator<std::pair<unsigned long const ,CipherShed::Pkcs11Session> >,0> >::_Parent
; Function compile flags: /Ogtpy
;	COMDAT ?_Parent@?$_Tree@V?$_Tmap_traits@KUPkcs11Session@CipherShed@@U?$less@K@std@@V?$allocator@U?$pair@$$CBKUPkcs11Session@CipherShed@@@std@@@4@$0A@@std@@@std@@KAAAPAU_Node@?$_Tree_nod@V?$_Tmap_traits@KUPkcs11Session@CipherShed@@U?$less@K@std@@V?$allocator@U?$pair@$$CBKUPkcs11Session@CipherShed@@@std@@@4@$0A@@std@@@2@PAU342@@Z
_TEXT	SEGMENT
__Pnode$ = 8						; size = 4
?_Parent@?$_Tree@V?$_Tmap_traits@KUPkcs11Session@CipherShed@@U?$less@K@std@@V?$allocator@U?$pair@$$CBKUPkcs11Session@CipherShed@@@std@@@4@$0A@@std@@@std@@KAAAPAU_Node@?$_Tree_nod@V?$_Tmap_traits@KUPkcs11Session@CipherShed@@U?$less@K@std@@V?$allocator@U?$pair@$$CBKUPkcs11Session@CipherShed@@@std@@@4@$0A@@std@@@2@PAU342@@Z PROC ; std::_Tree<std::_Tmap_traits<unsigned long,CipherShed::Pkcs11Session,std::less<unsigned long>,std::allocator<std::pair<unsigned long const ,CipherShed::Pkcs11Session> >,0> >::_Parent, COMDAT

; 172  : 		return ((_Nodepref)(*_Pnode)._Parent);

  00000	8b 44 24 04	 mov	 eax, DWORD PTR __Pnode$[esp-4]
  00004	83 c0 04	 add	 eax, 4

; 173  : 		}

  00007	c3		 ret	 0
?_Parent@?$_Tree@V?$_Tmap_traits@KUPkcs11Session@CipherShed@@U?$less@K@std@@V?$allocator@U?$pair@$$CBKUPkcs11Session@CipherShed@@@std@@@4@$0A@@std@@@std@@KAAAPAU_Node@?$_Tree_nod@V?$_Tmap_traits@KUPkcs11Session@CipherShed@@U?$less@K@std@@V?$allocator@U?$pair@$$CBKUPkcs11Session@CipherShed@@@std@@@4@$0A@@std@@@2@PAU342@@Z ENDP ; std::_Tree<std::_Tmap_traits<unsigned long,CipherShed::Pkcs11Session,std::less<unsigned long>,std::allocator<std::pair<unsigned long const ,CipherShed::Pkcs11Session> >,0> >::_Parent
_TEXT	ENDS
PUBLIC	?_Right@?$_Tree@V?$_Tmap_traits@KUPkcs11Session@CipherShed@@U?$less@K@std@@V?$allocator@U?$pair@$$CBKUPkcs11Session@CipherShed@@@std@@@4@$0A@@std@@@std@@KAAAPAU_Node@?$_Tree_nod@V?$_Tmap_traits@KUPkcs11Session@CipherShed@@U?$less@K@std@@V?$allocator@U?$pair@$$CBKUPkcs11Session@CipherShed@@@std@@@4@$0A@@std@@@2@PAU342@@Z ; std::_Tree<std::_Tmap_traits<unsigned long,CipherShed::Pkcs11Session,std::less<unsigned long>,std::allocator<std::pair<unsigned long const ,CipherShed::Pkcs11Session> >,0> >::_Right
; Function compile flags: /Ogtpy
;	COMDAT ?_Right@?$_Tree@V?$_Tmap_traits@KUPkcs11Session@CipherShed@@U?$less@K@std@@V?$allocator@U?$pair@$$CBKUPkcs11Session@CipherShed@@@std@@@4@$0A@@std@@@std@@KAAAPAU_Node@?$_Tree_nod@V?$_Tmap_traits@KUPkcs11Session@CipherShed@@U?$less@K@std@@V?$allocator@U?$pair@$$CBKUPkcs11Session@CipherShed@@@std@@@4@$0A@@std@@@2@PAU342@@Z
_TEXT	SEGMENT
__Pnode$ = 8						; size = 4
?_Right@?$_Tree@V?$_Tmap_traits@KUPkcs11Session@CipherShed@@U?$less@K@std@@V?$allocator@U?$pair@$$CBKUPkcs11Session@CipherShed@@@std@@@4@$0A@@std@@@std@@KAAAPAU_Node@?$_Tree_nod@V?$_Tmap_traits@KUPkcs11Session@CipherShed@@U?$less@K@std@@V?$allocator@U?$pair@$$CBKUPkcs11Session@CipherShed@@@std@@@4@$0A@@std@@@2@PAU342@@Z PROC ; std::_Tree<std::_Tmap_traits<unsigned long,CipherShed::Pkcs11Session,std::less<unsigned long>,std::allocator<std::pair<unsigned long const ,CipherShed::Pkcs11Session> >,0> >::_Right, COMDAT

; 177  : 		return ((_Nodepref)(*_Pnode)._Right);

  00000	8b 44 24 04	 mov	 eax, DWORD PTR __Pnode$[esp-4]
  00004	83 c0 08	 add	 eax, 8

; 178  : 		}

  00007	c3		 ret	 0
?_Right@?$_Tree@V?$_Tmap_traits@KUPkcs11Session@CipherShed@@U?$less@K@std@@V?$allocator@U?$pair@$$CBKUPkcs11Session@CipherShed@@@std@@@4@$0A@@std@@@std@@KAAAPAU_Node@?$_Tree_nod@V?$_Tmap_traits@KUPkcs11Session@CipherShed@@U?$less@K@std@@V?$allocator@U?$pair@$$CBKUPkcs11Session@CipherShed@@@std@@@4@$0A@@std@@@2@PAU342@@Z ENDP ; std::_Tree<std::_Tmap_traits<unsigned long,CipherShed::Pkcs11Session,std::less<unsigned long>,std::allocator<std::pair<unsigned long const ,CipherShed::Pkcs11Session> >,0> >::_Right
_TEXT	ENDS
PUBLIC	?_Myval@?$_Tree@V?$_Tmap_traits@KUPkcs11Session@CipherShed@@U?$less@K@std@@V?$allocator@U?$pair@$$CBKUPkcs11Session@CipherShed@@@std@@@4@$0A@@std@@@std@@KAAAU?$pair@$$CBKUPkcs11Session@CipherShed@@@2@PAU_Node@?$_Tree_nod@V?$_Tmap_traits@KUPkcs11Session@CipherShed@@U?$less@K@std@@V?$allocator@U?$pair@$$CBKUPkcs11Session@CipherShed@@@std@@@4@$0A@@std@@@2@@Z ; std::_Tree<std::_Tmap_traits<unsigned long,CipherShed::Pkcs11Session,std::less<unsigned long>,std::allocator<std::pair<unsigned long const ,CipherShed::Pkcs11Session> >,0> >::_Myval
; Function compile flags: /Ogtpy
;	COMDAT ?_Myval@?$_Tree@V?$_Tmap_traits@KUPkcs11Session@CipherShed@@U?$less@K@std@@V?$allocator@U?$pair@$$CBKUPkcs11Session@CipherShed@@@std@@@4@$0A@@std@@@std@@KAAAU?$pair@$$CBKUPkcs11Session@CipherShed@@@2@PAU_Node@?$_Tree_nod@V?$_Tmap_traits@KUPkcs11Session@CipherShed@@U?$less@K@std@@V?$allocator@U?$pair@$$CBKUPkcs11Session@CipherShed@@@std@@@4@$0A@@std@@@2@@Z
_TEXT	SEGMENT
__Pnode$ = 8						; size = 4
