; Listing generated by Microsoft (R) Optimizing Compiler Version 15.00.30729.207 

include listing.inc

INCLUDELIB OLDNAMES

S	DD	030fb40d4H
	DD	09fa0ff0bH
	DD	06beccd2fH
	DD	03f258c7aH
	DD	01e213f2fH
	DD	09c004dd3H
	DD	06003e540H
	DD	0cf9fc949H
	DD	0bfd4af27H
	DD	088bbbdb5H
	DD	0e2034090H
	DD	098d09675H
	DD	06e63a0e0H
	DD	015c361d2H
	DD	0c2e7661dH
	DD	022d4ff8eH
	DD	028683b6fH
	DD	0c07fd059H
	DD	0ff2379c8H
	DD	0775f50e2H
	DD	043c340d3H
	DD	0df2f8656H
	DD	0887ca41aH
	DD	0a2d2bd2dH
	DD	0a1c9e0d6H
	DD	0346c4819H
	DD	061b76d87H
	DD	022540f2fH
	DD	02abe32e1H
	DD	0aa54166bH
	DD	022568e3aH
	DD	0a2d341d0H
	DD	066db40c8H
	DD	0a784392fH
	DD	04dff2fH
	DD	02db9d2deH
	DD	097943facH
	DD	04a97c1d8H
	DD	0527644b7H
	DD	0b5f437a7H
	DD	0b82cbaefH
	DD	0d751d159H
	DD	06ff7f0edH
	DD	05a097a1fH
	DD	0827b68d0H
	DD	090ecf52eH
	DD	022b0c054H
	DD	0bc8e5935H
	DD	04b6d2f7fH
	DD	050bb64a2H
	DD	0d2664910H
	DD	0bee5812dH
	DD	0b7332290H
	DD	0e93b159fH
	DD	0b48ee411H
	DD	04bff345dH
	DD	0fd45c240H
	DD	0ad31973fH
	DD	0c4f6d02eH
	DD	055fc8165H
	DD	0d5b1caadH
	DD	0a1ac2daeH
	DD	0a2d4b76dH
	DD	0c19b0c50H
	DD	0882240f2H
	DD	0c6e4f38H
	DD	0a4e4bfd7H
	DD	04f5ba272H
	DD	0564c1d2fH
	DD	0c59c5319H
	DD	0b949e354H
	DD	0b04669feH
	DD	0b1b6ab8aH
	DD	0c71358ddH
	DD	06385c545H
	DD	0110f935dH
	DD	057538ad5H
	DD	06a390493H
	DD	0e63d37e0H
	DD	02a54f6b3H
	DD	03a787d5fH
	DD	06276a0b5H
	DD	019a6fcdfH
	DD	07a42206aH
	DD	029f9d4d5H
	DD	0f61b1891H
	DD	0bb72275eH
	DD	0aa508167H
	DD	038901091H
	DD	0c6b505ebH
	DD	084c7cb8cH
	DD	02ad75a0fH
	DD	0874a1427H
	DD	0a2d1936bH
	DD	02ad286afH
	DD	0aa56d291H
	DD	0d7894360H
	DD	0425c750dH
	DD	093b39e26H
	DD	0187184c9H
	DD	06c00b32dH
	DD	073e2bb14H
	DD	0a0bebc3cH
	DD	054623779H
	DD	064459eabH
	DD	03f328b82H
	DD	07718cf82H
	DD	059a2cea6H
	DD	04ee002eH
	DD	089fe78e6H
	DD	03fab0950H
	DD	0325ff6c2H
	DD	081383f05H
	DD	06963c5c8H
	DD	076cb5ad6H
	DD	0d49974c9H
	DD	0ca180dcfH
	DD	0380782d5H
	DD	0c7fa5cf6H
	DD	08ac31511H
	DD	035e79e13H
	DD	047da91d0H
	DD	0f40f9086H
	DD	0a7e2419eH
	DD	031366241H
	DD	051ef495H
	DD	0aa573b04H
	DD	04a805d8dH
	DD	0548300d0H
	DD	0322a3cH
	DD	0bf64cddfH
	DD	0ba57a68eH
	DD	075c6372bH
	DD	050afd341H
	DD	0a7c13275H
	DD	0915a0bf5H
	DD	06b54bfabH
	DD	02b0b1426H
	DD	0ab4cc9d7H
	DD	0449ccd82H
	DD	0f7fbf265H
	DD	0ab85c5f3H
	DD	01b55db94H
	DD	0aad4e324H
	DD	0cfa4bd3fH
	DD	02deaa3e2H
	DD	09e204d02H
	DD	0c8bd25acH
	DD	0eadf55b3H
	DD	0d5bd9e98H
	DD	0e31231b2H
	DD	02ad5ad6cH
	DD	0954329deH
	DD	0adbe4528H
	DD	0d8710f69H
	DD	0aa51c90fH
	DD	0aa786bf6H
	DD	022513f1eH
	DD	0aa51a79bH
	DD	02ad344ccH
	DD	07b5a41f0H
	DD	0d37cfbadH
	DD	01b069505H
	DD	041ece491H
	DD	0b4c332e6H
	DD	032268d4H
	DD	0c9600accH
	DD	0ce387e6dH
	DD	0bf6bb16cH
	DD	06a70fb78H
	DD	0d03d9c9H
	DD	0d4df39deH
	DD	0e01063daH
	DD	04736f464H
	DD	05ad328d8H
	DD	0b347cc96H
	DD	075bb0fc3H
	DD	098511bfbH
	DD	04ffbcc35H
	DD	0b58bcf6aH
	DD	0e11f0abcH
	DD	0bfc5fe4aH
	DD	0a70aec10H
	DD	0ac39570aH
	DD	03f04442fH
	DD	06188b153H
	DD	0e0397a2eH
	DD	05727cb79H
	DD	09ceb418fH
	DD	01cacd68dH
	DD	02ad37c96H
	DD	0175cb9dH
	DD	0c69dff09H
	DD	0c75b65f0H
	DD	0d9db40d8H
	DD	0ec0e7779H
	DD	04744ead4H
	DD	0b11c3274H
	DD	0dd24cb9eH
	DD	07e1c54bdH
	DD	0f01144f9H
	DD	0d2240eb1H
	DD	09675b3fdH
	DD	0a3ac3755H
	DD	0d47c27afH
	DD	051c85f4dH
	DD	056907596H
	DD	0a5bb15e6H
	DD	0580304f0H
	DD	0ca042cf1H
	DD	011a37eaH
	DD	08dbfaadbH
	DD	035ba3e4aH
	DD	03526ffa0H
	DD	0c37b4d09H
	DD	0bc306ed9H
	DD	098a52666H
	DD	05648f725H
	DD	0ff5e569dH
	DD	0ced63d0H
	DD	07c63b2cfH
	DD	0700b45e1H
	DD	0d5ea50f1H
	DD	085a92872H
	DD	0af1fbda7H
	DD	0d4234870H
	DD	0a7870bf3H
	DD	02d3b4d79H
	DD	042e04198H
	DD	0cd0ede7H
	DD	026470db8H
	DD	0f881814cH
	DD	0474d6ad7H
	DD	07c0c5e5cH
	DD	0d1231959H
	DD	0381b7298H
	DD	0f5d2f4dbH
	DD	0ab838653H
	DD	06e2f1e23H
	DD	083719c9eH
	DD	0bd91e046H
	DD	09a56456eH
	DD	0dc39200cH
	DD	020c8c571H
	DD	0962bda1cH
	DD	0e1e696ffH
	DD	0b141ab08H
	DD	07cca89b9H
	DD	01a69e783H
	DD	02cc4843H
	DD	0a2f7c579H
	DD	0429ef47dH
	DD	0427b169cH
	DD	05ac9f049H
	DD	0dd8f0f00H
	DD	05c8165bfH
	DD	01f201094H
	DD	0ef0ba75bH
	DD	069e3cf7eH
	DD	0393f4380H
	DD	0fe61cf7aH
	DD	0eec5207aH
	DD	055889c94H
	DD	072fc0651H
	DD	0ada7ef79H
	DD	04e1d7235H
	DD	0d55a63ceH
	DD	0de0436baH
	DD	099c430efH
	DD	05f0c0794H
	DD	018dcdb7dH
	DD	0a1d6eff3H
	DD	0a0b52f7bH
	DD	059e83605H
	DD	0ee15b094H
	DD	0e9ffd909H
	DD	0dc440086H
	DD	0ef944459H
	DD	0ba83ccb3H
	DD	0e0c3cdfbH
	DD	0d1da4181H
	DD	03b092ab1H
	DD	0f997f1c1H
	DD	0a5e6cf7bH
	DD	01420ddbH
	DD	0e4e7ef5bH
	DD	025a1ff41H
	DD	0e180f806H
	DD	01fc41080H
	DD	0179bee7aH
	DD	0d37ac6a9H
	DD	0fe5830a4H
	DD	098de8b7fH
	DD	077e83f4eH
	DD	079929269H
	DD	024fa9f7bH
	DD	0e113c85bH
	DD	0acc40083H
	DD	0d7503525H
	DD	0f7ea615fH
	DD	062143154H
	DD	0d554b63H
	DD	05d681121H
	DD	0c866c359H
	DD	03d63cf73H
	DD	0cee234c0H
	DD	0d4d87e87H
	DD	05c672b21H
	DD	071f6181H
	DD	039f7627fH
	DD	0361e3084H
	DD	0e4eb573bH
	DD	0602f64a4H
	DD	0d63acd9cH
	DD	01bbc4635H
	DD	09e81032dH
	DD	02701f50cH
	DD	099847ab4H
	DD	0a0e3df79H
	DD	0ba6cf38cH
	DD	010843094H
	DD	02537a95eH
	DD	0f46f6ffeH
	DD	0a1ff3b1fH
	DD	0208cfb6aH
	DD	08f458c74H
	DD	0d9e0a227H
	DD	04ec73a34H
	DD	0fc884f69H
	DD	03e4de8dfH
	DD	0ef0e0088H
	DD	03559648dH
	DD	08a45388cH
	DD	01d804366H
	DD	0721d9bfdH
	DD	0a58684bbH
	DD	0e8256333H
	DD	0844e8212H
	DD	0128d8098H
	DD	0fed33fb4H
	DD	0ce280ae1H
	DD	027e19ba5H
	DD	0d5a6c252H
	DD	0e49754bdH
	DD	0c5d655ddH
	DD	0eb667064H
	DD	077840b4dH
	DD	0a1b6a801H
	DD	084db26a9H
	DD	0e0b56714H
	DD	021f043b7H
	DD	0e5d05860H
	DD	054f03084H
	DD	066ff472H
	DD	0a31aa153H
	DD	0dadc4755H
	DD	0b5625dbfH
	DD	068561be6H
	DD	083ca6b94H
	DD	02d6ed23bH
	DD	0eccf01dbH
	DD	0a6d3d0baH
	DD	0b6803d5cH
	DD	0af77a709H
	DD	033b4a34cH
	DD	0397bc8d6H
	DD	05ee22b95H
	DD	05f0e5304H
	DD	081ed6f61H
	DD	020e74364H
	DD	0b45e1378H
	DD	0de18639bH
	DD	0881ca122H
	DD	0b96726d1H
	DD	08049a7e8H
	DD	022b7da7bH
	DD	05e552d25H
	DD	05272d237H
	DD	079d2951cH
	DD	0c60d894cH
	DD	0488cb402H
	DD	01ba4fe5bH
	DD	0a4b09f6bH
	DD	01ca815cfH
	DD	0a20c3005H
	DD	08871df63H
	DD	0b9de2fcbH
	DD	0cc6c9e9H
	DD	0beeff53H
	DD	0e3214517H
	DD	0b4542835H
	DD	09f63293cH
	DD	0ee41e729H
	DD	06e1d2d7cH
	DD	050045286H
	DD	01e6685f3H
	DD	0f33401c6H
	DD	030a22c95H
	DD	031a70850H
	DD	060930f13H
	DD	073f98417H
	DD	0a1269859H
	DD	0ec645c44H
	DD	052c877a9H
	DD	0cdff33a6H
	DD	0a02b1741H
	DD	07cbad9a2H
	DD	02180036fH
	DD	050d99c08H
	DD	0cb3f4861H
	DD	0c26bd765H
	DD	064a3f6abH
	DD	080342676H
	DD	025a75e7bH
	DD	0e4e6d1fcH
	DD	020c710e6H
	DD	0cdf0b680H
	DD	017844d3bH
	DD	031eef84dH
	DD	07e0824e4H
	DD	02ccb49ebH
	DD	0846a3baeH
	DD	08ff77888H
	DD	0ee5d60f6H
	DD	07af75673H
	DD	02fdd5cdbH
	DD	0a11631c1H
	DD	030f66f43H
	DD	0b3faec54H
	DD	0157fd7faH
	DD	0ef8579ccH
	DD	0d152de58H
	DD	0db2ffd5eH
	DD	08f32ce19H
	DD	0306af97aH
	DD	02f03ef8H
	DD	099319ad5H
	DD	0c242fa0fH
	DD	0a7e3ebb0H
	DD	0c68e4906H
	DD	0b8da230cH
	DD	080823028H
	DD	0dcdef3c8H
	DD	0d35fb171H
	DD	088a1bc8H
	DD	0bec0c560H
	DD	061a3c9e8H
	DD	0bca8f54dH
	DD	0c72feffaH
	DD	022822e99H
	DD	082c570b4H
	DD	0d8d94e89H
	DD	08b1c34bcH
	DD	0301e16e6H
	DD	0273be979H
	DD	0b0ffeaa6H
	DD	061d9b8c6H
	DD	0b24869H
	DD	0b7ffce3fH
	DD	08dc283bH
	DD	043daf65aH
	DD	0f7e19798H
	DD	07619b72fH
	DD	08f1c9ba4H
	DD	0dc8637a0H
	DD	016a7d3b1H
	DD	09fc393b7H
	DD	0a7136eebH
	DD	0c6bcc63eH
	DD	01a513742H
	DD	0ef6828bcH
	DD	0520365d6H
	DD	02d6a77abH
	DD	03527ed4bH
	DD	0821fd216H
	DD	095c6e2eH
	DD	0db92f2fbH
	DD	05eea29cbH
	DD	0145892f5H
	DD	091584f7fH
	DD	05483697bH
	DD	02667a8ccH
	DD	085196048H
	DD	08c4baceaH
	DD	0833860d4H
	DD	0d23e0f9H
	DD	06c387e8aH
	DD	0ae6d249H
	DD	0b284600cH
	DD	0d835731dH
	DD	0dcb1c647H
	DD	0ac4c56eaH
	DD	03ebd81b3H
	DD	0230eabb0H
	DD	06438bc87H
	DD	0f0b5b1faH
	DD	08f5ea2b3H
	DD	0fc184642H
	DD	0a036b7aH
	DD	04fb089bdH
	DD	0649da589H
	DD	0a345415eH
	DD	05c038323H
	DD	03e5d3bb9H
	DD	043d79572H
	DD	07e6dd07cH
	DD	06dfdf1eH
	DD	06c6cc4efH
	DD	07160a539H
	DD	073bfbe70H
	DD	083877605H
	DD	04523ecf1H
	DD	08defc240H
	DD	025fa5d9fH
	DD	0eb903dbfH
	DD	0e810c907H
	DD	047607fffH
	DD	0369fe44bH
	DD	08c1fc644H
	DD	0aececa90H
	DD	0beb1f9bfH
	DD	0eefbcaeaH
	DD	0e8cf1950H
	DD	051df07aeH
	DD	0920e8806H
	DD	0f0ad0548H
	DD	0e13c8d83H
	DD	0927010d5H
	DD	011107d9fH
	DD	07647db9H
	DD	0b2e3e4d4H
	DD	03d4f285eH
	DD	0b9afa820H
	DD	0fade82e0H
	DD	0a067268bH
	DD	08272792eH
	DD	0553fb2c0H
	DD	0489ae22bH
	DD	0d4ef9794H
	DD	0125e3fbcH
	DD	021fffceeH
	DD	0825b1bfdH
	DD	09255c5edH
	DD	01257a240H
	DD	04e1a8302H
	DD	0bae07fffH
	DD	0528246e7H
	DD	08e57140eH
	DD	03373f7bfH
	DD	08c9f8188H
	DD	0a6fc4ee8H
	DD	0c982b5a5H
	DD	0a8c01db7H
	DD	0579fc264H
	DD	067094f31H
	DD	0f2bd3f5fH
	DD	040fff7c1H
	DD	01fb78dfcH
	DD	08e6bd2c1H
	DD	0437be59bH
	DD	099b03dbfH
	DD	0b5dbc64bH
	DD	0638dc0e6H
	DD	055819d99H
	DD	0a197c81cH
	DD	04a012d6eH
	DD	0c5884a28H
	DD	0ccc36f71H
	DD	0b843c213H
	DD	06c0743f1H
	DD	08309893cH
	DD	0feddd5fH
	DD	02f7fe850H
	DD	0d7c07f7eH
	DD	02507fbfH
	DD	05afb9a04H
	DD	0a747d2d0H
	DD	01651192eH
	DD	0af70bf3eH
	DD	058c31380H
	DD	05f98302eH
	DD	0727cc3c4H
	DD	0a0fb402H
	DD	0f7fef82H
	DD	08c96fdadH
	DD	05d2c2aaeH
	DD	08ee99a49H
	DD	050da88b8H
	DD	08427f4a0H
	DD	01eac5790H
	DD	0796fb449H
	DD	08252dc15H
	DD	0efbd7d9bH
	DD	0a672597dH
	DD	0ada840d8H
	DD	045f54504H
	DD	0fa5d7403H
	DD	0e83ec305H
	DD	04f91751aH
	DD	0925669c2H
	DD	023efe941H
	DD	0a903f12eH
	DD	060270df2H
	DD	0276e4b6H
	DD	094fd6574H
	DD	0927985b2H
	DD	08276dbcbH
	DD	02778176H
	DD	0f8af918dH
	DD	04e48f79eH
	DD	08f616ddfH
	DD	0e29d840eH
	DD	0842f7d83H
	DD	0340ce5c8H
	DD	096bbb682H
	DD	093b4b148H
	DD	0ef303cabH
	DD	0984faf28H
	DD	0779faf9bH
	DD	092dc560dH
	DD	0224d1e20H
	DD	08437aa88H
	DD	07d29dc96H
	DD	02756d3dcH
	DD	08b907ceeH
	DD	0b51fd240H
	DD	0e7c07ce3H
	DD	0e566b4a1H
	DD	0c3e9615eH
	DD	03cf8209dH
	DD	06094d1e3H
	DD	0cd9ca341H
	DD	05c76460eH
	DD	0ea983bH
	DD	0d4d67881H
	DD	0fd47572cH
	DD	0f76cedd9H
	DD	0bda8229cH
	DD	0127dadaaH
	DD	0438a074eH
	DD	01f97c090H
	DD	081bdb8aH
	DD	093a07ebeH
	DD	0b938ca15H
	DD	097b03cffH
	DD	03dc2c0f8H
	DD	08d1ab2ecH
	DD	064380e51H
	DD	068cc7bfbH
	DD	0d90f2788H
	DD	012490181H
	DD	05de5ffd4H
	DD	0dd7ef86aH
	DD	076a2e214H
	DD	0b9a40368H
	DD	0925d958fH
	DD	04b39fffaH
	DD	0ba39aee9H
	DD	0a4ffd30bH
	DD	0faf7933bH
	DD	06d498623H
	DD	0193cbcfaH
	DD	027627545H
	DD	0825cf47aH
	DD	061bd8ba0H
	DD	0d11e42d1H
	DD	0cead04f4H
	DD	0127ea392H
	DD	010428db7H
	DD	08272a972H
	DD	09270c4a8H
	DD	0127de50bH
	DD	0285ba1c8H
	DD	03c62f44fH
	DD	035c0eaa5H
	DD	0e805d231H
	DD	0428929fbH
	DD	0b4fcdf82H
	DD	04fb66a53H
	DD	0e7dc15bH
	DD	01f081fabH
	DD	0108618aeH
	DD	0fcfd086dH
	DD	0f9ff2889H
	DD	0694bcc11H
	DD	0236a5caeH
	DD	012deca4dH
	DD	02c3f8cc5H
	DD	0d2d02dfeH
	DD	0f8ef5896H
	DD	0e4cf52daH
	DD	095155b67H
	DD	0494a488cH
	DD	0b9b6a80cH
	DD	05c8f82bcH
	DD	089d36b45H
	DD	03a609437H
	DD	0ec00c9a9H
	DD	044715253H
	DD	0a874b49H
	DD	0d773bc40H
	DD	07c34671cH
	DD	02717ef6H
	DD	04feb5536H
	DD	0a2d02fffH
	DD	0d2bf60c4H
	DD	0d43f03c0H
	DD	050b4ef6dH
	DD	07478cd1H
	DD	06e1888H
	DD	0a2e53f55H
	DD	0b9e6d4bcH
	DD	0a2048016H
	DD	097573833H
	DD	0d7207d67H
	DD	0de0f8f3dH
	DD	072f87b33H
	DD	0abcc4f33H
	DD	07688c55dH
	DD	07b00a6b0H
	DD	0947b0001H
	DD	0570075d2H
	DD	0f9bb88f8H
	DD	08942019eH
	DD	04264a5ffH
	DD	0856302e0H
	DD	072dbd92bH
	DD	0ee971b69H
	DD	06ea22fdeH
	DD	05f08ae2bH
	DD	0af7a616dH
	DD	0e5c98767H
	DD	0cf1febd2H
	DD	061efc8c2H
	DD	0f1ac2571H
	DD	0cc8239c2H
	DD	067214cb8H
	DD	0b1e583d1H
	DD	0b7dc3e62H
	DD	07f10bdceH
	DD	0f90a5c38H
	DD	0ff0443dH
	DD	0606e6dc6H
	DD	060543a49H
	DD	05727c148H
	DD	02be98a1dH
	DD	08ab41738H
	DD	020e1be24H
	DD	0af96da0fH
	DD	068458425H
	DD	099833be5H
	DD	0600d457dH
	DD	0282f9350H
	DD	08334b362H
	DD	0d91d1120H
	DD	02b6d8da0H
	DD	0642b1e31H
	DD	09c305a00H
	DD	052bce688H
	DD	01b03588aH
	DD	0f7baefd5H
	DD	04142ed9cH
	DD	0a4315c11H
	DD	083323ec5H
	DD	0dfef4636H
	DD	0a133c501H
	DD	0e9d3531cH
	DD	0ee353783H
	DD	09db30420H
	DD	01fb6e9deH
	DD	0a7be7befH
	DD	0d273a298H
	DD	04a4f7bdbH
	DD	064ad8c57H
	DD	085510443H
	DD	0fa020ed1H
	DD	07e287affH
	DD	0e60fb663H
	DD	095f35a1H
	DD	079ebf120H
	DD	0fd059d43H
	DD	06497b7b1H
	DD	0f3641f63H
	DD	0241e4adfH
	DD	028147f5fH
	DD	04fa2b8cdH
	DD	0c9430040H
	DD	0cc32220H
	DD	0fdd30b30H
	DD	0c0a5374fH
	DD	01d2d00d9H
	DD	024147b15H
	DD	0ee4d111aH
	DD	0fca5167H
	DD	071ff904cH
	DD	02d195ffeH
	DD	01a05645fH
	DD	0c13fefeH
	DD	081b08caH
	DD	05170121H
	DD	080530100H
	DD	0e83e5efeH
	DD	0ac9af4f8H
	DD	07fe72701H
	DD	0d2b8ee5fH
	DD	06df4261H
	DD	0bb9e9b8aH
	DD	07293ea25H
	DD	0ce84ffdfH
	DD	0f5718801H
	DD	03dd64b04H
	DD	0a26f263bH
	DD	07ed48400H
	DD	0547eebe6H
	DD	0446d4ca0H
	DD	06cf3d6f5H
	DD	02649abdfH
	DD	0aea0c7f5H
	DD	036338cc1H
	DD	0503f7e93H
	DD	0d3772061H
	DD	011b638e1H
	DD	072500e03H
	DD	0f80eb2bbH
	DD	0abe0502eH
	DD	0ec8d77deH
	DD	057971e81H
	DD	0e14f6746H
	DD	0c9335400H
	DD	06920318fH
	DD	081dbb99H
	DD	0ffc304a5H
	DD	04d351805H
	DD	07f3d5ce3H
	DD	0a6c866c6H
	DD	05d5bcca9H
	DD	0daec6feaH
	DD	09f926f91H
	DD	09f46222fH
	DD	03991467dH
	DD	0a5bf6d8eH
	DD	01143c44fH
	DD	043958302H
	DD	0d0214eebH
	DD	022083b8H
	DD	03fb6180cH
	DD	018f8931eH
	DD	0281658e6H
	DD	026486e3eH
	DD	08bd78a70H
	DD	07477e4c1H
	DD	0b506e07cH
	DD	0f32d0a25H
	DD	079098b02H
	DD	0e4eabb81H
	DD	028123b23H
	DD	069dead38H
	DD	01574ca16H
	DD	0df871b62H
	DD	0211c40b7H
	DD	0a51a9ef9H
	DD	014377bH
	DD	041e8ac8H
	DD	09114003H
	DD	0bd59e4d2H
	DD	0e3d156d5H
	DD	04fe876d5H
	DD	02f91a340H
	DD	0557be8deH
	DD	0eae4a7H
	DD	0ce5c2ecH
	DD	04db4bba6H
	DD	0e756bdffH
	DD	0dd3369acH
	DD	0ec17b035H
	DD	06572327H
	DD	099afc8b0H
	DD	056c8c391H
	DD	06b65811cH
	DD	05e146119H
	DD	06e85cb75H
	DD	0be07c002H
	DD	0c2325577H
	DD	0893ff4ecH
	DD	05bbfc92dH
	DD	0d0ec3b25H
	DD	0b7801ab7H
	DD	08d6d3b24H
	DD	020c763efH
	DD	0c366a5fcH
	DD	09c382880H
	DD	0ace3205H
	DD	0aac9548aH
	DD	0eca1d7c7H
	DD	041afa32H
	DD	01d16625aH
	DD	06701902cH
	DD	09b757a54H
	DD	031d477f7H
	DD	09126b031H
	DD	036cc6fdbH
	DD	0c70b8b46H
	DD	0d9e66a48H
	DD	056e55a79H
	DD	026a4cebH
	DD	052437effH
	DD	02f8f76b4H
	DD	0df980a5H
	DD	08674cde3H
	DD	0edda04ebH
	DD	017a9be04H
	DD	02c18f4dfH
	DD	0b7747f9dH
	DD	0ab2af7b4H
	DD	0efc34d20H
	DD	02e096b7cH
	DD	01741a254H
	DD	0e5b6a035H
	DD	0213d42f6H
	DD	02c1c7c26H
	DD	061c2f50fH
	DD	06552daf9H
	DD	0d2c231f8H
	DD	025130f69H
	DD	0d8167fa2H
	DD	0418f2c8H
	DD	01a96a6H
	DD	0d1526abH
	DD	063315c21H
	DD	05e0a72ecH
	DD	049bafefdH
	DD	0187908d9H
	DD	08d0dbd86H
	DD	0311170a7H
	DD	03e9b640cH
	DD	0cc3e10d7H
	DD	0d5cad3b6H
	DD	0caec388H
	DD	0f73001e1H
	DD	06c728affH
	DD	071eae2a1H
	DD	01f9af36eH
	DD	0cfcbd12fH
	DD	0c1de8417H
	DD	0ac07be6bH
	DD	0cb44a1d8H
	DD	08b9b0f56H
	DD	013988c3H
	DD	0b1c52fcaH
	DD	0b4be31cdH
	DD	0d8782806H
	DD	012a3a4e2H
	DD	06f7de532H
	DD	058fd7eb6H
	DD	0d01ee900H
	DD	024adffc2H
	DD	0f4990fc5H
	DD	09711aac5H
	DD	01d7b95H
	DD	082e5e7d2H
	DD	0109873f6H
	DD	0613096H
	DD	0c32d9521H
	DD	0ada121ffH
	DD	029908415H
	DD	07fbb977fH
	DD	0af9eb3dbH
	DD	029c9ed2aH
	DD	05ce2a465H
	DD	0a730f32cH
	DD	0d0aa3fe8H
	DD	08a5cc091H
	DD	0d49e2ce7H
	DD	0ce454a9H
	DD	0d60acd86H
	DD	015f1919H
	DD	077079103H
	DD	0dea03af6H
	DD	078a8565eH
	DD	0dee356dfH
	DD	021f05cbeH
	DD	08b75e387H
	DD	0b3c50651H
	DD	0b8a5c3efH
	DD	0d8eeb6d2H
	DD	0e523be77H
	DD	0c2154529H
	DD	02f69efdfH
	DD	0afe67afbH
	DD	0f470c4b2H
	DD	0f3e0eb5bH
	DD	0d6cc9876H
	DD	039e4460cH
	DD	01fda8538H
	DD	01987832fH
	DD	0ca007367H
	DD	0a99144f8H
	DD	0296b299eH
	DD	0492fc295H
	DD	09266beabH
	DD	0b5676e69H
	DD	09bd3dddaH
	DD	0df7e052fH
	DD	0db25701cH
	DD	01b5e51eeH
	DD	0f65324e6H
	DD	06afce36cH
	DD	0316cc04H
	DD	08644213eH
	DD	0b7dc59d0H
	DD	07965291fH
	DD	0ccd6fd43H
	DD	041823979H
	DD	0932bcdf6H
	DD	0b657c34dH
	DD	04edfd282H
	DD	07ae5290cH
	DD	03cb9536bH
	DD	0851e20feH
	DD	09833557eH
	DD	013ecf0b0H
	DD	0d3ffb372H
	DD	03f85c5c1H
	DD	0aef7ed2H
	DD	07ec90c04H
	DD	02c6e74b9H
	DD	09b0e66dfH
	DD	0a6337911H
	DD	0b86a7fffH
	DD	01dd358f5H
	DD	044dd9d44H
	DD	01731167fH
	DD	08fbf1faH
	DD	0e7f511ccH
	DD	0d2051b00H
	DD	0735aba00H
	DD	02ab722d8H
	DD	0386381cbH
	DD	0acf6243aH
	DD	069befd7aH
	DD	0e6a2e77fH
	DD	0f0c720cdH
	DD	0c4494816H
	DD	0ccf5c180H
	DD	038851640H
	DD	015b0a848H
	DD	0e68b18cbH
	DD	04caadeffH
	DD	05f480a01H
	DD	0412b2aaH
	DD	0259814fcH
	DD	041d0efe2H
	DD	04e40b48dH
	DD	0248eb6fbH
	DD	08dba1cfeH
	DD	041a99b02H
	DD	01a550a04H
	DD	0ba8f65cbH
	DD	07251f4e7H
	DD	095a51725H
	DD	0c106ecd7H
	DD	097a5980aH
	DD	0c539b9aaH
	DD	04d79fe6aH
	DD	0f2f3f763H
	DD	068af8040H
	DD	0ed0c9e56H
	DD	011b4958bH
	DD	0e1eb5a88H
	DD	08709e6b0H
	DD	0d7e07156H
	DD	04e29fea7H
	DD	06366e52dH
	DD	02d1c000H
	DD	0c4ac8e05H
	DD	09377f571H
	DD	0c05372aH
	DD	0578535f2H
	DD	02261be02H
	DD	0d642a0c9H
	DD	0df13a280H
	DD	074b55bd2H
	DD	0682199c0H
	DD	0d421e5ecH
	DD	053fb3ce8H
	DD	0c8adedb3H
	DD	028a87fc9H
	DD	03d959981H
	DD	05c1ff900H
	DD	0fe38d399H
	DD	0c4eff0bH
	DD	062407eaH
	DD	0aa2f4fb1H
	DD	04fb96976H
	DD	090c79505H
	DD	0b0a8a774H
	DD	0ef55a1ffH
	DD	0e59ca2c2H
	DD	0a6b62d27H
	DD	0e66a4263H
	DD	0df65001fH
	DD	0ec50966H
	DD	0dfdd55bcH
	DD	029de0655H
	DD	0911e739aH
	DD	017af8975H
	DD	032c7911cH
	DD	089f89468H
	DD	0d01e980H
	DD	0524755f4H
	DD	03b63cc9H
	DD	0cc844b2H
	DD	0bcf3f0aaH
	DD	087ac36e9H
	DD	0e53a7426H
	DD	01b3d82bH
	DD	01a9e7449H
	DD	064ee2d7eH
	DD	0cddbb1daH
	DD	01c94910H
	DD	0b868bf80H
	DD	0d26f3fdH
	DD	09342ede7H
	DD	04a5c284H
	DD	0636737b6H
	DD	050f5b616H
	DD	0f24766e3H
	DD	08eca36c1H
	DD	0136e05dbH
	DD	0fef18391H
	DD	0fb887a37H
	DD	0d6e7f7d4H
	DD	0c7fb7dc9H
	DD	03063fcdfH
	DD	0b6f589deH
	DD	0ec2941daH
	DD	026e46695H
	DD	0b7566419H
	DD	0f654efc5H
	DD	0d08d58b7H
	DD	048925401H
	DD	0c1bacb7fH
	DD	0e5ff550fH
	DD	0b6083049H
	DD	05bb5d0e8H
	DD	087d72e5aH
	DD	0ab6a6ee1H
	DD	0223a66ceH
	DD	0c62bf3cdH
	DD	09e0885f9H
	DD	068cb3e47H
	DD	086c010fH
	DD	0a21de820H
	DD	0d18b69deH
	DD	0f3f65777H
	DD	0fa02c3f6H
	DD	0407edac3H
	DD	0cbb3d550H
	DD	01793084dH
	DD	0b0d70ebaH
	DD	0ab378d5H
	DD	0d951fb0cH
	DD	0ded7da56H
	DD	04124bbe4H
	DD	094ca0b56H
	DD	0f5755d1H
	DD	0e0e1e56eH
	DD	06184b5beH
	DD	0580a249fH
	DD	094f74bc0H
	DD	0e327888eH
	DD	09f7b5561H
	DD	0c3dc0280H
	DD	05687715H
	DD	0646c6bd7H
	DD	044904db3H
	DD	066b4f0a3H
	DD	0c0f1648aH
	DD	0697ed5afH
	DD	049e92ff6H
	DD	0309e374fH
	DD	02cb6356aH
	DD	085808573H
	DD	04991f840H
	DD	076f0ae02H
	DD	083be84dH
	DD	028421c9aH
	DD	044489406H
	DD	0736e4cb8H
	DD	0c1092910H
	DD	08bc95fc6H
	DD	07d869cf4H
	DD	0134f616fH
	DD	02e77118dH
	DD	0b31b2be1H
	DD	0aa90b472H
	DD	03ca5d717H
	DD	07d161bbaH
	DD	09cad9010H
	DD	0af462ba2H
	DD	09fe459d2H
	DD	045d34559H
	DD	0d9f2da13H
	DD	0dbc65487H
	DD	0f3e4f94eH
	DD	0176d486fH
	DD	097c13eaH
	DD	0631da5c7H
	DD	0445f7382H
	DD	0175683f4H
	DD	0cdc66a97H
	DD	070be0288H
	DD	0b3cdcf72H
	DD	06e5dd2f3H
	DD	020936079H
	DD	0459b80a5H
	DD	0be60e2dbH
	DD	0a9c23101H
	DD	0eba5315cH
	DD	0224e42f2H
	DD	01c5c1572H
	DD	0f6721b2cH
	DD	01ad2fff3H
	DD	08c25404eH
	DD	0324ed72fH
	DD	04067b7fdH
	DD	0523138eH
	DD	05ca3bc78H
	DD	0dc0fd66eH
	DD	075922283H
	DD	0784d6b17H
	DD	058ebb16eH
	DD	044094f85H
	DD	03f481d87H
	DD	0fcfeae7bH
	DD	077b5ff76H
	DD	08c2302bfH
	DD	0aaf47556H
	DD	05f46b02aH
	DD	02b092801H
	DD	03d38f5f7H
	DD	0ca81f36H
	DD	052af4a8aH
	DD	066d5e7c0H
	DD	0df3b0874H
	DD	095055110H
	DD	01b5ad7a8H
	DD	0f61ed5adH
	DD	06cf6e479H
	DD	020758184H
	DD	0d0cefa65H
	DD	088f7be58H
	DD	04a046826H
	DD	0ff6f8f3H
	DD	0a09c7f70H
	DD	05346aba0H
	DD	05ce96c28H
	DD	0e176eda3H
	DD	06bac307fH
	DD	0376829d2H
	DD	085360fa9H
	DD	017e3fe2aH
	DD	024b79767H
	DD	0f5a96b20H
	DD	0d6cd2595H
	DD	068ff1ebfH
	DD	07555442cH
	DD	0f19f06beH
	DD	0f9e0659aH
	DD	0eeb9491dH
	DD	034010718H
	DD	0bb30cab8H
	DD	0e822fe15H
	DD	088570983H
	DD	0750e6249H
	DD	0da627e55H
	DD	05e76ffa8H
	DD	0b1534546H
	DD	06d47de08H
	DD	0efe9e7d4H
	DD	0f6fa8f9dH
	DD	02cac6ce1H
	DD	04ca34867H
	DD	0e2337f7cH
	DD	095db08e7H
	DD	016843b4H
	DD	0eced5cbcH
	DD	0325553acH
	DD	0bf9f0960H
	DD	0dfa1e2edH
	DD	083f0579dH
	DD	063ed86b9H
	DD	01ab6a6b8H
	DD	0de5ebe39H
	DD	0f38ff732H
	DD	08989b138H
	DD	033f14961H
	DD	0c01937bdH
	DD	0f506c6daH
	DD	0e4625e7eH
	DD	0a308ea99H
	DD	04e23e33cH
	DD	079cbd7ccH
	DD	048a14367H
	DD	0a3149619H
	DD	0fec94bd5H
	DD	0a114174aH
	DD	0eaa01866H
	DD	0a084db2dH
	DD	09a8486fH
	DD	0a888614aH
	DD	02900af98H
	DD	01665991H
	DD	0e1992863H
	DD	0c8f30c60H
	DD	02e78ef3cH
	DD	0d0d51932H
	DD	0cf0fec14H
	DD	0f7ca07d2H
	DD	0d0a82072H
	DD	0fd41197eH
	DD	09305a6b0H
	DD	0e86be3daH
	DD	074bed3cdH
	DD	0372da53cH
	DD	04c7f4448H
	DD	0dab5d440H
	DD	06dba0ec3H
	DD	083919a7H
	DD	09fbaeed9H
	DD	049dbcfb0H
	DD	04e670c53H
	DD	05c3d9c01H
	DD	064bdb941H
	DD	02c0e636aH
	DD	0ba7dd9cdH
	DD	0ea6f7388H
	DD	0e70bc762H
	DD	035f29adbH
	DD	05c4cdd8dH
	DD	0f0d48d8cH
	DD	0b88153e2H
	DD	08a19866H
	DD	01ae2eac8H
	DD	0284caf89H
	DD	0aa928223H
	DD	09334be53H
	DD	03b3a21bfH
	DD	016434be3H
	DD	09aea3906H
	DD	0efe8c36eH
	DD	0f890cdd9H
	DD	080226daeH
	DD	0c340a4a3H
	DD	0df7e9c09H
	DD	0a694a807H
	DD	05b7c5eccH
	DD	0221db3a6H
	DD	09a69a02fH
	DD	068818a54H
	DD	0ceb2296fH
	DD	053c0843aH
	DD	0fe893655H
	DD	025bfe68aH
	DD	0b4628abcH
	DD	0cf222ebfH
	DD	025ac6f48H
	DD	0a9a99387H
	DD	053bddb65H
	DD	0e76ffbe7H
	DD	0e967fd78H
	DD	0ba93563H
	DD	08e342bc1H
	DD	0e8a11be9H
	DD	04980740dH
	DD	0c8087dfcH
	DD	08de4bf99H
	DD	0a11101a0H
	DD	07fd37975H
	DD	0da5a26c0H
	DD	0e81f994fH
	DD	09528cd89H
	DD	0fd339fedH
	DD	0b87834bfH
	DD	05f04456dH
	DD	022258698H
	DD	0c9c4c83bH
	DD	02dc156beH
	DD	04f628daaH
	DD	057f55ec5H
	DD	0e2220abeH
	DD	0d2916ebfH
	DD	04ec75b95H
	DD	024f2c3c0H
	DD	042d15d99H
	DD	0cd0d7fa0H
	DD	07b6e27ffH
	DD	0a8dc8af0H
	DD	07345c106H
	DD	0f41e232fH
	DD	035162386H
	DD	0e6ea8926H
	DD	03333b094H
	DD	0157ec6f2H
	DD	0372b74afH
	DD	0692573e4H
	DD	0e9a9d848H
	DD	0f3160289H
	DD	03a62ef1dH
	DD	0a787e238H
	DD	0f3a5f676H
	DD	074364853H
	DD	020951063H
	DD	04576698dH
	DD	0b6fad407H
	DD	0592af950H
	DD	036f73523H
	DD	04cfb6e87H
	DD	07da4cec0H
	DD	06c152daaH
	DD	0cb0396a8H
	DD	0c50dfe5dH
	DD	0fcd707abH
	DD	0921c42fH
	DD	089dff0bbH
	DD	05fe2be78H
	DD	0448f4f33H
	DD	0754613c9H
	DD	02b05d08dH
	DD	048b9d585H
	DD	0dc049441H
	DD	0c8098f9bH
	DD	07dede786H
	DD	0c39a3373H
	DD	042410005H
	DD	06a091751H
	DD	0ef3c8a6H
	DD	0890072d6H
	DD	028207682H
	DD	0a9a9f7beH
	DD	0bf32679dH
	DD	0d45b5b75H
	DD	0b353fd00H
	DD	0cbb0e358H
	DD	0830f220aH
	DD	01f8fb214H
	DD	0d372cf08H
	DD	0cc3c4a13H
	DD	08cf63166H
	DD	061c87beH
	DD	088c98f88H
	DD	06062e397H
	DD	047cf8e7aH
	DD	0b6c85283H
	DD	03cc2acfbH
	DD	03fc06976H
	DD	04e8f0252H
	DD	064d8314dH
	DD	0da3870e3H
	DD	01e665459H
	DD	0c10908f0H
	DD	0513021a5H
	DD	06c5b68b7H
	DD	0822f8aa0H
	DD	03007cd3eH
	DD	074719eefH
	DD	0dc872681H
	DD	073340d4H
	DD	07e432fd9H
	DD	0c5ec241H
	DD	08809286cH
	DD	0f592d891H
	DD	08a930f6H
	DD	0957ef305H
	DD	0b7fbffbdH
	DD	0c266e96fH
	DD	06fe4ac98H
	DD	0b173ecc0H
	DD	0bc60b42aH
	DD	0953498daH
	DD	0fba1ae12H
	DD	02d4bd736H
	DD	0f25faabH
	DD	0a4f3fcebH
	DD	0e2969123H
	DD	0257f0c3dH
	DD	09348af49H
	DD	0361400bcH
	DD	0e8816f4aH
	DD	03814f200H
	DD	0a3f94043H
	DD	09c7a54c2H
	DD	0bc704f57H
	DD	0da41e7f9H
	DD	0c25ad33aH
	DD	054f4a084H
	DD	0b17f5505H
	DD	059357cbeH
	DD	0edbd15c8H
	DD	07f97c5abH
	DD	0ba5ac7b5H
	DD	0b6f6deafH
	DD	03a479c3aH
	DD	05302da25H
	DD	0653d7e6aH
	DD	054268d49H
	DD	051a477eaH
	DD	05017d55bH
	DD	0d7d25d88H
	DD	044136c76H
	DD	0404a8c8H
	DD	0b8e5a121H
	DD	0b81a928aH
	DD	060ed5869H
	DD	097c55b96H
	DD	0eaec991bH
	DD	029935913H
	DD	01fdb7f1H
	DD	088e8dfaH
	DD	09ab6f6f5H
	DD	03b4cbf9fH
	DD	04a5de3abH
	DD	0e6051d35H
	DD	0a0e1d855H
	DD	0d36b4cf1H
	DD	0f544edebH
	DD	0b0e93524H
	DD	0bebb8fbdH
	DD	0a2d762cfH
	DD	049c92f54H
	DD	038b5f331H
	DD	07128a454H
	DD	048392905H
	DD	0a65b1db8H
	DD	0851c97bdH
	DD	0d675cf2fH
	DD	085e04019H
	DD	0332bf567H
	DD	0662dbfffH
	DD	0cfc65693H
	DD	02a8d7f6fH
	DD	0ab9bc912H
	DD	0de6008a1H
	DD	02028da1fH
	DD	0227bce7H
	DD	04d642916H
	DD	018fac300H
	DD	050f18b82H
	DD	02cb2cb11H
	DD	0b232e75cH
	DD	04b3695f2H
	DD	0b28707deH
	DD	0a05fbcf6H
	DD	0cd4181e9H
	DD	0e150210cH
	DD	0e24ef1bdH
	DD	0b168c381H
	DD	0fde4e789H
	DD	05c79b0d8H
	DD	01e8bfd43H
	DD	04d495001H
	DD	038be4341H
	DD	0913cee1dH
	DD	092a79c3fH
	DD	089766beH
	DD	0baeeadf4H
	DD	01286becfH
	DD	0b6eacb19H
	DD	02660c200H
	DD	07565bde4H
	DD	064241f7aH
	DD	08248dca9H
	DD	0c3b3ad66H
	DD	028136086H
	DD	0bd8dfa8H
	DD	0356d1cf2H
	DD	0107789beH
	DD	0b3b2e9ceH
	DD	0502aa8fH
	DD	0bc0351eH
	DD	0166bf52aH
	DD	0eb12ff82H
	DD	0e3486911H
	DD	0d34d7516H
	DD	04e7b3affH
	DD	05f43671bH
	DD	09cf6e037H
	DD	04981ac83H
	DD	0334266ceH
	DD	08c9341b7H
	DD	0d0d854c0H
	DD	0cb3a6c88H
	DD	047bc2829H
	DD	04725ba37H
	DD	0a66ad22bH
	DD	07ad61f1eH
	DD	0c5cbafaH
	DD	04437f107H
	DD	0b6e79962H
	DD	042d2d816H
	DD	0a961288H
	DD	0e1a5c06eH
	DD	013749e67H
	DD	072fc081aH
	DD	0b1d139f7H
	DD	0f9583745H
	DD	0cf19df58H
	DD	0bec3f756H
	DD	0c06eba30H
	DD	07211b24H
	DD	045c28829H
	DD	0c95e317fH
	DD	0bc8ec511H
	DD	038bc46e9H
	DD	0c6e6fa14H
	DD	0bae8584aH
	DD	0ad4ebc46H
	DD	0468f508bH
	DD	07829435fH
	DD	0f124183bH
	DD	0821dba9fH
	DD	0aff60ff4H
	DD	0ea2c4e6dH
	DD	016e39264H
	DD	092544a8bH
	DD	09b4fc3H
	DD	0aba68cedH
	DD	09ac96f78H
	DD	06a5b79aH
	DD	0b2856e6eH
	DD	01aec3ca9H
	DD	0be838688H
	DD	0e0804e9H
	DD	055f1be56H
	DD	0e7e5363bH
	DD	0b3a1f25dH
	DD	0f7debb85H
	DD	061fe033cH
	DD	016746233H
	DD	03c034c28H
	DD	0da6d0c74H
	DD	079aac56cH
	DD	03ce4e1adH
	DD	051f0c802H
	DD	098f8f35aH
	DD	01626a49fH
	DD	0eed82b29H
	DD	01d382fe3H
	DD	0c4fb99aH
	DD	0bb325778H
	DD	03ec6d97bH
	DD	06e77a6a9H
	DD	0cb658b5cH
	DD	0d45230c7H
	DD	02bd1408bH
	DD	060c03eb7H
	DD	0b9068d78H
	DD	0a33754f4H
	DD	0f430c87dH
	DD	0c8a71302H
	DD	0b96d8c32H
	DD	0ebd4e7beH
	DD	0be8b9d2dH
	DD	07979fb06H
	DD	0e7225308H
	DD	08b75cf77H
	DD	011ef8da4H
	DD	0e083c858H
	DD	08d6b786fH
	DD	05a6317a6H
	DD	0fa5cf7a0H
	DD	05dda0033H
	DD	0f28ebfb0H
	DD	0f5b9c310H
	DD	0a0eac280H
	DD	08b9767aH
	DD	0a3d9d2b0H
	DD	079d34217H
	DD	021a718dH
	DD	09ac6336aH
	DD	02711fd60H
	DD	0438050e3H
	DD	069908a8H
	DD	03d7fedc4H
	DD	0826d2befH
	DD	04eeb8476H
	DD	0488dcf25H
	DD	036c9d566H
	DD	028e74e41H
	DD	0c2610acaH
	DD	03d49a9cfH
	DD	0bae3b9dfH
	DD	0b65f8de6H
	DD	092aeaf64H
	DD	03ac7d5e6H
	DD	09ea80509H
	DD	0f22b017dH
	DD	0a4173f70H
	DD	0dd1e16c3H
	DD	015e0d7f9H
	DD	050b1b887H
	DD	02b9f4fd5H
	DD	0625aba82H
	DD	06a017962H
	DD	02ec01b9cH
	DD	015488aa9H
	DD	0d716e740H
	DD	040055a2cH
	DD	093d29a22H
	DD	0e32dbf9aH
	DD	058745b9H
	DD	03453dc1eH
	DD	0d699296eH
	DD	0496cff6fH
	DD	01c9f4986H
	DD	0dfe2ed07H
	DD	0b87242d1H
	DD	019de7eaeH
	DD	053e561aH
	DD	015ad6f8cH
	DD	066626c1cH
	DD	07154c24cH
	DD	0ea082b2aH
	DD	093eb2939H
	DD	017dcb0f0H
	DD	058d4f2aeH
	DD	09ea294fbH
	DD	052cf564cH
	DD	09883fe66H
	DD	02ec40581H
	DD	0763953c3H
	DD	01d6692eH
	DD	0d3a0c108H
	DD	0a1e7160eH
	DD	0e4f2dfa6H
	DD	0693ed285H
	DD	074904698H
	DD	04c2b0eddH
	DD	04f757656H
	DD	05d393378H
	DD	0a132234fH
	DD	03d321c5dH
	DD	0c3f5e194H
	DD	04b269301H
	DD	0c79f022fH
	DD	03c997e7eH
	DD	05e4f9504H
	DD	03ffafbbdH
	DD	076f7ad0eH
	DD	0296693f4H
	DD	03d1fce6fH
	DD	0c61e45beH
	DD	0d3b5ab34H
	DD	0f72bf9b7H
	DD	01b0434c0H
	DD	04e72b567H
	DD	05592a33dH
	DD	0b5229301H
	DD	0cfd2a87fH
	DD	060aeb767H
	DD	01814386bH
	DD	030bcc33dH
	DD	038a0c07dH
	DD	0fd1606f2H
	DD	0c363519bH
	DD	0589dd390H
	DD	05479f8e6H
	DD	01cb8d647H
	DD	097fd61a9H
	DD	0ea7759f4H
	DD	02d57539dH
	DD	0569a58cfH
	DD	0e84e63adH
	DD	0462e1b78H
	DD	06580f87eH
	DD	0f3817914H
	DD	091da55f4H
	DD	040a230f3H
	DD	0d1988f35H
	DD	0b6e318d2H
	DD	03ffa50bcH
	DD	03d40f021H
	DD	0c3c0bdaeH
	DD	04958c24cH
	DD	0518f36b2H
	DD	084b1d370H
	DD	0fedce83H
	DD	0878ddadaH
	DD	0f2a279c7H
	DD	094e01be8H
	DD	090716f4bH
	DD	0954b8aa3H
	DD	0e216300dH
	DD	0bbddfffcH
	DD	0a7ebdabdH
	DD	035648095H
	DD	07789f8b7H
	DD	0e6c1121bH
	DD	0e241600H
	DD	052ce8b5H
	DD	011a9cfb0H
	DD	0e5952f11H
	DD	0ece7990aH
	DD	09386d174H
	DD	02a42931cH
	DD	076e38111H
	DD	0b12def3aH
	DD	037ddddfcH
	DD	0de9adeb1H
	DD	0a0cc32cH
	DD	0be197029H
	DD	084a00940H
	DD	0bb243a0fH
	DD	0b4d137cfH
	DD	0b44e79f0H
	DD	049eedfdH
	DD	0b15a15dH
	DD	0480d3168H
	DD	08bbbde5aH
	DD	0669ded42H
	DD	0c7ece831H
	DD	03f8f95e7H
	DD	072df191bH
	DD	07580330dH
	DD	094074251H
	DD	05c7dcdfaH
	DD	0abbe6d63H
	DD	0aa402164H
	DD	0b301d40aH
	DD	02e7d1caH
	DD	053571daeH
	DD	07a3182a2H
	DD	012a8ddecH
	DD	0fdaa335dH
	DD	0176f43e8H
	DD	071fb46d4H
	DD	038129022H
	DD	0ce949ad4H
	DD	0b84769adH
	DD	0965bd862H
	DD	082f3d055H
	DD	066fb9767H
	DD	015b80b4eH
	DD	01d5b47a0H
	DD	04cfde06fH
	DD	0c28ec4b8H
	DD	057e8726eH
	DD	0647a78fcH
	DD	099865d44H
	DD	0608bd593H
	DD	06c200e03H
	DD	039dc5ff6H
	DD	05d0b00a3H
	DD	0ae63aff2H
	DD	07e8bd632H
	DD	070108c0cH
	DD	0bbd35049H
	DD	02998df04H
	DD	0980cf42aH
	DD	09b6df491H
	DD	09e7edd53H
	DD	06918548H
	DD	058cb7e07H
	DD	03b74ef2eH
	DD	0522fffb1H
	DD	0d24708ccH
	DD	01c7e27cdH
	DD	0a4eb215bH
	DD	03cf1d2e2H
	DD	019b47a38H
	DD	0424f7618H
	DD	035856039H
	DD	09d17dee7H
	DD	027eb35e6H
	DD	0c9aff67bH
	DD	036baf5b8H
	DD	09c467cdH
	DD	0c18910b1H
	DD	0e11dbf7bH
	DD	06cd1af8H
	DD	07170c608H
	DD	02d5e3354H
	DD	0d4de495aH
	DD	064c6d006H
	DD	0bcc0c62cH
	DD	03dd00db3H
	DD	0708f8f34H
	DD	077d51b42H
	DD	0264f620fH
	DD	024b8d2bfH
	DD	015c1b79eH
	DD	046a52564H
	DD	0f8d7e54eH
	DD	03e378160H
	DD	07895cda5H
	DD	0859c15a5H
	DD	0e6459788H
	DD	0c37bc75fH
	DD	0db07ba0cH
	DD	0676a3abH
	DD	07f229b1eH
	DD	031842e7bH
	DD	024259fd7H
	DD	0f8bef472H
	DD	0835ffcb8H
	DD	06df4c1f2H
	DD	096f5b195H
	DD	0fd0af0fcH
	DD	0b0fe134cH
	DD	0e2506d3dH
	DD	04f9b12eaH
	DD	0f215f225H
	DD	0a223736fH
	DD	09fb4c428H
	DD	025d04979H
	DD	034c713f8H
	DD	0c4618187H
	DD	0ea7a6e98H
	DD	07cd16efcH
	DD	01436876cH
	DD	0f1544107H
	DD	0bedeee14H
	DD	056e9af27H
	DD	0a04aa441H
	DD	03cf7c899H
	DD	092ecbae6H
	DD	0dd67016dH
	DD	0151682ebH
	DD	0a842eedfH
	DD	0fdba60b4H
	DD	0f1907b75H
	DD	020e3030fH
	DD	024d8c29eH
	DD	0e139673bH
	DD	0efa63fb8H
	DD	071873054H
	DD	0b6f2cf3bH
	DD	09f326442H
	DD	0cb15a4ccH
	DD	0b01a4504H
	DD	0f1e47d8dH
	DD	0844a1be5H
	DD	0bae7dfdcH
	DD	042cbda70H
	DD	0cd7dae0aH
	DD	057e85b7aH
	DD	0d53f5af6H
	DD	020cf4d8cH
	DD	0cea4d428H
	DD	079d130a4H
	DD	03486ebfbH
	DD	033d3cddcH
	DD	077853b53H
	DD	037effcb5H
	DD	0c5068778H
	DD	0e580b3e6H
	DD	04e68b8f4H
	DD	0c5c8b37eH
	DD	0d809ea2H
	DD	0398feb7cH
	DD	0132a4f94H
	DD	043b7950eH
	DD	02fee7d1cH
	DD	0223613bdH
	DD	0dd06caa2H
	DD	037df932bH
	DD	0c4248289H
	DD	0acf3ebc3H
	DD	05715f6b7H
	DD	0ef3478ddH
	DD	0f267616fH
	DD	0c148cbe4H
	DD	09052815eH
	DD	05e410fabH
	DD	0b48a2465H
	DD	02eda7fa4H
	DD	0e87b40e4H
	DD	0e98ea084H
	DD	05889e9e1H
	DD	0efd390fcH
	DD	0dd07d35bH
	DD	0db485694H
	DD	038d7e5b2H
	DD	057720101H
	DD	0730edebcH
	DD	05b643113H
	DD	094917e4fH
	DD	0503c2fbaH
	DD	0646f1282H
	DD	07523d24aH
	DD	0e0779695H
	DD	0f9c17a8fH
	DD	07a5b2121H
	DD	0d187b896H
	DD	029263a4dH
	DD	0ba510cdfH
	DD	081f47c9fH
	DD	0ad1163edH
	DD	0ea7b5965H
	DD	01a00726eH
	DD	011403092H
	DD	0da6d77H
	DD	04a0cdd61H
	DD	0ad1f4603H
	DD	0605bdfb0H
	DD	09eedc364H
	DD	022ebe6a8H
	DD	0cee7d28aH
	DD	0a0e736a0H
	DD	05564a6b9H
	DD	010853209H
	DD	0c7eb8f37H
	DD	02de705caH
	DD	08951570fH
	DD	0df09822bH
	DD	0bd691a6cH
	DD	0aa12e4f2H
	DD	087451c0fH
	DD	0e0f6a27aH
	DD	03ada4819H
	DD	04cf1764fH
	DD	0d771c2bH
	DD	067cdb156H
	DD	0350d8384H
	DD	05938fa0fH
	DD	042399ef3H
	DD	036997b07H
	DD	0e84093dH
	DD	04aa93e61H
	DD	08360d87bH
	DD	01fa98b0cH
	DD	01149382cH
	DD	0e97625a5H
	DD	0614d1b7H
	DD	0e25244bH
	DD	0c768347H
	DD	0589e8d82H
	DD	0d2059d1H
	DD	0a466bb1eH
	DD	0f8da0a82H
	DD	04f19130H
	DD	0ba6e4ec0H
	DD	099265164H
	DD	01ee7230dH
	DD	050b2ad80H
	DD	0eaee6801H
	DD	08db2a283H
	DD	0ea8bf59eH
; Function compile flags: /Ogspy
; File c:\home\public\desktop\projects\ciphershed.build\src\crypto\cast.c
;	COMDAT rotlVariable
_TEXT	SEGMENT
x$ = 8
y$ = 16
rotlVariable PROC					; COMDAT

; 25   : {

  00000	8b c1		 mov	 eax, ecx

; 26   : 	return (word32)((x<<y) | (x>>(sizeof(word32)*8-y)));

  00002	8b ca		 mov	 ecx, edx
  00004	d3 c0		 rol	 eax, cl

; 27   : }

  00006	c3		 ret	 0
rotlVariable ENDP
PUBLIC	Cast5SetKey
;	COMDAT pdata
; File c:\home\public\desktop\projects\ciphershed.build\src\common\endian.c
pdata	SEGMENT
$pdata$Cast5SetKey DD imagerel $LN21
	DD	imagerel $LN21+2813
	DD	imagerel $unwind$Cast5SetKey
pdata	ENDS
;	COMDAT xdata
xdata	SEGMENT
$unwind$Cast5SetKey DD 0a1901H
	DD	0153419H
	DD	0f015b219H
	DD	0d011e013H
	DD	0700dc00fH
	DD	0500b600cH
; Function compile flags: /Ogspy
; File c:\home\public\desktop\projects\ciphershed.build\src\crypto\cast.c
xdata	ENDS
;	COMDAT Cast5SetKey
_TEXT	SEGMENT
tv2064 = 0
Z$4$ = 0
X$3$ = 0
X$ = 8
tv1991 = 24
Z$ = 32
X$6$ = 48
X$2$ = 48
tv1480 = 56
tv471 = 56
tv131 = 56
tv1349 = 64
tv480 = 64
tv2052 = 72
tv1870 = 72
X$1$ = 80
tv2072 = 88
key$ = 160
keylength$ = 168
Z$7$ = 176
X$7$ = 176
X$4$ = 176
userKey$ = 176
tv1919 = 184
Z$3$ = 184
Z$2$ = 184
X$8$ = 184
Cast5SetKey PROC					; COMDAT

; 651  : {

$LN21:
  00000	48 89 5c 24 10	 mov	 QWORD PTR [rsp+16], rbx
  00005	48 89 4c 24 08	 mov	 QWORD PTR [rsp+8], rcx
  0000a	55		 push	 rbp
  0000b	56		 push	 rsi
  0000c	57		 push	 rdi
  0000d	41 54		 push	 r12
  0000f	41 55		 push	 r13
  00011	41 56		 push	 r14
  00013	41 57		 push	 r15
  00015	48 83 ec 60	 sub	 rsp, 96			; 00000060H

; 652  : 	unsigned int i;
; 653  : 	word32 *K = key->K;
; 654  : 	word32 X[4], Z[4];
; 655  : 
; 656  : 	X[0] = BE32 (((word32 *)userKey)[0]);

  00019	45 8b 08	 mov	 r9d, DWORD PTR [r8]
  0001c	48 8b d9	 mov	 rbx, rcx

; 657  : 	X[1] = BE32 (((word32 *)userKey)[1]);
; 658  : 	X[2] = BE32 (((word32 *)userKey)[2]);
; 659  : 	X[3] = BE32 (((word32 *)userKey)[3]);
; 660  : 
; 661  : #define x(i) GETBYTE(X[i/4], 3-i%4)
; 662  : #define z(i) GETBYTE(Z[i/4], 3-i%4)
; 663  : 
; 664  : 	for (i=0; i<=16; i+=16)
; 665  : 	{
; 666  : 		// this part is copied directly from RFC 2144 (with some search and replace) by Wei Dai
; 667  : 		Z[0] = X[0] ^ S[4][x(0xD)] ^ S[5][x(0xF)] ^ S[6][x(0xC)] ^ S[7][x(0xE)] ^ S[6][x(0x8)];
; 668  : 		Z[1] = X[2] ^ S[4][z(0x0)] ^ S[5][z(0x2)] ^ S[6][z(0x1)] ^ S[7][z(0x3)] ^ S[7][x(0xA)];
; 669  : 		Z[2] = X[3] ^ S[4][z(0x7)] ^ S[5][z(0x6)] ^ S[6][z(0x5)] ^ S[7][z(0x4)] ^ S[4][x(0x9)];
; 670  : 		Z[3] = X[1] ^ S[4][z(0xA)] ^ S[5][z(0x9)] ^ S[6][z(0xB)] ^ S[7][z(0x8)] ^ S[5][x(0xB)];
; 671  : 		K[i+0] = S[4][z(0x8)] ^ S[5][z(0x9)] ^ S[6][z(0x7)] ^ S[7][z(0x6)] ^ S[4][z(0x2)];
; 672  : 		K[i+1] = S[4][z(0xA)] ^ S[5][z(0xB)] ^ S[6][z(0x5)] ^ S[7][z(0x4)] ^ S[5][z(0x6)];
; 673  : 		K[i+2] = S[4][z(0xC)] ^ S[5][z(0xD)] ^ S[6][z(0x3)] ^ S[7][z(0x2)] ^ S[6][z(0x9)];
; 674  : 		K[i+3] = S[4][z(0xE)] ^ S[5][z(0xF)] ^ S[6][z(0x1)] ^ S[7][z(0x0)] ^ S[7][z(0xC)];
; 675  : 		X[0] = Z[2] ^ S[4][z(0x5)] ^ S[5][z(0x7)] ^ S[6][z(0x4)] ^ S[7][z(0x6)] ^ S[6][z(0x0)];
; 676  : 		X[1] = Z[0] ^ S[4][x(0x0)] ^ S[5][x(0x2)] ^ S[6][x(0x1)] ^ S[7][x(0x3)] ^ S[7][z(0x2)];
; 677  : 		X[2] = Z[1] ^ S[4][x(0x7)] ^ S[5][x(0x6)] ^ S[6][x(0x5)] ^ S[7][x(0x4)] ^ S[4][z(0x1)];
; 678  : 		X[3] = Z[3] ^ S[4][x(0xA)] ^ S[5][x(0x9)] ^ S[6][x(0xB)] ^ S[7][x(0x8)] ^ S[5][z(0x3)];
; 679  : 		K[i+4] = S[4][x(0x3)] ^ S[5][x(0x2)] ^ S[6][x(0xC)] ^ S[7][x(0xD)] ^ S[4][x(0x8)];
; 680  : 		K[i+5] = S[4][x(0x1)] ^ S[5][x(0x0)] ^ S[6][x(0xE)] ^ S[7][x(0xF)] ^ S[5][x(0xD)];
; 681  : 		K[i+6] = S[4][x(0x7)] ^ S[5][x(0x6)] ^ S[6][x(0x8)] ^ S[7][x(0x9)] ^ S[6][x(0x3)];
; 682  : 		K[i+7] = S[4][x(0x5)] ^ S[5][x(0x4)] ^ S[6][x(0xA)] ^ S[7][x(0xB)] ^ S[7][x(0x7)];
; 683  : 		Z[0] = X[0] ^ S[4][x(0xD)] ^ S[5][x(0xF)] ^ S[6][x(0xC)] ^ S[7][x(0xE)] ^ S[6][x(0x8)];
; 684  : 		Z[1] = X[2] ^ S[4][z(0x0)] ^ S[5][z(0x2)] ^ S[6][z(0x1)] ^ S[7][z(0x3)] ^ S[7][x(0xA)];
; 685  : 		Z[2] = X[3] ^ S[4][z(0x7)] ^ S[5][z(0x6)] ^ S[6][z(0x5)] ^ S[7][z(0x4)] ^ S[4][x(0x9)];
; 686  : 		Z[3] = X[1] ^ S[4][z(0xA)] ^ S[5][z(0x9)] ^ S[6][z(0xB)] ^ S[7][z(0x8)] ^ S[5][x(0xB)];
; 687  : 		K[i+8] = S[4][z(0x3)] ^ S[5][z(0x2)] ^ S[6][z(0xC)] ^ S[7][z(0xD)] ^ S[4][z(0x9)];
; 688  : 		K[i+9] = S[4][z(0x1)] ^ S[5][z(0x0)] ^ S[6][z(0xE)] ^ S[7][z(0xF)] ^ S[5][z(0xC)];
; 689  : 		K[i+10] = S[4][z(0x7)] ^ S[5][z(0x6)] ^ S[6][z(0x8)] ^ S[7][z(0x9)] ^ S[6][z(0x2)];
; 690  : 		K[i+11] = S[4][z(0x5)] ^ S[5][z(0x4)] ^ S[6][z(0xA)] ^ S[7][z(0xB)] ^ S[7][z(0x6)];
; 691  : 		X[0] = Z[2] ^ S[4][z(0x5)] ^ S[5][z(0x7)] ^ S[6][z(0x4)] ^ S[7][z(0x6)] ^ S[6][z(0x0)];
; 692  : 		X[1] = Z[0] ^ S[4][x(0x0)] ^ S[5][x(0x2)] ^ S[6][x(0x1)] ^ S[7][x(0x3)] ^ S[7][z(0x2)];
; 693  : 		X[2] = Z[1] ^ S[4][x(0x7)] ^ S[5][x(0x6)] ^ S[6][x(0x5)] ^ S[7][x(0x4)] ^ S[4][z(0x1)];
; 694  : 		X[3] = Z[3] ^ S[4][x(0xA)] ^ S[5][x(0x9)] ^ S[6][x(0xB)] ^ S[7][x(0x8)] ^ S[5][z(0x3)];
; 695  : 		K[i+12] = S[4][x(0x8)] ^ S[5][x(0x9)] ^ S[6][x(0x7)] ^ S[7][x(0x6)] ^ S[4][x(0x3)];
; 696  : 		K[i+13] = S[4][x(0xA)] ^ S[5][x(0xB)] ^ S[6][x(0x5)] ^ S[7][x(0x4)] ^ S[5][x(0x7)];
; 697  : 		K[i+14] = S[4][x(0xC)] ^ S[5][x(0xD)] ^ S[6][x(0x3)] ^ S[7][x(0x2)] ^ S[6][x(0x8)];
; 698  : 		K[i+15] = S[4][x(0xE)] ^ S[5][x(0xF)] ^ S[6][x(0x1)] ^ S[7][x(0x0)] ^ S[7][x(0xD)];
; 699  : 	}
; 700  : 
; 701  : 	for (i=16; i<32; i++)

  0001f	4c 8d 3d 00 00
	00 00		 lea	 r15, OFFSET FLAT:S
  00026	41 8b c1	 mov	 eax, r9d
  00029	c1 e8 08	 shr	 eax, 8
  0002c	44 0f b6 d8	 movzx	 r11d, al
  00030	41 0f b6 c1	 movzx	 eax, r9b
  00034	c1 e0 08	 shl	 eax, 8
  00037	44 0b d8	 or	 r11d, eax
  0003a	41 8b c1	 mov	 eax, r9d
  0003d	41 c1 e9 18	 shr	 r9d, 24
  00041	c1 e8 10	 shr	 eax, 16
  00044	41 c1 e3 08	 shl	 r11d, 8
  00048	0f b6 d0	 movzx	 edx, al
  0004b	44 0b da	 or	 r11d, edx
  0004e	41 8b 50 04	 mov	 edx, DWORD PTR [r8+4]
  00052	8b c2		 mov	 eax, edx
  00054	41 c1 e3 08	 shl	 r11d, 8
  00058	c1 e8 08	 shr	 eax, 8
  0005b	45 0b d9	 or	 r11d, r9d
  0005e	44 0f b6 c8	 movzx	 r9d, al
  00062	0f b6 c2	 movzx	 eax, dl
  00065	c1 e0 08	 shl	 eax, 8
  00068	44 0b c8	 or	 r9d, eax
  0006b	8b c2		 mov	 eax, edx
  0006d	c1 ea 18	 shr	 edx, 24
  00070	c1 e8 10	 shr	 eax, 16
  00073	41 c1 e1 08	 shl	 r9d, 8
  00077	0f b6 c8	 movzx	 ecx, al
  0007a	44 0b c9	 or	 r9d, ecx
  0007d	41 c1 e1 08	 shl	 r9d, 8
  00081	44 0b ca	 or	 r9d, edx
  00084	41 8b 50 08	 mov	 edx, DWORD PTR [r8+8]
  00088	44 89 8c 24 b0
	00 00 00	 mov	 DWORD PTR X$4$[rsp], r9d
  00090	8b c2		 mov	 eax, edx
  00092	c1 e8 08	 shr	 eax, 8
  00095	44 0f b6 c8	 movzx	 r9d, al
  00099	0f b6 c2	 movzx	 eax, dl
  0009c	c1 e0 08	 shl	 eax, 8
  0009f	44 0b c8	 or	 r9d, eax
  000a2	8b c2		 mov	 eax, edx
  000a4	c1 ea 18	 shr	 edx, 24
  000a7	c1 e8 10	 shr	 eax, 16
  000aa	41 c1 e1 08	 shl	 r9d, 8
  000ae	0f b6 c8	 movzx	 ecx, al
  000b1	44 0b c9	 or	 r9d, ecx
  000b4	41 c1 e1 08	 shl	 r9d, 8
  000b8	44 0b ca	 or	 r9d, edx
  000bb	41 8b 50 0c	 mov	 edx, DWORD PTR [r8+12]
  000bf	8b c2		 mov	 eax, edx
  000c1	41 8b e9	 mov	 ebp, r9d
  000c4	45 8b e9	 mov	 r13d, r9d
  000c7	c1 e8 08	 shr	 eax, 8
  000ca	c1 ed 08	 shr	 ebp, 8
  000cd	44 89 4c 24 10	 mov	 DWORD PTR X$[rsp+8], r9d
  000d2	44 0f b6 d0	 movzx	 r10d, al
  000d6	0f b6 c2	 movzx	 eax, dl
  000d9	c1 e0 08	 shl	 eax, 8
  000dc	44 0b d0	 or	 r10d, eax
  000df	8b c2		 mov	 eax, edx
  000e1	c1 ea 18	 shr	 edx, 24
  000e4	c1 e8 10	 shr	 eax, 16
  000e7	41 c1 e2 08	 shl	 r10d, 8
  000eb	0f b6 c8	 movzx	 ecx, al
  000ee	44 0b d1	 or	 r10d, ecx
  000f1	41 8b c9	 mov	 ecx, r9d
  000f4	41 c1 e2 08	 shl	 r10d, 8
  000f8	c1 e9 18	 shr	 ecx, 24
  000fb	44 0b d2	 or	 r10d, edx
  000fe	41 0f b6 c2	 movzx	 eax, r10b
  00102	45 8b c2	 mov	 r8d, r10d
  00105	41 8b fa	 mov	 edi, r10d
  00108	4d 8d b4 87 00
	14 00 00	 lea	 r14, QWORD PTR [r15+rax*4+5120]
  00110	41 0f b6 c1	 movzx	 eax, r9b
  00114	41 8b f2	 mov	 esi, r10d
  00117	41 c1 e8 18	 shr	 r8d, 24
  0011b	c1 ef 10	 shr	 edi, 16
  0011e	c1 ee 08	 shr	 esi, 8
  00121	49 8d 84 87 00
	14 00 00	 lea	 rax, QWORD PTR [r15+rax*4+5120]
  00129	44 89 54 24 14	 mov	 DWORD PTR X$[rsp+12], r10d
  0012e	41 c1 ed 10	 shr	 r13d, 16
  00132	48 89 44 24 40	 mov	 QWORD PTR tv1349[rsp], rax
  00137	48 8d 43 08	 lea	 rax, QWORD PTR [rbx+8]
  0013b	48 c7 44 24 58
	02 00 00 00	 mov	 QWORD PTR tv2072[rsp], 2
  00144	48 89 44 24 18	 mov	 QWORD PTR tv1991[rsp], rax
$LL6@Cast5SetKe:
  00149	0f b6 c9	 movzx	 ecx, cl
  0014c	48 8d 1d 00 00
	00 00		 lea	 rbx, OFFSET FLAT:S
  00153	40 0f b6 c6	 movzx	 eax, sil
  00157	45 8b bc 8f 00
	18 00 00	 mov	 r15d, DWORD PTR [r15+rcx*4+6144]
  0015f	44 33 bc 83 00
	1c 00 00	 xor	 r15d, DWORD PTR [rbx+rax*4+7168]
  00167	41 0f b6 c0	 movzx	 eax, r8b
  0016b	44 33 bc 83 00
	18 00 00	 xor	 r15d, DWORD PTR [rbx+rax*4+6144]
  00173	40 0f b6 c7	 movzx	 eax, dil
  00177	44 33 bc 83 00
	10 00 00	 xor	 r15d, DWORD PTR [rbx+rax*4+4096]
  0017f	45 33 3e	 xor	 r15d, DWORD PTR [r14]
  00182	45 33 fb	 xor	 r15d, r11d
  00185	41 8b c7	 mov	 eax, r15d
  00188	45 0f b6 c7	 movzx	 r8d, r15b
  0018c	44 89 7c 24 20	 mov	 DWORD PTR Z$[rsp], r15d
  00191	c1 e8 18	 shr	 eax, 24
  00194	44 0f b6 e0	 movzx	 r12d, al
  00198	41 8b c7	 mov	 eax, r15d
  0019b	c1 e8 10	 shr	 eax, 16
  0019e	0f b6 d0	 movzx	 edx, al
  001a1	41 8b c7	 mov	 eax, r15d
  001a4	c1 e8 08	 shr	 eax, 8
  001a7	48 89 54 24 38	 mov	 QWORD PTR tv131[rsp], rdx
  001ac	44 0f b6 f0	 movzx	 r14d, al
  001b0	40 0f b6 c5	 movzx	 eax, bpl
  001b4	8b 8c 83 00 1c
	00 00		 mov	 ecx, DWORD PTR [rbx+rax*4+7168]
  001bb	42 33 8c 83 00
	1c 00 00	 xor	 ecx, DWORD PTR [rbx+r8*4+7168]
  001c3	42 33 8c b3 00
	14 00 00	 xor	 ecx, DWORD PTR [rbx+r14*4+5120]
  001cb	42 33 8c a3 00
	10 00 00	 xor	 ecx, DWORD PTR [rbx+r12*4+4096]
  001d3	33 8c 93 00 18
	00 00		 xor	 ecx, DWORD PTR [rbx+rdx*4+6144]
  001da	41 33 c9	 xor	 ecx, r9d
  001dd	8b c1		 mov	 eax, ecx
  001df	44 0f b6 d9	 movzx	 r11d, cl
  001e3	89 8c 24 b8 00
	00 00		 mov	 DWORD PTR Z$3$[rsp], ecx
  001ea	c1 e8 18	 shr	 eax, 24
  001ed	89 4c 24 24	 mov	 DWORD PTR Z$[rsp+4], ecx
  001f1	0f b6 e8	 movzx	 ebp, al
  001f4	8b c1		 mov	 eax, ecx
  001f6	c1 e8 10	 shr	 eax, 16
  001f9	0f b6 f8	 movzx	 edi, al
  001fc	8b c1		 mov	 eax, ecx
  001fe	c1 e8 08	 shr	 eax, 8
  00201	0f b6 f0	 movzx	 esi, al
  00204	41 0f b6 c5	 movzx	 eax, r13b
  00208	4c 8d 2d 00 00
	00 00		 lea	 r13, OFFSET FLAT:S
  0020f	8b 9c 83 00 10
	00 00		 mov	 ebx, DWORD PTR [rbx+rax*4+4096]
  00216	43 33 9c 9d 00
	10 00 00	 xor	 ebx, DWORD PTR [r13+r11*4+4096]
  0021e	41 33 9c b5 00
	14 00 00	 xor	 ebx, DWORD PTR [r13+rsi*4+5120]
  00226	41 33 da	 xor	 ebx, r10d
  00229	41 33 9c ad 00
	1c 00 00	 xor	 ebx, DWORD PTR [r13+rbp*4+7168]
  00231	41 33 9c bd 00
	18 00 00	 xor	 ebx, DWORD PTR [r13+rdi*4+6144]
  00239	8b c3		 mov	 eax, ebx
  0023b	0f b6 d3	 movzx	 edx, bl
  0023e	89 5c 24 28	 mov	 DWORD PTR Z$[rsp+8], ebx
  00242	c1 e8 18	 shr	 eax, 24
  00245	44 0f b6 c0	 movzx	 r8d, al
  00249	8b c3		 mov	 eax, ebx
  0024b	c1 e8 10	 shr	 eax, 16
  0024e	44 0f b6 d0	 movzx	 r10d, al
  00252	8b c3		 mov	 eax, ebx
  00254	43 8b 8c 95 00
	14 00 00	 mov	 ecx, DWORD PTR [r13+r10*4+5120]
  0025c	45 8b ac 95 00
	18 00 00	 mov	 r13d, DWORD PTR [r13+rdx*4+6144]
  00264	c1 e8 08	 shr	 eax, 8
  00267	44 0f b6 c8	 movzx	 r9d, al
  0026b	48 8d 05 00 00
	00 00		 lea	 rax, OFFSET FLAT:S
  00272	46 33 ac 80 00
	1c 00 00	 xor	 r13d, DWORD PTR [rax+r8*4+7168]
  0027a	46 33 ac 88 00
	10 00 00	 xor	 r13d, DWORD PTR [rax+r9*4+4096]
  00282	48 8b 44 24 40	 mov	 rax, QWORD PTR tv1349[rsp]
  00287	44 33 28	 xor	 r13d, DWORD PTR [rax]
  0028a	48 8d 05 00 00
	00 00		 lea	 rax, OFFSET FLAT:S
  00291	42 8b 84 80 00
	10 00 00	 mov	 eax, DWORD PTR [rax+r8*4+4096]
  00299	4c 8d 05 00 00
	00 00		 lea	 r8, OFFSET FLAT:S
  002a0	44 33 e9	 xor	 r13d, ecx
  002a3	43 33 84 98 00
	18 00 00	 xor	 eax, DWORD PTR [r8+r11*4+6144]
  002ab	44 33 ac 24 b0
	00 00 00	 xor	 r13d, DWORD PTR X$4$[rsp]
  002b3	43 33 84 b0 00
	10 00 00	 xor	 eax, DWORD PTR [r8+r14*4+4096]
  002bb	44 89 ac 24 b0
	00 00 00	 mov	 DWORD PTR Z$7$[rsp], r13d
  002c3	44 89 6c 24 2c	 mov	 DWORD PTR Z$[rsp+12], r13d
  002c8	33 c1		 xor	 eax, ecx
  002ca	48 8b 4c 24 18	 mov	 rcx, QWORD PTR tv1991[rsp]
  002cf	41 33 84 b0 00
	1c 00 00	 xor	 eax, DWORD PTR [r8+rsi*4+7168]
  002d7	89 41 f8	 mov	 DWORD PTR [rcx-8], eax
  002da	41 8b 84 90 00
	14 00 00	 mov	 eax, DWORD PTR [r8+rdx*4+5120]
  002e2	48 8d 15 00 00
	00 00		 lea	 rdx, OFFSET FLAT:S
  002e9	42 33 84 8a 00
	10 00 00	 xor	 eax, DWORD PTR [rdx+r9*4+4096]
  002f1	45 0f b6 cf	 movzx	 r9d, r15b
  002f5	33 84 b2 00 14
	00 00		 xor	 eax, DWORD PTR [rdx+rsi*4+5120]
  002fc	33 84 aa 00 1c
	00 00		 xor	 eax, DWORD PTR [rdx+rbp*4+7168]
  00303	33 84 ba 00 18
	00 00		 xor	 eax, DWORD PTR [rdx+rdi*4+6144]
  0030a	89 41 fc	 mov	 DWORD PTR [rcx-4], eax
  0030d	41 8b c5	 mov	 eax, r13d
  00310	c1 e8 18	 shr	 eax, 24
  00313	44 0f b6 c0	 movzx	 r8d, al
  00317	41 8b c5	 mov	 eax, r13d
  0031a	c1 e8 10	 shr	 eax, 16
  0031d	0f b6 c8	 movzx	 ecx, al
  00320	8b 84 8a 00 14
	00 00		 mov	 eax, DWORD PTR [rdx+rcx*4+5120]
  00327	42 33 84 82 00
	10 00 00	 xor	 eax, DWORD PTR [rdx+r8*4+4096]
  0032f	42 33 84 92 00
	18 00 00	 xor	 eax, DWORD PTR [rdx+r10*4+6144]
  00337	4c 8b 54 24 18	 mov	 r10, QWORD PTR tv1991[rsp]
  0033c	42 33 84 8a 00
	18 00 00	 xor	 eax, DWORD PTR [rdx+r9*4+6144]
  00344	42 33 84 b2 00
	1c 00 00	 xor	 eax, DWORD PTR [rdx+r14*4+7168]
  0034c	41 89 02	 mov	 DWORD PTR [r10], eax
  0034f	41 8b c5	 mov	 eax, r13d
  00352	c1 e8 08	 shr	 eax, 8
  00355	0f b6 c8	 movzx	 ecx, al
  00358	41 0f b6 c5	 movzx	 eax, r13b
  0035c	4c 8d 2d 00 00
	00 00		 lea	 r13, OFFSET FLAT:S
  00363	8b 94 8a 00 10
	00 00		 mov	 edx, DWORD PTR [rdx+rcx*4+4096]
  0036a	41 33 94 85 00
	14 00 00	 xor	 edx, DWORD PTR [r13+rax*4+5120]
  00372	43 33 94 85 00
	1c 00 00	 xor	 edx, DWORD PTR [r13+r8*4+7168]
  0037a	4c 8b 44 24 38	 mov	 r8, QWORD PTR tv131[rsp]
  0037f	43 33 94 a5 00
	1c 00 00	 xor	 edx, DWORD PTR [r13+r12*4+7168]
  00387	43 33 94 85 00
	18 00 00	 xor	 edx, DWORD PTR [r13+r8*4+6144]
  0038f	41 89 52 04	 mov	 DWORD PTR [r10+4], edx
  00393	43 8b 8c 9d 00
	14 00 00	 mov	 ecx, DWORD PTR [r13+r11*4+5120]
  0039b	41 33 8c bd 00
	10 00 00	 xor	 ecx, DWORD PTR [r13+rdi*4+4096]
  003a3	41 33 8c ad 00
	18 00 00	 xor	 ecx, DWORD PTR [r13+rbp*4+6144]
  003ab	43 33 8c a5 00
	18 00 00	 xor	 ecx, DWORD PTR [r13+r12*4+6144]
  003b3	33 cb		 xor	 ecx, ebx
  003b5	48 8d 1d 00 00
	00 00		 lea	 rbx, OFFSET FLAT:S
  003bc	33 8c b3 00 1c
	00 00		 xor	 ecx, DWORD PTR [rbx+rsi*4+7168]
  003c3	8b c1		 mov	 eax, ecx
  003c5	89 4c 24 08	 mov	 DWORD PTR X$[rsp], ecx
  003c9	89 0c 24	 mov	 DWORD PTR X$3$[rsp], ecx
  003cc	44 0f b6 6c 24
	08		 movzx	 r13d, BYTE PTR X$[rsp]
  003d2	c1 e8 18	 shr	 eax, 24
  003d5	0f b6 e8	 movzx	 ebp, al
  003d8	8b c1		 mov	 eax, ecx
  003da	c1 e8 10	 shr	 eax, 16
  003dd	0f b6 f8	 movzx	 edi, al
  003e0	8b c1		 mov	 eax, ecx
  003e2	c1 e8 08	 shr	 eax, 8
  003e5	0f b6 c8	 movzx	 ecx, al
  003e8	8b 94 8b 00 14
	00 00		 mov	 edx, DWORD PTR [rbx+rcx*4+5120]
  003ef	42 8b 8c ab 00
	1c 00 00	 mov	 ecx, DWORD PTR [rbx+r13*4+7168]
  003f7	33 8c bb 00 18
	00 00		 xor	 ecx, DWORD PTR [rbx+rdi*4+6144]
  003fe	33 8c ab 00 10
	00 00		 xor	 ecx, DWORD PTR [rbx+rbp*4+4096]
  00405	42 33 8c b3 00
	1c 00 00	 xor	 ecx, DWORD PTR [rbx+r14*4+7168]
  0040d	33 ca		 xor	 ecx, edx
  0040f	41 33 cf	 xor	 ecx, r15d
  00412	8b c1		 mov	 eax, ecx
  00414	44 0f b6 d9	 movzx	 r11d, cl
  00418	89 4c 24 30	 mov	 DWORD PTR X$2$[rsp], ecx
  0041c	c1 e8 18	 shr	 eax, 24
  0041f	89 4c 24 0c	 mov	 DWORD PTR X$[rsp+4], ecx
  00423	44 0f b6 e0	 movzx	 r12d, al
  00427	8b c1		 mov	 eax, ecx
  00429	c1 e8 10	 shr	 eax, 16
  0042c	0f b6 f0	 movzx	 esi, al
  0042f	8b c1		 mov	 eax, ecx
  00431	44 8b bc b3 00
	18 00 00	 mov	 r15d, DWORD PTR [rbx+rsi*4+6144]
  00439	c1 e8 08	 shr	 eax, 8
  0043c	46 33 bc a3 00
	1c 00 00	 xor	 r15d, DWORD PTR [rbx+r12*4+7168]
  00444	44 0f b6 d0	 movzx	 r10d, al
  00448	46 33 bc 83 00
	10 00 00	 xor	 r15d, DWORD PTR [rbx+r8*4+4096]
  00450	46 33 bc 9b 00
	10 00 00	 xor	 r15d, DWORD PTR [rbx+r11*4+4096]
  00458	46 33 bc 93 00
	14 00 00	 xor	 r15d, DWORD PTR [rbx+r10*4+5120]
  00460	44 33 bc 24 b8
	00 00 00	 xor	 r15d, DWORD PTR Z$3$[rsp]
  00468	41 8b c7	 mov	 eax, r15d
  0046b	44 89 7c 24 10	 mov	 DWORD PTR X$[rsp+8], r15d
  00470	c1 e8 18	 shr	 eax, 24
  00473	0f b6 d8	 movzx	 ebx, al
  00476	41 8b c7	 mov	 eax, r15d
  00479	48 8d 0d 00 00
	00 00		 lea	 rcx, OFFSET FLAT:S
  00480	4c 8d 1d 00 00
	00 00		 lea	 r11, OFFSET FLAT:S
  00487	c1 e8 10	 shr	 eax, 16
  0048a	44 0f b6 c0	 movzx	 r8d, al
  0048e	41 8b c7	 mov	 eax, r15d
  00491	c1 e8 08	 shr	 eax, 8
  00494	4c 89 84 24 b8
	00 00 00	 mov	 QWORD PTR tv1919[rsp], r8
  0049c	44 0f b6 f0	 movzx	 r14d, al
  004a0	41 0f b6 c7	 movzx	 eax, r15b
  004a4	8b 8c 81 00 18
	00 00		 mov	 ecx, DWORD PTR [rcx+rax*4+6144]
  004ab	48 8d 05 00 00
	00 00		 lea	 rax, OFFSET FLAT:S
  004b2	42 33 8c 80 00
	14 00 00	 xor	 ecx, DWORD PTR [rax+r8*4+5120]
  004ba	42 33 8c 88 00
	14 00 00	 xor	 ecx, DWORD PTR [rax+r9*4+5120]
  004c2	42 33 8c b0 00
	10 00 00	 xor	 ecx, DWORD PTR [rax+r14*4+4096]
  004ca	33 8c 98 00 1c
	00 00		 xor	 ecx, DWORD PTR [rax+rbx*4+7168]
  004d1	33 8c 24 b0 00
	00 00		 xor	 ecx, DWORD PTR Z$7$[rsp]
  004d8	8b c1		 mov	 eax, ecx
  004da	89 8c 24 b0 00
	00 00		 mov	 DWORD PTR X$7$[rsp], ecx
  004e1	89 4c 24 14	 mov	 DWORD PTR X$[rsp+12], ecx
  004e5	c1 e8 18	 shr	 eax, 24
  004e8	44 0f b6 c8	 movzx	 r9d, al
  004ec	8b c1		 mov	 eax, ecx
  004ee	c1 e8 10	 shr	 eax, 16
  004f1	44 0f b6 c0	 movzx	 r8d, al
  004f5	48 8d 05 00 00
	00 00		 lea	 rax, OFFSET FLAT:S
  004fc	42 8b 84 a8 00
	10 00 00	 mov	 eax, DWORD PTR [rax+r13*4+4096]
  00504	41 33 84 9b 00
	10 00 00	 xor	 eax, DWORD PTR [r11+rbx*4+4096]
  0050c	43 33 84 83 00
	1c 00 00	 xor	 eax, DWORD PTR [r11+r8*4+7168]
  00514	44 0f b6 5c 24
	0c		 movzx	 r11d, BYTE PTR X$[rsp+4]
  0051a	33 c2		 xor	 eax, edx
  0051c	48 8d 15 00 00
	00 00		 lea	 rdx, OFFSET FLAT:S
  00523	42 33 84 8a 00
	18 00 00	 xor	 eax, DWORD PTR [rdx+r9*4+6144]
  0052b	48 8b 54 24 18	 mov	 rdx, QWORD PTR tv1991[rsp]
  00530	89 42 08	 mov	 DWORD PTR [rdx+8], eax
  00533	8b c1		 mov	 eax, ecx
  00535	0f b6 c9	 movzx	 ecx, cl
  00538	c1 e8 08	 shr	 eax, 8
  0053b	0f b6 d0	 movzx	 edx, al
  0053e	48 8d 05 00 00
	00 00		 lea	 rax, OFFSET FLAT:S
  00545	8b 84 b8 00 10
	00 00		 mov	 eax, DWORD PTR [rax+rdi*4+4096]
  0054c	48 8d 3d 00 00
	00 00		 lea	 rdi, OFFSET FLAT:S
  00553	33 84 af 00 14
	00 00		 xor	 eax, DWORD PTR [rdi+rbp*4+5120]
  0055a	48 8b 6c 24 18	 mov	 rbp, QWORD PTR tv1991[rsp]
  0055f	33 84 8f 00 1c
	00 00		 xor	 eax, DWORD PTR [rdi+rcx*4+7168]
  00566	33 84 97 00 18
	00 00		 xor	 eax, DWORD PTR [rdi+rdx*4+6144]
  0056d	42 33 84 87 00
	14 00 00	 xor	 eax, DWORD PTR [rdi+r8*4+5120]
  00575	89 45 0c	 mov	 DWORD PTR [rbp+12], eax
  00578	42 8b 84 af 00
	18 00 00	 mov	 eax, DWORD PTR [rdi+r13*4+6144]
  00580	48 8b bc 24 b8
	00 00 00	 mov	 rdi, QWORD PTR tv1919[rsp]
  00588	4c 8d 2d 00 00
	00 00		 lea	 r13, OFFSET FLAT:S
  0058f	41 33 84 bd 00
	1c 00 00	 xor	 eax, DWORD PTR [r13+rdi*4+7168]
  00597	43 33 84 9d 00
	10 00 00	 xor	 eax, DWORD PTR [r13+r11*4+4096]
  0059f	43 33 84 95 00
	14 00 00	 xor	 eax, DWORD PTR [r13+r10*4+5120]
  005a7	45 0f b6 d7	 movzx	 r10d, r15b
  005ab	41 33 84 9d 00
	18 00 00	 xor	 eax, DWORD PTR [r13+rbx*4+6144]
  005b3	89 45 10	 mov	 DWORD PTR [rbp+16], eax
  005b6	43 8b 84 9d 00
	1c 00 00	 mov	 eax, DWORD PTR [r13+r11*4+7168]
  005be	4c 8d 1d 00 00
	00 00		 lea	 r11, OFFSET FLAT:S
  005c5	41 33 84 b3 00
	10 00 00	 xor	 eax, DWORD PTR [r11+rsi*4+4096]
  005cd	43 33 84 a3 00
	14 00 00	 xor	 eax, DWORD PTR [r11+r12*4+5120]
  005d5	43 33 84 93 00
	1c 00 00	 xor	 eax, DWORD PTR [r11+r10*4+7168]
  005dd	43 33 84 b3 00
	18 00 00	 xor	 eax, DWORD PTR [r11+r14*4+6144]
  005e5	89 45 14	 mov	 DWORD PTR [rbp+20], eax
  005e8	45 8b 94 8b 00
	14 00 00	 mov	 r10d, DWORD PTR [r11+rcx*4+5120]
  005f0	45 33 94 93 00
	1c 00 00	 xor	 r10d, DWORD PTR [r11+rdx*4+7168]
  005f8	47 33 94 83 00
	10 00 00	 xor	 r10d, DWORD PTR [r11+r8*4+4096]
  00600	44 33 14 24	 xor	 r10d, DWORD PTR X$3$[rsp]
  00604	47 33 94 8b 00
	18 00 00	 xor	 r10d, DWORD PTR [r11+r9*4+6144]
  0060c	45 33 94 9b 00
	18 00 00	 xor	 r10d, DWORD PTR [r11+rbx*4+6144]
  00614	41 8b c2	 mov	 eax, r10d
  00617	44 89 94 24 b8
	00 00 00	 mov	 DWORD PTR Z$2$[rsp], r10d
  0061f	44 89 54 24 20	 mov	 DWORD PTR Z$[rsp], r10d
  00624	c1 e8 18	 shr	 eax, 24
  00627	0f b6 c8	 movzx	 ecx, al
  0062a	41 8b c2	 mov	 eax, r10d
  0062d	c1 e8 10	 shr	 eax, 16
  00630	48 89 4c 24 40	 mov	 QWORD PTR tv480[rsp], rcx
  00635	44 0f b6 c8	 movzx	 r9d, al
  00639	41 8b c2	 mov	 eax, r10d
  0063c	4c 89 4c 24 38	 mov	 QWORD PTR tv471[rsp], r9
  00641	41 8b bc bb 00
	10 00 00	 mov	 edi, DWORD PTR [r11+rdi*4+4096]
  00649	c1 e8 08	 shr	 eax, 8
  0064c	0f b6 c0	 movzx	 eax, al
  0064f	48 89 44 24 48	 mov	 QWORD PTR tv1870[rsp], rax
  00654	41 8b 94 83 00
	14 00 00	 mov	 edx, DWORD PTR [r11+rax*4+5120]
  0065c	41 0f b6 c2	 movzx	 eax, r10b
  00660	45 8b 84 83 00
	1c 00 00	 mov	 r8d, DWORD PTR [r11+rax*4+7168]
  00668	47 33 84 b3 00
	1c 00 00	 xor	 r8d, DWORD PTR [r11+r14*4+7168]
  00670	47 33 84 8b 00
	18 00 00	 xor	 r8d, DWORD PTR [r11+r9*4+6144]
  00678	45 33 84 8b 00
	10 00 00	 xor	 r8d, DWORD PTR [r11+rcx*4+4096]
  00680	44 33 c2	 xor	 r8d, edx
  00683	45 33 c7	 xor	 r8d, r15d
  00686	4c 8d 3d 00 00
	00 00		 lea	 r15, OFFSET FLAT:S
  0068d	41 8b c0	 mov	 eax, r8d
  00690	41 0f b6 f0	 movzx	 esi, r8b
  00694	44 89 04 24	 mov	 DWORD PTR Z$4$[rsp], r8d
  00698	c1 e8 18	 shr	 eax, 24
  0069b	44 89 44 24 24	 mov	 DWORD PTR Z$[rsp+4], r8d
  006a0	0f b6 e8	 movzx	 ebp, al
  006a3	41 8b c0	 mov	 eax, r8d
  006a6	c1 e8 10	 shr	 eax, 16
  006a9	44 0f b6 e0	 movzx	 r12d, al
  006ad	41 8b c0	 mov	 eax, r8d
  006b0	43 33 bc a3 00
	18 00 00	 xor	 edi, DWORD PTR [r11+r12*4+6144]
  006b8	c1 e8 08	 shr	 eax, 8
  006bb	41 33 bc ab 00
	1c 00 00	 xor	 edi, DWORD PTR [r11+rbp*4+7168]
  006c3	44 0f b6 e8	 movzx	 r13d, al
  006c7	41 33 bc b3 00
	10 00 00	 xor	 edi, DWORD PTR [r11+rsi*4+4096]
  006cf	43 33 bc ab 00
	14 00 00	 xor	 edi, DWORD PTR [r11+r13*4+5120]
  006d7	33 bc 24 b0 00
	00 00		 xor	 edi, DWORD PTR X$7$[rsp]
  006de	8b c7		 mov	 eax, edi
  006e0	44 0f b6 df	 movzx	 r11d, dil
  006e4	89 7c 24 28	 mov	 DWORD PTR Z$[rsp+8], edi
  006e8	47 8b b4 9f 00
	18 00 00	 mov	 r14d, DWORD PTR [r15+r11*4+6144]
  006f0	c1 e8 18	 shr	 eax, 24
  006f3	44 0f b6 d0	 movzx	 r10d, al
  006f7	8b c7		 mov	 eax, edi
  006f9	c1 e8 10	 shr	 eax, 16
  006fc	44 0f b6 c8	 movzx	 r9d, al
  00700	8b c7		 mov	 eax, edi
  00702	c1 e8 08	 shr	 eax, 8
  00705	0f b6 d8	 movzx	 ebx, al
  00708	0f b6 44 24 10	 movzx	 eax, BYTE PTR X$[rsp+8]
  0070d	45 33 b4 87 00
	14 00 00	 xor	 r14d, DWORD PTR [r15+rax*4+5120]
  00715	45 33 b4 9f 00
	10 00 00	 xor	 r14d, DWORD PTR [r15+rbx*4+4096]
  0071d	47 33 b4 8f 00
	14 00 00	 xor	 r14d, DWORD PTR [r15+r9*4+5120]
  00725	47 33 b4 97 00
	1c 00 00	 xor	 r14d, DWORD PTR [r15+r10*4+7168]
  0072d	44 33 74 24 30	 xor	 r14d, DWORD PTR X$2$[rsp]
  00732	41 8b c6	 mov	 eax, r14d
  00735	44 89 74 24 2c	 mov	 DWORD PTR Z$[rsp+12], r14d
  0073a	c1 e8 18	 shr	 eax, 24
  0073d	44 0f b6 c0	 movzx	 r8d, al
  00741	41 8b c6	 mov	 eax, r14d
  00744	c1 e8 10	 shr	 eax, 16
  00747	0f b6 c8	 movzx	 ecx, al
  0074a	41 8b 84 8f 00
	1c 00 00	 mov	 eax, DWORD PTR [r15+rcx*4+7168]
  00752	48 8d 0d 00 00
	00 00		 lea	 rcx, OFFSET FLAT:S
  00759	43 33 84 87 00
	18 00 00	 xor	 eax, DWORD PTR [r15+r8*4+6144]
  00761	43 33 84 8f 00
	10 00 00	 xor	 eax, DWORD PTR [r15+r9*4+4096]
  00769	44 0f b6 7c 24
	20		 movzx	 r15d, BYTE PTR Z$[rsp]
  0076f	42 33 84 b9 00
	10 00 00	 xor	 eax, DWORD PTR [rcx+r15*4+4096]
  00777	33 c2		 xor	 eax, edx
  00779	48 8b 54 24 18	 mov	 rdx, QWORD PTR tv1991[rsp]
  0077e	89 42 18	 mov	 DWORD PTR [rdx+24], eax
  00781	41 8b c6	 mov	 eax, r14d
  00784	48 8d 15 00 00
	00 00		 lea	 rdx, OFFSET FLAT:S
  0078b	c1 e8 08	 shr	 eax, 8
  0078e	0f b6 c8	 movzx	 ecx, al
  00791	41 0f b6 c6	 movzx	 eax, r14b
  00795	8b 94 8a 00 18
	00 00		 mov	 edx, DWORD PTR [rdx+rcx*4+6144]
  0079c	48 8d 0d 00 00
	00 00		 lea	 rcx, OFFSET FLAT:S
  007a3	33 94 81 00 1c
	00 00		 xor	 edx, DWORD PTR [rcx+rax*4+7168]
  007aa	48 8b 4c 24 40	 mov	 rcx, QWORD PTR tv480[rsp]
  007af	48 8d 05 00 00
	00 00		 lea	 rax, OFFSET FLAT:S
  007b6	42 33 94 80 00
	14 00 00	 xor	 edx, DWORD PTR [rax+r8*4+5120]
  007be	4c 8b 44 24 38	 mov	 r8, QWORD PTR tv471[rsp]
  007c3	33 94 88 00 14
	00 00		 xor	 edx, DWORD PTR [rax+rcx*4+5120]
  007ca	42 33 94 80 00
	10 00 00	 xor	 edx, DWORD PTR [rax+r8*4+4096]
  007d2	48 8b 44 24 18	 mov	 rax, QWORD PTR tv1991[rsp]
  007d7	89 50 1c	 mov	 DWORD PTR [rax+28], edx
  007da	48 8d 05 00 00
	00 00		 lea	 rax, OFFSET FLAT:S
  007e1	42 8b 84 88 00
	1c 00 00	 mov	 eax, DWORD PTR [rax+r9*4+7168]
  007e9	48 8b 54 24 48	 mov	 rdx, QWORD PTR tv1870[rsp]
  007ee	4c 8d 0d 00 00
	00 00		 lea	 r9, OFFSET FLAT:S
  007f5	43 33 84 91 00
	18 00 00	 xor	 eax, DWORD PTR [r9+r10*4+6144]
  007fd	41 33 84 91 00
	18 00 00	 xor	 eax, DWORD PTR [r9+rdx*4+6144]
  00805	41 33 84 b1 00
	10 00 00	 xor	 eax, DWORD PTR [r9+rsi*4+4096]
  0080d	43 33 84 a9 00
	14 00 00	 xor	 eax, DWORD PTR [r9+r13*4+5120]
  00815	4c 8b 4c 24 18	 mov	 r9, QWORD PTR tv1991[rsp]
  0081a	41 89 41 20	 mov	 DWORD PTR [r9+32], eax
  0081e	48 8d 05 00 00
	00 00		 lea	 rax, OFFSET FLAT:S
  00825	42 8b 84 98 00
	1c 00 00	 mov	 eax, DWORD PTR [rax+r11*4+7168]
  0082d	4c 8d 1d 00 00
	00 00		 lea	 r11, OFFSET FLAT:S
  00834	41 33 84 9b 00
	18 00 00	 xor	 eax, DWORD PTR [r11+rbx*4+6144]
  0083c	41 33 84 ab 00
	14 00 00	 xor	 eax, DWORD PTR [r11+rbp*4+5120]
  00844	43 33 84 a3 00
	10 00 00	 xor	 eax, DWORD PTR [r11+r12*4+4096]
  0084c	43 33 84 ab 00
	1c 00 00	 xor	 eax, DWORD PTR [r11+r13*4+7168]
  00854	41 89 41 24	 mov	 DWORD PTR [r9+36], eax
  00858	45 8b 8c b3 00
	14 00 00	 mov	 r9d, DWORD PTR [r11+rsi*4+5120]
  00860	45 33 8c ab 00
	18 00 00	 xor	 r9d, DWORD PTR [r11+rbp*4+6144]
  00868	45 33 8c 8b 00
	18 00 00	 xor	 r9d, DWORD PTR [r11+rcx*4+6144]
  00870	47 33 8c a3 00
	10 00 00	 xor	 r9d, DWORD PTR [r11+r12*4+4096]
  00878	44 33 cf	 xor	 r9d, edi
  0087b	47 33 8c ab 00
	1c 00 00	 xor	 r9d, DWORD PTR [r11+r13*4+7168]
  00883	41 8b c1	 mov	 eax, r9d
  00886	41 0f b6 f1	 movzx	 esi, r9b
  0088a	44 89 4c 24 50	 mov	 DWORD PTR X$1$[rsp], r9d
  0088f	41 8b 8c b3 00
	1c 00 00	 mov	 ecx, DWORD PTR [r11+rsi*4+7168]
  00897	c1 e8 18	 shr	 eax, 24
  0089a	44 89 4c 24 08	 mov	 DWORD PTR X$[rsp], r9d
  0089f	44 0f b6 e0	 movzx	 r12d, al
  008a3	41 8b c1	 mov	 eax, r9d
  008a6	48 8d 35 00 00
	00 00		 lea	 rsi, OFFSET FLAT:S
  008ad	c1 e8 10	 shr	 eax, 16
  008b0	44 0f b6 e8	 movzx	 r13d, al
  008b4	41 8b c1	 mov	 eax, r9d
  008b7	c1 e8 08	 shr	 eax, 8
  008ba	0f b6 e8	 movzx	 ebp, al
  008bd	41 33 8c ab 00
	14 00 00	 xor	 ecx, DWORD PTR [r11+rbp*4+5120]
  008c5	43 33 8c a3 00
	10 00 00	 xor	 ecx, DWORD PTR [r11+r12*4+4096]
  008cd	41 33 8c 93 00
	1c 00 00	 xor	 ecx, DWORD PTR [r11+rdx*4+7168]
  008d5	48 8d 15 00 00
	00 00		 lea	 rdx, OFFSET FLAT:S
  008dc	43 33 8c ab 00
	18 00 00	 xor	 ecx, DWORD PTR [r11+r13*4+6144]
  008e4	33 8c 24 b8 00
	00 00		 xor	 ecx, DWORD PTR Z$2$[rsp]
  008eb	8b c1		 mov	 eax, ecx
  008ed	44 0f b6 d1	 movzx	 r10d, cl
  008f1	89 8c 24 b0 00
	00 00		 mov	 DWORD PTR X$4$[rsp], ecx
  008f8	c1 e8 18	 shr	 eax, 24
  008fb	89 4c 24 0c	 mov	 DWORD PTR X$[rsp+4], ecx
  008ff	0f b6 f8	 movzx	 edi, al
  00902	8b c1		 mov	 eax, ecx
  00904	c1 e8 10	 shr	 eax, 16
  00907	0f b6 d8	 movzx	 ebx, al
  0090a	8b c1		 mov	 eax, ecx
  0090c	43 8b 8c 93 00
	10 00 00	 mov	 ecx, DWORD PTR [r11+r10*4+4096]
  00914	c1 e8 08	 shr	 eax, 8
  00917	44 0f b6 c8	 movzx	 r9d, al
  0091b	43 33 8c 8b 00
	14 00 00	 xor	 ecx, DWORD PTR [r11+r9*4+5120]
  00923	41 33 8c 9b 00
	18 00 00	 xor	 ecx, DWORD PTR [r11+rbx*4+6144]
  0092b	43 33 8c 83 00
	10 00 00	 xor	 ecx, DWORD PTR [r11+r8*4+4096]
  00933	41 33 8c bb 00
	1c 00 00	 xor	 ecx, DWORD PTR [r11+rdi*4+7168]
  0093b	33 0c 24	 xor	 ecx, DWORD PTR Z$4$[rsp]
  0093e	8b c1		 mov	 eax, ecx
  00940	89 4c 24 30	 mov	 DWORD PTR X$6$[rsp], ecx
  00944	89 4c 24 10	 mov	 DWORD PTR X$[rsp+8], ecx
  00948	c1 e8 18	 shr	 eax, 24
  0094b	89 04 24	 mov	 DWORD PTR tv2064[rsp], eax
  0094e	44 0f b6 d8	 movzx	 r11d, al
  00952	8b c1		 mov	 eax, ecx
  00954	c1 e8 10	 shr	 eax, 16
  00957	89 44 24 38	 mov	 DWORD PTR tv1480[rsp], eax
  0095b	0f b6 c0	 movzx	 eax, al
  0095e	8b 94 82 00 14
	00 00		 mov	 edx, DWORD PTR [rdx+rax*4+5120]
  00965	8b c1		 mov	 eax, ecx
  00967	0f b6 c9	 movzx	 ecx, cl
  0096a	c1 e8 08	 shr	 eax, 8
  0096d	89 44 24 48	 mov	 DWORD PTR tv2052[rsp], eax
  00971	44 0f b6 c0	 movzx	 r8d, al
  00975	48 8d 05 00 00
	00 00		 lea	 rax, OFFSET FLAT:S
  0097c	8b 84 88 00 18
	00 00		 mov	 eax, DWORD PTR [rax+rcx*4+6144]
  00983	42 33 84 be 00
	14 00 00	 xor	 eax, DWORD PTR [rsi+r15*4+5120]
  0098b	4c 8d 3d 00 00
	00 00		 lea	 r15, OFFSET FLAT:S
  00992	43 33 84 9f 00
	1c 00 00	 xor	 eax, DWORD PTR [r15+r11*4+7168]
  0099a	0f b6 74 24 08	 movzx	 esi, BYTE PTR X$[rsp]
  0099f	49 8d 8c 8f 00
	14 00 00	 lea	 rcx, QWORD PTR [r15+rcx*4+5120]
  009a7	43 33 84 87 00
	10 00 00	 xor	 eax, DWORD PTR [r15+r8*4+4096]
  009af	48 89 4c 24 40	 mov	 QWORD PTR tv1349[rsp], rcx
  009b4	33 c2		 xor	 eax, edx
  009b6	41 33 c6	 xor	 eax, r14d
  009b9	89 84 24 b8 00
	00 00		 mov	 DWORD PTR X$8$[rsp], eax
  009c0	89 44 24 14	 mov	 DWORD PTR X$[rsp+12], eax
  009c4	43 8b 84 97 00
	18 00 00	 mov	 eax, DWORD PTR [r15+r10*4+6144]
  009cc	43 33 84 8f 00
	1c 00 00	 xor	 eax, DWORD PTR [r15+r9*4+7168]
  009d4	4c 8b 4c 24 18	 mov	 r9, QWORD PTR tv1991[rsp]
  009d9	41 33 84 b7 00
	10 00 00	 xor	 eax, DWORD PTR [r15+rsi*4+4096]
  009e1	49 83 c1 40	 add	 r9, 64			; 00000040H
  009e5	43 33 84 9f 00
	10 00 00	 xor	 eax, DWORD PTR [r15+r11*4+4096]
  009ed	4c 89 4c 24 18	 mov	 QWORD PTR tv1991[rsp], r9
  009f2	33 c2		 xor	 eax, edx
  009f4	41 89 41 e8	 mov	 DWORD PTR [r9-24], eax
  009f8	43 8b 84 97 00
	14 00 00	 mov	 eax, DWORD PTR [r15+r10*4+5120]
  00a00	44 8b 94 24 b8
	00 00 00	 mov	 r10d, DWORD PTR X$8$[rsp]
  00a08	43 33 84 87 00
	10 00 00	 xor	 eax, DWORD PTR [r15+r8*4+4096]
  00a10	45 8b c2	 mov	 r8d, r10d
  00a13	41 33 84 9f 00
	18 00 00	 xor	 eax, DWORD PTR [r15+rbx*4+6144]
  00a1b	41 c1 e8 18	 shr	 r8d, 24
  00a1f	41 33 84 bf 00
	1c 00 00	 xor	 eax, DWORD PTR [r15+rdi*4+7168]
  00a27	41 8b fa	 mov	 edi, r10d
  00a2a	33 01		 xor	 eax, DWORD PTR [rcx]
  00a2c	c1 ef 10	 shr	 edi, 16
  00a2f	41 89 41 ec	 mov	 DWORD PTR [r9-20], eax
  00a33	41 0f b6 c0	 movzx	 eax, r8b
  00a37	40 0f b6 d7	 movzx	 edx, dil
  00a3b	41 8b 8c 87 00
	10 00 00	 mov	 ecx, DWORD PTR [r15+rax*4+4096]
  00a43	0f b6 44 24 14	 movzx	 eax, BYTE PTR X$[rsp+12]
  00a48	41 33 8c b7 00
	18 00 00	 xor	 ecx, DWORD PTR [r15+rsi*4+6144]
  00a50	4d 8d b4 87 00
	14 00 00	 lea	 r14, QWORD PTR [r15+rax*4+5120]
  00a58	41 8b f2	 mov	 esi, r10d
  00a5b	41 33 8c af 00
	1c 00 00	 xor	 ecx, DWORD PTR [r15+rbp*4+7168]
  00a63	8b 6c 24 48	 mov	 ebp, DWORD PTR tv2052[rsp]
  00a67	c1 ee 08	 shr	 esi, 8
  00a6a	43 33 8c 9f 00
	18 00 00	 xor	 ecx, DWORD PTR [r15+r11*4+6144]
  00a72	44 8b 5c 24 50	 mov	 r11d, DWORD PTR X$1$[rsp]
  00a77	40 0f b6 c6	 movzx	 eax, sil
  00a7b	41 33 8c 97 00
	14 00 00	 xor	 ecx, DWORD PTR [r15+rdx*4+5120]
  00a83	41 89 49 f0	 mov	 DWORD PTR [r9-16], ecx
  00a87	41 8b 8c 87 00
	10 00 00	 mov	 ecx, DWORD PTR [r15+rax*4+4096]
  00a8f	43 33 8c a7 00
	1c 00 00	 xor	 ecx, DWORD PTR [r15+r12*4+7168]
  00a97	41 33 8c 97 00
	1c 00 00	 xor	 ecx, DWORD PTR [r15+rdx*4+7168]
  00a9f	43 33 8c af 00
	18 00 00	 xor	 ecx, DWORD PTR [r15+r13*4+6144]
  00aa7	44 8b 6c 24 38	 mov	 r13d, DWORD PTR tv1480[rsp]
  00aac	41 33 0e	 xor	 ecx, DWORD PTR [r14]
  00aaf	48 83 6c 24 58
	01		 sub	 QWORD PTR tv2072[rsp], 1
  00ab5	41 89 49 f4	 mov	 DWORD PTR [r9-12], ecx
  00ab9	44 8b 4c 24 30	 mov	 r9d, DWORD PTR X$6$[rsp]
  00abe	8b 0c 24	 mov	 ecx, DWORD PTR tv2064[rsp]
  00ac1	0f 85 82 f6 ff
	ff		 jne	 $LL6@Cast5SetKe
  00ac7	48 8b 84 24 a0
	00 00 00	 mov	 rax, QWORD PTR key$[rsp]
  00acf	b9 10 00 00 00	 mov	 ecx, 16
  00ad4	48 83 c0 40	 add	 rax, 64			; 00000040H
$LL3@Cast5SetKe:

; 702  : 		K[i] &= 0x1f;

  00ad8	83 20 1f	 and	 DWORD PTR [rax], 31
  00adb	48 83 c0 04	 add	 rax, 4
  00adf	48 83 e9 01	 sub	 rcx, 1
  00ae3	75 f3		 jne	 SHORT $LL3@Cast5SetKe

; 703  : }

  00ae5	48 8b 9c 24 a8
	00 00 00	 mov	 rbx, QWORD PTR [rsp+168]
  00aed	48 83 c4 60	 add	 rsp, 96			; 00000060H
  00af1	41 5f		 pop	 r15
  00af3	41 5e		 pop	 r14
  00af5	41 5d		 pop	 r13
  00af7	41 5c		 pop	 r12
  00af9	5f		 pop	 rdi
  00afa	5e		 pop	 rsi
  00afb	5d		 pop	 rbp
  00afc	c3		 ret	 0
Cast5SetKey ENDP
_TEXT	ENDS
PUBLIC	Cast5Decrypt
;	COMDAT pdata
; File c:\home\public\desktop\projects\ciphershed.build\src\common\endian.c
pdata	SEGMENT
$pdata$Cast5Decrypt DD imagerel $LN43
	DD	imagerel $LN43+1456
	DD	imagerel $unwind$Cast5Decrypt
pdata	ENDS
;	COMDAT xdata
xdata	SEGMENT
$unwind$Cast5Decrypt DD 081301H
	DD	047413H
	DD	03640fH
	DD	02540bH
	DD	013407H
; Function compile flags: /Ogspy
; File c:\home\public\desktop\projects\ciphershed.build\src\crypto\cast.c
xdata	ENDS
;	COMDAT Cast5Decrypt
_TEXT	SEGMENT
inBlock$ = 8
outBlock$ = 16
key$ = 24
Cast5Decrypt PROC					; COMDAT

; 620  : {

$LN43:
  00000	48 8b c4	 mov	 rax, rsp
  00003	48 89 58 08	 mov	 QWORD PTR [rax+8], rbx
  00007	48 89 68 10	 mov	 QWORD PTR [rax+16], rbp
  0000b	48 89 70 18	 mov	 QWORD PTR [rax+24], rsi
  0000f	48 89 78 20	 mov	 QWORD PTR [rax+32], rdi

; 621  : 	word32 r = BE32 (((word32 *)inBlock)[0]);
; 622  : 	word32 l = BE32 (((word32 *)inBlock)[1]);

  00013	44 8b 49 04	 mov	 r9d, DWORD PTR [rcx+4]
  00017	44 8b 11	 mov	 r10d, DWORD PTR [rcx]
  0001a	4d 8b d8	 mov	 r11, r8
  0001d	41 8b c1	 mov	 eax, r9d
  00020	48 8b f2	 mov	 rsi, rdx

; 623  : 	word32 *K = key->K;
; 624  : 	word32 t;
; 625  : 
; 626  : 	/* Only do full 16 rounds if key length > 80 bits */
; 627  : 	F1(r, l, 15, 16);

  00023	48 8d 2d 00 00
	00 00		 lea	 rbp, OFFSET FLAT:S
  0002a	c1 e8 08	 shr	 eax, 8
  0002d	0f b6 f8	 movzx	 edi, al
  00030	41 0f b6 c1	 movzx	 eax, r9b
  00034	c1 e0 08	 shl	 eax, 8
  00037	0b f8		 or	 edi, eax
  00039	41 8b c1	 mov	 eax, r9d
  0003c	41 c1 e9 18	 shr	 r9d, 24
  00040	c1 e8 10	 shr	 eax, 16
  00043	c1 e7 08	 shl	 edi, 8
  00046	0f b6 c8	 movzx	 ecx, al
  00049	41 8b 40 3c	 mov	 eax, DWORD PTR [r8+60]
  0004d	0b f9		 or	 edi, ecx
  0004f	41 8b 4b 7c	 mov	 ecx, DWORD PTR [r11+124]
  00053	c1 e7 08	 shl	 edi, 8
  00056	41 0b f9	 or	 edi, r9d

; 628  : 	F3(l, r, 14, 16);

  00059	45 8b 4b 38	 mov	 r9d, DWORD PTR [r11+56]
  0005d	44 8d 04 07	 lea	 r8d, DWORD PTR [rdi+rax]
  00061	41 d3 c0	 rol	 r8d, cl
  00064	41 8b c0	 mov	 eax, r8d
  00067	c1 e8 18	 shr	 eax, 24
  0006a	0f b6 d0	 movzx	 edx, al
  0006d	41 8b c0	 mov	 eax, r8d
  00070	8b 5c 95 00	 mov	 ebx, DWORD PTR [rbp+rdx*4]
  00074	c1 e8 10	 shr	 eax, 16
  00077	0f b6 c8	 movzx	 ecx, al
  0007a	41 8b c0	 mov	 eax, r8d
  0007d	33 9c 8d 00 04
	00 00		 xor	 ebx, DWORD PTR [rbp+rcx*4+1024]
  00084	c1 e8 08	 shr	 eax, 8
  00087	0f b6 c8	 movzx	 ecx, al
  0008a	41 0f b6 c0	 movzx	 eax, r8b
  0008e	2b 9c 8d 00 08
	00 00		 sub	 ebx, DWORD PTR [rbp+rcx*4+2048]
  00095	03 9c 85 00 0c
	00 00		 add	 ebx, DWORD PTR [rbp+rax*4+3072]
  0009c	41 8b c2	 mov	 eax, r10d
  0009f	c1 e8 08	 shr	 eax, 8
  000a2	0f b6 d0	 movzx	 edx, al
  000a5	41 0f b6 c2	 movzx	 eax, r10b
  000a9	c1 e0 08	 shl	 eax, 8
  000ac	0b d0		 or	 edx, eax
  000ae	41 8b c2	 mov	 eax, r10d
  000b1	41 c1 ea 18	 shr	 r10d, 24
  000b5	c1 e8 10	 shr	 eax, 16
  000b8	c1 e2 08	 shl	 edx, 8
  000bb	0f b6 c8	 movzx	 ecx, al
  000be	0b d1		 or	 edx, ecx
  000c0	41 8b 4b 78	 mov	 ecx, DWORD PTR [r11+120]
  000c4	c1 e2 08	 shl	 edx, 8
  000c7	41 0b d2	 or	 edx, r10d
  000ca	33 da		 xor	 ebx, edx
  000cc	44 2b cb	 sub	 r9d, ebx
  000cf	41 d3 c1	 rol	 r9d, cl
  000d2	41 8b c1	 mov	 eax, r9d
  000d5	c1 e8 18	 shr	 eax, 24
  000d8	0f b6 d0	 movzx	 edx, al
  000db	41 8b c1	 mov	 eax, r9d
  000de	44 8b 44 95 00	 mov	 r8d, DWORD PTR [rbp+rdx*4]
  000e3	c1 e8 10	 shr	 eax, 16
  000e6	0f b6 c8	 movzx	 ecx, al
  000e9	41 8b c1	 mov	 eax, r9d
  000ec	44 03 84 8d 00
	04 00 00	 add	 r8d, DWORD PTR [rbp+rcx*4+1024]
  000f4	c1 e8 08	 shr	 eax, 8
  000f7	0f b6 c8	 movzx	 ecx, al
  000fa	41 0f b6 c1	 movzx	 eax, r9b

; 629  : 	F2(r, l, 13, 16);

  000fe	45 8b 4b 34	 mov	 r9d, DWORD PTR [r11+52]
  00102	44 33 84 8d 00
	08 00 00	 xor	 r8d, DWORD PTR [rbp+rcx*4+2048]
  0010a	41 8b 4b 74	 mov	 ecx, DWORD PTR [r11+116]
  0010e	44 2b 84 85 00
	0c 00 00	 sub	 r8d, DWORD PTR [rbp+rax*4+3072]
  00116	41 33 f8	 xor	 edi, r8d
  00119	44 33 cf	 xor	 r9d, edi
  0011c	41 d3 c1	 rol	 r9d, cl
  0011f	41 8b c1	 mov	 eax, r9d
  00122	c1 e8 18	 shr	 eax, 24
  00125	0f b6 d0	 movzx	 edx, al
  00128	41 8b c1	 mov	 eax, r9d
  0012b	c1 e8 10	 shr	 eax, 16
  0012e	0f b6 c8	 movzx	 ecx, al
  00131	44 8b 44 95 00	 mov	 r8d, DWORD PTR [rbp+rdx*4]
  00136	41 8b c1	 mov	 eax, r9d
  00139	44 2b 84 8d 00
	04 00 00	 sub	 r8d, DWORD PTR [rbp+rcx*4+1024]
  00141	c1 e8 08	 shr	 eax, 8
  00144	0f b6 c8	 movzx	 ecx, al
  00147	41 0f b6 c1	 movzx	 eax, r9b
  0014b	44 03 84 8d 00
	08 00 00	 add	 r8d, DWORD PTR [rbp+rcx*4+2048]

; 630  : 	F1(l, r, 12, 16);

  00153	41 8b 4b 70	 mov	 ecx, DWORD PTR [r11+112]
  00157	44 33 84 85 00
	0c 00 00	 xor	 r8d, DWORD PTR [rbp+rax*4+3072]
  0015f	41 8b 43 30	 mov	 eax, DWORD PTR [r11+48]
  00163	41 33 d8	 xor	 ebx, r8d
  00166	44 8d 0c 03	 lea	 r9d, DWORD PTR [rbx+rax]
  0016a	41 d3 c1	 rol	 r9d, cl
  0016d	41 8b c1	 mov	 eax, r9d
  00170	c1 e8 18	 shr	 eax, 24
  00173	0f b6 d0	 movzx	 edx, al
  00176	41 8b c1	 mov	 eax, r9d
  00179	44 8b 44 95 00	 mov	 r8d, DWORD PTR [rbp+rdx*4]
  0017e	c1 e8 10	 shr	 eax, 16
  00181	0f b6 c8	 movzx	 ecx, al
  00184	41 8b c1	 mov	 eax, r9d
  00187	44 33 84 8d 00
	04 00 00	 xor	 r8d, DWORD PTR [rbp+rcx*4+1024]
  0018f	c1 e8 08	 shr	 eax, 8
  00192	0f b6 c8	 movzx	 ecx, al
  00195	41 0f b6 c1	 movzx	 eax, r9b

; 631  : 	F3(r, l, 11, 16);

  00199	45 8b 4b 2c	 mov	 r9d, DWORD PTR [r11+44]
  0019d	44 2b 84 8d 00
	08 00 00	 sub	 r8d, DWORD PTR [rbp+rcx*4+2048]
  001a5	41 8b 4b 6c	 mov	 ecx, DWORD PTR [r11+108]
  001a9	44 03 84 85 00
	0c 00 00	 add	 r8d, DWORD PTR [rbp+rax*4+3072]
  001b1	41 33 f8	 xor	 edi, r8d
  001b4	44 2b cf	 sub	 r9d, edi
  001b7	41 d3 c1	 rol	 r9d, cl
  001ba	41 8b c1	 mov	 eax, r9d
  001bd	c1 e8 18	 shr	 eax, 24
  001c0	0f b6 d0	 movzx	 edx, al
  001c3	41 8b c1	 mov	 eax, r9d
  001c6	44 8b 44 95 00	 mov	 r8d, DWORD PTR [rbp+rdx*4]
  001cb	c1 e8 10	 shr	 eax, 16
  001ce	0f b6 c8	 movzx	 ecx, al
  001d1	41 8b c1	 mov	 eax, r9d
  001d4	44 03 84 8d 00
	04 00 00	 add	 r8d, DWORD PTR [rbp+rcx*4+1024]
  001dc	c1 e8 08	 shr	 eax, 8
  001df	0f b6 c8	 movzx	 ecx, al
  001e2	41 0f b6 c1	 movzx	 eax, r9b

; 632  : 	F2(l, r, 10, 16);

  001e6	45 8b 4b 28	 mov	 r9d, DWORD PTR [r11+40]
  001ea	44 33 84 8d 00
	08 00 00	 xor	 r8d, DWORD PTR [rbp+rcx*4+2048]
  001f2	41 8b 4b 68	 mov	 ecx, DWORD PTR [r11+104]
  001f6	44 2b 84 85 00
	0c 00 00	 sub	 r8d, DWORD PTR [rbp+rax*4+3072]
  001fe	41 33 d8	 xor	 ebx, r8d
  00201	44 33 cb	 xor	 r9d, ebx
  00204	41 d3 c1	 rol	 r9d, cl
  00207	41 8b c1	 mov	 eax, r9d
  0020a	c1 e8 18	 shr	 eax, 24
  0020d	0f b6 d0	 movzx	 edx, al
  00210	41 8b c1	 mov	 eax, r9d
  00213	44 8b 44 95 00	 mov	 r8d, DWORD PTR [rbp+rdx*4]
  00218	c1 e8 10	 shr	 eax, 16
  0021b	0f b6 c8	 movzx	 ecx, al
  0021e	41 8b c1	 mov	 eax, r9d
  00221	44 2b 84 8d 00
	04 00 00	 sub	 r8d, DWORD PTR [rbp+rcx*4+1024]
  00229	c1 e8 08	 shr	 eax, 8
  0022c	0f b6 c8	 movzx	 ecx, al
  0022f	41 0f b6 c1	 movzx	 eax, r9b
  00233	44 03 84 8d 00
	08 00 00	 add	 r8d, DWORD PTR [rbp+rcx*4+2048]

; 633  : 	F1(r, l,  9, 16);

  0023b	41 8b 4b 64	 mov	 ecx, DWORD PTR [r11+100]
  0023f	44 33 84 85 00
	0c 00 00	 xor	 r8d, DWORD PTR [rbp+rax*4+3072]
  00247	41 8b 43 24	 mov	 eax, DWORD PTR [r11+36]
  0024b	41 33 f8	 xor	 edi, r8d
  0024e	44 8d 0c 07	 lea	 r9d, DWORD PTR [rdi+rax]
  00252	41 d3 c1	 rol	 r9d, cl
  00255	41 8b c1	 mov	 eax, r9d
  00258	c1 e8 18	 shr	 eax, 24
  0025b	0f b6 d0	 movzx	 edx, al
  0025e	41 8b c1	 mov	 eax, r9d
  00261	44 8b 44 95 00	 mov	 r8d, DWORD PTR [rbp+rdx*4]
  00266	c1 e8 10	 shr	 eax, 16
  00269	0f b6 c8	 movzx	 ecx, al
  0026c	41 8b c1	 mov	 eax, r9d
  0026f	44 33 84 8d 00
	04 00 00	 xor	 r8d, DWORD PTR [rbp+rcx*4+1024]
  00277	c1 e8 08	 shr	 eax, 8
  0027a	0f b6 c8	 movzx	 ecx, al
  0027d	44 2b 84 8d 00
	08 00 00	 sub	 r8d, DWORD PTR [rbp+rcx*4+2048]

; 634  : 	F3(l, r,  8, 16);

  00285	41 8b 4b 60	 mov	 ecx, DWORD PTR [r11+96]
  00289	41 0f b6 c1	 movzx	 eax, r9b
  0028d	44 03 84 85 00
	0c 00 00	 add	 r8d, DWORD PTR [rbp+rax*4+3072]
  00295	45 8b 4b 20	 mov	 r9d, DWORD PTR [r11+32]
  00299	41 33 d8	 xor	 ebx, r8d
  0029c	44 2b cb	 sub	 r9d, ebx
  0029f	41 d3 c1	 rol	 r9d, cl
  002a2	41 8b c1	 mov	 eax, r9d
  002a5	c1 e8 18	 shr	 eax, 24
  002a8	0f b6 d0	 movzx	 edx, al
  002ab	41 8b c1	 mov	 eax, r9d
  002ae	44 8b 44 95 00	 mov	 r8d, DWORD PTR [rbp+rdx*4]
  002b3	c1 e8 10	 shr	 eax, 16
  002b6	0f b6 c8	 movzx	 ecx, al
  002b9	41 8b c1	 mov	 eax, r9d
  002bc	44 03 84 8d 00
	04 00 00	 add	 r8d, DWORD PTR [rbp+rcx*4+1024]
  002c4	c1 e8 08	 shr	 eax, 8
  002c7	0f b6 c8	 movzx	 ecx, al
  002ca	41 0f b6 c1	 movzx	 eax, r9b

; 635  : 	F2(r, l,  7, 16);

  002ce	45 8b 4b 1c	 mov	 r9d, DWORD PTR [r11+28]
  002d2	44 33 84 8d 00
	08 00 00	 xor	 r8d, DWORD PTR [rbp+rcx*4+2048]
  002da	41 8b 4b 5c	 mov	 ecx, DWORD PTR [r11+92]
  002de	44 2b 84 85 00
	0c 00 00	 sub	 r8d, DWORD PTR [rbp+rax*4+3072]
  002e6	41 33 f8	 xor	 edi, r8d
  002e9	44 33 cf	 xor	 r9d, edi
  002ec	41 d3 c1	 rol	 r9d, cl
  002ef	41 8b c1	 mov	 eax, r9d
  002f2	c1 e8 18	 shr	 eax, 24
  002f5	0f b6 d0	 movzx	 edx, al
  002f8	41 8b c1	 mov	 eax, r9d
  002fb	44 8b 44 95 00	 mov	 r8d, DWORD PTR [rbp+rdx*4]
  00300	c1 e8 10	 shr	 eax, 16
  00303	0f b6 c8	 movzx	 ecx, al
  00306	41 8b c1	 mov	 eax, r9d
  00309	44 2b 84 8d 00
	04 00 00	 sub	 r8d, DWORD PTR [rbp+rcx*4+1024]
  00311	c1 e8 08	 shr	 eax, 8
  00314	0f b6 c8	 movzx	 ecx, al
  00317	41 0f b6 c1	 movzx	 eax, r9b
  0031b	44 03 84 8d 00
	08 00 00	 add	 r8d, DWORD PTR [rbp+rcx*4+2048]

; 636  : 	F1(l, r,  6, 16);

  00323	41 8b 4b 58	 mov	 ecx, DWORD PTR [r11+88]
  00327	44 33 84 85 00
	0c 00 00	 xor	 r8d, DWORD PTR [rbp+rax*4+3072]
  0032f	41 8b 43 18	 mov	 eax, DWORD PTR [r11+24]
  00333	41 33 d8	 xor	 ebx, r8d
  00336	44 8d 0c 03	 lea	 r9d, DWORD PTR [rbx+rax]
  0033a	41 d3 c1	 rol	 r9d, cl
  0033d	41 8b c1	 mov	 eax, r9d
  00340	c1 e8 18	 shr	 eax, 24
  00343	0f b6 d0	 movzx	 edx, al
  00346	41 8b c1	 mov	 eax, r9d
  00349	44 8b 44 95 00	 mov	 r8d, DWORD PTR [rbp+rdx*4]
  0034e	c1 e8 10	 shr	 eax, 16
  00351	0f b6 c8	 movzx	 ecx, al
  00354	41 8b c1	 mov	 eax, r9d
  00357	44 33 84 8d 00
	04 00 00	 xor	 r8d, DWORD PTR [rbp+rcx*4+1024]
  0035f	c1 e8 08	 shr	 eax, 8
  00362	0f b6 c8	 movzx	 ecx, al
  00365	41 0f b6 c1	 movzx	 eax, r9b

; 637  : 	F3(r, l,  5, 16);

  00369	45 8b 4b 14	 mov	 r9d, DWORD PTR [r11+20]
  0036d	44 2b 84 8d 00
	08 00 00	 sub	 r8d, DWORD PTR [rbp+rcx*4+2048]
  00375	41 8b 4b 54	 mov	 ecx, DWORD PTR [r11+84]
  00379	44 03 84 85 00
	0c 00 00	 add	 r8d, DWORD PTR [rbp+rax*4+3072]
  00381	41 33 f8	 xor	 edi, r8d
  00384	44 2b cf	 sub	 r9d, edi
  00387	41 d3 c1	 rol	 r9d, cl
  0038a	41 8b c1	 mov	 eax, r9d
  0038d	c1 e8 18	 shr	 eax, 24
  00390	0f b6 d0	 movzx	 edx, al
  00393	41 8b c1	 mov	 eax, r9d
  00396	44 8b 44 95 00	 mov	 r8d, DWORD PTR [rbp+rdx*4]
  0039b	c1 e8 10	 shr	 eax, 16
  0039e	0f b6 c8	 movzx	 ecx, al
  003a1	41 8b c1	 mov	 eax, r9d
  003a4	44 03 84 8d 00
	04 00 00	 add	 r8d, DWORD PTR [rbp+rcx*4+1024]
  003ac	c1 e8 08	 shr	 eax, 8
  003af	0f b6 c8	 movzx	 ecx, al
  003b2	41 0f b6 c1	 movzx	 eax, r9b

; 638  : 	F2(l, r,  4, 16);

  003b6	45 8b 4b 10	 mov	 r9d, DWORD PTR [r11+16]
  003ba	44 33 84 8d 00
	08 00 00	 xor	 r8d, DWORD PTR [rbp+rcx*4+2048]
  003c2	44 2b 84 85 00
	0c 00 00	 sub	 r8d, DWORD PTR [rbp+rax*4+3072]
  003ca	41 33 d8	 xor	 ebx, r8d
  003cd	41 8b 4b 50	 mov	 ecx, DWORD PTR [r11+80]
  003d1	44 33 cb	 xor	 r9d, ebx
  003d4	41 d3 c1	 rol	 r9d, cl
  003d7	41 8b c1	 mov	 eax, r9d
  003da	c1 e8 18	 shr	 eax, 24
  003dd	0f b6 d0	 movzx	 edx, al
  003e0	41 8b c1	 mov	 eax, r9d
  003e3	44 8b 44 95 00	 mov	 r8d, DWORD PTR [rbp+rdx*4]
  003e8	c1 e8 10	 shr	 eax, 16
  003eb	0f b6 c8	 movzx	 ecx, al
  003ee	41 8b c1	 mov	 eax, r9d
  003f1	44 2b 84 8d 00
	04 00 00	 sub	 r8d, DWORD PTR [rbp+rcx*4+1024]
  003f9	c1 e8 08	 shr	 eax, 8
  003fc	0f b6 c8	 movzx	 ecx, al
  003ff	41 0f b6 c1	 movzx	 eax, r9b
  00403	44 03 84 8d 00
	08 00 00	 add	 r8d, DWORD PTR [rbp+rcx*4+2048]

; 639  : 	F1(r, l,  3, 16);

  0040b	41 8b 4b 4c	 mov	 ecx, DWORD PTR [r11+76]
  0040f	44 33 84 85 00
	0c 00 00	 xor	 r8d, DWORD PTR [rbp+rax*4+3072]
  00417	41 8b 43 0c	 mov	 eax, DWORD PTR [r11+12]
  0041b	41 33 f8	 xor	 edi, r8d
  0041e	44 8d 0c 07	 lea	 r9d, DWORD PTR [rdi+rax]
  00422	41 d3 c1	 rol	 r9d, cl
  00425	41 8b c1	 mov	 eax, r9d
  00428	c1 e8 18	 shr	 eax, 24
  0042b	0f b6 d0	 movzx	 edx, al
  0042e	41 8b c1	 mov	 eax, r9d
  00431	44 8b 44 95 00	 mov	 r8d, DWORD PTR [rbp+rdx*4]
  00436	c1 e8 10	 shr	 eax, 16
  00439	0f b6 c8	 movzx	 ecx, al
  0043c	41 8b c1	 mov	 eax, r9d
  0043f	44 33 84 8d 00
	04 00 00	 xor	 r8d, DWORD PTR [rbp+rcx*4+1024]
  00447	c1 e8 08	 shr	 eax, 8
  0044a	0f b6 c8	 movzx	 ecx, al
  0044d	41 0f b6 c1	 movzx	 eax, r9b

; 640  : 	F3(l, r,  2, 16);

  00451	45 8b 4b 08	 mov	 r9d, DWORD PTR [r11+8]
  00455	44 2b 84 8d 00
	08 00 00	 sub	 r8d, DWORD PTR [rbp+rcx*4+2048]
  0045d	41 8b 4b 48	 mov	 ecx, DWORD PTR [r11+72]
  00461	44 03 84 85 00
	0c 00 00	 add	 r8d, DWORD PTR [rbp+rax*4+3072]
  00469	41 33 d8	 xor	 ebx, r8d
  0046c	44 2b cb	 sub	 r9d, ebx
  0046f	41 d3 c1	 rol	 r9d, cl
  00472	41 8b c1	 mov	 eax, r9d
  00475	c1 e8 18	 shr	 eax, 24
  00478	0f b6 d0	 movzx	 edx, al
  0047b	41 8b c1	 mov	 eax, r9d
  0047e	44 8b 44 95 00	 mov	 r8d, DWORD PTR [rbp+rdx*4]
  00483	c1 e8 10	 shr	 eax, 16
  00486	0f b6 c8	 movzx	 ecx, al
  00489	41 8b c1	 mov	 eax, r9d
  0048c	44 03 84 8d 00
	04 00 00	 add	 r8d, DWORD PTR [rbp+rcx*4+1024]
  00494	c1 e8 08	 shr	 eax, 8
  00497	0f b6 c8	 movzx	 ecx, al
  0049a	41 0f b6 c1	 movzx	 eax, r9b

; 641  : 	F2(r, l,  1, 16);

  0049e	45 8b 4b 04	 mov	 r9d, DWORD PTR [r11+4]
  004a2	44 33 84 8d 00
	08 00 00	 xor	 r8d, DWORD PTR [rbp+rcx*4+2048]
  004aa	41 8b 4b 44	 mov	 ecx, DWORD PTR [r11+68]
  004ae	44 2b 84 85 00
	0c 00 00	 sub	 r8d, DWORD PTR [rbp+rax*4+3072]
  004b6	41 33 f8	 xor	 edi, r8d
  004b9	44 33 cf	 xor	 r9d, edi
  004bc	41 d3 c1	 rol	 r9d, cl
  004bf	41 8b c1	 mov	 eax, r9d
  004c2	c1 e8 18	 shr	 eax, 24
  004c5	0f b6 d0	 movzx	 edx, al
  004c8	41 8b c1	 mov	 eax, r9d
  004cb	44 8b 44 95 00	 mov	 r8d, DWORD PTR [rbp+rdx*4]
  004d0	c1 e8 10	 shr	 eax, 16
  004d3	0f b6 c8	 movzx	 ecx, al
  004d6	41 8b c1	 mov	 eax, r9d
  004d9	44 2b 84 8d 00
	04 00 00	 sub	 r8d, DWORD PTR [rbp+rcx*4+1024]
  004e1	c1 e8 08	 shr	 eax, 8
  004e4	0f b6 c8	 movzx	 ecx, al
  004e7	41 0f b6 c1	 movzx	 eax, r9b
  004eb	44 03 84 8d 00
	08 00 00	 add	 r8d, DWORD PTR [rbp+rcx*4+2048]

; 642  : 	F1(l, r,  0, 16);

  004f3	41 8b 4b 40	 mov	 ecx, DWORD PTR [r11+64]
  004f7	44 33 84 85 00
	0c 00 00	 xor	 r8d, DWORD PTR [rbp+rax*4+3072]
  004ff	41 8b 03	 mov	 eax, DWORD PTR [r11]
  00502	41 33 d8	 xor	 ebx, r8d
  00505	44 8d 0c 03	 lea	 r9d, DWORD PTR [rbx+rax]
  00509	41 d3 c1	 rol	 r9d, cl
  0050c	41 8b c1	 mov	 eax, r9d
  0050f	c1 e8 18	 shr	 eax, 24
  00512	0f b6 d0	 movzx	 edx, al
  00515	41 8b c1	 mov	 eax, r9d
  00518	44 8b 44 95 00	 mov	 r8d, DWORD PTR [rbp+rdx*4]
  0051d	c1 e8 10	 shr	 eax, 16
  00520	0f b6 c8	 movzx	 ecx, al
  00523	41 8b c1	 mov	 eax, r9d
  00526	44 33 84 8d 00
	04 00 00	 xor	 r8d, DWORD PTR [rbp+rcx*4+1024]
  0052e	c1 e8 08	 shr	 eax, 8
  00531	0f b6 c8	 movzx	 ecx, al
  00534	41 0f b6 c1	 movzx	 eax, r9b
  00538	44 2b 84 8d 00
	08 00 00	 sub	 r8d, DWORD PTR [rbp+rcx*4+2048]
  00540	44 03 84 85 00
	0c 00 00	 add	 r8d, DWORD PTR [rbp+rax*4+3072]

; 643  : 	/* Put l,r into outblock */
; 644  : 	((word32 *)outBlock)[0] = BE32 (l);
; 645  : 	((word32 *)outBlock)[1] = BE32 (r);
; 646  : 	/* Wipe clean */
; 647  : 	t = l = r = 0;
; 648  : }

  00548	48 8b 6c 24 10	 mov	 rbp, QWORD PTR [rsp+16]
  0054d	41 33 f8	 xor	 edi, r8d
  00550	8b c7		 mov	 eax, edi
  00552	c1 e8 08	 shr	 eax, 8
  00555	0f b6 d0	 movzx	 edx, al
  00558	40 0f b6 c7	 movzx	 eax, dil
  0055c	c1 e0 08	 shl	 eax, 8
  0055f	0b d0		 or	 edx, eax
  00561	8b c7		 mov	 eax, edi
  00563	c1 ef 18	 shr	 edi, 24
  00566	c1 e2 08	 shl	 edx, 8
  00569	c1 e8 10	 shr	 eax, 16
  0056c	0f b6 c8	 movzx	 ecx, al
  0056f	8b c3		 mov	 eax, ebx
  00571	0b d1		 or	 edx, ecx
  00573	c1 e8 08	 shr	 eax, 8
  00576	c1 e2 08	 shl	 edx, 8
  00579	0b d7		 or	 edx, edi
  0057b	48 8b 7c 24 20	 mov	 rdi, QWORD PTR [rsp+32]
  00580	89 16		 mov	 DWORD PTR [rsi], edx
  00582	0f b6 d0	 movzx	 edx, al
  00585	0f b6 c3	 movzx	 eax, bl
  00588	c1 e0 08	 shl	 eax, 8
  0058b	0b d0		 or	 edx, eax
  0058d	8b c3		 mov	 eax, ebx
  0058f	c1 eb 18	 shr	 ebx, 24
  00592	c1 e2 08	 shl	 edx, 8
  00595	c1 e8 10	 shr	 eax, 16
  00598	0f b6 c8	 movzx	 ecx, al
  0059b	0b d1		 or	 edx, ecx
  0059d	c1 e2 08	 shl	 edx, 8
  005a0	0b d3		 or	 edx, ebx
  005a2	48 8b 5c 24 08	 mov	 rbx, QWORD PTR [rsp+8]
  005a7	89 56 04	 mov	 DWORD PTR [rsi+4], edx
  005aa	48 8b 74 24 18	 mov	 rsi, QWORD PTR [rsp+24]
  005af	c3		 ret	 0
Cast5Decrypt ENDP
_TEXT	ENDS
PUBLIC	Cast5Encrypt
;	COMDAT pdata
; File c:\home\public\desktop\projects\ciphershed.build\src\common\endian.c
pdata	SEGMENT
$pdata$Cast5Encrypt DD imagerel $LN43
	DD	imagerel $LN43+1456
	DD	imagerel $unwind$Cast5Encrypt
pdata	ENDS
;	COMDAT xdata
xdata	SEGMENT
$unwind$Cast5Encrypt DD 081301H
	DD	047413H
	DD	03640fH
	DD	02540bH
	DD	013407H
; Function compile flags: /Ogspy
; File c:\home\public\desktop\projects\ciphershed.build\src\crypto\cast.c
xdata	ENDS
;	COMDAT Cast5Encrypt
_TEXT	SEGMENT
inBlock$ = 8
outBlock$ = 16
key$ = 24
Cast5Encrypt PROC					; COMDAT

; 589  : {

$LN43:
  00000	48 8b c4	 mov	 rax, rsp
  00003	48 89 58 08	 mov	 QWORD PTR [rax+8], rbx
  00007	48 89 68 10	 mov	 QWORD PTR [rax+16], rbp
  0000b	48 89 70 18	 mov	 QWORD PTR [rax+24], rsi
  0000f	48 89 78 20	 mov	 QWORD PTR [rax+32], rdi

; 590  : 	word32 l = BE32 (((word32 *)inBlock)[0]);
; 591  : 	word32 r = BE32 (((word32 *)inBlock)[1]);

  00013	44 8b 49 04	 mov	 r9d, DWORD PTR [rcx+4]
  00017	44 8b 11	 mov	 r10d, DWORD PTR [rcx]
  0001a	4d 8b d8	 mov	 r11, r8
  0001d	41 8b c1	 mov	 eax, r9d
  00020	48 8b f2	 mov	 rsi, rdx

; 592  : 	word32 *K = key->K;
; 593  : 	word32 t;
; 594  : 
; 595  : 	/* Do the work */
; 596  : 	F1(l, r,  0, 16);

  00023	48 8d 2d 00 00
	00 00		 lea	 rbp, OFFSET FLAT:S
  0002a	c1 e8 08	 shr	 eax, 8
  0002d	0f b6 f8	 movzx	 edi, al
  00030	41 0f b6 c1	 movzx	 eax, r9b
  00034	c1 e0 08	 shl	 eax, 8
  00037	0b f8		 or	 edi, eax
  00039	41 8b c1	 mov	 eax, r9d
  0003c	41 c1 e9 18	 shr	 r9d, 24
  00040	c1 e8 10	 shr	 eax, 16
  00043	c1 e7 08	 shl	 edi, 8
  00046	0f b6 c8	 movzx	 ecx, al
  00049	41 8b 00	 mov	 eax, DWORD PTR [r8]
  0004c	0b f9		 or	 edi, ecx
  0004e	41 8b 4b 40	 mov	 ecx, DWORD PTR [r11+64]
  00052	c1 e7 08	 shl	 edi, 8
  00055	41 0b f9	 or	 edi, r9d

; 597  : 	F2(r, l,  1, 16);

  00058	45 8b 4b 04	 mov	 r9d, DWORD PTR [r11+4]
  0005c	44 8d 04 07	 lea	 r8d, DWORD PTR [rdi+rax]
  00060	41 d3 c0	 rol	 r8d, cl
  00063	41 8b c0	 mov	 eax, r8d
  00066	c1 e8 18	 shr	 eax, 24
  00069	0f b6 d0	 movzx	 edx, al
  0006c	41 8b c0	 mov	 eax, r8d
  0006f	8b 5c 95 00	 mov	 ebx, DWORD PTR [rbp+rdx*4]
  00073	c1 e8 10	 shr	 eax, 16
  00076	0f b6 c8	 movzx	 ecx, al
  00079	41 8b c0	 mov	 eax, r8d
  0007c	33 9c 8d 00 04
	00 00		 xor	 ebx, DWORD PTR [rbp+rcx*4+1024]
  00083	c1 e8 08	 shr	 eax, 8
  00086	0f b6 c8	 movzx	 ecx, al
  00089	41 0f b6 c0	 movzx	 eax, r8b
  0008d	2b 9c 8d 00 08
	00 00		 sub	 ebx, DWORD PTR [rbp+rcx*4+2048]
  00094	03 9c 85 00 0c
	00 00		 add	 ebx, DWORD PTR [rbp+rax*4+3072]
  0009b	41 8b c2	 mov	 eax, r10d
  0009e	c1 e8 08	 shr	 eax, 8
  000a1	0f b6 d0	 movzx	 edx, al
  000a4	41 0f b6 c2	 movzx	 eax, r10b
  000a8	c1 e0 08	 shl	 eax, 8
  000ab	0b d0		 or	 edx, eax
  000ad	41 8b c2	 mov	 eax, r10d
  000b0	41 c1 ea 18	 shr	 r10d, 24
  000b4	c1 e8 10	 shr	 eax, 16
  000b7	c1 e2 08	 shl	 edx, 8
  000ba	0f b6 c8	 movzx	 ecx, al
  000bd	0b d1		 or	 edx, ecx
  000bf	41 8b 4b 44	 mov	 ecx, DWORD PTR [r11+68]
  000c3	c1 e2 08	 shl	 edx, 8
  000c6	41 0b d2	 or	 edx, r10d
  000c9	33 da		 xor	 ebx, edx
  000cb	44 33 cb	 xor	 r9d, ebx
  000ce	41 d3 c1	 rol	 r9d, cl
  000d1	41 8b c1	 mov	 eax, r9d
  000d4	c1 e8 18	 shr	 eax, 24
  000d7	0f b6 d0	 movzx	 edx, al
  000da	41 8b c1	 mov	 eax, r9d
  000dd	44 8b 44 95 00	 mov	 r8d, DWORD PTR [rbp+rdx*4]
  000e2	c1 e8 10	 shr	 eax, 16
  000e5	0f b6 c8	 movzx	 ecx, al
  000e8	41 8b c1	 mov	 eax, r9d
  000eb	44 2b 84 8d 00
	04 00 00	 sub	 r8d, DWORD PTR [rbp+rcx*4+1024]
  000f3	c1 e8 08	 shr	 eax, 8
  000f6	0f b6 c8	 movzx	 ecx, al
  000f9	41 0f b6 c1	 movzx	 eax, r9b

; 598  : 	F3(l, r,  2, 16);

  000fd	45 8b 4b 08	 mov	 r9d, DWORD PTR [r11+8]
  00101	44 03 84 8d 00
	08 00 00	 add	 r8d, DWORD PTR [rbp+rcx*4+2048]
  00109	41 8b 4b 48	 mov	 ecx, DWORD PTR [r11+72]
  0010d	44 33 84 85 00
	0c 00 00	 xor	 r8d, DWORD PTR [rbp+rax*4+3072]
  00115	41 33 f8	 xor	 edi, r8d
  00118	44 2b cf	 sub	 r9d, edi
  0011b	41 d3 c1	 rol	 r9d, cl
  0011e	41 8b c1	 mov	 eax, r9d
  00121	c1 e8 18	 shr	 eax, 24
  00124	0f b6 d0	 movzx	 edx, al
  00127	41 8b c1	 mov	 eax, r9d
  0012a	c1 e8 10	 shr	 eax, 16
  0012d	0f b6 c8	 movzx	 ecx, al
  00130	44 8b 44 95 00	 mov	 r8d, DWORD PTR [rbp+rdx*4]
  00135	41 8b c1	 mov	 eax, r9d
  00138	44 03 84 8d 00
	04 00 00	 add	 r8d, DWORD PTR [rbp+rcx*4+1024]
  00140	c1 e8 08	 shr	 eax, 8
  00143	0f b6 c8	 movzx	 ecx, al
  00146	41 0f b6 c1	 movzx	 eax, r9b
  0014a	44 33 84 8d 00
	08 00 00	 xor	 r8d, DWORD PTR [rbp+rcx*4+2048]

; 599  : 	F1(r, l,  3, 16);

  00152	41 8b 4b 4c	 mov	 ecx, DWORD PTR [r11+76]
  00156	44 2b 84 85 00
	0c 00 00	 sub	 r8d, DWORD PTR [rbp+rax*4+3072]
  0015e	41 8b 43 0c	 mov	 eax, DWORD PTR [r11+12]
  00162	41 33 d8	 xor	 ebx, r8d
  00165	44 8d 0c 03	 lea	 r9d, DWORD PTR [rbx+rax]
  00169	41 d3 c1	 rol	 r9d, cl
  0016c	41 8b c1	 mov	 eax, r9d
  0016f	c1 e8 18	 shr	 eax, 24
  00172	0f b6 d0	 movzx	 edx, al
  00175	41 8b c1	 mov	 eax, r9d
  00178	44 8b 44 95 00	 mov	 r8d, DWORD PTR [rbp+rdx*4]
  0017d	c1 e8 10	 shr	 eax, 16
  00180	0f b6 c8	 movzx	 ecx, al
  00183	41 8b c1	 mov	 eax, r9d
  00186	44 33 84 8d 00
	04 00 00	 xor	 r8d, DWORD PTR [rbp+rcx*4+1024]
  0018e	c1 e8 08	 shr	 eax, 8
  00191	0f b6 c8	 movzx	 ecx, al
  00194	41 0f b6 c1	 movzx	 eax, r9b

; 600  : 	F2(l, r,  4, 16);

  00198	45 8b 4b 10	 mov	 r9d, DWORD PTR [r11+16]
  0019c	44 2b 84 8d 00
	08 00 00	 sub	 r8d, DWORD PTR [rbp+rcx*4+2048]
  001a4	41 8b 4b 50	 mov	 ecx, DWORD PTR [r11+80]
  001a8	44 03 84 85 00
	0c 00 00	 add	 r8d, DWORD PTR [rbp+rax*4+3072]
  001b0	41 33 f8	 xor	 edi, r8d
  001b3	44 33 cf	 xor	 r9d, edi
  001b6	41 d3 c1	 rol	 r9d, cl
  001b9	41 8b c1	 mov	 eax, r9d
  001bc	c1 e8 18	 shr	 eax, 24
  001bf	0f b6 d0	 movzx	 edx, al
  001c2	41 8b c1	 mov	 eax, r9d
  001c5	44 8b 44 95 00	 mov	 r8d, DWORD PTR [rbp+rdx*4]
  001ca	c1 e8 10	 shr	 eax, 16
  001cd	0f b6 c8	 movzx	 ecx, al
  001d0	41 8b c1	 mov	 eax, r9d
  001d3	44 2b 84 8d 00
	04 00 00	 sub	 r8d, DWORD PTR [rbp+rcx*4+1024]
  001db	c1 e8 08	 shr	 eax, 8
  001de	0f b6 c8	 movzx	 ecx, al
  001e1	41 0f b6 c1	 movzx	 eax, r9b

; 601  : 	F3(r, l,  5, 16);

  001e5	45 8b 4b 14	 mov	 r9d, DWORD PTR [r11+20]
  001e9	44 03 84 8d 00
	08 00 00	 add	 r8d, DWORD PTR [rbp+rcx*4+2048]
  001f1	41 8b 4b 54	 mov	 ecx, DWORD PTR [r11+84]
  001f5	44 33 84 85 00
	0c 00 00	 xor	 r8d, DWORD PTR [rbp+rax*4+3072]
  001fd	41 33 d8	 xor	 ebx, r8d
  00200	44 2b cb	 sub	 r9d, ebx
  00203	41 d3 c1	 rol	 r9d, cl
  00206	41 8b c1	 mov	 eax, r9d
  00209	c1 e8 18	 shr	 eax, 24
  0020c	0f b6 d0	 movzx	 edx, al
  0020f	41 8b c1	 mov	 eax, r9d
  00212	44 8b 44 95 00	 mov	 r8d, DWORD PTR [rbp+rdx*4]
  00217	c1 e8 10	 shr	 eax, 16
  0021a	0f b6 c8	 movzx	 ecx, al
  0021d	41 8b c1	 mov	 eax, r9d
  00220	44 03 84 8d 00
	04 00 00	 add	 r8d, DWORD PTR [rbp+rcx*4+1024]
  00228	c1 e8 08	 shr	 eax, 8
  0022b	0f b6 c8	 movzx	 ecx, al
  0022e	41 0f b6 c1	 movzx	 eax, r9b
  00232	44 33 84 8d 00
	08 00 00	 xor	 r8d, DWORD PTR [rbp+rcx*4+2048]

; 602  : 	F1(l, r,  6, 16);

  0023a	41 8b 4b 58	 mov	 ecx, DWORD PTR [r11+88]
  0023e	44 2b 84 85 00
	0c 00 00	 sub	 r8d, DWORD PTR [rbp+rax*4+3072]
  00246	41 8b 43 18	 mov	 eax, DWORD PTR [r11+24]
  0024a	41 33 f8	 xor	 edi, r8d
  0024d	44 8d 0c 07	 lea	 r9d, DWORD PTR [rdi+rax]
  00251	41 d3 c1	 rol	 r9d, cl
  00254	41 8b c1	 mov	 eax, r9d
  00257	c1 e8 18	 shr	 eax, 24
  0025a	0f b6 d0	 movzx	 edx, al
  0025d	41 8b c1	 mov	 eax, r9d
  00260	44 8b 44 95 00	 mov	 r8d, DWORD PTR [rbp+rdx*4]
  00265	c1 e8 10	 shr	 eax, 16
  00268	0f b6 c8	 movzx	 ecx, al
  0026b	41 8b c1	 mov	 eax, r9d
  0026e	44 33 84 8d 00
	04 00 00	 xor	 r8d, DWORD PTR [rbp+rcx*4+1024]
  00276	c1 e8 08	 shr	 eax, 8
  00279	0f b6 c8	 movzx	 ecx, al
  0027c	44 2b 84 8d 00
	08 00 00	 sub	 r8d, DWORD PTR [rbp+rcx*4+2048]

; 603  : 	F2(r, l,  7, 16);

  00284	41 8b 4b 5c	 mov	 ecx, DWORD PTR [r11+92]
  00288	41 0f b6 c1	 movzx	 eax, r9b
  0028c	44 03 84 85 00
	0c 00 00	 add	 r8d, DWORD PTR [rbp+rax*4+3072]
  00294	45 8b 4b 1c	 mov	 r9d, DWORD PTR [r11+28]
  00298	41 33 d8	 xor	 ebx, r8d
  0029b	44 33 cb	 xor	 r9d, ebx
  0029e	41 d3 c1	 rol	 r9d, cl
  002a1	41 8b c1	 mov	 eax, r9d
  002a4	c1 e8 18	 shr	 eax, 24
  002a7	0f b6 d0	 movzx	 edx, al
  002aa	41 8b c1	 mov	 eax, r9d
  002ad	44 8b 44 95 00	 mov	 r8d, DWORD PTR [rbp+rdx*4]
  002b2	c1 e8 10	 shr	 eax, 16
  002b5	0f b6 c8	 movzx	 ecx, al
  002b8	41 8b c1	 mov	 eax, r9d
  002bb	44 2b 84 8d 00
	04 00 00	 sub	 r8d, DWORD PTR [rbp+rcx*4+1024]
  002c3	c1 e8 08	 shr	 eax, 8
  002c6	0f b6 c8	 movzx	 ecx, al
  002c9	41 0f b6 c1	 movzx	 eax, r9b

; 604  : 	F3(l, r,  8, 16);

  002cd	45 8b 4b 20	 mov	 r9d, DWORD PTR [r11+32]
  002d1	44 03 84 8d 00
	08 00 00	 add	 r8d, DWORD PTR [rbp+rcx*4+2048]
  002d9	41 8b 4b 60	 mov	 ecx, DWORD PTR [r11+96]
  002dd	44 33 84 85 00
	0c 00 00	 xor	 r8d, DWORD PTR [rbp+rax*4+3072]
  002e5	41 33 f8	 xor	 edi, r8d
  002e8	44 2b cf	 sub	 r9d, edi
  002eb	41 d3 c1	 rol	 r9d, cl
  002ee	41 8b c1	 mov	 eax, r9d
  002f1	c1 e8 18	 shr	 eax, 24
  002f4	0f b6 d0	 movzx	 edx, al
  002f7	41 8b c1	 mov	 eax, r9d
  002fa	44 8b 44 95 00	 mov	 r8d, DWORD PTR [rbp+rdx*4]
  002ff	c1 e8 10	 shr	 eax, 16
  00302	0f b6 c8	 movzx	 ecx, al
  00305	41 8b c1	 mov	 eax, r9d
  00308	44 03 84 8d 00
	04 00 00	 add	 r8d, DWORD PTR [rbp+rcx*4+1024]
  00310	c1 e8 08	 shr	 eax, 8
  00313	0f b6 c8	 movzx	 ecx, al
  00316	41 0f b6 c1	 movzx	 eax, r9b
  0031a	44 33 84 8d 00
	08 00 00	 xor	 r8d, DWORD PTR [rbp+rcx*4+2048]

; 605  : 	F1(r, l,  9, 16);

  00322	41 8b 4b 64	 mov	 ecx, DWORD PTR [r11+100]
  00326	44 2b 84 85 00
	0c 00 00	 sub	 r8d, DWORD PTR [rbp+rax*4+3072]
  0032e	41 8b 43 24	 mov	 eax, DWORD PTR [r11+36]
  00332	41 33 d8	 xor	 ebx, r8d
  00335	44 8d 0c 03	 lea	 r9d, DWORD PTR [rbx+rax]
  00339	41 d3 c1	 rol	 r9d, cl
  0033c	41 8b c1	 mov	 eax, r9d
  0033f	c1 e8 18	 shr	 eax, 24
  00342	0f b6 d0	 movzx	 edx, al
  00345	41 8b c1	 mov	 eax, r9d
  00348	44 8b 44 95 00	 mov	 r8d, DWORD PTR [rbp+rdx*4]
  0034d	c1 e8 10	 shr	 eax, 16
  00350	0f b6 c8	 movzx	 ecx, al
  00353	41 8b c1	 mov	 eax, r9d
  00356	44 33 84 8d 00
	04 00 00	 xor	 r8d, DWORD PTR [rbp+rcx*4+1024]
  0035e	c1 e8 08	 shr	 eax, 8
  00361	0f b6 c8	 movzx	 ecx, al
  00364	41 0f b6 c1	 movzx	 eax, r9b

; 606  : 	F2(l, r, 10, 16);

  00368	45 8b 4b 28	 mov	 r9d, DWORD PTR [r11+40]
  0036c	44 2b 84 8d 00
	08 00 00	 sub	 r8d, DWORD PTR [rbp+rcx*4+2048]
  00374	41 8b 4b 68	 mov	 ecx, DWORD PTR [r11+104]
  00378	44 03 84 85 00
	0c 00 00	 add	 r8d, DWORD PTR [rbp+rax*4+3072]
  00380	41 33 f8	 xor	 edi, r8d
  00383	44 33 cf	 xor	 r9d, edi
  00386	41 d3 c1	 rol	 r9d, cl
  00389	41 8b c1	 mov	 eax, r9d
  0038c	c1 e8 18	 shr	 eax, 24
  0038f	0f b6 d0	 movzx	 edx, al
  00392	41 8b c1	 mov	 eax, r9d
  00395	44 8b 44 95 00	 mov	 r8d, DWORD PTR [rbp+rdx*4]
  0039a	c1 e8 10	 shr	 eax, 16
  0039d	0f b6 c8	 movzx	 ecx, al
  003a0	41 8b c1	 mov	 eax, r9d
  003a3	44 2b 84 8d 00
	04 00 00	 sub	 r8d, DWORD PTR [rbp+rcx*4+1024]
  003ab	c1 e8 08	 shr	 eax, 8
  003ae	0f b6 c8	 movzx	 ecx, al
  003b1	41 0f b6 c1	 movzx	 eax, r9b

; 607  : 	F3(r, l, 11, 16);

  003b5	45 8b 4b 2c	 mov	 r9d, DWORD PTR [r11+44]
  003b9	44 03 84 8d 00
	08 00 00	 add	 r8d, DWORD PTR [rbp+rcx*4+2048]
  003c1	44 33 84 85 00
	0c 00 00	 xor	 r8d, DWORD PTR [rbp+rax*4+3072]
  003c9	41 33 d8	 xor	 ebx, r8d
  003cc	41 8b 4b 6c	 mov	 ecx, DWORD PTR [r11+108]
  003d0	44 2b cb	 sub	 r9d, ebx
  003d3	41 d3 c1	 rol	 r9d, cl
  003d6	41 8b c1	 mov	 eax, r9d
  003d9	c1 e8 18	 shr	 eax, 24
  003dc	0f b6 d0	 movzx	 edx, al
  003df	41 8b c1	 mov	 eax, r9d
  003e2	44 8b 44 95 00	 mov	 r8d, DWORD PTR [rbp+rdx*4]
  003e7	c1 e8 10	 shr	 eax, 16
  003ea	0f b6 c8	 movzx	 ecx, al
  003ed	41 8b c1	 mov	 eax, r9d
  003f0	44 03 84 8d 00
	04 00 00	 add	 r8d, DWORD PTR [rbp+rcx*4+1024]
  003f8	c1 e8 08	 shr	 eax, 8
  003fb	0f b6 c8	 movzx	 ecx, al
  003fe	41 0f b6 c1	 movzx	 eax, r9b
  00402	44 33 84 8d 00
	08 00 00	 xor	 r8d, DWORD PTR [rbp+rcx*4+2048]

; 608  : 	F1(l, r, 12, 16);

  0040a	41 8b 4b 70	 mov	 ecx, DWORD PTR [r11+112]
  0040e	44 2b 84 85 00
	0c 00 00	 sub	 r8d, DWORD PTR [rbp+rax*4+3072]
  00416	41 8b 43 30	 mov	 eax, DWORD PTR [r11+48]
  0041a	41 33 f8	 xor	 edi, r8d
  0041d	44 8d 0c 07	 lea	 r9d, DWORD PTR [rdi+rax]
  00421	41 d3 c1	 rol	 r9d, cl
  00424	41 8b c1	 mov	 eax, r9d
  00427	c1 e8 18	 shr	 eax, 24
  0042a	0f b6 d0	 movzx	 edx, al
  0042d	41 8b c1	 mov	 eax, r9d
  00430	44 8b 44 95 00	 mov	 r8d, DWORD PTR [rbp+rdx*4]
  00435	c1 e8 10	 shr	 eax, 16
  00438	0f b6 c8	 movzx	 ecx, al
  0043b	41 8b c1	 mov	 eax, r9d
  0043e	44 33 84 8d 00
	04 00 00	 xor	 r8d, DWORD PTR [rbp+rcx*4+1024]
  00446	c1 e8 08	 shr	 eax, 8
  00449	0f b6 c8	 movzx	 ecx, al
  0044c	41 0f b6 c1	 movzx	 eax, r9b

; 609  : 	F2(r, l, 13, 16);

  00450	45 8b 4b 34	 mov	 r9d, DWORD PTR [r11+52]
  00454	44 2b 84 8d 00
	08 00 00	 sub	 r8d, DWORD PTR [rbp+rcx*4+2048]
  0045c	41 8b 4b 74	 mov	 ecx, DWORD PTR [r11+116]
  00460	44 03 84 85 00
	0c 00 00	 add	 r8d, DWORD PTR [rbp+rax*4+3072]
  00468	41 33 d8	 xor	 ebx, r8d
  0046b	44 33 cb	 xor	 r9d, ebx
  0046e	41 d3 c1	 rol	 r9d, cl
  00471	41 8b c1	 mov	 eax, r9d
  00474	c1 e8 18	 shr	 eax, 24
  00477	0f b6 d0	 movzx	 edx, al
  0047a	41 8b c1	 mov	 eax, r9d
  0047d	44 8b 44 95 00	 mov	 r8d, DWORD PTR [rbp+rdx*4]
  00482	c1 e8 10	 shr	 eax, 16
  00485	0f b6 c8	 movzx	 ecx, al
  00488	41 8b c1	 mov	 eax, r9d
  0048b	44 2b 84 8d 00
	04 00 00	 sub	 r8d, DWORD PTR [rbp+rcx*4+1024]
  00493	c1 e8 08	 shr	 eax, 8
  00496	0f b6 c8	 movzx	 ecx, al
  00499	41 0f b6 c1	 movzx	 eax, r9b

; 610  : 	F3(l, r, 14, 16);

  0049d	45 8b 4b 38	 mov	 r9d, DWORD PTR [r11+56]
  004a1	44 03 84 8d 00
	08 00 00	 add	 r8d, DWORD PTR [rbp+rcx*4+2048]
  004a9	41 8b 4b 78	 mov	 ecx, DWORD PTR [r11+120]
  004ad	44 33 84 85 00
	0c 00 00	 xor	 r8d, DWORD PTR [rbp+rax*4+3072]
  004b5	41 33 f8	 xor	 edi, r8d
  004b8	44 2b cf	 sub	 r9d, edi
  004bb	41 d3 c1	 rol	 r9d, cl
  004be	41 8b c1	 mov	 eax, r9d
  004c1	c1 e8 18	 shr	 eax, 24
  004c4	0f b6 d0	 movzx	 edx, al
  004c7	41 8b c1	 mov	 eax, r9d
  004ca	44 8b 44 95 00	 mov	 r8d, DWORD PTR [rbp+rdx*4]
  004cf	c1 e8 10	 shr	 eax, 16
  004d2	0f b6 c8	 movzx	 ecx, al
  004d5	41 8b c1	 mov	 eax, r9d
  004d8	44 03 84 8d 00
	04 00 00	 add	 r8d, DWORD PTR [rbp+rcx*4+1024]
  004e0	c1 e8 08	 shr	 eax, 8
  004e3	0f b6 c8	 movzx	 ecx, al
  004e6	41 0f b6 c1	 movzx	 eax, r9b
  004ea	44 33 84 8d 00
	08 00 00	 xor	 r8d, DWORD PTR [rbp+rcx*4+2048]

; 611  : 	F1(r, l, 15, 16);

  004f2	41 8b 4b 7c	 mov	 ecx, DWORD PTR [r11+124]
  004f6	44 2b 84 85 00
	0c 00 00	 sub	 r8d, DWORD PTR [rbp+rax*4+3072]
  004fe	41 8b 43 3c	 mov	 eax, DWORD PTR [r11+60]
  00502	41 33 d8	 xor	 ebx, r8d
  00505	44 8d 0c 03	 lea	 r9d, DWORD PTR [rbx+rax]
  00509	41 d3 c1	 rol	 r9d, cl
  0050c	41 8b c1	 mov	 eax, r9d
  0050f	c1 e8 18	 shr	 eax, 24
  00512	0f b6 d0	 movzx	 edx, al
  00515	41 8b c1	 mov	 eax, r9d
  00518	44 8b 44 95 00	 mov	 r8d, DWORD PTR [rbp+rdx*4]
  0051d	c1 e8 10	 shr	 eax, 16
  00520	0f b6 c8	 movzx	 ecx, al
  00523	41 8b c1	 mov	 eax, r9d
  00526	44 33 84 8d 00
	04 00 00	 xor	 r8d, DWORD PTR [rbp+rcx*4+1024]
  0052e	c1 e8 08	 shr	 eax, 8
  00531	0f b6 c8	 movzx	 ecx, al
  00534	41 0f b6 c1	 movzx	 eax, r9b
  00538	44 2b 84 8d 00
	08 00 00	 sub	 r8d, DWORD PTR [rbp+rcx*4+2048]
  00540	44 03 84 85 00
	0c 00 00	 add	 r8d, DWORD PTR [rbp+rax*4+3072]

; 612  : 
; 613  : 	/* Put l,r into outblock */
; 614  : 	((word32 *)outBlock)[0] = BE32 (r);
; 615  : 	((word32 *)outBlock)[1] = BE32 (l);
; 616  : }

  00548	48 8b 6c 24 10	 mov	 rbp, QWORD PTR [rsp+16]
  0054d	41 33 f8	 xor	 edi, r8d
  00550	8b c7		 mov	 eax, edi
  00552	c1 e8 08	 shr	 eax, 8
  00555	0f b6 d0	 movzx	 edx, al
  00558	40 0f b6 c7	 movzx	 eax, dil
  0055c	c1 e0 08	 shl	 eax, 8
  0055f	0b d0		 or	 edx, eax
  00561	8b c7		 mov	 eax, edi
  00563	c1 ef 18	 shr	 edi, 24
  00566	c1 e2 08	 shl	 edx, 8
  00569	c1 e8 10	 shr	 eax, 16
  0056c	0f b6 c8	 movzx	 ecx, al
  0056f	8b c3		 mov	 eax, ebx
  00571	0b d1		 or	 edx, ecx
  00573	c1 e8 08	 shr	 eax, 8
  00576	c1 e2 08	 shl	 edx, 8
  00579	0b d7		 or	 edx, edi
  0057b	48 8b 7c 24 20	 mov	 rdi, QWORD PTR [rsp+32]
  00580	89 16		 mov	 DWORD PTR [rsi], edx
  00582	0f b6 d0	 movzx	 edx, al
  00585	0f b6 c3	 movzx	 eax, bl
  00588	c1 e0 08	 shl	 eax, 8
  0058b	0b d0		 or	 edx, eax
  0058d	8b c3		 mov	 eax, ebx
  0058f	c1 eb 18	 shr	 ebx, 24
  00592	c1 e2 08	 shl	 edx, 8
  00595	c1 e8 10	 shr	 eax, 16
  00598	0f b6 c8	 movzx	 ecx, al
  0059b	0b d1		 or	 edx, ecx
  0059d	c1 e2 08	 shl	 edx, 8
  005a0	0b d3		 or	 edx, ebx
  005a2	48 8b 5c 24 08	 mov	 rbx, QWORD PTR [rsp+8]
  005a7	89 56 04	 mov	 DWORD PTR [rsi+4], edx
  005aa	48 8b 74 24 18	 mov	 rsi, QWORD PTR [rsp+24]
  005af	c3		 ret	 0
Cast5Encrypt ENDP
END
